$ fq -d wasm dv local_get-0.wasm
     |00 01 02 03 04 05 06 07 08 09 0a 0b 0c 0d 0e 0f|0123456789abcdef|.{}: local_get-0.wasm (wasm) 0x0-0x29d (669)
0x000|00 61 73 6d                                    |.asm            |  magic: raw bits (valid) 0x0-0x4 (4)
0x000|            01 00 00 00                        |    ....        |  version: 1 0x4-0x8 (4)
     |                                               |                |  sections[0:4]: 0x8-0x29d (661)
     |                                               |                |    [0]{}: section 0x8-0x40 (56)
0x000|                        01                     |        .       |      id: "type_section" (1) 0x8-0x9 (1)
0x000|                           36                  |         6      |      size: 54 (valid) 0x9-0xa (1)
     |                                               |                |      content{}: 0xa-0x40 (54)
     |                                               |                |        ft{}: 0xa-0x40 (54)
0x000|                              0a               |          .     |          n: 10 (valid) 0xa-0xb (1)
     |                                               |                |          x[0:10]: 0xb-0x40 (53)
     |                                               |                |            [0]{}: ft 0xb-0xf (4)
0x000|                                 60            |           `    |              tag: 0x60 (valid) 0xb-0xc (1)
     |                                               |                |              rt1{}: 0xc-0xd (1)
0x000|                                    00         |            .   |                n: 0 (valid) 0xc-0xd (1)
     |                                               |                |                x[0:0]: 0xd-0xd (0)
     |                                               |                |              rt2{}: 0xd-0xf (2)
0x000|                                       01      |             .  |                n: 1 (valid) 0xd-0xe (1)
     |                                               |                |                x[0:1]: 0xe-0xf (1)
0x000|                                          7f   |              . |                  [0]: "i32" (0x7f) t 0xe-0xf (1)
     |                                               |                |            [1]{}: ft 0xf-0x13 (4)
0x000|                                             60|               `|              tag: 0x60 (valid) 0xf-0x10 (1)
     |                                               |                |              rt1{}: 0x10-0x11 (1)
0x010|00                                             |.               |                n: 0 (valid) 0x10-0x11 (1)
     |                                               |                |                x[0:0]: 0x11-0x11 (0)
     |                                               |                |              rt2{}: 0x11-0x13 (2)
0x010|   01                                          | .              |                n: 1 (valid) 0x11-0x12 (1)
     |                                               |                |                x[0:1]: 0x12-0x13 (1)
0x010|      7e                                       |  ~             |                  [0]: "i64" (0x7e) t 0x12-0x13 (1)
     |                                               |                |            [2]{}: ft 0x13-0x17 (4)
0x010|         60                                    |   `            |              tag: 0x60 (valid) 0x13-0x14 (1)
     |                                               |                |              rt1{}: 0x14-0x15 (1)
0x010|            00                                 |    .           |                n: 0 (valid) 0x14-0x15 (1)
     |                                               |                |                x[0:0]: 0x15-0x15 (0)
     |                                               |                |              rt2{}: 0x15-0x17 (2)
0x010|               01                              |     .          |                n: 1 (valid) 0x15-0x16 (1)
     |                                               |                |                x[0:1]: 0x16-0x17 (1)
0x010|                  7d                           |      }         |                  [0]: "f32" (0x7d) t 0x16-0x17 (1)
     |                                               |                |            [3]{}: ft 0x17-0x1b (4)
0x010|                     60                        |       `        |              tag: 0x60 (valid) 0x17-0x18 (1)
     |                                               |                |              rt1{}: 0x18-0x19 (1)
0x010|                        00                     |        .       |                n: 0 (valid) 0x18-0x19 (1)
     |                                               |                |                x[0:0]: 0x19-0x19 (0)
     |                                               |                |              rt2{}: 0x19-0x1b (2)
0x010|                           01                  |         .      |                n: 1 (valid) 0x19-0x1a (1)
     |                                               |                |                x[0:1]: 0x1a-0x1b (1)
0x010|                              7c               |          |     |                  [0]: "f64" (0x7c) t 0x1a-0x1b (1)
     |                                               |                |            [4]{}: ft 0x1b-0x20 (5)
0x010|                                 60            |           `    |              tag: 0x60 (valid) 0x1b-0x1c (1)
     |                                               |                |              rt1{}: 0x1c-0x1e (2)
0x010|                                    01         |            .   |                n: 1 (valid) 0x1c-0x1d (1)
     |                                               |                |                x[0:1]: 0x1d-0x1e (1)
0x010|                                       7f      |             .  |                  [0]: "i32" (0x7f) t 0x1d-0x1e (1)
     |                                               |                |              rt2{}: 0x1e-0x20 (2)
0x010|                                          01   |              . |                n: 1 (valid) 0x1e-0x1f (1)
     |                                               |                |                x[0:1]: 0x1f-0x20 (1)
0x010|                                             7f|               .|                  [0]: "i32" (0x7f) t 0x1f-0x20 (1)
     |                                               |                |            [5]{}: ft 0x20-0x25 (5)
0x020|60                                             |`               |              tag: 0x60 (valid) 0x20-0x21 (1)
     |                                               |                |              rt1{}: 0x21-0x23 (2)
0x020|   01                                          | .              |                n: 1 (valid) 0x21-0x22 (1)
     |                                               |                |                x[0:1]: 0x22-0x23 (1)
0x020|      7e                                       |  ~             |                  [0]: "i64" (0x7e) t 0x22-0x23 (1)
     |                                               |                |              rt2{}: 0x23-0x25 (2)
0x020|         01                                    |   .            |                n: 1 (valid) 0x23-0x24 (1)
     |                                               |                |                x[0:1]: 0x24-0x25 (1)
0x020|            7e                                 |    ~           |                  [0]: "i64" (0x7e) t 0x24-0x25 (1)
     |                                               |                |            [6]{}: ft 0x25-0x2a (5)
0x020|               60                              |     `          |              tag: 0x60 (valid) 0x25-0x26 (1)
     |                                               |                |              rt1{}: 0x26-0x28 (2)
0x020|                  01                           |      .         |                n: 1 (valid) 0x26-0x27 (1)
     |                                               |                |                x[0:1]: 0x27-0x28 (1)
0x020|                     7d                        |       }        |                  [0]: "f32" (0x7d) t 0x27-0x28 (1)
     |                                               |                |              rt2{}: 0x28-0x2a (2)
0x020|                        01                     |        .       |                n: 1 (valid) 0x28-0x29 (1)
     |                                               |                |                x[0:1]: 0x29-0x2a (1)
0x020|                           7d                  |         }      |                  [0]: "f32" (0x7d) t 0x29-0x2a (1)
     |                                               |                |            [7]{}: ft 0x2a-0x2f (5)
0x020|                              60               |          `     |              tag: 0x60 (valid) 0x2a-0x2b (1)
     |                                               |                |              rt1{}: 0x2b-0x2d (2)
0x020|                                 01            |           .    |                n: 1 (valid) 0x2b-0x2c (1)
     |                                               |                |                x[0:1]: 0x2c-0x2d (1)
0x020|                                    7c         |            |   |                  [0]: "f64" (0x7c) t 0x2c-0x2d (1)
     |                                               |                |              rt2{}: 0x2d-0x2f (2)
0x020|                                       01      |             .  |                n: 1 (valid) 0x2d-0x2e (1)
     |                                               |                |                x[0:1]: 0x2e-0x2f (1)
0x020|                                          7c   |              | |                  [0]: "f64" (0x7c) t 0x2e-0x2f (1)
     |                                               |                |            [8]{}: ft 0x2f-0x37 (8)
0x020|                                             60|               `|              tag: 0x60 (valid) 0x2f-0x30 (1)
     |                                               |                |              rt1{}: 0x30-0x36 (6)
0x030|05                                             |.               |                n: 5 (valid) 0x30-0x31 (1)
     |                                               |                |                x[0:5]: 0x31-0x36 (5)
0x030|   7e                                          | ~              |                  [0]: "i64" (0x7e) t 0x31-0x32 (1)
0x030|      7d                                       |  }             |                  [1]: "f32" (0x7d) t 0x32-0x33 (1)
0x030|         7c                                    |   |            |                  [2]: "f64" (0x7c) t 0x33-0x34 (1)
0x030|            7f                                 |    .           |                  [3]: "i32" (0x7f) t 0x34-0x35 (1)
0x030|               7f                              |     .          |                  [4]: "i32" (0x7f) t 0x35-0x36 (1)
     |                                               |                |              rt2{}: 0x36-0x37 (1)
0x030|                  00                           |      .         |                n: 0 (valid) 0x36-0x37 (1)
     |                                               |                |                x[0:0]: 0x37-0x37 (0)
     |                                               |                |            [9]{}: ft 0x37-0x40 (9)
0x030|                     60                        |       `        |              tag: 0x60 (valid) 0x37-0x38 (1)
     |                                               |                |              rt1{}: 0x38-0x3e (6)
0x030|                        05                     |        .       |                n: 5 (valid) 0x38-0x39 (1)
     |                                               |                |                x[0:5]: 0x39-0x3e (5)
0x030|                           7e                  |         ~      |                  [0]: "i64" (0x7e) t 0x39-0x3a (1)
0x030|                              7d               |          }     |                  [1]: "f32" (0x7d) t 0x3a-0x3b (1)
0x030|                                 7c            |           |    |                  [2]: "f64" (0x7c) t 0x3b-0x3c (1)
0x030|                                    7f         |            .   |                  [3]: "i32" (0x7f) t 0x3c-0x3d (1)
0x030|                                       7f      |             .  |                  [4]: "i32" (0x7f) t 0x3d-0x3e (1)
     |                                               |                |              rt2{}: 0x3e-0x40 (2)
0x030|                                          01   |              . |                n: 1 (valid) 0x3e-0x3f (1)
     |                                               |                |                x[0:1]: 0x3f-0x40 (1)
0x030|                                             7c|               ||                  [0]: "f64" (0x7c) t 0x3f-0x40 (1)
     |                                               |                |    [1]{}: section 0x40-0x56 (22)
0x040|03                                             |.               |      id: "function_section" (3) 0x40-0x41 (1)
0x040|   14                                          | .              |      size: 20 (valid) 0x41-0x42 (1)
     |                                               |                |      content{}: 0x42-0x56 (20)
     |                                               |                |        x{}: 0x42-0x56 (20)
0x040|      13                                       |  .             |          n: 19 (valid) 0x42-0x43 (1)
     |                                               |                |          x[0:19]: 0x43-0x56 (19)
0x040|         00                                    |   .            |            [0]: 0 x (valid) 0x43-0x44 (1)
0x040|            01                                 |    .           |            [1]: 1 x (valid) 0x44-0x45 (1)
0x040|               02                              |     .          |            [2]: 2 x (valid) 0x45-0x46 (1)
0x040|                  03                           |      .         |            [3]: 3 x (valid) 0x46-0x47 (1)
0x040|                     04                        |       .        |            [4]: 4 x (valid) 0x47-0x48 (1)
0x040|                        05                     |        .       |            [5]: 5 x (valid) 0x48-0x49 (1)
0x040|                           06                  |         .      |            [6]: 6 x (valid) 0x49-0x4a (1)
0x040|                              07               |          .     |            [7]: 7 x (valid) 0x4a-0x4b (1)
0x040|                                 08            |           .    |            [8]: 8 x (valid) 0x4b-0x4c (1)
0x040|                                    09         |            .   |            [9]: 9 x (valid) 0x4c-0x4d (1)
0x040|                                       04      |             .  |            [10]: 4 x (valid) 0x4d-0x4e (1)
0x040|                                          04   |              . |            [11]: 4 x (valid) 0x4e-0x4f (1)
0x040|                                             04|               .|            [12]: 4 x (valid) 0x4f-0x50 (1)
0x050|04                                             |.               |            [13]: 4 x (valid) 0x50-0x51 (1)
0x050|   04                                          | .              |            [14]: 4 x (valid) 0x51-0x52 (1)
0x050|      04                                       |  .             |            [15]: 4 x (valid) 0x52-0x53 (1)
0x050|         04                                    |   .            |            [16]: 4 x (valid) 0x53-0x54 (1)
0x050|            04                                 |    .           |            [17]: 4 x (valid) 0x54-0x55 (1)
0x050|               04                              |     .          |            [18]: 4 x (valid) 0x55-0x56 (1)
     |                                               |                |    [2]{}: section 0x56-0x18c (310)
0x050|                  07                           |      .         |      id: "export_section" (7) 0x56-0x57 (1)
0x050|                     b3 02                     |       ..       |      size: 307 (valid) 0x57-0x59 (2)
     |                                               |                |      content{}: 0x59-0x18c (307)
     |                                               |                |        ex{}: 0x59-0x18c (307)
0x050|                           13                  |         .      |          n: 19 (valid) 0x59-0x5a (1)
     |                                               |                |          x[0:19]: 0x5a-0x18c (306)
     |                                               |                |            [0]{}: ex 0x5a-0x6b (17)
     |                                               |                |              nm{}: 0x5a-0x69 (15)
0x050|                              0e               |          .     |                n: 14 (valid) 0x5a-0x5b (1)
0x050|                                 74 79 70 65 2d|           type-|                b: "type-local-i32" 0x5b-0x69 (14)
0x060|6c 6f 63 61 6c 2d 69 33 32                     |local-i32       |
     |                                               |                |              d{}: 0x69-0x6b (2)
0x060|                           00                  |         .      |                tag: "funcidx" (0x0) 0x69-0x6a (1)
0x060|                              00               |          .     |                x: 0 (valid) 0x6a-0x6b (1)
     |                                               |                |            [1]{}: ex 0x6b-0x7c (17)
     |                                               |                |              nm{}: 0x6b-0x7a (15)
0x060|                                 0e            |           .    |                n: 14 (valid) 0x6b-0x6c (1)
0x060|                                    74 79 70 65|            type|                b: "type-local-i64" 0x6c-0x7a (14)
0x070|2d 6c 6f 63 61 6c 2d 69 36 34                  |-local-i64      |
     |                                               |                |              d{}: 0x7a-0x7c (2)
0x070|                              00               |          .     |                tag: "funcidx" (0x0) 0x7a-0x7b (1)
0x070|                                 01            |           .    |                x: 1 (valid) 0x7b-0x7c (1)
     |                                               |                |            [2]{}: ex 0x7c-0x8d (17)
     |                                               |                |              nm{}: 0x7c-0x8b (15)
0x070|                                    0e         |            .   |                n: 14 (valid) 0x7c-0x7d (1)
0x070|                                       74 79 70|             typ|                b: "type-local-f32" 0x7d-0x8b (14)
0x080|65 2d 6c 6f 63 61 6c 2d 66 33 32               |e-local-f32     |
     |                                               |                |              d{}: 0x8b-0x8d (2)
0x080|                                 00            |           .    |                tag: "funcidx" (0x0) 0x8b-0x8c (1)
0x080|                                    02         |            .   |                x: 2 (valid) 0x8c-0x8d (1)
     |                                               |                |            [3]{}: ex 0x8d-0x9e (17)
     |                                               |                |              nm{}: 0x8d-0x9c (15)
0x080|                                       0e      |             .  |                n: 14 (valid) 0x8d-0x8e (1)
0x080|                                          74 79|              ty|                b: "type-local-f64" 0x8e-0x9c (14)
0x090|70 65 2d 6c 6f 63 61 6c 2d 66 36 34            |pe-local-f64    |
     |                                               |                |              d{}: 0x9c-0x9e (2)
0x090|                                    00         |            .   |                tag: "funcidx" (0x0) 0x9c-0x9d (1)
0x090|                                       03      |             .  |                x: 3 (valid) 0x9d-0x9e (1)
     |                                               |                |            [4]{}: ex 0x9e-0xaf (17)
     |                                               |                |              nm{}: 0x9e-0xad (15)
0x090|                                          0e   |              . |                n: 14 (valid) 0x9e-0x9f (1)
0x090|                                             74|               t|                b: "type-param-i32" 0x9f-0xad (14)
0x0a0|79 70 65 2d 70 61 72 61 6d 2d 69 33 32         |ype-param-i32   |
     |                                               |                |              d{}: 0xad-0xaf (2)
0x0a0|                                       00      |             .  |                tag: "funcidx" (0x0) 0xad-0xae (1)
0x0a0|                                          04   |              . |                x: 4 (valid) 0xae-0xaf (1)
     |                                               |                |            [5]{}: ex 0xaf-0xc0 (17)
     |                                               |                |              nm{}: 0xaf-0xbe (15)
0x0a0|                                             0e|               .|                n: 14 (valid) 0xaf-0xb0 (1)
0x0b0|74 79 70 65 2d 70 61 72 61 6d 2d 69 36 34      |type-param-i64  |                b: "type-param-i64" 0xb0-0xbe (14)
     |                                               |                |              d{}: 0xbe-0xc0 (2)
0x0b0|                                          00   |              . |                tag: "funcidx" (0x0) 0xbe-0xbf (1)
0x0b0|                                             05|               .|                x: 5 (valid) 0xbf-0xc0 (1)
     |                                               |                |            [6]{}: ex 0xc0-0xd1 (17)
     |                                               |                |              nm{}: 0xc0-0xcf (15)
0x0c0|0e                                             |.               |                n: 14 (valid) 0xc0-0xc1 (1)
0x0c0|   74 79 70 65 2d 70 61 72 61 6d 2d 66 33 32   | type-param-f32 |                b: "type-param-f32" 0xc1-0xcf (14)
     |                                               |                |              d{}: 0xcf-0xd1 (2)
0x0c0|                                             00|               .|                tag: "funcidx" (0x0) 0xcf-0xd0 (1)
0x0d0|06                                             |.               |                x: 6 (valid) 0xd0-0xd1 (1)
     |                                               |                |            [7]{}: ex 0xd1-0xe2 (17)
     |                                               |                |              nm{}: 0xd1-0xe0 (15)
0x0d0|   0e                                          | .              |                n: 14 (valid) 0xd1-0xd2 (1)
0x0d0|      74 79 70 65 2d 70 61 72 61 6d 2d 66 36 34|  type-param-f64|                b: "type-param-f64" 0xd2-0xe0 (14)
     |                                               |                |              d{}: 0xe0-0xe2 (2)
0x0e0|00                                             |.               |                tag: "funcidx" (0x0) 0xe0-0xe1 (1)
0x0e0|   07                                          | .              |                x: 7 (valid) 0xe1-0xe2 (1)
     |                                               |                |            [8]{}: ex 0xe2-0xef (13)
     |                                               |                |              nm{}: 0xe2-0xed (11)
0x0e0|      0a                                       |  .             |                n: 10 (valid) 0xe2-0xe3 (1)
0x0e0|         74 79 70 65 2d 6d 69 78 65 64         |   type-mixed   |                b: "type-mixed" 0xe3-0xed (10)
     |                                               |                |              d{}: 0xed-0xef (2)
0x0e0|                                       00      |             .  |                tag: "funcidx" (0x0) 0xed-0xee (1)
0x0e0|                                          08   |              . |                x: 8 (valid) 0xee-0xef (1)
     |                                               |                |            [9]{}: ex 0xef-0xf6 (7)
     |                                               |                |              nm{}: 0xef-0xf4 (5)
0x0e0|                                             04|               .|                n: 4 (valid) 0xef-0xf0 (1)
0x0f0|72 65 61 64                                    |read            |                b: "read" 0xf0-0xf4 (4)
     |                                               |                |              d{}: 0xf4-0xf6 (2)
0x0f0|            00                                 |    .           |                tag: "funcidx" (0x0) 0xf4-0xf5 (1)
0x0f0|               09                              |     .          |                x: 9 (valid) 0xf5-0xf6 (1)
     |                                               |                |            [10]{}: ex 0xf6-0x107 (17)
     |                                               |                |              nm{}: 0xf6-0x105 (15)
0x0f0|                  0e                           |      .         |                n: 14 (valid) 0xf6-0xf7 (1)
0x0f0|                     61 73 2d 62 6c 6f 63 6b 2d|       as-block-|                b: "as-block-value" 0xf7-0x105 (14)
0x100|76 61 6c 75 65                                 |value           |
     |                                               |                |              d{}: 0x105-0x107 (2)
0x100|               00                              |     .          |                tag: "funcidx" (0x0) 0x105-0x106 (1)
0x100|                  0a                           |      .         |                x: 10 (valid) 0x106-0x107 (1)
     |                                               |                |            [11]{}: ex 0x107-0x117 (16)
     |                                               |                |              nm{}: 0x107-0x115 (14)
0x100|                     0d                        |       .        |                n: 13 (valid) 0x107-0x108 (1)
0x100|                        61 73 2d 6c 6f 6f 70 2d|        as-loop-|                b: "as-loop-value" 0x108-0x115 (13)
0x110|76 61 6c 75 65                                 |value           |
     |                                               |                |              d{}: 0x115-0x117 (2)
0x110|               00                              |     .          |                tag: "funcidx" (0x0) 0x115-0x116 (1)
0x110|                  0b                           |      .         |                x: 11 (valid) 0x116-0x117 (1)
     |                                               |                |            [12]{}: ex 0x117-0x125 (14)
     |                                               |                |              nm{}: 0x117-0x123 (12)
0x110|                     0b                        |       .        |                n: 11 (valid) 0x117-0x118 (1)
0x110|                        61 73 2d 62 72 2d 76 61|        as-br-va|                b: "as-br-value" 0x118-0x123 (11)
0x120|6c 75 65                                       |lue             |
     |                                               |                |              d{}: 0x123-0x125 (2)
0x120|         00                                    |   .            |                tag: "funcidx" (0x0) 0x123-0x124 (1)
0x120|            0c                                 |    .           |                x: 12 (valid) 0x124-0x125 (1)
     |                                               |                |            [13]{}: ex 0x125-0x136 (17)
     |                                               |                |              nm{}: 0x125-0x134 (15)
0x120|               0e                              |     .          |                n: 14 (valid) 0x125-0x126 (1)
0x120|                  61 73 2d 62 72 5f 69 66 2d 76|      as-br_if-v|                b: "as-br_if-value" 0x126-0x134 (14)
0x130|61 6c 75 65                                    |alue            |
     |                                               |                |              d{}: 0x134-0x136 (2)
0x130|            00                                 |    .           |                tag: "funcidx" (0x0) 0x134-0x135 (1)
0x130|               0d                              |     .          |                x: 13 (valid) 0x135-0x136 (1)
     |                                               |                |            [14]{}: ex 0x136-0x14c (22)
     |                                               |                |              nm{}: 0x136-0x14a (20)
0x130|                  13                           |      .         |                n: 19 (valid) 0x136-0x137 (1)
0x130|                     61 73 2d 62 72 5f 69 66 2d|       as-br_if-|                b: "as-br_if-value-cond" 0x137-0x14a (19)
0x140|76 61 6c 75 65 2d 63 6f 6e 64                  |value-cond      |
     |                                               |                |              d{}: 0x14a-0x14c (2)
0x140|                              00               |          .     |                tag: "funcidx" (0x0) 0x14a-0x14b (1)
0x140|                                 0e            |           .    |                x: 14 (valid) 0x14b-0x14c (1)
     |                                               |                |            [15]{}: ex 0x14c-0x160 (20)
     |                                               |                |              nm{}: 0x14c-0x15e (18)
0x140|                                    11         |            .   |                n: 17 (valid) 0x14c-0x14d (1)
0x140|                                       61 73 2d|             as-|                b: "as-br_table-value" 0x14d-0x15e (17)
0x150|62 72 5f 74 61 62 6c 65 2d 76 61 6c 75 65      |br_table-value  |
     |                                               |                |              d{}: 0x15e-0x160 (2)
0x150|                                          00   |              . |                tag: "funcidx" (0x0) 0x15e-0x15f (1)
0x150|                                             0f|               .|                x: 15 (valid) 0x15f-0x160 (1)
     |                                               |                |            [16]{}: ex 0x160-0x172 (18)
     |                                               |                |              nm{}: 0x160-0x170 (16)
0x160|0f                                             |.               |                n: 15 (valid) 0x160-0x161 (1)
0x160|   61 73 2d 72 65 74 75 72 6e 2d 76 61 6c 75 65| as-return-value|                b: "as-return-value" 0x161-0x170 (15)
     |                                               |                |              d{}: 0x170-0x172 (2)
0x170|00                                             |.               |                tag: "funcidx" (0x0) 0x170-0x171 (1)
0x170|   10                                          | .              |                x: 16 (valid) 0x171-0x172 (1)
     |                                               |                |            [17]{}: ex 0x172-0x17f (13)
     |                                               |                |              nm{}: 0x172-0x17d (11)
0x170|      0a                                       |  .             |                n: 10 (valid) 0x172-0x173 (1)
0x170|         61 73 2d 69 66 2d 74 68 65 6e         |   as-if-then   |                b: "as-if-then" 0x173-0x17d (10)
     |                                               |                |              d{}: 0x17d-0x17f (2)
0x170|                                       00      |             .  |                tag: "funcidx" (0x0) 0x17d-0x17e (1)
0x170|                                          11   |              . |                x: 17 (valid) 0x17e-0x17f (1)
     |                                               |                |            [18]{}: ex 0x17f-0x18c (13)
     |                                               |                |              nm{}: 0x17f-0x18a (11)
0x170|                                             0a|               .|                n: 10 (valid) 0x17f-0x180 (1)
0x180|61 73 2d 69 66 2d 65 6c 73 65                  |as-if-else      |                b: "as-if-else" 0x180-0x18a (10)
     |                                               |                |              d{}: 0x18a-0x18c (2)
0x180|                              00               |          .     |                tag: "funcidx" (0x0) 0x18a-0x18b (1)
0x180|                                 12            |           .    |                x: 18 (valid) 0x18b-0x18c (1)
     |                                               |                |    [3]{}: section 0x18c-0x29d (273)
0x180|                                    0a         |            .   |      id: "code_section" (10) 0x18c-0x18d (1)
0x180|                                       8e 02   |             .. |      size: 270 (valid) 0x18d-0x18f (2)
     |                                               |                |      content{}: 0x18f-0x29d (270)
     |                                               |                |        code{}: 0x18f-0x29d (270)
0x180|                                             13|               .|          n: 19 (valid) 0x18f-0x190 (1)
     |                                               |                |          x[0:19]: 0x190-0x29d (269)
     |                                               |                |            [0]{}: code 0x190-0x197 (7)
0x190|06                                             |.               |              size: 6 (valid) 0x190-0x191 (1)
     |                                               |                |              code{}: 0x191-0x197 (6)
     |                                               |                |                t{}: 0x191-0x194 (3)
0x190|   01                                          | .              |                  n: 1 (valid) 0x191-0x192 (1)
     |                                               |                |                  x[0:1]: 0x192-0x194 (2)
     |                                               |                |                    [0]{}: t 0x192-0x194 (2)
0x190|      01                                       |  .             |                      n: 1 (valid) 0x192-0x193 (1)
0x190|         7f                                    |   .            |                      t: "i32" (0x7f) 0x193-0x194 (1)
     |                                               |                |                e[0:2]: 0x194-0x197 (3)
     |                                               |                |                  [0]{}: in 0x194-0x196 (2)
0x190|            20                                 |                |                    opcode: "local.get" (0x20) 0x194-0x195 (1)
0x190|               00                              |     .          |                    x: 0 (valid) 0x195-0x196 (1)
     |                                               |                |                  [1]{}: in 0x196-0x197 (1)
0x190|                  0b                           |      .         |                    opcode: "end" (0xb) 0x196-0x197 (1)
     |                                               |                |            [1]{}: code 0x197-0x19e (7)
0x190|                     06                        |       .        |              size: 6 (valid) 0x197-0x198 (1)
     |                                               |                |              code{}: 0x198-0x19e (6)
     |                                               |                |                t{}: 0x198-0x19b (3)
0x190|                        01                     |        .       |                  n: 1 (valid) 0x198-0x199 (1)
     |                                               |                |                  x[0:1]: 0x199-0x19b (2)
     |                                               |                |                    [0]{}: t 0x199-0x19b (2)
0x190|                           01                  |         .      |                      n: 1 (valid) 0x199-0x19a (1)
0x190|                              7e               |          ~     |                      t: "i64" (0x7e) 0x19a-0x19b (1)
     |                                               |                |                e[0:2]: 0x19b-0x19e (3)
     |                                               |                |                  [0]{}: in 0x19b-0x19d (2)
0x190|                                 20            |                |                    opcode: "local.get" (0x20) 0x19b-0x19c (1)
0x190|                                    00         |            .   |                    x: 0 (valid) 0x19c-0x19d (1)
     |                                               |                |                  [1]{}: in 0x19d-0x19e (1)
0x190|                                       0b      |             .  |                    opcode: "end" (0xb) 0x19d-0x19e (1)
     |                                               |                |            [2]{}: code 0x19e-0x1a5 (7)
0x190|                                          06   |              . |              size: 6 (valid) 0x19e-0x19f (1)
     |                                               |                |              code{}: 0x19f-0x1a5 (6)
     |                                               |                |                t{}: 0x19f-0x1a2 (3)
0x190|                                             01|               .|                  n: 1 (valid) 0x19f-0x1a0 (1)
     |                                               |                |                  x[0:1]: 0x1a0-0x1a2 (2)
     |                                               |                |                    [0]{}: t 0x1a0-0x1a2 (2)
0x1a0|01                                             |.               |                      n: 1 (valid) 0x1a0-0x1a1 (1)
0x1a0|   7d                                          | }              |                      t: "f32" (0x7d) 0x1a1-0x1a2 (1)
     |                                               |                |                e[0:2]: 0x1a2-0x1a5 (3)
     |                                               |                |                  [0]{}: in 0x1a2-0x1a4 (2)
0x1a0|      20                                       |                |                    opcode: "local.get" (0x20) 0x1a2-0x1a3 (1)
0x1a0|         00                                    |   .            |                    x: 0 (valid) 0x1a3-0x1a4 (1)
     |                                               |                |                  [1]{}: in 0x1a4-0x1a5 (1)
0x1a0|            0b                                 |    .           |                    opcode: "end" (0xb) 0x1a4-0x1a5 (1)
     |                                               |                |            [3]{}: code 0x1a5-0x1ac (7)
0x1a0|               06                              |     .          |              size: 6 (valid) 0x1a5-0x1a6 (1)
     |                                               |                |              code{}: 0x1a6-0x1ac (6)
     |                                               |                |                t{}: 0x1a6-0x1a9 (3)
0x1a0|                  01                           |      .         |                  n: 1 (valid) 0x1a6-0x1a7 (1)
     |                                               |                |                  x[0:1]: 0x1a7-0x1a9 (2)
     |                                               |                |                    [0]{}: t 0x1a7-0x1a9 (2)
0x1a0|                     01                        |       .        |                      n: 1 (valid) 0x1a7-0x1a8 (1)
0x1a0|                        7c                     |        |       |                      t: "f64" (0x7c) 0x1a8-0x1a9 (1)
     |                                               |                |                e[0:2]: 0x1a9-0x1ac (3)
     |                                               |                |                  [0]{}: in 0x1a9-0x1ab (2)
0x1a0|                           20                  |                |                    opcode: "local.get" (0x20) 0x1a9-0x1aa (1)
0x1a0|                              00               |          .     |                    x: 0 (valid) 0x1aa-0x1ab (1)
     |                                               |                |                  [1]{}: in 0x1ab-0x1ac (1)
0x1a0|                                 0b            |           .    |                    opcode: "end" (0xb) 0x1ab-0x1ac (1)
     |                                               |                |            [4]{}: code 0x1ac-0x1b1 (5)
0x1a0|                                    04         |            .   |              size: 4 (valid) 0x1ac-0x1ad (1)
     |                                               |                |              code{}: 0x1ad-0x1b1 (4)
     |                                               |                |                t{}: 0x1ad-0x1ae (1)
0x1a0|                                       00      |             .  |                  n: 0 (valid) 0x1ad-0x1ae (1)
     |                                               |                |                  x[0:0]: 0x1ae-0x1ae (0)
     |                                               |                |                e[0:2]: 0x1ae-0x1b1 (3)
     |                                               |                |                  [0]{}: in 0x1ae-0x1b0 (2)
0x1a0|                                          20   |                |                    opcode: "local.get" (0x20) 0x1ae-0x1af (1)
0x1a0|                                             00|               .|                    x: 0 (valid) 0x1af-0x1b0 (1)
     |                                               |                |                  [1]{}: in 0x1b0-0x1b1 (1)
0x1b0|0b                                             |.               |                    opcode: "end" (0xb) 0x1b0-0x1b1 (1)
     |                                               |                |            [5]{}: code 0x1b1-0x1b6 (5)
0x1b0|   04                                          | .              |              size: 4 (valid) 0x1b1-0x1b2 (1)
     |                                               |                |              code{}: 0x1b2-0x1b6 (4)
     |                                               |                |                t{}: 0x1b2-0x1b3 (1)
0x1b0|      00                                       |  .             |                  n: 0 (valid) 0x1b2-0x1b3 (1)
     |                                               |                |                  x[0:0]: 0x1b3-0x1b3 (0)
     |                                               |                |                e[0:2]: 0x1b3-0x1b6 (3)
     |                                               |                |                  [0]{}: in 0x1b3-0x1b5 (2)
0x1b0|         20                                    |                |                    opcode: "local.get" (0x20) 0x1b3-0x1b4 (1)
0x1b0|            00                                 |    .           |                    x: 0 (valid) 0x1b4-0x1b5 (1)
     |                                               |                |                  [1]{}: in 0x1b5-0x1b6 (1)
0x1b0|               0b                              |     .          |                    opcode: "end" (0xb) 0x1b5-0x1b6 (1)
     |                                               |                |            [6]{}: code 0x1b6-0x1bb (5)
0x1b0|                  04                           |      .         |              size: 4 (valid) 0x1b6-0x1b7 (1)
     |                                               |                |              code{}: 0x1b7-0x1bb (4)
     |                                               |                |                t{}: 0x1b7-0x1b8 (1)
0x1b0|                     00                        |       .        |                  n: 0 (valid) 0x1b7-0x1b8 (1)
     |                                               |                |                  x[0:0]: 0x1b8-0x1b8 (0)
     |                                               |                |                e[0:2]: 0x1b8-0x1bb (3)
     |                                               |                |                  [0]{}: in 0x1b8-0x1ba (2)
0x1b0|                        20                     |                |                    opcode: "local.get" (0x20) 0x1b8-0x1b9 (1)
0x1b0|                           00                  |         .      |                    x: 0 (valid) 0x1b9-0x1ba (1)
     |                                               |                |                  [1]{}: in 0x1ba-0x1bb (1)
0x1b0|                              0b               |          .     |                    opcode: "end" (0xb) 0x1ba-0x1bb (1)
     |                                               |                |            [7]{}: code 0x1bb-0x1c0 (5)
0x1b0|                                 04            |           .    |              size: 4 (valid) 0x1bb-0x1bc (1)
     |                                               |                |              code{}: 0x1bc-0x1c0 (4)
     |                                               |                |                t{}: 0x1bc-0x1bd (1)
0x1b0|                                    00         |            .   |                  n: 0 (valid) 0x1bc-0x1bd (1)
     |                                               |                |                  x[0:0]: 0x1bd-0x1bd (0)
     |                                               |                |                e[0:2]: 0x1bd-0x1c0 (3)
     |                                               |                |                  [0]{}: in 0x1bd-0x1bf (2)
0x1b0|                                       20      |                |                    opcode: "local.get" (0x20) 0x1bd-0x1be (1)
0x1b0|                                          00   |              . |                    x: 0 (valid) 0x1be-0x1bf (1)
     |                                               |                |                  [1]{}: in 0x1bf-0x1c0 (1)
0x1b0|                                             0b|               .|                    opcode: "end" (0xb) 0x1bf-0x1c0 (1)
     |                                               |                |            [8]{}: code 0x1c0-0x1ed (45)
0x1c0|2c                                             |,               |              size: 44 (valid) 0x1c0-0x1c1 (1)
     |                                               |                |              code{}: 0x1c1-0x1ed (44)
     |                                               |                |                t{}: 0x1c1-0x1c8 (7)
0x1c0|   03                                          | .              |                  n: 3 (valid) 0x1c1-0x1c2 (1)
     |                                               |                |                  x[0:3]: 0x1c2-0x1c8 (6)
     |                                               |                |                    [0]{}: t 0x1c2-0x1c4 (2)
0x1c0|      01                                       |  .             |                      n: 1 (valid) 0x1c2-0x1c3 (1)
0x1c0|         7d                                    |   }            |                      t: "f32" (0x7d) 0x1c3-0x1c4 (1)
     |                                               |                |                    [1]{}: t 0x1c4-0x1c6 (2)
0x1c0|            02                                 |    .           |                      n: 2 (valid) 0x1c4-0x1c5 (1)
0x1c0|               7e                              |     ~          |                      t: "i64" (0x7e) 0x1c5-0x1c6 (1)
     |                                               |                |                    [2]{}: t 0x1c6-0x1c8 (2)
0x1c0|                  01                           |      .         |                      n: 1 (valid) 0x1c6-0x1c7 (1)
0x1c0|                     7c                        |       |        |                      t: "f64" (0x7c) 0x1c7-0x1c8 (1)
     |                                               |                |                e[0:28]: 0x1c8-0x1ed (37)
     |                                               |                |                  [0]{}: in 0x1c8-0x1ca (2)
0x1c0|                        20                     |                |                    opcode: "local.get" (0x20) 0x1c8-0x1c9 (1)
0x1c0|                           00                  |         .      |                    x: 0 (valid) 0x1c9-0x1ca (1)
     |                                               |                |                  [1]{}: in 0x1ca-0x1cb (1)
0x1c0|                              50               |          P     |                    opcode: "i64.eqz" (0x50) 0x1ca-0x1cb (1)
     |                                               |                |                  [2]{}: in 0x1cb-0x1cc (1)
0x1c0|                                 1a            |           .    |                    opcode: "drop" (0x1a) 0x1cb-0x1cc (1)
     |                                               |                |                  [3]{}: in 0x1cc-0x1ce (2)
0x1c0|                                    20         |                |                    opcode: "local.get" (0x20) 0x1cc-0x1cd (1)
0x1c0|                                       01      |             .  |                    x: 1 (valid) 0x1cd-0x1ce (1)
     |                                               |                |                  [4]{}: in 0x1ce-0x1cf (1)
0x1c0|                                          8c   |              . |                    opcode: "f32.neg" (0x8c) 0x1ce-0x1cf (1)
     |                                               |                |                  [5]{}: in 0x1cf-0x1d0 (1)
0x1c0|                                             1a|               .|                    opcode: "drop" (0x1a) 0x1cf-0x1d0 (1)
     |                                               |                |                  [6]{}: in 0x1d0-0x1d2 (2)
0x1d0|20                                             |                |                    opcode: "local.get" (0x20) 0x1d0-0x1d1 (1)
0x1d0|   02                                          | .              |                    x: 2 (valid) 0x1d1-0x1d2 (1)
     |                                               |                |                  [7]{}: in 0x1d2-0x1d3 (1)
0x1d0|      9a                                       |  .             |                    opcode: "f64.neg" (0x9a) 0x1d2-0x1d3 (1)
     |                                               |                |                  [8]{}: in 0x1d3-0x1d4 (1)
0x1d0|         1a                                    |   .            |                    opcode: "drop" (0x1a) 0x1d3-0x1d4 (1)
     |                                               |                |                  [9]{}: in 0x1d4-0x1d6 (2)
0x1d0|            20                                 |                |                    opcode: "local.get" (0x20) 0x1d4-0x1d5 (1)
0x1d0|               03                              |     .          |                    x: 3 (valid) 0x1d5-0x1d6 (1)
     |                                               |                |                  [10]{}: in 0x1d6-0x1d7 (1)
0x1d0|                  45                           |      E         |                    opcode: "32.eqz" (0x45) 0x1d6-0x1d7 (1)
     |                                               |                |                  [11]{}: in 0x1d7-0x1d8 (1)
0x1d0|                     1a                        |       .        |                    opcode: "drop" (0x1a) 0x1d7-0x1d8 (1)
     |                                               |                |                  [12]{}: in 0x1d8-0x1da (2)
0x1d0|                        20                     |                |                    opcode: "local.get" (0x20) 0x1d8-0x1d9 (1)
0x1d0|                           04                  |         .      |                    x: 4 (valid) 0x1d9-0x1da (1)
     |                                               |                |                  [13]{}: in 0x1da-0x1db (1)
0x1d0|                              45               |          E     |                    opcode: "32.eqz" (0x45) 0x1da-0x1db (1)
     |                                               |                |                  [14]{}: in 0x1db-0x1dc (1)
0x1d0|                                 1a            |           .    |                    opcode: "drop" (0x1a) 0x1db-0x1dc (1)
     |                                               |                |                  [15]{}: in 0x1dc-0x1de (2)
0x1d0|                                    20         |                |                    opcode: "local.get" (0x20) 0x1dc-0x1dd (1)
0x1d0|                                       05      |             .  |                    x: 5 (valid) 0x1dd-0x1de (1)
     |                                               |                |                  [16]{}: in 0x1de-0x1df (1)
0x1d0|                                          8c   |              . |                    opcode: "f32.neg" (0x8c) 0x1de-0x1df (1)
     |                                               |                |                  [17]{}: in 0x1df-0x1e0 (1)
0x1d0|                                             1a|               .|                    opcode: "drop" (0x1a) 0x1df-0x1e0 (1)
     |                                               |                |                  [18]{}: in 0x1e0-0x1e2 (2)
0x1e0|20                                             |                |                    opcode: "local.get" (0x20) 0x1e0-0x1e1 (1)
0x1e0|   06                                          | .              |                    x: 6 (valid) 0x1e1-0x1e2 (1)
     |                                               |                |                  [19]{}: in 0x1e2-0x1e3 (1)
0x1e0|      50                                       |  P             |                    opcode: "i64.eqz" (0x50) 0x1e2-0x1e3 (1)
     |                                               |                |                  [20]{}: in 0x1e3-0x1e4 (1)
0x1e0|         1a                                    |   .            |                    opcode: "drop" (0x1a) 0x1e3-0x1e4 (1)
     |                                               |                |                  [21]{}: in 0x1e4-0x1e6 (2)
0x1e0|            20                                 |                |                    opcode: "local.get" (0x20) 0x1e4-0x1e5 (1)
0x1e0|               07                              |     .          |                    x: 7 (valid) 0x1e5-0x1e6 (1)
     |                                               |                |                  [22]{}: in 0x1e6-0x1e7 (1)
0x1e0|                  50                           |      P         |                    opcode: "i64.eqz" (0x50) 0x1e6-0x1e7 (1)
     |                                               |                |                  [23]{}: in 0x1e7-0x1e8 (1)
0x1e0|                     1a                        |       .        |                    opcode: "drop" (0x1a) 0x1e7-0x1e8 (1)
     |                                               |                |                  [24]{}: in 0x1e8-0x1ea (2)
0x1e0|                        20                     |                |                    opcode: "local.get" (0x20) 0x1e8-0x1e9 (1)
0x1e0|                           08                  |         .      |                    x: 8 (valid) 0x1e9-0x1ea (1)
     |                                               |                |                  [25]{}: in 0x1ea-0x1eb (1)
0x1e0|                              9a               |          .     |                    opcode: "f64.neg" (0x9a) 0x1ea-0x1eb (1)
     |                                               |                |                  [26]{}: in 0x1eb-0x1ec (1)
0x1e0|                                 1a            |           .    |                    opcode: "drop" (0x1a) 0x1eb-0x1ec (1)
     |                                               |                |                  [27]{}: in 0x1ec-0x1ed (1)
0x1e0|                                    0b         |            .   |                    opcode: "end" (0xb) 0x1ec-0x1ed (1)
     |                                               |                |            [9]{}: code 0x1ed-0x22d (64)
0x1e0|                                       3f      |             ?  |              size: 63 (valid) 0x1ed-0x1ee (1)
     |                                               |                |              code{}: 0x1ee-0x22d (63)
     |                                               |                |                t{}: 0x1ee-0x1f5 (7)
0x1e0|                                          03   |              . |                  n: 3 (valid) 0x1ee-0x1ef (1)
     |                                               |                |                  x[0:3]: 0x1ef-0x1f5 (6)
     |                                               |                |                    [0]{}: t 0x1ef-0x1f1 (2)
0x1e0|                                             01|               .|                      n: 1 (valid) 0x1ef-0x1f0 (1)
0x1f0|7d                                             |}               |                      t: "f32" (0x7d) 0x1f0-0x1f1 (1)
     |                                               |                |                    [1]{}: t 0x1f1-0x1f3 (2)
0x1f0|   02                                          | .              |                      n: 2 (valid) 0x1f1-0x1f2 (1)
0x1f0|      7e                                       |  ~             |                      t: "i64" (0x7e) 0x1f2-0x1f3 (1)
     |                                               |                |                    [2]{}: t 0x1f3-0x1f5 (2)
0x1f0|         01                                    |   .            |                      n: 1 (valid) 0x1f3-0x1f4 (1)
0x1f0|            7c                                 |    |           |                      t: "f64" (0x7c) 0x1f4-0x1f5 (1)
     |                                               |                |                e[0:31]: 0x1f5-0x22d (56)
     |                                               |                |                  [0]{}: in 0x1f5-0x1fa (5)
0x1f0|               43                              |     C          |                    opcode: "f32.const" (0x43) 0x1f5-0x1f6 (1)
0x1f0|                  00 00 b0 40                  |      ...@      |                    z: 5.5 0x1f6-0x1fa (4)
     |                                               |                |                  [1]{}: in 0x1fa-0x1fc (2)
0x1f0|                              21               |          !     |                    opcode: "local.set" (0x21) 0x1fa-0x1fb (1)
0x1f0|                                 05            |           .    |                    x: 5 (valid) 0x1fb-0x1fc (1)
     |                                               |                |                  [2]{}: in 0x1fc-0x1fe (2)
0x1f0|                                    42         |            B   |                    opcode: "i64.const" (0x42) 0x1fc-0x1fd (1)
0x1f0|                                       06      |             .  |                    n: 6 0x1fd-0x1fe (1)
     |                                               |                |                  [3]{}: in 0x1fe-0x200 (2)
0x1f0|                                          21   |              ! |                    opcode: "local.set" (0x21) 0x1fe-0x1ff (1)
0x1f0|                                             06|               .|                    x: 6 (valid) 0x1ff-0x200 (1)
     |                                               |                |                  [4]{}: in 0x200-0x209 (9)
0x200|44                                             |D               |                    opcode: "f64.const" (0x44) 0x200-0x201 (1)
0x200|   00 00 00 00 00 00 20 40                     | ...... @       |                    z: 8 0x201-0x209 (8)
     |                                               |                |                  [5]{}: in 0x209-0x20b (2)
0x200|                           21                  |         !      |                    opcode: "local.set" (0x21) 0x209-0x20a (1)
0x200|                              08               |          .     |                    x: 8 (valid) 0x20a-0x20b (1)
     |                                               |                |                  [6]{}: in 0x20b-0x20d (2)
0x200|                                 20            |                |                    opcode: "local.get" (0x20) 0x20b-0x20c (1)
0x200|                                    00         |            .   |                    x: 0 (valid) 0x20c-0x20d (1)
     |                                               |                |                  [7]{}: in 0x20d-0x20e (1)
0x200|                                       ba      |             .  |                    opcode: "f64.convert_i64_u" (0xba) 0x20d-0x20e (1)
     |                                               |                |                  [8]{}: in 0x20e-0x210 (2)
0x200|                                          20   |                |                    opcode: "local.get" (0x20) 0x20e-0x20f (1)
0x200|                                             01|               .|                    x: 1 (valid) 0x20f-0x210 (1)
     |                                               |                |                  [9]{}: in 0x210-0x211 (1)
0x210|bb                                             |.               |                    opcode: "f64.promote_f32" (0xbb) 0x210-0x211 (1)
     |                                               |                |                  [10]{}: in 0x211-0x213 (2)
0x210|   20                                          |                |                    opcode: "local.get" (0x20) 0x211-0x212 (1)
0x210|      02                                       |  .             |                    x: 2 (valid) 0x212-0x213 (1)
     |                                               |                |                  [11]{}: in 0x213-0x215 (2)
0x210|         20                                    |                |                    opcode: "local.get" (0x20) 0x213-0x214 (1)
0x210|            03                                 |    .           |                    x: 3 (valid) 0x214-0x215 (1)
     |                                               |                |                  [12]{}: in 0x215-0x216 (1)
0x210|               b8                              |     .          |                    opcode: "f64.convert_i32_u" (0xb8) 0x215-0x216 (1)
     |                                               |                |                  [13]{}: in 0x216-0x218 (2)
0x210|                  20                           |                |                    opcode: "local.get" (0x20) 0x216-0x217 (1)
0x210|                     04                        |       .        |                    x: 4 (valid) 0x217-0x218 (1)
     |                                               |                |                  [14]{}: in 0x218-0x219 (1)
0x210|                        b7                     |        .       |                    opcode: "f64.convert_i32_s" (0xb7) 0x218-0x219 (1)
     |                                               |                |                  [15]{}: in 0x219-0x21b (2)
0x210|                           20                  |                |                    opcode: "local.get" (0x20) 0x219-0x21a (1)
0x210|                              05               |          .     |                    x: 5 (valid) 0x21a-0x21b (1)
     |                                               |                |                  [16]{}: in 0x21b-0x21c (1)
0x210|                                 bb            |           .    |                    opcode: "f64.promote_f32" (0xbb) 0x21b-0x21c (1)
     |                                               |                |                  [17]{}: in 0x21c-0x21e (2)
0x210|                                    20         |                |                    opcode: "local.get" (0x20) 0x21c-0x21d (1)
0x210|                                       06      |             .  |                    x: 6 (valid) 0x21d-0x21e (1)
     |                                               |                |                  [18]{}: in 0x21e-0x21f (1)
0x210|                                          ba   |              . |                    opcode: "f64.convert_i64_u" (0xba) 0x21e-0x21f (1)
     |                                               |                |                  [19]{}: in 0x21f-0x221 (2)
0x210|                                             20|                |                    opcode: "local.get" (0x20) 0x21f-0x220 (1)
0x220|07                                             |.               |                    x: 7 (valid) 0x220-0x221 (1)
     |                                               |                |                  [20]{}: in 0x221-0x222 (1)
0x220|   ba                                          | .              |                    opcode: "f64.convert_i64_u" (0xba) 0x221-0x222 (1)
     |                                               |                |                  [21]{}: in 0x222-0x224 (2)
0x220|      20                                       |                |                    opcode: "local.get" (0x20) 0x222-0x223 (1)
0x220|         08                                    |   .            |                    x: 8 (valid) 0x223-0x224 (1)
     |                                               |                |                  [22]{}: in 0x224-0x225 (1)
0x220|            a0                                 |    .           |                    opcode: "f64.add" (0xa0) 0x224-0x225 (1)
     |                                               |                |                  [23]{}: in 0x225-0x226 (1)
0x220|               a0                              |     .          |                    opcode: "f64.add" (0xa0) 0x225-0x226 (1)
     |                                               |                |                  [24]{}: in 0x226-0x227 (1)
0x220|                  a0                           |      .         |                    opcode: "f64.add" (0xa0) 0x226-0x227 (1)
     |                                               |                |                  [25]{}: in 0x227-0x228 (1)
0x220|                     a0                        |       .        |                    opcode: "f64.add" (0xa0) 0x227-0x228 (1)
     |                                               |                |                  [26]{}: in 0x228-0x229 (1)
0x220|                        a0                     |        .       |                    opcode: "f64.add" (0xa0) 0x228-0x229 (1)
     |                                               |                |                  [27]{}: in 0x229-0x22a (1)
0x220|                           a0                  |         .      |                    opcode: "f64.add" (0xa0) 0x229-0x22a (1)
     |                                               |                |                  [28]{}: in 0x22a-0x22b (1)
0x220|                              a0               |          .     |                    opcode: "f64.add" (0xa0) 0x22a-0x22b (1)
     |                                               |                |                  [29]{}: in 0x22b-0x22c (1)
0x220|                                 a0            |           .    |                    opcode: "f64.add" (0xa0) 0x22b-0x22c (1)
     |                                               |                |                  [30]{}: in 0x22c-0x22d (1)
0x220|                                    0b         |            .   |                    opcode: "end" (0xb) 0x22c-0x22d (1)
     |                                               |                |            [10]{}: code 0x22d-0x235 (8)
0x220|                                       07      |             .  |              size: 7 (valid) 0x22d-0x22e (1)
     |                                               |                |              code{}: 0x22e-0x235 (7)
     |                                               |                |                t{}: 0x22e-0x22f (1)
0x220|                                          00   |              . |                  n: 0 (valid) 0x22e-0x22f (1)
     |                                               |                |                  x[0:0]: 0x22f-0x22f (0)
     |                                               |                |                e[0:2]: 0x22f-0x235 (6)
     |                                               |                |                  [0]{}: in 0x22f-0x234 (5)
0x220|                                             02|               .|                    opcode: "block" (0x2) 0x22f-0x230 (1)
0x230|7f                                             |.               |                    bt: "i32" (127) 0x230-0x231 (1)
     |                                               |                |                    instructions[0:1]: 0x231-0x233 (2)
     |                                               |                |                      [0]{}: instr 0x231-0x233 (2)
0x230|   20                                          |                |                        opcode: "local.get" (0x20) 0x231-0x232 (1)
0x230|      00                                       |  .             |                        x: 0 (valid) 0x232-0x233 (1)
0x230|         0b                                    |   .            |                    end: 0xb (valid) 0x233-0x234 (1)
     |                                               |                |                  [1]{}: in 0x234-0x235 (1)
0x230|            0b                                 |    .           |                    opcode: "end" (0xb) 0x234-0x235 (1)
     |                                               |                |            [11]{}: code 0x235-0x23d (8)
0x230|               07                              |     .          |              size: 7 (valid) 0x235-0x236 (1)
     |                                               |                |              code{}: 0x236-0x23d (7)
     |                                               |                |                t{}: 0x236-0x237 (1)
0x230|                  00                           |      .         |                  n: 0 (valid) 0x236-0x237 (1)
     |                                               |                |                  x[0:0]: 0x237-0x237 (0)
     |                                               |                |                e[0:2]: 0x237-0x23d (6)
     |                                               |                |                  [0]{}: in 0x237-0x23c (5)
0x230|                     03                        |       .        |                    opcode: "loop" (0x3) 0x237-0x238 (1)
0x230|                        7f                     |        .       |                    bt: "i32" (127) 0x238-0x239 (1)
     |                                               |                |                    instructions[0:1]: 0x239-0x23b (2)
     |                                               |                |                      [0]{}: instr 0x239-0x23b (2)
0x230|                           20                  |                |                        opcode: "local.get" (0x20) 0x239-0x23a (1)
0x230|                              00               |          .     |                        x: 0 (valid) 0x23a-0x23b (1)
0x230|                                 0b            |           .    |                    end: 0xb (valid) 0x23b-0x23c (1)
     |                                               |                |                  [1]{}: in 0x23c-0x23d (1)
0x230|                                    0b         |            .   |                    opcode: "end" (0xb) 0x23c-0x23d (1)
     |                                               |                |            [12]{}: code 0x23d-0x247 (10)
0x230|                                       09      |             .  |              size: 9 (valid) 0x23d-0x23e (1)
     |                                               |                |              code{}: 0x23e-0x247 (9)
     |                                               |                |                t{}: 0x23e-0x23f (1)
0x230|                                          00   |              . |                  n: 0 (valid) 0x23e-0x23f (1)
     |                                               |                |                  x[0:0]: 0x23f-0x23f (0)
     |                                               |                |                e[0:2]: 0x23f-0x247 (8)
     |                                               |                |                  [0]{}: in 0x23f-0x246 (7)
0x230|                                             02|               .|                    opcode: "block" (0x2) 0x23f-0x240 (1)
0x240|7f                                             |.               |                    bt: "i32" (127) 0x240-0x241 (1)
     |                                               |                |                    instructions[0:2]: 0x241-0x245 (4)
     |                                               |                |                      [0]{}: instr 0x241-0x243 (2)
0x240|   20                                          |                |                        opcode: "local.get" (0x20) 0x241-0x242 (1)
0x240|      00                                       |  .             |                        x: 0 (valid) 0x242-0x243 (1)
     |                                               |                |                      [1]{}: instr 0x243-0x245 (2)
0x240|         0c                                    |   .            |                        opcode: "br" (0xc) 0x243-0x244 (1)
0x240|            00                                 |    .           |                        l: 0 (valid) 0x244-0x245 (1)
0x240|               0b                              |     .          |                    end: 0xb (valid) 0x245-0x246 (1)
     |                                               |                |                  [1]{}: in 0x246-0x247 (1)
0x240|                  0b                           |      .         |                    opcode: "end" (0xb) 0x246-0x247 (1)
     |                                               |                |            [13]{}: code 0x247-0x253 (12)
0x240|                     0b                        |       .        |              size: 11 (valid) 0x247-0x248 (1)
     |                                               |                |              code{}: 0x248-0x253 (11)
     |                                               |                |                t{}: 0x248-0x249 (1)
0x240|                        00                     |        .       |                  n: 0 (valid) 0x248-0x249 (1)
     |                                               |                |                  x[0:0]: 0x249-0x249 (0)
     |                                               |                |                e[0:2]: 0x249-0x253 (10)
     |                                               |                |                  [0]{}: in 0x249-0x252 (9)
0x240|                           02                  |         .      |                    opcode: "block" (0x2) 0x249-0x24a (1)
0x240|                              7f               |          .     |                    bt: "i32" (127) 0x24a-0x24b (1)
     |                                               |                |                    instructions[0:3]: 0x24b-0x251 (6)
     |                                               |                |                      [0]{}: instr 0x24b-0x24d (2)
0x240|                                 20            |                |                        opcode: "local.get" (0x20) 0x24b-0x24c (1)
0x240|                                    00         |            .   |                        x: 0 (valid) 0x24c-0x24d (1)
     |                                               |                |                      [1]{}: instr 0x24d-0x24f (2)
0x240|                                       41      |             A  |                        opcode: "i32.const" (0x41) 0x24d-0x24e (1)
0x240|                                          01   |              . |                        n: 1 (valid) 0x24e-0x24f (1)
     |                                               |                |                      [2]{}: instr 0x24f-0x251 (2)
0x240|                                             0d|               .|                        opcode: "br_if" (0xd) 0x24f-0x250 (1)
0x250|00                                             |.               |                        l: 0 (valid) 0x250-0x251 (1)
0x250|   0b                                          | .              |                    end: 0xb (valid) 0x251-0x252 (1)
     |                                               |                |                  [1]{}: in 0x252-0x253 (1)
0x250|      0b                                       |  .             |                    opcode: "end" (0xb) 0x252-0x253 (1)
     |                                               |                |            [14]{}: code 0x253-0x25f (12)
0x250|         0b                                    |   .            |              size: 11 (valid) 0x253-0x254 (1)
     |                                               |                |              code{}: 0x254-0x25f (11)
     |                                               |                |                t{}: 0x254-0x255 (1)
0x250|            00                                 |    .           |                  n: 0 (valid) 0x254-0x255 (1)
     |                                               |                |                  x[0:0]: 0x255-0x255 (0)
     |                                               |                |                e[0:2]: 0x255-0x25f (10)
     |                                               |                |                  [0]{}: in 0x255-0x25e (9)
0x250|               02                              |     .          |                    opcode: "block" (0x2) 0x255-0x256 (1)
0x250|                  7f                           |      .         |                    bt: "i32" (127) 0x256-0x257 (1)
     |                                               |                |                    instructions[0:3]: 0x257-0x25d (6)
     |                                               |                |                      [0]{}: instr 0x257-0x259 (2)
0x250|                     20                        |                |                        opcode: "local.get" (0x20) 0x257-0x258 (1)
0x250|                        00                     |        .       |                        x: 0 (valid) 0x258-0x259 (1)
     |                                               |                |                      [1]{}: instr 0x259-0x25b (2)
0x250|                           20                  |                |                        opcode: "local.get" (0x20) 0x259-0x25a (1)
0x250|                              00               |          .     |                        x: 0 (valid) 0x25a-0x25b (1)
     |                                               |                |                      [2]{}: instr 0x25b-0x25d (2)
0x250|                                 0d            |           .    |                        opcode: "br_if" (0xd) 0x25b-0x25c (1)
0x250|                                    00         |            .   |                        l: 0 (valid) 0x25c-0x25d (1)
0x250|                                       0b      |             .  |                    end: 0xb (valid) 0x25d-0x25e (1)
     |                                               |                |                  [1]{}: in 0x25e-0x25f (1)
0x250|                                          0b   |              . |                    opcode: "end" (0xb) 0x25e-0x25f (1)
     |                                               |                |            [15]{}: code 0x25f-0x27d (30)
0x250|                                             1d|               .|              size: 29 (valid) 0x25f-0x260 (1)
     |                                               |                |              code{}: 0x260-0x27d (29)
     |                                               |                |                t{}: 0x260-0x261 (1)
0x260|00                                             |.               |                  n: 0 (valid) 0x260-0x261 (1)
     |                                               |                |                  x[0:0]: 0x261-0x261 (0)
     |                                               |                |                e[0:3]: 0x261-0x27d (28)
     |                                               |                |                  [0]{}: in 0x261-0x27a (25)
0x260|   02                                          | .              |                    opcode: "block" (0x2) 0x261-0x262 (1)
0x260|      40                                       |  @             |                    bt: "ε" (64) 0x262-0x263 (1)
     |                                               |                |                    instructions[0:3]: 0x263-0x279 (22)
     |                                               |                |                      [0]{}: instr 0x263-0x276 (19)
0x260|         02                                    |   .            |                        opcode: "block" (0x2) 0x263-0x264 (1)
0x260|            40                                 |    @           |                        bt: "ε" (64) 0x264-0x265 (1)
     |                                               |                |                        instructions[0:3]: 0x265-0x275 (16)
     |                                               |                |                          [0]{}: instr 0x265-0x272 (13)
0x260|               02                              |     .          |                            opcode: "block" (0x2) 0x265-0x266 (1)
0x260|                  40                           |      @         |                            bt: "ε" (64) 0x266-0x267 (1)
     |                                               |                |                            instructions[0:4]: 0x267-0x271 (10)
     |                                               |                |                              [0]{}: instr 0x267-0x269 (2)
0x260|                     20                        |                |                                opcode: "local.get" (0x20) 0x267-0x268 (1)
0x260|                        00                     |        .       |                                x: 0 (valid) 0x268-0x269 (1)
     |                                               |                |                              [1]{}: instr 0x269-0x26e (5)
0x260|                           0e                  |         .      |                                opcode: "br_table" (0xe) 0x269-0x26a (1)
     |                                               |                |                                l{}: 0x26a-0x26d (3)
0x260|                              02               |          .     |                                  n: 2 (valid) 0x26a-0x26b (1)
     |                                               |                |                                  x[0:2]: 0x26b-0x26d (2)
0x260|                                 00            |           .    |                                    [0]: 0 l (valid) 0x26b-0x26c (1)
0x260|                                    01         |            .   |                                    [1]: 1 l (valid) 0x26c-0x26d (1)
0x260|                                       02      |             .  |                                lN: 2 (valid) 0x26d-0x26e (1)
     |                                               |                |                              [2]{}: instr 0x26e-0x270 (2)
0x260|                                          41   |              A |                                opcode: "i32.const" (0x41) 0x26e-0x26f (1)
0x260|                                             00|               .|                                n: 0 (valid) 0x26f-0x270 (1)
     |                                               |                |                              [3]{}: instr 0x270-0x271 (1)
0x270|0f                                             |.               |                                opcode: "return" (0xf) 0x270-0x271 (1)
0x270|   0b                                          | .              |                            end: 0xb (valid) 0x271-0x272 (1)
     |                                               |                |                          [1]{}: instr 0x272-0x274 (2)
0x270|      41                                       |  A             |                            opcode: "i32.const" (0x41) 0x272-0x273 (1)
0x270|         01                                    |   .            |                            n: 1 (valid) 0x273-0x274 (1)
     |                                               |                |                          [2]{}: instr 0x274-0x275 (1)
0x270|            0f                                 |    .           |                            opcode: "return" (0xf) 0x274-0x275 (1)
0x270|               0b                              |     .          |                        end: 0xb (valid) 0x275-0x276 (1)
     |                                               |                |                      [1]{}: instr 0x276-0x278 (2)
0x270|                  41                           |      A         |                        opcode: "i32.const" (0x41) 0x276-0x277 (1)
0x270|                     02                        |       .        |                        n: 2 (valid) 0x277-0x278 (1)
     |                                               |                |                      [2]{}: instr 0x278-0x279 (1)
0x270|                        0f                     |        .       |                        opcode: "return" (0xf) 0x278-0x279 (1)
0x270|                           0b                  |         .      |                    end: 0xb (valid) 0x279-0x27a (1)
     |                                               |                |                  [1]{}: in 0x27a-0x27c (2)
0x270|                              41               |          A     |                    opcode: "i32.const" (0x41) 0x27a-0x27b (1)
0x270|                                 03            |           .    |                    n: 3 (valid) 0x27b-0x27c (1)
     |                                               |                |                  [2]{}: in 0x27c-0x27d (1)
0x270|                                    0b         |            .   |                    opcode: "end" (0xb) 0x27c-0x27d (1)
     |                                               |                |            [16]{}: code 0x27d-0x283 (6)
0x270|                                       05      |             .  |              size: 5 (valid) 0x27d-0x27e (1)
     |                                               |                |              code{}: 0x27e-0x283 (5)
     |                                               |                |                t{}: 0x27e-0x27f (1)
0x270|                                          00   |              . |                  n: 0 (valid) 0x27e-0x27f (1)
     |                                               |                |                  x[0:0]: 0x27f-0x27f (0)
     |                                               |                |                e[0:3]: 0x27f-0x283 (4)
     |                                               |                |                  [0]{}: in 0x27f-0x281 (2)
0x270|                                             20|                |                    opcode: "local.get" (0x20) 0x27f-0x280 (1)
0x280|00                                             |.               |                    x: 0 (valid) 0x280-0x281 (1)
     |                                               |                |                  [1]{}: in 0x281-0x282 (1)
0x280|   0f                                          | .              |                    opcode: "return" (0xf) 0x281-0x282 (1)
     |                                               |                |                  [2]{}: in 0x282-0x283 (1)
0x280|      0b                                       |  .             |                    opcode: "end" (0xb) 0x282-0x283 (1)
     |                                               |                |            [17]{}: code 0x283-0x290 (13)
0x280|         0c                                    |   .            |              size: 12 (valid) 0x283-0x284 (1)
     |                                               |                |              code{}: 0x284-0x290 (12)
     |                                               |                |                t{}: 0x284-0x285 (1)
0x280|            00                                 |    .           |                  n: 0 (valid) 0x284-0x285 (1)
     |                                               |                |                  x[0:0]: 0x285-0x285 (0)
     |                                               |                |                e[0:3]: 0x285-0x290 (11)
     |                                               |                |                  [0]{}: in 0x285-0x287 (2)
0x280|               20                              |                |                    opcode: "local.get" (0x20) 0x285-0x286 (1)
0x280|                  00                           |      .         |                    x: 0 (valid) 0x286-0x287 (1)
     |                                               |                |                  [1]{}: in 0x287-0x28f (8)
0x280|                     04                        |       .        |                    opcode: "if" (0x4) 0x287-0x288 (1)
0x280|                        7f                     |        .       |                    bt: "i32" (127) 0x288-0x289 (1)
     |                                               |                |                    in1[0:1]: 0x289-0x28b (2)
     |                                               |                |                      [0]{}: instr 0x289-0x28b (2)
0x280|                           20                  |                |                        opcode: "local.get" (0x20) 0x289-0x28a (1)
0x280|                              00               |          .     |                        x: 0 (valid) 0x28a-0x28b (1)
0x280|                                 05            |           .    |                    else: 0x5 (valid) 0x28b-0x28c (1)
     |                                               |                |                    in2[0:1]: 0x28c-0x28e (2)
     |                                               |                |                      [0]{}: instr 0x28c-0x28e (2)
0x280|                                    41         |            A   |                        opcode: "i32.const" (0x41) 0x28c-0x28d (1)
0x280|                                       00      |             .  |                        n: 0 (valid) 0x28d-0x28e (1)
0x280|                                          0b   |              . |                    end: 0xb (valid) 0x28e-0x28f (1)
     |                                               |                |                  [2]{}: in 0x28f-0x290 (1)
0x280|                                             0b|               .|                    opcode: "end" (0xb) 0x28f-0x290 (1)
     |                                               |                |            [18]{}: code 0x290-0x29d (13)
0x290|0c                                             |.               |              size: 12 (valid) 0x290-0x291 (1)
     |                                               |                |              code{}: 0x291-0x29d (12)
     |                                               |                |                t{}: 0x291-0x292 (1)
0x290|   00                                          | .              |                  n: 0 (valid) 0x291-0x292 (1)
     |                                               |                |                  x[0:0]: 0x292-0x292 (0)
     |                                               |                |                e[0:3]: 0x292-0x29d (11)
     |                                               |                |                  [0]{}: in 0x292-0x294 (2)
0x290|      20                                       |                |                    opcode: "local.get" (0x20) 0x292-0x293 (1)
0x290|         00                                    |   .            |                    x: 0 (valid) 0x293-0x294 (1)
     |                                               |                |                  [1]{}: in 0x294-0x29c (8)
0x290|            04                                 |    .           |                    opcode: "if" (0x4) 0x294-0x295 (1)
0x290|               7f                              |     .          |                    bt: "i32" (127) 0x295-0x296 (1)
     |                                               |                |                    in1[0:1]: 0x296-0x298 (2)
     |                                               |                |                      [0]{}: instr 0x296-0x298 (2)
0x290|                  41                           |      A         |                        opcode: "i32.const" (0x41) 0x296-0x297 (1)
0x290|                     01                        |       .        |                        n: 1 (valid) 0x297-0x298 (1)
0x290|                        05                     |        .       |                    else: 0x5 (valid) 0x298-0x299 (1)
     |                                               |                |                    in2[0:1]: 0x299-0x29b (2)
     |                                               |                |                      [0]{}: instr 0x299-0x29b (2)
0x290|                           20                  |                |                        opcode: "local.get" (0x20) 0x299-0x29a (1)
0x290|                              00               |          .     |                        x: 0 (valid) 0x29a-0x29b (1)
0x290|                                 0b            |           .    |                    end: 0xb (valid) 0x29b-0x29c (1)
     |                                               |                |                  [2]{}: in 0x29c-0x29d (1)
0x290|                                    0b|        |            .|  |                    opcode: "end" (0xb) 0x29c-0x29d (1)
