$ fq -d wasm dv local_set-0.wasm
     |00 01 02 03 04 05 06 07 08 09 0a 0b 0c 0d 0e 0f|0123456789abcdef|.{}: local_set-0.wasm (wasm) 0x0-0x2d0.7 (721)
0x000|00 61 73 6d                                    |.asm            |  magic: raw bits (valid) 0x0-0x3.7 (4)
0x000|            01 00 00 00                        |    ....        |  version: 1 0x4-0x7.7 (4)
     |                                               |                |  sections[0:4]: 0x8-0x2d0.7 (713)
     |                                               |                |    [0]{}: section 0x8-0x2e.7 (39)
0x000|                        01                     |        .       |      id: "type section" (1) 0x8-0x8.7 (1)
0x000|                           25                  |         %      |      size: 37 0x9-0x9.7 (1)
     |                                               |                |      content{}: 0xa-0x2e.7 (37)
     |                                               |                |        ft{}: 0xa-0x2e.7 (37)
0x000|                              07               |          .     |          n: 7 0xa-0xa.7 (1)
     |                                               |                |          x[0:7]: 0xb-0x2e.7 (36)
     |                                               |                |            [0]{}: ft 0xb-0xd.7 (3)
0x000|                                 60            |           `    |              tag: 0x60 (valid) 0xb-0xb.7 (1)
     |                                               |                |              rt1{}: 0xc-0xc.7 (1)
0x000|                                    00         |            .   |                n: 0 0xc-0xc.7 (1)
     |                                               |                |                x[0:0]: 0xd-NA (0)
     |                                               |                |              rt2{}: 0xd-0xd.7 (1)
0x000|                                       00      |             .  |                n: 0 0xd-0xd.7 (1)
     |                                               |                |                x[0:0]: 0xe-NA (0)
     |                                               |                |            [1]{}: ft 0xe-0x11.7 (4)
0x000|                                          60   |              ` |              tag: 0x60 (valid) 0xe-0xe.7 (1)
     |                                               |                |              rt1{}: 0xf-0x10.7 (2)
0x000|                                             01|               .|                n: 1 0xf-0xf.7 (1)
     |                                               |                |                x[0:1]: 0x10-0x10.7 (1)
0x010|7f                                             |.               |                  [0]: "i32" (0x7f) t 0x10-0x10.7 (1)
     |                                               |                |              rt2{}: 0x11-0x11.7 (1)
0x010|   00                                          | .              |                n: 0 0x11-0x11.7 (1)
     |                                               |                |                x[0:0]: 0x12-NA (0)
     |                                               |                |            [2]{}: ft 0x12-0x15.7 (4)
0x010|      60                                       |  `             |              tag: 0x60 (valid) 0x12-0x12.7 (1)
     |                                               |                |              rt1{}: 0x13-0x14.7 (2)
0x010|         01                                    |   .            |                n: 1 0x13-0x13.7 (1)
     |                                               |                |                x[0:1]: 0x14-0x14.7 (1)
0x010|            7e                                 |    ~           |                  [0]: "i64" (0x7e) t 0x14-0x14.7 (1)
     |                                               |                |              rt2{}: 0x15-0x15.7 (1)
0x010|               00                              |     .          |                n: 0 0x15-0x15.7 (1)
     |                                               |                |                x[0:0]: 0x16-NA (0)
     |                                               |                |            [3]{}: ft 0x16-0x19.7 (4)
0x010|                  60                           |      `         |              tag: 0x60 (valid) 0x16-0x16.7 (1)
     |                                               |                |              rt1{}: 0x17-0x18.7 (2)
0x010|                     01                        |       .        |                n: 1 0x17-0x17.7 (1)
     |                                               |                |                x[0:1]: 0x18-0x18.7 (1)
0x010|                        7d                     |        }       |                  [0]: "f32" (0x7d) t 0x18-0x18.7 (1)
     |                                               |                |              rt2{}: 0x19-0x19.7 (1)
0x010|                           00                  |         .      |                n: 0 0x19-0x19.7 (1)
     |                                               |                |                x[0:0]: 0x1a-NA (0)
     |                                               |                |            [4]{}: ft 0x1a-0x1d.7 (4)
0x010|                              60               |          `     |              tag: 0x60 (valid) 0x1a-0x1a.7 (1)
     |                                               |                |              rt1{}: 0x1b-0x1c.7 (2)
0x010|                                 01            |           .    |                n: 1 0x1b-0x1b.7 (1)
     |                                               |                |                x[0:1]: 0x1c-0x1c.7 (1)
0x010|                                    7c         |            |   |                  [0]: "f64" (0x7c) t 0x1c-0x1c.7 (1)
     |                                               |                |              rt2{}: 0x1d-0x1d.7 (1)
0x010|                                       00      |             .  |                n: 0 0x1d-0x1d.7 (1)
     |                                               |                |                x[0:0]: 0x1e-NA (0)
     |                                               |                |            [5]{}: ft 0x1e-0x25.7 (8)
0x010|                                          60   |              ` |              tag: 0x60 (valid) 0x1e-0x1e.7 (1)
     |                                               |                |              rt1{}: 0x1f-0x24.7 (6)
0x010|                                             05|               .|                n: 5 0x1f-0x1f.7 (1)
     |                                               |                |                x[0:5]: 0x20-0x24.7 (5)
0x020|7e                                             |~               |                  [0]: "i64" (0x7e) t 0x20-0x20.7 (1)
0x020|   7d                                          | }              |                  [1]: "f32" (0x7d) t 0x21-0x21.7 (1)
0x020|      7c                                       |  |             |                  [2]: "f64" (0x7c) t 0x22-0x22.7 (1)
0x020|         7f                                    |   .            |                  [3]: "i32" (0x7f) t 0x23-0x23.7 (1)
0x020|            7f                                 |    .           |                  [4]: "i32" (0x7f) t 0x24-0x24.7 (1)
     |                                               |                |              rt2{}: 0x25-0x25.7 (1)
0x020|               00                              |     .          |                n: 0 0x25-0x25.7 (1)
     |                                               |                |                x[0:0]: 0x26-NA (0)
     |                                               |                |            [6]{}: ft 0x26-0x2e.7 (9)
0x020|                  60                           |      `         |              tag: 0x60 (valid) 0x26-0x26.7 (1)
     |                                               |                |              rt1{}: 0x27-0x2c.7 (6)
0x020|                     05                        |       .        |                n: 5 0x27-0x27.7 (1)
     |                                               |                |                x[0:5]: 0x28-0x2c.7 (5)
0x020|                        7e                     |        ~       |                  [0]: "i64" (0x7e) t 0x28-0x28.7 (1)
0x020|                           7d                  |         }      |                  [1]: "f32" (0x7d) t 0x29-0x29.7 (1)
0x020|                              7c               |          |     |                  [2]: "f64" (0x7c) t 0x2a-0x2a.7 (1)
0x020|                                 7f            |           .    |                  [3]: "i32" (0x7f) t 0x2b-0x2b.7 (1)
0x020|                                    7f         |            .   |                  [4]: "i32" (0x7f) t 0x2c-0x2c.7 (1)
     |                                               |                |              rt2{}: 0x2d-0x2e.7 (2)
0x020|                                       01      |             .  |                n: 1 0x2d-0x2d.7 (1)
     |                                               |                |                x[0:1]: 0x2e-0x2e.7 (1)
0x020|                                          7e   |              ~ |                  [0]: "i64" (0x7e) t 0x2e-0x2e.7 (1)
     |                                               |                |    [1]{}: section 0x2f-0x44.7 (22)
0x020|                                             03|               .|      id: "function section" (3) 0x2f-0x2f.7 (1)
0x030|14                                             |.               |      size: 20 0x30-0x30.7 (1)
     |                                               |                |      content{}: 0x31-0x44.7 (20)
     |                                               |                |        x{}: 0x31-0x44.7 (20)
0x030|   13                                          | .              |          n: 19 0x31-0x31.7 (1)
     |                                               |                |          x[0:19]: 0x32-0x44.7 (19)
0x030|      00                                       |  .             |            [0]: 0 x 0x32-0x32.7 (1)
0x030|         00                                    |   .            |            [1]: 0 x 0x33-0x33.7 (1)
0x030|            00                                 |    .           |            [2]: 0 x 0x34-0x34.7 (1)
0x030|               00                              |     .          |            [3]: 0 x 0x35-0x35.7 (1)
0x030|                  01                           |      .         |            [4]: 1 x 0x36-0x36.7 (1)
0x030|                     02                        |       .        |            [5]: 2 x 0x37-0x37.7 (1)
0x030|                        03                     |        .       |            [6]: 3 x 0x38-0x38.7 (1)
0x030|                           04                  |         .      |            [7]: 4 x 0x39-0x39.7 (1)
0x030|                              05               |          .     |            [8]: 5 x 0x3a-0x3a.7 (1)
0x030|                                 06            |           .    |            [9]: 6 x 0x3b-0x3b.7 (1)
0x030|                                    01         |            .   |            [10]: 1 x 0x3c-0x3c.7 (1)
0x030|                                       01      |             .  |            [11]: 1 x 0x3d-0x3d.7 (1)
0x030|                                          01   |              . |            [12]: 1 x 0x3e-0x3e.7 (1)
0x030|                                             01|               .|            [13]: 1 x 0x3f-0x3f.7 (1)
0x040|01                                             |.               |            [14]: 1 x 0x40-0x40.7 (1)
0x040|   01                                          | .              |            [15]: 1 x 0x41-0x41.7 (1)
0x040|      01                                       |  .             |            [16]: 1 x 0x42-0x42.7 (1)
0x040|         01                                    |   .            |            [17]: 1 x 0x43-0x43.7 (1)
0x040|            01                                 |    .           |            [18]: 1 x 0x44-0x44.7 (1)
     |                                               |                |    [2]{}: section 0x45-0x17b.7 (311)
0x040|               07                              |     .          |      id: "export section" (7) 0x45-0x45.7 (1)
0x040|                  b4 02                        |      ..        |      size: 308 0x46-0x47.7 (2)
     |                                               |                |      content{}: 0x48-0x17b.7 (308)
     |                                               |                |        ex{}: 0x48-0x17b.7 (308)
0x040|                        13                     |        .       |          n: 19 0x48-0x48.7 (1)
     |                                               |                |          x[0:19]: 0x49-0x17b.7 (307)
     |                                               |                |            [0]{}: ex 0x49-0x59.7 (17)
     |                                               |                |              nm{}: 0x49-0x57.7 (15)
0x040|                           0e                  |         .      |                n: 14 0x49-0x49.7 (1)
0x040|                              74 79 70 65 2d 6c|          type-l|                b: "type-local-i32" 0x4a-0x57.7 (14)
0x050|6f 63 61 6c 2d 69 33 32                        |ocal-i32        |
     |                                               |                |              d{}: 0x58-0x59.7 (2)
0x050|                        00                     |        .       |                tag: "funcidx" (0x0) 0x58-0x58.7 (1)
0x050|                           00                  |         .      |                x: 0 0x59-0x59.7 (1)
     |                                               |                |            [1]{}: ex 0x5a-0x6a.7 (17)
     |                                               |                |              nm{}: 0x5a-0x68.7 (15)
0x050|                              0e               |          .     |                n: 14 0x5a-0x5a.7 (1)
0x050|                                 74 79 70 65 2d|           type-|                b: "type-local-i64" 0x5b-0x68.7 (14)
0x060|6c 6f 63 61 6c 2d 69 36 34                     |local-i64       |
     |                                               |                |              d{}: 0x69-0x6a.7 (2)
0x060|                           00                  |         .      |                tag: "funcidx" (0x0) 0x69-0x69.7 (1)
0x060|                              01               |          .     |                x: 1 0x6a-0x6a.7 (1)
     |                                               |                |            [2]{}: ex 0x6b-0x7b.7 (17)
     |                                               |                |              nm{}: 0x6b-0x79.7 (15)
0x060|                                 0e            |           .    |                n: 14 0x6b-0x6b.7 (1)
0x060|                                    74 79 70 65|            type|                b: "type-local-f32" 0x6c-0x79.7 (14)
0x070|2d 6c 6f 63 61 6c 2d 66 33 32                  |-local-f32      |
     |                                               |                |              d{}: 0x7a-0x7b.7 (2)
0x070|                              00               |          .     |                tag: "funcidx" (0x0) 0x7a-0x7a.7 (1)
0x070|                                 02            |           .    |                x: 2 0x7b-0x7b.7 (1)
     |                                               |                |            [3]{}: ex 0x7c-0x8c.7 (17)
     |                                               |                |              nm{}: 0x7c-0x8a.7 (15)
0x070|                                    0e         |            .   |                n: 14 0x7c-0x7c.7 (1)
0x070|                                       74 79 70|             typ|                b: "type-local-f64" 0x7d-0x8a.7 (14)
0x080|65 2d 6c 6f 63 61 6c 2d 66 36 34               |e-local-f64     |
     |                                               |                |              d{}: 0x8b-0x8c.7 (2)
0x080|                                 00            |           .    |                tag: "funcidx" (0x0) 0x8b-0x8b.7 (1)
0x080|                                    03         |            .   |                x: 3 0x8c-0x8c.7 (1)
     |                                               |                |            [4]{}: ex 0x8d-0x9d.7 (17)
     |                                               |                |              nm{}: 0x8d-0x9b.7 (15)
0x080|                                       0e      |             .  |                n: 14 0x8d-0x8d.7 (1)
0x080|                                          74 79|              ty|                b: "type-param-i32" 0x8e-0x9b.7 (14)
0x090|70 65 2d 70 61 72 61 6d 2d 69 33 32            |pe-param-i32    |
     |                                               |                |              d{}: 0x9c-0x9d.7 (2)
0x090|                                    00         |            .   |                tag: "funcidx" (0x0) 0x9c-0x9c.7 (1)
0x090|                                       04      |             .  |                x: 4 0x9d-0x9d.7 (1)
     |                                               |                |            [5]{}: ex 0x9e-0xae.7 (17)
     |                                               |                |              nm{}: 0x9e-0xac.7 (15)
0x090|                                          0e   |              . |                n: 14 0x9e-0x9e.7 (1)
0x090|                                             74|               t|                b: "type-param-i64" 0x9f-0xac.7 (14)
0x0a0|79 70 65 2d 70 61 72 61 6d 2d 69 36 34         |ype-param-i64   |
     |                                               |                |              d{}: 0xad-0xae.7 (2)
0x0a0|                                       00      |             .  |                tag: "funcidx" (0x0) 0xad-0xad.7 (1)
0x0a0|                                          05   |              . |                x: 5 0xae-0xae.7 (1)
     |                                               |                |            [6]{}: ex 0xaf-0xbf.7 (17)
     |                                               |                |              nm{}: 0xaf-0xbd.7 (15)
0x0a0|                                             0e|               .|                n: 14 0xaf-0xaf.7 (1)
0x0b0|74 79 70 65 2d 70 61 72 61 6d 2d 66 33 32      |type-param-f32  |                b: "type-param-f32" 0xb0-0xbd.7 (14)
     |                                               |                |              d{}: 0xbe-0xbf.7 (2)
0x0b0|                                          00   |              . |                tag: "funcidx" (0x0) 0xbe-0xbe.7 (1)
0x0b0|                                             06|               .|                x: 6 0xbf-0xbf.7 (1)
     |                                               |                |            [7]{}: ex 0xc0-0xd0.7 (17)
     |                                               |                |              nm{}: 0xc0-0xce.7 (15)
0x0c0|0e                                             |.               |                n: 14 0xc0-0xc0.7 (1)
0x0c0|   74 79 70 65 2d 70 61 72 61 6d 2d 66 36 34   | type-param-f64 |                b: "type-param-f64" 0xc1-0xce.7 (14)
     |                                               |                |              d{}: 0xcf-0xd0.7 (2)
0x0c0|                                             00|               .|                tag: "funcidx" (0x0) 0xcf-0xcf.7 (1)
0x0d0|07                                             |.               |                x: 7 0xd0-0xd0.7 (1)
     |                                               |                |            [8]{}: ex 0xd1-0xdd.7 (13)
     |                                               |                |              nm{}: 0xd1-0xdb.7 (11)
0x0d0|   0a                                          | .              |                n: 10 0xd1-0xd1.7 (1)
0x0d0|      74 79 70 65 2d 6d 69 78 65 64            |  type-mixed    |                b: "type-mixed" 0xd2-0xdb.7 (10)
     |                                               |                |              d{}: 0xdc-0xdd.7 (2)
0x0d0|                                    00         |            .   |                tag: "funcidx" (0x0) 0xdc-0xdc.7 (1)
0x0d0|                                       08      |             .  |                x: 8 0xdd-0xdd.7 (1)
     |                                               |                |            [9]{}: ex 0xde-0xe5.7 (8)
     |                                               |                |              nm{}: 0xde-0xe3.7 (6)
0x0d0|                                          05   |              . |                n: 5 0xde-0xde.7 (1)
0x0d0|                                             77|               w|                b: "write" 0xdf-0xe3.7 (5)
0x0e0|72 69 74 65                                    |rite            |
     |                                               |                |              d{}: 0xe4-0xe5.7 (2)
0x0e0|            00                                 |    .           |                tag: "funcidx" (0x0) 0xe4-0xe4.7 (1)
0x0e0|               09                              |     .          |                x: 9 0xe5-0xe5.7 (1)
     |                                               |                |            [10]{}: ex 0xe6-0xf6.7 (17)
     |                                               |                |              nm{}: 0xe6-0xf4.7 (15)
0x0e0|                  0e                           |      .         |                n: 14 0xe6-0xe6.7 (1)
0x0e0|                     61 73 2d 62 6c 6f 63 6b 2d|       as-block-|                b: "as-block-value" 0xe7-0xf4.7 (14)
0x0f0|76 61 6c 75 65                                 |value           |
     |                                               |                |              d{}: 0xf5-0xf6.7 (2)
0x0f0|               00                              |     .          |                tag: "funcidx" (0x0) 0xf5-0xf5.7 (1)
0x0f0|                  0a                           |      .         |                x: 10 0xf6-0xf6.7 (1)
     |                                               |                |            [11]{}: ex 0xf7-0x106.7 (16)
     |                                               |                |              nm{}: 0xf7-0x104.7 (14)
0x0f0|                     0d                        |       .        |                n: 13 0xf7-0xf7.7 (1)
0x0f0|                        61 73 2d 6c 6f 6f 70 2d|        as-loop-|                b: "as-loop-value" 0xf8-0x104.7 (13)
0x100|76 61 6c 75 65                                 |value           |
     |                                               |                |              d{}: 0x105-0x106.7 (2)
0x100|               00                              |     .          |                tag: "funcidx" (0x0) 0x105-0x105.7 (1)
0x100|                  0b                           |      .         |                x: 11 0x106-0x106.7 (1)
     |                                               |                |            [12]{}: ex 0x107-0x114.7 (14)
     |                                               |                |              nm{}: 0x107-0x112.7 (12)
0x100|                     0b                        |       .        |                n: 11 0x107-0x107.7 (1)
0x100|                        61 73 2d 62 72 2d 76 61|        as-br-va|                b: "as-br-value" 0x108-0x112.7 (11)
0x110|6c 75 65                                       |lue             |
     |                                               |                |              d{}: 0x113-0x114.7 (2)
0x110|         00                                    |   .            |                tag: "funcidx" (0x0) 0x113-0x113.7 (1)
0x110|            0c                                 |    .           |                x: 12 0x114-0x114.7 (1)
     |                                               |                |            [13]{}: ex 0x115-0x125.7 (17)
     |                                               |                |              nm{}: 0x115-0x123.7 (15)
0x110|               0e                              |     .          |                n: 14 0x115-0x115.7 (1)
0x110|                  61 73 2d 62 72 5f 69 66 2d 76|      as-br_if-v|                b: "as-br_if-value" 0x116-0x123.7 (14)
0x120|61 6c 75 65                                    |alue            |
     |                                               |                |              d{}: 0x124-0x125.7 (2)
0x120|            00                                 |    .           |                tag: "funcidx" (0x0) 0x124-0x124.7 (1)
0x120|               0d                              |     .          |                x: 13 0x125-0x125.7 (1)
     |                                               |                |            [14]{}: ex 0x126-0x13b.7 (22)
     |                                               |                |              nm{}: 0x126-0x139.7 (20)
0x120|                  13                           |      .         |                n: 19 0x126-0x126.7 (1)
0x120|                     61 73 2d 62 72 5f 69 66 2d|       as-br_if-|                b: "as-br_if-value-cond" 0x127-0x139.7 (19)
0x130|76 61 6c 75 65 2d 63 6f 6e 64                  |value-cond      |
     |                                               |                |              d{}: 0x13a-0x13b.7 (2)
0x130|                              00               |          .     |                tag: "funcidx" (0x0) 0x13a-0x13a.7 (1)
0x130|                                 0e            |           .    |                x: 14 0x13b-0x13b.7 (1)
     |                                               |                |            [15]{}: ex 0x13c-0x14f.7 (20)
     |                                               |                |              nm{}: 0x13c-0x14d.7 (18)
0x130|                                    11         |            .   |                n: 17 0x13c-0x13c.7 (1)
0x130|                                       61 73 2d|             as-|                b: "as-br_table-value" 0x13d-0x14d.7 (17)
0x140|62 72 5f 74 61 62 6c 65 2d 76 61 6c 75 65      |br_table-value  |
     |                                               |                |              d{}: 0x14e-0x14f.7 (2)
0x140|                                          00   |              . |                tag: "funcidx" (0x0) 0x14e-0x14e.7 (1)
0x140|                                             0f|               .|                x: 15 0x14f-0x14f.7 (1)
     |                                               |                |            [16]{}: ex 0x150-0x161.7 (18)
     |                                               |                |              nm{}: 0x150-0x15f.7 (16)
0x150|0f                                             |.               |                n: 15 0x150-0x150.7 (1)
0x150|   61 73 2d 72 65 74 75 72 6e 2d 76 61 6c 75 65| as-return-value|                b: "as-return-value" 0x151-0x15f.7 (15)
     |                                               |                |              d{}: 0x160-0x161.7 (2)
0x160|00                                             |.               |                tag: "funcidx" (0x0) 0x160-0x160.7 (1)
0x160|   10                                          | .              |                x: 16 0x161-0x161.7 (1)
     |                                               |                |            [17]{}: ex 0x162-0x16e.7 (13)
     |                                               |                |              nm{}: 0x162-0x16c.7 (11)
0x160|      0a                                       |  .             |                n: 10 0x162-0x162.7 (1)
0x160|         61 73 2d 69 66 2d 74 68 65 6e         |   as-if-then   |                b: "as-if-then" 0x163-0x16c.7 (10)
     |                                               |                |              d{}: 0x16d-0x16e.7 (2)
0x160|                                       00      |             .  |                tag: "funcidx" (0x0) 0x16d-0x16d.7 (1)
0x160|                                          11   |              . |                x: 17 0x16e-0x16e.7 (1)
     |                                               |                |            [18]{}: ex 0x16f-0x17b.7 (13)
     |                                               |                |              nm{}: 0x16f-0x179.7 (11)
0x160|                                             0a|               .|                n: 10 0x16f-0x16f.7 (1)
0x170|61 73 2d 69 66 2d 65 6c 73 65                  |as-if-else      |                b: "as-if-else" 0x170-0x179.7 (10)
     |                                               |                |              d{}: 0x17a-0x17b.7 (2)
0x170|                              00               |          .     |                tag: "funcidx" (0x0) 0x17a-0x17a.7 (1)
0x170|                                 12            |           .    |                x: 18 0x17b-0x17b.7 (1)
     |                                               |                |    [3]{}: section 0x17c-0x2d0.7 (341)
0x170|                                    0a         |            .   |      id: "code section" (10) 0x17c-0x17c.7 (1)
0x170|                                       d2 02   |             .. |      size: 338 0x17d-0x17e.7 (2)
     |                                               |                |      content{}: 0x17f-0x2d0.7 (338)
     |                                               |                |        code{}: 0x17f-0x2d0.7 (338)
0x170|                                             13|               .|          n: 19 0x17f-0x17f.7 (1)
     |                                               |                |          x[0:19]: 0x180-0x2d0.7 (337)
     |                                               |                |            [0]{}: code 0x180-0x188.7 (9)
0x180|08                                             |.               |              size: 8 0x180-0x180.7 (1)
     |                                               |                |              code{}: 0x181-0x188.7 (8)
     |                                               |                |                t{}: 0x181-0x183.7 (3)
0x180|   01                                          | .              |                  n: 1 0x181-0x181.7 (1)
     |                                               |                |                  x[0:1]: 0x182-0x183.7 (2)
     |                                               |                |                    [0]{}: t 0x182-0x183.7 (2)
0x180|      01                                       |  .             |                      n: 1 0x182-0x182.7 (1)
0x180|         7f                                    |   .            |                      t: "i32" (0x7f) 0x183-0x183.7 (1)
     |                                               |                |                e[0:3]: 0x184-0x188.7 (5)
     |                                               |                |                  [0]{}: in 0x184-0x185.7 (2)
0x180|            41                                 |    A           |                    i32.const: 0x41 (valid) 0x184-0x184.7 (1)
0x180|               00                              |     .          |                    n: 0 0x185-0x185.7 (1)
     |                                               |                |                  [1]{}: in 0x186-0x187.7 (2)
0x180|                  21                           |      !         |                    local.set: 0x21 (valid) 0x186-0x186.7 (1)
0x180|                     00                        |       .        |                    x: 0 0x187-0x187.7 (1)
     |                                               |                |                  [2]{}: in 0x188-0x188.7 (1)
0x180|                        0b                     |        .       |                    end: 0xb (valid) 0x188-0x188.7 (1)
     |                                               |                |            [1]{}: code 0x189-0x191.7 (9)
0x180|                           08                  |         .      |              size: 8 0x189-0x189.7 (1)
     |                                               |                |              code{}: 0x18a-0x191.7 (8)
     |                                               |                |                t{}: 0x18a-0x18c.7 (3)
0x180|                              01               |          .     |                  n: 1 0x18a-0x18a.7 (1)
     |                                               |                |                  x[0:1]: 0x18b-0x18c.7 (2)
     |                                               |                |                    [0]{}: t 0x18b-0x18c.7 (2)
0x180|                                 01            |           .    |                      n: 1 0x18b-0x18b.7 (1)
0x180|                                    7e         |            ~   |                      t: "i64" (0x7e) 0x18c-0x18c.7 (1)
     |                                               |                |                e[0:3]: 0x18d-0x191.7 (5)
     |                                               |                |                  [0]{}: in 0x18d-0x18e.7 (2)
0x180|                                       42      |             B  |                    i64.const: 0x42 (valid) 0x18d-0x18d.7 (1)
0x180|                                          00   |              . |                    n: 0 0x18e-0x18e.7 (1)
     |                                               |                |                  [1]{}: in 0x18f-0x190.7 (2)
0x180|                                             21|               !|                    local.set: 0x21 (valid) 0x18f-0x18f.7 (1)
0x190|00                                             |.               |                    x: 0 0x190-0x190.7 (1)
     |                                               |                |                  [2]{}: in 0x191-0x191.7 (1)
0x190|   0b                                          | .              |                    end: 0xb (valid) 0x191-0x191.7 (1)
     |                                               |                |            [2]{}: code 0x192-0x19d.7 (12)
0x190|      0b                                       |  .             |              size: 11 0x192-0x192.7 (1)
     |                                               |                |              code{}: 0x193-0x19d.7 (11)
     |                                               |                |                t{}: 0x193-0x195.7 (3)
0x190|         01                                    |   .            |                  n: 1 0x193-0x193.7 (1)
     |                                               |                |                  x[0:1]: 0x194-0x195.7 (2)
     |                                               |                |                    [0]{}: t 0x194-0x195.7 (2)
0x190|            01                                 |    .           |                      n: 1 0x194-0x194.7 (1)
0x190|               7d                              |     }          |                      t: "f32" (0x7d) 0x195-0x195.7 (1)
     |                                               |                |                e[0:3]: 0x196-0x19d.7 (8)
     |                                               |                |                  [0]{}: in 0x196-0x19a.7 (5)
0x190|                  43                           |      C         |                    f32.const: 0x43 (valid) 0x196-0x196.7 (1)
0x190|                     00 00 00 00               |       ....     |                    z: 0 0x197-0x19a.7 (4)
     |                                               |                |                  [1]{}: in 0x19b-0x19c.7 (2)
0x190|                                 21            |           !    |                    local.set: 0x21 (valid) 0x19b-0x19b.7 (1)
0x190|                                    00         |            .   |                    x: 0 0x19c-0x19c.7 (1)
     |                                               |                |                  [2]{}: in 0x19d-0x19d.7 (1)
0x190|                                       0b      |             .  |                    end: 0xb (valid) 0x19d-0x19d.7 (1)
     |                                               |                |            [3]{}: code 0x19e-0x1ad.7 (16)
0x190|                                          0f   |              . |              size: 15 0x19e-0x19e.7 (1)
     |                                               |                |              code{}: 0x19f-0x1ad.7 (15)
     |                                               |                |                t{}: 0x19f-0x1a1.7 (3)
0x190|                                             01|               .|                  n: 1 0x19f-0x19f.7 (1)
     |                                               |                |                  x[0:1]: 0x1a0-0x1a1.7 (2)
     |                                               |                |                    [0]{}: t 0x1a0-0x1a1.7 (2)
0x1a0|01                                             |.               |                      n: 1 0x1a0-0x1a0.7 (1)
0x1a0|   7c                                          | |              |                      t: "f64" (0x7c) 0x1a1-0x1a1.7 (1)
     |                                               |                |                e[0:3]: 0x1a2-0x1ad.7 (12)
     |                                               |                |                  [0]{}: in 0x1a2-0x1aa.7 (9)
0x1a0|      44                                       |  D             |                    f64.const: 0x44 (valid) 0x1a2-0x1a2.7 (1)
0x1a0|         00 00 00 00 00 00 00 00               |   ........     |                    z: 0 0x1a3-0x1aa.7 (8)
     |                                               |                |                  [1]{}: in 0x1ab-0x1ac.7 (2)
0x1a0|                                 21            |           !    |                    local.set: 0x21 (valid) 0x1ab-0x1ab.7 (1)
0x1a0|                                    00         |            .   |                    x: 0 0x1ac-0x1ac.7 (1)
     |                                               |                |                  [2]{}: in 0x1ad-0x1ad.7 (1)
0x1a0|                                       0b      |             .  |                    end: 0xb (valid) 0x1ad-0x1ad.7 (1)
     |                                               |                |            [4]{}: code 0x1ae-0x1b4.7 (7)
0x1a0|                                          06   |              . |              size: 6 0x1ae-0x1ae.7 (1)
     |                                               |                |              code{}: 0x1af-0x1b4.7 (6)
     |                                               |                |                t{}: 0x1af-0x1af.7 (1)
0x1a0|                                             00|               .|                  n: 0 0x1af-0x1af.7 (1)
     |                                               |                |                  x[0:0]: 0x1b0-NA (0)
     |                                               |                |                e[0:3]: 0x1b0-0x1b4.7 (5)
     |                                               |                |                  [0]{}: in 0x1b0-0x1b1.7 (2)
0x1b0|41                                             |A               |                    i32.const: 0x41 (valid) 0x1b0-0x1b0.7 (1)
0x1b0|   0a                                          | .              |                    n: 10 0x1b1-0x1b1.7 (1)
     |                                               |                |                  [1]{}: in 0x1b2-0x1b3.7 (2)
0x1b0|      21                                       |  !             |                    local.set: 0x21 (valid) 0x1b2-0x1b2.7 (1)
0x1b0|         00                                    |   .            |                    x: 0 0x1b3-0x1b3.7 (1)
     |                                               |                |                  [2]{}: in 0x1b4-0x1b4.7 (1)
0x1b0|            0b                                 |    .           |                    end: 0xb (valid) 0x1b4-0x1b4.7 (1)
     |                                               |                |            [5]{}: code 0x1b5-0x1bb.7 (7)
0x1b0|               06                              |     .          |              size: 6 0x1b5-0x1b5.7 (1)
     |                                               |                |              code{}: 0x1b6-0x1bb.7 (6)
     |                                               |                |                t{}: 0x1b6-0x1b6.7 (1)
0x1b0|                  00                           |      .         |                  n: 0 0x1b6-0x1b6.7 (1)
     |                                               |                |                  x[0:0]: 0x1b7-NA (0)
     |                                               |                |                e[0:3]: 0x1b7-0x1bb.7 (5)
     |                                               |                |                  [0]{}: in 0x1b7-0x1b8.7 (2)
0x1b0|                     42                        |       B        |                    i64.const: 0x42 (valid) 0x1b7-0x1b7.7 (1)
0x1b0|                        0b                     |        .       |                    n: 11 0x1b8-0x1b8.7 (1)
     |                                               |                |                  [1]{}: in 0x1b9-0x1ba.7 (2)
0x1b0|                           21                  |         !      |                    local.set: 0x21 (valid) 0x1b9-0x1b9.7 (1)
0x1b0|                              00               |          .     |                    x: 0 0x1ba-0x1ba.7 (1)
     |                                               |                |                  [2]{}: in 0x1bb-0x1bb.7 (1)
0x1b0|                                 0b            |           .    |                    end: 0xb (valid) 0x1bb-0x1bb.7 (1)
     |                                               |                |            [6]{}: code 0x1bc-0x1c5.7 (10)
0x1b0|                                    09         |            .   |              size: 9 0x1bc-0x1bc.7 (1)
     |                                               |                |              code{}: 0x1bd-0x1c5.7 (9)
     |                                               |                |                t{}: 0x1bd-0x1bd.7 (1)
0x1b0|                                       00      |             .  |                  n: 0 0x1bd-0x1bd.7 (1)
     |                                               |                |                  x[0:0]: 0x1be-NA (0)
     |                                               |                |                e[0:3]: 0x1be-0x1c5.7 (8)
     |                                               |                |                  [0]{}: in 0x1be-0x1c2.7 (5)
0x1b0|                                          43   |              C |                    f32.const: 0x43 (valid) 0x1be-0x1be.7 (1)
0x1b0|                                             9a|               .|                    z: 11.100000381469727 0x1bf-0x1c2.7 (4)
0x1c0|99 31 41                                       |.1A             |
     |                                               |                |                  [1]{}: in 0x1c3-0x1c4.7 (2)
0x1c0|         21                                    |   !            |                    local.set: 0x21 (valid) 0x1c3-0x1c3.7 (1)
0x1c0|            00                                 |    .           |                    x: 0 0x1c4-0x1c4.7 (1)
     |                                               |                |                  [2]{}: in 0x1c5-0x1c5.7 (1)
0x1c0|               0b                              |     .          |                    end: 0xb (valid) 0x1c5-0x1c5.7 (1)
     |                                               |                |            [7]{}: code 0x1c6-0x1d3.7 (14)
0x1c0|                  0d                           |      .         |              size: 13 0x1c6-0x1c6.7 (1)
     |                                               |                |              code{}: 0x1c7-0x1d3.7 (13)
     |                                               |                |                t{}: 0x1c7-0x1c7.7 (1)
0x1c0|                     00                        |       .        |                  n: 0 0x1c7-0x1c7.7 (1)
     |                                               |                |                  x[0:0]: 0x1c8-NA (0)
     |                                               |                |                e[0:3]: 0x1c8-0x1d3.7 (12)
     |                                               |                |                  [0]{}: in 0x1c8-0x1d0.7 (9)
0x1c0|                        44                     |        D       |                    f64.const: 0x44 (valid) 0x1c8-0x1c8.7 (1)
0x1c0|                           66 66 66 66 66 66 28|         ffffff(|                    z: 12.2 0x1c9-0x1d0.7 (8)
0x1d0|40                                             |@               |
     |                                               |                |                  [1]{}: in 0x1d1-0x1d2.7 (2)
0x1d0|   21                                          | !              |                    local.set: 0x21 (valid) 0x1d1-0x1d1.7 (1)
0x1d0|      00                                       |  .             |                    x: 0 0x1d2-0x1d2.7 (1)
     |                                               |                |                  [2]{}: in 0x1d3-0x1d3.7 (1)
0x1d0|         0b                                    |   .            |                    end: 0xb (valid) 0x1d3-0x1d3.7 (1)
     |                                               |                |            [8]{}: code 0x1d4-0x214.7 (65)
0x1d0|            40                                 |    @           |              size: 64 0x1d4-0x1d4.7 (1)
     |                                               |                |              code{}: 0x1d5-0x214.7 (64)
     |                                               |                |                t{}: 0x1d5-0x1db.7 (7)
0x1d0|               03                              |     .          |                  n: 3 0x1d5-0x1d5.7 (1)
     |                                               |                |                  x[0:3]: 0x1d6-0x1db.7 (6)
     |                                               |                |                    [0]{}: t 0x1d6-0x1d7.7 (2)
0x1d0|                  01                           |      .         |                      n: 1 0x1d6-0x1d6.7 (1)
0x1d0|                     7d                        |       }        |                      t: "f32" (0x7d) 0x1d7-0x1d7.7 (1)
     |                                               |                |                    [1]{}: t 0x1d8-0x1d9.7 (2)
0x1d0|                        02                     |        .       |                      n: 2 0x1d8-0x1d8.7 (1)
0x1d0|                           7e                  |         ~      |                      t: "i64" (0x7e) 0x1d9-0x1d9.7 (1)
     |                                               |                |                    [2]{}: t 0x1da-0x1db.7 (2)
0x1d0|                              01               |          .     |                      n: 1 0x1da-0x1da.7 (1)
0x1d0|                                 7c            |           |    |                      t: "f64" (0x7c) 0x1db-0x1db.7 (1)
     |                                               |                |                e[0:19]: 0x1dc-0x214.7 (57)
     |                                               |                |                  [0]{}: in 0x1dc-0x1dd.7 (2)
0x1d0|                                    42         |            B   |                    i64.const: 0x42 (valid) 0x1dc-0x1dc.7 (1)
0x1d0|                                       00      |             .  |                    n: 0 0x1dd-0x1dd.7 (1)
     |                                               |                |                  [1]{}: in 0x1de-0x1df.7 (2)
0x1d0|                                          21   |              ! |                    local.set: 0x21 (valid) 0x1de-0x1de.7 (1)
0x1d0|                                             00|               .|                    x: 0 0x1df-0x1df.7 (1)
     |                                               |                |                  [2]{}: in 0x1e0-0x1e4.7 (5)
0x1e0|43                                             |C               |                    f32.const: 0x43 (valid) 0x1e0-0x1e0.7 (1)
0x1e0|   00 00 00 00                                 | ....           |                    z: 0 0x1e1-0x1e4.7 (4)
     |                                               |                |                  [3]{}: in 0x1e5-0x1e6.7 (2)
0x1e0|               21                              |     !          |                    local.set: 0x21 (valid) 0x1e5-0x1e5.7 (1)
0x1e0|                  01                           |      .         |                    x: 1 0x1e6-0x1e6.7 (1)
     |                                               |                |                  [4]{}: in 0x1e7-0x1ef.7 (9)
0x1e0|                     44                        |       D        |                    f64.const: 0x44 (valid) 0x1e7-0x1e7.7 (1)
0x1e0|                        00 00 00 00 00 00 00 00|        ........|                    z: 0 0x1e8-0x1ef.7 (8)
     |                                               |                |                  [5]{}: in 0x1f0-0x1f1.7 (2)
0x1f0|21                                             |!               |                    local.set: 0x21 (valid) 0x1f0-0x1f0.7 (1)
0x1f0|   02                                          | .              |                    x: 2 0x1f1-0x1f1.7 (1)
     |                                               |                |                  [6]{}: in 0x1f2-0x1f3.7 (2)
0x1f0|      41                                       |  A             |                    i32.const: 0x41 (valid) 0x1f2-0x1f2.7 (1)
0x1f0|         00                                    |   .            |                    n: 0 0x1f3-0x1f3.7 (1)
     |                                               |                |                  [7]{}: in 0x1f4-0x1f5.7 (2)
0x1f0|            21                                 |    !           |                    local.set: 0x21 (valid) 0x1f4-0x1f4.7 (1)
0x1f0|               03                              |     .          |                    x: 3 0x1f5-0x1f5.7 (1)
     |                                               |                |                  [8]{}: in 0x1f6-0x1f7.7 (2)
0x1f0|                  41                           |      A         |                    i32.const: 0x41 (valid) 0x1f6-0x1f6.7 (1)
0x1f0|                     00                        |       .        |                    n: 0 0x1f7-0x1f7.7 (1)
     |                                               |                |                  [9]{}: in 0x1f8-0x1f9.7 (2)
0x1f0|                        21                     |        !       |                    local.set: 0x21 (valid) 0x1f8-0x1f8.7 (1)
0x1f0|                           04                  |         .      |                    x: 4 0x1f9-0x1f9.7 (1)
     |                                               |                |                  [10]{}: in 0x1fa-0x1fe.7 (5)
0x1f0|                              43               |          C     |                    f32.const: 0x43 (valid) 0x1fa-0x1fa.7 (1)
0x1f0|                                 00 00 00 00   |           .... |                    z: 0 0x1fb-0x1fe.7 (4)
     |                                               |                |                  [11]{}: in 0x1ff-0x200.7 (2)
0x1f0|                                             21|               !|                    local.set: 0x21 (valid) 0x1ff-0x1ff.7 (1)
0x200|05                                             |.               |                    x: 5 0x200-0x200.7 (1)
     |                                               |                |                  [12]{}: in 0x201-0x202.7 (2)
0x200|   42                                          | B              |                    i64.const: 0x42 (valid) 0x201-0x201.7 (1)
0x200|      00                                       |  .             |                    n: 0 0x202-0x202.7 (1)
     |                                               |                |                  [13]{}: in 0x203-0x204.7 (2)
0x200|         21                                    |   !            |                    local.set: 0x21 (valid) 0x203-0x203.7 (1)
0x200|            06                                 |    .           |                    x: 6 0x204-0x204.7 (1)
     |                                               |                |                  [14]{}: in 0x205-0x206.7 (2)
0x200|               42                              |     B          |                    i64.const: 0x42 (valid) 0x205-0x205.7 (1)
0x200|                  00                           |      .         |                    n: 0 0x206-0x206.7 (1)
     |                                               |                |                  [15]{}: in 0x207-0x208.7 (2)
0x200|                     21                        |       !        |                    local.set: 0x21 (valid) 0x207-0x207.7 (1)
0x200|                        07                     |        .       |                    x: 7 0x208-0x208.7 (1)
     |                                               |                |                  [16]{}: in 0x209-0x211.7 (9)
0x200|                           44                  |         D      |                    f64.const: 0x44 (valid) 0x209-0x209.7 (1)
0x200|                              00 00 00 00 00 00|          ......|                    z: 0 0x20a-0x211.7 (8)
0x210|00 00                                          |..              |
     |                                               |                |                  [17]{}: in 0x212-0x213.7 (2)
0x210|      21                                       |  !             |                    local.set: 0x21 (valid) 0x212-0x212.7 (1)
0x210|         08                                    |   .            |                    x: 8 0x213-0x213.7 (1)
     |                                               |                |                  [18]{}: in 0x214-0x214.7 (1)
0x210|            0b                                 |    .           |                    end: 0xb (valid) 0x214-0x214.7 (1)
     |                                               |                |            [9]{}: code 0x215-0x264.7 (80)
0x210|               4f                              |     O          |              size: 79 0x215-0x215.7 (1)
     |                                               |                |              code{}: 0x216-0x264.7 (79)
     |                                               |                |                t{}: 0x216-0x21c.7 (7)
0x210|                  03                           |      .         |                  n: 3 0x216-0x216.7 (1)
     |                                               |                |                  x[0:3]: 0x217-0x21c.7 (6)
     |                                               |                |                    [0]{}: t 0x217-0x218.7 (2)
0x210|                     01                        |       .        |                      n: 1 0x217-0x217.7 (1)
0x210|                        7d                     |        }       |                      t: "f32" (0x7d) 0x218-0x218.7 (1)
     |                                               |                |                    [1]{}: t 0x219-0x21a.7 (2)
0x210|                           02                  |         .      |                      n: 2 0x219-0x219.7 (1)
0x210|                              7e               |          ~     |                      t: "i64" (0x7e) 0x21a-0x21a.7 (1)
     |                                               |                |                    [2]{}: t 0x21b-0x21c.7 (2)
0x210|                                 01            |           .    |                      n: 1 0x21b-0x21b.7 (1)
0x210|                                    7c         |            |   |                      t: "f64" (0x7c) 0x21c-0x21c.7 (1)
     |                                               |                |                e[0:38]: 0x21d-0x264.7 (72)
     |                                               |                |                  [0]{}: in 0x21d-0x221.7 (5)
0x210|                                       43      |             C  |                    f32.const: 0x43 (valid) 0x21d-0x21d.7 (1)
0x210|                                          9a 99|              ..|                    z: -0.30000001192092896 0x21e-0x221.7 (4)
0x220|99 be                                          |..              |
     |                                               |                |                  [1]{}: in 0x222-0x223.7 (2)
0x220|      21                                       |  !             |                    local.set: 0x21 (valid) 0x222-0x222.7 (1)
0x220|         01                                    |   .            |                    x: 1 0x223-0x223.7 (1)
     |                                               |                |                  [2]{}: in 0x224-0x225.7 (2)
0x220|            41                                 |    A           |                    i32.const: 0x41 (valid) 0x224-0x224.7 (1)
0x220|               28                              |     (          |                    n: 40 0x225-0x225.7 (1)
     |                                               |                |                  [3]{}: in 0x226-0x227.7 (2)
0x220|                  21                           |      !         |                    local.set: 0x21 (valid) 0x226-0x226.7 (1)
0x220|                     03                        |       .        |                    x: 3 0x227-0x227.7 (1)
     |                                               |                |                  [4]{}: in 0x228-0x229.7 (2)
0x220|                        41                     |        A       |                    i32.const: 0x41 (valid) 0x228-0x228.7 (1)
0x220|                           79                  |         y      |                    n: -7 0x229-0x229.7 (1)
     |                                               |                |                  [5]{}: in 0x22a-0x22b.7 (2)
0x220|                              21               |          !     |                    local.set: 0x21 (valid) 0x22a-0x22a.7 (1)
0x220|                                 04            |           .    |                    x: 4 0x22b-0x22b.7 (1)
     |                                               |                |                  [6]{}: in 0x22c-0x230.7 (5)
0x220|                                    43         |            C   |                    f32.const: 0x43 (valid) 0x22c-0x22c.7 (1)
0x220|                                       00 00 b0|             ...|                    z: 5.5 0x22d-0x230.7 (4)
0x230|40                                             |@               |
     |                                               |                |                  [7]{}: in 0x231-0x232.7 (2)
0x230|   21                                          | !              |                    local.set: 0x21 (valid) 0x231-0x231.7 (1)
0x230|      05                                       |  .             |                    x: 5 0x232-0x232.7 (1)
     |                                               |                |                  [8]{}: in 0x233-0x234.7 (2)
0x230|         42                                    |   B            |                    i64.const: 0x42 (valid) 0x233-0x233.7 (1)
0x230|            06                                 |    .           |                    n: 6 0x234-0x234.7 (1)
     |                                               |                |                  [9]{}: in 0x235-0x236.7 (2)
0x230|               21                              |     !          |                    local.set: 0x21 (valid) 0x235-0x235.7 (1)
0x230|                  06                           |      .         |                    x: 6 0x236-0x236.7 (1)
     |                                               |                |                  [10]{}: in 0x237-0x23f.7 (9)
0x230|                     44                        |       D        |                    f64.const: 0x44 (valid) 0x237-0x237.7 (1)
0x230|                        00 00 00 00 00 00 20 40|        ...... @|                    z: 8 0x238-0x23f.7 (8)
     |                                               |                |                  [11]{}: in 0x240-0x241.7 (2)
0x240|21                                             |!               |                    local.set: 0x21 (valid) 0x240-0x240.7 (1)
0x240|   08                                          | .              |                    x: 8 0x241-0x241.7 (1)
     |                                               |                |                  [12]{}: in 0x242-0x243.7 (2)
0x240|      20                                       |                |                    local.get: 0x20 (valid) 0x242-0x242.7 (1)
0x240|         00                                    |   .            |                    x: 0 0x243-0x243.7 (1)
     |                                               |                |                  [13]{}: in 0x244-0x244.7 (1)
0x240|            ba                                 |    .           |                    f64.convert_i64_u: 0xba (valid) 0x244-0x244.7 (1)
     |                                               |                |                  [14]{}: in 0x245-0x246.7 (2)
0x240|               20                              |                |                    local.get: 0x20 (valid) 0x245-0x245.7 (1)
0x240|                  01                           |      .         |                    x: 1 0x246-0x246.7 (1)
     |                                               |                |                  [15]{}: in 0x247-0x247.7 (1)
0x240|                     bb                        |       .        |                    f64.promote_f32: 0xbb (valid) 0x247-0x247.7 (1)
     |                                               |                |                  [16]{}: in 0x248-0x249.7 (2)
0x240|                        20                     |                |                    local.get: 0x20 (valid) 0x248-0x248.7 (1)
0x240|                           02                  |         .      |                    x: 2 0x249-0x249.7 (1)
     |                                               |                |                  [17]{}: in 0x24a-0x24b.7 (2)
0x240|                              20               |                |                    local.get: 0x20 (valid) 0x24a-0x24a.7 (1)
0x240|                                 03            |           .    |                    x: 3 0x24b-0x24b.7 (1)
     |                                               |                |                  [18]{}: in 0x24c-0x24c.7 (1)
0x240|                                    b8         |            .   |                    f64.convert_i32_u: 0xb8 (valid) 0x24c-0x24c.7 (1)
     |                                               |                |                  [19]{}: in 0x24d-0x24e.7 (2)
0x240|                                       20      |                |                    local.get: 0x20 (valid) 0x24d-0x24d.7 (1)
0x240|                                          04   |              . |                    x: 4 0x24e-0x24e.7 (1)
     |                                               |                |                  [20]{}: in 0x24f-0x24f.7 (1)
0x240|                                             b7|               .|                    f64.convert_i32_s: 0xb7 (valid) 0x24f-0x24f.7 (1)
     |                                               |                |                  [21]{}: in 0x250-0x251.7 (2)
0x250|20                                             |                |                    local.get: 0x20 (valid) 0x250-0x250.7 (1)
0x250|   05                                          | .              |                    x: 5 0x251-0x251.7 (1)
     |                                               |                |                  [22]{}: in 0x252-0x252.7 (1)
0x250|      bb                                       |  .             |                    f64.promote_f32: 0xbb (valid) 0x252-0x252.7 (1)
     |                                               |                |                  [23]{}: in 0x253-0x254.7 (2)
0x250|         20                                    |                |                    local.get: 0x20 (valid) 0x253-0x253.7 (1)
0x250|            06                                 |    .           |                    x: 6 0x254-0x254.7 (1)
     |                                               |                |                  [24]{}: in 0x255-0x255.7 (1)
0x250|               ba                              |     .          |                    f64.convert_i64_u: 0xba (valid) 0x255-0x255.7 (1)
     |                                               |                |                  [25]{}: in 0x256-0x257.7 (2)
0x250|                  20                           |                |                    local.get: 0x20 (valid) 0x256-0x256.7 (1)
0x250|                     07                        |       .        |                    x: 7 0x257-0x257.7 (1)
     |                                               |                |                  [26]{}: in 0x258-0x258.7 (1)
0x250|                        ba                     |        .       |                    f64.convert_i64_u: 0xba (valid) 0x258-0x258.7 (1)
     |                                               |                |                  [27]{}: in 0x259-0x25a.7 (2)
0x250|                           20                  |                |                    local.get: 0x20 (valid) 0x259-0x259.7 (1)
0x250|                              08               |          .     |                    x: 8 0x25a-0x25a.7 (1)
     |                                               |                |                  [28]{}: in 0x25b-0x25b.7 (1)
0x250|                                 a0            |           .    |                    f64.add: 0xa0 (valid) 0x25b-0x25b.7 (1)
     |                                               |                |                  [29]{}: in 0x25c-0x25c.7 (1)
0x250|                                    a0         |            .   |                    f64.add: 0xa0 (valid) 0x25c-0x25c.7 (1)
     |                                               |                |                  [30]{}: in 0x25d-0x25d.7 (1)
0x250|                                       a0      |             .  |                    f64.add: 0xa0 (valid) 0x25d-0x25d.7 (1)
     |                                               |                |                  [31]{}: in 0x25e-0x25e.7 (1)
0x250|                                          a0   |              . |                    f64.add: 0xa0 (valid) 0x25e-0x25e.7 (1)
     |                                               |                |                  [32]{}: in 0x25f-0x25f.7 (1)
0x250|                                             a0|               .|                    f64.add: 0xa0 (valid) 0x25f-0x25f.7 (1)
     |                                               |                |                  [33]{}: in 0x260-0x260.7 (1)
0x260|a0                                             |.               |                    f64.add: 0xa0 (valid) 0x260-0x260.7 (1)
     |                                               |                |                  [34]{}: in 0x261-0x261.7 (1)
0x260|   a0                                          | .              |                    f64.add: 0xa0 (valid) 0x261-0x261.7 (1)
     |                                               |                |                  [35]{}: in 0x262-0x262.7 (1)
0x260|      a0                                       |  .             |                    f64.add: 0xa0 (valid) 0x262-0x262.7 (1)
     |                                               |                |                  [36]{}: in 0x263-0x263.7 (1)
0x260|         b0                                    |   .            |                    i64.trunc_f64_s: 0xb0 (valid) 0x263-0x263.7 (1)
     |                                               |                |                  [37]{}: in 0x264-0x264.7 (1)
0x260|            0b                                 |    .           |                    end: 0xb (valid) 0x264-0x264.7 (1)
     |                                               |                |            [10]{}: code 0x265-0x26e.7 (10)
0x260|               09                              |     .          |              size: 9 0x265-0x265.7 (1)
     |                                               |                |              code{}: 0x266-0x26e.7 (9)
     |                                               |                |                t{}: 0x266-0x266.7 (1)
0x260|                  00                           |      .         |                  n: 0 0x266-0x266.7 (1)
     |                                               |                |                  x[0:0]: 0x267-NA (0)
     |                                               |                |                e[0:2]: 0x267-0x26e.7 (8)
     |                                               |                |                  [0]{}: in 0x267-0x26d.7 (7)
0x260|                     02                        |       .        |                    block: 0x2 (valid) 0x267-0x267.7 (1)
0x260|                        40                     |        @       |                    bt: "ε" (64) 0x268-0x268.7 (1)
     |                                               |                |                    instructions[0:2]: 0x269-0x26c.7 (4)
     |                                               |                |                      [0]{}: instr 0x269-0x26a.7 (2)
0x260|                           41                  |         A      |                        i32.const: 0x41 (valid) 0x269-0x269.7 (1)
0x260|                              01               |          .     |                        n: 1 0x26a-0x26a.7 (1)
     |                                               |                |                      [1]{}: instr 0x26b-0x26c.7 (2)
0x260|                                 21            |           !    |                        local.set: 0x21 (valid) 0x26b-0x26b.7 (1)
0x260|                                    00         |            .   |                        x: 0 0x26c-0x26c.7 (1)
0x260|                                       0b      |             .  |                    end: 11 (valid) 0x26d-0x26d.7 (1)
     |                                               |                |                  [1]{}: in 0x26e-0x26e.7 (1)
0x260|                                          0b   |              . |                    end: 0xb (valid) 0x26e-0x26e.7 (1)
     |                                               |                |            [11]{}: code 0x26f-0x278.7 (10)
0x260|                                             09|               .|              size: 9 0x26f-0x26f.7 (1)
     |                                               |                |              code{}: 0x270-0x278.7 (9)
     |                                               |                |                t{}: 0x270-0x270.7 (1)
0x270|00                                             |.               |                  n: 0 0x270-0x270.7 (1)
     |                                               |                |                  x[0:0]: 0x271-NA (0)
     |                                               |                |                e[0:2]: 0x271-0x278.7 (8)
     |                                               |                |                  [0]{}: in 0x271-0x277.7 (7)
0x270|   03                                          | .              |                    loop: 0x3 (valid) 0x271-0x271.7 (1)
0x270|      40                                       |  @             |                    bt: "ε" (64) 0x272-0x272.7 (1)
     |                                               |                |                    instructions[0:2]: 0x273-0x276.7 (4)
     |                                               |                |                      [0]{}: instr 0x273-0x274.7 (2)
0x270|         41                                    |   A            |                        i32.const: 0x41 (valid) 0x273-0x273.7 (1)
0x270|            03                                 |    .           |                        n: 3 0x274-0x274.7 (1)
     |                                               |                |                      [1]{}: instr 0x275-0x276.7 (2)
0x270|               21                              |     !          |                        local.set: 0x21 (valid) 0x275-0x275.7 (1)
0x270|                  00                           |      .         |                        x: 0 0x276-0x276.7 (1)
0x270|                     0b                        |       .        |                    end: 11 (valid) 0x277-0x277.7 (1)
     |                                               |                |                  [1]{}: in 0x278-0x278.7 (1)
0x270|                        0b                     |        .       |                    end: 0xb (valid) 0x278-0x278.7 (1)
     |                                               |                |            [12]{}: code 0x279-0x284.7 (12)
0x270|                           0b                  |         .      |              size: 11 0x279-0x279.7 (1)
     |                                               |                |              code{}: 0x27a-0x284.7 (11)
     |                                               |                |                t{}: 0x27a-0x27a.7 (1)
0x270|                              00               |          .     |                  n: 0 0x27a-0x27a.7 (1)
     |                                               |                |                  x[0:0]: 0x27b-NA (0)
     |                                               |                |                e[0:2]: 0x27b-0x284.7 (10)
     |                                               |                |                  [0]{}: in 0x27b-0x283.7 (9)
0x270|                                 02            |           .    |                    block: 0x2 (valid) 0x27b-0x27b.7 (1)
0x270|                                    40         |            @   |                    bt: "ε" (64) 0x27c-0x27c.7 (1)
     |                                               |                |                    instructions[0:3]: 0x27d-0x282.7 (6)
     |                                               |                |                      [0]{}: instr 0x27d-0x27e.7 (2)
0x270|                                       41      |             A  |                        i32.const: 0x41 (valid) 0x27d-0x27d.7 (1)
0x270|                                          09   |              . |                        n: 9 0x27e-0x27e.7 (1)
     |                                               |                |                      [1]{}: instr 0x27f-0x280.7 (2)
0x270|                                             21|               !|                        local.set: 0x21 (valid) 0x27f-0x27f.7 (1)
0x280|00                                             |.               |                        x: 0 0x280-0x280.7 (1)
     |                                               |                |                      [2]{}: instr 0x281-0x282.7 (2)
0x280|   0c                                          | .              |                        br: 0xc (valid) 0x281-0x281.7 (1)
0x280|      00                                       |  .             |                        l: 0 0x282-0x282.7 (1)
0x280|         0b                                    |   .            |                    end: 11 (valid) 0x283-0x283.7 (1)
     |                                               |                |                  [1]{}: in 0x284-0x284.7 (1)
0x280|            0b                                 |    .           |                    end: 0xb (valid) 0x284-0x284.7 (1)
     |                                               |                |            [13]{}: code 0x285-0x292.7 (14)
0x280|               0d                              |     .          |              size: 13 0x285-0x285.7 (1)
     |                                               |                |              code{}: 0x286-0x292.7 (13)
     |                                               |                |                t{}: 0x286-0x286.7 (1)
0x280|                  00                           |      .         |                  n: 0 0x286-0x286.7 (1)
     |                                               |                |                  x[0:0]: 0x287-NA (0)
     |                                               |                |                e[0:2]: 0x287-0x292.7 (12)
     |                                               |                |                  [0]{}: in 0x287-0x291.7 (11)
0x280|                     02                        |       .        |                    block: 0x2 (valid) 0x287-0x287.7 (1)
0x280|                        40                     |        @       |                    bt: "ε" (64) 0x288-0x288.7 (1)
     |                                               |                |                    instructions[0:4]: 0x289-0x290.7 (8)
     |                                               |                |                      [0]{}: instr 0x289-0x28a.7 (2)
0x280|                           41                  |         A      |                        i32.const: 0x41 (valid) 0x289-0x289.7 (1)
0x280|                              08               |          .     |                        n: 8 0x28a-0x28a.7 (1)
     |                                               |                |                      [1]{}: instr 0x28b-0x28c.7 (2)
0x280|                                 21            |           !    |                        local.set: 0x21 (valid) 0x28b-0x28b.7 (1)
0x280|                                    00         |            .   |                        x: 0 0x28c-0x28c.7 (1)
     |                                               |                |                      [2]{}: instr 0x28d-0x28e.7 (2)
0x280|                                       41      |             A  |                        i32.const: 0x41 (valid) 0x28d-0x28d.7 (1)
0x280|                                          01   |              . |                        n: 1 0x28e-0x28e.7 (1)
     |                                               |                |                      [3]{}: instr 0x28f-0x290.7 (2)
0x280|                                             0d|               .|                        br_if: 0xd (valid) 0x28f-0x28f.7 (1)
0x290|00                                             |.               |                        l: 0 0x290-0x290.7 (1)
0x290|   0b                                          | .              |                    end: 11 (valid) 0x291-0x291.7 (1)
     |                                               |                |                  [1]{}: in 0x292-0x292.7 (1)
0x290|      0b                                       |  .             |                    end: 0xb (valid) 0x292-0x292.7 (1)
     |                                               |                |            [14]{}: code 0x293-0x2a0.7 (14)
0x290|         0d                                    |   .            |              size: 13 0x293-0x293.7 (1)
     |                                               |                |              code{}: 0x294-0x2a0.7 (13)
     |                                               |                |                t{}: 0x294-0x294.7 (1)
0x290|            00                                 |    .           |                  n: 0 0x294-0x294.7 (1)
     |                                               |                |                  x[0:0]: 0x295-NA (0)
     |                                               |                |                e[0:2]: 0x295-0x2a0.7 (12)
     |                                               |                |                  [0]{}: in 0x295-0x29f.7 (11)
0x290|               02                              |     .          |                    block: 0x2 (valid) 0x295-0x295.7 (1)
0x290|                  40                           |      @         |                    bt: "ε" (64) 0x296-0x296.7 (1)
     |                                               |                |                    instructions[0:4]: 0x297-0x29e.7 (8)
     |                                               |                |                      [0]{}: instr 0x297-0x298.7 (2)
0x290|                     41                        |       A        |                        i32.const: 0x41 (valid) 0x297-0x297.7 (1)
0x290|                        06                     |        .       |                        n: 6 0x298-0x298.7 (1)
     |                                               |                |                      [1]{}: instr 0x299-0x29a.7 (2)
0x290|                           41                  |         A      |                        i32.const: 0x41 (valid) 0x299-0x299.7 (1)
0x290|                              09               |          .     |                        n: 9 0x29a-0x29a.7 (1)
     |                                               |                |                      [2]{}: instr 0x29b-0x29c.7 (2)
0x290|                                 21            |           !    |                        local.set: 0x21 (valid) 0x29b-0x29b.7 (1)
0x290|                                    00         |            .   |                        x: 0 0x29c-0x29c.7 (1)
     |                                               |                |                      [3]{}: instr 0x29d-0x29e.7 (2)
0x290|                                       0d      |             .  |                        br_if: 0xd (valid) 0x29d-0x29d.7 (1)
0x290|                                          00   |              . |                        l: 0 0x29e-0x29e.7 (1)
0x290|                                             0b|               .|                    end: 11 (valid) 0x29f-0x29f.7 (1)
     |                                               |                |                  [1]{}: in 0x2a0-0x2a0.7 (1)
0x2a0|0b                                             |.               |                    end: 0xb (valid) 0x2a0-0x2a0.7 (1)
     |                                               |                |            [15]{}: code 0x2a1-0x2af.7 (15)
0x2a0|   0e                                          | .              |              size: 14 0x2a1-0x2a1.7 (1)
     |                                               |                |              code{}: 0x2a2-0x2af.7 (14)
     |                                               |                |                t{}: 0x2a2-0x2a2.7 (1)
0x2a0|      00                                       |  .             |                  n: 0 0x2a2-0x2a2.7 (1)
     |                                               |                |                  x[0:0]: 0x2a3-NA (0)
     |                                               |                |                e[0:2]: 0x2a3-0x2af.7 (13)
     |                                               |                |                  [0]{}: in 0x2a3-0x2ae.7 (12)
0x2a0|         02                                    |   .            |                    block: 0x2 (valid) 0x2a3-0x2a3.7 (1)
0x2a0|            40                                 |    @           |                    bt: "ε" (64) 0x2a4-0x2a4.7 (1)
     |                                               |                |                    instructions[0:4]: 0x2a5-0x2ad.7 (9)
     |                                               |                |                      [0]{}: instr 0x2a5-0x2a6.7 (2)
0x2a0|               41                              |     A          |                        i32.const: 0x41 (valid) 0x2a5-0x2a5.7 (1)
0x2a0|                  0a                           |      .         |                        n: 10 0x2a6-0x2a6.7 (1)
     |                                               |                |                      [1]{}: instr 0x2a7-0x2a8.7 (2)
0x2a0|                     21                        |       !        |                        local.set: 0x21 (valid) 0x2a7-0x2a7.7 (1)
0x2a0|                        00                     |        .       |                        x: 0 0x2a8-0x2a8.7 (1)
     |                                               |                |                      [2]{}: instr 0x2a9-0x2aa.7 (2)
0x2a0|                           41                  |         A      |                        i32.const: 0x41 (valid) 0x2a9-0x2a9.7 (1)
0x2a0|                              01               |          .     |                        n: 1 0x2aa-0x2aa.7 (1)
     |                                               |                |                      [3]{}: instr 0x2ab-0x2ad.7 (3)
0x2a0|                                 0e            |           .    |                        br_table: 0xe (valid) 0x2ab-0x2ab.7 (1)
     |                                               |                |                        l{}: 0x2ac-0x2ac.7 (1)
0x2a0|                                    00         |            .   |                          n: 0 0x2ac-0x2ac.7 (1)
     |                                               |                |                          x[0:0]: 0x2ad-NA (0)
0x2a0|                                       00      |             .  |                        lN: 0 0x2ad-0x2ad.7 (1)
0x2a0|                                          0b   |              . |                    end: 11 (valid) 0x2ae-0x2ae.7 (1)
     |                                               |                |                  [1]{}: in 0x2af-0x2af.7 (1)
0x2a0|                                             0b|               .|                    end: 0xb (valid) 0x2af-0x2af.7 (1)
     |                                               |                |            [16]{}: code 0x2b0-0x2b7.7 (8)
0x2b0|07                                             |.               |              size: 7 0x2b0-0x2b0.7 (1)
     |                                               |                |              code{}: 0x2b1-0x2b7.7 (7)
     |                                               |                |                t{}: 0x2b1-0x2b1.7 (1)
0x2b0|   00                                          | .              |                  n: 0 0x2b1-0x2b1.7 (1)
     |                                               |                |                  x[0:0]: 0x2b2-NA (0)
     |                                               |                |                e[0:4]: 0x2b2-0x2b7.7 (6)
     |                                               |                |                  [0]{}: in 0x2b2-0x2b3.7 (2)
0x2b0|      41                                       |  A             |                    i32.const: 0x41 (valid) 0x2b2-0x2b2.7 (1)
0x2b0|         07                                    |   .            |                    n: 7 0x2b3-0x2b3.7 (1)
     |                                               |                |                  [1]{}: in 0x2b4-0x2b5.7 (2)
0x2b0|            21                                 |    !           |                    local.set: 0x21 (valid) 0x2b4-0x2b4.7 (1)
0x2b0|               00                              |     .          |                    x: 0 0x2b5-0x2b5.7 (1)
     |                                               |                |                  [2]{}: in 0x2b6-0x2b6.7 (1)
0x2b0|                  0f                           |      .         |                    return: 0xf (valid) 0x2b6-0x2b6.7 (1)
     |                                               |                |                  [3]{}: in 0x2b7-0x2b7.7 (1)
0x2b0|                     0b                        |       .        |                    end: 0xb (valid) 0x2b7-0x2b7.7 (1)
     |                                               |                |            [17]{}: code 0x2b8-0x2c3.7 (12)
0x2b0|                        0b                     |        .       |              size: 11 0x2b8-0x2b8.7 (1)
     |                                               |                |              code{}: 0x2b9-0x2c3.7 (11)
     |                                               |                |                t{}: 0x2b9-0x2b9.7 (1)
0x2b0|                           00                  |         .      |                  n: 0 0x2b9-0x2b9.7 (1)
     |                                               |                |                  x[0:0]: 0x2ba-NA (0)
     |                                               |                |                e[0:3]: 0x2ba-0x2c3.7 (10)
     |                                               |                |                  [0]{}: in 0x2ba-0x2bb.7 (2)
0x2b0|                              20               |                |                    local.get: 0x20 (valid) 0x2ba-0x2ba.7 (1)
0x2b0|                                 00            |           .    |                    x: 0 0x2bb-0x2bb.7 (1)
     |                                               |                |                  [1]{}: in 0x2bc-0x2c2.7 (7)
0x2b0|                                    04         |            .   |                    if: 0x4 (valid) 0x2bc-0x2bc.7 (1)
0x2b0|                                       40      |             @  |                    bt: "ε" (64) 0x2bd-0x2bd.7 (1)
     |                                               |                |                    in1[0:2]: 0x2be-0x2c1.7 (4)
     |                                               |                |                      [0]{}: instr 0x2be-0x2bf.7 (2)
0x2b0|                                          41   |              A |                        i32.const: 0x41 (valid) 0x2be-0x2be.7 (1)
0x2b0|                                             03|               .|                        n: 3 0x2bf-0x2bf.7 (1)
     |                                               |                |                      [1]{}: instr 0x2c0-0x2c1.7 (2)
0x2c0|21                                             |!               |                        local.set: 0x21 (valid) 0x2c0-0x2c0.7 (1)
0x2c0|   00                                          | .              |                        x: 0 0x2c1-0x2c1.7 (1)
0x2c0|      0b                                       |  .             |                    end: 11 (valid) 0x2c2-0x2c2.7 (1)
     |                                               |                |                  [2]{}: in 0x2c3-0x2c3.7 (1)
0x2c0|         0b                                    |   .            |                    end: 0xb (valid) 0x2c3-0x2c3.7 (1)
     |                                               |                |            [18]{}: code 0x2c4-0x2d0.7 (13)
0x2c0|            0c                                 |    .           |              size: 12 0x2c4-0x2c4.7 (1)
     |                                               |                |              code{}: 0x2c5-0x2d0.7 (12)
     |                                               |                |                t{}: 0x2c5-0x2c5.7 (1)
0x2c0|               00                              |     .          |                  n: 0 0x2c5-0x2c5.7 (1)
     |                                               |                |                  x[0:0]: 0x2c6-NA (0)
     |                                               |                |                e[0:3]: 0x2c6-0x2d0.7 (11)
     |                                               |                |                  [0]{}: in 0x2c6-0x2c7.7 (2)
0x2c0|                  20                           |                |                    local.get: 0x20 (valid) 0x2c6-0x2c6.7 (1)
0x2c0|                     00                        |       .        |                    x: 0 0x2c7-0x2c7.7 (1)
     |                                               |                |                  [1]{}: in 0x2c8-0x2cf.7 (8)
0x2c0|                        04                     |        .       |                    if: 0x4 (valid) 0x2c8-0x2c8.7 (1)
0x2c0|                           40                  |         @      |                    bt: "ε" (64) 0x2c9-0x2c9.7 (1)
     |                                               |                |                    in1[0:0]: 0x2ca-NA (0)
0x2c0|                              05               |          .     |                    else: 0x5 (valid) 0x2ca-0x2ca.7 (1)
     |                                               |                |                    in2[0:2]: 0x2cb-0x2ce.7 (4)
     |                                               |                |                      [0]{}: instr 0x2cb-0x2cc.7 (2)
0x2c0|                                 41            |           A    |                        i32.const: 0x41 (valid) 0x2cb-0x2cb.7 (1)
0x2c0|                                    01         |            .   |                        n: 1 0x2cc-0x2cc.7 (1)
     |                                               |                |                      [1]{}: instr 0x2cd-0x2ce.7 (2)
0x2c0|                                       21      |             !  |                        local.set: 0x21 (valid) 0x2cd-0x2cd.7 (1)
0x2c0|                                          00   |              . |                        x: 0 0x2ce-0x2ce.7 (1)
0x2c0|                                             0b|               .|                    end: 11 (valid) 0x2cf-0x2cf.7 (1)
     |                                               |                |                  [2]{}: in 0x2d0-0x2d0.7 (1)
0x2d0|0b|                                            |.|              |                    end: 0xb (valid) 0x2d0-0x2d0.7 (1)
