$ fq -d wasm dv local_tee-0.wasm
     |00 01 02 03 04 05 06 07 08 09 0a 0b 0c 0d 0e 0f|0123456789abcdef|.{}: local_tee-0.wasm (wasm) 0x0-0x813 (2067)
0x000|00 61 73 6d                                    |.asm            |  magic: raw bits (valid) 0x0-0x4 (4)
0x000|            01 00 00 00                        |    ....        |  version: 1 0x4-0x8 (4)
     |                                               |                |  sections[0:8]: 0x8-0x813 (2059)
     |                                               |                |    [0]{}: section 0x8-0x62 (90)
0x000|                        01                     |        .       |      id: "type_section" (1) 0x8-0x9 (1)
0x000|                           58                  |         X      |      size: 88 (valid) 0x9-0xa (1)
     |                                               |                |      content{}: 0xa-0x62 (88)
     |                                               |                |        ft{}: 0xa-0x62 (88)
0x000|                              10               |          .     |          n: 16 (valid) 0xa-0xb (1)
     |                                               |                |          x[0:16]: 0xb-0x62 (87)
     |                                               |                |            [0]{}: ft 0xb-0x12 (7)
0x000|                                 60            |           `    |              tag: 0x60 (valid) 0xb-0xc (1)
     |                                               |                |              rt1{}: 0xc-0x10 (4)
0x000|                                    03         |            .   |                n: 3 (valid) 0xc-0xd (1)
     |                                               |                |                x[0:3]: 0xd-0x10 (3)
0x000|                                       7f      |             .  |                  [0]: "i32" (0x7f) t 0xd-0xe (1)
0x000|                                          7f   |              . |                  [1]: "i32" (0x7f) t 0xe-0xf (1)
0x000|                                             7f|               .|                  [2]: "i32" (0x7f) t 0xf-0x10 (1)
     |                                               |                |              rt2{}: 0x10-0x12 (2)
0x010|01                                             |.               |                n: 1 (valid) 0x10-0x11 (1)
     |                                               |                |                x[0:1]: 0x11-0x12 (1)
0x010|   7f                                          | .              |                  [0]: "i32" (0x7f) t 0x11-0x12 (1)
     |                                               |                |            [1]{}: ft 0x12-0x16 (4)
0x010|      60                                       |  `             |              tag: 0x60 (valid) 0x12-0x13 (1)
     |                                               |                |              rt1{}: 0x13-0x14 (1)
0x010|         00                                    |   .            |                n: 0 (valid) 0x13-0x14 (1)
     |                                               |                |                x[0:0]: 0x14-0x14 (0)
     |                                               |                |              rt2{}: 0x14-0x16 (2)
0x010|            01                                 |    .           |                n: 1 (valid) 0x14-0x15 (1)
     |                                               |                |                x[0:1]: 0x15-0x16 (1)
0x010|               7f                              |     .          |                  [0]: "i32" (0x7f) t 0x15-0x16 (1)
     |                                               |                |            [2]{}: ft 0x16-0x1a (4)
0x010|                  60                           |      `         |              tag: 0x60 (valid) 0x16-0x17 (1)
     |                                               |                |              rt1{}: 0x17-0x18 (1)
0x010|                     00                        |       .        |                n: 0 (valid) 0x17-0x18 (1)
     |                                               |                |                x[0:0]: 0x18-0x18 (0)
     |                                               |                |              rt2{}: 0x18-0x1a (2)
0x010|                        01                     |        .       |                n: 1 (valid) 0x18-0x19 (1)
     |                                               |                |                x[0:1]: 0x19-0x1a (1)
0x010|                           7e                  |         ~      |                  [0]: "i64" (0x7e) t 0x19-0x1a (1)
     |                                               |                |            [3]{}: ft 0x1a-0x1e (4)
0x010|                              60               |          `     |              tag: 0x60 (valid) 0x1a-0x1b (1)
     |                                               |                |              rt1{}: 0x1b-0x1c (1)
0x010|                                 00            |           .    |                n: 0 (valid) 0x1b-0x1c (1)
     |                                               |                |                x[0:0]: 0x1c-0x1c (0)
     |                                               |                |              rt2{}: 0x1c-0x1e (2)
0x010|                                    01         |            .   |                n: 1 (valid) 0x1c-0x1d (1)
     |                                               |                |                x[0:1]: 0x1d-0x1e (1)
0x010|                                       7d      |             }  |                  [0]: "f32" (0x7d) t 0x1d-0x1e (1)
     |                                               |                |            [4]{}: ft 0x1e-0x22 (4)
0x010|                                          60   |              ` |              tag: 0x60 (valid) 0x1e-0x1f (1)
     |                                               |                |              rt1{}: 0x1f-0x20 (1)
0x010|                                             00|               .|                n: 0 (valid) 0x1f-0x20 (1)
     |                                               |                |                x[0:0]: 0x20-0x20 (0)
     |                                               |                |              rt2{}: 0x20-0x22 (2)
0x020|01                                             |.               |                n: 1 (valid) 0x20-0x21 (1)
     |                                               |                |                x[0:1]: 0x21-0x22 (1)
0x020|   7c                                          | |              |                  [0]: "f64" (0x7c) t 0x21-0x22 (1)
     |                                               |                |            [5]{}: ft 0x22-0x27 (5)
0x020|      60                                       |  `             |              tag: 0x60 (valid) 0x22-0x23 (1)
     |                                               |                |              rt1{}: 0x23-0x25 (2)
0x020|         01                                    |   .            |                n: 1 (valid) 0x23-0x24 (1)
     |                                               |                |                x[0:1]: 0x24-0x25 (1)
0x020|            7f                                 |    .           |                  [0]: "i32" (0x7f) t 0x24-0x25 (1)
     |                                               |                |              rt2{}: 0x25-0x27 (2)
0x020|               01                              |     .          |                n: 1 (valid) 0x25-0x26 (1)
     |                                               |                |                x[0:1]: 0x26-0x27 (1)
0x020|                  7f                           |      .         |                  [0]: "i32" (0x7f) t 0x26-0x27 (1)
     |                                               |                |            [6]{}: ft 0x27-0x2c (5)
0x020|                     60                        |       `        |              tag: 0x60 (valid) 0x27-0x28 (1)
     |                                               |                |              rt1{}: 0x28-0x2a (2)
0x020|                        01                     |        .       |                n: 1 (valid) 0x28-0x29 (1)
     |                                               |                |                x[0:1]: 0x29-0x2a (1)
0x020|                           7e                  |         ~      |                  [0]: "i64" (0x7e) t 0x29-0x2a (1)
     |                                               |                |              rt2{}: 0x2a-0x2c (2)
0x020|                              01               |          .     |                n: 1 (valid) 0x2a-0x2b (1)
     |                                               |                |                x[0:1]: 0x2b-0x2c (1)
0x020|                                 7e            |           ~    |                  [0]: "i64" (0x7e) t 0x2b-0x2c (1)
     |                                               |                |            [7]{}: ft 0x2c-0x31 (5)
0x020|                                    60         |            `   |              tag: 0x60 (valid) 0x2c-0x2d (1)
     |                                               |                |              rt1{}: 0x2d-0x2f (2)
0x020|                                       01      |             .  |                n: 1 (valid) 0x2d-0x2e (1)
     |                                               |                |                x[0:1]: 0x2e-0x2f (1)
0x020|                                          7d   |              } |                  [0]: "f32" (0x7d) t 0x2e-0x2f (1)
     |                                               |                |              rt2{}: 0x2f-0x31 (2)
0x020|                                             01|               .|                n: 1 (valid) 0x2f-0x30 (1)
     |                                               |                |                x[0:1]: 0x30-0x31 (1)
0x030|7d                                             |}               |                  [0]: "f32" (0x7d) t 0x30-0x31 (1)
     |                                               |                |            [8]{}: ft 0x31-0x36 (5)
0x030|   60                                          | `              |              tag: 0x60 (valid) 0x31-0x32 (1)
     |                                               |                |              rt1{}: 0x32-0x34 (2)
0x030|      01                                       |  .             |                n: 1 (valid) 0x32-0x33 (1)
     |                                               |                |                x[0:1]: 0x33-0x34 (1)
0x030|         7c                                    |   |            |                  [0]: "f64" (0x7c) t 0x33-0x34 (1)
     |                                               |                |              rt2{}: 0x34-0x36 (2)
0x030|            01                                 |    .           |                n: 1 (valid) 0x34-0x35 (1)
     |                                               |                |                x[0:1]: 0x35-0x36 (1)
0x030|               7c                              |     |          |                  [0]: "f64" (0x7c) t 0x35-0x36 (1)
     |                                               |                |            [9]{}: ft 0x36-0x3e (8)
0x030|                  60                           |      `         |              tag: 0x60 (valid) 0x36-0x37 (1)
     |                                               |                |              rt1{}: 0x37-0x3d (6)
0x030|                     05                        |       .        |                n: 5 (valid) 0x37-0x38 (1)
     |                                               |                |                x[0:5]: 0x38-0x3d (5)
0x030|                        7e                     |        ~       |                  [0]: "i64" (0x7e) t 0x38-0x39 (1)
0x030|                           7d                  |         }      |                  [1]: "f32" (0x7d) t 0x39-0x3a (1)
0x030|                              7c               |          |     |                  [2]: "f64" (0x7c) t 0x3a-0x3b (1)
0x030|                                 7f            |           .    |                  [3]: "i32" (0x7f) t 0x3b-0x3c (1)
0x030|                                    7f         |            .   |                  [4]: "i32" (0x7f) t 0x3c-0x3d (1)
     |                                               |                |              rt2{}: 0x3d-0x3e (1)
0x030|                                       00      |             .  |                n: 0 (valid) 0x3d-0x3e (1)
     |                                               |                |                x[0:0]: 0x3e-0x3e (0)
     |                                               |                |            [10]{}: ft 0x3e-0x47 (9)
0x030|                                          60   |              ` |              tag: 0x60 (valid) 0x3e-0x3f (1)
     |                                               |                |              rt1{}: 0x3f-0x45 (6)
0x030|                                             05|               .|                n: 5 (valid) 0x3f-0x40 (1)
     |                                               |                |                x[0:5]: 0x40-0x45 (5)
0x040|7e                                             |~               |                  [0]: "i64" (0x7e) t 0x40-0x41 (1)
0x040|   7d                                          | }              |                  [1]: "f32" (0x7d) t 0x41-0x42 (1)
0x040|      7c                                       |  |             |                  [2]: "f64" (0x7c) t 0x42-0x43 (1)
0x040|         7f                                    |   .            |                  [3]: "i32" (0x7f) t 0x43-0x44 (1)
0x040|            7f                                 |    .           |                  [4]: "i32" (0x7f) t 0x44-0x45 (1)
     |                                               |                |              rt2{}: 0x45-0x47 (2)
0x040|               01                              |     .          |                n: 1 (valid) 0x45-0x46 (1)
     |                                               |                |                x[0:1]: 0x46-0x47 (1)
0x040|                  7e                           |      ~         |                  [0]: "i64" (0x7e) t 0x46-0x47 (1)
     |                                               |                |            [11]{}: ft 0x47-0x50 (9)
0x040|                     60                        |       `        |              tag: 0x60 (valid) 0x47-0x48 (1)
     |                                               |                |              rt1{}: 0x48-0x4e (6)
0x040|                        05                     |        .       |                n: 5 (valid) 0x48-0x49 (1)
     |                                               |                |                x[0:5]: 0x49-0x4e (5)
0x040|                           7e                  |         ~      |                  [0]: "i64" (0x7e) t 0x49-0x4a (1)
0x040|                              7d               |          }     |                  [1]: "f32" (0x7d) t 0x4a-0x4b (1)
0x040|                                 7c            |           |    |                  [2]: "f64" (0x7c) t 0x4b-0x4c (1)
0x040|                                    7f         |            .   |                  [3]: "i32" (0x7f) t 0x4c-0x4d (1)
0x040|                                       7f      |             .  |                  [4]: "i32" (0x7f) t 0x4d-0x4e (1)
     |                                               |                |              rt2{}: 0x4e-0x50 (2)
0x040|                                          01   |              . |                n: 1 (valid) 0x4e-0x4f (1)
     |                                               |                |                x[0:1]: 0x4f-0x50 (1)
0x040|                                             7c|               ||                  [0]: "f64" (0x7c) t 0x4f-0x50 (1)
     |                                               |                |            [12]{}: ft 0x50-0x53 (3)
0x050|60                                             |`               |              tag: 0x60 (valid) 0x50-0x51 (1)
     |                                               |                |              rt1{}: 0x51-0x52 (1)
0x050|   00                                          | .              |                n: 0 (valid) 0x51-0x52 (1)
     |                                               |                |                x[0:0]: 0x52-0x52 (0)
     |                                               |                |              rt2{}: 0x52-0x53 (1)
0x050|      00                                       |  .             |                n: 0 (valid) 0x52-0x53 (1)
     |                                               |                |                x[0:0]: 0x53-0x53 (0)
     |                                               |                |            [13]{}: ft 0x53-0x57 (4)
0x050|         60                                    |   `            |              tag: 0x60 (valid) 0x53-0x54 (1)
     |                                               |                |              rt1{}: 0x54-0x56 (2)
0x050|            01                                 |    .           |                n: 1 (valid) 0x54-0x55 (1)
     |                                               |                |                x[0:1]: 0x55-0x56 (1)
0x050|               7f                              |     .          |                  [0]: "i32" (0x7f) t 0x55-0x56 (1)
     |                                               |                |              rt2{}: 0x56-0x57 (1)
0x050|                  00                           |      .         |                n: 0 (valid) 0x56-0x57 (1)
     |                                               |                |                x[0:0]: 0x57-0x57 (0)
     |                                               |                |            [14]{}: ft 0x57-0x5d (6)
0x050|                     60                        |       `        |              tag: 0x60 (valid) 0x57-0x58 (1)
     |                                               |                |              rt1{}: 0x58-0x5b (3)
0x050|                        02                     |        .       |                n: 2 (valid) 0x58-0x59 (1)
     |                                               |                |                x[0:2]: 0x59-0x5b (2)
0x050|                           7f                  |         .      |                  [0]: "i32" (0x7f) t 0x59-0x5a (1)
0x050|                              7f               |          .     |                  [1]: "i32" (0x7f) t 0x5a-0x5b (1)
     |                                               |                |              rt2{}: 0x5b-0x5d (2)
0x050|                                 01            |           .    |                n: 1 (valid) 0x5b-0x5c (1)
     |                                               |                |                x[0:1]: 0x5c-0x5d (1)
0x050|                                    7f         |            .   |                  [0]: "i32" (0x7f) t 0x5c-0x5d (1)
     |                                               |                |            [15]{}: ft 0x5d-0x62 (5)
0x050|                                       60      |             `  |              tag: 0x60 (valid) 0x5d-0x5e (1)
     |                                               |                |              rt1{}: 0x5e-0x60 (2)
0x050|                                          01   |              . |                n: 1 (valid) 0x5e-0x5f (1)
     |                                               |                |                x[0:1]: 0x5f-0x60 (1)
0x050|                                             7e|               ~|                  [0]: "i64" (0x7e) t 0x5f-0x60 (1)
     |                                               |                |              rt2{}: 0x60-0x62 (2)
0x060|01                                             |.               |                n: 1 (valid) 0x60-0x61 (1)
     |                                               |                |                x[0:1]: 0x61-0x62 (1)
0x060|   7f                                          | .              |                  [0]: "i32" (0x7f) t 0x61-0x62 (1)
     |                                               |                |    [1]{}: section 0x62-0x9e (60)
0x060|      03                                       |  .             |      id: "function_section" (3) 0x62-0x63 (1)
0x060|         3a                                    |   :            |      size: 58 (valid) 0x63-0x64 (1)
     |                                               |                |      content{}: 0x64-0x9e (58)
     |                                               |                |        x{}: 0x64-0x9e (58)
0x060|            39                                 |    9           |          n: 57 (valid) 0x64-0x65 (1)
     |                                               |                |          x[0:57]: 0x65-0x9e (57)
0x060|               01                              |     .          |            [0]: 1 x (valid) 0x65-0x66 (1)
0x060|                  02                           |      .         |            [1]: 2 x (valid) 0x66-0x67 (1)
0x060|                     03                        |       .        |            [2]: 3 x (valid) 0x67-0x68 (1)
0x060|                        04                     |        .       |            [3]: 4 x (valid) 0x68-0x69 (1)
0x060|                           05                  |         .      |            [4]: 5 x (valid) 0x69-0x6a (1)
0x060|                              06               |          .     |            [5]: 6 x (valid) 0x6a-0x6b (1)
0x060|                                 07            |           .    |            [6]: 7 x (valid) 0x6b-0x6c (1)
0x060|                                    08         |            .   |            [7]: 8 x (valid) 0x6c-0x6d (1)
0x060|                                       09      |             .  |            [8]: 9 x (valid) 0x6d-0x6e (1)
0x060|                                          0a   |              . |            [9]: 10 x (valid) 0x6e-0x6f (1)
0x060|                                             0b|               .|            [10]: 11 x (valid) 0x6f-0x70 (1)
0x070|0c                                             |.               |            [11]: 12 x (valid) 0x70-0x71 (1)
0x070|   05                                          | .              |            [12]: 5 x (valid) 0x71-0x72 (1)
0x070|      05                                       |  .             |            [13]: 5 x (valid) 0x72-0x73 (1)
0x070|         05                                    |   .            |            [14]: 5 x (valid) 0x73-0x74 (1)
0x070|            05                                 |    .           |            [15]: 5 x (valid) 0x74-0x75 (1)
0x070|               05                              |     .          |            [16]: 5 x (valid) 0x75-0x76 (1)
0x070|                  05                           |      .         |            [17]: 5 x (valid) 0x76-0x77 (1)
0x070|                     05                        |       .        |            [18]: 5 x (valid) 0x77-0x78 (1)
0x070|                        0d                     |        .       |            [19]: 13 x (valid) 0x78-0x79 (1)
0x070|                           05                  |         .      |            [20]: 5 x (valid) 0x79-0x7a (1)
0x070|                              05               |          .     |            [21]: 5 x (valid) 0x7a-0x7b (1)
0x070|                                 0d            |           .    |            [22]: 13 x (valid) 0x7b-0x7c (1)
0x070|                                    05         |            .   |            [23]: 5 x (valid) 0x7c-0x7d (1)
0x070|                                       05      |             .  |            [24]: 5 x (valid) 0x7d-0x7e (1)
0x070|                                          05   |              . |            [25]: 5 x (valid) 0x7e-0x7f (1)
0x070|                                             05|               .|            [26]: 5 x (valid) 0x7f-0x80 (1)
0x080|05                                             |.               |            [27]: 5 x (valid) 0x80-0x81 (1)
0x080|   05                                          | .              |            [28]: 5 x (valid) 0x81-0x82 (1)
0x080|      0e                                       |  .             |            [29]: 14 x (valid) 0x82-0x83 (1)
0x080|         0e                                    |   .            |            [30]: 14 x (valid) 0x83-0x84 (1)
0x080|            05                                 |    .           |            [31]: 5 x (valid) 0x84-0x85 (1)
0x080|               00                              |     .          |            [32]: 0 x (valid) 0x85-0x86 (1)
0x080|                  05                           |      .         |            [33]: 5 x (valid) 0x86-0x87 (1)
0x080|                     05                        |       .        |            [34]: 5 x (valid) 0x87-0x88 (1)
0x080|                        05                     |        .       |            [35]: 5 x (valid) 0x88-0x89 (1)
0x080|                           05                  |         .      |            [36]: 5 x (valid) 0x89-0x8a (1)
0x080|                              05               |          .     |            [37]: 5 x (valid) 0x8a-0x8b (1)
0x080|                                 05            |           .    |            [38]: 5 x (valid) 0x8b-0x8c (1)
0x080|                                    05         |            .   |            [39]: 5 x (valid) 0x8c-0x8d (1)
0x080|                                       0c      |             .  |            [40]: 12 x (valid) 0x8d-0x8e (1)
0x080|                                          05   |              . |            [41]: 5 x (valid) 0x8e-0x8f (1)
0x080|                                             0c|               .|            [42]: 12 x (valid) 0x8f-0x90 (1)
0x090|05                                             |.               |            [43]: 5 x (valid) 0x90-0x91 (1)
0x090|   05                                          | .              |            [44]: 5 x (valid) 0x91-0x92 (1)
0x090|      0d                                       |  .             |            [45]: 13 x (valid) 0x92-0x93 (1)
0x090|         0d                                    |   .            |            [46]: 13 x (valid) 0x93-0x94 (1)
0x090|            0d                                 |    .           |            [47]: 13 x (valid) 0x94-0x95 (1)
0x090|               0d                              |     .          |            [48]: 13 x (valid) 0x95-0x96 (1)
0x090|                  07                           |      .         |            [49]: 7 x (valid) 0x96-0x97 (1)
0x090|                     05                        |       .        |            [50]: 5 x (valid) 0x97-0x98 (1)
0x090|                        05                     |        .       |            [51]: 5 x (valid) 0x98-0x99 (1)
0x090|                           05                  |         .      |            [52]: 5 x (valid) 0x99-0x9a (1)
0x090|                              05               |          .     |            [53]: 5 x (valid) 0x9a-0x9b (1)
0x090|                                 05            |           .    |            [54]: 5 x (valid) 0x9b-0x9c (1)
0x090|                                    0f         |            .   |            [55]: 15 x (valid) 0x9c-0x9d (1)
0x090|                                       05      |             .  |            [56]: 5 x (valid) 0x9d-0x9e (1)
     |                                               |                |    [2]{}: section 0x9e-0xa5 (7)
0x090|                                          04   |              . |      id: "table_section" (4) 0x9e-0x9f (1)
0x090|                                             05|               .|      size: 5 (valid) 0x9f-0xa0 (1)
     |                                               |                |      content{}: 0xa0-0xa5 (5)
     |                                               |                |        tab{}: 0xa0-0xa5 (5)
0x0a0|01                                             |.               |          n: 1 (valid) 0xa0-0xa1 (1)
     |                                               |                |          x[0:1]: 0xa1-0xa5 (4)
     |                                               |                |            [0]{}: tab 0xa1-0xa5 (4)
0x0a0|   70                                          | p              |              et: "funcref" (112) 0xa1-0xa2 (1)
     |                                               |                |              lim{}: 0xa2-0xa5 (3)
0x0a0|      01                                       |  .             |                tag: 0x1 0xa2-0xa3 (1)
0x0a0|         01                                    |   .            |                n: 1 (valid) 0xa3-0xa4 (1)
0x0a0|            01                                 |    .           |                m: 1 (valid) 0xa4-0xa5 (1)
     |                                               |                |    [3]{}: section 0xa5-0xaa (5)
0x0a0|               05                              |     .          |      id: "memory_section" (5) 0xa5-0xa6 (1)
0x0a0|                  03                           |      .         |      size: 3 (valid) 0xa6-0xa7 (1)
     |                                               |                |      content{}: 0xa7-0xaa (3)
     |                                               |                |        mem{}: 0xa7-0xaa (3)
0x0a0|                     01                        |       .        |          n: 1 (valid) 0xa7-0xa8 (1)
     |                                               |                |          x[0:1]: 0xa8-0xaa (2)
     |                                               |                |            [0]{}: mem 0xa8-0xaa (2)
     |                                               |                |              lim{}: 0xa8-0xaa (2)
0x0a0|                        00                     |        .       |                tag: 0x0 0xa8-0xa9 (1)
0x0a0|                           01                  |         .      |                n: 1 (valid) 0xa9-0xaa (1)
     |                                               |                |    [4]{}: section 0xaa-0xb2 (8)
0x0a0|                              06               |          .     |      id: "global_section" (6) 0xaa-0xab (1)
0x0a0|                                 06            |           .    |      size: 6 (valid) 0xab-0xac (1)
     |                                               |                |      content{}: 0xac-0xb2 (6)
     |                                               |                |        glob{}: 0xac-0xb2 (6)
0x0a0|                                    01         |            .   |          n: 1 (valid) 0xac-0xad (1)
     |                                               |                |          x[0:1]: 0xad-0xb2 (5)
     |                                               |                |            [0]{}: glob 0xad-0xb2 (5)
     |                                               |                |              gt{}: 0xad-0xaf (2)
0x0a0|                                       7f      |             .  |                t: "i32" (0x7f) 0xad-0xae (1)
0x0a0|                                          01   |              . |                m: "var" (1) 0xae-0xaf (1)
     |                                               |                |              e[0:2]: 0xaf-0xb2 (3)
     |                                               |                |                [0]{}: in 0xaf-0xb1 (2)
0x0a0|                                             41|               A|                  opcode: "i32.const" (0x41) 0xaf-0xb0 (1)
0x0b0|00                                             |.               |                  n: 0 (valid) 0xb0-0xb1 (1)
     |                                               |                |                [1]{}: in 0xb1-0xb2 (1)
0x0b0|   0b                                          | .              |                  opcode: "end" (0xb) 0xb1-0xb2 (1)
     |                                               |                |    [5]{}: section 0xb2-0x484 (978)
0x0b0|      07                                       |  .             |      id: "export_section" (7) 0xb2-0xb3 (1)
0x0b0|         cf 07                                 |   ..           |      size: 975 (valid) 0xb3-0xb5 (2)
     |                                               |                |      content{}: 0xb5-0x484 (975)
     |                                               |                |        ex{}: 0xb5-0x484 (975)
0x0b0|               37                              |     7          |          n: 55 (valid) 0xb5-0xb6 (1)
     |                                               |                |          x[0:55]: 0xb6-0x484 (974)
     |                                               |                |            [0]{}: ex 0xb6-0xc7 (17)
     |                                               |                |              nm{}: 0xb6-0xc5 (15)
0x0b0|                  0e                           |      .         |                n: 14 (valid) 0xb6-0xb7 (1)
0x0b0|                     74 79 70 65 2d 6c 6f 63 61|       type-loca|                b: "type-local-i32" 0xb7-0xc5 (14)
0x0c0|6c 2d 69 33 32                                 |l-i32           |
     |                                               |                |              d{}: 0xc5-0xc7 (2)
0x0c0|               00                              |     .          |                tag: "funcidx" (0x0) 0xc5-0xc6 (1)
0x0c0|                  00                           |      .         |                x: 0 (valid) 0xc6-0xc7 (1)
     |                                               |                |            [1]{}: ex 0xc7-0xd8 (17)
     |                                               |                |              nm{}: 0xc7-0xd6 (15)
0x0c0|                     0e                        |       .        |                n: 14 (valid) 0xc7-0xc8 (1)
0x0c0|                        74 79 70 65 2d 6c 6f 63|        type-loc|                b: "type-local-i64" 0xc8-0xd6 (14)
0x0d0|61 6c 2d 69 36 34                              |al-i64          |
     |                                               |                |              d{}: 0xd6-0xd8 (2)
0x0d0|                  00                           |      .         |                tag: "funcidx" (0x0) 0xd6-0xd7 (1)
0x0d0|                     01                        |       .        |                x: 1 (valid) 0xd7-0xd8 (1)
     |                                               |                |            [2]{}: ex 0xd8-0xe9 (17)
     |                                               |                |              nm{}: 0xd8-0xe7 (15)
0x0d0|                        0e                     |        .       |                n: 14 (valid) 0xd8-0xd9 (1)
0x0d0|                           74 79 70 65 2d 6c 6f|         type-lo|                b: "type-local-f32" 0xd9-0xe7 (14)
0x0e0|63 61 6c 2d 66 33 32                           |cal-f32         |
     |                                               |                |              d{}: 0xe7-0xe9 (2)
0x0e0|                     00                        |       .        |                tag: "funcidx" (0x0) 0xe7-0xe8 (1)
0x0e0|                        02                     |        .       |                x: 2 (valid) 0xe8-0xe9 (1)
     |                                               |                |            [3]{}: ex 0xe9-0xfa (17)
     |                                               |                |              nm{}: 0xe9-0xf8 (15)
0x0e0|                           0e                  |         .      |                n: 14 (valid) 0xe9-0xea (1)
0x0e0|                              74 79 70 65 2d 6c|          type-l|                b: "type-local-f64" 0xea-0xf8 (14)
0x0f0|6f 63 61 6c 2d 66 36 34                        |ocal-f64        |
     |                                               |                |              d{}: 0xf8-0xfa (2)
0x0f0|                        00                     |        .       |                tag: "funcidx" (0x0) 0xf8-0xf9 (1)
0x0f0|                           03                  |         .      |                x: 3 (valid) 0xf9-0xfa (1)
     |                                               |                |            [4]{}: ex 0xfa-0x10b (17)
     |                                               |                |              nm{}: 0xfa-0x109 (15)
0x0f0|                              0e               |          .     |                n: 14 (valid) 0xfa-0xfb (1)
0x0f0|                                 74 79 70 65 2d|           type-|                b: "type-param-i32" 0xfb-0x109 (14)
0x100|70 61 72 61 6d 2d 69 33 32                     |param-i32       |
     |                                               |                |              d{}: 0x109-0x10b (2)
0x100|                           00                  |         .      |                tag: "funcidx" (0x0) 0x109-0x10a (1)
0x100|                              04               |          .     |                x: 4 (valid) 0x10a-0x10b (1)
     |                                               |                |            [5]{}: ex 0x10b-0x11c (17)
     |                                               |                |              nm{}: 0x10b-0x11a (15)
0x100|                                 0e            |           .    |                n: 14 (valid) 0x10b-0x10c (1)
0x100|                                    74 79 70 65|            type|                b: "type-param-i64" 0x10c-0x11a (14)
0x110|2d 70 61 72 61 6d 2d 69 36 34                  |-param-i64      |
     |                                               |                |              d{}: 0x11a-0x11c (2)
0x110|                              00               |          .     |                tag: "funcidx" (0x0) 0x11a-0x11b (1)
0x110|                                 05            |           .    |                x: 5 (valid) 0x11b-0x11c (1)
     |                                               |                |            [6]{}: ex 0x11c-0x12d (17)
     |                                               |                |              nm{}: 0x11c-0x12b (15)
0x110|                                    0e         |            .   |                n: 14 (valid) 0x11c-0x11d (1)
0x110|                                       74 79 70|             typ|                b: "type-param-f32" 0x11d-0x12b (14)
0x120|65 2d 70 61 72 61 6d 2d 66 33 32               |e-param-f32     |
     |                                               |                |              d{}: 0x12b-0x12d (2)
0x120|                                 00            |           .    |                tag: "funcidx" (0x0) 0x12b-0x12c (1)
0x120|                                    06         |            .   |                x: 6 (valid) 0x12c-0x12d (1)
     |                                               |                |            [7]{}: ex 0x12d-0x13e (17)
     |                                               |                |              nm{}: 0x12d-0x13c (15)
0x120|                                       0e      |             .  |                n: 14 (valid) 0x12d-0x12e (1)
0x120|                                          74 79|              ty|                b: "type-param-f64" 0x12e-0x13c (14)
0x130|70 65 2d 70 61 72 61 6d 2d 66 36 34            |pe-param-f64    |
     |                                               |                |              d{}: 0x13c-0x13e (2)
0x130|                                    00         |            .   |                tag: "funcidx" (0x0) 0x13c-0x13d (1)
0x130|                                       07      |             .  |                x: 7 (valid) 0x13d-0x13e (1)
     |                                               |                |            [8]{}: ex 0x13e-0x14b (13)
     |                                               |                |              nm{}: 0x13e-0x149 (11)
0x130|                                          0a   |              . |                n: 10 (valid) 0x13e-0x13f (1)
0x130|                                             74|               t|                b: "type-mixed" 0x13f-0x149 (10)
0x140|79 70 65 2d 6d 69 78 65 64                     |ype-mixed       |
     |                                               |                |              d{}: 0x149-0x14b (2)
0x140|                           00                  |         .      |                tag: "funcidx" (0x0) 0x149-0x14a (1)
0x140|                              08               |          .     |                x: 8 (valid) 0x14a-0x14b (1)
     |                                               |                |            [9]{}: ex 0x14b-0x153 (8)
     |                                               |                |              nm{}: 0x14b-0x151 (6)
0x140|                                 05            |           .    |                n: 5 (valid) 0x14b-0x14c (1)
0x140|                                    77 72 69 74|            writ|                b: "write" 0x14c-0x151 (5)
0x150|65                                             |e               |
     |                                               |                |              d{}: 0x151-0x153 (2)
0x150|   00                                          | .              |                tag: "funcidx" (0x0) 0x151-0x152 (1)
0x150|      09                                       |  .             |                x: 9 (valid) 0x152-0x153 (1)
     |                                               |                |            [10]{}: ex 0x153-0x15c (9)
     |                                               |                |              nm{}: 0x153-0x15a (7)
0x150|         06                                    |   .            |                n: 6 (valid) 0x153-0x154 (1)
0x150|            72 65 73 75 6c 74                  |    result      |                b: "result" 0x154-0x15a (6)
     |                                               |                |              d{}: 0x15a-0x15c (2)
0x150|                              00               |          .     |                tag: "funcidx" (0x0) 0x15a-0x15b (1)
0x150|                                 0a            |           .    |                x: 10 (valid) 0x15b-0x15c (1)
     |                                               |                |            [11]{}: ex 0x15c-0x16d (17)
     |                                               |                |              nm{}: 0x15c-0x16b (15)
0x150|                                    0e         |            .   |                n: 14 (valid) 0x15c-0x15d (1)
0x150|                                       61 73 2d|             as-|                b: "as-block-first" 0x15d-0x16b (14)
0x160|62 6c 6f 63 6b 2d 66 69 72 73 74               |block-first     |
     |                                               |                |              d{}: 0x16b-0x16d (2)
0x160|                                 00            |           .    |                tag: "funcidx" (0x0) 0x16b-0x16c (1)
0x160|                                    0c         |            .   |                x: 12 (valid) 0x16c-0x16d (1)
     |                                               |                |            [12]{}: ex 0x16d-0x17c (15)
     |                                               |                |              nm{}: 0x16d-0x17a (13)
0x160|                                       0c      |             .  |                n: 12 (valid) 0x16d-0x16e (1)
0x160|                                          61 73|              as|                b: "as-block-mid" 0x16e-0x17a (12)
0x170|2d 62 6c 6f 63 6b 2d 6d 69 64                  |-block-mid      |
     |                                               |                |              d{}: 0x17a-0x17c (2)
0x170|                              00               |          .     |                tag: "funcidx" (0x0) 0x17a-0x17b (1)
0x170|                                 0d            |           .    |                x: 13 (valid) 0x17b-0x17c (1)
     |                                               |                |            [13]{}: ex 0x17c-0x18c (16)
     |                                               |                |              nm{}: 0x17c-0x18a (14)
0x170|                                    0d         |            .   |                n: 13 (valid) 0x17c-0x17d (1)
0x170|                                       61 73 2d|             as-|                b: "as-block-last" 0x17d-0x18a (13)
0x180|62 6c 6f 63 6b 2d 6c 61 73 74                  |block-last      |
     |                                               |                |              d{}: 0x18a-0x18c (2)
0x180|                              00               |          .     |                tag: "funcidx" (0x0) 0x18a-0x18b (1)
0x180|                                 0e            |           .    |                x: 14 (valid) 0x18b-0x18c (1)
     |                                               |                |            [14]{}: ex 0x18c-0x19c (16)
     |                                               |                |              nm{}: 0x18c-0x19a (14)
0x180|                                    0d         |            .   |                n: 13 (valid) 0x18c-0x18d (1)
0x180|                                       61 73 2d|             as-|                b: "as-loop-first" 0x18d-0x19a (13)
0x190|6c 6f 6f 70 2d 66 69 72 73 74                  |loop-first      |
     |                                               |                |              d{}: 0x19a-0x19c (2)
0x190|                              00               |          .     |                tag: "funcidx" (0x0) 0x19a-0x19b (1)
0x190|                                 0f            |           .    |                x: 15 (valid) 0x19b-0x19c (1)
     |                                               |                |            [15]{}: ex 0x19c-0x1aa (14)
     |                                               |                |              nm{}: 0x19c-0x1a8 (12)
0x190|                                    0b         |            .   |                n: 11 (valid) 0x19c-0x19d (1)
0x190|                                       61 73 2d|             as-|                b: "as-loop-mid" 0x19d-0x1a8 (11)
0x1a0|6c 6f 6f 70 2d 6d 69 64                        |loop-mid        |
     |                                               |                |              d{}: 0x1a8-0x1aa (2)
0x1a0|                        00                     |        .       |                tag: "funcidx" (0x0) 0x1a8-0x1a9 (1)
0x1a0|                           10                  |         .      |                x: 16 (valid) 0x1a9-0x1aa (1)
     |                                               |                |            [16]{}: ex 0x1aa-0x1b9 (15)
     |                                               |                |              nm{}: 0x1aa-0x1b7 (13)
0x1a0|                              0c               |          .     |                n: 12 (valid) 0x1aa-0x1ab (1)
0x1a0|                                 61 73 2d 6c 6f|           as-lo|                b: "as-loop-last" 0x1ab-0x1b7 (12)
0x1b0|6f 70 2d 6c 61 73 74                           |op-last         |
     |                                               |                |              d{}: 0x1b7-0x1b9 (2)
0x1b0|                     00                        |       .        |                tag: "funcidx" (0x0) 0x1b7-0x1b8 (1)
0x1b0|                        11                     |        .       |                x: 17 (valid) 0x1b8-0x1b9 (1)
     |                                               |                |            [17]{}: ex 0x1b9-0x1c7 (14)
     |                                               |                |              nm{}: 0x1b9-0x1c5 (12)
0x1b0|                           0b                  |         .      |                n: 11 (valid) 0x1b9-0x1ba (1)
0x1b0|                              61 73 2d 62 72 2d|          as-br-|                b: "as-br-value" 0x1ba-0x1c5 (11)
0x1c0|76 61 6c 75 65                                 |value           |
     |                                               |                |              d{}: 0x1c5-0x1c7 (2)
0x1c0|               00                              |     .          |                tag: "funcidx" (0x0) 0x1c5-0x1c6 (1)
0x1c0|                  12                           |      .         |                x: 18 (valid) 0x1c6-0x1c7 (1)
     |                                               |                |            [18]{}: ex 0x1c7-0x1d7 (16)
     |                                               |                |              nm{}: 0x1c7-0x1d5 (14)
0x1c0|                     0d                        |       .        |                n: 13 (valid) 0x1c7-0x1c8 (1)
0x1c0|                        61 73 2d 62 72 5f 69 66|        as-br_if|                b: "as-br_if-cond" 0x1c8-0x1d5 (13)
0x1d0|2d 63 6f 6e 64                                 |-cond           |
     |                                               |                |              d{}: 0x1d5-0x1d7 (2)
0x1d0|               00                              |     .          |                tag: "funcidx" (0x0) 0x1d5-0x1d6 (1)
0x1d0|                  13                           |      .         |                x: 19 (valid) 0x1d6-0x1d7 (1)
     |                                               |                |            [19]{}: ex 0x1d7-0x1e8 (17)
     |                                               |                |              nm{}: 0x1d7-0x1e6 (15)
0x1d0|                     0e                        |       .        |                n: 14 (valid) 0x1d7-0x1d8 (1)
0x1d0|                        61 73 2d 62 72 5f 69 66|        as-br_if|                b: "as-br_if-value" 0x1d8-0x1e6 (14)
0x1e0|2d 76 61 6c 75 65                              |-value          |
     |                                               |                |              d{}: 0x1e6-0x1e8 (2)
0x1e0|                  00                           |      .         |                tag: "funcidx" (0x0) 0x1e6-0x1e7 (1)
0x1e0|                     14                        |       .        |                x: 20 (valid) 0x1e7-0x1e8 (1)
     |                                               |                |            [20]{}: ex 0x1e8-0x1fe (22)
     |                                               |                |              nm{}: 0x1e8-0x1fc (20)
0x1e0|                        13                     |        .       |                n: 19 (valid) 0x1e8-0x1e9 (1)
0x1e0|                           61 73 2d 62 72 5f 69|         as-br_i|                b: "as-br_if-value-cond" 0x1e9-0x1fc (19)
0x1f0|66 2d 76 61 6c 75 65 2d 63 6f 6e 64            |f-value-cond    |
     |                                               |                |              d{}: 0x1fc-0x1fe (2)
0x1f0|                                    00         |            .   |                tag: "funcidx" (0x0) 0x1fc-0x1fd (1)
0x1f0|                                       15      |             .  |                x: 21 (valid) 0x1fd-0x1fe (1)
     |                                               |                |            [21]{}: ex 0x1fe-0x212 (20)
     |                                               |                |              nm{}: 0x1fe-0x210 (18)
0x1f0|                                          11   |              . |                n: 17 (valid) 0x1fe-0x1ff (1)
0x1f0|                                             61|               a|                b: "as-br_table-index" 0x1ff-0x210 (17)
0x200|73 2d 62 72 5f 74 61 62 6c 65 2d 69 6e 64 65 78|s-br_table-index|
     |                                               |                |              d{}: 0x210-0x212 (2)
0x210|00                                             |.               |                tag: "funcidx" (0x0) 0x210-0x211 (1)
0x210|   16                                          | .              |                x: 22 (valid) 0x211-0x212 (1)
     |                                               |                |            [22]{}: ex 0x212-0x226 (20)
     |                                               |                |              nm{}: 0x212-0x224 (18)
0x210|      11                                       |  .             |                n: 17 (valid) 0x212-0x213 (1)
0x210|         61 73 2d 62 72 5f 74 61 62 6c 65 2d 76|   as-br_table-v|                b: "as-br_table-value" 0x213-0x224 (17)
0x220|61 6c 75 65                                    |alue            |
     |                                               |                |              d{}: 0x224-0x226 (2)
0x220|            00                                 |    .           |                tag: "funcidx" (0x0) 0x224-0x225 (1)
0x220|               17                              |     .          |                x: 23 (valid) 0x225-0x226 (1)
     |                                               |                |            [23]{}: ex 0x226-0x240 (26)
     |                                               |                |              nm{}: 0x226-0x23e (24)
0x220|                  17                           |      .         |                n: 23 (valid) 0x226-0x227 (1)
0x220|                     61 73 2d 62 72 5f 74 61 62|       as-br_tab|                b: "as-br_table-value-index" 0x227-0x23e (23)
0x230|6c 65 2d 76 61 6c 75 65 2d 69 6e 64 65 78      |le-value-index  |
     |                                               |                |              d{}: 0x23e-0x240 (2)
0x230|                                          00   |              . |                tag: "funcidx" (0x0) 0x23e-0x23f (1)
0x230|                                             18|               .|                x: 24 (valid) 0x23f-0x240 (1)
     |                                               |                |            [24]{}: ex 0x240-0x252 (18)
     |                                               |                |              nm{}: 0x240-0x250 (16)
0x240|0f                                             |.               |                n: 15 (valid) 0x240-0x241 (1)
0x240|   61 73 2d 72 65 74 75 72 6e 2d 76 61 6c 75 65| as-return-value|                b: "as-return-value" 0x241-0x250 (15)
     |                                               |                |              d{}: 0x250-0x252 (2)
0x250|00                                             |.               |                tag: "funcidx" (0x0) 0x250-0x251 (1)
0x250|   19                                          | .              |                x: 25 (valid) 0x251-0x252 (1)
     |                                               |                |            [25]{}: ex 0x252-0x25f (13)
     |                                               |                |              nm{}: 0x252-0x25d (11)
0x250|      0a                                       |  .             |                n: 10 (valid) 0x252-0x253 (1)
0x250|         61 73 2d 69 66 2d 63 6f 6e 64         |   as-if-cond   |                b: "as-if-cond" 0x253-0x25d (10)
     |                                               |                |              d{}: 0x25d-0x25f (2)
0x250|                                       00      |             .  |                tag: "funcidx" (0x0) 0x25d-0x25e (1)
0x250|                                          1a   |              . |                x: 26 (valid) 0x25e-0x25f (1)
     |                                               |                |            [26]{}: ex 0x25f-0x26c (13)
     |                                               |                |              nm{}: 0x25f-0x26a (11)
0x250|                                             0a|               .|                n: 10 (valid) 0x25f-0x260 (1)
0x260|61 73 2d 69 66 2d 74 68 65 6e                  |as-if-then      |                b: "as-if-then" 0x260-0x26a (10)
     |                                               |                |              d{}: 0x26a-0x26c (2)
0x260|                              00               |          .     |                tag: "funcidx" (0x0) 0x26a-0x26b (1)
0x260|                                 1b            |           .    |                x: 27 (valid) 0x26b-0x26c (1)
     |                                               |                |            [27]{}: ex 0x26c-0x279 (13)
     |                                               |                |              nm{}: 0x26c-0x277 (11)
0x260|                                    0a         |            .   |                n: 10 (valid) 0x26c-0x26d (1)
0x260|                                       61 73 2d|             as-|                b: "as-if-else" 0x26d-0x277 (10)
0x270|69 66 2d 65 6c 73 65                           |if-else         |
     |                                               |                |              d{}: 0x277-0x279 (2)
0x270|                     00                        |       .        |                tag: "funcidx" (0x0) 0x277-0x278 (1)
0x270|                        1c                     |        .       |                x: 28 (valid) 0x278-0x279 (1)
     |                                               |                |            [28]{}: ex 0x279-0x28b (18)
     |                                               |                |              nm{}: 0x279-0x289 (16)
0x270|                           0f                  |         .      |                n: 15 (valid) 0x279-0x27a (1)
0x270|                              61 73 2d 73 65 6c|          as-sel|                b: "as-select-first" 0x27a-0x289 (15)
0x280|65 63 74 2d 66 69 72 73 74                     |ect-first       |
     |                                               |                |              d{}: 0x289-0x28b (2)
0x280|                           00                  |         .      |                tag: "funcidx" (0x0) 0x289-0x28a (1)
0x280|                              1d               |          .     |                x: 29 (valid) 0x28a-0x28b (1)
     |                                               |                |            [29]{}: ex 0x28b-0x29e (19)
     |                                               |                |              nm{}: 0x28b-0x29c (17)
0x280|                                 10            |           .    |                n: 16 (valid) 0x28b-0x28c (1)
0x280|                                    61 73 2d 73|            as-s|                b: "as-select-second" 0x28c-0x29c (16)
0x290|65 6c 65 63 74 2d 73 65 63 6f 6e 64            |elect-second    |
     |                                               |                |              d{}: 0x29c-0x29e (2)
0x290|                                    00         |            .   |                tag: "funcidx" (0x0) 0x29c-0x29d (1)
0x290|                                       1e      |             .  |                x: 30 (valid) 0x29d-0x29e (1)
     |                                               |                |            [30]{}: ex 0x29e-0x2af (17)
     |                                               |                |              nm{}: 0x29e-0x2ad (15)
0x290|                                          0e   |              . |                n: 14 (valid) 0x29e-0x29f (1)
0x290|                                             61|               a|                b: "as-select-cond" 0x29f-0x2ad (14)
0x2a0|73 2d 73 65 6c 65 63 74 2d 63 6f 6e 64         |s-select-cond   |
     |                                               |                |              d{}: 0x2ad-0x2af (2)
0x2a0|                                       00      |             .  |                tag: "funcidx" (0x0) 0x2ad-0x2ae (1)
0x2a0|                                          1f   |              . |                x: 31 (valid) 0x2ae-0x2af (1)
     |                                               |                |            [31]{}: ex 0x2af-0x2bf (16)
     |                                               |                |              nm{}: 0x2af-0x2bd (14)
0x2a0|                                             0d|               .|                n: 13 (valid) 0x2af-0x2b0 (1)
0x2b0|61 73 2d 63 61 6c 6c 2d 66 69 72 73 74         |as-call-first   |                b: "as-call-first" 0x2b0-0x2bd (13)
     |                                               |                |              d{}: 0x2bd-0x2bf (2)
0x2b0|                                       00      |             .  |                tag: "funcidx" (0x0) 0x2bd-0x2be (1)
0x2b0|                                          21   |              ! |                x: 33 (valid) 0x2be-0x2bf (1)
     |                                               |                |            [32]{}: ex 0x2bf-0x2cd (14)
     |                                               |                |              nm{}: 0x2bf-0x2cb (12)
0x2b0|                                             0b|               .|                n: 11 (valid) 0x2bf-0x2c0 (1)
0x2c0|61 73 2d 63 61 6c 6c 2d 6d 69 64               |as-call-mid     |                b: "as-call-mid" 0x2c0-0x2cb (11)
     |                                               |                |              d{}: 0x2cb-0x2cd (2)
0x2c0|                                 00            |           .    |                tag: "funcidx" (0x0) 0x2cb-0x2cc (1)
0x2c0|                                    22         |            "   |                x: 34 (valid) 0x2cc-0x2cd (1)
     |                                               |                |            [33]{}: ex 0x2cd-0x2dc (15)
     |                                               |                |              nm{}: 0x2cd-0x2da (13)
0x2c0|                                       0c      |             .  |                n: 12 (valid) 0x2cd-0x2ce (1)
0x2c0|                                          61 73|              as|                b: "as-call-last" 0x2ce-0x2da (12)
0x2d0|2d 63 61 6c 6c 2d 6c 61 73 74                  |-call-last      |
     |                                               |                |              d{}: 0x2da-0x2dc (2)
0x2d0|                              00               |          .     |                tag: "funcidx" (0x0) 0x2da-0x2db (1)
0x2d0|                                 23            |           #    |                x: 35 (valid) 0x2db-0x2dc (1)
     |                                               |                |            [34]{}: ex 0x2dc-0x2f5 (25)
     |                                               |                |              nm{}: 0x2dc-0x2f3 (23)
0x2d0|                                    16         |            .   |                n: 22 (valid) 0x2dc-0x2dd (1)
0x2d0|                                       61 73 2d|             as-|                b: "as-call_indirect-first" 0x2dd-0x2f3 (22)
0x2e0|63 61 6c 6c 5f 69 6e 64 69 72 65 63 74 2d 66 69|call_indirect-fi|
0x2f0|72 73 74                                       |rst             |
     |                                               |                |              d{}: 0x2f3-0x2f5 (2)
0x2f0|         00                                    |   .            |                tag: "funcidx" (0x0) 0x2f3-0x2f4 (1)
0x2f0|            24                                 |    $           |                x: 36 (valid) 0x2f4-0x2f5 (1)
     |                                               |                |            [35]{}: ex 0x2f5-0x30c (23)
     |                                               |                |              nm{}: 0x2f5-0x30a (21)
0x2f0|               14                              |     .          |                n: 20 (valid) 0x2f5-0x2f6 (1)
0x2f0|                  61 73 2d 63 61 6c 6c 5f 69 6e|      as-call_in|                b: "as-call_indirect-mid" 0x2f6-0x30a (20)
0x300|64 69 72 65 63 74 2d 6d 69 64                  |direct-mid      |
     |                                               |                |              d{}: 0x30a-0x30c (2)
0x300|                              00               |          .     |                tag: "funcidx" (0x0) 0x30a-0x30b (1)
0x300|                                 25            |           %    |                x: 37 (valid) 0x30b-0x30c (1)
     |                                               |                |            [36]{}: ex 0x30c-0x324 (24)
     |                                               |                |              nm{}: 0x30c-0x322 (22)
0x300|                                    15         |            .   |                n: 21 (valid) 0x30c-0x30d (1)
0x300|                                       61 73 2d|             as-|                b: "as-call_indirect-last" 0x30d-0x322 (21)
0x310|63 61 6c 6c 5f 69 6e 64 69 72 65 63 74 2d 6c 61|call_indirect-la|
0x320|73 74                                          |st              |
     |                                               |                |              d{}: 0x322-0x324 (2)
0x320|      00                                       |  .             |                tag: "funcidx" (0x0) 0x322-0x323 (1)
0x320|         26                                    |   &            |                x: 38 (valid) 0x323-0x324 (1)
     |                                               |                |            [37]{}: ex 0x324-0x33d (25)
     |                                               |                |              nm{}: 0x324-0x33b (23)
0x320|            16                                 |    .           |                n: 22 (valid) 0x324-0x325 (1)
0x320|               61 73 2d 63 61 6c 6c 5f 69 6e 64|     as-call_ind|                b: "as-call_indirect-index" 0x325-0x33b (22)
0x330|69 72 65 63 74 2d 69 6e 64 65 78               |irect-index     |
     |                                               |                |              d{}: 0x33b-0x33d (2)
0x330|                                 00            |           .    |                tag: "funcidx" (0x0) 0x33b-0x33c (1)
0x330|                                    27         |            '   |                x: 39 (valid) 0x33c-0x33d (1)
     |                                               |                |            [38]{}: ex 0x33d-0x352 (21)
     |                                               |                |              nm{}: 0x33d-0x350 (19)
0x330|                                       12      |             .  |                n: 18 (valid) 0x33d-0x33e (1)
0x330|                                          61 73|              as|                b: "as-local.set-value" 0x33e-0x350 (18)
0x340|2d 6c 6f 63 61 6c 2e 73 65 74 2d 76 61 6c 75 65|-local.set-value|
     |                                               |                |              d{}: 0x350-0x352 (2)
0x350|00                                             |.               |                tag: "funcidx" (0x0) 0x350-0x351 (1)
0x350|   28                                          | (              |                x: 40 (valid) 0x351-0x352 (1)
     |                                               |                |            [39]{}: ex 0x352-0x367 (21)
     |                                               |                |              nm{}: 0x352-0x365 (19)
0x350|      12                                       |  .             |                n: 18 (valid) 0x352-0x353 (1)
0x350|         61 73 2d 6c 6f 63 61 6c 2e 74 65 65 2d|   as-local.tee-|                b: "as-local.tee-value" 0x353-0x365 (18)
0x360|76 61 6c 75 65                                 |value           |
     |                                               |                |              d{}: 0x365-0x367 (2)
0x360|               00                              |     .          |                tag: "funcidx" (0x0) 0x365-0x366 (1)
0x360|                  29                           |      )         |                x: 41 (valid) 0x366-0x367 (1)
     |                                               |                |            [40]{}: ex 0x367-0x37d (22)
     |                                               |                |              nm{}: 0x367-0x37b (20)
0x360|                     13                        |       .        |                n: 19 (valid) 0x367-0x368 (1)
0x360|                        61 73 2d 67 6c 6f 62 61|        as-globa|                b: "as-global.set-value" 0x368-0x37b (19)
0x370|6c 2e 73 65 74 2d 76 61 6c 75 65               |l.set-value     |
     |                                               |                |              d{}: 0x37b-0x37d (2)
0x370|                                 00            |           .    |                tag: "funcidx" (0x0) 0x37b-0x37c (1)
0x370|                                    2a         |            *   |                x: 42 (valid) 0x37c-0x37d (1)
     |                                               |                |            [41]{}: ex 0x37d-0x38f (18)
     |                                               |                |              nm{}: 0x37d-0x38d (16)
0x370|                                       0f      |             .  |                n: 15 (valid) 0x37d-0x37e (1)
0x370|                                          61 73|              as|                b: "as-load-address" 0x37e-0x38d (15)
0x380|2d 6c 6f 61 64 2d 61 64 64 72 65 73 73         |-load-address   |
     |                                               |                |              d{}: 0x38d-0x38f (2)
0x380|                                       00      |             .  |                tag: "funcidx" (0x0) 0x38d-0x38e (1)
0x380|                                          2b   |              + |                x: 43 (valid) 0x38e-0x38f (1)
     |                                               |                |            [42]{}: ex 0x38f-0x3a2 (19)
     |                                               |                |              nm{}: 0x38f-0x3a0 (17)
0x380|                                             10|               .|                n: 16 (valid) 0x38f-0x390 (1)
0x390|61 73 2d 6c 6f 61 64 4e 2d 61 64 64 72 65 73 73|as-loadN-address|                b: "as-loadN-address" 0x390-0x3a0 (16)
     |                                               |                |              d{}: 0x3a0-0x3a2 (2)
0x3a0|00                                             |.               |                tag: "funcidx" (0x0) 0x3a0-0x3a1 (1)
0x3a0|   2c                                          | ,              |                x: 44 (valid) 0x3a1-0x3a2 (1)
     |                                               |                |            [43]{}: ex 0x3a2-0x3b5 (19)
     |                                               |                |              nm{}: 0x3a2-0x3b3 (17)
0x3a0|      10                                       |  .             |                n: 16 (valid) 0x3a2-0x3a3 (1)
0x3a0|         61 73 2d 73 74 6f 72 65 2d 61 64 64 72|   as-store-addr|                b: "as-store-address" 0x3a3-0x3b3 (16)
0x3b0|65 73 73                                       |ess             |
     |                                               |                |              d{}: 0x3b3-0x3b5 (2)
0x3b0|         00                                    |   .            |                tag: "funcidx" (0x0) 0x3b3-0x3b4 (1)
0x3b0|            2d                                 |    -           |                x: 45 (valid) 0x3b4-0x3b5 (1)
     |                                               |                |            [44]{}: ex 0x3b5-0x3c6 (17)
     |                                               |                |              nm{}: 0x3b5-0x3c4 (15)
0x3b0|               0e                              |     .          |                n: 14 (valid) 0x3b5-0x3b6 (1)
0x3b0|                  61 73 2d 73 74 6f 72 65 2d 76|      as-store-v|                b: "as-store-value" 0x3b6-0x3c4 (14)
0x3c0|61 6c 75 65                                    |alue            |
     |                                               |                |              d{}: 0x3c4-0x3c6 (2)
0x3c0|            00                                 |    .           |                tag: "funcidx" (0x0) 0x3c4-0x3c5 (1)
0x3c0|               2e                              |     .          |                x: 46 (valid) 0x3c5-0x3c6 (1)
     |                                               |                |            [45]{}: ex 0x3c6-0x3da (20)
     |                                               |                |              nm{}: 0x3c6-0x3d8 (18)
0x3c0|                  11                           |      .         |                n: 17 (valid) 0x3c6-0x3c7 (1)
0x3c0|                     61 73 2d 73 74 6f 72 65 4e|       as-storeN|                b: "as-storeN-address" 0x3c7-0x3d8 (17)
0x3d0|2d 61 64 64 72 65 73 73                        |-address        |
     |                                               |                |              d{}: 0x3d8-0x3da (2)
0x3d0|                        00                     |        .       |                tag: "funcidx" (0x0) 0x3d8-0x3d9 (1)
0x3d0|                           2f                  |         /      |                x: 47 (valid) 0x3d9-0x3da (1)
     |                                               |                |            [46]{}: ex 0x3da-0x3ec (18)
     |                                               |                |              nm{}: 0x3da-0x3ea (16)
0x3d0|                              0f               |          .     |                n: 15 (valid) 0x3da-0x3db (1)
0x3d0|                                 61 73 2d 73 74|           as-st|                b: "as-storeN-value" 0x3db-0x3ea (15)
0x3e0|6f 72 65 4e 2d 76 61 6c 75 65                  |oreN-value      |
     |                                               |                |              d{}: 0x3ea-0x3ec (2)
0x3e0|                              00               |          .     |                tag: "funcidx" (0x0) 0x3ea-0x3eb (1)
0x3e0|                                 30            |           0    |                x: 48 (valid) 0x3eb-0x3ec (1)
     |                                               |                |            [47]{}: ex 0x3ec-0x3ff (19)
     |                                               |                |              nm{}: 0x3ec-0x3fd (17)
0x3e0|                                    10         |            .   |                n: 16 (valid) 0x3ec-0x3ed (1)
0x3e0|                                       61 73 2d|             as-|                b: "as-unary-operand" 0x3ed-0x3fd (16)
0x3f0|75 6e 61 72 79 2d 6f 70 65 72 61 6e 64         |unary-operand   |
     |                                               |                |              d{}: 0x3fd-0x3ff (2)
0x3f0|                                       00      |             .  |                tag: "funcidx" (0x0) 0x3fd-0x3fe (1)
0x3f0|                                          31   |              1 |                x: 49 (valid) 0x3fe-0x3ff (1)
     |                                               |                |            [48]{}: ex 0x3ff-0x410 (17)
     |                                               |                |              nm{}: 0x3ff-0x40e (15)
0x3f0|                                             0e|               .|                n: 14 (valid) 0x3ff-0x400 (1)
0x400|61 73 2d 62 69 6e 61 72 79 2d 6c 65 66 74      |as-binary-left  |                b: "as-binary-left" 0x400-0x40e (14)
     |                                               |                |              d{}: 0x40e-0x410 (2)
0x400|                                          00   |              . |                tag: "funcidx" (0x0) 0x40e-0x40f (1)
0x400|                                             32|               2|                x: 50 (valid) 0x40f-0x410 (1)
     |                                               |                |            [49]{}: ex 0x410-0x422 (18)
     |                                               |                |              nm{}: 0x410-0x420 (16)
0x410|0f                                             |.               |                n: 15 (valid) 0x410-0x411 (1)
0x410|   61 73 2d 62 69 6e 61 72 79 2d 72 69 67 68 74| as-binary-right|                b: "as-binary-right" 0x411-0x420 (15)
     |                                               |                |              d{}: 0x420-0x422 (2)
0x420|00                                             |.               |                tag: "funcidx" (0x0) 0x420-0x421 (1)
0x420|   33                                          | 3              |                x: 51 (valid) 0x421-0x422 (1)
     |                                               |                |            [50]{}: ex 0x422-0x434 (18)
     |                                               |                |              nm{}: 0x422-0x432 (16)
0x420|      0f                                       |  .             |                n: 15 (valid) 0x422-0x423 (1)
0x420|         61 73 2d 74 65 73 74 2d 6f 70 65 72 61|   as-test-opera|                b: "as-test-operand" 0x423-0x432 (15)
0x430|6e 64                                          |nd              |
     |                                               |                |              d{}: 0x432-0x434 (2)
0x430|      00                                       |  .             |                tag: "funcidx" (0x0) 0x432-0x433 (1)
0x430|         34                                    |   4            |                x: 52 (valid) 0x433-0x434 (1)
     |                                               |                |            [51]{}: ex 0x434-0x446 (18)
     |                                               |                |              nm{}: 0x434-0x444 (16)
0x430|            0f                                 |    .           |                n: 15 (valid) 0x434-0x435 (1)
0x430|               61 73 2d 63 6f 6d 70 61 72 65 2d|     as-compare-|                b: "as-compare-left" 0x435-0x444 (15)
0x440|6c 65 66 74                                    |left            |
     |                                               |                |              d{}: 0x444-0x446 (2)
0x440|            00                                 |    .           |                tag: "funcidx" (0x0) 0x444-0x445 (1)
0x440|               35                              |     5          |                x: 53 (valid) 0x445-0x446 (1)
     |                                               |                |            [52]{}: ex 0x446-0x459 (19)
     |                                               |                |              nm{}: 0x446-0x457 (17)
0x440|                  10                           |      .         |                n: 16 (valid) 0x446-0x447 (1)
0x440|                     61 73 2d 63 6f 6d 70 61 72|       as-compar|                b: "as-compare-right" 0x447-0x457 (16)
0x450|65 2d 72 69 67 68 74                           |e-right         |
     |                                               |                |              d{}: 0x457-0x459 (2)
0x450|                     00                        |       .        |                tag: "funcidx" (0x0) 0x457-0x458 (1)
0x450|                        36                     |        6       |                x: 54 (valid) 0x458-0x459 (1)
     |                                               |                |            [53]{}: ex 0x459-0x46e (21)
     |                                               |                |              nm{}: 0x459-0x46c (19)
0x450|                           12                  |         .      |                n: 18 (valid) 0x459-0x45a (1)
0x450|                              61 73 2d 63 6f 6e|          as-con|                b: "as-convert-operand" 0x45a-0x46c (18)
0x460|76 65 72 74 2d 6f 70 65 72 61 6e 64            |vert-operand    |
     |                                               |                |              d{}: 0x46c-0x46e (2)
0x460|                                    00         |            .   |                tag: "funcidx" (0x0) 0x46c-0x46d (1)
0x460|                                       37      |             7  |                x: 55 (valid) 0x46d-0x46e (1)
     |                                               |                |            [54]{}: ex 0x46e-0x484 (22)
     |                                               |                |              nm{}: 0x46e-0x482 (20)
0x460|                                          13   |              . |                n: 19 (valid) 0x46e-0x46f (1)
0x460|                                             61|               a|                b: "as-memory.grow-size" 0x46f-0x482 (19)
0x470|73 2d 6d 65 6d 6f 72 79 2e 67 72 6f 77 2d 73 69|s-memory.grow-si|
0x480|7a 65                                          |ze              |
     |                                               |                |              d{}: 0x482-0x484 (2)
0x480|      00                                       |  .             |                tag: "funcidx" (0x0) 0x482-0x483 (1)
0x480|         38                                    |   8            |                x: 56 (valid) 0x483-0x484 (1)
     |                                               |                |    [6]{}: section 0x484-0x48d (9)
0x480|            09                                 |    .           |      id: "element_section" (9) 0x484-0x485 (1)
0x480|               07                              |     .          |      size: 7 (valid) 0x485-0x486 (1)
     |                                               |                |      element{}: 0x486-0x48d (7)
     |                                               |                |        seg{}: 0x486-0x48d (7)
0x480|                  01                           |      .         |          n: 1 (valid) 0x486-0x487 (1)
     |                                               |                |          x[0:1]: 0x487-0x48d (6)
     |                                               |                |            [0]{}: seg 0x487-0x48d (6)
0x480|                     00                        |       .        |              tag: 0 (valid) 0x487-0x488 (1)
     |                                               |                |              e[0:2]: 0x488-0x48b (3)
     |                                               |                |                [0]{}: in 0x488-0x48a (2)
0x480|                        41                     |        A       |                  opcode: "i32.const" (0x41) 0x488-0x489 (1)
0x480|                           00                  |         .      |                  n: 0 (valid) 0x489-0x48a (1)
     |                                               |                |                [1]{}: in 0x48a-0x48b (1)
0x480|                              0b               |          .     |                  opcode: "end" (0xb) 0x48a-0x48b (1)
     |                                               |                |              y{}: 0x48b-0x48d (2)
0x480|                                 01            |           .    |                n: 1 (valid) 0x48b-0x48c (1)
     |                                               |                |                x[0:1]: 0x48c-0x48d (1)
0x480|                                    20         |                |                  [0]: 32 y (valid) 0x48c-0x48d (1)
     |                                               |                |    [7]{}: section 0x48d-0x813 (902)
0x480|                                       0a      |             .  |      id: "code_section" (10) 0x48d-0x48e (1)
0x480|                                          83 07|              ..|      size: 899 (valid) 0x48e-0x490 (2)
     |                                               |                |      content{}: 0x490-0x813 (899)
     |                                               |                |        code{}: 0x490-0x813 (899)
0x490|39                                             |9               |          n: 57 (valid) 0x490-0x491 (1)
     |                                               |                |          x[0:57]: 0x491-0x813 (898)
     |                                               |                |            [0]{}: code 0x491-0x49a (9)
0x490|   08                                          | .              |              size: 8 (valid) 0x491-0x492 (1)
     |                                               |                |              code{}: 0x492-0x49a (8)
     |                                               |                |                t{}: 0x492-0x495 (3)
0x490|      01                                       |  .             |                  n: 1 (valid) 0x492-0x493 (1)
     |                                               |                |                  x[0:1]: 0x493-0x495 (2)
     |                                               |                |                    [0]{}: t 0x493-0x495 (2)
0x490|         01                                    |   .            |                      n: 1 (valid) 0x493-0x494 (1)
0x490|            7f                                 |    .           |                      t: "i32" (0x7f) 0x494-0x495 (1)
     |                                               |                |                e[0:3]: 0x495-0x49a (5)
     |                                               |                |                  [0]{}: in 0x495-0x497 (2)
0x490|               41                              |     A          |                    opcode: "i32.const" (0x41) 0x495-0x496 (1)
0x490|                  00                           |      .         |                    n: 0 (valid) 0x496-0x497 (1)
     |                                               |                |                  [1]{}: in 0x497-0x499 (2)
0x490|                     22                        |       "        |                    opcode: "local.tee" (0x22) 0x497-0x498 (1)
0x490|                        00                     |        .       |                    x: 0 (valid) 0x498-0x499 (1)
     |                                               |                |                  [2]{}: in 0x499-0x49a (1)
0x490|                           0b                  |         .      |                    opcode: "end" (0xb) 0x499-0x49a (1)
     |                                               |                |            [1]{}: code 0x49a-0x4a3 (9)
0x490|                              08               |          .     |              size: 8 (valid) 0x49a-0x49b (1)
     |                                               |                |              code{}: 0x49b-0x4a3 (8)
     |                                               |                |                t{}: 0x49b-0x49e (3)
0x490|                                 01            |           .    |                  n: 1 (valid) 0x49b-0x49c (1)
     |                                               |                |                  x[0:1]: 0x49c-0x49e (2)
     |                                               |                |                    [0]{}: t 0x49c-0x49e (2)
0x490|                                    01         |            .   |                      n: 1 (valid) 0x49c-0x49d (1)
0x490|                                       7e      |             ~  |                      t: "i64" (0x7e) 0x49d-0x49e (1)
     |                                               |                |                e[0:3]: 0x49e-0x4a3 (5)
     |                                               |                |                  [0]{}: in 0x49e-0x4a0 (2)
0x490|                                          42   |              B |                    opcode: "i64.const" (0x42) 0x49e-0x49f (1)
0x490|                                             00|               .|                    n: 0 0x49f-0x4a0 (1)
     |                                               |                |                  [1]{}: in 0x4a0-0x4a2 (2)
0x4a0|22                                             |"               |                    opcode: "local.tee" (0x22) 0x4a0-0x4a1 (1)
0x4a0|   00                                          | .              |                    x: 0 (valid) 0x4a1-0x4a2 (1)
     |                                               |                |                  [2]{}: in 0x4a2-0x4a3 (1)
0x4a0|      0b                                       |  .             |                    opcode: "end" (0xb) 0x4a2-0x4a3 (1)
     |                                               |                |            [2]{}: code 0x4a3-0x4af (12)
0x4a0|         0b                                    |   .            |              size: 11 (valid) 0x4a3-0x4a4 (1)
     |                                               |                |              code{}: 0x4a4-0x4af (11)
     |                                               |                |                t{}: 0x4a4-0x4a7 (3)
0x4a0|            01                                 |    .           |                  n: 1 (valid) 0x4a4-0x4a5 (1)
     |                                               |                |                  x[0:1]: 0x4a5-0x4a7 (2)
     |                                               |                |                    [0]{}: t 0x4a5-0x4a7 (2)
0x4a0|               01                              |     .          |                      n: 1 (valid) 0x4a5-0x4a6 (1)
0x4a0|                  7d                           |      }         |                      t: "f32" (0x7d) 0x4a6-0x4a7 (1)
     |                                               |                |                e[0:3]: 0x4a7-0x4af (8)
     |                                               |                |                  [0]{}: in 0x4a7-0x4ac (5)
0x4a0|                     43                        |       C        |                    opcode: "f32.const" (0x43) 0x4a7-0x4a8 (1)
0x4a0|                        00 00 00 00            |        ....    |                    z: 0 0x4a8-0x4ac (4)
     |                                               |                |                  [1]{}: in 0x4ac-0x4ae (2)
0x4a0|                                    22         |            "   |                    opcode: "local.tee" (0x22) 0x4ac-0x4ad (1)
0x4a0|                                       00      |             .  |                    x: 0 (valid) 0x4ad-0x4ae (1)
     |                                               |                |                  [2]{}: in 0x4ae-0x4af (1)
0x4a0|                                          0b   |              . |                    opcode: "end" (0xb) 0x4ae-0x4af (1)
     |                                               |                |            [3]{}: code 0x4af-0x4bf (16)
0x4a0|                                             0f|               .|              size: 15 (valid) 0x4af-0x4b0 (1)
     |                                               |                |              code{}: 0x4b0-0x4bf (15)
     |                                               |                |                t{}: 0x4b0-0x4b3 (3)
0x4b0|01                                             |.               |                  n: 1 (valid) 0x4b0-0x4b1 (1)
     |                                               |                |                  x[0:1]: 0x4b1-0x4b3 (2)
     |                                               |                |                    [0]{}: t 0x4b1-0x4b3 (2)
0x4b0|   01                                          | .              |                      n: 1 (valid) 0x4b1-0x4b2 (1)
0x4b0|      7c                                       |  |             |                      t: "f64" (0x7c) 0x4b2-0x4b3 (1)
     |                                               |                |                e[0:3]: 0x4b3-0x4bf (12)
     |                                               |                |                  [0]{}: in 0x4b3-0x4bc (9)
0x4b0|         44                                    |   D            |                    opcode: "f64.const" (0x44) 0x4b3-0x4b4 (1)
0x4b0|            00 00 00 00 00 00 00 00            |    ........    |                    z: 0 0x4b4-0x4bc (8)
     |                                               |                |                  [1]{}: in 0x4bc-0x4be (2)
0x4b0|                                    22         |            "   |                    opcode: "local.tee" (0x22) 0x4bc-0x4bd (1)
0x4b0|                                       00      |             .  |                    x: 0 (valid) 0x4bd-0x4be (1)
     |                                               |                |                  [2]{}: in 0x4be-0x4bf (1)
0x4b0|                                          0b   |              . |                    opcode: "end" (0xb) 0x4be-0x4bf (1)
     |                                               |                |            [4]{}: code 0x4bf-0x4c6 (7)
0x4b0|                                             06|               .|              size: 6 (valid) 0x4bf-0x4c0 (1)
     |                                               |                |              code{}: 0x4c0-0x4c6 (6)
     |                                               |                |                t{}: 0x4c0-0x4c1 (1)
0x4c0|00                                             |.               |                  n: 0 (valid) 0x4c0-0x4c1 (1)
     |                                               |                |                  x[0:0]: 0x4c1-0x4c1 (0)
     |                                               |                |                e[0:3]: 0x4c1-0x4c6 (5)
     |                                               |                |                  [0]{}: in 0x4c1-0x4c3 (2)
0x4c0|   41                                          | A              |                    opcode: "i32.const" (0x41) 0x4c1-0x4c2 (1)
0x4c0|      0a                                       |  .             |                    n: 10 (valid) 0x4c2-0x4c3 (1)
     |                                               |                |                  [1]{}: in 0x4c3-0x4c5 (2)
0x4c0|         22                                    |   "            |                    opcode: "local.tee" (0x22) 0x4c3-0x4c4 (1)
0x4c0|            00                                 |    .           |                    x: 0 (valid) 0x4c4-0x4c5 (1)
     |                                               |                |                  [2]{}: in 0x4c5-0x4c6 (1)
0x4c0|               0b                              |     .          |                    opcode: "end" (0xb) 0x4c5-0x4c6 (1)
     |                                               |                |            [5]{}: code 0x4c6-0x4cd (7)
0x4c0|                  06                           |      .         |              size: 6 (valid) 0x4c6-0x4c7 (1)
     |                                               |                |              code{}: 0x4c7-0x4cd (6)
     |                                               |                |                t{}: 0x4c7-0x4c8 (1)
0x4c0|                     00                        |       .        |                  n: 0 (valid) 0x4c7-0x4c8 (1)
     |                                               |                |                  x[0:0]: 0x4c8-0x4c8 (0)
     |                                               |                |                e[0:3]: 0x4c8-0x4cd (5)
     |                                               |                |                  [0]{}: in 0x4c8-0x4ca (2)
0x4c0|                        42                     |        B       |                    opcode: "i64.const" (0x42) 0x4c8-0x4c9 (1)
0x4c0|                           0b                  |         .      |                    n: 11 0x4c9-0x4ca (1)
     |                                               |                |                  [1]{}: in 0x4ca-0x4cc (2)
0x4c0|                              22               |          "     |                    opcode: "local.tee" (0x22) 0x4ca-0x4cb (1)
0x4c0|                                 00            |           .    |                    x: 0 (valid) 0x4cb-0x4cc (1)
     |                                               |                |                  [2]{}: in 0x4cc-0x4cd (1)
0x4c0|                                    0b         |            .   |                    opcode: "end" (0xb) 0x4cc-0x4cd (1)
     |                                               |                |            [6]{}: code 0x4cd-0x4d7 (10)
0x4c0|                                       09      |             .  |              size: 9 (valid) 0x4cd-0x4ce (1)
     |                                               |                |              code{}: 0x4ce-0x4d7 (9)
     |                                               |                |                t{}: 0x4ce-0x4cf (1)
0x4c0|                                          00   |              . |                  n: 0 (valid) 0x4ce-0x4cf (1)
     |                                               |                |                  x[0:0]: 0x4cf-0x4cf (0)
     |                                               |                |                e[0:3]: 0x4cf-0x4d7 (8)
     |                                               |                |                  [0]{}: in 0x4cf-0x4d4 (5)
0x4c0|                                             43|               C|                    opcode: "f32.const" (0x43) 0x4cf-0x4d0 (1)
0x4d0|9a 99 31 41                                    |..1A            |                    z: 11.100000381469727 0x4d0-0x4d4 (4)
     |                                               |                |                  [1]{}: in 0x4d4-0x4d6 (2)
0x4d0|            22                                 |    "           |                    opcode: "local.tee" (0x22) 0x4d4-0x4d5 (1)
0x4d0|               00                              |     .          |                    x: 0 (valid) 0x4d5-0x4d6 (1)
     |                                               |                |                  [2]{}: in 0x4d6-0x4d7 (1)
0x4d0|                  0b                           |      .         |                    opcode: "end" (0xb) 0x4d6-0x4d7 (1)
     |                                               |                |            [7]{}: code 0x4d7-0x4e5 (14)
0x4d0|                     0d                        |       .        |              size: 13 (valid) 0x4d7-0x4d8 (1)
     |                                               |                |              code{}: 0x4d8-0x4e5 (13)
     |                                               |                |                t{}: 0x4d8-0x4d9 (1)
0x4d0|                        00                     |        .       |                  n: 0 (valid) 0x4d8-0x4d9 (1)
     |                                               |                |                  x[0:0]: 0x4d9-0x4d9 (0)
     |                                               |                |                e[0:3]: 0x4d9-0x4e5 (12)
     |                                               |                |                  [0]{}: in 0x4d9-0x4e2 (9)
0x4d0|                           44                  |         D      |                    opcode: "f64.const" (0x44) 0x4d9-0x4da (1)
0x4d0|                              66 66 66 66 66 66|          ffffff|                    z: 12.2 0x4da-0x4e2 (8)
0x4e0|28 40                                          |(@              |
     |                                               |                |                  [1]{}: in 0x4e2-0x4e4 (2)
0x4e0|      22                                       |  "             |                    opcode: "local.tee" (0x22) 0x4e2-0x4e3 (1)
0x4e0|         00                                    |   .            |                    x: 0 (valid) 0x4e3-0x4e4 (1)
     |                                               |                |                  [2]{}: in 0x4e4-0x4e5 (1)
0x4e0|            0b                                 |    .           |                    opcode: "end" (0xb) 0x4e4-0x4e5 (1)
     |                                               |                |            [8]{}: code 0x4e5-0x538 (83)
0x4e0|               52                              |     R          |              size: 82 (valid) 0x4e5-0x4e6 (1)
     |                                               |                |              code{}: 0x4e6-0x538 (82)
     |                                               |                |                t{}: 0x4e6-0x4ed (7)
0x4e0|                  03                           |      .         |                  n: 3 (valid) 0x4e6-0x4e7 (1)
     |                                               |                |                  x[0:3]: 0x4e7-0x4ed (6)
     |                                               |                |                    [0]{}: t 0x4e7-0x4e9 (2)
0x4e0|                     01                        |       .        |                      n: 1 (valid) 0x4e7-0x4e8 (1)
0x4e0|                        7d                     |        }       |                      t: "f32" (0x7d) 0x4e8-0x4e9 (1)
     |                                               |                |                    [1]{}: t 0x4e9-0x4eb (2)
0x4e0|                           02                  |         .      |                      n: 2 (valid) 0x4e9-0x4ea (1)
0x4e0|                              7e               |          ~     |                      t: "i64" (0x7e) 0x4ea-0x4eb (1)
     |                                               |                |                    [2]{}: t 0x4eb-0x4ed (2)
0x4e0|                                 01            |           .    |                      n: 1 (valid) 0x4eb-0x4ec (1)
0x4e0|                                    7c         |            |   |                      t: "f64" (0x7c) 0x4ec-0x4ed (1)
     |                                               |                |                e[0:37]: 0x4ed-0x538 (75)
     |                                               |                |                  [0]{}: in 0x4ed-0x4ef (2)
0x4e0|                                       42      |             B  |                    opcode: "i64.const" (0x42) 0x4ed-0x4ee (1)
0x4e0|                                          00   |              . |                    n: 0 0x4ee-0x4ef (1)
     |                                               |                |                  [1]{}: in 0x4ef-0x4f1 (2)
0x4e0|                                             22|               "|                    opcode: "local.tee" (0x22) 0x4ef-0x4f0 (1)
0x4f0|00                                             |.               |                    x: 0 (valid) 0x4f0-0x4f1 (1)
     |                                               |                |                  [2]{}: in 0x4f1-0x4f2 (1)
0x4f0|   50                                          | P              |                    opcode: "i64.eqz" (0x50) 0x4f1-0x4f2 (1)
     |                                               |                |                  [3]{}: in 0x4f2-0x4f3 (1)
0x4f0|      1a                                       |  .             |                    opcode: "drop" (0x1a) 0x4f2-0x4f3 (1)
     |                                               |                |                  [4]{}: in 0x4f3-0x4f8 (5)
0x4f0|         43                                    |   C            |                    opcode: "f32.const" (0x43) 0x4f3-0x4f4 (1)
0x4f0|            00 00 00 00                        |    ....        |                    z: 0 0x4f4-0x4f8 (4)
     |                                               |                |                  [5]{}: in 0x4f8-0x4fa (2)
0x4f0|                        22                     |        "       |                    opcode: "local.tee" (0x22) 0x4f8-0x4f9 (1)
0x4f0|                           01                  |         .      |                    x: 1 (valid) 0x4f9-0x4fa (1)
     |                                               |                |                  [6]{}: in 0x4fa-0x4fb (1)
0x4f0|                              8c               |          .     |                    opcode: "f32.neg" (0x8c) 0x4fa-0x4fb (1)
     |                                               |                |                  [7]{}: in 0x4fb-0x4fc (1)
0x4f0|                                 1a            |           .    |                    opcode: "drop" (0x1a) 0x4fb-0x4fc (1)
     |                                               |                |                  [8]{}: in 0x4fc-0x505 (9)
0x4f0|                                    44         |            D   |                    opcode: "f64.const" (0x44) 0x4fc-0x4fd (1)
0x4f0|                                       00 00 00|             ...|                    z: 0 0x4fd-0x505 (8)
0x500|00 00 00 00 00                                 |.....           |
     |                                               |                |                  [9]{}: in 0x505-0x507 (2)
0x500|               22                              |     "          |                    opcode: "local.tee" (0x22) 0x505-0x506 (1)
0x500|                  02                           |      .         |                    x: 2 (valid) 0x506-0x507 (1)
     |                                               |                |                  [10]{}: in 0x507-0x508 (1)
0x500|                     9a                        |       .        |                    opcode: "f64.neg" (0x9a) 0x507-0x508 (1)
     |                                               |                |                  [11]{}: in 0x508-0x509 (1)
0x500|                        1a                     |        .       |                    opcode: "drop" (0x1a) 0x508-0x509 (1)
     |                                               |                |                  [12]{}: in 0x509-0x50b (2)
0x500|                           41                  |         A      |                    opcode: "i32.const" (0x41) 0x509-0x50a (1)
0x500|                              00               |          .     |                    n: 0 (valid) 0x50a-0x50b (1)
     |                                               |                |                  [13]{}: in 0x50b-0x50d (2)
0x500|                                 22            |           "    |                    opcode: "local.tee" (0x22) 0x50b-0x50c (1)
0x500|                                    03         |            .   |                    x: 3 (valid) 0x50c-0x50d (1)
     |                                               |                |                  [14]{}: in 0x50d-0x50e (1)
0x500|                                       45      |             E  |                    opcode: "32.eqz" (0x45) 0x50d-0x50e (1)
     |                                               |                |                  [15]{}: in 0x50e-0x50f (1)
0x500|                                          1a   |              . |                    opcode: "drop" (0x1a) 0x50e-0x50f (1)
     |                                               |                |                  [16]{}: in 0x50f-0x511 (2)
0x500|                                             41|               A|                    opcode: "i32.const" (0x41) 0x50f-0x510 (1)
0x510|00                                             |.               |                    n: 0 (valid) 0x510-0x511 (1)
     |                                               |                |                  [17]{}: in 0x511-0x513 (2)
0x510|   22                                          | "              |                    opcode: "local.tee" (0x22) 0x511-0x512 (1)
0x510|      04                                       |  .             |                    x: 4 (valid) 0x512-0x513 (1)
     |                                               |                |                  [18]{}: in 0x513-0x514 (1)
0x510|         45                                    |   E            |                    opcode: "32.eqz" (0x45) 0x513-0x514 (1)
     |                                               |                |                  [19]{}: in 0x514-0x515 (1)
0x510|            1a                                 |    .           |                    opcode: "drop" (0x1a) 0x514-0x515 (1)
     |                                               |                |                  [20]{}: in 0x515-0x51a (5)
0x510|               43                              |     C          |                    opcode: "f32.const" (0x43) 0x515-0x516 (1)
0x510|                  00 00 00 00                  |      ....      |                    z: 0 0x516-0x51a (4)
     |                                               |                |                  [21]{}: in 0x51a-0x51c (2)
0x510|                              22               |          "     |                    opcode: "local.tee" (0x22) 0x51a-0x51b (1)
0x510|                                 05            |           .    |                    x: 5 (valid) 0x51b-0x51c (1)
     |                                               |                |                  [22]{}: in 0x51c-0x51d (1)
0x510|                                    8c         |            .   |                    opcode: "f32.neg" (0x8c) 0x51c-0x51d (1)
     |                                               |                |                  [23]{}: in 0x51d-0x51e (1)
0x510|                                       1a      |             .  |                    opcode: "drop" (0x1a) 0x51d-0x51e (1)
     |                                               |                |                  [24]{}: in 0x51e-0x520 (2)
0x510|                                          42   |              B |                    opcode: "i64.const" (0x42) 0x51e-0x51f (1)
0x510|                                             00|               .|                    n: 0 0x51f-0x520 (1)
     |                                               |                |                  [25]{}: in 0x520-0x522 (2)
0x520|22                                             |"               |                    opcode: "local.tee" (0x22) 0x520-0x521 (1)
0x520|   06                                          | .              |                    x: 6 (valid) 0x521-0x522 (1)
     |                                               |                |                  [26]{}: in 0x522-0x523 (1)
0x520|      50                                       |  P             |                    opcode: "i64.eqz" (0x50) 0x522-0x523 (1)
     |                                               |                |                  [27]{}: in 0x523-0x524 (1)
0x520|         1a                                    |   .            |                    opcode: "drop" (0x1a) 0x523-0x524 (1)
     |                                               |                |                  [28]{}: in 0x524-0x526 (2)
0x520|            42                                 |    B           |                    opcode: "i64.const" (0x42) 0x524-0x525 (1)
0x520|               00                              |     .          |                    n: 0 0x525-0x526 (1)
     |                                               |                |                  [29]{}: in 0x526-0x528 (2)
0x520|                  22                           |      "         |                    opcode: "local.tee" (0x22) 0x526-0x527 (1)
0x520|                     07                        |       .        |                    x: 7 (valid) 0x527-0x528 (1)
     |                                               |                |                  [30]{}: in 0x528-0x529 (1)
0x520|                        50                     |        P       |                    opcode: "i64.eqz" (0x50) 0x528-0x529 (1)
     |                                               |                |                  [31]{}: in 0x529-0x52a (1)
0x520|                           1a                  |         .      |                    opcode: "drop" (0x1a) 0x529-0x52a (1)
     |                                               |                |                  [32]{}: in 0x52a-0x533 (9)
0x520|                              44               |          D     |                    opcode: "f64.const" (0x44) 0x52a-0x52b (1)
0x520|                                 00 00 00 00 00|           .....|                    z: 0 0x52b-0x533 (8)
0x530|00 00 00                                       |...             |
     |                                               |                |                  [33]{}: in 0x533-0x535 (2)
0x530|         22                                    |   "            |                    opcode: "local.tee" (0x22) 0x533-0x534 (1)
0x530|            08                                 |    .           |                    x: 8 (valid) 0x534-0x535 (1)
     |                                               |                |                  [34]{}: in 0x535-0x536 (1)
0x530|               9a                              |     .          |                    opcode: "f64.neg" (0x9a) 0x535-0x536 (1)
     |                                               |                |                  [35]{}: in 0x536-0x537 (1)
0x530|                  1a                           |      .         |                    opcode: "drop" (0x1a) 0x536-0x537 (1)
     |                                               |                |                  [36]{}: in 0x537-0x538 (1)
0x530|                     0b                        |       .        |                    opcode: "end" (0xb) 0x537-0x538 (1)
     |                                               |                |            [9]{}: code 0x538-0x58e (86)
0x530|                        55                     |        U       |              size: 85 (valid) 0x538-0x539 (1)
     |                                               |                |              code{}: 0x539-0x58e (85)
     |                                               |                |                t{}: 0x539-0x540 (7)
0x530|                           03                  |         .      |                  n: 3 (valid) 0x539-0x53a (1)
     |                                               |                |                  x[0:3]: 0x53a-0x540 (6)
     |                                               |                |                    [0]{}: t 0x53a-0x53c (2)
0x530|                              01               |          .     |                      n: 1 (valid) 0x53a-0x53b (1)
0x530|                                 7d            |           }    |                      t: "f32" (0x7d) 0x53b-0x53c (1)
     |                                               |                |                    [1]{}: t 0x53c-0x53e (2)
0x530|                                    02         |            .   |                      n: 2 (valid) 0x53c-0x53d (1)
0x530|                                       7e      |             ~  |                      t: "i64" (0x7e) 0x53d-0x53e (1)
     |                                               |                |                    [2]{}: t 0x53e-0x540 (2)
0x530|                                          01   |              . |                      n: 1 (valid) 0x53e-0x53f (1)
0x530|                                             7c|               ||                      t: "f64" (0x7c) 0x53f-0x540 (1)
     |                                               |                |                e[0:44]: 0x540-0x58e (78)
     |                                               |                |                  [0]{}: in 0x540-0x545 (5)
0x540|43                                             |C               |                    opcode: "f32.const" (0x43) 0x540-0x541 (1)
0x540|   9a 99 99 be                                 | ....           |                    z: -0.30000001192092896 0x541-0x545 (4)
     |                                               |                |                  [1]{}: in 0x545-0x547 (2)
0x540|               22                              |     "          |                    opcode: "local.tee" (0x22) 0x545-0x546 (1)
0x540|                  01                           |      .         |                    x: 1 (valid) 0x546-0x547 (1)
     |                                               |                |                  [2]{}: in 0x547-0x548 (1)
0x540|                     1a                        |       .        |                    opcode: "drop" (0x1a) 0x547-0x548 (1)
     |                                               |                |                  [3]{}: in 0x548-0x54a (2)
0x540|                        41                     |        A       |                    opcode: "i32.const" (0x41) 0x548-0x549 (1)
0x540|                           28                  |         (      |                    n: 40 (valid) 0x549-0x54a (1)
     |                                               |                |                  [4]{}: in 0x54a-0x54c (2)
0x540|                              22               |          "     |                    opcode: "local.tee" (0x22) 0x54a-0x54b (1)
0x540|                                 03            |           .    |                    x: 3 (valid) 0x54b-0x54c (1)
     |                                               |                |                  [5]{}: in 0x54c-0x54d (1)
0x540|                                    1a         |            .   |                    opcode: "drop" (0x1a) 0x54c-0x54d (1)
     |                                               |                |                  [6]{}: in 0x54d-0x54f (2)
0x540|                                       41      |             A  |                    opcode: "i32.const" (0x41) 0x54d-0x54e (1)
0x540|                                          79   |              y |                    n: -7 (valid) 0x54e-0x54f (1)
     |                                               |                |                  [7]{}: in 0x54f-0x551 (2)
0x540|                                             22|               "|                    opcode: "local.tee" (0x22) 0x54f-0x550 (1)
0x550|04                                             |.               |                    x: 4 (valid) 0x550-0x551 (1)
     |                                               |                |                  [8]{}: in 0x551-0x552 (1)
0x550|   1a                                          | .              |                    opcode: "drop" (0x1a) 0x551-0x552 (1)
     |                                               |                |                  [9]{}: in 0x552-0x557 (5)
0x550|      43                                       |  C             |                    opcode: "f32.const" (0x43) 0x552-0x553 (1)
0x550|         00 00 b0 40                           |   ...@         |                    z: 5.5 0x553-0x557 (4)
     |                                               |                |                  [10]{}: in 0x557-0x559 (2)
0x550|                     22                        |       "        |                    opcode: "local.tee" (0x22) 0x557-0x558 (1)
0x550|                        05                     |        .       |                    x: 5 (valid) 0x558-0x559 (1)
     |                                               |                |                  [11]{}: in 0x559-0x55a (1)
0x550|                           1a                  |         .      |                    opcode: "drop" (0x1a) 0x559-0x55a (1)
     |                                               |                |                  [12]{}: in 0x55a-0x55c (2)
0x550|                              42               |          B     |                    opcode: "i64.const" (0x42) 0x55a-0x55b (1)
0x550|                                 06            |           .    |                    n: 6 0x55b-0x55c (1)
     |                                               |                |                  [13]{}: in 0x55c-0x55e (2)
0x550|                                    22         |            "   |                    opcode: "local.tee" (0x22) 0x55c-0x55d (1)
0x550|                                       06      |             .  |                    x: 6 (valid) 0x55d-0x55e (1)
     |                                               |                |                  [14]{}: in 0x55e-0x55f (1)
0x550|                                          1a   |              . |                    opcode: "drop" (0x1a) 0x55e-0x55f (1)
     |                                               |                |                  [15]{}: in 0x55f-0x568 (9)
0x550|                                             44|               D|                    opcode: "f64.const" (0x44) 0x55f-0x560 (1)
0x560|00 00 00 00 00 00 20 40                        |...... @        |                    z: 8 0x560-0x568 (8)
     |                                               |                |                  [16]{}: in 0x568-0x56a (2)
0x560|                        22                     |        "       |                    opcode: "local.tee" (0x22) 0x568-0x569 (1)
0x560|                           08                  |         .      |                    x: 8 (valid) 0x569-0x56a (1)
     |                                               |                |                  [17]{}: in 0x56a-0x56b (1)
0x560|                              1a               |          .     |                    opcode: "drop" (0x1a) 0x56a-0x56b (1)
     |                                               |                |                  [18]{}: in 0x56b-0x56d (2)
0x560|                                 20            |                |                    opcode: "local.get" (0x20) 0x56b-0x56c (1)
0x560|                                    00         |            .   |                    x: 0 (valid) 0x56c-0x56d (1)
     |                                               |                |                  [19]{}: in 0x56d-0x56e (1)
0x560|                                       ba      |             .  |                    opcode: "f64.convert_i64_u" (0xba) 0x56d-0x56e (1)
     |                                               |                |                  [20]{}: in 0x56e-0x570 (2)
0x560|                                          20   |                |                    opcode: "local.get" (0x20) 0x56e-0x56f (1)
0x560|                                             01|               .|                    x: 1 (valid) 0x56f-0x570 (1)
     |                                               |                |                  [21]{}: in 0x570-0x571 (1)
0x570|bb                                             |.               |                    opcode: "f64.promote_f32" (0xbb) 0x570-0x571 (1)
     |                                               |                |                  [22]{}: in 0x571-0x573 (2)
0x570|   20                                          |                |                    opcode: "local.get" (0x20) 0x571-0x572 (1)
0x570|      02                                       |  .             |                    x: 2 (valid) 0x572-0x573 (1)
     |                                               |                |                  [23]{}: in 0x573-0x575 (2)
0x570|         20                                    |                |                    opcode: "local.get" (0x20) 0x573-0x574 (1)
0x570|            03                                 |    .           |                    x: 3 (valid) 0x574-0x575 (1)
     |                                               |                |                  [24]{}: in 0x575-0x576 (1)
0x570|               b8                              |     .          |                    opcode: "f64.convert_i32_u" (0xb8) 0x575-0x576 (1)
     |                                               |                |                  [25]{}: in 0x576-0x578 (2)
0x570|                  20                           |                |                    opcode: "local.get" (0x20) 0x576-0x577 (1)
0x570|                     04                        |       .        |                    x: 4 (valid) 0x577-0x578 (1)
     |                                               |                |                  [26]{}: in 0x578-0x579 (1)
0x570|                        b7                     |        .       |                    opcode: "f64.convert_i32_s" (0xb7) 0x578-0x579 (1)
     |                                               |                |                  [27]{}: in 0x579-0x57b (2)
0x570|                           20                  |                |                    opcode: "local.get" (0x20) 0x579-0x57a (1)
0x570|                              05               |          .     |                    x: 5 (valid) 0x57a-0x57b (1)
     |                                               |                |                  [28]{}: in 0x57b-0x57c (1)
0x570|                                 bb            |           .    |                    opcode: "f64.promote_f32" (0xbb) 0x57b-0x57c (1)
     |                                               |                |                  [29]{}: in 0x57c-0x57e (2)
0x570|                                    20         |                |                    opcode: "local.get" (0x20) 0x57c-0x57d (1)
0x570|                                       06      |             .  |                    x: 6 (valid) 0x57d-0x57e (1)
     |                                               |                |                  [30]{}: in 0x57e-0x57f (1)
0x570|                                          ba   |              . |                    opcode: "f64.convert_i64_u" (0xba) 0x57e-0x57f (1)
     |                                               |                |                  [31]{}: in 0x57f-0x581 (2)
0x570|                                             20|                |                    opcode: "local.get" (0x20) 0x57f-0x580 (1)
0x580|07                                             |.               |                    x: 7 (valid) 0x580-0x581 (1)
     |                                               |                |                  [32]{}: in 0x581-0x582 (1)
0x580|   ba                                          | .              |                    opcode: "f64.convert_i64_u" (0xba) 0x581-0x582 (1)
     |                                               |                |                  [33]{}: in 0x582-0x584 (2)
0x580|      20                                       |                |                    opcode: "local.get" (0x20) 0x582-0x583 (1)
0x580|         08                                    |   .            |                    x: 8 (valid) 0x583-0x584 (1)
     |                                               |                |                  [34]{}: in 0x584-0x585 (1)
0x580|            a0                                 |    .           |                    opcode: "f64.add" (0xa0) 0x584-0x585 (1)
     |                                               |                |                  [35]{}: in 0x585-0x586 (1)
0x580|               a0                              |     .          |                    opcode: "f64.add" (0xa0) 0x585-0x586 (1)
     |                                               |                |                  [36]{}: in 0x586-0x587 (1)
0x580|                  a0                           |      .         |                    opcode: "f64.add" (0xa0) 0x586-0x587 (1)
     |                                               |                |                  [37]{}: in 0x587-0x588 (1)
0x580|                     a0                        |       .        |                    opcode: "f64.add" (0xa0) 0x587-0x588 (1)
     |                                               |                |                  [38]{}: in 0x588-0x589 (1)
0x580|                        a0                     |        .       |                    opcode: "f64.add" (0xa0) 0x588-0x589 (1)
     |                                               |                |                  [39]{}: in 0x589-0x58a (1)
0x580|                           a0                  |         .      |                    opcode: "f64.add" (0xa0) 0x589-0x58a (1)
     |                                               |                |                  [40]{}: in 0x58a-0x58b (1)
0x580|                              a0               |          .     |                    opcode: "f64.add" (0xa0) 0x58a-0x58b (1)
     |                                               |                |                  [41]{}: in 0x58b-0x58c (1)
0x580|                                 a0            |           .    |                    opcode: "f64.add" (0xa0) 0x58b-0x58c (1)
     |                                               |                |                  [42]{}: in 0x58c-0x58d (1)
0x580|                                    b0         |            .   |                    opcode: "i64.trunc_f64_s" (0xb0) 0x58c-0x58d (1)
     |                                               |                |                  [43]{}: in 0x58d-0x58e (1)
0x580|                                       0b      |             .  |                    opcode: "end" (0xb) 0x58d-0x58e (1)
     |                                               |                |            [10]{}: code 0x58e-0x5de (80)
0x580|                                          4f   |              O |              size: 79 (valid) 0x58e-0x58f (1)
     |                                               |                |              code{}: 0x58f-0x5de (79)
     |                                               |                |                t{}: 0x58f-0x596 (7)
0x580|                                             03|               .|                  n: 3 (valid) 0x58f-0x590 (1)
     |                                               |                |                  x[0:3]: 0x590-0x596 (6)
     |                                               |                |                    [0]{}: t 0x590-0x592 (2)
0x590|01                                             |.               |                      n: 1 (valid) 0x590-0x591 (1)
0x590|   7d                                          | }              |                      t: "f32" (0x7d) 0x591-0x592 (1)
     |                                               |                |                    [1]{}: t 0x592-0x594 (2)
0x590|      02                                       |  .             |                      n: 2 (valid) 0x592-0x593 (1)
0x590|         7e                                    |   ~            |                      t: "i64" (0x7e) 0x593-0x594 (1)
     |                                               |                |                    [2]{}: t 0x594-0x596 (2)
0x590|            01                                 |    .           |                      n: 1 (valid) 0x594-0x595 (1)
0x590|               7c                              |     |          |                      t: "f64" (0x7c) 0x595-0x596 (1)
     |                                               |                |                e[0:34]: 0x596-0x5de (72)
     |                                               |                |                  [0]{}: in 0x596-0x598 (2)
0x590|                  42                           |      B         |                    opcode: "i64.const" (0x42) 0x596-0x597 (1)
0x590|                     01                        |       .        |                    n: 1 0x597-0x598 (1)
     |                                               |                |                  [1]{}: in 0x598-0x59a (2)
0x590|                        22                     |        "       |                    opcode: "local.tee" (0x22) 0x598-0x599 (1)
0x590|                           00                  |         .      |                    x: 0 (valid) 0x599-0x59a (1)
     |                                               |                |                  [2]{}: in 0x59a-0x59b (1)
0x590|                              ba               |          .     |                    opcode: "f64.convert_i64_u" (0xba) 0x59a-0x59b (1)
     |                                               |                |                  [3]{}: in 0x59b-0x5a0 (5)
0x590|                                 43            |           C    |                    opcode: "f32.const" (0x43) 0x59b-0x59c (1)
0x590|                                    00 00 00 40|            ...@|                    z: 2 0x59c-0x5a0 (4)
     |                                               |                |                  [4]{}: in 0x5a0-0x5a2 (2)
0x5a0|22                                             |"               |                    opcode: "local.tee" (0x22) 0x5a0-0x5a1 (1)
0x5a0|   01                                          | .              |                    x: 1 (valid) 0x5a1-0x5a2 (1)
     |                                               |                |                  [5]{}: in 0x5a2-0x5a3 (1)
0x5a0|      bb                                       |  .             |                    opcode: "f64.promote_f32" (0xbb) 0x5a2-0x5a3 (1)
     |                                               |                |                  [6]{}: in 0x5a3-0x5ac (9)
0x5a0|         44                                    |   D            |                    opcode: "f64.const" (0x44) 0x5a3-0x5a4 (1)
0x5a0|            66 66 66 66 66 66 0a 40            |    ffffff.@    |                    z: 3.3 0x5a4-0x5ac (8)
     |                                               |                |                  [7]{}: in 0x5ac-0x5ae (2)
0x5a0|                                    22         |            "   |                    opcode: "local.tee" (0x22) 0x5ac-0x5ad (1)
0x5a0|                                       02      |             .  |                    x: 2 (valid) 0x5ad-0x5ae (1)
     |                                               |                |                  [8]{}: in 0x5ae-0x5b0 (2)
0x5a0|                                          41   |              A |                    opcode: "i32.const" (0x41) 0x5ae-0x5af (1)
0x5a0|                                             04|               .|                    n: 4 (valid) 0x5af-0x5b0 (1)
     |                                               |                |                  [9]{}: in 0x5b0-0x5b2 (2)
0x5b0|22                                             |"               |                    opcode: "local.tee" (0x22) 0x5b0-0x5b1 (1)
0x5b0|   03                                          | .              |                    x: 3 (valid) 0x5b1-0x5b2 (1)
     |                                               |                |                  [10]{}: in 0x5b2-0x5b3 (1)
0x5b0|      b8                                       |  .             |                    opcode: "f64.convert_i32_u" (0xb8) 0x5b2-0x5b3 (1)
     |                                               |                |                  [11]{}: in 0x5b3-0x5b5 (2)
0x5b0|         41                                    |   A            |                    opcode: "i32.const" (0x41) 0x5b3-0x5b4 (1)
0x5b0|            05                                 |    .           |                    n: 5 (valid) 0x5b4-0x5b5 (1)
     |                                               |                |                  [12]{}: in 0x5b5-0x5b7 (2)
0x5b0|               22                              |     "          |                    opcode: "local.tee" (0x22) 0x5b5-0x5b6 (1)
0x5b0|                  04                           |      .         |                    x: 4 (valid) 0x5b6-0x5b7 (1)
     |                                               |                |                  [13]{}: in 0x5b7-0x5b8 (1)
0x5b0|                     b7                        |       .        |                    opcode: "f64.convert_i32_s" (0xb7) 0x5b7-0x5b8 (1)
     |                                               |                |                  [14]{}: in 0x5b8-0x5bd (5)
0x5b0|                        43                     |        C       |                    opcode: "f32.const" (0x43) 0x5b8-0x5b9 (1)
0x5b0|                           00 00 b0 40         |         ...@   |                    z: 5.5 0x5b9-0x5bd (4)
     |                                               |                |                  [15]{}: in 0x5bd-0x5bf (2)
0x5b0|                                       22      |             "  |                    opcode: "local.tee" (0x22) 0x5bd-0x5be (1)
0x5b0|                                          05   |              . |                    x: 5 (valid) 0x5be-0x5bf (1)
     |                                               |                |                  [16]{}: in 0x5bf-0x5c0 (1)
0x5b0|                                             bb|               .|                    opcode: "f64.promote_f32" (0xbb) 0x5bf-0x5c0 (1)
     |                                               |                |                  [17]{}: in 0x5c0-0x5c2 (2)
0x5c0|42                                             |B               |                    opcode: "i64.const" (0x42) 0x5c0-0x5c1 (1)
0x5c0|   06                                          | .              |                    n: 6 0x5c1-0x5c2 (1)
     |                                               |                |                  [18]{}: in 0x5c2-0x5c4 (2)
0x5c0|      22                                       |  "             |                    opcode: "local.tee" (0x22) 0x5c2-0x5c3 (1)
0x5c0|         06                                    |   .            |                    x: 6 (valid) 0x5c3-0x5c4 (1)
     |                                               |                |                  [19]{}: in 0x5c4-0x5c5 (1)
0x5c0|            ba                                 |    .           |                    opcode: "f64.convert_i64_u" (0xba) 0x5c4-0x5c5 (1)
     |                                               |                |                  [20]{}: in 0x5c5-0x5c7 (2)
0x5c0|               42                              |     B          |                    opcode: "i64.const" (0x42) 0x5c5-0x5c6 (1)
0x5c0|                  00                           |      .         |                    n: 0 0x5c6-0x5c7 (1)
     |                                               |                |                  [21]{}: in 0x5c7-0x5c9 (2)
0x5c0|                     22                        |       "        |                    opcode: "local.tee" (0x22) 0x5c7-0x5c8 (1)
0x5c0|                        07                     |        .       |                    x: 7 (valid) 0x5c8-0x5c9 (1)
     |                                               |                |                  [22]{}: in 0x5c9-0x5ca (1)
0x5c0|                           ba                  |         .      |                    opcode: "f64.convert_i64_u" (0xba) 0x5c9-0x5ca (1)
     |                                               |                |                  [23]{}: in 0x5ca-0x5d3 (9)
0x5c0|                              44               |          D     |                    opcode: "f64.const" (0x44) 0x5ca-0x5cb (1)
0x5c0|                                 00 00 00 00 00|           .....|                    z: 8 0x5cb-0x5d3 (8)
0x5d0|00 20 40                                       |. @             |
     |                                               |                |                  [24]{}: in 0x5d3-0x5d5 (2)
0x5d0|         22                                    |   "            |                    opcode: "local.tee" (0x22) 0x5d3-0x5d4 (1)
0x5d0|            08                                 |    .           |                    x: 8 (valid) 0x5d4-0x5d5 (1)
     |                                               |                |                  [25]{}: in 0x5d5-0x5d6 (1)
0x5d0|               a0                              |     .          |                    opcode: "f64.add" (0xa0) 0x5d5-0x5d6 (1)
     |                                               |                |                  [26]{}: in 0x5d6-0x5d7 (1)
0x5d0|                  a0                           |      .         |                    opcode: "f64.add" (0xa0) 0x5d6-0x5d7 (1)
     |                                               |                |                  [27]{}: in 0x5d7-0x5d8 (1)
0x5d0|                     a0                        |       .        |                    opcode: "f64.add" (0xa0) 0x5d7-0x5d8 (1)
     |                                               |                |                  [28]{}: in 0x5d8-0x5d9 (1)
0x5d0|                        a0                     |        .       |                    opcode: "f64.add" (0xa0) 0x5d8-0x5d9 (1)
     |                                               |                |                  [29]{}: in 0x5d9-0x5da (1)
0x5d0|                           a0                  |         .      |                    opcode: "f64.add" (0xa0) 0x5d9-0x5da (1)
     |                                               |                |                  [30]{}: in 0x5da-0x5db (1)
0x5d0|                              a0               |          .     |                    opcode: "f64.add" (0xa0) 0x5da-0x5db (1)
     |                                               |                |                  [31]{}: in 0x5db-0x5dc (1)
0x5d0|                                 a0            |           .    |                    opcode: "f64.add" (0xa0) 0x5db-0x5dc (1)
     |                                               |                |                  [32]{}: in 0x5dc-0x5dd (1)
0x5d0|                                    a0         |            .   |                    opcode: "f64.add" (0xa0) 0x5dc-0x5dd (1)
     |                                               |                |                  [33]{}: in 0x5dd-0x5de (1)
0x5d0|                                       0b      |             .  |                    opcode: "end" (0xb) 0x5dd-0x5de (1)
     |                                               |                |            [11]{}: code 0x5de-0x5e1 (3)
0x5d0|                                          02   |              . |              size: 2 (valid) 0x5de-0x5df (1)
     |                                               |                |              code{}: 0x5df-0x5e1 (2)
     |                                               |                |                t{}: 0x5df-0x5e0 (1)
0x5d0|                                             00|               .|                  n: 0 (valid) 0x5df-0x5e0 (1)
     |                                               |                |                  x[0:0]: 0x5e0-0x5e0 (0)
     |                                               |                |                e[0:1]: 0x5e0-0x5e1 (1)
     |                                               |                |                  [0]{}: in 0x5e0-0x5e1 (1)
0x5e0|0b                                             |.               |                    opcode: "end" (0xb) 0x5e0-0x5e1 (1)
     |                                               |                |            [12]{}: code 0x5e1-0x5ed (12)
0x5e0|   0b                                          | .              |              size: 11 (valid) 0x5e1-0x5e2 (1)
     |                                               |                |              code{}: 0x5e2-0x5ed (11)
     |                                               |                |                t{}: 0x5e2-0x5e3 (1)
0x5e0|      00                                       |  .             |                  n: 0 (valid) 0x5e2-0x5e3 (1)
     |                                               |                |                  x[0:0]: 0x5e3-0x5e3 (0)
     |                                               |                |                e[0:2]: 0x5e3-0x5ed (10)
     |                                               |                |                  [0]{}: in 0x5e3-0x5ec (9)
0x5e0|         02                                    |   .            |                    opcode: "block" (0x2) 0x5e3-0x5e4 (1)
0x5e0|            7f                                 |    .           |                    bt: "i32" (127) 0x5e4-0x5e5 (1)
     |                                               |                |                    instructions[0:3]: 0x5e5-0x5eb (6)
     |                                               |                |                      [0]{}: instr 0x5e5-0x5e7 (2)
0x5e0|               41                              |     A          |                        opcode: "i32.const" (0x41) 0x5e5-0x5e6 (1)
0x5e0|                  01                           |      .         |                        n: 1 (valid) 0x5e6-0x5e7 (1)
     |                                               |                |                      [1]{}: instr 0x5e7-0x5e9 (2)
0x5e0|                     22                        |       "        |                        opcode: "local.tee" (0x22) 0x5e7-0x5e8 (1)
0x5e0|                        00                     |        .       |                        x: 0 (valid) 0x5e8-0x5e9 (1)
     |                                               |                |                      [2]{}: instr 0x5e9-0x5eb (2)
0x5e0|                           10                  |         .      |                        opcode: "call" (0x10) 0x5e9-0x5ea (1)
0x5e0|                              0b               |          .     |                        x: 11 (valid) 0x5ea-0x5eb (1)
0x5e0|                                 0b            |           .    |                    end: 0xb (valid) 0x5eb-0x5ec (1)
     |                                               |                |                  [1]{}: in 0x5ec-0x5ed (1)
0x5e0|                                    0b         |            .   |                    opcode: "end" (0xb) 0x5ec-0x5ed (1)
     |                                               |                |            [13]{}: code 0x5ed-0x5fb (14)
0x5e0|                                       0d      |             .  |              size: 13 (valid) 0x5ed-0x5ee (1)
     |                                               |                |              code{}: 0x5ee-0x5fb (13)
     |                                               |                |                t{}: 0x5ee-0x5ef (1)
0x5e0|                                          00   |              . |                  n: 0 (valid) 0x5ee-0x5ef (1)
     |                                               |                |                  x[0:0]: 0x5ef-0x5ef (0)
     |                                               |                |                e[0:2]: 0x5ef-0x5fb (12)
     |                                               |                |                  [0]{}: in 0x5ef-0x5fa (11)
0x5e0|                                             02|               .|                    opcode: "block" (0x2) 0x5ef-0x5f0 (1)
0x5f0|7f                                             |.               |                    bt: "i32" (127) 0x5f0-0x5f1 (1)
     |                                               |                |                    instructions[0:4]: 0x5f1-0x5f9 (8)
     |                                               |                |                      [0]{}: instr 0x5f1-0x5f3 (2)
0x5f0|   10                                          | .              |                        opcode: "call" (0x10) 0x5f1-0x5f2 (1)
0x5f0|      0b                                       |  .             |                        x: 11 (valid) 0x5f2-0x5f3 (1)
     |                                               |                |                      [1]{}: instr 0x5f3-0x5f5 (2)
0x5f0|         41                                    |   A            |                        opcode: "i32.const" (0x41) 0x5f3-0x5f4 (1)
0x5f0|            01                                 |    .           |                        n: 1 (valid) 0x5f4-0x5f5 (1)
     |                                               |                |                      [2]{}: instr 0x5f5-0x5f7 (2)
0x5f0|               22                              |     "          |                        opcode: "local.tee" (0x22) 0x5f5-0x5f6 (1)
0x5f0|                  00                           |      .         |                        x: 0 (valid) 0x5f6-0x5f7 (1)
     |                                               |                |                      [3]{}: instr 0x5f7-0x5f9 (2)
0x5f0|                     10                        |       .        |                        opcode: "call" (0x10) 0x5f7-0x5f8 (1)
0x5f0|                        0b                     |        .       |                        x: 11 (valid) 0x5f8-0x5f9 (1)
0x5f0|                           0b                  |         .      |                    end: 0xb (valid) 0x5f9-0x5fa (1)
     |                                               |                |                  [1]{}: in 0x5fa-0x5fb (1)
0x5f0|                              0b               |          .     |                    opcode: "end" (0xb) 0x5fa-0x5fb (1)
     |                                               |                |            [14]{}: code 0x5fb-0x609 (14)
0x5f0|                                 0d            |           .    |              size: 13 (valid) 0x5fb-0x5fc (1)
     |                                               |                |              code{}: 0x5fc-0x609 (13)
     |                                               |                |                t{}: 0x5fc-0x5fd (1)
0x5f0|                                    00         |            .   |                  n: 0 (valid) 0x5fc-0x5fd (1)
     |                                               |                |                  x[0:0]: 0x5fd-0x5fd (0)
     |                                               |                |                e[0:2]: 0x5fd-0x609 (12)
     |                                               |                |                  [0]{}: in 0x5fd-0x608 (11)
0x5f0|                                       02      |             .  |                    opcode: "block" (0x2) 0x5fd-0x5fe (1)
0x5f0|                                          7f   |              . |                    bt: "i32" (127) 0x5fe-0x5ff (1)
     |                                               |                |                    instructions[0:4]: 0x5ff-0x607 (8)
     |                                               |                |                      [0]{}: instr 0x5ff-0x601 (2)
0x5f0|                                             10|               .|                        opcode: "call" (0x10) 0x5ff-0x600 (1)
0x600|0b                                             |.               |                        x: 11 (valid) 0x600-0x601 (1)
     |                                               |                |                      [1]{}: instr 0x601-0x603 (2)
0x600|   10                                          | .              |                        opcode: "call" (0x10) 0x601-0x602 (1)
0x600|      0b                                       |  .             |                        x: 11 (valid) 0x602-0x603 (1)
     |                                               |                |                      [2]{}: instr 0x603-0x605 (2)
0x600|         41                                    |   A            |                        opcode: "i32.const" (0x41) 0x603-0x604 (1)
0x600|            01                                 |    .           |                        n: 1 (valid) 0x604-0x605 (1)
     |                                               |                |                      [3]{}: instr 0x605-0x607 (2)
0x600|               22                              |     "          |                        opcode: "local.tee" (0x22) 0x605-0x606 (1)
0x600|                  00                           |      .         |                        x: 0 (valid) 0x606-0x607 (1)
0x600|                     0b                        |       .        |                    end: 0xb (valid) 0x607-0x608 (1)
     |                                               |                |                  [1]{}: in 0x608-0x609 (1)
0x600|                        0b                     |        .       |                    opcode: "end" (0xb) 0x608-0x609 (1)
     |                                               |                |            [15]{}: code 0x609-0x615 (12)
0x600|                           0b                  |         .      |              size: 11 (valid) 0x609-0x60a (1)
     |                                               |                |              code{}: 0x60a-0x615 (11)
     |                                               |                |                t{}: 0x60a-0x60b (1)
0x600|                              00               |          .     |                  n: 0 (valid) 0x60a-0x60b (1)
     |                                               |                |                  x[0:0]: 0x60b-0x60b (0)
     |                                               |                |                e[0:2]: 0x60b-0x615 (10)
     |                                               |                |                  [0]{}: in 0x60b-0x614 (9)
0x600|                                 03            |           .    |                    opcode: "loop" (0x3) 0x60b-0x60c (1)
0x600|                                    7f         |            .   |                    bt: "i32" (127) 0x60c-0x60d (1)
     |                                               |                |                    instructions[0:3]: 0x60d-0x613 (6)
     |                                               |                |                      [0]{}: instr 0x60d-0x60f (2)
0x600|                                       41      |             A  |                        opcode: "i32.const" (0x41) 0x60d-0x60e (1)
0x600|                                          03   |              . |                        n: 3 (valid) 0x60e-0x60f (1)
     |                                               |                |                      [1]{}: instr 0x60f-0x611 (2)
0x600|                                             22|               "|                        opcode: "local.tee" (0x22) 0x60f-0x610 (1)
0x610|00                                             |.               |                        x: 0 (valid) 0x610-0x611 (1)
     |                                               |                |                      [2]{}: instr 0x611-0x613 (2)
0x610|   10                                          | .              |                        opcode: "call" (0x10) 0x611-0x612 (1)
0x610|      0b                                       |  .             |                        x: 11 (valid) 0x612-0x613 (1)
0x610|         0b                                    |   .            |                    end: 0xb (valid) 0x613-0x614 (1)
     |                                               |                |                  [1]{}: in 0x614-0x615 (1)
0x610|            0b                                 |    .           |                    opcode: "end" (0xb) 0x614-0x615 (1)
     |                                               |                |            [16]{}: code 0x615-0x623 (14)
0x610|               0d                              |     .          |              size: 13 (valid) 0x615-0x616 (1)
     |                                               |                |              code{}: 0x616-0x623 (13)
     |                                               |                |                t{}: 0x616-0x617 (1)
0x610|                  00                           |      .         |                  n: 0 (valid) 0x616-0x617 (1)
     |                                               |                |                  x[0:0]: 0x617-0x617 (0)
     |                                               |                |                e[0:2]: 0x617-0x623 (12)
     |                                               |                |                  [0]{}: in 0x617-0x622 (11)
0x610|                     03                        |       .        |                    opcode: "loop" (0x3) 0x617-0x618 (1)
0x610|                        7f                     |        .       |                    bt: "i32" (127) 0x618-0x619 (1)
     |                                               |                |                    instructions[0:4]: 0x619-0x621 (8)
     |                                               |                |                      [0]{}: instr 0x619-0x61b (2)
0x610|                           10                  |         .      |                        opcode: "call" (0x10) 0x619-0x61a (1)
0x610|                              0b               |          .     |                        x: 11 (valid) 0x61a-0x61b (1)
     |                                               |                |                      [1]{}: instr 0x61b-0x61d (2)
0x610|                                 41            |           A    |                        opcode: "i32.const" (0x41) 0x61b-0x61c (1)
0x610|                                    04         |            .   |                        n: 4 (valid) 0x61c-0x61d (1)
     |                                               |                |                      [2]{}: instr 0x61d-0x61f (2)
0x610|                                       22      |             "  |                        opcode: "local.tee" (0x22) 0x61d-0x61e (1)
0x610|                                          00   |              . |                        x: 0 (valid) 0x61e-0x61f (1)
     |                                               |                |                      [3]{}: instr 0x61f-0x621 (2)
0x610|                                             10|               .|                        opcode: "call" (0x10) 0x61f-0x620 (1)
0x620|0b                                             |.               |                        x: 11 (valid) 0x620-0x621 (1)
0x620|   0b                                          | .              |                    end: 0xb (valid) 0x621-0x622 (1)
     |                                               |                |                  [1]{}: in 0x622-0x623 (1)
0x620|      0b                                       |  .             |                    opcode: "end" (0xb) 0x622-0x623 (1)
     |                                               |                |            [17]{}: code 0x623-0x631 (14)
0x620|         0d                                    |   .            |              size: 13 (valid) 0x623-0x624 (1)
     |                                               |                |              code{}: 0x624-0x631 (13)
     |                                               |                |                t{}: 0x624-0x625 (1)
0x620|            00                                 |    .           |                  n: 0 (valid) 0x624-0x625 (1)
     |                                               |                |                  x[0:0]: 0x625-0x625 (0)
     |                                               |                |                e[0:2]: 0x625-0x631 (12)
     |                                               |                |                  [0]{}: in 0x625-0x630 (11)
0x620|               03                              |     .          |                    opcode: "loop" (0x3) 0x625-0x626 (1)
0x620|                  7f                           |      .         |                    bt: "i32" (127) 0x626-0x627 (1)
     |                                               |                |                    instructions[0:4]: 0x627-0x62f (8)
     |                                               |                |                      [0]{}: instr 0x627-0x629 (2)
0x620|                     10                        |       .        |                        opcode: "call" (0x10) 0x627-0x628 (1)
0x620|                        0b                     |        .       |                        x: 11 (valid) 0x628-0x629 (1)
     |                                               |                |                      [1]{}: instr 0x629-0x62b (2)
0x620|                           10                  |         .      |                        opcode: "call" (0x10) 0x629-0x62a (1)
0x620|                              0b               |          .     |                        x: 11 (valid) 0x62a-0x62b (1)
     |                                               |                |                      [2]{}: instr 0x62b-0x62d (2)
0x620|                                 41            |           A    |                        opcode: "i32.const" (0x41) 0x62b-0x62c (1)
0x620|                                    05         |            .   |                        n: 5 (valid) 0x62c-0x62d (1)
     |                                               |                |                      [3]{}: instr 0x62d-0x62f (2)
0x620|                                       22      |             "  |                        opcode: "local.tee" (0x22) 0x62d-0x62e (1)
0x620|                                          00   |              . |                        x: 0 (valid) 0x62e-0x62f (1)
0x620|                                             0b|               .|                    end: 0xb (valid) 0x62f-0x630 (1)
     |                                               |                |                  [1]{}: in 0x630-0x631 (1)
0x630|0b                                             |.               |                    opcode: "end" (0xb) 0x630-0x631 (1)
     |                                               |                |            [18]{}: code 0x631-0x63d (12)
0x630|   0b                                          | .              |              size: 11 (valid) 0x631-0x632 (1)
     |                                               |                |              code{}: 0x632-0x63d (11)
     |                                               |                |                t{}: 0x632-0x633 (1)
0x630|      00                                       |  .             |                  n: 0 (valid) 0x632-0x633 (1)
     |                                               |                |                  x[0:0]: 0x633-0x633 (0)
     |                                               |                |                e[0:2]: 0x633-0x63d (10)
     |                                               |                |                  [0]{}: in 0x633-0x63c (9)
0x630|         02                                    |   .            |                    opcode: "block" (0x2) 0x633-0x634 (1)
0x630|            7f                                 |    .           |                    bt: "i32" (127) 0x634-0x635 (1)
     |                                               |                |                    instructions[0:3]: 0x635-0x63b (6)
     |                                               |                |                      [0]{}: instr 0x635-0x637 (2)
0x630|               41                              |     A          |                        opcode: "i32.const" (0x41) 0x635-0x636 (1)
0x630|                  09                           |      .         |                        n: 9 (valid) 0x636-0x637 (1)
     |                                               |                |                      [1]{}: instr 0x637-0x639 (2)
0x630|                     22                        |       "        |                        opcode: "local.tee" (0x22) 0x637-0x638 (1)
0x630|                        00                     |        .       |                        x: 0 (valid) 0x638-0x639 (1)
     |                                               |                |                      [2]{}: instr 0x639-0x63b (2)
0x630|                           0c                  |         .      |                        opcode: "br" (0xc) 0x639-0x63a (1)
0x630|                              00               |          .     |                        l: 0 (valid) 0x63a-0x63b (1)
0x630|                                 0b            |           .    |                    end: 0xb (valid) 0x63b-0x63c (1)
     |                                               |                |                  [1]{}: in 0x63c-0x63d (1)
0x630|                                    0b         |            .   |                    opcode: "end" (0xb) 0x63c-0x63d (1)
     |                                               |                |            [19]{}: code 0x63d-0x649 (12)
0x630|                                       0b      |             .  |              size: 11 (valid) 0x63d-0x63e (1)
     |                                               |                |              code{}: 0x63e-0x649 (11)
     |                                               |                |                t{}: 0x63e-0x63f (1)
0x630|                                          00   |              . |                  n: 0 (valid) 0x63e-0x63f (1)
     |                                               |                |                  x[0:0]: 0x63f-0x63f (0)
     |                                               |                |                e[0:2]: 0x63f-0x649 (10)
     |                                               |                |                  [0]{}: in 0x63f-0x648 (9)
0x630|                                             02|               .|                    opcode: "block" (0x2) 0x63f-0x640 (1)
0x640|40                                             |@               |                    bt: "ε" (64) 0x640-0x641 (1)
     |                                               |                |                    instructions[0:3]: 0x641-0x647 (6)
     |                                               |                |                      [0]{}: instr 0x641-0x643 (2)
0x640|   41                                          | A              |                        opcode: "i32.const" (0x41) 0x641-0x642 (1)
0x640|      01                                       |  .             |                        n: 1 (valid) 0x642-0x643 (1)
     |                                               |                |                      [1]{}: instr 0x643-0x645 (2)
0x640|         22                                    |   "            |                        opcode: "local.tee" (0x22) 0x643-0x644 (1)
0x640|            00                                 |    .           |                        x: 0 (valid) 0x644-0x645 (1)
     |                                               |                |                      [2]{}: instr 0x645-0x647 (2)
0x640|               0d                              |     .          |                        opcode: "br_if" (0xd) 0x645-0x646 (1)
0x640|                  00                           |      .         |                        l: 0 (valid) 0x646-0x647 (1)
0x640|                     0b                        |       .        |                    end: 0xb (valid) 0x647-0x648 (1)
     |                                               |                |                  [1]{}: in 0x648-0x649 (1)
0x640|                        0b                     |        .       |                    opcode: "end" (0xb) 0x648-0x649 (1)
     |                                               |                |            [20]{}: code 0x649-0x65a (17)
0x640|                           10                  |         .      |              size: 16 (valid) 0x649-0x64a (1)
     |                                               |                |              code{}: 0x64a-0x65a (16)
     |                                               |                |                t{}: 0x64a-0x64b (1)
0x640|                              00               |          .     |                  n: 0 (valid) 0x64a-0x64b (1)
     |                                               |                |                  x[0:0]: 0x64b-0x64b (0)
     |                                               |                |                e[0:2]: 0x64b-0x65a (15)
     |                                               |                |                  [0]{}: in 0x64b-0x659 (14)
0x640|                                 02            |           .    |                    opcode: "block" (0x2) 0x64b-0x64c (1)
0x640|                                    7f         |            .   |                    bt: "i32" (127) 0x64c-0x64d (1)
     |                                               |                |                    instructions[0:6]: 0x64d-0x658 (11)
     |                                               |                |                      [0]{}: instr 0x64d-0x64f (2)
0x640|                                       41      |             A  |                        opcode: "i32.const" (0x41) 0x64d-0x64e (1)
0x640|                                          08   |              . |                        n: 8 (valid) 0x64e-0x64f (1)
     |                                               |                |                      [1]{}: instr 0x64f-0x651 (2)
0x640|                                             22|               "|                        opcode: "local.tee" (0x22) 0x64f-0x650 (1)
0x650|00                                             |.               |                        x: 0 (valid) 0x650-0x651 (1)
     |                                               |                |                      [2]{}: instr 0x651-0x653 (2)
0x650|   41                                          | A              |                        opcode: "i32.const" (0x41) 0x651-0x652 (1)
0x650|      01                                       |  .             |                        n: 1 (valid) 0x652-0x653 (1)
     |                                               |                |                      [3]{}: instr 0x653-0x655 (2)
0x650|         0d                                    |   .            |                        opcode: "br_if" (0xd) 0x653-0x654 (1)
0x650|            00                                 |    .           |                        l: 0 (valid) 0x654-0x655 (1)
     |                                               |                |                      [4]{}: instr 0x655-0x656 (1)
0x650|               1a                              |     .          |                        opcode: "drop" (0x1a) 0x655-0x656 (1)
     |                                               |                |                      [5]{}: instr 0x656-0x658 (2)
0x650|                  41                           |      A         |                        opcode: "i32.const" (0x41) 0x656-0x657 (1)
0x650|                     07                        |       .        |                        n: 7 (valid) 0x657-0x658 (1)
0x650|                        0b                     |        .       |                    end: 0xb (valid) 0x658-0x659 (1)
     |                                               |                |                  [1]{}: in 0x659-0x65a (1)
0x650|                           0b                  |         .      |                    opcode: "end" (0xb) 0x659-0x65a (1)
     |                                               |                |            [21]{}: code 0x65a-0x66b (17)
0x650|                              10               |          .     |              size: 16 (valid) 0x65a-0x65b (1)
     |                                               |                |              code{}: 0x65b-0x66b (16)
     |                                               |                |                t{}: 0x65b-0x65c (1)
0x650|                                 00            |           .    |                  n: 0 (valid) 0x65b-0x65c (1)
     |                                               |                |                  x[0:0]: 0x65c-0x65c (0)
     |                                               |                |                e[0:2]: 0x65c-0x66b (15)
     |                                               |                |                  [0]{}: in 0x65c-0x66a (14)
0x650|                                    02         |            .   |                    opcode: "block" (0x2) 0x65c-0x65d (1)
0x650|                                       7f      |             .  |                    bt: "i32" (127) 0x65d-0x65e (1)
     |                                               |                |                    instructions[0:6]: 0x65e-0x669 (11)
     |                                               |                |                      [0]{}: instr 0x65e-0x660 (2)
0x650|                                          41   |              A |                        opcode: "i32.const" (0x41) 0x65e-0x65f (1)
0x650|                                             06|               .|                        n: 6 (valid) 0x65f-0x660 (1)
     |                                               |                |                      [1]{}: instr 0x660-0x662 (2)
0x660|41                                             |A               |                        opcode: "i32.const" (0x41) 0x660-0x661 (1)
0x660|   09                                          | .              |                        n: 9 (valid) 0x661-0x662 (1)
     |                                               |                |                      [2]{}: instr 0x662-0x664 (2)
0x660|      22                                       |  "             |                        opcode: "local.tee" (0x22) 0x662-0x663 (1)
0x660|         00                                    |   .            |                        x: 0 (valid) 0x663-0x664 (1)
     |                                               |                |                      [3]{}: instr 0x664-0x666 (2)
0x660|            0d                                 |    .           |                        opcode: "br_if" (0xd) 0x664-0x665 (1)
0x660|               00                              |     .          |                        l: 0 (valid) 0x665-0x666 (1)
     |                                               |                |                      [4]{}: instr 0x666-0x667 (1)
0x660|                  1a                           |      .         |                        opcode: "drop" (0x1a) 0x666-0x667 (1)
     |                                               |                |                      [5]{}: instr 0x667-0x669 (2)
0x660|                     41                        |       A        |                        opcode: "i32.const" (0x41) 0x667-0x668 (1)
0x660|                        07                     |        .       |                        n: 7 (valid) 0x668-0x669 (1)
0x660|                           0b                  |         .      |                    end: 0xb (valid) 0x669-0x66a (1)
     |                                               |                |                  [1]{}: in 0x66a-0x66b (1)
0x660|                              0b               |          .     |                    opcode: "end" (0xb) 0x66a-0x66b (1)
     |                                               |                |            [22]{}: code 0x66b-0x67a (15)
0x660|                                 0e            |           .    |              size: 14 (valid) 0x66b-0x66c (1)
     |                                               |                |              code{}: 0x66c-0x67a (14)
     |                                               |                |                t{}: 0x66c-0x66d (1)
0x660|                                    00         |            .   |                  n: 0 (valid) 0x66c-0x66d (1)
     |                                               |                |                  x[0:0]: 0x66d-0x66d (0)
     |                                               |                |                e[0:2]: 0x66d-0x67a (13)
     |                                               |                |                  [0]{}: in 0x66d-0x679 (12)
0x660|                                       02      |             .  |                    opcode: "block" (0x2) 0x66d-0x66e (1)
0x660|                                          40   |              @ |                    bt: "ε" (64) 0x66e-0x66f (1)
     |                                               |                |                    instructions[0:3]: 0x66f-0x678 (9)
     |                                               |                |                      [0]{}: instr 0x66f-0x671 (2)
0x660|                                             41|               A|                        opcode: "i32.const" (0x41) 0x66f-0x670 (1)
0x670|00                                             |.               |                        n: 0 (valid) 0x670-0x671 (1)
     |                                               |                |                      [1]{}: instr 0x671-0x673 (2)
0x670|   22                                          | "              |                        opcode: "local.tee" (0x22) 0x671-0x672 (1)
0x670|      00                                       |  .             |                        x: 0 (valid) 0x672-0x673 (1)
     |                                               |                |                      [2]{}: instr 0x673-0x678 (5)
0x670|         0e                                    |   .            |                        opcode: "br_table" (0xe) 0x673-0x674 (1)
     |                                               |                |                        l{}: 0x674-0x677 (3)
0x670|            02                                 |    .           |                          n: 2 (valid) 0x674-0x675 (1)
     |                                               |                |                          x[0:2]: 0x675-0x677 (2)
0x670|               00                              |     .          |                            [0]: 0 l (valid) 0x675-0x676 (1)
0x670|                  00                           |      .         |                            [1]: 0 l (valid) 0x676-0x677 (1)
0x670|                     00                        |       .        |                        lN: 0 (valid) 0x677-0x678 (1)
0x670|                        0b                     |        .       |                    end: 0xb (valid) 0x678-0x679 (1)
     |                                               |                |                  [1]{}: in 0x679-0x67a (1)
0x670|                           0b                  |         .      |                    opcode: "end" (0xb) 0x679-0x67a (1)
     |                                               |                |            [23]{}: code 0x67a-0x68d (19)
0x670|                              12               |          .     |              size: 18 (valid) 0x67a-0x67b (1)
     |                                               |                |              code{}: 0x67b-0x68d (18)
     |                                               |                |                t{}: 0x67b-0x67c (1)
0x670|                                 00            |           .    |                  n: 0 (valid) 0x67b-0x67c (1)
     |                                               |                |                  x[0:0]: 0x67c-0x67c (0)
     |                                               |                |                e[0:2]: 0x67c-0x68d (17)
     |                                               |                |                  [0]{}: in 0x67c-0x68c (16)
0x670|                                    02         |            .   |                    opcode: "block" (0x2) 0x67c-0x67d (1)
0x670|                                       7f      |             .  |                    bt: "i32" (127) 0x67d-0x67e (1)
     |                                               |                |                    instructions[0:5]: 0x67e-0x68b (13)
     |                                               |                |                      [0]{}: instr 0x67e-0x680 (2)
0x670|                                          41   |              A |                        opcode: "i32.const" (0x41) 0x67e-0x67f (1)
0x670|                                             0a|               .|                        n: 10 (valid) 0x67f-0x680 (1)
     |                                               |                |                      [1]{}: instr 0x680-0x682 (2)
0x680|22                                             |"               |                        opcode: "local.tee" (0x22) 0x680-0x681 (1)
0x680|   00                                          | .              |                        x: 0 (valid) 0x681-0x682 (1)
     |                                               |                |                      [2]{}: instr 0x682-0x684 (2)
0x680|      41                                       |  A             |                        opcode: "i32.const" (0x41) 0x682-0x683 (1)
0x680|         01                                    |   .            |                        n: 1 (valid) 0x683-0x684 (1)
     |                                               |                |                      [3]{}: instr 0x684-0x689 (5)
0x680|            0e                                 |    .           |                        opcode: "br_table" (0xe) 0x684-0x685 (1)
     |                                               |                |                        l{}: 0x685-0x688 (3)
0x680|               02                              |     .          |                          n: 2 (valid) 0x685-0x686 (1)
     |                                               |                |                          x[0:2]: 0x686-0x688 (2)
0x680|                  00                           |      .         |                            [0]: 0 l (valid) 0x686-0x687 (1)
0x680|                     00                        |       .        |                            [1]: 0 l (valid) 0x687-0x688 (1)
0x680|                        00                     |        .       |                        lN: 0 (valid) 0x688-0x689 (1)
     |                                               |                |                      [4]{}: instr 0x689-0x68b (2)
0x680|                           41                  |         A      |                        opcode: "i32.const" (0x41) 0x689-0x68a (1)
0x680|                              07               |          .     |                        n: 7 (valid) 0x68a-0x68b (1)
0x680|                                 0b            |           .    |                    end: 0xb (valid) 0x68b-0x68c (1)
     |                                               |                |                  [1]{}: in 0x68c-0x68d (1)
0x680|                                    0b         |            .   |                    opcode: "end" (0xb) 0x68c-0x68d (1)
     |                                               |                |            [24]{}: code 0x68d-0x69f (18)
0x680|                                       11      |             .  |              size: 17 (valid) 0x68d-0x68e (1)
     |                                               |                |              code{}: 0x68e-0x69f (17)
     |                                               |                |                t{}: 0x68e-0x68f (1)
0x680|                                          00   |              . |                  n: 0 (valid) 0x68e-0x68f (1)
     |                                               |                |                  x[0:0]: 0x68f-0x68f (0)
     |                                               |                |                e[0:2]: 0x68f-0x69f (16)
     |                                               |                |                  [0]{}: in 0x68f-0x69e (15)
0x680|                                             02|               .|                    opcode: "block" (0x2) 0x68f-0x690 (1)
0x690|7f                                             |.               |                    bt: "i32" (127) 0x690-0x691 (1)
     |                                               |                |                    instructions[0:5]: 0x691-0x69d (12)
     |                                               |                |                      [0]{}: instr 0x691-0x693 (2)
0x690|   41                                          | A              |                        opcode: "i32.const" (0x41) 0x691-0x692 (1)
0x690|      06                                       |  .             |                        n: 6 (valid) 0x692-0x693 (1)
     |                                               |                |                      [1]{}: instr 0x693-0x695 (2)
0x690|         41                                    |   A            |                        opcode: "i32.const" (0x41) 0x693-0x694 (1)
0x690|            0b                                 |    .           |                        n: 11 (valid) 0x694-0x695 (1)
     |                                               |                |                      [2]{}: instr 0x695-0x697 (2)
0x690|               22                              |     "          |                        opcode: "local.tee" (0x22) 0x695-0x696 (1)
0x690|                  00                           |      .         |                        x: 0 (valid) 0x696-0x697 (1)
     |                                               |                |                      [3]{}: instr 0x697-0x69b (4)
0x690|                     0e                        |       .        |                        opcode: "br_table" (0xe) 0x697-0x698 (1)
     |                                               |                |                        l{}: 0x698-0x69a (2)
0x690|                        01                     |        .       |                          n: 1 (valid) 0x698-0x699 (1)
     |                                               |                |                          x[0:1]: 0x699-0x69a (1)
0x690|                           00                  |         .      |                            [0]: 0 l (valid) 0x699-0x69a (1)
0x690|                              00               |          .     |                        lN: 0 (valid) 0x69a-0x69b (1)
     |                                               |                |                      [4]{}: instr 0x69b-0x69d (2)
0x690|                                 41            |           A    |                        opcode: "i32.const" (0x41) 0x69b-0x69c (1)
0x690|                                    07         |            .   |                        n: 7 (valid) 0x69c-0x69d (1)
0x690|                                       0b      |             .  |                    end: 0xb (valid) 0x69d-0x69e (1)
     |                                               |                |                  [1]{}: in 0x69e-0x69f (1)
0x690|                                          0b   |              . |                    opcode: "end" (0xb) 0x69e-0x69f (1)
     |                                               |                |            [25]{}: code 0x69f-0x6a7 (8)
0x690|                                             07|               .|              size: 7 (valid) 0x69f-0x6a0 (1)
     |                                               |                |              code{}: 0x6a0-0x6a7 (7)
     |                                               |                |                t{}: 0x6a0-0x6a1 (1)
0x6a0|00                                             |.               |                  n: 0 (valid) 0x6a0-0x6a1 (1)
     |                                               |                |                  x[0:0]: 0x6a1-0x6a1 (0)
     |                                               |                |                e[0:4]: 0x6a1-0x6a7 (6)
     |                                               |                |                  [0]{}: in 0x6a1-0x6a3 (2)
0x6a0|   41                                          | A              |                    opcode: "i32.const" (0x41) 0x6a1-0x6a2 (1)
0x6a0|      07                                       |  .             |                    n: 7 (valid) 0x6a2-0x6a3 (1)
     |                                               |                |                  [1]{}: in 0x6a3-0x6a5 (2)
0x6a0|         22                                    |   "            |                    opcode: "local.tee" (0x22) 0x6a3-0x6a4 (1)
0x6a0|            00                                 |    .           |                    x: 0 (valid) 0x6a4-0x6a5 (1)
     |                                               |                |                  [2]{}: in 0x6a5-0x6a6 (1)
0x6a0|               0f                              |     .          |                    opcode: "return" (0xf) 0x6a5-0x6a6 (1)
     |                                               |                |                  [3]{}: in 0x6a6-0x6a7 (1)
0x6a0|                  0b                           |      .         |                    opcode: "end" (0xb) 0x6a6-0x6a7 (1)
     |                                               |                |            [26]{}: code 0x6a7-0x6b6 (15)
0x6a0|                     0e                        |       .        |              size: 14 (valid) 0x6a7-0x6a8 (1)
     |                                               |                |              code{}: 0x6a8-0x6b6 (14)
     |                                               |                |                t{}: 0x6a8-0x6a9 (1)
0x6a0|                        00                     |        .       |                  n: 0 (valid) 0x6a8-0x6a9 (1)
     |                                               |                |                  x[0:0]: 0x6a9-0x6a9 (0)
     |                                               |                |                e[0:4]: 0x6a9-0x6b6 (13)
     |                                               |                |                  [0]{}: in 0x6a9-0x6ab (2)
0x6a0|                           41                  |         A      |                    opcode: "i32.const" (0x41) 0x6a9-0x6aa (1)
0x6a0|                              02               |          .     |                    n: 2 (valid) 0x6aa-0x6ab (1)
     |                                               |                |                  [1]{}: in 0x6ab-0x6ad (2)
0x6a0|                                 22            |           "    |                    opcode: "local.tee" (0x22) 0x6ab-0x6ac (1)
0x6a0|                                    00         |            .   |                    x: 0 (valid) 0x6ac-0x6ad (1)
     |                                               |                |                  [2]{}: in 0x6ad-0x6b5 (8)
0x6a0|                                       04      |             .  |                    opcode: "if" (0x4) 0x6ad-0x6ae (1)
0x6a0|                                          7f   |              . |                    bt: "i32" (127) 0x6ae-0x6af (1)
     |                                               |                |                    in1[0:1]: 0x6af-0x6b1 (2)
     |                                               |                |                      [0]{}: instr 0x6af-0x6b1 (2)
0x6a0|                                             41|               A|                        opcode: "i32.const" (0x41) 0x6af-0x6b0 (1)
0x6b0|00                                             |.               |                        n: 0 (valid) 0x6b0-0x6b1 (1)
0x6b0|   05                                          | .              |                    else: 0x5 (valid) 0x6b1-0x6b2 (1)
     |                                               |                |                    in2[0:1]: 0x6b2-0x6b4 (2)
     |                                               |                |                      [0]{}: instr 0x6b2-0x6b4 (2)
0x6b0|      41                                       |  A             |                        opcode: "i32.const" (0x41) 0x6b2-0x6b3 (1)
0x6b0|         01                                    |   .            |                        n: 1 (valid) 0x6b3-0x6b4 (1)
0x6b0|            0b                                 |    .           |                    end: 0xb (valid) 0x6b4-0x6b5 (1)
     |                                               |                |                  [3]{}: in 0x6b5-0x6b6 (1)
0x6b0|               0b                              |     .          |                    opcode: "end" (0xb) 0x6b5-0x6b6 (1)
     |                                               |                |            [27]{}: code 0x6b6-0x6c5 (15)
0x6b0|                  0e                           |      .         |              size: 14 (valid) 0x6b6-0x6b7 (1)
     |                                               |                |              code{}: 0x6b7-0x6c5 (14)
     |                                               |                |                t{}: 0x6b7-0x6b8 (1)
0x6b0|                     00                        |       .        |                  n: 0 (valid) 0x6b7-0x6b8 (1)
     |                                               |                |                  x[0:0]: 0x6b8-0x6b8 (0)
     |                                               |                |                e[0:3]: 0x6b8-0x6c5 (13)
     |                                               |                |                  [0]{}: in 0x6b8-0x6ba (2)
0x6b0|                        20                     |                |                    opcode: "local.get" (0x20) 0x6b8-0x6b9 (1)
0x6b0|                           00                  |         .      |                    x: 0 (valid) 0x6b9-0x6ba (1)
     |                                               |                |                  [1]{}: in 0x6ba-0x6c4 (10)
0x6b0|                              04               |          .     |                    opcode: "if" (0x4) 0x6ba-0x6bb (1)
0x6b0|                                 7f            |           .    |                    bt: "i32" (127) 0x6bb-0x6bc (1)
     |                                               |                |                    in1[0:2]: 0x6bc-0x6c0 (4)
     |                                               |                |                      [0]{}: instr 0x6bc-0x6be (2)
0x6b0|                                    41         |            A   |                        opcode: "i32.const" (0x41) 0x6bc-0x6bd (1)
0x6b0|                                       03      |             .  |                        n: 3 (valid) 0x6bd-0x6be (1)
     |                                               |                |                      [1]{}: instr 0x6be-0x6c0 (2)
0x6b0|                                          22   |              " |                        opcode: "local.tee" (0x22) 0x6be-0x6bf (1)
0x6b0|                                             00|               .|                        x: 0 (valid) 0x6bf-0x6c0 (1)
0x6c0|05                                             |.               |                    else: 0x5 (valid) 0x6c0-0x6c1 (1)
     |                                               |                |                    in2[0:1]: 0x6c1-0x6c3 (2)
     |                                               |                |                      [0]{}: instr 0x6c1-0x6c3 (2)
0x6c0|   20                                          |                |                        opcode: "local.get" (0x20) 0x6c1-0x6c2 (1)
0x6c0|      00                                       |  .             |                        x: 0 (valid) 0x6c2-0x6c3 (1)
0x6c0|         0b                                    |   .            |                    end: 0xb (valid) 0x6c3-0x6c4 (1)
     |                                               |                |                  [2]{}: in 0x6c4-0x6c5 (1)
0x6c0|            0b                                 |    .           |                    opcode: "end" (0xb) 0x6c4-0x6c5 (1)
     |                                               |                |            [28]{}: code 0x6c5-0x6d4 (15)
0x6c0|               0e                              |     .          |              size: 14 (valid) 0x6c5-0x6c6 (1)
     |                                               |                |              code{}: 0x6c6-0x6d4 (14)
     |                                               |                |                t{}: 0x6c6-0x6c7 (1)
0x6c0|                  00                           |      .         |                  n: 0 (valid) 0x6c6-0x6c7 (1)
     |                                               |                |                  x[0:0]: 0x6c7-0x6c7 (0)
     |                                               |                |                e[0:3]: 0x6c7-0x6d4 (13)
     |                                               |                |                  [0]{}: in 0x6c7-0x6c9 (2)
0x6c0|                     20                        |                |                    opcode: "local.get" (0x20) 0x6c7-0x6c8 (1)
0x6c0|                        00                     |        .       |                    x: 0 (valid) 0x6c8-0x6c9 (1)
     |                                               |                |                  [1]{}: in 0x6c9-0x6d3 (10)
0x6c0|                           04                  |         .      |                    opcode: "if" (0x4) 0x6c9-0x6ca (1)
0x6c0|                              7f               |          .     |                    bt: "i32" (127) 0x6ca-0x6cb (1)
     |                                               |                |                    in1[0:1]: 0x6cb-0x6cd (2)
     |                                               |                |                      [0]{}: instr 0x6cb-0x6cd (2)
0x6c0|                                 20            |                |                        opcode: "local.get" (0x20) 0x6cb-0x6cc (1)
0x6c0|                                    00         |            .   |                        x: 0 (valid) 0x6cc-0x6cd (1)
0x6c0|                                       05      |             .  |                    else: 0x5 (valid) 0x6cd-0x6ce (1)
     |                                               |                |                    in2[0:2]: 0x6ce-0x6d2 (4)
     |                                               |                |                      [0]{}: instr 0x6ce-0x6d0 (2)
0x6c0|                                          41   |              A |                        opcode: "i32.const" (0x41) 0x6ce-0x6cf (1)
0x6c0|                                             04|               .|                        n: 4 (valid) 0x6cf-0x6d0 (1)
     |                                               |                |                      [1]{}: instr 0x6d0-0x6d2 (2)
0x6d0|22                                             |"               |                        opcode: "local.tee" (0x22) 0x6d0-0x6d1 (1)
0x6d0|   00                                          | .              |                        x: 0 (valid) 0x6d1-0x6d2 (1)
0x6d0|      0b                                       |  .             |                    end: 0xb (valid) 0x6d2-0x6d3 (1)
     |                                               |                |                  [2]{}: in 0x6d3-0x6d4 (1)
0x6d0|         0b                                    |   .            |                    opcode: "end" (0xb) 0x6d3-0x6d4 (1)
     |                                               |                |            [29]{}: code 0x6d4-0x6e0 (12)
0x6d0|            0b                                 |    .           |              size: 11 (valid) 0x6d4-0x6d5 (1)
     |                                               |                |              code{}: 0x6d5-0x6e0 (11)
     |                                               |                |                t{}: 0x6d5-0x6d6 (1)
0x6d0|               00                              |     .          |                  n: 0 (valid) 0x6d5-0x6d6 (1)
     |                                               |                |                  x[0:0]: 0x6d6-0x6d6 (0)
     |                                               |                |                e[0:6]: 0x6d6-0x6e0 (10)
     |                                               |                |                  [0]{}: in 0x6d6-0x6d8 (2)
0x6d0|                  41                           |      A         |                    opcode: "i32.const" (0x41) 0x6d6-0x6d7 (1)
0x6d0|                     05                        |       .        |                    n: 5 (valid) 0x6d7-0x6d8 (1)
     |                                               |                |                  [1]{}: in 0x6d8-0x6da (2)
0x6d0|                        22                     |        "       |                    opcode: "local.tee" (0x22) 0x6d8-0x6d9 (1)
0x6d0|                           00                  |         .      |                    x: 0 (valid) 0x6d9-0x6da (1)
     |                                               |                |                  [2]{}: in 0x6da-0x6dc (2)
0x6d0|                              20               |                |                    opcode: "local.get" (0x20) 0x6da-0x6db (1)
0x6d0|                                 00            |           .    |                    x: 0 (valid) 0x6db-0x6dc (1)
     |                                               |                |                  [3]{}: in 0x6dc-0x6de (2)
0x6d0|                                    20         |                |                    opcode: "local.get" (0x20) 0x6dc-0x6dd (1)
0x6d0|                                       01      |             .  |                    x: 1 (valid) 0x6dd-0x6de (1)
     |                                               |                |                  [4]{}: in 0x6de-0x6df (1)
0x6d0|                                          1b   |              . |                    opcode: "select" (0x1b) 0x6de-0x6df (1)
     |                                               |                |                  [5]{}: in 0x6df-0x6e0 (1)
0x6d0|                                             0b|               .|                    opcode: "end" (0xb) 0x6df-0x6e0 (1)
     |                                               |                |            [30]{}: code 0x6e0-0x6ec (12)
0x6e0|0b                                             |.               |              size: 11 (valid) 0x6e0-0x6e1 (1)
     |                                               |                |              code{}: 0x6e1-0x6ec (11)
     |                                               |                |                t{}: 0x6e1-0x6e2 (1)
0x6e0|   00                                          | .              |                  n: 0 (valid) 0x6e1-0x6e2 (1)
     |                                               |                |                  x[0:0]: 0x6e2-0x6e2 (0)
     |                                               |                |                e[0:6]: 0x6e2-0x6ec (10)
     |                                               |                |                  [0]{}: in 0x6e2-0x6e4 (2)
0x6e0|      20                                       |                |                    opcode: "local.get" (0x20) 0x6e2-0x6e3 (1)
0x6e0|         00                                    |   .            |                    x: 0 (valid) 0x6e3-0x6e4 (1)
     |                                               |                |                  [1]{}: in 0x6e4-0x6e6 (2)
0x6e0|            41                                 |    A           |                    opcode: "i32.const" (0x41) 0x6e4-0x6e5 (1)
0x6e0|               06                              |     .          |                    n: 6 (valid) 0x6e5-0x6e6 (1)
     |                                               |                |                  [2]{}: in 0x6e6-0x6e8 (2)
0x6e0|                  22                           |      "         |                    opcode: "local.tee" (0x22) 0x6e6-0x6e7 (1)
0x6e0|                     00                        |       .        |                    x: 0 (valid) 0x6e7-0x6e8 (1)
     |                                               |                |                  [3]{}: in 0x6e8-0x6ea (2)
0x6e0|                        20                     |                |                    opcode: "local.get" (0x20) 0x6e8-0x6e9 (1)
0x6e0|                           01                  |         .      |                    x: 1 (valid) 0x6e9-0x6ea (1)
     |                                               |                |                  [4]{}: in 0x6ea-0x6eb (1)
0x6e0|                              1b               |          .     |                    opcode: "select" (0x1b) 0x6ea-0x6eb (1)
     |                                               |                |                  [5]{}: in 0x6eb-0x6ec (1)
0x6e0|                                 0b            |           .    |                    opcode: "end" (0xb) 0x6eb-0x6ec (1)
     |                                               |                |            [31]{}: code 0x6ec-0x6f8 (12)
0x6e0|                                    0b         |            .   |              size: 11 (valid) 0x6ec-0x6ed (1)
     |                                               |                |              code{}: 0x6ed-0x6f8 (11)
     |                                               |                |                t{}: 0x6ed-0x6ee (1)
0x6e0|                                       00      |             .  |                  n: 0 (valid) 0x6ed-0x6ee (1)
     |                                               |                |                  x[0:0]: 0x6ee-0x6ee (0)
     |                                               |                |                e[0:6]: 0x6ee-0x6f8 (10)
     |                                               |                |                  [0]{}: in 0x6ee-0x6f0 (2)
0x6e0|                                          41   |              A |                    opcode: "i32.const" (0x41) 0x6ee-0x6ef (1)
0x6e0|                                             00|               .|                    n: 0 (valid) 0x6ef-0x6f0 (1)
     |                                               |                |                  [1]{}: in 0x6f0-0x6f2 (2)
0x6f0|41                                             |A               |                    opcode: "i32.const" (0x41) 0x6f0-0x6f1 (1)
0x6f0|   01                                          | .              |                    n: 1 (valid) 0x6f1-0x6f2 (1)
     |                                               |                |                  [2]{}: in 0x6f2-0x6f4 (2)
0x6f0|      41                                       |  A             |                    opcode: "i32.const" (0x41) 0x6f2-0x6f3 (1)
0x6f0|         07                                    |   .            |                    n: 7 (valid) 0x6f3-0x6f4 (1)
     |                                               |                |                  [3]{}: in 0x6f4-0x6f6 (2)
0x6f0|            22                                 |    "           |                    opcode: "local.tee" (0x22) 0x6f4-0x6f5 (1)
0x6f0|               00                              |     .          |                    x: 0 (valid) 0x6f5-0x6f6 (1)
     |                                               |                |                  [4]{}: in 0x6f6-0x6f7 (1)
0x6f0|                  1b                           |      .         |                    opcode: "select" (0x1b) 0x6f6-0x6f7 (1)
     |                                               |                |                  [5]{}: in 0x6f7-0x6f8 (1)
0x6f0|                     0b                        |       .        |                    opcode: "end" (0xb) 0x6f7-0x6f8 (1)
     |                                               |                |            [32]{}: code 0x6f8-0x6fd (5)
0x6f0|                        04                     |        .       |              size: 4 (valid) 0x6f8-0x6f9 (1)
     |                                               |                |              code{}: 0x6f9-0x6fd (4)
     |                                               |                |                t{}: 0x6f9-0x6fa (1)
0x6f0|                           00                  |         .      |                  n: 0 (valid) 0x6f9-0x6fa (1)
     |                                               |                |                  x[0:0]: 0x6fa-0x6fa (0)
     |                                               |                |                e[0:2]: 0x6fa-0x6fd (3)
     |                                               |                |                  [0]{}: in 0x6fa-0x6fc (2)
0x6f0|                              41               |          A     |                    opcode: "i32.const" (0x41) 0x6fa-0x6fb (1)
0x6f0|                                 7f            |           .    |                    n: -1 (valid) 0x6fb-0x6fc (1)
     |                                               |                |                  [1]{}: in 0x6fc-0x6fd (1)
0x6f0|                                    0b         |            .   |                    opcode: "end" (0xb) 0x6fc-0x6fd (1)
     |                                               |                |            [33]{}: code 0x6fd-0x70a (13)
0x6f0|                                       0c      |             .  |              size: 12 (valid) 0x6fd-0x6fe (1)
     |                                               |                |              code{}: 0x6fe-0x70a (12)
     |                                               |                |                t{}: 0x6fe-0x6ff (1)
0x6f0|                                          00   |              . |                  n: 0 (valid) 0x6fe-0x6ff (1)
     |                                               |                |                  x[0:0]: 0x6ff-0x6ff (0)
     |                                               |                |                e[0:6]: 0x6ff-0x70a (11)
     |                                               |                |                  [0]{}: in 0x6ff-0x701 (2)
0x6f0|                                             41|               A|                    opcode: "i32.const" (0x41) 0x6ff-0x700 (1)
0x700|0c                                             |.               |                    n: 12 (valid) 0x700-0x701 (1)
     |                                               |                |                  [1]{}: in 0x701-0x703 (2)
0x700|   22                                          | "              |                    opcode: "local.tee" (0x22) 0x701-0x702 (1)
0x700|      00                                       |  .             |                    x: 0 (valid) 0x702-0x703 (1)
     |                                               |                |                  [2]{}: in 0x703-0x705 (2)
0x700|         41                                    |   A            |                    opcode: "i32.const" (0x41) 0x703-0x704 (1)
0x700|            02                                 |    .           |                    n: 2 (valid) 0x704-0x705 (1)
     |                                               |                |                  [3]{}: in 0x705-0x707 (2)
0x700|               41                              |     A          |                    opcode: "i32.const" (0x41) 0x705-0x706 (1)
0x700|                  03                           |      .         |                    n: 3 (valid) 0x706-0x707 (1)
     |                                               |                |                  [4]{}: in 0x707-0x709 (2)
0x700|                     10                        |       .        |                    opcode: "call" (0x10) 0x707-0x708 (1)
0x700|                        20                     |                |                    x: 32 (valid) 0x708-0x709 (1)
     |                                               |                |                  [5]{}: in 0x709-0x70a (1)
0x700|                           0b                  |         .      |                    opcode: "end" (0xb) 0x709-0x70a (1)
     |                                               |                |            [34]{}: code 0x70a-0x717 (13)
0x700|                              0c               |          .     |              size: 12 (valid) 0x70a-0x70b (1)
     |                                               |                |              code{}: 0x70b-0x717 (12)
     |                                               |                |                t{}: 0x70b-0x70c (1)
0x700|                                 00            |           .    |                  n: 0 (valid) 0x70b-0x70c (1)
     |                                               |                |                  x[0:0]: 0x70c-0x70c (0)
     |                                               |                |                e[0:6]: 0x70c-0x717 (11)
     |                                               |                |                  [0]{}: in 0x70c-0x70e (2)
0x700|                                    41         |            A   |                    opcode: "i32.const" (0x41) 0x70c-0x70d (1)
0x700|                                       01      |             .  |                    n: 1 (valid) 0x70d-0x70e (1)
     |                                               |                |                  [1]{}: in 0x70e-0x710 (2)
0x700|                                          41   |              A |                    opcode: "i32.const" (0x41) 0x70e-0x70f (1)
0x700|                                             0d|               .|                    n: 13 (valid) 0x70f-0x710 (1)
     |                                               |                |                  [2]{}: in 0x710-0x712 (2)
0x710|22                                             |"               |                    opcode: "local.tee" (0x22) 0x710-0x711 (1)
0x710|   00                                          | .              |                    x: 0 (valid) 0x711-0x712 (1)
     |                                               |                |                  [3]{}: in 0x712-0x714 (2)
0x710|      41                                       |  A             |                    opcode: "i32.const" (0x41) 0x712-0x713 (1)
0x710|         03                                    |   .            |                    n: 3 (valid) 0x713-0x714 (1)
     |                                               |                |                  [4]{}: in 0x714-0x716 (2)
0x710|            10                                 |    .           |                    opcode: "call" (0x10) 0x714-0x715 (1)
0x710|               20                              |                |                    x: 32 (valid) 0x715-0x716 (1)
     |                                               |                |                  [5]{}: in 0x716-0x717 (1)
0x710|                  0b                           |      .         |                    opcode: "end" (0xb) 0x716-0x717 (1)
     |                                               |                |            [35]{}: code 0x717-0x724 (13)
0x710|                     0c                        |       .        |              size: 12 (valid) 0x717-0x718 (1)
     |                                               |                |              code{}: 0x718-0x724 (12)
     |                                               |                |                t{}: 0x718-0x719 (1)
0x710|                        00                     |        .       |                  n: 0 (valid) 0x718-0x719 (1)
     |                                               |                |                  x[0:0]: 0x719-0x719 (0)
     |                                               |                |                e[0:6]: 0x719-0x724 (11)
     |                                               |                |                  [0]{}: in 0x719-0x71b (2)
0x710|                           41                  |         A      |                    opcode: "i32.const" (0x41) 0x719-0x71a (1)
0x710|                              01               |          .     |                    n: 1 (valid) 0x71a-0x71b (1)
     |                                               |                |                  [1]{}: in 0x71b-0x71d (2)
0x710|                                 41            |           A    |                    opcode: "i32.const" (0x41) 0x71b-0x71c (1)
0x710|                                    02         |            .   |                    n: 2 (valid) 0x71c-0x71d (1)
     |                                               |                |                  [2]{}: in 0x71d-0x71f (2)
0x710|                                       41      |             A  |                    opcode: "i32.const" (0x41) 0x71d-0x71e (1)
0x710|                                          0e   |              . |                    n: 14 (valid) 0x71e-0x71f (1)
     |                                               |                |                  [3]{}: in 0x71f-0x721 (2)
0x710|                                             22|               "|                    opcode: "local.tee" (0x22) 0x71f-0x720 (1)
0x720|00                                             |.               |                    x: 0 (valid) 0x720-0x721 (1)
     |                                               |                |                  [4]{}: in 0x721-0x723 (2)
0x720|   10                                          | .              |                    opcode: "call" (0x10) 0x721-0x722 (1)
0x720|      20                                       |                |                    x: 32 (valid) 0x722-0x723 (1)
     |                                               |                |                  [5]{}: in 0x723-0x724 (1)
0x720|         0b                                    |   .            |                    opcode: "end" (0xb) 0x723-0x724 (1)
     |                                               |                |            [36]{}: code 0x724-0x734 (16)
0x720|            0f                                 |    .           |              size: 15 (valid) 0x724-0x725 (1)
     |                                               |                |              code{}: 0x725-0x734 (15)
     |                                               |                |                t{}: 0x725-0x726 (1)
0x720|               00                              |     .          |                  n: 0 (valid) 0x725-0x726 (1)
     |                                               |                |                  x[0:0]: 0x726-0x726 (0)
     |                                               |                |                e[0:7]: 0x726-0x734 (14)
     |                                               |                |                  [0]{}: in 0x726-0x728 (2)
0x720|                  41                           |      A         |                    opcode: "i32.const" (0x41) 0x726-0x727 (1)
0x720|                     01                        |       .        |                    n: 1 (valid) 0x727-0x728 (1)
     |                                               |                |                  [1]{}: in 0x728-0x72a (2)
0x720|                        22                     |        "       |                    opcode: "local.tee" (0x22) 0x728-0x729 (1)
0x720|                           00                  |         .      |                    x: 0 (valid) 0x729-0x72a (1)
     |                                               |                |                  [2]{}: in 0x72a-0x72c (2)
0x720|                              41               |          A     |                    opcode: "i32.const" (0x41) 0x72a-0x72b (1)
0x720|                                 02            |           .    |                    n: 2 (valid) 0x72b-0x72c (1)
     |                                               |                |                  [3]{}: in 0x72c-0x72e (2)
0x720|                                    41         |            A   |                    opcode: "i32.const" (0x41) 0x72c-0x72d (1)
0x720|                                       03      |             .  |                    n: 3 (valid) 0x72d-0x72e (1)
     |                                               |                |                  [4]{}: in 0x72e-0x730 (2)
0x720|                                          41   |              A |                    opcode: "i32.const" (0x41) 0x72e-0x72f (1)
0x720|                                             00|               .|                    n: 0 (valid) 0x72f-0x730 (1)
     |                                               |                |                  [5]{}: in 0x730-0x733 (3)
0x730|11                                             |.               |                    opcode: "call_indirect" (0x11) 0x730-0x731 (1)
0x730|   00                                          | .              |                    y: 0 (valid) 0x731-0x732 (1)
0x730|      00                                       |  .             |                    x: 0 (valid) 0x732-0x733 (1)
     |                                               |                |                  [6]{}: in 0x733-0x734 (1)
0x730|         0b                                    |   .            |                    opcode: "end" (0xb) 0x733-0x734 (1)
     |                                               |                |            [37]{}: code 0x734-0x744 (16)
0x730|            0f                                 |    .           |              size: 15 (valid) 0x734-0x735 (1)
     |                                               |                |              code{}: 0x735-0x744 (15)
     |                                               |                |                t{}: 0x735-0x736 (1)
0x730|               00                              |     .          |                  n: 0 (valid) 0x735-0x736 (1)
     |                                               |                |                  x[0:0]: 0x736-0x736 (0)
     |                                               |                |                e[0:7]: 0x736-0x744 (14)
     |                                               |                |                  [0]{}: in 0x736-0x738 (2)
0x730|                  41                           |      A         |                    opcode: "i32.const" (0x41) 0x736-0x737 (1)
0x730|                     01                        |       .        |                    n: 1 (valid) 0x737-0x738 (1)
     |                                               |                |                  [1]{}: in 0x738-0x73a (2)
0x730|                        41                     |        A       |                    opcode: "i32.const" (0x41) 0x738-0x739 (1)
0x730|                           02                  |         .      |                    n: 2 (valid) 0x739-0x73a (1)
     |                                               |                |                  [2]{}: in 0x73a-0x73c (2)
0x730|                              22               |          "     |                    opcode: "local.tee" (0x22) 0x73a-0x73b (1)
0x730|                                 00            |           .    |                    x: 0 (valid) 0x73b-0x73c (1)
     |                                               |                |                  [3]{}: in 0x73c-0x73e (2)
0x730|                                    41         |            A   |                    opcode: "i32.const" (0x41) 0x73c-0x73d (1)
0x730|                                       03      |             .  |                    n: 3 (valid) 0x73d-0x73e (1)
     |                                               |                |                  [4]{}: in 0x73e-0x740 (2)
0x730|                                          41   |              A |                    opcode: "i32.const" (0x41) 0x73e-0x73f (1)
0x730|                                             00|               .|                    n: 0 (valid) 0x73f-0x740 (1)
     |                                               |                |                  [5]{}: in 0x740-0x743 (3)
0x740|11                                             |.               |                    opcode: "call_indirect" (0x11) 0x740-0x741 (1)
0x740|   00                                          | .              |                    y: 0 (valid) 0x741-0x742 (1)
0x740|      00                                       |  .             |                    x: 0 (valid) 0x742-0x743 (1)
     |                                               |                |                  [6]{}: in 0x743-0x744 (1)
0x740|         0b                                    |   .            |                    opcode: "end" (0xb) 0x743-0x744 (1)
     |                                               |                |            [38]{}: code 0x744-0x754 (16)
0x740|            0f                                 |    .           |              size: 15 (valid) 0x744-0x745 (1)
     |                                               |                |              code{}: 0x745-0x754 (15)
     |                                               |                |                t{}: 0x745-0x746 (1)
0x740|               00                              |     .          |                  n: 0 (valid) 0x745-0x746 (1)
     |                                               |                |                  x[0:0]: 0x746-0x746 (0)
     |                                               |                |                e[0:7]: 0x746-0x754 (14)
     |                                               |                |                  [0]{}: in 0x746-0x748 (2)
0x740|                  41                           |      A         |                    opcode: "i32.const" (0x41) 0x746-0x747 (1)
0x740|                     01                        |       .        |                    n: 1 (valid) 0x747-0x748 (1)
     |                                               |                |                  [1]{}: in 0x748-0x74a (2)
0x740|                        41                     |        A       |                    opcode: "i32.const" (0x41) 0x748-0x749 (1)
0x740|                           02                  |         .      |                    n: 2 (valid) 0x749-0x74a (1)
     |                                               |                |                  [2]{}: in 0x74a-0x74c (2)
0x740|                              41               |          A     |                    opcode: "i32.const" (0x41) 0x74a-0x74b (1)
0x740|                                 03            |           .    |                    n: 3 (valid) 0x74b-0x74c (1)
     |                                               |                |                  [3]{}: in 0x74c-0x74e (2)
0x740|                                    22         |            "   |                    opcode: "local.tee" (0x22) 0x74c-0x74d (1)
0x740|                                       00      |             .  |                    x: 0 (valid) 0x74d-0x74e (1)
     |                                               |                |                  [4]{}: in 0x74e-0x750 (2)
0x740|                                          41   |              A |                    opcode: "i32.const" (0x41) 0x74e-0x74f (1)
0x740|                                             00|               .|                    n: 0 (valid) 0x74f-0x750 (1)
     |                                               |                |                  [5]{}: in 0x750-0x753 (3)
0x750|11                                             |.               |                    opcode: "call_indirect" (0x11) 0x750-0x751 (1)
0x750|   00                                          | .              |                    y: 0 (valid) 0x751-0x752 (1)
0x750|      00                                       |  .             |                    x: 0 (valid) 0x752-0x753 (1)
     |                                               |                |                  [6]{}: in 0x753-0x754 (1)
0x750|         0b                                    |   .            |                    opcode: "end" (0xb) 0x753-0x754 (1)
     |                                               |                |            [39]{}: code 0x754-0x764 (16)
0x750|            0f                                 |    .           |              size: 15 (valid) 0x754-0x755 (1)
     |                                               |                |              code{}: 0x755-0x764 (15)
     |                                               |                |                t{}: 0x755-0x756 (1)
0x750|               00                              |     .          |                  n: 0 (valid) 0x755-0x756 (1)
     |                                               |                |                  x[0:0]: 0x756-0x756 (0)
     |                                               |                |                e[0:7]: 0x756-0x764 (14)
     |                                               |                |                  [0]{}: in 0x756-0x758 (2)
0x750|                  41                           |      A         |                    opcode: "i32.const" (0x41) 0x756-0x757 (1)
0x750|                     01                        |       .        |                    n: 1 (valid) 0x757-0x758 (1)
     |                                               |                |                  [1]{}: in 0x758-0x75a (2)
0x750|                        41                     |        A       |                    opcode: "i32.const" (0x41) 0x758-0x759 (1)
0x750|                           02                  |         .      |                    n: 2 (valid) 0x759-0x75a (1)
     |                                               |                |                  [2]{}: in 0x75a-0x75c (2)
0x750|                              41               |          A     |                    opcode: "i32.const" (0x41) 0x75a-0x75b (1)
0x750|                                 03            |           .    |                    n: 3 (valid) 0x75b-0x75c (1)
     |                                               |                |                  [3]{}: in 0x75c-0x75e (2)
0x750|                                    41         |            A   |                    opcode: "i32.const" (0x41) 0x75c-0x75d (1)
0x750|                                       00      |             .  |                    n: 0 (valid) 0x75d-0x75e (1)
     |                                               |                |                  [4]{}: in 0x75e-0x760 (2)
0x750|                                          22   |              " |                    opcode: "local.tee" (0x22) 0x75e-0x75f (1)
0x750|                                             00|               .|                    x: 0 (valid) 0x75f-0x760 (1)
     |                                               |                |                  [5]{}: in 0x760-0x763 (3)
0x760|11                                             |.               |                    opcode: "call_indirect" (0x11) 0x760-0x761 (1)
0x760|   00                                          | .              |                    y: 0 (valid) 0x761-0x762 (1)
0x760|      00                                       |  .             |                    x: 0 (valid) 0x762-0x763 (1)
     |                                               |                |                  [6]{}: in 0x763-0x764 (1)
0x760|         0b                                    |   .            |                    opcode: "end" (0xb) 0x763-0x764 (1)
     |                                               |                |            [40]{}: code 0x764-0x76f (11)
0x760|            0a                                 |    .           |              size: 10 (valid) 0x764-0x765 (1)
     |                                               |                |              code{}: 0x765-0x76f (10)
     |                                               |                |                t{}: 0x765-0x768 (3)
0x760|               01                              |     .          |                  n: 1 (valid) 0x765-0x766 (1)
     |                                               |                |                  x[0:1]: 0x766-0x768 (2)
     |                                               |                |                    [0]{}: t 0x766-0x768 (2)
0x760|                  01                           |      .         |                      n: 1 (valid) 0x766-0x767 (1)
0x760|                     7f                        |       .        |                      t: "i32" (0x7f) 0x767-0x768 (1)
     |                                               |                |                e[0:4]: 0x768-0x76f (7)
     |                                               |                |                  [0]{}: in 0x768-0x76a (2)
0x760|                        41                     |        A       |                    opcode: "i32.const" (0x41) 0x768-0x769 (1)
0x760|                           01                  |         .      |                    n: 1 (valid) 0x769-0x76a (1)
     |                                               |                |                  [1]{}: in 0x76a-0x76c (2)
0x760|                              22               |          "     |                    opcode: "local.tee" (0x22) 0x76a-0x76b (1)
0x760|                                 00            |           .    |                    x: 0 (valid) 0x76b-0x76c (1)
     |                                               |                |                  [2]{}: in 0x76c-0x76e (2)
0x760|                                    21         |            !   |                    opcode: "local.set" (0x21) 0x76c-0x76d (1)
0x760|                                       00      |             .  |                    x: 0 (valid) 0x76d-0x76e (1)
     |                                               |                |                  [3]{}: in 0x76e-0x76f (1)
0x760|                                          0b   |              . |                    opcode: "end" (0xb) 0x76e-0x76f (1)
     |                                               |                |            [41]{}: code 0x76f-0x778 (9)
0x760|                                             08|               .|              size: 8 (valid) 0x76f-0x770 (1)
     |                                               |                |              code{}: 0x770-0x778 (8)
     |                                               |                |                t{}: 0x770-0x771 (1)
0x770|00                                             |.               |                  n: 0 (valid) 0x770-0x771 (1)
     |                                               |                |                  x[0:0]: 0x771-0x771 (0)
     |                                               |                |                e[0:4]: 0x771-0x778 (7)
     |                                               |                |                  [0]{}: in 0x771-0x773 (2)
0x770|   41                                          | A              |                    opcode: "i32.const" (0x41) 0x771-0x772 (1)
0x770|      01                                       |  .             |                    n: 1 (valid) 0x772-0x773 (1)
     |                                               |                |                  [1]{}: in 0x773-0x775 (2)
0x770|         22                                    |   "            |                    opcode: "local.tee" (0x22) 0x773-0x774 (1)
0x770|            00                                 |    .           |                    x: 0 (valid) 0x774-0x775 (1)
     |                                               |                |                  [2]{}: in 0x775-0x777 (2)
0x770|               22                              |     "          |                    opcode: "local.tee" (0x22) 0x775-0x776 (1)
0x770|                  00                           |      .         |                    x: 0 (valid) 0x776-0x777 (1)
     |                                               |                |                  [3]{}: in 0x777-0x778 (1)
0x770|                     0b                        |       .        |                    opcode: "end" (0xb) 0x777-0x778 (1)
     |                                               |                |            [42]{}: code 0x778-0x783 (11)
0x770|                        0a                     |        .       |              size: 10 (valid) 0x778-0x779 (1)
     |                                               |                |              code{}: 0x779-0x783 (10)
     |                                               |                |                t{}: 0x779-0x77c (3)
0x770|                           01                  |         .      |                  n: 1 (valid) 0x779-0x77a (1)
     |                                               |                |                  x[0:1]: 0x77a-0x77c (2)
     |                                               |                |                    [0]{}: t 0x77a-0x77c (2)
0x770|                              01               |          .     |                      n: 1 (valid) 0x77a-0x77b (1)
0x770|                                 7f            |           .    |                      t: "i32" (0x7f) 0x77b-0x77c (1)
     |                                               |                |                e[0:4]: 0x77c-0x783 (7)
     |                                               |                |                  [0]{}: in 0x77c-0x77e (2)
0x770|                                    41         |            A   |                    opcode: "i32.const" (0x41) 0x77c-0x77d (1)
0x770|                                       01      |             .  |                    n: 1 (valid) 0x77d-0x77e (1)
     |                                               |                |                  [1]{}: in 0x77e-0x780 (2)
0x770|                                          22   |              " |                    opcode: "local.tee" (0x22) 0x77e-0x77f (1)
0x770|                                             00|               .|                    x: 0 (valid) 0x77f-0x780 (1)
     |                                               |                |                  [2]{}: in 0x780-0x782 (2)
0x780|24                                             |$               |                    opcode: "global.set" (0x24) 0x780-0x781 (1)
0x780|   00                                          | .              |                    x: 0 (valid) 0x781-0x782 (1)
     |                                               |                |                  [3]{}: in 0x782-0x783 (1)
0x780|      0b                                       |  .             |                    opcode: "end" (0xb) 0x782-0x783 (1)
     |                                               |                |            [43]{}: code 0x783-0x78d (10)
0x780|         09                                    |   .            |              size: 9 (valid) 0x783-0x784 (1)
     |                                               |                |              code{}: 0x784-0x78d (9)
     |                                               |                |                t{}: 0x784-0x785 (1)
0x780|            00                                 |    .           |                  n: 0 (valid) 0x784-0x785 (1)
     |                                               |                |                  x[0:0]: 0x785-0x785 (0)
     |                                               |                |                e[0:4]: 0x785-0x78d (8)
     |                                               |                |                  [0]{}: in 0x785-0x787 (2)
0x780|               41                              |     A          |                    opcode: "i32.const" (0x41) 0x785-0x786 (1)
0x780|                  01                           |      .         |                    n: 1 (valid) 0x786-0x787 (1)
     |                                               |                |                  [1]{}: in 0x787-0x789 (2)
0x780|                     22                        |       "        |                    opcode: "local.tee" (0x22) 0x787-0x788 (1)
0x780|                        00                     |        .       |                    x: 0 (valid) 0x788-0x789 (1)
     |                                               |                |                  [2]{}: in 0x789-0x78c (3)
0x780|                           28                  |         (      |                    opcode: "i32.load" (0x28) 0x789-0x78a (1)
     |                                               |                |                    m{}: 0x78a-0x78c (2)
0x780|                              02               |          .     |                      a: 2 (valid) 0x78a-0x78b (1)
0x780|                                 00            |           .    |                      o: 0 (valid) 0x78b-0x78c (1)
     |                                               |                |                  [3]{}: in 0x78c-0x78d (1)
0x780|                                    0b         |            .   |                    opcode: "end" (0xb) 0x78c-0x78d (1)
     |                                               |                |            [44]{}: code 0x78d-0x797 (10)
0x780|                                       09      |             .  |              size: 9 (valid) 0x78d-0x78e (1)
     |                                               |                |              code{}: 0x78e-0x797 (9)
     |                                               |                |                t{}: 0x78e-0x78f (1)
0x780|                                          00   |              . |                  n: 0 (valid) 0x78e-0x78f (1)
     |                                               |                |                  x[0:0]: 0x78f-0x78f (0)
     |                                               |                |                e[0:4]: 0x78f-0x797 (8)
     |                                               |                |                  [0]{}: in 0x78f-0x791 (2)
0x780|                                             41|               A|                    opcode: "i32.const" (0x41) 0x78f-0x790 (1)
0x790|03                                             |.               |                    n: 3 (valid) 0x790-0x791 (1)
     |                                               |                |                  [1]{}: in 0x791-0x793 (2)
0x790|   22                                          | "              |                    opcode: "local.tee" (0x22) 0x791-0x792 (1)
0x790|      00                                       |  .             |                    x: 0 (valid) 0x792-0x793 (1)
     |                                               |                |                  [2]{}: in 0x793-0x796 (3)
0x790|         2c                                    |   ,            |                    opcode: "i32.load8_s" (0x2c) 0x793-0x794 (1)
     |                                               |                |                    m{}: 0x794-0x796 (2)
0x790|            00                                 |    .           |                      a: 0 (valid) 0x794-0x795 (1)
0x790|               00                              |     .          |                      o: 0 (valid) 0x795-0x796 (1)
     |                                               |                |                  [3]{}: in 0x796-0x797 (1)
0x790|                  0b                           |      .         |                    opcode: "end" (0xb) 0x796-0x797 (1)
     |                                               |                |            [45]{}: code 0x797-0x7a3 (12)
0x790|                     0b                        |       .        |              size: 11 (valid) 0x797-0x798 (1)
     |                                               |                |              code{}: 0x798-0x7a3 (11)
     |                                               |                |                t{}: 0x798-0x799 (1)
0x790|                        00                     |        .       |                  n: 0 (valid) 0x798-0x799 (1)
     |                                               |                |                  x[0:0]: 0x799-0x799 (0)
     |                                               |                |                e[0:5]: 0x799-0x7a3 (10)
     |                                               |                |                  [0]{}: in 0x799-0x79b (2)
0x790|                           41                  |         A      |                    opcode: "i32.const" (0x41) 0x799-0x79a (1)
0x790|                              1e               |          .     |                    n: 30 (valid) 0x79a-0x79b (1)
     |                                               |                |                  [1]{}: in 0x79b-0x79d (2)
0x790|                                 22            |           "    |                    opcode: "local.tee" (0x22) 0x79b-0x79c (1)
0x790|                                    00         |            .   |                    x: 0 (valid) 0x79c-0x79d (1)
     |                                               |                |                  [2]{}: in 0x79d-0x79f (2)
0x790|                                       41      |             A  |                    opcode: "i32.const" (0x41) 0x79d-0x79e (1)
0x790|                                          07   |              . |                    n: 7 (valid) 0x79e-0x79f (1)
     |                                               |                |                  [3]{}: in 0x79f-0x7a2 (3)
0x790|                                             36|               6|                    opcode: "i32.store" (0x36) 0x79f-0x7a0 (1)
     |                                               |                |                    m{}: 0x7a0-0x7a2 (2)
0x7a0|02                                             |.               |                      a: 2 (valid) 0x7a0-0x7a1 (1)
0x7a0|   00                                          | .              |                      o: 0 (valid) 0x7a1-0x7a2 (1)
     |                                               |                |                  [4]{}: in 0x7a2-0x7a3 (1)
0x7a0|      0b                                       |  .             |                    opcode: "end" (0xb) 0x7a2-0x7a3 (1)
     |                                               |                |            [46]{}: code 0x7a3-0x7af (12)
0x7a0|         0b                                    |   .            |              size: 11 (valid) 0x7a3-0x7a4 (1)
     |                                               |                |              code{}: 0x7a4-0x7af (11)
     |                                               |                |                t{}: 0x7a4-0x7a5 (1)
0x7a0|            00                                 |    .           |                  n: 0 (valid) 0x7a4-0x7a5 (1)
     |                                               |                |                  x[0:0]: 0x7a5-0x7a5 (0)
     |                                               |                |                e[0:5]: 0x7a5-0x7af (10)
     |                                               |                |                  [0]{}: in 0x7a5-0x7a7 (2)
0x7a0|               41                              |     A          |                    opcode: "i32.const" (0x41) 0x7a5-0x7a6 (1)
0x7a0|                  02                           |      .         |                    n: 2 (valid) 0x7a6-0x7a7 (1)
     |                                               |                |                  [1]{}: in 0x7a7-0x7a9 (2)
0x7a0|                     41                        |       A        |                    opcode: "i32.const" (0x41) 0x7a7-0x7a8 (1)
0x7a0|                        01                     |        .       |                    n: 1 (valid) 0x7a8-0x7a9 (1)
     |                                               |                |                  [2]{}: in 0x7a9-0x7ab (2)
0x7a0|                           22                  |         "      |                    opcode: "local.tee" (0x22) 0x7a9-0x7aa (1)
0x7a0|                              00               |          .     |                    x: 0 (valid) 0x7aa-0x7ab (1)
     |                                               |                |                  [3]{}: in 0x7ab-0x7ae (3)
0x7a0|                                 36            |           6    |                    opcode: "i32.store" (0x36) 0x7ab-0x7ac (1)
     |                                               |                |                    m{}: 0x7ac-0x7ae (2)
0x7a0|                                    02         |            .   |                      a: 2 (valid) 0x7ac-0x7ad (1)
0x7a0|                                       00      |             .  |                      o: 0 (valid) 0x7ad-0x7ae (1)
     |                                               |                |                  [4]{}: in 0x7ae-0x7af (1)
0x7a0|                                          0b   |              . |                    opcode: "end" (0xb) 0x7ae-0x7af (1)
     |                                               |                |            [47]{}: code 0x7af-0x7bb (12)
0x7a0|                                             0b|               .|              size: 11 (valid) 0x7af-0x7b0 (1)
     |                                               |                |              code{}: 0x7b0-0x7bb (11)
     |                                               |                |                t{}: 0x7b0-0x7b1 (1)
0x7b0|00                                             |.               |                  n: 0 (valid) 0x7b0-0x7b1 (1)
     |                                               |                |                  x[0:0]: 0x7b1-0x7b1 (0)
     |                                               |                |                e[0:5]: 0x7b1-0x7bb (10)
     |                                               |                |                  [0]{}: in 0x7b1-0x7b3 (2)
0x7b0|   41                                          | A              |                    opcode: "i32.const" (0x41) 0x7b1-0x7b2 (1)
0x7b0|      01                                       |  .             |                    n: 1 (valid) 0x7b2-0x7b3 (1)
     |                                               |                |                  [1]{}: in 0x7b3-0x7b5 (2)
0x7b0|         22                                    |   "            |                    opcode: "local.tee" (0x22) 0x7b3-0x7b4 (1)
0x7b0|            00                                 |    .           |                    x: 0 (valid) 0x7b4-0x7b5 (1)
     |                                               |                |                  [2]{}: in 0x7b5-0x7b7 (2)
0x7b0|               41                              |     A          |                    opcode: "i32.const" (0x41) 0x7b5-0x7b6 (1)
0x7b0|                  07                           |      .         |                    n: 7 (valid) 0x7b6-0x7b7 (1)
     |                                               |                |                  [3]{}: in 0x7b7-0x7ba (3)
0x7b0|                     3a                        |       :        |                    opcode: "i32.store8" (0x3a) 0x7b7-0x7b8 (1)
     |                                               |                |                    m{}: 0x7b8-0x7ba (2)
0x7b0|                        00                     |        .       |                      a: 0 (valid) 0x7b8-0x7b9 (1)
0x7b0|                           00                  |         .      |                      o: 0 (valid) 0x7b9-0x7ba (1)
     |                                               |                |                  [4]{}: in 0x7ba-0x7bb (1)
0x7b0|                              0b               |          .     |                    opcode: "end" (0xb) 0x7ba-0x7bb (1)
     |                                               |                |            [48]{}: code 0x7bb-0x7c7 (12)
0x7b0|                                 0b            |           .    |              size: 11 (valid) 0x7bb-0x7bc (1)
     |                                               |                |              code{}: 0x7bc-0x7c7 (11)
     |                                               |                |                t{}: 0x7bc-0x7bd (1)
0x7b0|                                    00         |            .   |                  n: 0 (valid) 0x7bc-0x7bd (1)
     |                                               |                |                  x[0:0]: 0x7bd-0x7bd (0)
     |                                               |                |                e[0:5]: 0x7bd-0x7c7 (10)
     |                                               |                |                  [0]{}: in 0x7bd-0x7bf (2)
0x7b0|                                       41      |             A  |                    opcode: "i32.const" (0x41) 0x7bd-0x7be (1)
0x7b0|                                          02   |              . |                    n: 2 (valid) 0x7be-0x7bf (1)
     |                                               |                |                  [1]{}: in 0x7bf-0x7c1 (2)
0x7b0|                                             41|               A|                    opcode: "i32.const" (0x41) 0x7bf-0x7c0 (1)
0x7c0|01                                             |.               |                    n: 1 (valid) 0x7c0-0x7c1 (1)
     |                                               |                |                  [2]{}: in 0x7c1-0x7c3 (2)
0x7c0|   22                                          | "              |                    opcode: "local.tee" (0x22) 0x7c1-0x7c2 (1)
0x7c0|      00                                       |  .             |                    x: 0 (valid) 0x7c2-0x7c3 (1)
     |                                               |                |                  [3]{}: in 0x7c3-0x7c6 (3)
0x7c0|         3b                                    |   ;            |                    opcode: "i32.store16" (0x3b) 0x7c3-0x7c4 (1)
     |                                               |                |                    m{}: 0x7c4-0x7c6 (2)
0x7c0|            01                                 |    .           |                      a: 1 (valid) 0x7c4-0x7c5 (1)
0x7c0|               00                              |     .          |                      o: 0 (valid) 0x7c5-0x7c6 (1)
     |                                               |                |                  [4]{}: in 0x7c6-0x7c7 (1)
0x7c0|                  0b                           |      .         |                    opcode: "end" (0xb) 0x7c6-0x7c7 (1)
     |                                               |                |            [49]{}: code 0x7c7-0x7d2 (11)
0x7c0|                     0a                        |       .        |              size: 10 (valid) 0x7c7-0x7c8 (1)
     |                                               |                |              code{}: 0x7c8-0x7d2 (10)
     |                                               |                |                t{}: 0x7c8-0x7c9 (1)
0x7c0|                        00                     |        .       |                  n: 0 (valid) 0x7c8-0x7c9 (1)
     |                                               |                |                  x[0:0]: 0x7c9-0x7c9 (0)
     |                                               |                |                e[0:4]: 0x7c9-0x7d2 (9)
     |                                               |                |                  [0]{}: in 0x7c9-0x7ce (5)
0x7c0|                           43                  |         C      |                    opcode: "f32.const" (0x43) 0x7c9-0x7ca (1)
0x7c0|                              e2 f1 80 7f      |          ....  |                    z: NaN 0x7ca-0x7ce (4)
     |                                               |                |                  [1]{}: in 0x7ce-0x7d0 (2)
0x7c0|                                          22   |              " |                    opcode: "local.tee" (0x22) 0x7ce-0x7cf (1)
0x7c0|                                             00|               .|                    x: 0 (valid) 0x7cf-0x7d0 (1)
     |                                               |                |                  [2]{}: in 0x7d0-0x7d1 (1)
0x7d0|8c                                             |.               |                    opcode: "f32.neg" (0x8c) 0x7d0-0x7d1 (1)
     |                                               |                |                  [3]{}: in 0x7d1-0x7d2 (1)
0x7d0|   0b                                          | .              |                    opcode: "end" (0xb) 0x7d1-0x7d2 (1)
     |                                               |                |            [50]{}: code 0x7d2-0x7dc (10)
0x7d0|      09                                       |  .             |              size: 9 (valid) 0x7d2-0x7d3 (1)
     |                                               |                |              code{}: 0x7d3-0x7dc (9)
     |                                               |                |                t{}: 0x7d3-0x7d4 (1)
0x7d0|         00                                    |   .            |                  n: 0 (valid) 0x7d3-0x7d4 (1)
     |                                               |                |                  x[0:0]: 0x7d4-0x7d4 (0)
     |                                               |                |                e[0:5]: 0x7d4-0x7dc (8)
     |                                               |                |                  [0]{}: in 0x7d4-0x7d6 (2)
0x7d0|            41                                 |    A           |                    opcode: "i32.const" (0x41) 0x7d4-0x7d5 (1)
0x7d0|               03                              |     .          |                    n: 3 (valid) 0x7d5-0x7d6 (1)
     |                                               |                |                  [1]{}: in 0x7d6-0x7d8 (2)
0x7d0|                  22                           |      "         |                    opcode: "local.tee" (0x22) 0x7d6-0x7d7 (1)
0x7d0|                     00                        |       .        |                    x: 0 (valid) 0x7d7-0x7d8 (1)
     |                                               |                |                  [2]{}: in 0x7d8-0x7da (2)
0x7d0|                        41                     |        A       |                    opcode: "i32.const" (0x41) 0x7d8-0x7d9 (1)
0x7d0|                           0a                  |         .      |                    n: 10 (valid) 0x7d9-0x7da (1)
     |                                               |                |                  [3]{}: in 0x7da-0x7db (1)
0x7d0|                              6a               |          j     |                    opcode: "i32.add" (0x6a) 0x7da-0x7db (1)
     |                                               |                |                  [4]{}: in 0x7db-0x7dc (1)
0x7d0|                                 0b            |           .    |                    opcode: "end" (0xb) 0x7db-0x7dc (1)
     |                                               |                |            [51]{}: code 0x7dc-0x7e6 (10)
0x7d0|                                    09         |            .   |              size: 9 (valid) 0x7dc-0x7dd (1)
     |                                               |                |              code{}: 0x7dd-0x7e6 (9)
     |                                               |                |                t{}: 0x7dd-0x7de (1)
0x7d0|                                       00      |             .  |                  n: 0 (valid) 0x7dd-0x7de (1)
     |                                               |                |                  x[0:0]: 0x7de-0x7de (0)
     |                                               |                |                e[0:5]: 0x7de-0x7e6 (8)
     |                                               |                |                  [0]{}: in 0x7de-0x7e0 (2)
0x7d0|                                          41   |              A |                    opcode: "i32.const" (0x41) 0x7de-0x7df (1)
0x7d0|                                             0a|               .|                    n: 10 (valid) 0x7df-0x7e0 (1)
     |                                               |                |                  [1]{}: in 0x7e0-0x7e2 (2)
0x7e0|41                                             |A               |                    opcode: "i32.const" (0x41) 0x7e0-0x7e1 (1)
0x7e0|   04                                          | .              |                    n: 4 (valid) 0x7e1-0x7e2 (1)
     |                                               |                |                  [2]{}: in 0x7e2-0x7e4 (2)
0x7e0|      22                                       |  "             |                    opcode: "local.tee" (0x22) 0x7e2-0x7e3 (1)
0x7e0|         00                                    |   .            |                    x: 0 (valid) 0x7e3-0x7e4 (1)
     |                                               |                |                  [3]{}: in 0x7e4-0x7e5 (1)
0x7e0|            6b                                 |    k           |                    opcode: "i32.sub" (0x6b) 0x7e4-0x7e5 (1)
     |                                               |                |                  [4]{}: in 0x7e5-0x7e6 (1)
0x7e0|               0b                              |     .          |                    opcode: "end" (0xb) 0x7e5-0x7e6 (1)
     |                                               |                |            [52]{}: code 0x7e6-0x7ee (8)
0x7e0|                  07                           |      .         |              size: 7 (valid) 0x7e6-0x7e7 (1)
     |                                               |                |              code{}: 0x7e7-0x7ee (7)
     |                                               |                |                t{}: 0x7e7-0x7e8 (1)
0x7e0|                     00                        |       .        |                  n: 0 (valid) 0x7e7-0x7e8 (1)
     |                                               |                |                  x[0:0]: 0x7e8-0x7e8 (0)
     |                                               |                |                e[0:4]: 0x7e8-0x7ee (6)
     |                                               |                |                  [0]{}: in 0x7e8-0x7ea (2)
0x7e0|                        41                     |        A       |                    opcode: "i32.const" (0x41) 0x7e8-0x7e9 (1)
0x7e0|                           00                  |         .      |                    n: 0 (valid) 0x7e9-0x7ea (1)
     |                                               |                |                  [1]{}: in 0x7ea-0x7ec (2)
0x7e0|                              22               |          "     |                    opcode: "local.tee" (0x22) 0x7ea-0x7eb (1)
0x7e0|                                 00            |           .    |                    x: 0 (valid) 0x7eb-0x7ec (1)
     |                                               |                |                  [2]{}: in 0x7ec-0x7ed (1)
0x7e0|                                    45         |            E   |                    opcode: "32.eqz" (0x45) 0x7ec-0x7ed (1)
     |                                               |                |                  [3]{}: in 0x7ed-0x7ee (1)
0x7e0|                                       0b      |             .  |                    opcode: "end" (0xb) 0x7ed-0x7ee (1)
     |                                               |                |            [53]{}: code 0x7ee-0x7f8 (10)
0x7e0|                                          09   |              . |              size: 9 (valid) 0x7ee-0x7ef (1)
     |                                               |                |              code{}: 0x7ef-0x7f8 (9)
     |                                               |                |                t{}: 0x7ef-0x7f0 (1)
0x7e0|                                             00|               .|                  n: 0 (valid) 0x7ef-0x7f0 (1)
     |                                               |                |                  x[0:0]: 0x7f0-0x7f0 (0)
     |                                               |                |                e[0:5]: 0x7f0-0x7f8 (8)
     |                                               |                |                  [0]{}: in 0x7f0-0x7f2 (2)
0x7f0|41                                             |A               |                    opcode: "i32.const" (0x41) 0x7f0-0x7f1 (1)
0x7f0|   2b                                          | +              |                    n: 43 (valid) 0x7f1-0x7f2 (1)
     |                                               |                |                  [1]{}: in 0x7f2-0x7f4 (2)
0x7f0|      22                                       |  "             |                    opcode: "local.tee" (0x22) 0x7f2-0x7f3 (1)
0x7f0|         00                                    |   .            |                    x: 0 (valid) 0x7f3-0x7f4 (1)
     |                                               |                |                  [2]{}: in 0x7f4-0x7f6 (2)
0x7f0|            41                                 |    A           |                    opcode: "i32.const" (0x41) 0x7f4-0x7f5 (1)
0x7f0|               0a                              |     .          |                    n: 10 (valid) 0x7f5-0x7f6 (1)
     |                                               |                |                  [3]{}: in 0x7f6-0x7f7 (1)
0x7f0|                  4c                           |      L         |                    opcode: "i32.le_s" (0x4c) 0x7f6-0x7f7 (1)
     |                                               |                |                  [4]{}: in 0x7f7-0x7f8 (1)
0x7f0|                     0b                        |       .        |                    opcode: "end" (0xb) 0x7f7-0x7f8 (1)
     |                                               |                |            [54]{}: code 0x7f8-0x802 (10)
0x7f0|                        09                     |        .       |              size: 9 (valid) 0x7f8-0x7f9 (1)
     |                                               |                |              code{}: 0x7f9-0x802 (9)
     |                                               |                |                t{}: 0x7f9-0x7fa (1)
0x7f0|                           00                  |         .      |                  n: 0 (valid) 0x7f9-0x7fa (1)
     |                                               |                |                  x[0:0]: 0x7fa-0x7fa (0)
     |                                               |                |                e[0:5]: 0x7fa-0x802 (8)
     |                                               |                |                  [0]{}: in 0x7fa-0x7fc (2)
0x7f0|                              41               |          A     |                    opcode: "i32.const" (0x41) 0x7fa-0x7fb (1)
0x7f0|                                 0a            |           .    |                    n: 10 (valid) 0x7fb-0x7fc (1)
     |                                               |                |                  [1]{}: in 0x7fc-0x7fe (2)
0x7f0|                                    41         |            A   |                    opcode: "i32.const" (0x41) 0x7fc-0x7fd (1)
0x7f0|                                       2a      |             *  |                    n: 42 (valid) 0x7fd-0x7fe (1)
     |                                               |                |                  [2]{}: in 0x7fe-0x800 (2)
0x7f0|                                          22   |              " |                    opcode: "local.tee" (0x22) 0x7fe-0x7ff (1)
0x7f0|                                             00|               .|                    x: 0 (valid) 0x7ff-0x800 (1)
     |                                               |                |                  [3]{}: in 0x800-0x801 (1)
0x800|47                                             |G               |                    opcode: "i32.ne" (0x47) 0x800-0x801 (1)
     |                                               |                |                  [4]{}: in 0x801-0x802 (1)
0x800|   0b                                          | .              |                    opcode: "end" (0xb) 0x801-0x802 (1)
     |                                               |                |            [55]{}: code 0x802-0x80a (8)
0x800|      07                                       |  .             |              size: 7 (valid) 0x802-0x803 (1)
     |                                               |                |              code{}: 0x803-0x80a (7)
     |                                               |                |                t{}: 0x803-0x804 (1)
0x800|         00                                    |   .            |                  n: 0 (valid) 0x803-0x804 (1)
     |                                               |                |                  x[0:0]: 0x804-0x804 (0)
     |                                               |                |                e[0:4]: 0x804-0x80a (6)
     |                                               |                |                  [0]{}: in 0x804-0x806 (2)
0x800|            42                                 |    B           |                    opcode: "i64.const" (0x42) 0x804-0x805 (1)
0x800|               29                              |     )          |                    n: 41 0x805-0x806 (1)
     |                                               |                |                  [1]{}: in 0x806-0x808 (2)
0x800|                  22                           |      "         |                    opcode: "local.tee" (0x22) 0x806-0x807 (1)
0x800|                     00                        |       .        |                    x: 0 (valid) 0x807-0x808 (1)
     |                                               |                |                  [2]{}: in 0x808-0x809 (1)
0x800|                        a7                     |        .       |                    opcode: "i32.wrap_i64" (0xa7) 0x808-0x809 (1)
     |                                               |                |                  [3]{}: in 0x809-0x80a (1)
0x800|                           0b                  |         .      |                    opcode: "end" (0xb) 0x809-0x80a (1)
     |                                               |                |            [56]{}: code 0x80a-0x813 (9)
0x800|                              08               |          .     |              size: 8 (valid) 0x80a-0x80b (1)
     |                                               |                |              code{}: 0x80b-0x813 (8)
     |                                               |                |                t{}: 0x80b-0x80c (1)
0x800|                                 00            |           .    |                  n: 0 (valid) 0x80b-0x80c (1)
     |                                               |                |                  x[0:0]: 0x80c-0x80c (0)
     |                                               |                |                e[0:4]: 0x80c-0x813 (7)
     |                                               |                |                  [0]{}: in 0x80c-0x80e (2)
0x800|                                    41         |            A   |                    opcode: "i32.const" (0x41) 0x80c-0x80d (1)
0x800|                                       28      |             (  |                    n: 40 (valid) 0x80d-0x80e (1)
     |                                               |                |                  [1]{}: in 0x80e-0x810 (2)
0x800|                                          22   |              " |                    opcode: "local.tee" (0x22) 0x80e-0x80f (1)
0x800|                                             00|               .|                    x: 0 (valid) 0x80f-0x810 (1)
     |                                               |                |                  [2]{}: in 0x810-0x812 (2)
0x810|40                                             |@               |                    opcode: "memory.grow" (0x40) 0x810-0x811 (1)
0x810|   00                                          | .              |                    reserved: 0x0 (valid) 0x811-0x812 (1)
     |                                               |                |                  [3]{}: in 0x812-0x813 (1)
0x810|      0b|                                      |  .|            |                    opcode: "end" (0xb) 0x812-0x813 (1)
