$ fq -d wasm dv local_set-0.wasm
     |00 01 02 03 04 05 06 07 08 09 0a 0b 0c 0d 0e 0f|0123456789abcdef|.{}: local_set-0.wasm (wasm) 0x0-0x2d1 (721)
0x000|00 61 73 6d                                    |.asm            |  magic: raw bits (valid) 0x0-0x4 (4)
0x000|            01 00 00 00                        |    ....        |  version: 1 0x4-0x8 (4)
     |                                               |                |  sections[0:4]: 0x8-0x2d1 (713)
     |                                               |                |    [0]{}: section 0x8-0x2f (39)
0x000|                        01                     |        .       |      id: "type_section" (1) 0x8-0x9 (1)
0x000|                           25                  |         %      |      size: 37 (valid) 0x9-0xa (1)
     |                                               |                |      content{}: 0xa-0x2f (37)
     |                                               |                |        ft{}: 0xa-0x2f (37)
0x000|                              07               |          .     |          n: 7 (valid) 0xa-0xb (1)
     |                                               |                |          x[0:7]: 0xb-0x2f (36)
     |                                               |                |            [0]{}: ft 0xb-0xe (3)
0x000|                                 60            |           `    |              tag: 0x60 (valid) 0xb-0xc (1)
     |                                               |                |              rt1{}: 0xc-0xd (1)
0x000|                                    00         |            .   |                n: 0 (valid) 0xc-0xd (1)
     |                                               |                |                x[0:0]: 0xd-0xd (0)
     |                                               |                |              rt2{}: 0xd-0xe (1)
0x000|                                       00      |             .  |                n: 0 (valid) 0xd-0xe (1)
     |                                               |                |                x[0:0]: 0xe-0xe (0)
     |                                               |                |            [1]{}: ft 0xe-0x12 (4)
0x000|                                          60   |              ` |              tag: 0x60 (valid) 0xe-0xf (1)
     |                                               |                |              rt1{}: 0xf-0x11 (2)
0x000|                                             01|               .|                n: 1 (valid) 0xf-0x10 (1)
     |                                               |                |                x[0:1]: 0x10-0x11 (1)
0x010|7f                                             |.               |                  [0]: "i32" (0x7f) t 0x10-0x11 (1)
     |                                               |                |              rt2{}: 0x11-0x12 (1)
0x010|   00                                          | .              |                n: 0 (valid) 0x11-0x12 (1)
     |                                               |                |                x[0:0]: 0x12-0x12 (0)
     |                                               |                |            [2]{}: ft 0x12-0x16 (4)
0x010|      60                                       |  `             |              tag: 0x60 (valid) 0x12-0x13 (1)
     |                                               |                |              rt1{}: 0x13-0x15 (2)
0x010|         01                                    |   .            |                n: 1 (valid) 0x13-0x14 (1)
     |                                               |                |                x[0:1]: 0x14-0x15 (1)
0x010|            7e                                 |    ~           |                  [0]: "i64" (0x7e) t 0x14-0x15 (1)
     |                                               |                |              rt2{}: 0x15-0x16 (1)
0x010|               00                              |     .          |                n: 0 (valid) 0x15-0x16 (1)
     |                                               |                |                x[0:0]: 0x16-0x16 (0)
     |                                               |                |            [3]{}: ft 0x16-0x1a (4)
0x010|                  60                           |      `         |              tag: 0x60 (valid) 0x16-0x17 (1)
     |                                               |                |              rt1{}: 0x17-0x19 (2)
0x010|                     01                        |       .        |                n: 1 (valid) 0x17-0x18 (1)
     |                                               |                |                x[0:1]: 0x18-0x19 (1)
0x010|                        7d                     |        }       |                  [0]: "f32" (0x7d) t 0x18-0x19 (1)
     |                                               |                |              rt2{}: 0x19-0x1a (1)
0x010|                           00                  |         .      |                n: 0 (valid) 0x19-0x1a (1)
     |                                               |                |                x[0:0]: 0x1a-0x1a (0)
     |                                               |                |            [4]{}: ft 0x1a-0x1e (4)
0x010|                              60               |          `     |              tag: 0x60 (valid) 0x1a-0x1b (1)
     |                                               |                |              rt1{}: 0x1b-0x1d (2)
0x010|                                 01            |           .    |                n: 1 (valid) 0x1b-0x1c (1)
     |                                               |                |                x[0:1]: 0x1c-0x1d (1)
0x010|                                    7c         |            |   |                  [0]: "f64" (0x7c) t 0x1c-0x1d (1)
     |                                               |                |              rt2{}: 0x1d-0x1e (1)
0x010|                                       00      |             .  |                n: 0 (valid) 0x1d-0x1e (1)
     |                                               |                |                x[0:0]: 0x1e-0x1e (0)
     |                                               |                |            [5]{}: ft 0x1e-0x26 (8)
0x010|                                          60   |              ` |              tag: 0x60 (valid) 0x1e-0x1f (1)
     |                                               |                |              rt1{}: 0x1f-0x25 (6)
0x010|                                             05|               .|                n: 5 (valid) 0x1f-0x20 (1)
     |                                               |                |                x[0:5]: 0x20-0x25 (5)
0x020|7e                                             |~               |                  [0]: "i64" (0x7e) t 0x20-0x21 (1)
0x020|   7d                                          | }              |                  [1]: "f32" (0x7d) t 0x21-0x22 (1)
0x020|      7c                                       |  |             |                  [2]: "f64" (0x7c) t 0x22-0x23 (1)
0x020|         7f                                    |   .            |                  [3]: "i32" (0x7f) t 0x23-0x24 (1)
0x020|            7f                                 |    .           |                  [4]: "i32" (0x7f) t 0x24-0x25 (1)
     |                                               |                |              rt2{}: 0x25-0x26 (1)
0x020|               00                              |     .          |                n: 0 (valid) 0x25-0x26 (1)
     |                                               |                |                x[0:0]: 0x26-0x26 (0)
     |                                               |                |            [6]{}: ft 0x26-0x2f (9)
0x020|                  60                           |      `         |              tag: 0x60 (valid) 0x26-0x27 (1)
     |                                               |                |              rt1{}: 0x27-0x2d (6)
0x020|                     05                        |       .        |                n: 5 (valid) 0x27-0x28 (1)
     |                                               |                |                x[0:5]: 0x28-0x2d (5)
0x020|                        7e                     |        ~       |                  [0]: "i64" (0x7e) t 0x28-0x29 (1)
0x020|                           7d                  |         }      |                  [1]: "f32" (0x7d) t 0x29-0x2a (1)
0x020|                              7c               |          |     |                  [2]: "f64" (0x7c) t 0x2a-0x2b (1)
0x020|                                 7f            |           .    |                  [3]: "i32" (0x7f) t 0x2b-0x2c (1)
0x020|                                    7f         |            .   |                  [4]: "i32" (0x7f) t 0x2c-0x2d (1)
     |                                               |                |              rt2{}: 0x2d-0x2f (2)
0x020|                                       01      |             .  |                n: 1 (valid) 0x2d-0x2e (1)
     |                                               |                |                x[0:1]: 0x2e-0x2f (1)
0x020|                                          7e   |              ~ |                  [0]: "i64" (0x7e) t 0x2e-0x2f (1)
     |                                               |                |    [1]{}: section 0x2f-0x45 (22)
0x020|                                             03|               .|      id: "function_section" (3) 0x2f-0x30 (1)
0x030|14                                             |.               |      size: 20 (valid) 0x30-0x31 (1)
     |                                               |                |      content{}: 0x31-0x45 (20)
     |                                               |                |        x{}: 0x31-0x45 (20)
0x030|   13                                          | .              |          n: 19 (valid) 0x31-0x32 (1)
     |                                               |                |          x[0:19]: 0x32-0x45 (19)
0x030|      00                                       |  .             |            [0]: 0 x (valid) 0x32-0x33 (1)
0x030|         00                                    |   .            |            [1]: 0 x (valid) 0x33-0x34 (1)
0x030|            00                                 |    .           |            [2]: 0 x (valid) 0x34-0x35 (1)
0x030|               00                              |     .          |            [3]: 0 x (valid) 0x35-0x36 (1)
0x030|                  01                           |      .         |            [4]: 1 x (valid) 0x36-0x37 (1)
0x030|                     02                        |       .        |            [5]: 2 x (valid) 0x37-0x38 (1)
0x030|                        03                     |        .       |            [6]: 3 x (valid) 0x38-0x39 (1)
0x030|                           04                  |         .      |            [7]: 4 x (valid) 0x39-0x3a (1)
0x030|                              05               |          .     |            [8]: 5 x (valid) 0x3a-0x3b (1)
0x030|                                 06            |           .    |            [9]: 6 x (valid) 0x3b-0x3c (1)
0x030|                                    01         |            .   |            [10]: 1 x (valid) 0x3c-0x3d (1)
0x030|                                       01      |             .  |            [11]: 1 x (valid) 0x3d-0x3e (1)
0x030|                                          01   |              . |            [12]: 1 x (valid) 0x3e-0x3f (1)
0x030|                                             01|               .|            [13]: 1 x (valid) 0x3f-0x40 (1)
0x040|01                                             |.               |            [14]: 1 x (valid) 0x40-0x41 (1)
0x040|   01                                          | .              |            [15]: 1 x (valid) 0x41-0x42 (1)
0x040|      01                                       |  .             |            [16]: 1 x (valid) 0x42-0x43 (1)
0x040|         01                                    |   .            |            [17]: 1 x (valid) 0x43-0x44 (1)
0x040|            01                                 |    .           |            [18]: 1 x (valid) 0x44-0x45 (1)
     |                                               |                |    [2]{}: section 0x45-0x17c (311)
0x040|               07                              |     .          |      id: "export_section" (7) 0x45-0x46 (1)
0x040|                  b4 02                        |      ..        |      size: 308 (valid) 0x46-0x48 (2)
     |                                               |                |      content{}: 0x48-0x17c (308)
     |                                               |                |        ex{}: 0x48-0x17c (308)
0x040|                        13                     |        .       |          n: 19 (valid) 0x48-0x49 (1)
     |                                               |                |          x[0:19]: 0x49-0x17c (307)
     |                                               |                |            [0]{}: ex 0x49-0x5a (17)
     |                                               |                |              nm{}: 0x49-0x58 (15)
0x040|                           0e                  |         .      |                n: 14 (valid) 0x49-0x4a (1)
0x040|                              74 79 70 65 2d 6c|          type-l|                b: "type-local-i32" 0x4a-0x58 (14)
0x050|6f 63 61 6c 2d 69 33 32                        |ocal-i32        |
     |                                               |                |              d{}: 0x58-0x5a (2)
0x050|                        00                     |        .       |                tag: "funcidx" (0x0) 0x58-0x59 (1)
0x050|                           00                  |         .      |                x: 0 (valid) 0x59-0x5a (1)
     |                                               |                |            [1]{}: ex 0x5a-0x6b (17)
     |                                               |                |              nm{}: 0x5a-0x69 (15)
0x050|                              0e               |          .     |                n: 14 (valid) 0x5a-0x5b (1)
0x050|                                 74 79 70 65 2d|           type-|                b: "type-local-i64" 0x5b-0x69 (14)
0x060|6c 6f 63 61 6c 2d 69 36 34                     |local-i64       |
     |                                               |                |              d{}: 0x69-0x6b (2)
0x060|                           00                  |         .      |                tag: "funcidx" (0x0) 0x69-0x6a (1)
0x060|                              01               |          .     |                x: 1 (valid) 0x6a-0x6b (1)
     |                                               |                |            [2]{}: ex 0x6b-0x7c (17)
     |                                               |                |              nm{}: 0x6b-0x7a (15)
0x060|                                 0e            |           .    |                n: 14 (valid) 0x6b-0x6c (1)
0x060|                                    74 79 70 65|            type|                b: "type-local-f32" 0x6c-0x7a (14)
0x070|2d 6c 6f 63 61 6c 2d 66 33 32                  |-local-f32      |
     |                                               |                |              d{}: 0x7a-0x7c (2)
0x070|                              00               |          .     |                tag: "funcidx" (0x0) 0x7a-0x7b (1)
0x070|                                 02            |           .    |                x: 2 (valid) 0x7b-0x7c (1)
     |                                               |                |            [3]{}: ex 0x7c-0x8d (17)
     |                                               |                |              nm{}: 0x7c-0x8b (15)
0x070|                                    0e         |            .   |                n: 14 (valid) 0x7c-0x7d (1)
0x070|                                       74 79 70|             typ|                b: "type-local-f64" 0x7d-0x8b (14)
0x080|65 2d 6c 6f 63 61 6c 2d 66 36 34               |e-local-f64     |
     |                                               |                |              d{}: 0x8b-0x8d (2)
0x080|                                 00            |           .    |                tag: "funcidx" (0x0) 0x8b-0x8c (1)
0x080|                                    03         |            .   |                x: 3 (valid) 0x8c-0x8d (1)
     |                                               |                |            [4]{}: ex 0x8d-0x9e (17)
     |                                               |                |              nm{}: 0x8d-0x9c (15)
0x080|                                       0e      |             .  |                n: 14 (valid) 0x8d-0x8e (1)
0x080|                                          74 79|              ty|                b: "type-param-i32" 0x8e-0x9c (14)
0x090|70 65 2d 70 61 72 61 6d 2d 69 33 32            |pe-param-i32    |
     |                                               |                |              d{}: 0x9c-0x9e (2)
0x090|                                    00         |            .   |                tag: "funcidx" (0x0) 0x9c-0x9d (1)
0x090|                                       04      |             .  |                x: 4 (valid) 0x9d-0x9e (1)
     |                                               |                |            [5]{}: ex 0x9e-0xaf (17)
     |                                               |                |              nm{}: 0x9e-0xad (15)
0x090|                                          0e   |              . |                n: 14 (valid) 0x9e-0x9f (1)
0x090|                                             74|               t|                b: "type-param-i64" 0x9f-0xad (14)
0x0a0|79 70 65 2d 70 61 72 61 6d 2d 69 36 34         |ype-param-i64   |
     |                                               |                |              d{}: 0xad-0xaf (2)
0x0a0|                                       00      |             .  |                tag: "funcidx" (0x0) 0xad-0xae (1)
0x0a0|                                          05   |              . |                x: 5 (valid) 0xae-0xaf (1)
     |                                               |                |            [6]{}: ex 0xaf-0xc0 (17)
     |                                               |                |              nm{}: 0xaf-0xbe (15)
0x0a0|                                             0e|               .|                n: 14 (valid) 0xaf-0xb0 (1)
0x0b0|74 79 70 65 2d 70 61 72 61 6d 2d 66 33 32      |type-param-f32  |                b: "type-param-f32" 0xb0-0xbe (14)
     |                                               |                |              d{}: 0xbe-0xc0 (2)
0x0b0|                                          00   |              . |                tag: "funcidx" (0x0) 0xbe-0xbf (1)
0x0b0|                                             06|               .|                x: 6 (valid) 0xbf-0xc0 (1)
     |                                               |                |            [7]{}: ex 0xc0-0xd1 (17)
     |                                               |                |              nm{}: 0xc0-0xcf (15)
0x0c0|0e                                             |.               |                n: 14 (valid) 0xc0-0xc1 (1)
0x0c0|   74 79 70 65 2d 70 61 72 61 6d 2d 66 36 34   | type-param-f64 |                b: "type-param-f64" 0xc1-0xcf (14)
     |                                               |                |              d{}: 0xcf-0xd1 (2)
0x0c0|                                             00|               .|                tag: "funcidx" (0x0) 0xcf-0xd0 (1)
0x0d0|07                                             |.               |                x: 7 (valid) 0xd0-0xd1 (1)
     |                                               |                |            [8]{}: ex 0xd1-0xde (13)
     |                                               |                |              nm{}: 0xd1-0xdc (11)
0x0d0|   0a                                          | .              |                n: 10 (valid) 0xd1-0xd2 (1)
0x0d0|      74 79 70 65 2d 6d 69 78 65 64            |  type-mixed    |                b: "type-mixed" 0xd2-0xdc (10)
     |                                               |                |              d{}: 0xdc-0xde (2)
0x0d0|                                    00         |            .   |                tag: "funcidx" (0x0) 0xdc-0xdd (1)
0x0d0|                                       08      |             .  |                x: 8 (valid) 0xdd-0xde (1)
     |                                               |                |            [9]{}: ex 0xde-0xe6 (8)
     |                                               |                |              nm{}: 0xde-0xe4 (6)
0x0d0|                                          05   |              . |                n: 5 (valid) 0xde-0xdf (1)
0x0d0|                                             77|               w|                b: "write" 0xdf-0xe4 (5)
0x0e0|72 69 74 65                                    |rite            |
     |                                               |                |              d{}: 0xe4-0xe6 (2)
0x0e0|            00                                 |    .           |                tag: "funcidx" (0x0) 0xe4-0xe5 (1)
0x0e0|               09                              |     .          |                x: 9 (valid) 0xe5-0xe6 (1)
     |                                               |                |            [10]{}: ex 0xe6-0xf7 (17)
     |                                               |                |              nm{}: 0xe6-0xf5 (15)
0x0e0|                  0e                           |      .         |                n: 14 (valid) 0xe6-0xe7 (1)
0x0e0|                     61 73 2d 62 6c 6f 63 6b 2d|       as-block-|                b: "as-block-value" 0xe7-0xf5 (14)
0x0f0|76 61 6c 75 65                                 |value           |
     |                                               |                |              d{}: 0xf5-0xf7 (2)
0x0f0|               00                              |     .          |                tag: "funcidx" (0x0) 0xf5-0xf6 (1)
0x0f0|                  0a                           |      .         |                x: 10 (valid) 0xf6-0xf7 (1)
     |                                               |                |            [11]{}: ex 0xf7-0x107 (16)
     |                                               |                |              nm{}: 0xf7-0x105 (14)
0x0f0|                     0d                        |       .        |                n: 13 (valid) 0xf7-0xf8 (1)
0x0f0|                        61 73 2d 6c 6f 6f 70 2d|        as-loop-|                b: "as-loop-value" 0xf8-0x105 (13)
0x100|76 61 6c 75 65                                 |value           |
     |                                               |                |              d{}: 0x105-0x107 (2)
0x100|               00                              |     .          |                tag: "funcidx" (0x0) 0x105-0x106 (1)
0x100|                  0b                           |      .         |                x: 11 (valid) 0x106-0x107 (1)
     |                                               |                |            [12]{}: ex 0x107-0x115 (14)
     |                                               |                |              nm{}: 0x107-0x113 (12)
0x100|                     0b                        |       .        |                n: 11 (valid) 0x107-0x108 (1)
0x100|                        61 73 2d 62 72 2d 76 61|        as-br-va|                b: "as-br-value" 0x108-0x113 (11)
0x110|6c 75 65                                       |lue             |
     |                                               |                |              d{}: 0x113-0x115 (2)
0x110|         00                                    |   .            |                tag: "funcidx" (0x0) 0x113-0x114 (1)
0x110|            0c                                 |    .           |                x: 12 (valid) 0x114-0x115 (1)
     |                                               |                |            [13]{}: ex 0x115-0x126 (17)
     |                                               |                |              nm{}: 0x115-0x124 (15)
0x110|               0e                              |     .          |                n: 14 (valid) 0x115-0x116 (1)
0x110|                  61 73 2d 62 72 5f 69 66 2d 76|      as-br_if-v|                b: "as-br_if-value" 0x116-0x124 (14)
0x120|61 6c 75 65                                    |alue            |
     |                                               |                |              d{}: 0x124-0x126 (2)
0x120|            00                                 |    .           |                tag: "funcidx" (0x0) 0x124-0x125 (1)
0x120|               0d                              |     .          |                x: 13 (valid) 0x125-0x126 (1)
     |                                               |                |            [14]{}: ex 0x126-0x13c (22)
     |                                               |                |              nm{}: 0x126-0x13a (20)
0x120|                  13                           |      .         |                n: 19 (valid) 0x126-0x127 (1)
0x120|                     61 73 2d 62 72 5f 69 66 2d|       as-br_if-|                b: "as-br_if-value-cond" 0x127-0x13a (19)
0x130|76 61 6c 75 65 2d 63 6f 6e 64                  |value-cond      |
     |                                               |                |              d{}: 0x13a-0x13c (2)
0x130|                              00               |          .     |                tag: "funcidx" (0x0) 0x13a-0x13b (1)
0x130|                                 0e            |           .    |                x: 14 (valid) 0x13b-0x13c (1)
     |                                               |                |            [15]{}: ex 0x13c-0x150 (20)
     |                                               |                |              nm{}: 0x13c-0x14e (18)
0x130|                                    11         |            .   |                n: 17 (valid) 0x13c-0x13d (1)
0x130|                                       61 73 2d|             as-|                b: "as-br_table-value" 0x13d-0x14e (17)
0x140|62 72 5f 74 61 62 6c 65 2d 76 61 6c 75 65      |br_table-value  |
     |                                               |                |              d{}: 0x14e-0x150 (2)
0x140|                                          00   |              . |                tag: "funcidx" (0x0) 0x14e-0x14f (1)
0x140|                                             0f|               .|                x: 15 (valid) 0x14f-0x150 (1)
     |                                               |                |            [16]{}: ex 0x150-0x162 (18)
     |                                               |                |              nm{}: 0x150-0x160 (16)
0x150|0f                                             |.               |                n: 15 (valid) 0x150-0x151 (1)
0x150|   61 73 2d 72 65 74 75 72 6e 2d 76 61 6c 75 65| as-return-value|                b: "as-return-value" 0x151-0x160 (15)
     |                                               |                |              d{}: 0x160-0x162 (2)
0x160|00                                             |.               |                tag: "funcidx" (0x0) 0x160-0x161 (1)
0x160|   10                                          | .              |                x: 16 (valid) 0x161-0x162 (1)
     |                                               |                |            [17]{}: ex 0x162-0x16f (13)
     |                                               |                |              nm{}: 0x162-0x16d (11)
0x160|      0a                                       |  .             |                n: 10 (valid) 0x162-0x163 (1)
0x160|         61 73 2d 69 66 2d 74 68 65 6e         |   as-if-then   |                b: "as-if-then" 0x163-0x16d (10)
     |                                               |                |              d{}: 0x16d-0x16f (2)
0x160|                                       00      |             .  |                tag: "funcidx" (0x0) 0x16d-0x16e (1)
0x160|                                          11   |              . |                x: 17 (valid) 0x16e-0x16f (1)
     |                                               |                |            [18]{}: ex 0x16f-0x17c (13)
     |                                               |                |              nm{}: 0x16f-0x17a (11)
0x160|                                             0a|               .|                n: 10 (valid) 0x16f-0x170 (1)
0x170|61 73 2d 69 66 2d 65 6c 73 65                  |as-if-else      |                b: "as-if-else" 0x170-0x17a (10)
     |                                               |                |              d{}: 0x17a-0x17c (2)
0x170|                              00               |          .     |                tag: "funcidx" (0x0) 0x17a-0x17b (1)
0x170|                                 12            |           .    |                x: 18 (valid) 0x17b-0x17c (1)
     |                                               |                |    [3]{}: section 0x17c-0x2d1 (341)
0x170|                                    0a         |            .   |      id: "code_section" (10) 0x17c-0x17d (1)
0x170|                                       d2 02   |             .. |      size: 338 (valid) 0x17d-0x17f (2)
     |                                               |                |      content{}: 0x17f-0x2d1 (338)
     |                                               |                |        code{}: 0x17f-0x2d1 (338)
0x170|                                             13|               .|          n: 19 (valid) 0x17f-0x180 (1)
     |                                               |                |          x[0:19]: 0x180-0x2d1 (337)
     |                                               |                |            [0]{}: code 0x180-0x189 (9)
0x180|08                                             |.               |              size: 8 (valid) 0x180-0x181 (1)
     |                                               |                |              code{}: 0x181-0x189 (8)
     |                                               |                |                t{}: 0x181-0x184 (3)
0x180|   01                                          | .              |                  n: 1 (valid) 0x181-0x182 (1)
     |                                               |                |                  x[0:1]: 0x182-0x184 (2)
     |                                               |                |                    [0]{}: t 0x182-0x184 (2)
0x180|      01                                       |  .             |                      n: 1 (valid) 0x182-0x183 (1)
0x180|         7f                                    |   .            |                      t: "i32" (0x7f) 0x183-0x184 (1)
     |                                               |                |                e[0:3]: 0x184-0x189 (5)
     |                                               |                |                  [0]{}: in 0x184-0x186 (2)
0x180|            41                                 |    A           |                    opcode: "i32.const" (0x41) 0x184-0x185 (1)
0x180|               00                              |     .          |                    n: 0 (valid) 0x185-0x186 (1)
     |                                               |                |                  [1]{}: in 0x186-0x188 (2)
0x180|                  21                           |      !         |                    opcode: "local.set" (0x21) 0x186-0x187 (1)
0x180|                     00                        |       .        |                    x: 0 (valid) 0x187-0x188 (1)
     |                                               |                |                  [2]{}: in 0x188-0x189 (1)
0x180|                        0b                     |        .       |                    opcode: "end" (0xb) 0x188-0x189 (1)
     |                                               |                |            [1]{}: code 0x189-0x192 (9)
0x180|                           08                  |         .      |              size: 8 (valid) 0x189-0x18a (1)
     |                                               |                |              code{}: 0x18a-0x192 (8)
     |                                               |                |                t{}: 0x18a-0x18d (3)
0x180|                              01               |          .     |                  n: 1 (valid) 0x18a-0x18b (1)
     |                                               |                |                  x[0:1]: 0x18b-0x18d (2)
     |                                               |                |                    [0]{}: t 0x18b-0x18d (2)
0x180|                                 01            |           .    |                      n: 1 (valid) 0x18b-0x18c (1)
0x180|                                    7e         |            ~   |                      t: "i64" (0x7e) 0x18c-0x18d (1)
     |                                               |                |                e[0:3]: 0x18d-0x192 (5)
     |                                               |                |                  [0]{}: in 0x18d-0x18f (2)
0x180|                                       42      |             B  |                    opcode: "i64.const" (0x42) 0x18d-0x18e (1)
0x180|                                          00   |              . |                    n: 0 0x18e-0x18f (1)
     |                                               |                |                  [1]{}: in 0x18f-0x191 (2)
0x180|                                             21|               !|                    opcode: "local.set" (0x21) 0x18f-0x190 (1)
0x190|00                                             |.               |                    x: 0 (valid) 0x190-0x191 (1)
     |                                               |                |                  [2]{}: in 0x191-0x192 (1)
0x190|   0b                                          | .              |                    opcode: "end" (0xb) 0x191-0x192 (1)
     |                                               |                |            [2]{}: code 0x192-0x19e (12)
0x190|      0b                                       |  .             |              size: 11 (valid) 0x192-0x193 (1)
     |                                               |                |              code{}: 0x193-0x19e (11)
     |                                               |                |                t{}: 0x193-0x196 (3)
0x190|         01                                    |   .            |                  n: 1 (valid) 0x193-0x194 (1)
     |                                               |                |                  x[0:1]: 0x194-0x196 (2)
     |                                               |                |                    [0]{}: t 0x194-0x196 (2)
0x190|            01                                 |    .           |                      n: 1 (valid) 0x194-0x195 (1)
0x190|               7d                              |     }          |                      t: "f32" (0x7d) 0x195-0x196 (1)
     |                                               |                |                e[0:3]: 0x196-0x19e (8)
     |                                               |                |                  [0]{}: in 0x196-0x19b (5)
0x190|                  43                           |      C         |                    opcode: "f32.const" (0x43) 0x196-0x197 (1)
0x190|                     00 00 00 00               |       ....     |                    z: 0 0x197-0x19b (4)
     |                                               |                |                  [1]{}: in 0x19b-0x19d (2)
0x190|                                 21            |           !    |                    opcode: "local.set" (0x21) 0x19b-0x19c (1)
0x190|                                    00         |            .   |                    x: 0 (valid) 0x19c-0x19d (1)
     |                                               |                |                  [2]{}: in 0x19d-0x19e (1)
0x190|                                       0b      |             .  |                    opcode: "end" (0xb) 0x19d-0x19e (1)
     |                                               |                |            [3]{}: code 0x19e-0x1ae (16)
0x190|                                          0f   |              . |              size: 15 (valid) 0x19e-0x19f (1)
     |                                               |                |              code{}: 0x19f-0x1ae (15)
     |                                               |                |                t{}: 0x19f-0x1a2 (3)
0x190|                                             01|               .|                  n: 1 (valid) 0x19f-0x1a0 (1)
     |                                               |                |                  x[0:1]: 0x1a0-0x1a2 (2)
     |                                               |                |                    [0]{}: t 0x1a0-0x1a2 (2)
0x1a0|01                                             |.               |                      n: 1 (valid) 0x1a0-0x1a1 (1)
0x1a0|   7c                                          | |              |                      t: "f64" (0x7c) 0x1a1-0x1a2 (1)
     |                                               |                |                e[0:3]: 0x1a2-0x1ae (12)
     |                                               |                |                  [0]{}: in 0x1a2-0x1ab (9)
0x1a0|      44                                       |  D             |                    opcode: "f64.const" (0x44) 0x1a2-0x1a3 (1)
0x1a0|         00 00 00 00 00 00 00 00               |   ........     |                    z: 0 0x1a3-0x1ab (8)
     |                                               |                |                  [1]{}: in 0x1ab-0x1ad (2)
0x1a0|                                 21            |           !    |                    opcode: "local.set" (0x21) 0x1ab-0x1ac (1)
0x1a0|                                    00         |            .   |                    x: 0 (valid) 0x1ac-0x1ad (1)
     |                                               |                |                  [2]{}: in 0x1ad-0x1ae (1)
0x1a0|                                       0b      |             .  |                    opcode: "end" (0xb) 0x1ad-0x1ae (1)
     |                                               |                |            [4]{}: code 0x1ae-0x1b5 (7)
0x1a0|                                          06   |              . |              size: 6 (valid) 0x1ae-0x1af (1)
     |                                               |                |              code{}: 0x1af-0x1b5 (6)
     |                                               |                |                t{}: 0x1af-0x1b0 (1)
0x1a0|                                             00|               .|                  n: 0 (valid) 0x1af-0x1b0 (1)
     |                                               |                |                  x[0:0]: 0x1b0-0x1b0 (0)
     |                                               |                |                e[0:3]: 0x1b0-0x1b5 (5)
     |                                               |                |                  [0]{}: in 0x1b0-0x1b2 (2)
0x1b0|41                                             |A               |                    opcode: "i32.const" (0x41) 0x1b0-0x1b1 (1)
0x1b0|   0a                                          | .              |                    n: 10 (valid) 0x1b1-0x1b2 (1)
     |                                               |                |                  [1]{}: in 0x1b2-0x1b4 (2)
0x1b0|      21                                       |  !             |                    opcode: "local.set" (0x21) 0x1b2-0x1b3 (1)
0x1b0|         00                                    |   .            |                    x: 0 (valid) 0x1b3-0x1b4 (1)
     |                                               |                |                  [2]{}: in 0x1b4-0x1b5 (1)
0x1b0|            0b                                 |    .           |                    opcode: "end" (0xb) 0x1b4-0x1b5 (1)
     |                                               |                |            [5]{}: code 0x1b5-0x1bc (7)
0x1b0|               06                              |     .          |              size: 6 (valid) 0x1b5-0x1b6 (1)
     |                                               |                |              code{}: 0x1b6-0x1bc (6)
     |                                               |                |                t{}: 0x1b6-0x1b7 (1)
0x1b0|                  00                           |      .         |                  n: 0 (valid) 0x1b6-0x1b7 (1)
     |                                               |                |                  x[0:0]: 0x1b7-0x1b7 (0)
     |                                               |                |                e[0:3]: 0x1b7-0x1bc (5)
     |                                               |                |                  [0]{}: in 0x1b7-0x1b9 (2)
0x1b0|                     42                        |       B        |                    opcode: "i64.const" (0x42) 0x1b7-0x1b8 (1)
0x1b0|                        0b                     |        .       |                    n: 11 0x1b8-0x1b9 (1)
     |                                               |                |                  [1]{}: in 0x1b9-0x1bb (2)
0x1b0|                           21                  |         !      |                    opcode: "local.set" (0x21) 0x1b9-0x1ba (1)
0x1b0|                              00               |          .     |                    x: 0 (valid) 0x1ba-0x1bb (1)
     |                                               |                |                  [2]{}: in 0x1bb-0x1bc (1)
0x1b0|                                 0b            |           .    |                    opcode: "end" (0xb) 0x1bb-0x1bc (1)
     |                                               |                |            [6]{}: code 0x1bc-0x1c6 (10)
0x1b0|                                    09         |            .   |              size: 9 (valid) 0x1bc-0x1bd (1)
     |                                               |                |              code{}: 0x1bd-0x1c6 (9)
     |                                               |                |                t{}: 0x1bd-0x1be (1)
0x1b0|                                       00      |             .  |                  n: 0 (valid) 0x1bd-0x1be (1)
     |                                               |                |                  x[0:0]: 0x1be-0x1be (0)
     |                                               |                |                e[0:3]: 0x1be-0x1c6 (8)
     |                                               |                |                  [0]{}: in 0x1be-0x1c3 (5)
0x1b0|                                          43   |              C |                    opcode: "f32.const" (0x43) 0x1be-0x1bf (1)
0x1b0|                                             9a|               .|                    z: 11.100000381469727 0x1bf-0x1c3 (4)
0x1c0|99 31 41                                       |.1A             |
     |                                               |                |                  [1]{}: in 0x1c3-0x1c5 (2)
0x1c0|         21                                    |   !            |                    opcode: "local.set" (0x21) 0x1c3-0x1c4 (1)
0x1c0|            00                                 |    .           |                    x: 0 (valid) 0x1c4-0x1c5 (1)
     |                                               |                |                  [2]{}: in 0x1c5-0x1c6 (1)
0x1c0|               0b                              |     .          |                    opcode: "end" (0xb) 0x1c5-0x1c6 (1)
     |                                               |                |            [7]{}: code 0x1c6-0x1d4 (14)
0x1c0|                  0d                           |      .         |              size: 13 (valid) 0x1c6-0x1c7 (1)
     |                                               |                |              code{}: 0x1c7-0x1d4 (13)
     |                                               |                |                t{}: 0x1c7-0x1c8 (1)
0x1c0|                     00                        |       .        |                  n: 0 (valid) 0x1c7-0x1c8 (1)
     |                                               |                |                  x[0:0]: 0x1c8-0x1c8 (0)
     |                                               |                |                e[0:3]: 0x1c8-0x1d4 (12)
     |                                               |                |                  [0]{}: in 0x1c8-0x1d1 (9)
0x1c0|                        44                     |        D       |                    opcode: "f64.const" (0x44) 0x1c8-0x1c9 (1)
0x1c0|                           66 66 66 66 66 66 28|         ffffff(|                    z: 12.2 0x1c9-0x1d1 (8)
0x1d0|40                                             |@               |
     |                                               |                |                  [1]{}: in 0x1d1-0x1d3 (2)
0x1d0|   21                                          | !              |                    opcode: "local.set" (0x21) 0x1d1-0x1d2 (1)
0x1d0|      00                                       |  .             |                    x: 0 (valid) 0x1d2-0x1d3 (1)
     |                                               |                |                  [2]{}: in 0x1d3-0x1d4 (1)
0x1d0|         0b                                    |   .            |                    opcode: "end" (0xb) 0x1d3-0x1d4 (1)
     |                                               |                |            [8]{}: code 0x1d4-0x215 (65)
0x1d0|            40                                 |    @           |              size: 64 (valid) 0x1d4-0x1d5 (1)
     |                                               |                |              code{}: 0x1d5-0x215 (64)
     |                                               |                |                t{}: 0x1d5-0x1dc (7)
0x1d0|               03                              |     .          |                  n: 3 (valid) 0x1d5-0x1d6 (1)
     |                                               |                |                  x[0:3]: 0x1d6-0x1dc (6)
     |                                               |                |                    [0]{}: t 0x1d6-0x1d8 (2)
0x1d0|                  01                           |      .         |                      n: 1 (valid) 0x1d6-0x1d7 (1)
0x1d0|                     7d                        |       }        |                      t: "f32" (0x7d) 0x1d7-0x1d8 (1)
     |                                               |                |                    [1]{}: t 0x1d8-0x1da (2)
0x1d0|                        02                     |        .       |                      n: 2 (valid) 0x1d8-0x1d9 (1)
0x1d0|                           7e                  |         ~      |                      t: "i64" (0x7e) 0x1d9-0x1da (1)
     |                                               |                |                    [2]{}: t 0x1da-0x1dc (2)
0x1d0|                              01               |          .     |                      n: 1 (valid) 0x1da-0x1db (1)
0x1d0|                                 7c            |           |    |                      t: "f64" (0x7c) 0x1db-0x1dc (1)
     |                                               |                |                e[0:19]: 0x1dc-0x215 (57)
     |                                               |                |                  [0]{}: in 0x1dc-0x1de (2)
0x1d0|                                    42         |            B   |                    opcode: "i64.const" (0x42) 0x1dc-0x1dd (1)
0x1d0|                                       00      |             .  |                    n: 0 0x1dd-0x1de (1)
     |                                               |                |                  [1]{}: in 0x1de-0x1e0 (2)
0x1d0|                                          21   |              ! |                    opcode: "local.set" (0x21) 0x1de-0x1df (1)
0x1d0|                                             00|               .|                    x: 0 (valid) 0x1df-0x1e0 (1)
     |                                               |                |                  [2]{}: in 0x1e0-0x1e5 (5)
0x1e0|43                                             |C               |                    opcode: "f32.const" (0x43) 0x1e0-0x1e1 (1)
0x1e0|   00 00 00 00                                 | ....           |                    z: 0 0x1e1-0x1e5 (4)
     |                                               |                |                  [3]{}: in 0x1e5-0x1e7 (2)
0x1e0|               21                              |     !          |                    opcode: "local.set" (0x21) 0x1e5-0x1e6 (1)
0x1e0|                  01                           |      .         |                    x: 1 (valid) 0x1e6-0x1e7 (1)
     |                                               |                |                  [4]{}: in 0x1e7-0x1f0 (9)
0x1e0|                     44                        |       D        |                    opcode: "f64.const" (0x44) 0x1e7-0x1e8 (1)
0x1e0|                        00 00 00 00 00 00 00 00|        ........|                    z: 0 0x1e8-0x1f0 (8)
     |                                               |                |                  [5]{}: in 0x1f0-0x1f2 (2)
0x1f0|21                                             |!               |                    opcode: "local.set" (0x21) 0x1f0-0x1f1 (1)
0x1f0|   02                                          | .              |                    x: 2 (valid) 0x1f1-0x1f2 (1)
     |                                               |                |                  [6]{}: in 0x1f2-0x1f4 (2)
0x1f0|      41                                       |  A             |                    opcode: "i32.const" (0x41) 0x1f2-0x1f3 (1)
0x1f0|         00                                    |   .            |                    n: 0 (valid) 0x1f3-0x1f4 (1)
     |                                               |                |                  [7]{}: in 0x1f4-0x1f6 (2)
0x1f0|            21                                 |    !           |                    opcode: "local.set" (0x21) 0x1f4-0x1f5 (1)
0x1f0|               03                              |     .          |                    x: 3 (valid) 0x1f5-0x1f6 (1)
     |                                               |                |                  [8]{}: in 0x1f6-0x1f8 (2)
0x1f0|                  41                           |      A         |                    opcode: "i32.const" (0x41) 0x1f6-0x1f7 (1)
0x1f0|                     00                        |       .        |                    n: 0 (valid) 0x1f7-0x1f8 (1)
     |                                               |                |                  [9]{}: in 0x1f8-0x1fa (2)
0x1f0|                        21                     |        !       |                    opcode: "local.set" (0x21) 0x1f8-0x1f9 (1)
0x1f0|                           04                  |         .      |                    x: 4 (valid) 0x1f9-0x1fa (1)
     |                                               |                |                  [10]{}: in 0x1fa-0x1ff (5)
0x1f0|                              43               |          C     |                    opcode: "f32.const" (0x43) 0x1fa-0x1fb (1)
0x1f0|                                 00 00 00 00   |           .... |                    z: 0 0x1fb-0x1ff (4)
     |                                               |                |                  [11]{}: in 0x1ff-0x201 (2)
0x1f0|                                             21|               !|                    opcode: "local.set" (0x21) 0x1ff-0x200 (1)
0x200|05                                             |.               |                    x: 5 (valid) 0x200-0x201 (1)
     |                                               |                |                  [12]{}: in 0x201-0x203 (2)
0x200|   42                                          | B              |                    opcode: "i64.const" (0x42) 0x201-0x202 (1)
0x200|      00                                       |  .             |                    n: 0 0x202-0x203 (1)
     |                                               |                |                  [13]{}: in 0x203-0x205 (2)
0x200|         21                                    |   !            |                    opcode: "local.set" (0x21) 0x203-0x204 (1)
0x200|            06                                 |    .           |                    x: 6 (valid) 0x204-0x205 (1)
     |                                               |                |                  [14]{}: in 0x205-0x207 (2)
0x200|               42                              |     B          |                    opcode: "i64.const" (0x42) 0x205-0x206 (1)
0x200|                  00                           |      .         |                    n: 0 0x206-0x207 (1)
     |                                               |                |                  [15]{}: in 0x207-0x209 (2)
0x200|                     21                        |       !        |                    opcode: "local.set" (0x21) 0x207-0x208 (1)
0x200|                        07                     |        .       |                    x: 7 (valid) 0x208-0x209 (1)
     |                                               |                |                  [16]{}: in 0x209-0x212 (9)
0x200|                           44                  |         D      |                    opcode: "f64.const" (0x44) 0x209-0x20a (1)
0x200|                              00 00 00 00 00 00|          ......|                    z: 0 0x20a-0x212 (8)
0x210|00 00                                          |..              |
     |                                               |                |                  [17]{}: in 0x212-0x214 (2)
0x210|      21                                       |  !             |                    opcode: "local.set" (0x21) 0x212-0x213 (1)
0x210|         08                                    |   .            |                    x: 8 (valid) 0x213-0x214 (1)
     |                                               |                |                  [18]{}: in 0x214-0x215 (1)
0x210|            0b                                 |    .           |                    opcode: "end" (0xb) 0x214-0x215 (1)
     |                                               |                |            [9]{}: code 0x215-0x265 (80)
0x210|               4f                              |     O          |              size: 79 (valid) 0x215-0x216 (1)
     |                                               |                |              code{}: 0x216-0x265 (79)
     |                                               |                |                t{}: 0x216-0x21d (7)
0x210|                  03                           |      .         |                  n: 3 (valid) 0x216-0x217 (1)
     |                                               |                |                  x[0:3]: 0x217-0x21d (6)
     |                                               |                |                    [0]{}: t 0x217-0x219 (2)
0x210|                     01                        |       .        |                      n: 1 (valid) 0x217-0x218 (1)
0x210|                        7d                     |        }       |                      t: "f32" (0x7d) 0x218-0x219 (1)
     |                                               |                |                    [1]{}: t 0x219-0x21b (2)
0x210|                           02                  |         .      |                      n: 2 (valid) 0x219-0x21a (1)
0x210|                              7e               |          ~     |                      t: "i64" (0x7e) 0x21a-0x21b (1)
     |                                               |                |                    [2]{}: t 0x21b-0x21d (2)
0x210|                                 01            |           .    |                      n: 1 (valid) 0x21b-0x21c (1)
0x210|                                    7c         |            |   |                      t: "f64" (0x7c) 0x21c-0x21d (1)
     |                                               |                |                e[0:38]: 0x21d-0x265 (72)
     |                                               |                |                  [0]{}: in 0x21d-0x222 (5)
0x210|                                       43      |             C  |                    opcode: "f32.const" (0x43) 0x21d-0x21e (1)
0x210|                                          9a 99|              ..|                    z: -0.30000001192092896 0x21e-0x222 (4)
0x220|99 be                                          |..              |
     |                                               |                |                  [1]{}: in 0x222-0x224 (2)
0x220|      21                                       |  !             |                    opcode: "local.set" (0x21) 0x222-0x223 (1)
0x220|         01                                    |   .            |                    x: 1 (valid) 0x223-0x224 (1)
     |                                               |                |                  [2]{}: in 0x224-0x226 (2)
0x220|            41                                 |    A           |                    opcode: "i32.const" (0x41) 0x224-0x225 (1)
0x220|               28                              |     (          |                    n: 40 (valid) 0x225-0x226 (1)
     |                                               |                |                  [3]{}: in 0x226-0x228 (2)
0x220|                  21                           |      !         |                    opcode: "local.set" (0x21) 0x226-0x227 (1)
0x220|                     03                        |       .        |                    x: 3 (valid) 0x227-0x228 (1)
     |                                               |                |                  [4]{}: in 0x228-0x22a (2)
0x220|                        41                     |        A       |                    opcode: "i32.const" (0x41) 0x228-0x229 (1)
0x220|                           79                  |         y      |                    n: -7 (valid) 0x229-0x22a (1)
     |                                               |                |                  [5]{}: in 0x22a-0x22c (2)
0x220|                              21               |          !     |                    opcode: "local.set" (0x21) 0x22a-0x22b (1)
0x220|                                 04            |           .    |                    x: 4 (valid) 0x22b-0x22c (1)
     |                                               |                |                  [6]{}: in 0x22c-0x231 (5)
0x220|                                    43         |            C   |                    opcode: "f32.const" (0x43) 0x22c-0x22d (1)
0x220|                                       00 00 b0|             ...|                    z: 5.5 0x22d-0x231 (4)
0x230|40                                             |@               |
     |                                               |                |                  [7]{}: in 0x231-0x233 (2)
0x230|   21                                          | !              |                    opcode: "local.set" (0x21) 0x231-0x232 (1)
0x230|      05                                       |  .             |                    x: 5 (valid) 0x232-0x233 (1)
     |                                               |                |                  [8]{}: in 0x233-0x235 (2)
0x230|         42                                    |   B            |                    opcode: "i64.const" (0x42) 0x233-0x234 (1)
0x230|            06                                 |    .           |                    n: 6 0x234-0x235 (1)
     |                                               |                |                  [9]{}: in 0x235-0x237 (2)
0x230|               21                              |     !          |                    opcode: "local.set" (0x21) 0x235-0x236 (1)
0x230|                  06                           |      .         |                    x: 6 (valid) 0x236-0x237 (1)
     |                                               |                |                  [10]{}: in 0x237-0x240 (9)
0x230|                     44                        |       D        |                    opcode: "f64.const" (0x44) 0x237-0x238 (1)
0x230|                        00 00 00 00 00 00 20 40|        ...... @|                    z: 8 0x238-0x240 (8)
     |                                               |                |                  [11]{}: in 0x240-0x242 (2)
0x240|21                                             |!               |                    opcode: "local.set" (0x21) 0x240-0x241 (1)
0x240|   08                                          | .              |                    x: 8 (valid) 0x241-0x242 (1)
     |                                               |                |                  [12]{}: in 0x242-0x244 (2)
0x240|      20                                       |                |                    opcode: "local.get" (0x20) 0x242-0x243 (1)
0x240|         00                                    |   .            |                    x: 0 (valid) 0x243-0x244 (1)
     |                                               |                |                  [13]{}: in 0x244-0x245 (1)
0x240|            ba                                 |    .           |                    opcode: "f64.convert_i64_u" (0xba) 0x244-0x245 (1)
     |                                               |                |                  [14]{}: in 0x245-0x247 (2)
0x240|               20                              |                |                    opcode: "local.get" (0x20) 0x245-0x246 (1)
0x240|                  01                           |      .         |                    x: 1 (valid) 0x246-0x247 (1)
     |                                               |                |                  [15]{}: in 0x247-0x248 (1)
0x240|                     bb                        |       .        |                    opcode: "f64.promote_f32" (0xbb) 0x247-0x248 (1)
     |                                               |                |                  [16]{}: in 0x248-0x24a (2)
0x240|                        20                     |                |                    opcode: "local.get" (0x20) 0x248-0x249 (1)
0x240|                           02                  |         .      |                    x: 2 (valid) 0x249-0x24a (1)
     |                                               |                |                  [17]{}: in 0x24a-0x24c (2)
0x240|                              20               |                |                    opcode: "local.get" (0x20) 0x24a-0x24b (1)
0x240|                                 03            |           .    |                    x: 3 (valid) 0x24b-0x24c (1)
     |                                               |                |                  [18]{}: in 0x24c-0x24d (1)
0x240|                                    b8         |            .   |                    opcode: "f64.convert_i32_u" (0xb8) 0x24c-0x24d (1)
     |                                               |                |                  [19]{}: in 0x24d-0x24f (2)
0x240|                                       20      |                |                    opcode: "local.get" (0x20) 0x24d-0x24e (1)
0x240|                                          04   |              . |                    x: 4 (valid) 0x24e-0x24f (1)
     |                                               |                |                  [20]{}: in 0x24f-0x250 (1)
0x240|                                             b7|               .|                    opcode: "f64.convert_i32_s" (0xb7) 0x24f-0x250 (1)
     |                                               |                |                  [21]{}: in 0x250-0x252 (2)
0x250|20                                             |                |                    opcode: "local.get" (0x20) 0x250-0x251 (1)
0x250|   05                                          | .              |                    x: 5 (valid) 0x251-0x252 (1)
     |                                               |                |                  [22]{}: in 0x252-0x253 (1)
0x250|      bb                                       |  .             |                    opcode: "f64.promote_f32" (0xbb) 0x252-0x253 (1)
     |                                               |                |                  [23]{}: in 0x253-0x255 (2)
0x250|         20                                    |                |                    opcode: "local.get" (0x20) 0x253-0x254 (1)
0x250|            06                                 |    .           |                    x: 6 (valid) 0x254-0x255 (1)
     |                                               |                |                  [24]{}: in 0x255-0x256 (1)
0x250|               ba                              |     .          |                    opcode: "f64.convert_i64_u" (0xba) 0x255-0x256 (1)
     |                                               |                |                  [25]{}: in 0x256-0x258 (2)
0x250|                  20                           |                |                    opcode: "local.get" (0x20) 0x256-0x257 (1)
0x250|                     07                        |       .        |                    x: 7 (valid) 0x257-0x258 (1)
     |                                               |                |                  [26]{}: in 0x258-0x259 (1)
0x250|                        ba                     |        .       |                    opcode: "f64.convert_i64_u" (0xba) 0x258-0x259 (1)
     |                                               |                |                  [27]{}: in 0x259-0x25b (2)
0x250|                           20                  |                |                    opcode: "local.get" (0x20) 0x259-0x25a (1)
0x250|                              08               |          .     |                    x: 8 (valid) 0x25a-0x25b (1)
     |                                               |                |                  [28]{}: in 0x25b-0x25c (1)
0x250|                                 a0            |           .    |                    opcode: "f64.add" (0xa0) 0x25b-0x25c (1)
     |                                               |                |                  [29]{}: in 0x25c-0x25d (1)
0x250|                                    a0         |            .   |                    opcode: "f64.add" (0xa0) 0x25c-0x25d (1)
     |                                               |                |                  [30]{}: in 0x25d-0x25e (1)
0x250|                                       a0      |             .  |                    opcode: "f64.add" (0xa0) 0x25d-0x25e (1)
     |                                               |                |                  [31]{}: in 0x25e-0x25f (1)
0x250|                                          a0   |              . |                    opcode: "f64.add" (0xa0) 0x25e-0x25f (1)
     |                                               |                |                  [32]{}: in 0x25f-0x260 (1)
0x250|                                             a0|               .|                    opcode: "f64.add" (0xa0) 0x25f-0x260 (1)
     |                                               |                |                  [33]{}: in 0x260-0x261 (1)
0x260|a0                                             |.               |                    opcode: "f64.add" (0xa0) 0x260-0x261 (1)
     |                                               |                |                  [34]{}: in 0x261-0x262 (1)
0x260|   a0                                          | .              |                    opcode: "f64.add" (0xa0) 0x261-0x262 (1)
     |                                               |                |                  [35]{}: in 0x262-0x263 (1)
0x260|      a0                                       |  .             |                    opcode: "f64.add" (0xa0) 0x262-0x263 (1)
     |                                               |                |                  [36]{}: in 0x263-0x264 (1)
0x260|         b0                                    |   .            |                    opcode: "i64.trunc_f64_s" (0xb0) 0x263-0x264 (1)
     |                                               |                |                  [37]{}: in 0x264-0x265 (1)
0x260|            0b                                 |    .           |                    opcode: "end" (0xb) 0x264-0x265 (1)
     |                                               |                |            [10]{}: code 0x265-0x26f (10)
0x260|               09                              |     .          |              size: 9 (valid) 0x265-0x266 (1)
     |                                               |                |              code{}: 0x266-0x26f (9)
     |                                               |                |                t{}: 0x266-0x267 (1)
0x260|                  00                           |      .         |                  n: 0 (valid) 0x266-0x267 (1)
     |                                               |                |                  x[0:0]: 0x267-0x267 (0)
     |                                               |                |                e[0:2]: 0x267-0x26f (8)
     |                                               |                |                  [0]{}: in 0x267-0x26e (7)
0x260|                     02                        |       .        |                    opcode: "block" (0x2) 0x267-0x268 (1)
0x260|                        40                     |        @       |                    bt: "ε" (64) 0x268-0x269 (1)
     |                                               |                |                    instructions[0:2]: 0x269-0x26d (4)
     |                                               |                |                      [0]{}: instr 0x269-0x26b (2)
0x260|                           41                  |         A      |                        opcode: "i32.const" (0x41) 0x269-0x26a (1)
0x260|                              01               |          .     |                        n: 1 (valid) 0x26a-0x26b (1)
     |                                               |                |                      [1]{}: instr 0x26b-0x26d (2)
0x260|                                 21            |           !    |                        opcode: "local.set" (0x21) 0x26b-0x26c (1)
0x260|                                    00         |            .   |                        x: 0 (valid) 0x26c-0x26d (1)
0x260|                                       0b      |             .  |                    end: 0xb (valid) 0x26d-0x26e (1)
     |                                               |                |                  [1]{}: in 0x26e-0x26f (1)
0x260|                                          0b   |              . |                    opcode: "end" (0xb) 0x26e-0x26f (1)
     |                                               |                |            [11]{}: code 0x26f-0x279 (10)
0x260|                                             09|               .|              size: 9 (valid) 0x26f-0x270 (1)
     |                                               |                |              code{}: 0x270-0x279 (9)
     |                                               |                |                t{}: 0x270-0x271 (1)
0x270|00                                             |.               |                  n: 0 (valid) 0x270-0x271 (1)
     |                                               |                |                  x[0:0]: 0x271-0x271 (0)
     |                                               |                |                e[0:2]: 0x271-0x279 (8)
     |                                               |                |                  [0]{}: in 0x271-0x278 (7)
0x270|   03                                          | .              |                    opcode: "loop" (0x3) 0x271-0x272 (1)
0x270|      40                                       |  @             |                    bt: "ε" (64) 0x272-0x273 (1)
     |                                               |                |                    instructions[0:2]: 0x273-0x277 (4)
     |                                               |                |                      [0]{}: instr 0x273-0x275 (2)
0x270|         41                                    |   A            |                        opcode: "i32.const" (0x41) 0x273-0x274 (1)
0x270|            03                                 |    .           |                        n: 3 (valid) 0x274-0x275 (1)
     |                                               |                |                      [1]{}: instr 0x275-0x277 (2)
0x270|               21                              |     !          |                        opcode: "local.set" (0x21) 0x275-0x276 (1)
0x270|                  00                           |      .         |                        x: 0 (valid) 0x276-0x277 (1)
0x270|                     0b                        |       .        |                    end: 0xb (valid) 0x277-0x278 (1)
     |                                               |                |                  [1]{}: in 0x278-0x279 (1)
0x270|                        0b                     |        .       |                    opcode: "end" (0xb) 0x278-0x279 (1)
     |                                               |                |            [12]{}: code 0x279-0x285 (12)
0x270|                           0b                  |         .      |              size: 11 (valid) 0x279-0x27a (1)
     |                                               |                |              code{}: 0x27a-0x285 (11)
     |                                               |                |                t{}: 0x27a-0x27b (1)
0x270|                              00               |          .     |                  n: 0 (valid) 0x27a-0x27b (1)
     |                                               |                |                  x[0:0]: 0x27b-0x27b (0)
     |                                               |                |                e[0:2]: 0x27b-0x285 (10)
     |                                               |                |                  [0]{}: in 0x27b-0x284 (9)
0x270|                                 02            |           .    |                    opcode: "block" (0x2) 0x27b-0x27c (1)
0x270|                                    40         |            @   |                    bt: "ε" (64) 0x27c-0x27d (1)
     |                                               |                |                    instructions[0:3]: 0x27d-0x283 (6)
     |                                               |                |                      [0]{}: instr 0x27d-0x27f (2)
0x270|                                       41      |             A  |                        opcode: "i32.const" (0x41) 0x27d-0x27e (1)
0x270|                                          09   |              . |                        n: 9 (valid) 0x27e-0x27f (1)
     |                                               |                |                      [1]{}: instr 0x27f-0x281 (2)
0x270|                                             21|               !|                        opcode: "local.set" (0x21) 0x27f-0x280 (1)
0x280|00                                             |.               |                        x: 0 (valid) 0x280-0x281 (1)
     |                                               |                |                      [2]{}: instr 0x281-0x283 (2)
0x280|   0c                                          | .              |                        opcode: "br" (0xc) 0x281-0x282 (1)
0x280|      00                                       |  .             |                        l: 0 (valid) 0x282-0x283 (1)
0x280|         0b                                    |   .            |                    end: 0xb (valid) 0x283-0x284 (1)
     |                                               |                |                  [1]{}: in 0x284-0x285 (1)
0x280|            0b                                 |    .           |                    opcode: "end" (0xb) 0x284-0x285 (1)
     |                                               |                |            [13]{}: code 0x285-0x293 (14)
0x280|               0d                              |     .          |              size: 13 (valid) 0x285-0x286 (1)
     |                                               |                |              code{}: 0x286-0x293 (13)
     |                                               |                |                t{}: 0x286-0x287 (1)
0x280|                  00                           |      .         |                  n: 0 (valid) 0x286-0x287 (1)
     |                                               |                |                  x[0:0]: 0x287-0x287 (0)
     |                                               |                |                e[0:2]: 0x287-0x293 (12)
     |                                               |                |                  [0]{}: in 0x287-0x292 (11)
0x280|                     02                        |       .        |                    opcode: "block" (0x2) 0x287-0x288 (1)
0x280|                        40                     |        @       |                    bt: "ε" (64) 0x288-0x289 (1)
     |                                               |                |                    instructions[0:4]: 0x289-0x291 (8)
     |                                               |                |                      [0]{}: instr 0x289-0x28b (2)
0x280|                           41                  |         A      |                        opcode: "i32.const" (0x41) 0x289-0x28a (1)
0x280|                              08               |          .     |                        n: 8 (valid) 0x28a-0x28b (1)
     |                                               |                |                      [1]{}: instr 0x28b-0x28d (2)
0x280|                                 21            |           !    |                        opcode: "local.set" (0x21) 0x28b-0x28c (1)
0x280|                                    00         |            .   |                        x: 0 (valid) 0x28c-0x28d (1)
     |                                               |                |                      [2]{}: instr 0x28d-0x28f (2)
0x280|                                       41      |             A  |                        opcode: "i32.const" (0x41) 0x28d-0x28e (1)
0x280|                                          01   |              . |                        n: 1 (valid) 0x28e-0x28f (1)
     |                                               |                |                      [3]{}: instr 0x28f-0x291 (2)
0x280|                                             0d|               .|                        opcode: "br_if" (0xd) 0x28f-0x290 (1)
0x290|00                                             |.               |                        l: 0 (valid) 0x290-0x291 (1)
0x290|   0b                                          | .              |                    end: 0xb (valid) 0x291-0x292 (1)
     |                                               |                |                  [1]{}: in 0x292-0x293 (1)
0x290|      0b                                       |  .             |                    opcode: "end" (0xb) 0x292-0x293 (1)
     |                                               |                |            [14]{}: code 0x293-0x2a1 (14)
0x290|         0d                                    |   .            |              size: 13 (valid) 0x293-0x294 (1)
     |                                               |                |              code{}: 0x294-0x2a1 (13)
     |                                               |                |                t{}: 0x294-0x295 (1)
0x290|            00                                 |    .           |                  n: 0 (valid) 0x294-0x295 (1)
     |                                               |                |                  x[0:0]: 0x295-0x295 (0)
     |                                               |                |                e[0:2]: 0x295-0x2a1 (12)
     |                                               |                |                  [0]{}: in 0x295-0x2a0 (11)
0x290|               02                              |     .          |                    opcode: "block" (0x2) 0x295-0x296 (1)
0x290|                  40                           |      @         |                    bt: "ε" (64) 0x296-0x297 (1)
     |                                               |                |                    instructions[0:4]: 0x297-0x29f (8)
     |                                               |                |                      [0]{}: instr 0x297-0x299 (2)
0x290|                     41                        |       A        |                        opcode: "i32.const" (0x41) 0x297-0x298 (1)
0x290|                        06                     |        .       |                        n: 6 (valid) 0x298-0x299 (1)
     |                                               |                |                      [1]{}: instr 0x299-0x29b (2)
0x290|                           41                  |         A      |                        opcode: "i32.const" (0x41) 0x299-0x29a (1)
0x290|                              09               |          .     |                        n: 9 (valid) 0x29a-0x29b (1)
     |                                               |                |                      [2]{}: instr 0x29b-0x29d (2)
0x290|                                 21            |           !    |                        opcode: "local.set" (0x21) 0x29b-0x29c (1)
0x290|                                    00         |            .   |                        x: 0 (valid) 0x29c-0x29d (1)
     |                                               |                |                      [3]{}: instr 0x29d-0x29f (2)
0x290|                                       0d      |             .  |                        opcode: "br_if" (0xd) 0x29d-0x29e (1)
0x290|                                          00   |              . |                        l: 0 (valid) 0x29e-0x29f (1)
0x290|                                             0b|               .|                    end: 0xb (valid) 0x29f-0x2a0 (1)
     |                                               |                |                  [1]{}: in 0x2a0-0x2a1 (1)
0x2a0|0b                                             |.               |                    opcode: "end" (0xb) 0x2a0-0x2a1 (1)
     |                                               |                |            [15]{}: code 0x2a1-0x2b0 (15)
0x2a0|   0e                                          | .              |              size: 14 (valid) 0x2a1-0x2a2 (1)
     |                                               |                |              code{}: 0x2a2-0x2b0 (14)
     |                                               |                |                t{}: 0x2a2-0x2a3 (1)
0x2a0|      00                                       |  .             |                  n: 0 (valid) 0x2a2-0x2a3 (1)
     |                                               |                |                  x[0:0]: 0x2a3-0x2a3 (0)
     |                                               |                |                e[0:2]: 0x2a3-0x2b0 (13)
     |                                               |                |                  [0]{}: in 0x2a3-0x2af (12)
0x2a0|         02                                    |   .            |                    opcode: "block" (0x2) 0x2a3-0x2a4 (1)
0x2a0|            40                                 |    @           |                    bt: "ε" (64) 0x2a4-0x2a5 (1)
     |                                               |                |                    instructions[0:4]: 0x2a5-0x2ae (9)
     |                                               |                |                      [0]{}: instr 0x2a5-0x2a7 (2)
0x2a0|               41                              |     A          |                        opcode: "i32.const" (0x41) 0x2a5-0x2a6 (1)
0x2a0|                  0a                           |      .         |                        n: 10 (valid) 0x2a6-0x2a7 (1)
     |                                               |                |                      [1]{}: instr 0x2a7-0x2a9 (2)
0x2a0|                     21                        |       !        |                        opcode: "local.set" (0x21) 0x2a7-0x2a8 (1)
0x2a0|                        00                     |        .       |                        x: 0 (valid) 0x2a8-0x2a9 (1)
     |                                               |                |                      [2]{}: instr 0x2a9-0x2ab (2)
0x2a0|                           41                  |         A      |                        opcode: "i32.const" (0x41) 0x2a9-0x2aa (1)
0x2a0|                              01               |          .     |                        n: 1 (valid) 0x2aa-0x2ab (1)
     |                                               |                |                      [3]{}: instr 0x2ab-0x2ae (3)
0x2a0|                                 0e            |           .    |                        opcode: "br_table" (0xe) 0x2ab-0x2ac (1)
     |                                               |                |                        l{}: 0x2ac-0x2ad (1)
0x2a0|                                    00         |            .   |                          n: 0 (valid) 0x2ac-0x2ad (1)
     |                                               |                |                          x[0:0]: 0x2ad-0x2ad (0)
0x2a0|                                       00      |             .  |                        lN: 0 (valid) 0x2ad-0x2ae (1)
0x2a0|                                          0b   |              . |                    end: 0xb (valid) 0x2ae-0x2af (1)
     |                                               |                |                  [1]{}: in 0x2af-0x2b0 (1)
0x2a0|                                             0b|               .|                    opcode: "end" (0xb) 0x2af-0x2b0 (1)
     |                                               |                |            [16]{}: code 0x2b0-0x2b8 (8)
0x2b0|07                                             |.               |              size: 7 (valid) 0x2b0-0x2b1 (1)
     |                                               |                |              code{}: 0x2b1-0x2b8 (7)
     |                                               |                |                t{}: 0x2b1-0x2b2 (1)
0x2b0|   00                                          | .              |                  n: 0 (valid) 0x2b1-0x2b2 (1)
     |                                               |                |                  x[0:0]: 0x2b2-0x2b2 (0)
     |                                               |                |                e[0:4]: 0x2b2-0x2b8 (6)
     |                                               |                |                  [0]{}: in 0x2b2-0x2b4 (2)
0x2b0|      41                                       |  A             |                    opcode: "i32.const" (0x41) 0x2b2-0x2b3 (1)
0x2b0|         07                                    |   .            |                    n: 7 (valid) 0x2b3-0x2b4 (1)
     |                                               |                |                  [1]{}: in 0x2b4-0x2b6 (2)
0x2b0|            21                                 |    !           |                    opcode: "local.set" (0x21) 0x2b4-0x2b5 (1)
0x2b0|               00                              |     .          |                    x: 0 (valid) 0x2b5-0x2b6 (1)
     |                                               |                |                  [2]{}: in 0x2b6-0x2b7 (1)
0x2b0|                  0f                           |      .         |                    opcode: "return" (0xf) 0x2b6-0x2b7 (1)
     |                                               |                |                  [3]{}: in 0x2b7-0x2b8 (1)
0x2b0|                     0b                        |       .        |                    opcode: "end" (0xb) 0x2b7-0x2b8 (1)
     |                                               |                |            [17]{}: code 0x2b8-0x2c4 (12)
0x2b0|                        0b                     |        .       |              size: 11 (valid) 0x2b8-0x2b9 (1)
     |                                               |                |              code{}: 0x2b9-0x2c4 (11)
     |                                               |                |                t{}: 0x2b9-0x2ba (1)
0x2b0|                           00                  |         .      |                  n: 0 (valid) 0x2b9-0x2ba (1)
     |                                               |                |                  x[0:0]: 0x2ba-0x2ba (0)
     |                                               |                |                e[0:3]: 0x2ba-0x2c4 (10)
     |                                               |                |                  [0]{}: in 0x2ba-0x2bc (2)
0x2b0|                              20               |                |                    opcode: "local.get" (0x20) 0x2ba-0x2bb (1)
0x2b0|                                 00            |           .    |                    x: 0 (valid) 0x2bb-0x2bc (1)
     |                                               |                |                  [1]{}: in 0x2bc-0x2c3 (7)
0x2b0|                                    04         |            .   |                    opcode: "if" (0x4) 0x2bc-0x2bd (1)
0x2b0|                                       40      |             @  |                    bt: "ε" (64) 0x2bd-0x2be (1)
     |                                               |                |                    in1[0:2]: 0x2be-0x2c2 (4)
     |                                               |                |                      [0]{}: instr 0x2be-0x2c0 (2)
0x2b0|                                          41   |              A |                        opcode: "i32.const" (0x41) 0x2be-0x2bf (1)
0x2b0|                                             03|               .|                        n: 3 (valid) 0x2bf-0x2c0 (1)
     |                                               |                |                      [1]{}: instr 0x2c0-0x2c2 (2)
0x2c0|21                                             |!               |                        opcode: "local.set" (0x21) 0x2c0-0x2c1 (1)
0x2c0|   00                                          | .              |                        x: 0 (valid) 0x2c1-0x2c2 (1)
0x2c0|      0b                                       |  .             |                    end: 0xb (valid) 0x2c2-0x2c3 (1)
     |                                               |                |                  [2]{}: in 0x2c3-0x2c4 (1)
0x2c0|         0b                                    |   .            |                    opcode: "end" (0xb) 0x2c3-0x2c4 (1)
     |                                               |                |            [18]{}: code 0x2c4-0x2d1 (13)
0x2c0|            0c                                 |    .           |              size: 12 (valid) 0x2c4-0x2c5 (1)
     |                                               |                |              code{}: 0x2c5-0x2d1 (12)
     |                                               |                |                t{}: 0x2c5-0x2c6 (1)
0x2c0|               00                              |     .          |                  n: 0 (valid) 0x2c5-0x2c6 (1)
     |                                               |                |                  x[0:0]: 0x2c6-0x2c6 (0)
     |                                               |                |                e[0:3]: 0x2c6-0x2d1 (11)
     |                                               |                |                  [0]{}: in 0x2c6-0x2c8 (2)
0x2c0|                  20                           |                |                    opcode: "local.get" (0x20) 0x2c6-0x2c7 (1)
0x2c0|                     00                        |       .        |                    x: 0 (valid) 0x2c7-0x2c8 (1)
     |                                               |                |                  [1]{}: in 0x2c8-0x2d0 (8)
0x2c0|                        04                     |        .       |                    opcode: "if" (0x4) 0x2c8-0x2c9 (1)
0x2c0|                           40                  |         @      |                    bt: "ε" (64) 0x2c9-0x2ca (1)
     |                                               |                |                    in1[0:0]: 0x2ca-0x2ca (0)
0x2c0|                              05               |          .     |                    else: 0x5 (valid) 0x2ca-0x2cb (1)
     |                                               |                |                    in2[0:2]: 0x2cb-0x2cf (4)
     |                                               |                |                      [0]{}: instr 0x2cb-0x2cd (2)
0x2c0|                                 41            |           A    |                        opcode: "i32.const" (0x41) 0x2cb-0x2cc (1)
0x2c0|                                    01         |            .   |                        n: 1 (valid) 0x2cc-0x2cd (1)
     |                                               |                |                      [1]{}: instr 0x2cd-0x2cf (2)
0x2c0|                                       21      |             !  |                        opcode: "local.set" (0x21) 0x2cd-0x2ce (1)
0x2c0|                                          00   |              . |                        x: 0 (valid) 0x2ce-0x2cf (1)
0x2c0|                                             0b|               .|                    end: 0xb (valid) 0x2cf-0x2d0 (1)
     |                                               |                |                  [2]{}: in 0x2d0-0x2d1 (1)
0x2d0|0b|                                            |.|              |                    opcode: "end" (0xb) 0x2d0-0x2d1 (1)
