$ fq -d wasm dv local_tee-0.wasm
     |00 01 02 03 04 05 06 07 08 09 0a 0b 0c 0d 0e 0f|0123456789abcdef|.{}: local_tee-0.wasm (wasm) 0x0-0x812.7 (2067)
0x000|00 61 73 6d                                    |.asm            |  magic: raw bits (valid) 0x0-0x3.7 (4)
0x000|            01 00 00 00                        |    ....        |  version: 1 0x4-0x7.7 (4)
     |                                               |                |  sections[0:8]: 0x8-0x812.7 (2059)
     |                                               |                |    [0]{}: section 0x8-0x61.7 (90)
0x000|                        01                     |        .       |      id: "type section" (1) 0x8-0x8.7 (1)
0x000|                           58                  |         X      |      size: 88 0x9-0x9.7 (1)
     |                                               |                |      content{}: 0xa-0x61.7 (88)
     |                                               |                |        ft{}: 0xa-0x61.7 (88)
0x000|                              10               |          .     |          n: 16 0xa-0xa.7 (1)
     |                                               |                |          x[0:16]: 0xb-0x61.7 (87)
     |                                               |                |            [0]{}: ft 0xb-0x11.7 (7)
0x000|                                 60            |           `    |              tag: 0x60 (valid) 0xb-0xb.7 (1)
     |                                               |                |              rt1{}: 0xc-0xf.7 (4)
0x000|                                    03         |            .   |                n: 3 0xc-0xc.7 (1)
     |                                               |                |                x[0:3]: 0xd-0xf.7 (3)
0x000|                                       7f      |             .  |                  [0]: "i32" (0x7f) t 0xd-0xd.7 (1)
0x000|                                          7f   |              . |                  [1]: "i32" (0x7f) t 0xe-0xe.7 (1)
0x000|                                             7f|               .|                  [2]: "i32" (0x7f) t 0xf-0xf.7 (1)
     |                                               |                |              rt2{}: 0x10-0x11.7 (2)
0x010|01                                             |.               |                n: 1 0x10-0x10.7 (1)
     |                                               |                |                x[0:1]: 0x11-0x11.7 (1)
0x010|   7f                                          | .              |                  [0]: "i32" (0x7f) t 0x11-0x11.7 (1)
     |                                               |                |            [1]{}: ft 0x12-0x15.7 (4)
0x010|      60                                       |  `             |              tag: 0x60 (valid) 0x12-0x12.7 (1)
     |                                               |                |              rt1{}: 0x13-0x13.7 (1)
0x010|         00                                    |   .            |                n: 0 0x13-0x13.7 (1)
     |                                               |                |                x[0:0]: 0x14-NA (0)
     |                                               |                |              rt2{}: 0x14-0x15.7 (2)
0x010|            01                                 |    .           |                n: 1 0x14-0x14.7 (1)
     |                                               |                |                x[0:1]: 0x15-0x15.7 (1)
0x010|               7f                              |     .          |                  [0]: "i32" (0x7f) t 0x15-0x15.7 (1)
     |                                               |                |            [2]{}: ft 0x16-0x19.7 (4)
0x010|                  60                           |      `         |              tag: 0x60 (valid) 0x16-0x16.7 (1)
     |                                               |                |              rt1{}: 0x17-0x17.7 (1)
0x010|                     00                        |       .        |                n: 0 0x17-0x17.7 (1)
     |                                               |                |                x[0:0]: 0x18-NA (0)
     |                                               |                |              rt2{}: 0x18-0x19.7 (2)
0x010|                        01                     |        .       |                n: 1 0x18-0x18.7 (1)
     |                                               |                |                x[0:1]: 0x19-0x19.7 (1)
0x010|                           7e                  |         ~      |                  [0]: "i64" (0x7e) t 0x19-0x19.7 (1)
     |                                               |                |            [3]{}: ft 0x1a-0x1d.7 (4)
0x010|                              60               |          `     |              tag: 0x60 (valid) 0x1a-0x1a.7 (1)
     |                                               |                |              rt1{}: 0x1b-0x1b.7 (1)
0x010|                                 00            |           .    |                n: 0 0x1b-0x1b.7 (1)
     |                                               |                |                x[0:0]: 0x1c-NA (0)
     |                                               |                |              rt2{}: 0x1c-0x1d.7 (2)
0x010|                                    01         |            .   |                n: 1 0x1c-0x1c.7 (1)
     |                                               |                |                x[0:1]: 0x1d-0x1d.7 (1)
0x010|                                       7d      |             }  |                  [0]: "f32" (0x7d) t 0x1d-0x1d.7 (1)
     |                                               |                |            [4]{}: ft 0x1e-0x21.7 (4)
0x010|                                          60   |              ` |              tag: 0x60 (valid) 0x1e-0x1e.7 (1)
     |                                               |                |              rt1{}: 0x1f-0x1f.7 (1)
0x010|                                             00|               .|                n: 0 0x1f-0x1f.7 (1)
     |                                               |                |                x[0:0]: 0x20-NA (0)
     |                                               |                |              rt2{}: 0x20-0x21.7 (2)
0x020|01                                             |.               |                n: 1 0x20-0x20.7 (1)
     |                                               |                |                x[0:1]: 0x21-0x21.7 (1)
0x020|   7c                                          | |              |                  [0]: "f64" (0x7c) t 0x21-0x21.7 (1)
     |                                               |                |            [5]{}: ft 0x22-0x26.7 (5)
0x020|      60                                       |  `             |              tag: 0x60 (valid) 0x22-0x22.7 (1)
     |                                               |                |              rt1{}: 0x23-0x24.7 (2)
0x020|         01                                    |   .            |                n: 1 0x23-0x23.7 (1)
     |                                               |                |                x[0:1]: 0x24-0x24.7 (1)
0x020|            7f                                 |    .           |                  [0]: "i32" (0x7f) t 0x24-0x24.7 (1)
     |                                               |                |              rt2{}: 0x25-0x26.7 (2)
0x020|               01                              |     .          |                n: 1 0x25-0x25.7 (1)
     |                                               |                |                x[0:1]: 0x26-0x26.7 (1)
0x020|                  7f                           |      .         |                  [0]: "i32" (0x7f) t 0x26-0x26.7 (1)
     |                                               |                |            [6]{}: ft 0x27-0x2b.7 (5)
0x020|                     60                        |       `        |              tag: 0x60 (valid) 0x27-0x27.7 (1)
     |                                               |                |              rt1{}: 0x28-0x29.7 (2)
0x020|                        01                     |        .       |                n: 1 0x28-0x28.7 (1)
     |                                               |                |                x[0:1]: 0x29-0x29.7 (1)
0x020|                           7e                  |         ~      |                  [0]: "i64" (0x7e) t 0x29-0x29.7 (1)
     |                                               |                |              rt2{}: 0x2a-0x2b.7 (2)
0x020|                              01               |          .     |                n: 1 0x2a-0x2a.7 (1)
     |                                               |                |                x[0:1]: 0x2b-0x2b.7 (1)
0x020|                                 7e            |           ~    |                  [0]: "i64" (0x7e) t 0x2b-0x2b.7 (1)
     |                                               |                |            [7]{}: ft 0x2c-0x30.7 (5)
0x020|                                    60         |            `   |              tag: 0x60 (valid) 0x2c-0x2c.7 (1)
     |                                               |                |              rt1{}: 0x2d-0x2e.7 (2)
0x020|                                       01      |             .  |                n: 1 0x2d-0x2d.7 (1)
     |                                               |                |                x[0:1]: 0x2e-0x2e.7 (1)
0x020|                                          7d   |              } |                  [0]: "f32" (0x7d) t 0x2e-0x2e.7 (1)
     |                                               |                |              rt2{}: 0x2f-0x30.7 (2)
0x020|                                             01|               .|                n: 1 0x2f-0x2f.7 (1)
     |                                               |                |                x[0:1]: 0x30-0x30.7 (1)
0x030|7d                                             |}               |                  [0]: "f32" (0x7d) t 0x30-0x30.7 (1)
     |                                               |                |            [8]{}: ft 0x31-0x35.7 (5)
0x030|   60                                          | `              |              tag: 0x60 (valid) 0x31-0x31.7 (1)
     |                                               |                |              rt1{}: 0x32-0x33.7 (2)
0x030|      01                                       |  .             |                n: 1 0x32-0x32.7 (1)
     |                                               |                |                x[0:1]: 0x33-0x33.7 (1)
0x030|         7c                                    |   |            |                  [0]: "f64" (0x7c) t 0x33-0x33.7 (1)
     |                                               |                |              rt2{}: 0x34-0x35.7 (2)
0x030|            01                                 |    .           |                n: 1 0x34-0x34.7 (1)
     |                                               |                |                x[0:1]: 0x35-0x35.7 (1)
0x030|               7c                              |     |          |                  [0]: "f64" (0x7c) t 0x35-0x35.7 (1)
     |                                               |                |            [9]{}: ft 0x36-0x3d.7 (8)
0x030|                  60                           |      `         |              tag: 0x60 (valid) 0x36-0x36.7 (1)
     |                                               |                |              rt1{}: 0x37-0x3c.7 (6)
0x030|                     05                        |       .        |                n: 5 0x37-0x37.7 (1)
     |                                               |                |                x[0:5]: 0x38-0x3c.7 (5)
0x030|                        7e                     |        ~       |                  [0]: "i64" (0x7e) t 0x38-0x38.7 (1)
0x030|                           7d                  |         }      |                  [1]: "f32" (0x7d) t 0x39-0x39.7 (1)
0x030|                              7c               |          |     |                  [2]: "f64" (0x7c) t 0x3a-0x3a.7 (1)
0x030|                                 7f            |           .    |                  [3]: "i32" (0x7f) t 0x3b-0x3b.7 (1)
0x030|                                    7f         |            .   |                  [4]: "i32" (0x7f) t 0x3c-0x3c.7 (1)
     |                                               |                |              rt2{}: 0x3d-0x3d.7 (1)
0x030|                                       00      |             .  |                n: 0 0x3d-0x3d.7 (1)
     |                                               |                |                x[0:0]: 0x3e-NA (0)
     |                                               |                |            [10]{}: ft 0x3e-0x46.7 (9)
0x030|                                          60   |              ` |              tag: 0x60 (valid) 0x3e-0x3e.7 (1)
     |                                               |                |              rt1{}: 0x3f-0x44.7 (6)
0x030|                                             05|               .|                n: 5 0x3f-0x3f.7 (1)
     |                                               |                |                x[0:5]: 0x40-0x44.7 (5)
0x040|7e                                             |~               |                  [0]: "i64" (0x7e) t 0x40-0x40.7 (1)
0x040|   7d                                          | }              |                  [1]: "f32" (0x7d) t 0x41-0x41.7 (1)
0x040|      7c                                       |  |             |                  [2]: "f64" (0x7c) t 0x42-0x42.7 (1)
0x040|         7f                                    |   .            |                  [3]: "i32" (0x7f) t 0x43-0x43.7 (1)
0x040|            7f                                 |    .           |                  [4]: "i32" (0x7f) t 0x44-0x44.7 (1)
     |                                               |                |              rt2{}: 0x45-0x46.7 (2)
0x040|               01                              |     .          |                n: 1 0x45-0x45.7 (1)
     |                                               |                |                x[0:1]: 0x46-0x46.7 (1)
0x040|                  7e                           |      ~         |                  [0]: "i64" (0x7e) t 0x46-0x46.7 (1)
     |                                               |                |            [11]{}: ft 0x47-0x4f.7 (9)
0x040|                     60                        |       `        |              tag: 0x60 (valid) 0x47-0x47.7 (1)
     |                                               |                |              rt1{}: 0x48-0x4d.7 (6)
0x040|                        05                     |        .       |                n: 5 0x48-0x48.7 (1)
     |                                               |                |                x[0:5]: 0x49-0x4d.7 (5)
0x040|                           7e                  |         ~      |                  [0]: "i64" (0x7e) t 0x49-0x49.7 (1)
0x040|                              7d               |          }     |                  [1]: "f32" (0x7d) t 0x4a-0x4a.7 (1)
0x040|                                 7c            |           |    |                  [2]: "f64" (0x7c) t 0x4b-0x4b.7 (1)
0x040|                                    7f         |            .   |                  [3]: "i32" (0x7f) t 0x4c-0x4c.7 (1)
0x040|                                       7f      |             .  |                  [4]: "i32" (0x7f) t 0x4d-0x4d.7 (1)
     |                                               |                |              rt2{}: 0x4e-0x4f.7 (2)
0x040|                                          01   |              . |                n: 1 0x4e-0x4e.7 (1)
     |                                               |                |                x[0:1]: 0x4f-0x4f.7 (1)
0x040|                                             7c|               ||                  [0]: "f64" (0x7c) t 0x4f-0x4f.7 (1)
     |                                               |                |            [12]{}: ft 0x50-0x52.7 (3)
0x050|60                                             |`               |              tag: 0x60 (valid) 0x50-0x50.7 (1)
     |                                               |                |              rt1{}: 0x51-0x51.7 (1)
0x050|   00                                          | .              |                n: 0 0x51-0x51.7 (1)
     |                                               |                |                x[0:0]: 0x52-NA (0)
     |                                               |                |              rt2{}: 0x52-0x52.7 (1)
0x050|      00                                       |  .             |                n: 0 0x52-0x52.7 (1)
     |                                               |                |                x[0:0]: 0x53-NA (0)
     |                                               |                |            [13]{}: ft 0x53-0x56.7 (4)
0x050|         60                                    |   `            |              tag: 0x60 (valid) 0x53-0x53.7 (1)
     |                                               |                |              rt1{}: 0x54-0x55.7 (2)
0x050|            01                                 |    .           |                n: 1 0x54-0x54.7 (1)
     |                                               |                |                x[0:1]: 0x55-0x55.7 (1)
0x050|               7f                              |     .          |                  [0]: "i32" (0x7f) t 0x55-0x55.7 (1)
     |                                               |                |              rt2{}: 0x56-0x56.7 (1)
0x050|                  00                           |      .         |                n: 0 0x56-0x56.7 (1)
     |                                               |                |                x[0:0]: 0x57-NA (0)
     |                                               |                |            [14]{}: ft 0x57-0x5c.7 (6)
0x050|                     60                        |       `        |              tag: 0x60 (valid) 0x57-0x57.7 (1)
     |                                               |                |              rt1{}: 0x58-0x5a.7 (3)
0x050|                        02                     |        .       |                n: 2 0x58-0x58.7 (1)
     |                                               |                |                x[0:2]: 0x59-0x5a.7 (2)
0x050|                           7f                  |         .      |                  [0]: "i32" (0x7f) t 0x59-0x59.7 (1)
0x050|                              7f               |          .     |                  [1]: "i32" (0x7f) t 0x5a-0x5a.7 (1)
     |                                               |                |              rt2{}: 0x5b-0x5c.7 (2)
0x050|                                 01            |           .    |                n: 1 0x5b-0x5b.7 (1)
     |                                               |                |                x[0:1]: 0x5c-0x5c.7 (1)
0x050|                                    7f         |            .   |                  [0]: "i32" (0x7f) t 0x5c-0x5c.7 (1)
     |                                               |                |            [15]{}: ft 0x5d-0x61.7 (5)
0x050|                                       60      |             `  |              tag: 0x60 (valid) 0x5d-0x5d.7 (1)
     |                                               |                |              rt1{}: 0x5e-0x5f.7 (2)
0x050|                                          01   |              . |                n: 1 0x5e-0x5e.7 (1)
     |                                               |                |                x[0:1]: 0x5f-0x5f.7 (1)
0x050|                                             7e|               ~|                  [0]: "i64" (0x7e) t 0x5f-0x5f.7 (1)
     |                                               |                |              rt2{}: 0x60-0x61.7 (2)
0x060|01                                             |.               |                n: 1 0x60-0x60.7 (1)
     |                                               |                |                x[0:1]: 0x61-0x61.7 (1)
0x060|   7f                                          | .              |                  [0]: "i32" (0x7f) t 0x61-0x61.7 (1)
     |                                               |                |    [1]{}: section 0x62-0x9d.7 (60)
0x060|      03                                       |  .             |      id: "function section" (3) 0x62-0x62.7 (1)
0x060|         3a                                    |   :            |      size: 58 0x63-0x63.7 (1)
     |                                               |                |      content{}: 0x64-0x9d.7 (58)
     |                                               |                |        x{}: 0x64-0x9d.7 (58)
0x060|            39                                 |    9           |          n: 57 0x64-0x64.7 (1)
     |                                               |                |          x[0:57]: 0x65-0x9d.7 (57)
0x060|               01                              |     .          |            [0]: 1 x 0x65-0x65.7 (1)
0x060|                  02                           |      .         |            [1]: 2 x 0x66-0x66.7 (1)
0x060|                     03                        |       .        |            [2]: 3 x 0x67-0x67.7 (1)
0x060|                        04                     |        .       |            [3]: 4 x 0x68-0x68.7 (1)
0x060|                           05                  |         .      |            [4]: 5 x 0x69-0x69.7 (1)
0x060|                              06               |          .     |            [5]: 6 x 0x6a-0x6a.7 (1)
0x060|                                 07            |           .    |            [6]: 7 x 0x6b-0x6b.7 (1)
0x060|                                    08         |            .   |            [7]: 8 x 0x6c-0x6c.7 (1)
0x060|                                       09      |             .  |            [8]: 9 x 0x6d-0x6d.7 (1)
0x060|                                          0a   |              . |            [9]: 10 x 0x6e-0x6e.7 (1)
0x060|                                             0b|               .|            [10]: 11 x 0x6f-0x6f.7 (1)
0x070|0c                                             |.               |            [11]: 12 x 0x70-0x70.7 (1)
0x070|   05                                          | .              |            [12]: 5 x 0x71-0x71.7 (1)
0x070|      05                                       |  .             |            [13]: 5 x 0x72-0x72.7 (1)
0x070|         05                                    |   .            |            [14]: 5 x 0x73-0x73.7 (1)
0x070|            05                                 |    .           |            [15]: 5 x 0x74-0x74.7 (1)
0x070|               05                              |     .          |            [16]: 5 x 0x75-0x75.7 (1)
0x070|                  05                           |      .         |            [17]: 5 x 0x76-0x76.7 (1)
0x070|                     05                        |       .        |            [18]: 5 x 0x77-0x77.7 (1)
0x070|                        0d                     |        .       |            [19]: 13 x 0x78-0x78.7 (1)
0x070|                           05                  |         .      |            [20]: 5 x 0x79-0x79.7 (1)
0x070|                              05               |          .     |            [21]: 5 x 0x7a-0x7a.7 (1)
0x070|                                 0d            |           .    |            [22]: 13 x 0x7b-0x7b.7 (1)
0x070|                                    05         |            .   |            [23]: 5 x 0x7c-0x7c.7 (1)
0x070|                                       05      |             .  |            [24]: 5 x 0x7d-0x7d.7 (1)
0x070|                                          05   |              . |            [25]: 5 x 0x7e-0x7e.7 (1)
0x070|                                             05|               .|            [26]: 5 x 0x7f-0x7f.7 (1)
0x080|05                                             |.               |            [27]: 5 x 0x80-0x80.7 (1)
0x080|   05                                          | .              |            [28]: 5 x 0x81-0x81.7 (1)
0x080|      0e                                       |  .             |            [29]: 14 x 0x82-0x82.7 (1)
0x080|         0e                                    |   .            |            [30]: 14 x 0x83-0x83.7 (1)
0x080|            05                                 |    .           |            [31]: 5 x 0x84-0x84.7 (1)
0x080|               00                              |     .          |            [32]: 0 x 0x85-0x85.7 (1)
0x080|                  05                           |      .         |            [33]: 5 x 0x86-0x86.7 (1)
0x080|                     05                        |       .        |            [34]: 5 x 0x87-0x87.7 (1)
0x080|                        05                     |        .       |            [35]: 5 x 0x88-0x88.7 (1)
0x080|                           05                  |         .      |            [36]: 5 x 0x89-0x89.7 (1)
0x080|                              05               |          .     |            [37]: 5 x 0x8a-0x8a.7 (1)
0x080|                                 05            |           .    |            [38]: 5 x 0x8b-0x8b.7 (1)
0x080|                                    05         |            .   |            [39]: 5 x 0x8c-0x8c.7 (1)
0x080|                                       0c      |             .  |            [40]: 12 x 0x8d-0x8d.7 (1)
0x080|                                          05   |              . |            [41]: 5 x 0x8e-0x8e.7 (1)
0x080|                                             0c|               .|            [42]: 12 x 0x8f-0x8f.7 (1)
0x090|05                                             |.               |            [43]: 5 x 0x90-0x90.7 (1)
0x090|   05                                          | .              |            [44]: 5 x 0x91-0x91.7 (1)
0x090|      0d                                       |  .             |            [45]: 13 x 0x92-0x92.7 (1)
0x090|         0d                                    |   .            |            [46]: 13 x 0x93-0x93.7 (1)
0x090|            0d                                 |    .           |            [47]: 13 x 0x94-0x94.7 (1)
0x090|               0d                              |     .          |            [48]: 13 x 0x95-0x95.7 (1)
0x090|                  07                           |      .         |            [49]: 7 x 0x96-0x96.7 (1)
0x090|                     05                        |       .        |            [50]: 5 x 0x97-0x97.7 (1)
0x090|                        05                     |        .       |            [51]: 5 x 0x98-0x98.7 (1)
0x090|                           05                  |         .      |            [52]: 5 x 0x99-0x99.7 (1)
0x090|                              05               |          .     |            [53]: 5 x 0x9a-0x9a.7 (1)
0x090|                                 05            |           .    |            [54]: 5 x 0x9b-0x9b.7 (1)
0x090|                                    0f         |            .   |            [55]: 15 x 0x9c-0x9c.7 (1)
0x090|                                       05      |             .  |            [56]: 5 x 0x9d-0x9d.7 (1)
     |                                               |                |    [2]{}: section 0x9e-0xa4.7 (7)
0x090|                                          04   |              . |      id: "table section" (4) 0x9e-0x9e.7 (1)
0x090|                                             05|               .|      size: 5 0x9f-0x9f.7 (1)
     |                                               |                |      content{}: 0xa0-0xa4.7 (5)
     |                                               |                |        tab{}: 0xa0-0xa4.7 (5)
0x0a0|01                                             |.               |          n: 1 0xa0-0xa0.7 (1)
     |                                               |                |          x[0:1]: 0xa1-0xa4.7 (4)
     |                                               |                |            [0]{}: tab 0xa1-0xa4.7 (4)
0x0a0|   70                                          | p              |              et: "funcref" (112) 0xa1-0xa1.7 (1)
     |                                               |                |              lim{}: 0xa2-0xa4.7 (3)
0x0a0|      01                                       |  .             |                tag: 0x1 0xa2-0xa2.7 (1)
0x0a0|         01                                    |   .            |                n: 1 0xa3-0xa3.7 (1)
0x0a0|            01                                 |    .           |                m: 1 0xa4-0xa4.7 (1)
     |                                               |                |    [3]{}: section 0xa5-0xa9.7 (5)
0x0a0|               05                              |     .          |      id: "memory section" (5) 0xa5-0xa5.7 (1)
0x0a0|                  03                           |      .         |      size: 3 0xa6-0xa6.7 (1)
     |                                               |                |      content{}: 0xa7-0xa9.7 (3)
     |                                               |                |        mem{}: 0xa7-0xa9.7 (3)
0x0a0|                     01                        |       .        |          n: 1 0xa7-0xa7.7 (1)
     |                                               |                |          x[0:1]: 0xa8-0xa9.7 (2)
     |                                               |                |            [0]{}: mem 0xa8-0xa9.7 (2)
     |                                               |                |              lim{}: 0xa8-0xa9.7 (2)
0x0a0|                        00                     |        .       |                tag: 0x0 0xa8-0xa8.7 (1)
0x0a0|                           01                  |         .      |                n: 1 0xa9-0xa9.7 (1)
     |                                               |                |    [4]{}: section 0xaa-0xb1.7 (8)
0x0a0|                              06               |          .     |      id: "global section" (6) 0xaa-0xaa.7 (1)
0x0a0|                                 06            |           .    |      size: 6 0xab-0xab.7 (1)
     |                                               |                |      content{}: 0xac-0xb1.7 (6)
     |                                               |                |        glob{}: 0xac-0xb1.7 (6)
0x0a0|                                    01         |            .   |          n: 1 0xac-0xac.7 (1)
     |                                               |                |          x[0:1]: 0xad-0xb1.7 (5)
     |                                               |                |            [0]{}: glob 0xad-0xb1.7 (5)
     |                                               |                |              gt{}: 0xad-0xae.7 (2)
0x0a0|                                       7f      |             .  |                t: "i32" (0x7f) 0xad-0xad.7 (1)
0x0a0|                                          01   |              . |                m: "var" (1) 0xae-0xae.7 (1)
     |                                               |                |              e[0:2]: 0xaf-0xb1.7 (3)
     |                                               |                |                [0]{}: in 0xaf-0xb0.7 (2)
0x0a0|                                             41|               A|                  i32.const: 0x41 (valid) 0xaf-0xaf.7 (1)
0x0b0|00                                             |.               |                  n: 0 0xb0-0xb0.7 (1)
     |                                               |                |                [1]{}: in 0xb1-0xb1.7 (1)
0x0b0|   0b                                          | .              |                  end: 0xb (valid) 0xb1-0xb1.7 (1)
     |                                               |                |    [5]{}: section 0xb2-0x483.7 (978)
0x0b0|      07                                       |  .             |      id: "export section" (7) 0xb2-0xb2.7 (1)
0x0b0|         cf 07                                 |   ..           |      size: 975 0xb3-0xb4.7 (2)
     |                                               |                |      content{}: 0xb5-0x483.7 (975)
     |                                               |                |        ex{}: 0xb5-0x483.7 (975)
0x0b0|               37                              |     7          |          n: 55 0xb5-0xb5.7 (1)
     |                                               |                |          x[0:55]: 0xb6-0x483.7 (974)
     |                                               |                |            [0]{}: ex 0xb6-0xc6.7 (17)
     |                                               |                |              nm{}: 0xb6-0xc4.7 (15)
0x0b0|                  0e                           |      .         |                n: 14 0xb6-0xb6.7 (1)
0x0b0|                     74 79 70 65 2d 6c 6f 63 61|       type-loca|                b: "type-local-i32" 0xb7-0xc4.7 (14)
0x0c0|6c 2d 69 33 32                                 |l-i32           |
     |                                               |                |              d{}: 0xc5-0xc6.7 (2)
0x0c0|               00                              |     .          |                tag: "funcidx" (0x0) 0xc5-0xc5.7 (1)
0x0c0|                  00                           |      .         |                x: 0 0xc6-0xc6.7 (1)
     |                                               |                |            [1]{}: ex 0xc7-0xd7.7 (17)
     |                                               |                |              nm{}: 0xc7-0xd5.7 (15)
0x0c0|                     0e                        |       .        |                n: 14 0xc7-0xc7.7 (1)
0x0c0|                        74 79 70 65 2d 6c 6f 63|        type-loc|                b: "type-local-i64" 0xc8-0xd5.7 (14)
0x0d0|61 6c 2d 69 36 34                              |al-i64          |
     |                                               |                |              d{}: 0xd6-0xd7.7 (2)
0x0d0|                  00                           |      .         |                tag: "funcidx" (0x0) 0xd6-0xd6.7 (1)
0x0d0|                     01                        |       .        |                x: 1 0xd7-0xd7.7 (1)
     |                                               |                |            [2]{}: ex 0xd8-0xe8.7 (17)
     |                                               |                |              nm{}: 0xd8-0xe6.7 (15)
0x0d0|                        0e                     |        .       |                n: 14 0xd8-0xd8.7 (1)
0x0d0|                           74 79 70 65 2d 6c 6f|         type-lo|                b: "type-local-f32" 0xd9-0xe6.7 (14)
0x0e0|63 61 6c 2d 66 33 32                           |cal-f32         |
     |                                               |                |              d{}: 0xe7-0xe8.7 (2)
0x0e0|                     00                        |       .        |                tag: "funcidx" (0x0) 0xe7-0xe7.7 (1)
0x0e0|                        02                     |        .       |                x: 2 0xe8-0xe8.7 (1)
     |                                               |                |            [3]{}: ex 0xe9-0xf9.7 (17)
     |                                               |                |              nm{}: 0xe9-0xf7.7 (15)
0x0e0|                           0e                  |         .      |                n: 14 0xe9-0xe9.7 (1)
0x0e0|                              74 79 70 65 2d 6c|          type-l|                b: "type-local-f64" 0xea-0xf7.7 (14)
0x0f0|6f 63 61 6c 2d 66 36 34                        |ocal-f64        |
     |                                               |                |              d{}: 0xf8-0xf9.7 (2)
0x0f0|                        00                     |        .       |                tag: "funcidx" (0x0) 0xf8-0xf8.7 (1)
0x0f0|                           03                  |         .      |                x: 3 0xf9-0xf9.7 (1)
     |                                               |                |            [4]{}: ex 0xfa-0x10a.7 (17)
     |                                               |                |              nm{}: 0xfa-0x108.7 (15)
0x0f0|                              0e               |          .     |                n: 14 0xfa-0xfa.7 (1)
0x0f0|                                 74 79 70 65 2d|           type-|                b: "type-param-i32" 0xfb-0x108.7 (14)
0x100|70 61 72 61 6d 2d 69 33 32                     |param-i32       |
     |                                               |                |              d{}: 0x109-0x10a.7 (2)
0x100|                           00                  |         .      |                tag: "funcidx" (0x0) 0x109-0x109.7 (1)
0x100|                              04               |          .     |                x: 4 0x10a-0x10a.7 (1)
     |                                               |                |            [5]{}: ex 0x10b-0x11b.7 (17)
     |                                               |                |              nm{}: 0x10b-0x119.7 (15)
0x100|                                 0e            |           .    |                n: 14 0x10b-0x10b.7 (1)
0x100|                                    74 79 70 65|            type|                b: "type-param-i64" 0x10c-0x119.7 (14)
0x110|2d 70 61 72 61 6d 2d 69 36 34                  |-param-i64      |
     |                                               |                |              d{}: 0x11a-0x11b.7 (2)
0x110|                              00               |          .     |                tag: "funcidx" (0x0) 0x11a-0x11a.7 (1)
0x110|                                 05            |           .    |                x: 5 0x11b-0x11b.7 (1)
     |                                               |                |            [6]{}: ex 0x11c-0x12c.7 (17)
     |                                               |                |              nm{}: 0x11c-0x12a.7 (15)
0x110|                                    0e         |            .   |                n: 14 0x11c-0x11c.7 (1)
0x110|                                       74 79 70|             typ|                b: "type-param-f32" 0x11d-0x12a.7 (14)
0x120|65 2d 70 61 72 61 6d 2d 66 33 32               |e-param-f32     |
     |                                               |                |              d{}: 0x12b-0x12c.7 (2)
0x120|                                 00            |           .    |                tag: "funcidx" (0x0) 0x12b-0x12b.7 (1)
0x120|                                    06         |            .   |                x: 6 0x12c-0x12c.7 (1)
     |                                               |                |            [7]{}: ex 0x12d-0x13d.7 (17)
     |                                               |                |              nm{}: 0x12d-0x13b.7 (15)
0x120|                                       0e      |             .  |                n: 14 0x12d-0x12d.7 (1)
0x120|                                          74 79|              ty|                b: "type-param-f64" 0x12e-0x13b.7 (14)
0x130|70 65 2d 70 61 72 61 6d 2d 66 36 34            |pe-param-f64    |
     |                                               |                |              d{}: 0x13c-0x13d.7 (2)
0x130|                                    00         |            .   |                tag: "funcidx" (0x0) 0x13c-0x13c.7 (1)
0x130|                                       07      |             .  |                x: 7 0x13d-0x13d.7 (1)
     |                                               |                |            [8]{}: ex 0x13e-0x14a.7 (13)
     |                                               |                |              nm{}: 0x13e-0x148.7 (11)
0x130|                                          0a   |              . |                n: 10 0x13e-0x13e.7 (1)
0x130|                                             74|               t|                b: "type-mixed" 0x13f-0x148.7 (10)
0x140|79 70 65 2d 6d 69 78 65 64                     |ype-mixed       |
     |                                               |                |              d{}: 0x149-0x14a.7 (2)
0x140|                           00                  |         .      |                tag: "funcidx" (0x0) 0x149-0x149.7 (1)
0x140|                              08               |          .     |                x: 8 0x14a-0x14a.7 (1)
     |                                               |                |            [9]{}: ex 0x14b-0x152.7 (8)
     |                                               |                |              nm{}: 0x14b-0x150.7 (6)
0x140|                                 05            |           .    |                n: 5 0x14b-0x14b.7 (1)
0x140|                                    77 72 69 74|            writ|                b: "write" 0x14c-0x150.7 (5)
0x150|65                                             |e               |
     |                                               |                |              d{}: 0x151-0x152.7 (2)
0x150|   00                                          | .              |                tag: "funcidx" (0x0) 0x151-0x151.7 (1)
0x150|      09                                       |  .             |                x: 9 0x152-0x152.7 (1)
     |                                               |                |            [10]{}: ex 0x153-0x15b.7 (9)
     |                                               |                |              nm{}: 0x153-0x159.7 (7)
0x150|         06                                    |   .            |                n: 6 0x153-0x153.7 (1)
0x150|            72 65 73 75 6c 74                  |    result      |                b: "result" 0x154-0x159.7 (6)
     |                                               |                |              d{}: 0x15a-0x15b.7 (2)
0x150|                              00               |          .     |                tag: "funcidx" (0x0) 0x15a-0x15a.7 (1)
0x150|                                 0a            |           .    |                x: 10 0x15b-0x15b.7 (1)
     |                                               |                |            [11]{}: ex 0x15c-0x16c.7 (17)
     |                                               |                |              nm{}: 0x15c-0x16a.7 (15)
0x150|                                    0e         |            .   |                n: 14 0x15c-0x15c.7 (1)
0x150|                                       61 73 2d|             as-|                b: "as-block-first" 0x15d-0x16a.7 (14)
0x160|62 6c 6f 63 6b 2d 66 69 72 73 74               |block-first     |
     |                                               |                |              d{}: 0x16b-0x16c.7 (2)
0x160|                                 00            |           .    |                tag: "funcidx" (0x0) 0x16b-0x16b.7 (1)
0x160|                                    0c         |            .   |                x: 12 0x16c-0x16c.7 (1)
     |                                               |                |            [12]{}: ex 0x16d-0x17b.7 (15)
     |                                               |                |              nm{}: 0x16d-0x179.7 (13)
0x160|                                       0c      |             .  |                n: 12 0x16d-0x16d.7 (1)
0x160|                                          61 73|              as|                b: "as-block-mid" 0x16e-0x179.7 (12)
0x170|2d 62 6c 6f 63 6b 2d 6d 69 64                  |-block-mid      |
     |                                               |                |              d{}: 0x17a-0x17b.7 (2)
0x170|                              00               |          .     |                tag: "funcidx" (0x0) 0x17a-0x17a.7 (1)
0x170|                                 0d            |           .    |                x: 13 0x17b-0x17b.7 (1)
     |                                               |                |            [13]{}: ex 0x17c-0x18b.7 (16)
     |                                               |                |              nm{}: 0x17c-0x189.7 (14)
0x170|                                    0d         |            .   |                n: 13 0x17c-0x17c.7 (1)
0x170|                                       61 73 2d|             as-|                b: "as-block-last" 0x17d-0x189.7 (13)
0x180|62 6c 6f 63 6b 2d 6c 61 73 74                  |block-last      |
     |                                               |                |              d{}: 0x18a-0x18b.7 (2)
0x180|                              00               |          .     |                tag: "funcidx" (0x0) 0x18a-0x18a.7 (1)
0x180|                                 0e            |           .    |                x: 14 0x18b-0x18b.7 (1)
     |                                               |                |            [14]{}: ex 0x18c-0x19b.7 (16)
     |                                               |                |              nm{}: 0x18c-0x199.7 (14)
0x180|                                    0d         |            .   |                n: 13 0x18c-0x18c.7 (1)
0x180|                                       61 73 2d|             as-|                b: "as-loop-first" 0x18d-0x199.7 (13)
0x190|6c 6f 6f 70 2d 66 69 72 73 74                  |loop-first      |
     |                                               |                |              d{}: 0x19a-0x19b.7 (2)
0x190|                              00               |          .     |                tag: "funcidx" (0x0) 0x19a-0x19a.7 (1)
0x190|                                 0f            |           .    |                x: 15 0x19b-0x19b.7 (1)
     |                                               |                |            [15]{}: ex 0x19c-0x1a9.7 (14)
     |                                               |                |              nm{}: 0x19c-0x1a7.7 (12)
0x190|                                    0b         |            .   |                n: 11 0x19c-0x19c.7 (1)
0x190|                                       61 73 2d|             as-|                b: "as-loop-mid" 0x19d-0x1a7.7 (11)
0x1a0|6c 6f 6f 70 2d 6d 69 64                        |loop-mid        |
     |                                               |                |              d{}: 0x1a8-0x1a9.7 (2)
0x1a0|                        00                     |        .       |                tag: "funcidx" (0x0) 0x1a8-0x1a8.7 (1)
0x1a0|                           10                  |         .      |                x: 16 0x1a9-0x1a9.7 (1)
     |                                               |                |            [16]{}: ex 0x1aa-0x1b8.7 (15)
     |                                               |                |              nm{}: 0x1aa-0x1b6.7 (13)
0x1a0|                              0c               |          .     |                n: 12 0x1aa-0x1aa.7 (1)
0x1a0|                                 61 73 2d 6c 6f|           as-lo|                b: "as-loop-last" 0x1ab-0x1b6.7 (12)
0x1b0|6f 70 2d 6c 61 73 74                           |op-last         |
     |                                               |                |              d{}: 0x1b7-0x1b8.7 (2)
0x1b0|                     00                        |       .        |                tag: "funcidx" (0x0) 0x1b7-0x1b7.7 (1)
0x1b0|                        11                     |        .       |                x: 17 0x1b8-0x1b8.7 (1)
     |                                               |                |            [17]{}: ex 0x1b9-0x1c6.7 (14)
     |                                               |                |              nm{}: 0x1b9-0x1c4.7 (12)
0x1b0|                           0b                  |         .      |                n: 11 0x1b9-0x1b9.7 (1)
0x1b0|                              61 73 2d 62 72 2d|          as-br-|                b: "as-br-value" 0x1ba-0x1c4.7 (11)
0x1c0|76 61 6c 75 65                                 |value           |
     |                                               |                |              d{}: 0x1c5-0x1c6.7 (2)
0x1c0|               00                              |     .          |                tag: "funcidx" (0x0) 0x1c5-0x1c5.7 (1)
0x1c0|                  12                           |      .         |                x: 18 0x1c6-0x1c6.7 (1)
     |                                               |                |            [18]{}: ex 0x1c7-0x1d6.7 (16)
     |                                               |                |              nm{}: 0x1c7-0x1d4.7 (14)
0x1c0|                     0d                        |       .        |                n: 13 0x1c7-0x1c7.7 (1)
0x1c0|                        61 73 2d 62 72 5f 69 66|        as-br_if|                b: "as-br_if-cond" 0x1c8-0x1d4.7 (13)
0x1d0|2d 63 6f 6e 64                                 |-cond           |
     |                                               |                |              d{}: 0x1d5-0x1d6.7 (2)
0x1d0|               00                              |     .          |                tag: "funcidx" (0x0) 0x1d5-0x1d5.7 (1)
0x1d0|                  13                           |      .         |                x: 19 0x1d6-0x1d6.7 (1)
     |                                               |                |            [19]{}: ex 0x1d7-0x1e7.7 (17)
     |                                               |                |              nm{}: 0x1d7-0x1e5.7 (15)
0x1d0|                     0e                        |       .        |                n: 14 0x1d7-0x1d7.7 (1)
0x1d0|                        61 73 2d 62 72 5f 69 66|        as-br_if|                b: "as-br_if-value" 0x1d8-0x1e5.7 (14)
0x1e0|2d 76 61 6c 75 65                              |-value          |
     |                                               |                |              d{}: 0x1e6-0x1e7.7 (2)
0x1e0|                  00                           |      .         |                tag: "funcidx" (0x0) 0x1e6-0x1e6.7 (1)
0x1e0|                     14                        |       .        |                x: 20 0x1e7-0x1e7.7 (1)
     |                                               |                |            [20]{}: ex 0x1e8-0x1fd.7 (22)
     |                                               |                |              nm{}: 0x1e8-0x1fb.7 (20)
0x1e0|                        13                     |        .       |                n: 19 0x1e8-0x1e8.7 (1)
0x1e0|                           61 73 2d 62 72 5f 69|         as-br_i|                b: "as-br_if-value-cond" 0x1e9-0x1fb.7 (19)
0x1f0|66 2d 76 61 6c 75 65 2d 63 6f 6e 64            |f-value-cond    |
     |                                               |                |              d{}: 0x1fc-0x1fd.7 (2)
0x1f0|                                    00         |            .   |                tag: "funcidx" (0x0) 0x1fc-0x1fc.7 (1)
0x1f0|                                       15      |             .  |                x: 21 0x1fd-0x1fd.7 (1)
     |                                               |                |            [21]{}: ex 0x1fe-0x211.7 (20)
     |                                               |                |              nm{}: 0x1fe-0x20f.7 (18)
0x1f0|                                          11   |              . |                n: 17 0x1fe-0x1fe.7 (1)
0x1f0|                                             61|               a|                b: "as-br_table-index" 0x1ff-0x20f.7 (17)
0x200|73 2d 62 72 5f 74 61 62 6c 65 2d 69 6e 64 65 78|s-br_table-index|
     |                                               |                |              d{}: 0x210-0x211.7 (2)
0x210|00                                             |.               |                tag: "funcidx" (0x0) 0x210-0x210.7 (1)
0x210|   16                                          | .              |                x: 22 0x211-0x211.7 (1)
     |                                               |                |            [22]{}: ex 0x212-0x225.7 (20)
     |                                               |                |              nm{}: 0x212-0x223.7 (18)
0x210|      11                                       |  .             |                n: 17 0x212-0x212.7 (1)
0x210|         61 73 2d 62 72 5f 74 61 62 6c 65 2d 76|   as-br_table-v|                b: "as-br_table-value" 0x213-0x223.7 (17)
0x220|61 6c 75 65                                    |alue            |
     |                                               |                |              d{}: 0x224-0x225.7 (2)
0x220|            00                                 |    .           |                tag: "funcidx" (0x0) 0x224-0x224.7 (1)
0x220|               17                              |     .          |                x: 23 0x225-0x225.7 (1)
     |                                               |                |            [23]{}: ex 0x226-0x23f.7 (26)
     |                                               |                |              nm{}: 0x226-0x23d.7 (24)
0x220|                  17                           |      .         |                n: 23 0x226-0x226.7 (1)
0x220|                     61 73 2d 62 72 5f 74 61 62|       as-br_tab|                b: "as-br_table-value-index" 0x227-0x23d.7 (23)
0x230|6c 65 2d 76 61 6c 75 65 2d 69 6e 64 65 78      |le-value-index  |
     |                                               |                |              d{}: 0x23e-0x23f.7 (2)
0x230|                                          00   |              . |                tag: "funcidx" (0x0) 0x23e-0x23e.7 (1)
0x230|                                             18|               .|                x: 24 0x23f-0x23f.7 (1)
     |                                               |                |            [24]{}: ex 0x240-0x251.7 (18)
     |                                               |                |              nm{}: 0x240-0x24f.7 (16)
0x240|0f                                             |.               |                n: 15 0x240-0x240.7 (1)
0x240|   61 73 2d 72 65 74 75 72 6e 2d 76 61 6c 75 65| as-return-value|                b: "as-return-value" 0x241-0x24f.7 (15)
     |                                               |                |              d{}: 0x250-0x251.7 (2)
0x250|00                                             |.               |                tag: "funcidx" (0x0) 0x250-0x250.7 (1)
0x250|   19                                          | .              |                x: 25 0x251-0x251.7 (1)
     |                                               |                |            [25]{}: ex 0x252-0x25e.7 (13)
     |                                               |                |              nm{}: 0x252-0x25c.7 (11)
0x250|      0a                                       |  .             |                n: 10 0x252-0x252.7 (1)
0x250|         61 73 2d 69 66 2d 63 6f 6e 64         |   as-if-cond   |                b: "as-if-cond" 0x253-0x25c.7 (10)
     |                                               |                |              d{}: 0x25d-0x25e.7 (2)
0x250|                                       00      |             .  |                tag: "funcidx" (0x0) 0x25d-0x25d.7 (1)
0x250|                                          1a   |              . |                x: 26 0x25e-0x25e.7 (1)
     |                                               |                |            [26]{}: ex 0x25f-0x26b.7 (13)
     |                                               |                |              nm{}: 0x25f-0x269.7 (11)
0x250|                                             0a|               .|                n: 10 0x25f-0x25f.7 (1)
0x260|61 73 2d 69 66 2d 74 68 65 6e                  |as-if-then      |                b: "as-if-then" 0x260-0x269.7 (10)
     |                                               |                |              d{}: 0x26a-0x26b.7 (2)
0x260|                              00               |          .     |                tag: "funcidx" (0x0) 0x26a-0x26a.7 (1)
0x260|                                 1b            |           .    |                x: 27 0x26b-0x26b.7 (1)
     |                                               |                |            [27]{}: ex 0x26c-0x278.7 (13)
     |                                               |                |              nm{}: 0x26c-0x276.7 (11)
0x260|                                    0a         |            .   |                n: 10 0x26c-0x26c.7 (1)
0x260|                                       61 73 2d|             as-|                b: "as-if-else" 0x26d-0x276.7 (10)
0x270|69 66 2d 65 6c 73 65                           |if-else         |
     |                                               |                |              d{}: 0x277-0x278.7 (2)
0x270|                     00                        |       .        |                tag: "funcidx" (0x0) 0x277-0x277.7 (1)
0x270|                        1c                     |        .       |                x: 28 0x278-0x278.7 (1)
     |                                               |                |            [28]{}: ex 0x279-0x28a.7 (18)
     |                                               |                |              nm{}: 0x279-0x288.7 (16)
0x270|                           0f                  |         .      |                n: 15 0x279-0x279.7 (1)
0x270|                              61 73 2d 73 65 6c|          as-sel|                b: "as-select-first" 0x27a-0x288.7 (15)
0x280|65 63 74 2d 66 69 72 73 74                     |ect-first       |
     |                                               |                |              d{}: 0x289-0x28a.7 (2)
0x280|                           00                  |         .      |                tag: "funcidx" (0x0) 0x289-0x289.7 (1)
0x280|                              1d               |          .     |                x: 29 0x28a-0x28a.7 (1)
     |                                               |                |            [29]{}: ex 0x28b-0x29d.7 (19)
     |                                               |                |              nm{}: 0x28b-0x29b.7 (17)
0x280|                                 10            |           .    |                n: 16 0x28b-0x28b.7 (1)
0x280|                                    61 73 2d 73|            as-s|                b: "as-select-second" 0x28c-0x29b.7 (16)
0x290|65 6c 65 63 74 2d 73 65 63 6f 6e 64            |elect-second    |
     |                                               |                |              d{}: 0x29c-0x29d.7 (2)
0x290|                                    00         |            .   |                tag: "funcidx" (0x0) 0x29c-0x29c.7 (1)
0x290|                                       1e      |             .  |                x: 30 0x29d-0x29d.7 (1)
     |                                               |                |            [30]{}: ex 0x29e-0x2ae.7 (17)
     |                                               |                |              nm{}: 0x29e-0x2ac.7 (15)
0x290|                                          0e   |              . |                n: 14 0x29e-0x29e.7 (1)
0x290|                                             61|               a|                b: "as-select-cond" 0x29f-0x2ac.7 (14)
0x2a0|73 2d 73 65 6c 65 63 74 2d 63 6f 6e 64         |s-select-cond   |
     |                                               |                |              d{}: 0x2ad-0x2ae.7 (2)
0x2a0|                                       00      |             .  |                tag: "funcidx" (0x0) 0x2ad-0x2ad.7 (1)
0x2a0|                                          1f   |              . |                x: 31 0x2ae-0x2ae.7 (1)
     |                                               |                |            [31]{}: ex 0x2af-0x2be.7 (16)
     |                                               |                |              nm{}: 0x2af-0x2bc.7 (14)
0x2a0|                                             0d|               .|                n: 13 0x2af-0x2af.7 (1)
0x2b0|61 73 2d 63 61 6c 6c 2d 66 69 72 73 74         |as-call-first   |                b: "as-call-first" 0x2b0-0x2bc.7 (13)
     |                                               |                |              d{}: 0x2bd-0x2be.7 (2)
0x2b0|                                       00      |             .  |                tag: "funcidx" (0x0) 0x2bd-0x2bd.7 (1)
0x2b0|                                          21   |              ! |                x: 33 0x2be-0x2be.7 (1)
     |                                               |                |            [32]{}: ex 0x2bf-0x2cc.7 (14)
     |                                               |                |              nm{}: 0x2bf-0x2ca.7 (12)
0x2b0|                                             0b|               .|                n: 11 0x2bf-0x2bf.7 (1)
0x2c0|61 73 2d 63 61 6c 6c 2d 6d 69 64               |as-call-mid     |                b: "as-call-mid" 0x2c0-0x2ca.7 (11)
     |                                               |                |              d{}: 0x2cb-0x2cc.7 (2)
0x2c0|                                 00            |           .    |                tag: "funcidx" (0x0) 0x2cb-0x2cb.7 (1)
0x2c0|                                    22         |            "   |                x: 34 0x2cc-0x2cc.7 (1)
     |                                               |                |            [33]{}: ex 0x2cd-0x2db.7 (15)
     |                                               |                |              nm{}: 0x2cd-0x2d9.7 (13)
0x2c0|                                       0c      |             .  |                n: 12 0x2cd-0x2cd.7 (1)
0x2c0|                                          61 73|              as|                b: "as-call-last" 0x2ce-0x2d9.7 (12)
0x2d0|2d 63 61 6c 6c 2d 6c 61 73 74                  |-call-last      |
     |                                               |                |              d{}: 0x2da-0x2db.7 (2)
0x2d0|                              00               |          .     |                tag: "funcidx" (0x0) 0x2da-0x2da.7 (1)
0x2d0|                                 23            |           #    |                x: 35 0x2db-0x2db.7 (1)
     |                                               |                |            [34]{}: ex 0x2dc-0x2f4.7 (25)
     |                                               |                |              nm{}: 0x2dc-0x2f2.7 (23)
0x2d0|                                    16         |            .   |                n: 22 0x2dc-0x2dc.7 (1)
0x2d0|                                       61 73 2d|             as-|                b: "as-call_indirect-first" 0x2dd-0x2f2.7 (22)
0x2e0|63 61 6c 6c 5f 69 6e 64 69 72 65 63 74 2d 66 69|call_indirect-fi|
0x2f0|72 73 74                                       |rst             |
     |                                               |                |              d{}: 0x2f3-0x2f4.7 (2)
0x2f0|         00                                    |   .            |                tag: "funcidx" (0x0) 0x2f3-0x2f3.7 (1)
0x2f0|            24                                 |    $           |                x: 36 0x2f4-0x2f4.7 (1)
     |                                               |                |            [35]{}: ex 0x2f5-0x30b.7 (23)
     |                                               |                |              nm{}: 0x2f5-0x309.7 (21)
0x2f0|               14                              |     .          |                n: 20 0x2f5-0x2f5.7 (1)
0x2f0|                  61 73 2d 63 61 6c 6c 5f 69 6e|      as-call_in|                b: "as-call_indirect-mid" 0x2f6-0x309.7 (20)
0x300|64 69 72 65 63 74 2d 6d 69 64                  |direct-mid      |
     |                                               |                |              d{}: 0x30a-0x30b.7 (2)
0x300|                              00               |          .     |                tag: "funcidx" (0x0) 0x30a-0x30a.7 (1)
0x300|                                 25            |           %    |                x: 37 0x30b-0x30b.7 (1)
     |                                               |                |            [36]{}: ex 0x30c-0x323.7 (24)
     |                                               |                |              nm{}: 0x30c-0x321.7 (22)
0x300|                                    15         |            .   |                n: 21 0x30c-0x30c.7 (1)
0x300|                                       61 73 2d|             as-|                b: "as-call_indirect-last" 0x30d-0x321.7 (21)
0x310|63 61 6c 6c 5f 69 6e 64 69 72 65 63 74 2d 6c 61|call_indirect-la|
0x320|73 74                                          |st              |
     |                                               |                |              d{}: 0x322-0x323.7 (2)
0x320|      00                                       |  .             |                tag: "funcidx" (0x0) 0x322-0x322.7 (1)
0x320|         26                                    |   &            |                x: 38 0x323-0x323.7 (1)
     |                                               |                |            [37]{}: ex 0x324-0x33c.7 (25)
     |                                               |                |              nm{}: 0x324-0x33a.7 (23)
0x320|            16                                 |    .           |                n: 22 0x324-0x324.7 (1)
0x320|               61 73 2d 63 61 6c 6c 5f 69 6e 64|     as-call_ind|                b: "as-call_indirect-index" 0x325-0x33a.7 (22)
0x330|69 72 65 63 74 2d 69 6e 64 65 78               |irect-index     |
     |                                               |                |              d{}: 0x33b-0x33c.7 (2)
0x330|                                 00            |           .    |                tag: "funcidx" (0x0) 0x33b-0x33b.7 (1)
0x330|                                    27         |            '   |                x: 39 0x33c-0x33c.7 (1)
     |                                               |                |            [38]{}: ex 0x33d-0x351.7 (21)
     |                                               |                |              nm{}: 0x33d-0x34f.7 (19)
0x330|                                       12      |             .  |                n: 18 0x33d-0x33d.7 (1)
0x330|                                          61 73|              as|                b: "as-local.set-value" 0x33e-0x34f.7 (18)
0x340|2d 6c 6f 63 61 6c 2e 73 65 74 2d 76 61 6c 75 65|-local.set-value|
     |                                               |                |              d{}: 0x350-0x351.7 (2)
0x350|00                                             |.               |                tag: "funcidx" (0x0) 0x350-0x350.7 (1)
0x350|   28                                          | (              |                x: 40 0x351-0x351.7 (1)
     |                                               |                |            [39]{}: ex 0x352-0x366.7 (21)
     |                                               |                |              nm{}: 0x352-0x364.7 (19)
0x350|      12                                       |  .             |                n: 18 0x352-0x352.7 (1)
0x350|         61 73 2d 6c 6f 63 61 6c 2e 74 65 65 2d|   as-local.tee-|                b: "as-local.tee-value" 0x353-0x364.7 (18)
0x360|76 61 6c 75 65                                 |value           |
     |                                               |                |              d{}: 0x365-0x366.7 (2)
0x360|               00                              |     .          |                tag: "funcidx" (0x0) 0x365-0x365.7 (1)
0x360|                  29                           |      )         |                x: 41 0x366-0x366.7 (1)
     |                                               |                |            [40]{}: ex 0x367-0x37c.7 (22)
     |                                               |                |              nm{}: 0x367-0x37a.7 (20)
0x360|                     13                        |       .        |                n: 19 0x367-0x367.7 (1)
0x360|                        61 73 2d 67 6c 6f 62 61|        as-globa|                b: "as-global.set-value" 0x368-0x37a.7 (19)
0x370|6c 2e 73 65 74 2d 76 61 6c 75 65               |l.set-value     |
     |                                               |                |              d{}: 0x37b-0x37c.7 (2)
0x370|                                 00            |           .    |                tag: "funcidx" (0x0) 0x37b-0x37b.7 (1)
0x370|                                    2a         |            *   |                x: 42 0x37c-0x37c.7 (1)
     |                                               |                |            [41]{}: ex 0x37d-0x38e.7 (18)
     |                                               |                |              nm{}: 0x37d-0x38c.7 (16)
0x370|                                       0f      |             .  |                n: 15 0x37d-0x37d.7 (1)
0x370|                                          61 73|              as|                b: "as-load-address" 0x37e-0x38c.7 (15)
0x380|2d 6c 6f 61 64 2d 61 64 64 72 65 73 73         |-load-address   |
     |                                               |                |              d{}: 0x38d-0x38e.7 (2)
0x380|                                       00      |             .  |                tag: "funcidx" (0x0) 0x38d-0x38d.7 (1)
0x380|                                          2b   |              + |                x: 43 0x38e-0x38e.7 (1)
     |                                               |                |            [42]{}: ex 0x38f-0x3a1.7 (19)
     |                                               |                |              nm{}: 0x38f-0x39f.7 (17)
0x380|                                             10|               .|                n: 16 0x38f-0x38f.7 (1)
0x390|61 73 2d 6c 6f 61 64 4e 2d 61 64 64 72 65 73 73|as-loadN-address|                b: "as-loadN-address" 0x390-0x39f.7 (16)
     |                                               |                |              d{}: 0x3a0-0x3a1.7 (2)
0x3a0|00                                             |.               |                tag: "funcidx" (0x0) 0x3a0-0x3a0.7 (1)
0x3a0|   2c                                          | ,              |                x: 44 0x3a1-0x3a1.7 (1)
     |                                               |                |            [43]{}: ex 0x3a2-0x3b4.7 (19)
     |                                               |                |              nm{}: 0x3a2-0x3b2.7 (17)
0x3a0|      10                                       |  .             |                n: 16 0x3a2-0x3a2.7 (1)
0x3a0|         61 73 2d 73 74 6f 72 65 2d 61 64 64 72|   as-store-addr|                b: "as-store-address" 0x3a3-0x3b2.7 (16)
0x3b0|65 73 73                                       |ess             |
     |                                               |                |              d{}: 0x3b3-0x3b4.7 (2)
0x3b0|         00                                    |   .            |                tag: "funcidx" (0x0) 0x3b3-0x3b3.7 (1)
0x3b0|            2d                                 |    -           |                x: 45 0x3b4-0x3b4.7 (1)
     |                                               |                |            [44]{}: ex 0x3b5-0x3c5.7 (17)
     |                                               |                |              nm{}: 0x3b5-0x3c3.7 (15)
0x3b0|               0e                              |     .          |                n: 14 0x3b5-0x3b5.7 (1)
0x3b0|                  61 73 2d 73 74 6f 72 65 2d 76|      as-store-v|                b: "as-store-value" 0x3b6-0x3c3.7 (14)
0x3c0|61 6c 75 65                                    |alue            |
     |                                               |                |              d{}: 0x3c4-0x3c5.7 (2)
0x3c0|            00                                 |    .           |                tag: "funcidx" (0x0) 0x3c4-0x3c4.7 (1)
0x3c0|               2e                              |     .          |                x: 46 0x3c5-0x3c5.7 (1)
     |                                               |                |            [45]{}: ex 0x3c6-0x3d9.7 (20)
     |                                               |                |              nm{}: 0x3c6-0x3d7.7 (18)
0x3c0|                  11                           |      .         |                n: 17 0x3c6-0x3c6.7 (1)
0x3c0|                     61 73 2d 73 74 6f 72 65 4e|       as-storeN|                b: "as-storeN-address" 0x3c7-0x3d7.7 (17)
0x3d0|2d 61 64 64 72 65 73 73                        |-address        |
     |                                               |                |              d{}: 0x3d8-0x3d9.7 (2)
0x3d0|                        00                     |        .       |                tag: "funcidx" (0x0) 0x3d8-0x3d8.7 (1)
0x3d0|                           2f                  |         /      |                x: 47 0x3d9-0x3d9.7 (1)
     |                                               |                |            [46]{}: ex 0x3da-0x3eb.7 (18)
     |                                               |                |              nm{}: 0x3da-0x3e9.7 (16)
0x3d0|                              0f               |          .     |                n: 15 0x3da-0x3da.7 (1)
0x3d0|                                 61 73 2d 73 74|           as-st|                b: "as-storeN-value" 0x3db-0x3e9.7 (15)
0x3e0|6f 72 65 4e 2d 76 61 6c 75 65                  |oreN-value      |
     |                                               |                |              d{}: 0x3ea-0x3eb.7 (2)
0x3e0|                              00               |          .     |                tag: "funcidx" (0x0) 0x3ea-0x3ea.7 (1)
0x3e0|                                 30            |           0    |                x: 48 0x3eb-0x3eb.7 (1)
     |                                               |                |            [47]{}: ex 0x3ec-0x3fe.7 (19)
     |                                               |                |              nm{}: 0x3ec-0x3fc.7 (17)
0x3e0|                                    10         |            .   |                n: 16 0x3ec-0x3ec.7 (1)
0x3e0|                                       61 73 2d|             as-|                b: "as-unary-operand" 0x3ed-0x3fc.7 (16)
0x3f0|75 6e 61 72 79 2d 6f 70 65 72 61 6e 64         |unary-operand   |
     |                                               |                |              d{}: 0x3fd-0x3fe.7 (2)
0x3f0|                                       00      |             .  |                tag: "funcidx" (0x0) 0x3fd-0x3fd.7 (1)
0x3f0|                                          31   |              1 |                x: 49 0x3fe-0x3fe.7 (1)
     |                                               |                |            [48]{}: ex 0x3ff-0x40f.7 (17)
     |                                               |                |              nm{}: 0x3ff-0x40d.7 (15)
0x3f0|                                             0e|               .|                n: 14 0x3ff-0x3ff.7 (1)
0x400|61 73 2d 62 69 6e 61 72 79 2d 6c 65 66 74      |as-binary-left  |                b: "as-binary-left" 0x400-0x40d.7 (14)
     |                                               |                |              d{}: 0x40e-0x40f.7 (2)
0x400|                                          00   |              . |                tag: "funcidx" (0x0) 0x40e-0x40e.7 (1)
0x400|                                             32|               2|                x: 50 0x40f-0x40f.7 (1)
     |                                               |                |            [49]{}: ex 0x410-0x421.7 (18)
     |                                               |                |              nm{}: 0x410-0x41f.7 (16)
0x410|0f                                             |.               |                n: 15 0x410-0x410.7 (1)
0x410|   61 73 2d 62 69 6e 61 72 79 2d 72 69 67 68 74| as-binary-right|                b: "as-binary-right" 0x411-0x41f.7 (15)
     |                                               |                |              d{}: 0x420-0x421.7 (2)
0x420|00                                             |.               |                tag: "funcidx" (0x0) 0x420-0x420.7 (1)
0x420|   33                                          | 3              |                x: 51 0x421-0x421.7 (1)
     |                                               |                |            [50]{}: ex 0x422-0x433.7 (18)
     |                                               |                |              nm{}: 0x422-0x431.7 (16)
0x420|      0f                                       |  .             |                n: 15 0x422-0x422.7 (1)
0x420|         61 73 2d 74 65 73 74 2d 6f 70 65 72 61|   as-test-opera|                b: "as-test-operand" 0x423-0x431.7 (15)
0x430|6e 64                                          |nd              |
     |                                               |                |              d{}: 0x432-0x433.7 (2)
0x430|      00                                       |  .             |                tag: "funcidx" (0x0) 0x432-0x432.7 (1)
0x430|         34                                    |   4            |                x: 52 0x433-0x433.7 (1)
     |                                               |                |            [51]{}: ex 0x434-0x445.7 (18)
     |                                               |                |              nm{}: 0x434-0x443.7 (16)
0x430|            0f                                 |    .           |                n: 15 0x434-0x434.7 (1)
0x430|               61 73 2d 63 6f 6d 70 61 72 65 2d|     as-compare-|                b: "as-compare-left" 0x435-0x443.7 (15)
0x440|6c 65 66 74                                    |left            |
     |                                               |                |              d{}: 0x444-0x445.7 (2)
0x440|            00                                 |    .           |                tag: "funcidx" (0x0) 0x444-0x444.7 (1)
0x440|               35                              |     5          |                x: 53 0x445-0x445.7 (1)
     |                                               |                |            [52]{}: ex 0x446-0x458.7 (19)
     |                                               |                |              nm{}: 0x446-0x456.7 (17)
0x440|                  10                           |      .         |                n: 16 0x446-0x446.7 (1)
0x440|                     61 73 2d 63 6f 6d 70 61 72|       as-compar|                b: "as-compare-right" 0x447-0x456.7 (16)
0x450|65 2d 72 69 67 68 74                           |e-right         |
     |                                               |                |              d{}: 0x457-0x458.7 (2)
0x450|                     00                        |       .        |                tag: "funcidx" (0x0) 0x457-0x457.7 (1)
0x450|                        36                     |        6       |                x: 54 0x458-0x458.7 (1)
     |                                               |                |            [53]{}: ex 0x459-0x46d.7 (21)
     |                                               |                |              nm{}: 0x459-0x46b.7 (19)
0x450|                           12                  |         .      |                n: 18 0x459-0x459.7 (1)
0x450|                              61 73 2d 63 6f 6e|          as-con|                b: "as-convert-operand" 0x45a-0x46b.7 (18)
0x460|76 65 72 74 2d 6f 70 65 72 61 6e 64            |vert-operand    |
     |                                               |                |              d{}: 0x46c-0x46d.7 (2)
0x460|                                    00         |            .   |                tag: "funcidx" (0x0) 0x46c-0x46c.7 (1)
0x460|                                       37      |             7  |                x: 55 0x46d-0x46d.7 (1)
     |                                               |                |            [54]{}: ex 0x46e-0x483.7 (22)
     |                                               |                |              nm{}: 0x46e-0x481.7 (20)
0x460|                                          13   |              . |                n: 19 0x46e-0x46e.7 (1)
0x460|                                             61|               a|                b: "as-memory.grow-size" 0x46f-0x481.7 (19)
0x470|73 2d 6d 65 6d 6f 72 79 2e 67 72 6f 77 2d 73 69|s-memory.grow-si|
0x480|7a 65                                          |ze              |
     |                                               |                |              d{}: 0x482-0x483.7 (2)
0x480|      00                                       |  .             |                tag: "funcidx" (0x0) 0x482-0x482.7 (1)
0x480|         38                                    |   8            |                x: 56 0x483-0x483.7 (1)
     |                                               |                |    [6]{}: section 0x484-0x48c.7 (9)
0x480|            09                                 |    .           |      id: "element section" (9) 0x484-0x484.7 (1)
0x480|               07                              |     .          |      size: 7 0x485-0x485.7 (1)
     |                                               |                |      element{}: 0x486-0x48c.7 (7)
     |                                               |                |        seg{}: 0x486-0x48c.7 (7)
0x480|                  01                           |      .         |          n: 1 0x486-0x486.7 (1)
     |                                               |                |          x[0:1]: 0x487-0x48c.7 (6)
     |                                               |                |            [0]{}: seg 0x487-0x48c.7 (6)
0x480|                     00                        |       .        |              tag: 0 0x487-0x487.7 (1)
     |                                               |                |              e[0:2]: 0x488-0x48a.7 (3)
     |                                               |                |                [0]{}: in 0x488-0x489.7 (2)
0x480|                        41                     |        A       |                  i32.const: 0x41 (valid) 0x488-0x488.7 (1)
0x480|                           00                  |         .      |                  n: 0 0x489-0x489.7 (1)
     |                                               |                |                [1]{}: in 0x48a-0x48a.7 (1)
0x480|                              0b               |          .     |                  end: 0xb (valid) 0x48a-0x48a.7 (1)
     |                                               |                |              y{}: 0x48b-0x48c.7 (2)
0x480|                                 01            |           .    |                n: 1 0x48b-0x48b.7 (1)
     |                                               |                |                x[0:1]: 0x48c-0x48c.7 (1)
0x480|                                    20         |                |                  [0]: 32 y 0x48c-0x48c.7 (1)
     |                                               |                |    [7]{}: section 0x48d-0x812.7 (902)
0x480|                                       0a      |             .  |      id: "code section" (10) 0x48d-0x48d.7 (1)
0x480|                                          83 07|              ..|      size: 899 0x48e-0x48f.7 (2)
     |                                               |                |      content{}: 0x490-0x812.7 (899)
     |                                               |                |        code{}: 0x490-0x812.7 (899)
0x490|39                                             |9               |          n: 57 0x490-0x490.7 (1)
     |                                               |                |          x[0:57]: 0x491-0x812.7 (898)
     |                                               |                |            [0]{}: code 0x491-0x499.7 (9)
0x490|   08                                          | .              |              size: 8 0x491-0x491.7 (1)
     |                                               |                |              code{}: 0x492-0x499.7 (8)
     |                                               |                |                t{}: 0x492-0x494.7 (3)
0x490|      01                                       |  .             |                  n: 1 0x492-0x492.7 (1)
     |                                               |                |                  x[0:1]: 0x493-0x494.7 (2)
     |                                               |                |                    [0]{}: t 0x493-0x494.7 (2)
0x490|         01                                    |   .            |                      n: 1 0x493-0x493.7 (1)
0x490|            7f                                 |    .           |                      t: "i32" (0x7f) 0x494-0x494.7 (1)
     |                                               |                |                e[0:3]: 0x495-0x499.7 (5)
     |                                               |                |                  [0]{}: in 0x495-0x496.7 (2)
0x490|               41                              |     A          |                    i32.const: 0x41 (valid) 0x495-0x495.7 (1)
0x490|                  00                           |      .         |                    n: 0 0x496-0x496.7 (1)
     |                                               |                |                  [1]{}: in 0x497-0x498.7 (2)
0x490|                     22                        |       "        |                    local.tee: 0x22 (valid) 0x497-0x497.7 (1)
0x490|                        00                     |        .       |                    x: 0 0x498-0x498.7 (1)
     |                                               |                |                  [2]{}: in 0x499-0x499.7 (1)
0x490|                           0b                  |         .      |                    end: 0xb (valid) 0x499-0x499.7 (1)
     |                                               |                |            [1]{}: code 0x49a-0x4a2.7 (9)
0x490|                              08               |          .     |              size: 8 0x49a-0x49a.7 (1)
     |                                               |                |              code{}: 0x49b-0x4a2.7 (8)
     |                                               |                |                t{}: 0x49b-0x49d.7 (3)
0x490|                                 01            |           .    |                  n: 1 0x49b-0x49b.7 (1)
     |                                               |                |                  x[0:1]: 0x49c-0x49d.7 (2)
     |                                               |                |                    [0]{}: t 0x49c-0x49d.7 (2)
0x490|                                    01         |            .   |                      n: 1 0x49c-0x49c.7 (1)
0x490|                                       7e      |             ~  |                      t: "i64" (0x7e) 0x49d-0x49d.7 (1)
     |                                               |                |                e[0:3]: 0x49e-0x4a2.7 (5)
     |                                               |                |                  [0]{}: in 0x49e-0x49f.7 (2)
0x490|                                          42   |              B |                    i64.const: 0x42 (valid) 0x49e-0x49e.7 (1)
0x490|                                             00|               .|                    n: 0 0x49f-0x49f.7 (1)
     |                                               |                |                  [1]{}: in 0x4a0-0x4a1.7 (2)
0x4a0|22                                             |"               |                    local.tee: 0x22 (valid) 0x4a0-0x4a0.7 (1)
0x4a0|   00                                          | .              |                    x: 0 0x4a1-0x4a1.7 (1)
     |                                               |                |                  [2]{}: in 0x4a2-0x4a2.7 (1)
0x4a0|      0b                                       |  .             |                    end: 0xb (valid) 0x4a2-0x4a2.7 (1)
     |                                               |                |            [2]{}: code 0x4a3-0x4ae.7 (12)
0x4a0|         0b                                    |   .            |              size: 11 0x4a3-0x4a3.7 (1)
     |                                               |                |              code{}: 0x4a4-0x4ae.7 (11)
     |                                               |                |                t{}: 0x4a4-0x4a6.7 (3)
0x4a0|            01                                 |    .           |                  n: 1 0x4a4-0x4a4.7 (1)
     |                                               |                |                  x[0:1]: 0x4a5-0x4a6.7 (2)
     |                                               |                |                    [0]{}: t 0x4a5-0x4a6.7 (2)
0x4a0|               01                              |     .          |                      n: 1 0x4a5-0x4a5.7 (1)
0x4a0|                  7d                           |      }         |                      t: "f32" (0x7d) 0x4a6-0x4a6.7 (1)
     |                                               |                |                e[0:3]: 0x4a7-0x4ae.7 (8)
     |                                               |                |                  [0]{}: in 0x4a7-0x4ab.7 (5)
0x4a0|                     43                        |       C        |                    f32.const: 0x43 (valid) 0x4a7-0x4a7.7 (1)
0x4a0|                        00 00 00 00            |        ....    |                    z: 0 0x4a8-0x4ab.7 (4)
     |                                               |                |                  [1]{}: in 0x4ac-0x4ad.7 (2)
0x4a0|                                    22         |            "   |                    local.tee: 0x22 (valid) 0x4ac-0x4ac.7 (1)
0x4a0|                                       00      |             .  |                    x: 0 0x4ad-0x4ad.7 (1)
     |                                               |                |                  [2]{}: in 0x4ae-0x4ae.7 (1)
0x4a0|                                          0b   |              . |                    end: 0xb (valid) 0x4ae-0x4ae.7 (1)
     |                                               |                |            [3]{}: code 0x4af-0x4be.7 (16)
0x4a0|                                             0f|               .|              size: 15 0x4af-0x4af.7 (1)
     |                                               |                |              code{}: 0x4b0-0x4be.7 (15)
     |                                               |                |                t{}: 0x4b0-0x4b2.7 (3)
0x4b0|01                                             |.               |                  n: 1 0x4b0-0x4b0.7 (1)
     |                                               |                |                  x[0:1]: 0x4b1-0x4b2.7 (2)
     |                                               |                |                    [0]{}: t 0x4b1-0x4b2.7 (2)
0x4b0|   01                                          | .              |                      n: 1 0x4b1-0x4b1.7 (1)
0x4b0|      7c                                       |  |             |                      t: "f64" (0x7c) 0x4b2-0x4b2.7 (1)
     |                                               |                |                e[0:3]: 0x4b3-0x4be.7 (12)
     |                                               |                |                  [0]{}: in 0x4b3-0x4bb.7 (9)
0x4b0|         44                                    |   D            |                    f64.const: 0x44 (valid) 0x4b3-0x4b3.7 (1)
0x4b0|            00 00 00 00 00 00 00 00            |    ........    |                    z: 0 0x4b4-0x4bb.7 (8)
     |                                               |                |                  [1]{}: in 0x4bc-0x4bd.7 (2)
0x4b0|                                    22         |            "   |                    local.tee: 0x22 (valid) 0x4bc-0x4bc.7 (1)
0x4b0|                                       00      |             .  |                    x: 0 0x4bd-0x4bd.7 (1)
     |                                               |                |                  [2]{}: in 0x4be-0x4be.7 (1)
0x4b0|                                          0b   |              . |                    end: 0xb (valid) 0x4be-0x4be.7 (1)
     |                                               |                |            [4]{}: code 0x4bf-0x4c5.7 (7)
0x4b0|                                             06|               .|              size: 6 0x4bf-0x4bf.7 (1)
     |                                               |                |              code{}: 0x4c0-0x4c5.7 (6)
     |                                               |                |                t{}: 0x4c0-0x4c0.7 (1)
0x4c0|00                                             |.               |                  n: 0 0x4c0-0x4c0.7 (1)
     |                                               |                |                  x[0:0]: 0x4c1-NA (0)
     |                                               |                |                e[0:3]: 0x4c1-0x4c5.7 (5)
     |                                               |                |                  [0]{}: in 0x4c1-0x4c2.7 (2)
0x4c0|   41                                          | A              |                    i32.const: 0x41 (valid) 0x4c1-0x4c1.7 (1)
0x4c0|      0a                                       |  .             |                    n: 10 0x4c2-0x4c2.7 (1)
     |                                               |                |                  [1]{}: in 0x4c3-0x4c4.7 (2)
0x4c0|         22                                    |   "            |                    local.tee: 0x22 (valid) 0x4c3-0x4c3.7 (1)
0x4c0|            00                                 |    .           |                    x: 0 0x4c4-0x4c4.7 (1)
     |                                               |                |                  [2]{}: in 0x4c5-0x4c5.7 (1)
0x4c0|               0b                              |     .          |                    end: 0xb (valid) 0x4c5-0x4c5.7 (1)
     |                                               |                |            [5]{}: code 0x4c6-0x4cc.7 (7)
0x4c0|                  06                           |      .         |              size: 6 0x4c6-0x4c6.7 (1)
     |                                               |                |              code{}: 0x4c7-0x4cc.7 (6)
     |                                               |                |                t{}: 0x4c7-0x4c7.7 (1)
0x4c0|                     00                        |       .        |                  n: 0 0x4c7-0x4c7.7 (1)
     |                                               |                |                  x[0:0]: 0x4c8-NA (0)
     |                                               |                |                e[0:3]: 0x4c8-0x4cc.7 (5)
     |                                               |                |                  [0]{}: in 0x4c8-0x4c9.7 (2)
0x4c0|                        42                     |        B       |                    i64.const: 0x42 (valid) 0x4c8-0x4c8.7 (1)
0x4c0|                           0b                  |         .      |                    n: 11 0x4c9-0x4c9.7 (1)
     |                                               |                |                  [1]{}: in 0x4ca-0x4cb.7 (2)
0x4c0|                              22               |          "     |                    local.tee: 0x22 (valid) 0x4ca-0x4ca.7 (1)
0x4c0|                                 00            |           .    |                    x: 0 0x4cb-0x4cb.7 (1)
     |                                               |                |                  [2]{}: in 0x4cc-0x4cc.7 (1)
0x4c0|                                    0b         |            .   |                    end: 0xb (valid) 0x4cc-0x4cc.7 (1)
     |                                               |                |            [6]{}: code 0x4cd-0x4d6.7 (10)
0x4c0|                                       09      |             .  |              size: 9 0x4cd-0x4cd.7 (1)
     |                                               |                |              code{}: 0x4ce-0x4d6.7 (9)
     |                                               |                |                t{}: 0x4ce-0x4ce.7 (1)
0x4c0|                                          00   |              . |                  n: 0 0x4ce-0x4ce.7 (1)
     |                                               |                |                  x[0:0]: 0x4cf-NA (0)
     |                                               |                |                e[0:3]: 0x4cf-0x4d6.7 (8)
     |                                               |                |                  [0]{}: in 0x4cf-0x4d3.7 (5)
0x4c0|                                             43|               C|                    f32.const: 0x43 (valid) 0x4cf-0x4cf.7 (1)
0x4d0|9a 99 31 41                                    |..1A            |                    z: 11.100000381469727 0x4d0-0x4d3.7 (4)
     |                                               |                |                  [1]{}: in 0x4d4-0x4d5.7 (2)
0x4d0|            22                                 |    "           |                    local.tee: 0x22 (valid) 0x4d4-0x4d4.7 (1)
0x4d0|               00                              |     .          |                    x: 0 0x4d5-0x4d5.7 (1)
     |                                               |                |                  [2]{}: in 0x4d6-0x4d6.7 (1)
0x4d0|                  0b                           |      .         |                    end: 0xb (valid) 0x4d6-0x4d6.7 (1)
     |                                               |                |            [7]{}: code 0x4d7-0x4e4.7 (14)
0x4d0|                     0d                        |       .        |              size: 13 0x4d7-0x4d7.7 (1)
     |                                               |                |              code{}: 0x4d8-0x4e4.7 (13)
     |                                               |                |                t{}: 0x4d8-0x4d8.7 (1)
0x4d0|                        00                     |        .       |                  n: 0 0x4d8-0x4d8.7 (1)
     |                                               |                |                  x[0:0]: 0x4d9-NA (0)
     |                                               |                |                e[0:3]: 0x4d9-0x4e4.7 (12)
     |                                               |                |                  [0]{}: in 0x4d9-0x4e1.7 (9)
0x4d0|                           44                  |         D      |                    f64.const: 0x44 (valid) 0x4d9-0x4d9.7 (1)
0x4d0|                              66 66 66 66 66 66|          ffffff|                    z: 12.2 0x4da-0x4e1.7 (8)
0x4e0|28 40                                          |(@              |
     |                                               |                |                  [1]{}: in 0x4e2-0x4e3.7 (2)
0x4e0|      22                                       |  "             |                    local.tee: 0x22 (valid) 0x4e2-0x4e2.7 (1)
0x4e0|         00                                    |   .            |                    x: 0 0x4e3-0x4e3.7 (1)
     |                                               |                |                  [2]{}: in 0x4e4-0x4e4.7 (1)
0x4e0|            0b                                 |    .           |                    end: 0xb (valid) 0x4e4-0x4e4.7 (1)
     |                                               |                |            [8]{}: code 0x4e5-0x537.7 (83)
0x4e0|               52                              |     R          |              size: 82 0x4e5-0x4e5.7 (1)
     |                                               |                |              code{}: 0x4e6-0x537.7 (82)
     |                                               |                |                t{}: 0x4e6-0x4ec.7 (7)
0x4e0|                  03                           |      .         |                  n: 3 0x4e6-0x4e6.7 (1)
     |                                               |                |                  x[0:3]: 0x4e7-0x4ec.7 (6)
     |                                               |                |                    [0]{}: t 0x4e7-0x4e8.7 (2)
0x4e0|                     01                        |       .        |                      n: 1 0x4e7-0x4e7.7 (1)
0x4e0|                        7d                     |        }       |                      t: "f32" (0x7d) 0x4e8-0x4e8.7 (1)
     |                                               |                |                    [1]{}: t 0x4e9-0x4ea.7 (2)
0x4e0|                           02                  |         .      |                      n: 2 0x4e9-0x4e9.7 (1)
0x4e0|                              7e               |          ~     |                      t: "i64" (0x7e) 0x4ea-0x4ea.7 (1)
     |                                               |                |                    [2]{}: t 0x4eb-0x4ec.7 (2)
0x4e0|                                 01            |           .    |                      n: 1 0x4eb-0x4eb.7 (1)
0x4e0|                                    7c         |            |   |                      t: "f64" (0x7c) 0x4ec-0x4ec.7 (1)
     |                                               |                |                e[0:37]: 0x4ed-0x537.7 (75)
     |                                               |                |                  [0]{}: in 0x4ed-0x4ee.7 (2)
0x4e0|                                       42      |             B  |                    i64.const: 0x42 (valid) 0x4ed-0x4ed.7 (1)
0x4e0|                                          00   |              . |                    n: 0 0x4ee-0x4ee.7 (1)
     |                                               |                |                  [1]{}: in 0x4ef-0x4f0.7 (2)
0x4e0|                                             22|               "|                    local.tee: 0x22 (valid) 0x4ef-0x4ef.7 (1)
0x4f0|00                                             |.               |                    x: 0 0x4f0-0x4f0.7 (1)
     |                                               |                |                  [2]{}: in 0x4f1-0x4f1.7 (1)
0x4f0|   50                                          | P              |                    i64.eqz: 0x50 (valid) 0x4f1-0x4f1.7 (1)
     |                                               |                |                  [3]{}: in 0x4f2-0x4f2.7 (1)
0x4f0|      1a                                       |  .             |                    drop: 0x1a (valid) 0x4f2-0x4f2.7 (1)
     |                                               |                |                  [4]{}: in 0x4f3-0x4f7.7 (5)
0x4f0|         43                                    |   C            |                    f32.const: 0x43 (valid) 0x4f3-0x4f3.7 (1)
0x4f0|            00 00 00 00                        |    ....        |                    z: 0 0x4f4-0x4f7.7 (4)
     |                                               |                |                  [5]{}: in 0x4f8-0x4f9.7 (2)
0x4f0|                        22                     |        "       |                    local.tee: 0x22 (valid) 0x4f8-0x4f8.7 (1)
0x4f0|                           01                  |         .      |                    x: 1 0x4f9-0x4f9.7 (1)
     |                                               |                |                  [6]{}: in 0x4fa-0x4fa.7 (1)
0x4f0|                              8c               |          .     |                    f32.neg: 0x8c (valid) 0x4fa-0x4fa.7 (1)
     |                                               |                |                  [7]{}: in 0x4fb-0x4fb.7 (1)
0x4f0|                                 1a            |           .    |                    drop: 0x1a (valid) 0x4fb-0x4fb.7 (1)
     |                                               |                |                  [8]{}: in 0x4fc-0x504.7 (9)
0x4f0|                                    44         |            D   |                    f64.const: 0x44 (valid) 0x4fc-0x4fc.7 (1)
0x4f0|                                       00 00 00|             ...|                    z: 0 0x4fd-0x504.7 (8)
0x500|00 00 00 00 00                                 |.....           |
     |                                               |                |                  [9]{}: in 0x505-0x506.7 (2)
0x500|               22                              |     "          |                    local.tee: 0x22 (valid) 0x505-0x505.7 (1)
0x500|                  02                           |      .         |                    x: 2 0x506-0x506.7 (1)
     |                                               |                |                  [10]{}: in 0x507-0x507.7 (1)
0x500|                     9a                        |       .        |                    f64.neg: 0x9a (valid) 0x507-0x507.7 (1)
     |                                               |                |                  [11]{}: in 0x508-0x508.7 (1)
0x500|                        1a                     |        .       |                    drop: 0x1a (valid) 0x508-0x508.7 (1)
     |                                               |                |                  [12]{}: in 0x509-0x50a.7 (2)
0x500|                           41                  |         A      |                    i32.const: 0x41 (valid) 0x509-0x509.7 (1)
0x500|                              00               |          .     |                    n: 0 0x50a-0x50a.7 (1)
     |                                               |                |                  [13]{}: in 0x50b-0x50c.7 (2)
0x500|                                 22            |           "    |                    local.tee: 0x22 (valid) 0x50b-0x50b.7 (1)
0x500|                                    03         |            .   |                    x: 3 0x50c-0x50c.7 (1)
     |                                               |                |                  [14]{}: in 0x50d-0x50d.7 (1)
0x500|                                       45      |             E  |                    i32.eqz: 0x45 (valid) 0x50d-0x50d.7 (1)
     |                                               |                |                  [15]{}: in 0x50e-0x50e.7 (1)
0x500|                                          1a   |              . |                    drop: 0x1a (valid) 0x50e-0x50e.7 (1)
     |                                               |                |                  [16]{}: in 0x50f-0x510.7 (2)
0x500|                                             41|               A|                    i32.const: 0x41 (valid) 0x50f-0x50f.7 (1)
0x510|00                                             |.               |                    n: 0 0x510-0x510.7 (1)
     |                                               |                |                  [17]{}: in 0x511-0x512.7 (2)
0x510|   22                                          | "              |                    local.tee: 0x22 (valid) 0x511-0x511.7 (1)
0x510|      04                                       |  .             |                    x: 4 0x512-0x512.7 (1)
     |                                               |                |                  [18]{}: in 0x513-0x513.7 (1)
0x510|         45                                    |   E            |                    i32.eqz: 0x45 (valid) 0x513-0x513.7 (1)
     |                                               |                |                  [19]{}: in 0x514-0x514.7 (1)
0x510|            1a                                 |    .           |                    drop: 0x1a (valid) 0x514-0x514.7 (1)
     |                                               |                |                  [20]{}: in 0x515-0x519.7 (5)
0x510|               43                              |     C          |                    f32.const: 0x43 (valid) 0x515-0x515.7 (1)
0x510|                  00 00 00 00                  |      ....      |                    z: 0 0x516-0x519.7 (4)
     |                                               |                |                  [21]{}: in 0x51a-0x51b.7 (2)
0x510|                              22               |          "     |                    local.tee: 0x22 (valid) 0x51a-0x51a.7 (1)
0x510|                                 05            |           .    |                    x: 5 0x51b-0x51b.7 (1)
     |                                               |                |                  [22]{}: in 0x51c-0x51c.7 (1)
0x510|                                    8c         |            .   |                    f32.neg: 0x8c (valid) 0x51c-0x51c.7 (1)
     |                                               |                |                  [23]{}: in 0x51d-0x51d.7 (1)
0x510|                                       1a      |             .  |                    drop: 0x1a (valid) 0x51d-0x51d.7 (1)
     |                                               |                |                  [24]{}: in 0x51e-0x51f.7 (2)
0x510|                                          42   |              B |                    i64.const: 0x42 (valid) 0x51e-0x51e.7 (1)
0x510|                                             00|               .|                    n: 0 0x51f-0x51f.7 (1)
     |                                               |                |                  [25]{}: in 0x520-0x521.7 (2)
0x520|22                                             |"               |                    local.tee: 0x22 (valid) 0x520-0x520.7 (1)
0x520|   06                                          | .              |                    x: 6 0x521-0x521.7 (1)
     |                                               |                |                  [26]{}: in 0x522-0x522.7 (1)
0x520|      50                                       |  P             |                    i64.eqz: 0x50 (valid) 0x522-0x522.7 (1)
     |                                               |                |                  [27]{}: in 0x523-0x523.7 (1)
0x520|         1a                                    |   .            |                    drop: 0x1a (valid) 0x523-0x523.7 (1)
     |                                               |                |                  [28]{}: in 0x524-0x525.7 (2)
0x520|            42                                 |    B           |                    i64.const: 0x42 (valid) 0x524-0x524.7 (1)
0x520|               00                              |     .          |                    n: 0 0x525-0x525.7 (1)
     |                                               |                |                  [29]{}: in 0x526-0x527.7 (2)
0x520|                  22                           |      "         |                    local.tee: 0x22 (valid) 0x526-0x526.7 (1)
0x520|                     07                        |       .        |                    x: 7 0x527-0x527.7 (1)
     |                                               |                |                  [30]{}: in 0x528-0x528.7 (1)
0x520|                        50                     |        P       |                    i64.eqz: 0x50 (valid) 0x528-0x528.7 (1)
     |                                               |                |                  [31]{}: in 0x529-0x529.7 (1)
0x520|                           1a                  |         .      |                    drop: 0x1a (valid) 0x529-0x529.7 (1)
     |                                               |                |                  [32]{}: in 0x52a-0x532.7 (9)
0x520|                              44               |          D     |                    f64.const: 0x44 (valid) 0x52a-0x52a.7 (1)
0x520|                                 00 00 00 00 00|           .....|                    z: 0 0x52b-0x532.7 (8)
0x530|00 00 00                                       |...             |
     |                                               |                |                  [33]{}: in 0x533-0x534.7 (2)
0x530|         22                                    |   "            |                    local.tee: 0x22 (valid) 0x533-0x533.7 (1)
0x530|            08                                 |    .           |                    x: 8 0x534-0x534.7 (1)
     |                                               |                |                  [34]{}: in 0x535-0x535.7 (1)
0x530|               9a                              |     .          |                    f64.neg: 0x9a (valid) 0x535-0x535.7 (1)
     |                                               |                |                  [35]{}: in 0x536-0x536.7 (1)
0x530|                  1a                           |      .         |                    drop: 0x1a (valid) 0x536-0x536.7 (1)
     |                                               |                |                  [36]{}: in 0x537-0x537.7 (1)
0x530|                     0b                        |       .        |                    end: 0xb (valid) 0x537-0x537.7 (1)
     |                                               |                |            [9]{}: code 0x538-0x58d.7 (86)
0x530|                        55                     |        U       |              size: 85 0x538-0x538.7 (1)
     |                                               |                |              code{}: 0x539-0x58d.7 (85)
     |                                               |                |                t{}: 0x539-0x53f.7 (7)
0x530|                           03                  |         .      |                  n: 3 0x539-0x539.7 (1)
     |                                               |                |                  x[0:3]: 0x53a-0x53f.7 (6)
     |                                               |                |                    [0]{}: t 0x53a-0x53b.7 (2)
0x530|                              01               |          .     |                      n: 1 0x53a-0x53a.7 (1)
0x530|                                 7d            |           }    |                      t: "f32" (0x7d) 0x53b-0x53b.7 (1)
     |                                               |                |                    [1]{}: t 0x53c-0x53d.7 (2)
0x530|                                    02         |            .   |                      n: 2 0x53c-0x53c.7 (1)
0x530|                                       7e      |             ~  |                      t: "i64" (0x7e) 0x53d-0x53d.7 (1)
     |                                               |                |                    [2]{}: t 0x53e-0x53f.7 (2)
0x530|                                          01   |              . |                      n: 1 0x53e-0x53e.7 (1)
0x530|                                             7c|               ||                      t: "f64" (0x7c) 0x53f-0x53f.7 (1)
     |                                               |                |                e[0:44]: 0x540-0x58d.7 (78)
     |                                               |                |                  [0]{}: in 0x540-0x544.7 (5)
0x540|43                                             |C               |                    f32.const: 0x43 (valid) 0x540-0x540.7 (1)
0x540|   9a 99 99 be                                 | ....           |                    z: -0.30000001192092896 0x541-0x544.7 (4)
     |                                               |                |                  [1]{}: in 0x545-0x546.7 (2)
0x540|               22                              |     "          |                    local.tee: 0x22 (valid) 0x545-0x545.7 (1)
0x540|                  01                           |      .         |                    x: 1 0x546-0x546.7 (1)
     |                                               |                |                  [2]{}: in 0x547-0x547.7 (1)
0x540|                     1a                        |       .        |                    drop: 0x1a (valid) 0x547-0x547.7 (1)
     |                                               |                |                  [3]{}: in 0x548-0x549.7 (2)
0x540|                        41                     |        A       |                    i32.const: 0x41 (valid) 0x548-0x548.7 (1)
0x540|                           28                  |         (      |                    n: 40 0x549-0x549.7 (1)
     |                                               |                |                  [4]{}: in 0x54a-0x54b.7 (2)
0x540|                              22               |          "     |                    local.tee: 0x22 (valid) 0x54a-0x54a.7 (1)
0x540|                                 03            |           .    |                    x: 3 0x54b-0x54b.7 (1)
     |                                               |                |                  [5]{}: in 0x54c-0x54c.7 (1)
0x540|                                    1a         |            .   |                    drop: 0x1a (valid) 0x54c-0x54c.7 (1)
     |                                               |                |                  [6]{}: in 0x54d-0x54e.7 (2)
0x540|                                       41      |             A  |                    i32.const: 0x41 (valid) 0x54d-0x54d.7 (1)
0x540|                                          79   |              y |                    n: -7 0x54e-0x54e.7 (1)
     |                                               |                |                  [7]{}: in 0x54f-0x550.7 (2)
0x540|                                             22|               "|                    local.tee: 0x22 (valid) 0x54f-0x54f.7 (1)
0x550|04                                             |.               |                    x: 4 0x550-0x550.7 (1)
     |                                               |                |                  [8]{}: in 0x551-0x551.7 (1)
0x550|   1a                                          | .              |                    drop: 0x1a (valid) 0x551-0x551.7 (1)
     |                                               |                |                  [9]{}: in 0x552-0x556.7 (5)
0x550|      43                                       |  C             |                    f32.const: 0x43 (valid) 0x552-0x552.7 (1)
0x550|         00 00 b0 40                           |   ...@         |                    z: 5.5 0x553-0x556.7 (4)
     |                                               |                |                  [10]{}: in 0x557-0x558.7 (2)
0x550|                     22                        |       "        |                    local.tee: 0x22 (valid) 0x557-0x557.7 (1)
0x550|                        05                     |        .       |                    x: 5 0x558-0x558.7 (1)
     |                                               |                |                  [11]{}: in 0x559-0x559.7 (1)
0x550|                           1a                  |         .      |                    drop: 0x1a (valid) 0x559-0x559.7 (1)
     |                                               |                |                  [12]{}: in 0x55a-0x55b.7 (2)
0x550|                              42               |          B     |                    i64.const: 0x42 (valid) 0x55a-0x55a.7 (1)
0x550|                                 06            |           .    |                    n: 6 0x55b-0x55b.7 (1)
     |                                               |                |                  [13]{}: in 0x55c-0x55d.7 (2)
0x550|                                    22         |            "   |                    local.tee: 0x22 (valid) 0x55c-0x55c.7 (1)
0x550|                                       06      |             .  |                    x: 6 0x55d-0x55d.7 (1)
     |                                               |                |                  [14]{}: in 0x55e-0x55e.7 (1)
0x550|                                          1a   |              . |                    drop: 0x1a (valid) 0x55e-0x55e.7 (1)
     |                                               |                |                  [15]{}: in 0x55f-0x567.7 (9)
0x550|                                             44|               D|                    f64.const: 0x44 (valid) 0x55f-0x55f.7 (1)
0x560|00 00 00 00 00 00 20 40                        |...... @        |                    z: 8 0x560-0x567.7 (8)
     |                                               |                |                  [16]{}: in 0x568-0x569.7 (2)
0x560|                        22                     |        "       |                    local.tee: 0x22 (valid) 0x568-0x568.7 (1)
0x560|                           08                  |         .      |                    x: 8 0x569-0x569.7 (1)
     |                                               |                |                  [17]{}: in 0x56a-0x56a.7 (1)
0x560|                              1a               |          .     |                    drop: 0x1a (valid) 0x56a-0x56a.7 (1)
     |                                               |                |                  [18]{}: in 0x56b-0x56c.7 (2)
0x560|                                 20            |                |                    local.get: 0x20 (valid) 0x56b-0x56b.7 (1)
0x560|                                    00         |            .   |                    x: 0 0x56c-0x56c.7 (1)
     |                                               |                |                  [19]{}: in 0x56d-0x56d.7 (1)
0x560|                                       ba      |             .  |                    f64.convert_i64_u: 0xba (valid) 0x56d-0x56d.7 (1)
     |                                               |                |                  [20]{}: in 0x56e-0x56f.7 (2)
0x560|                                          20   |                |                    local.get: 0x20 (valid) 0x56e-0x56e.7 (1)
0x560|                                             01|               .|                    x: 1 0x56f-0x56f.7 (1)
     |                                               |                |                  [21]{}: in 0x570-0x570.7 (1)
0x570|bb                                             |.               |                    f64.promote_f32: 0xbb (valid) 0x570-0x570.7 (1)
     |                                               |                |                  [22]{}: in 0x571-0x572.7 (2)
0x570|   20                                          |                |                    local.get: 0x20 (valid) 0x571-0x571.7 (1)
0x570|      02                                       |  .             |                    x: 2 0x572-0x572.7 (1)
     |                                               |                |                  [23]{}: in 0x573-0x574.7 (2)
0x570|         20                                    |                |                    local.get: 0x20 (valid) 0x573-0x573.7 (1)
0x570|            03                                 |    .           |                    x: 3 0x574-0x574.7 (1)
     |                                               |                |                  [24]{}: in 0x575-0x575.7 (1)
0x570|               b8                              |     .          |                    f64.convert_i32_u: 0xb8 (valid) 0x575-0x575.7 (1)
     |                                               |                |                  [25]{}: in 0x576-0x577.7 (2)
0x570|                  20                           |                |                    local.get: 0x20 (valid) 0x576-0x576.7 (1)
0x570|                     04                        |       .        |                    x: 4 0x577-0x577.7 (1)
     |                                               |                |                  [26]{}: in 0x578-0x578.7 (1)
0x570|                        b7                     |        .       |                    f64.convert_i32_s: 0xb7 (valid) 0x578-0x578.7 (1)
     |                                               |                |                  [27]{}: in 0x579-0x57a.7 (2)
0x570|                           20                  |                |                    local.get: 0x20 (valid) 0x579-0x579.7 (1)
0x570|                              05               |          .     |                    x: 5 0x57a-0x57a.7 (1)
     |                                               |                |                  [28]{}: in 0x57b-0x57b.7 (1)
0x570|                                 bb            |           .    |                    f64.promote_f32: 0xbb (valid) 0x57b-0x57b.7 (1)
     |                                               |                |                  [29]{}: in 0x57c-0x57d.7 (2)
0x570|                                    20         |                |                    local.get: 0x20 (valid) 0x57c-0x57c.7 (1)
0x570|                                       06      |             .  |                    x: 6 0x57d-0x57d.7 (1)
     |                                               |                |                  [30]{}: in 0x57e-0x57e.7 (1)
0x570|                                          ba   |              . |                    f64.convert_i64_u: 0xba (valid) 0x57e-0x57e.7 (1)
     |                                               |                |                  [31]{}: in 0x57f-0x580.7 (2)
0x570|                                             20|                |                    local.get: 0x20 (valid) 0x57f-0x57f.7 (1)
0x580|07                                             |.               |                    x: 7 0x580-0x580.7 (1)
     |                                               |                |                  [32]{}: in 0x581-0x581.7 (1)
0x580|   ba                                          | .              |                    f64.convert_i64_u: 0xba (valid) 0x581-0x581.7 (1)
     |                                               |                |                  [33]{}: in 0x582-0x583.7 (2)
0x580|      20                                       |                |                    local.get: 0x20 (valid) 0x582-0x582.7 (1)
0x580|         08                                    |   .            |                    x: 8 0x583-0x583.7 (1)
     |                                               |                |                  [34]{}: in 0x584-0x584.7 (1)
0x580|            a0                                 |    .           |                    f64.add: 0xa0 (valid) 0x584-0x584.7 (1)
     |                                               |                |                  [35]{}: in 0x585-0x585.7 (1)
0x580|               a0                              |     .          |                    f64.add: 0xa0 (valid) 0x585-0x585.7 (1)
     |                                               |                |                  [36]{}: in 0x586-0x586.7 (1)
0x580|                  a0                           |      .         |                    f64.add: 0xa0 (valid) 0x586-0x586.7 (1)
     |                                               |                |                  [37]{}: in 0x587-0x587.7 (1)
0x580|                     a0                        |       .        |                    f64.add: 0xa0 (valid) 0x587-0x587.7 (1)
     |                                               |                |                  [38]{}: in 0x588-0x588.7 (1)
0x580|                        a0                     |        .       |                    f64.add: 0xa0 (valid) 0x588-0x588.7 (1)
     |                                               |                |                  [39]{}: in 0x589-0x589.7 (1)
0x580|                           a0                  |         .      |                    f64.add: 0xa0 (valid) 0x589-0x589.7 (1)
     |                                               |                |                  [40]{}: in 0x58a-0x58a.7 (1)
0x580|                              a0               |          .     |                    f64.add: 0xa0 (valid) 0x58a-0x58a.7 (1)
     |                                               |                |                  [41]{}: in 0x58b-0x58b.7 (1)
0x580|                                 a0            |           .    |                    f64.add: 0xa0 (valid) 0x58b-0x58b.7 (1)
     |                                               |                |                  [42]{}: in 0x58c-0x58c.7 (1)
0x580|                                    b0         |            .   |                    i64.trunc_f64_s: 0xb0 (valid) 0x58c-0x58c.7 (1)
     |                                               |                |                  [43]{}: in 0x58d-0x58d.7 (1)
0x580|                                       0b      |             .  |                    end: 0xb (valid) 0x58d-0x58d.7 (1)
     |                                               |                |            [10]{}: code 0x58e-0x5dd.7 (80)
0x580|                                          4f   |              O |              size: 79 0x58e-0x58e.7 (1)
     |                                               |                |              code{}: 0x58f-0x5dd.7 (79)
     |                                               |                |                t{}: 0x58f-0x595.7 (7)
0x580|                                             03|               .|                  n: 3 0x58f-0x58f.7 (1)
     |                                               |                |                  x[0:3]: 0x590-0x595.7 (6)
     |                                               |                |                    [0]{}: t 0x590-0x591.7 (2)
0x590|01                                             |.               |                      n: 1 0x590-0x590.7 (1)
0x590|   7d                                          | }              |                      t: "f32" (0x7d) 0x591-0x591.7 (1)
     |                                               |                |                    [1]{}: t 0x592-0x593.7 (2)
0x590|      02                                       |  .             |                      n: 2 0x592-0x592.7 (1)
0x590|         7e                                    |   ~            |                      t: "i64" (0x7e) 0x593-0x593.7 (1)
     |                                               |                |                    [2]{}: t 0x594-0x595.7 (2)
0x590|            01                                 |    .           |                      n: 1 0x594-0x594.7 (1)
0x590|               7c                              |     |          |                      t: "f64" (0x7c) 0x595-0x595.7 (1)
     |                                               |                |                e[0:34]: 0x596-0x5dd.7 (72)
     |                                               |                |                  [0]{}: in 0x596-0x597.7 (2)
0x590|                  42                           |      B         |                    i64.const: 0x42 (valid) 0x596-0x596.7 (1)
0x590|                     01                        |       .        |                    n: 1 0x597-0x597.7 (1)
     |                                               |                |                  [1]{}: in 0x598-0x599.7 (2)
0x590|                        22                     |        "       |                    local.tee: 0x22 (valid) 0x598-0x598.7 (1)
0x590|                           00                  |         .      |                    x: 0 0x599-0x599.7 (1)
     |                                               |                |                  [2]{}: in 0x59a-0x59a.7 (1)
0x590|                              ba               |          .     |                    f64.convert_i64_u: 0xba (valid) 0x59a-0x59a.7 (1)
     |                                               |                |                  [3]{}: in 0x59b-0x59f.7 (5)
0x590|                                 43            |           C    |                    f32.const: 0x43 (valid) 0x59b-0x59b.7 (1)
0x590|                                    00 00 00 40|            ...@|                    z: 2 0x59c-0x59f.7 (4)
     |                                               |                |                  [4]{}: in 0x5a0-0x5a1.7 (2)
0x5a0|22                                             |"               |                    local.tee: 0x22 (valid) 0x5a0-0x5a0.7 (1)
0x5a0|   01                                          | .              |                    x: 1 0x5a1-0x5a1.7 (1)
     |                                               |                |                  [5]{}: in 0x5a2-0x5a2.7 (1)
0x5a0|      bb                                       |  .             |                    f64.promote_f32: 0xbb (valid) 0x5a2-0x5a2.7 (1)
     |                                               |                |                  [6]{}: in 0x5a3-0x5ab.7 (9)
0x5a0|         44                                    |   D            |                    f64.const: 0x44 (valid) 0x5a3-0x5a3.7 (1)
0x5a0|            66 66 66 66 66 66 0a 40            |    ffffff.@    |                    z: 3.3 0x5a4-0x5ab.7 (8)
     |                                               |                |                  [7]{}: in 0x5ac-0x5ad.7 (2)
0x5a0|                                    22         |            "   |                    local.tee: 0x22 (valid) 0x5ac-0x5ac.7 (1)
0x5a0|                                       02      |             .  |                    x: 2 0x5ad-0x5ad.7 (1)
     |                                               |                |                  [8]{}: in 0x5ae-0x5af.7 (2)
0x5a0|                                          41   |              A |                    i32.const: 0x41 (valid) 0x5ae-0x5ae.7 (1)
0x5a0|                                             04|               .|                    n: 4 0x5af-0x5af.7 (1)
     |                                               |                |                  [9]{}: in 0x5b0-0x5b1.7 (2)
0x5b0|22                                             |"               |                    local.tee: 0x22 (valid) 0x5b0-0x5b0.7 (1)
0x5b0|   03                                          | .              |                    x: 3 0x5b1-0x5b1.7 (1)
     |                                               |                |                  [10]{}: in 0x5b2-0x5b2.7 (1)
0x5b0|      b8                                       |  .             |                    f64.convert_i32_u: 0xb8 (valid) 0x5b2-0x5b2.7 (1)
     |                                               |                |                  [11]{}: in 0x5b3-0x5b4.7 (2)
0x5b0|         41                                    |   A            |                    i32.const: 0x41 (valid) 0x5b3-0x5b3.7 (1)
0x5b0|            05                                 |    .           |                    n: 5 0x5b4-0x5b4.7 (1)
     |                                               |                |                  [12]{}: in 0x5b5-0x5b6.7 (2)
0x5b0|               22                              |     "          |                    local.tee: 0x22 (valid) 0x5b5-0x5b5.7 (1)
0x5b0|                  04                           |      .         |                    x: 4 0x5b6-0x5b6.7 (1)
     |                                               |                |                  [13]{}: in 0x5b7-0x5b7.7 (1)
0x5b0|                     b7                        |       .        |                    f64.convert_i32_s: 0xb7 (valid) 0x5b7-0x5b7.7 (1)
     |                                               |                |                  [14]{}: in 0x5b8-0x5bc.7 (5)
0x5b0|                        43                     |        C       |                    f32.const: 0x43 (valid) 0x5b8-0x5b8.7 (1)
0x5b0|                           00 00 b0 40         |         ...@   |                    z: 5.5 0x5b9-0x5bc.7 (4)
     |                                               |                |                  [15]{}: in 0x5bd-0x5be.7 (2)
0x5b0|                                       22      |             "  |                    local.tee: 0x22 (valid) 0x5bd-0x5bd.7 (1)
0x5b0|                                          05   |              . |                    x: 5 0x5be-0x5be.7 (1)
     |                                               |                |                  [16]{}: in 0x5bf-0x5bf.7 (1)
0x5b0|                                             bb|               .|                    f64.promote_f32: 0xbb (valid) 0x5bf-0x5bf.7 (1)
     |                                               |                |                  [17]{}: in 0x5c0-0x5c1.7 (2)
0x5c0|42                                             |B               |                    i64.const: 0x42 (valid) 0x5c0-0x5c0.7 (1)
0x5c0|   06                                          | .              |                    n: 6 0x5c1-0x5c1.7 (1)
     |                                               |                |                  [18]{}: in 0x5c2-0x5c3.7 (2)
0x5c0|      22                                       |  "             |                    local.tee: 0x22 (valid) 0x5c2-0x5c2.7 (1)
0x5c0|         06                                    |   .            |                    x: 6 0x5c3-0x5c3.7 (1)
     |                                               |                |                  [19]{}: in 0x5c4-0x5c4.7 (1)
0x5c0|            ba                                 |    .           |                    f64.convert_i64_u: 0xba (valid) 0x5c4-0x5c4.7 (1)
     |                                               |                |                  [20]{}: in 0x5c5-0x5c6.7 (2)
0x5c0|               42                              |     B          |                    i64.const: 0x42 (valid) 0x5c5-0x5c5.7 (1)
0x5c0|                  00                           |      .         |                    n: 0 0x5c6-0x5c6.7 (1)
     |                                               |                |                  [21]{}: in 0x5c7-0x5c8.7 (2)
0x5c0|                     22                        |       "        |                    local.tee: 0x22 (valid) 0x5c7-0x5c7.7 (1)
0x5c0|                        07                     |        .       |                    x: 7 0x5c8-0x5c8.7 (1)
     |                                               |                |                  [22]{}: in 0x5c9-0x5c9.7 (1)
0x5c0|                           ba                  |         .      |                    f64.convert_i64_u: 0xba (valid) 0x5c9-0x5c9.7 (1)
     |                                               |                |                  [23]{}: in 0x5ca-0x5d2.7 (9)
0x5c0|                              44               |          D     |                    f64.const: 0x44 (valid) 0x5ca-0x5ca.7 (1)
0x5c0|                                 00 00 00 00 00|           .....|                    z: 8 0x5cb-0x5d2.7 (8)
0x5d0|00 20 40                                       |. @             |
     |                                               |                |                  [24]{}: in 0x5d3-0x5d4.7 (2)
0x5d0|         22                                    |   "            |                    local.tee: 0x22 (valid) 0x5d3-0x5d3.7 (1)
0x5d0|            08                                 |    .           |                    x: 8 0x5d4-0x5d4.7 (1)
     |                                               |                |                  [25]{}: in 0x5d5-0x5d5.7 (1)
0x5d0|               a0                              |     .          |                    f64.add: 0xa0 (valid) 0x5d5-0x5d5.7 (1)
     |                                               |                |                  [26]{}: in 0x5d6-0x5d6.7 (1)
0x5d0|                  a0                           |      .         |                    f64.add: 0xa0 (valid) 0x5d6-0x5d6.7 (1)
     |                                               |                |                  [27]{}: in 0x5d7-0x5d7.7 (1)
0x5d0|                     a0                        |       .        |                    f64.add: 0xa0 (valid) 0x5d7-0x5d7.7 (1)
     |                                               |                |                  [28]{}: in 0x5d8-0x5d8.7 (1)
0x5d0|                        a0                     |        .       |                    f64.add: 0xa0 (valid) 0x5d8-0x5d8.7 (1)
     |                                               |                |                  [29]{}: in 0x5d9-0x5d9.7 (1)
0x5d0|                           a0                  |         .      |                    f64.add: 0xa0 (valid) 0x5d9-0x5d9.7 (1)
     |                                               |                |                  [30]{}: in 0x5da-0x5da.7 (1)
0x5d0|                              a0               |          .     |                    f64.add: 0xa0 (valid) 0x5da-0x5da.7 (1)
     |                                               |                |                  [31]{}: in 0x5db-0x5db.7 (1)
0x5d0|                                 a0            |           .    |                    f64.add: 0xa0 (valid) 0x5db-0x5db.7 (1)
     |                                               |                |                  [32]{}: in 0x5dc-0x5dc.7 (1)
0x5d0|                                    a0         |            .   |                    f64.add: 0xa0 (valid) 0x5dc-0x5dc.7 (1)
     |                                               |                |                  [33]{}: in 0x5dd-0x5dd.7 (1)
0x5d0|                                       0b      |             .  |                    end: 0xb (valid) 0x5dd-0x5dd.7 (1)
     |                                               |                |            [11]{}: code 0x5de-0x5e0.7 (3)
0x5d0|                                          02   |              . |              size: 2 0x5de-0x5de.7 (1)
     |                                               |                |              code{}: 0x5df-0x5e0.7 (2)
     |                                               |                |                t{}: 0x5df-0x5df.7 (1)
0x5d0|                                             00|               .|                  n: 0 0x5df-0x5df.7 (1)
     |                                               |                |                  x[0:0]: 0x5e0-NA (0)
     |                                               |                |                e[0:1]: 0x5e0-0x5e0.7 (1)
     |                                               |                |                  [0]{}: in 0x5e0-0x5e0.7 (1)
0x5e0|0b                                             |.               |                    end: 0xb (valid) 0x5e0-0x5e0.7 (1)
     |                                               |                |            [12]{}: code 0x5e1-0x5ec.7 (12)
0x5e0|   0b                                          | .              |              size: 11 0x5e1-0x5e1.7 (1)
     |                                               |                |              code{}: 0x5e2-0x5ec.7 (11)
     |                                               |                |                t{}: 0x5e2-0x5e2.7 (1)
0x5e0|      00                                       |  .             |                  n: 0 0x5e2-0x5e2.7 (1)
     |                                               |                |                  x[0:0]: 0x5e3-NA (0)
     |                                               |                |                e[0:2]: 0x5e3-0x5ec.7 (10)
     |                                               |                |                  [0]{}: in 0x5e3-0x5eb.7 (9)
0x5e0|         02                                    |   .            |                    block: 0x2 (valid) 0x5e3-0x5e3.7 (1)
0x5e0|            7f                                 |    .           |                    bt: "i32" (127) 0x5e4-0x5e4.7 (1)
     |                                               |                |                    instructions[0:3]: 0x5e5-0x5ea.7 (6)
     |                                               |                |                      [0]{}: instr 0x5e5-0x5e6.7 (2)
0x5e0|               41                              |     A          |                        i32.const: 0x41 (valid) 0x5e5-0x5e5.7 (1)
0x5e0|                  01                           |      .         |                        n: 1 0x5e6-0x5e6.7 (1)
     |                                               |                |                      [1]{}: instr 0x5e7-0x5e8.7 (2)
0x5e0|                     22                        |       "        |                        local.tee: 0x22 (valid) 0x5e7-0x5e7.7 (1)
0x5e0|                        00                     |        .       |                        x: 0 0x5e8-0x5e8.7 (1)
     |                                               |                |                      [2]{}: instr 0x5e9-0x5ea.7 (2)
0x5e0|                           10                  |         .      |                        call: 0x10 (valid) 0x5e9-0x5e9.7 (1)
0x5e0|                              0b               |          .     |                        x: 11 0x5ea-0x5ea.7 (1)
0x5e0|                                 0b            |           .    |                    end: 11 (valid) 0x5eb-0x5eb.7 (1)
     |                                               |                |                  [1]{}: in 0x5ec-0x5ec.7 (1)
0x5e0|                                    0b         |            .   |                    end: 0xb (valid) 0x5ec-0x5ec.7 (1)
     |                                               |                |            [13]{}: code 0x5ed-0x5fa.7 (14)
0x5e0|                                       0d      |             .  |              size: 13 0x5ed-0x5ed.7 (1)
     |                                               |                |              code{}: 0x5ee-0x5fa.7 (13)
     |                                               |                |                t{}: 0x5ee-0x5ee.7 (1)
0x5e0|                                          00   |              . |                  n: 0 0x5ee-0x5ee.7 (1)
     |                                               |                |                  x[0:0]: 0x5ef-NA (0)
     |                                               |                |                e[0:2]: 0x5ef-0x5fa.7 (12)
     |                                               |                |                  [0]{}: in 0x5ef-0x5f9.7 (11)
0x5e0|                                             02|               .|                    block: 0x2 (valid) 0x5ef-0x5ef.7 (1)
0x5f0|7f                                             |.               |                    bt: "i32" (127) 0x5f0-0x5f0.7 (1)
     |                                               |                |                    instructions[0:4]: 0x5f1-0x5f8.7 (8)
     |                                               |                |                      [0]{}: instr 0x5f1-0x5f2.7 (2)
0x5f0|   10                                          | .              |                        call: 0x10 (valid) 0x5f1-0x5f1.7 (1)
0x5f0|      0b                                       |  .             |                        x: 11 0x5f2-0x5f2.7 (1)
     |                                               |                |                      [1]{}: instr 0x5f3-0x5f4.7 (2)
0x5f0|         41                                    |   A            |                        i32.const: 0x41 (valid) 0x5f3-0x5f3.7 (1)
0x5f0|            01                                 |    .           |                        n: 1 0x5f4-0x5f4.7 (1)
     |                                               |                |                      [2]{}: instr 0x5f5-0x5f6.7 (2)
0x5f0|               22                              |     "          |                        local.tee: 0x22 (valid) 0x5f5-0x5f5.7 (1)
0x5f0|                  00                           |      .         |                        x: 0 0x5f6-0x5f6.7 (1)
     |                                               |                |                      [3]{}: instr 0x5f7-0x5f8.7 (2)
0x5f0|                     10                        |       .        |                        call: 0x10 (valid) 0x5f7-0x5f7.7 (1)
0x5f0|                        0b                     |        .       |                        x: 11 0x5f8-0x5f8.7 (1)
0x5f0|                           0b                  |         .      |                    end: 11 (valid) 0x5f9-0x5f9.7 (1)
     |                                               |                |                  [1]{}: in 0x5fa-0x5fa.7 (1)
0x5f0|                              0b               |          .     |                    end: 0xb (valid) 0x5fa-0x5fa.7 (1)
     |                                               |                |            [14]{}: code 0x5fb-0x608.7 (14)
0x5f0|                                 0d            |           .    |              size: 13 0x5fb-0x5fb.7 (1)
     |                                               |                |              code{}: 0x5fc-0x608.7 (13)
     |                                               |                |                t{}: 0x5fc-0x5fc.7 (1)
0x5f0|                                    00         |            .   |                  n: 0 0x5fc-0x5fc.7 (1)
     |                                               |                |                  x[0:0]: 0x5fd-NA (0)
     |                                               |                |                e[0:2]: 0x5fd-0x608.7 (12)
     |                                               |                |                  [0]{}: in 0x5fd-0x607.7 (11)
0x5f0|                                       02      |             .  |                    block: 0x2 (valid) 0x5fd-0x5fd.7 (1)
0x5f0|                                          7f   |              . |                    bt: "i32" (127) 0x5fe-0x5fe.7 (1)
     |                                               |                |                    instructions[0:4]: 0x5ff-0x606.7 (8)
     |                                               |                |                      [0]{}: instr 0x5ff-0x600.7 (2)
0x5f0|                                             10|               .|                        call: 0x10 (valid) 0x5ff-0x5ff.7 (1)
0x600|0b                                             |.               |                        x: 11 0x600-0x600.7 (1)
     |                                               |                |                      [1]{}: instr 0x601-0x602.7 (2)
0x600|   10                                          | .              |                        call: 0x10 (valid) 0x601-0x601.7 (1)
0x600|      0b                                       |  .             |                        x: 11 0x602-0x602.7 (1)
     |                                               |                |                      [2]{}: instr 0x603-0x604.7 (2)
0x600|         41                                    |   A            |                        i32.const: 0x41 (valid) 0x603-0x603.7 (1)
0x600|            01                                 |    .           |                        n: 1 0x604-0x604.7 (1)
     |                                               |                |                      [3]{}: instr 0x605-0x606.7 (2)
0x600|               22                              |     "          |                        local.tee: 0x22 (valid) 0x605-0x605.7 (1)
0x600|                  00                           |      .         |                        x: 0 0x606-0x606.7 (1)
0x600|                     0b                        |       .        |                    end: 11 (valid) 0x607-0x607.7 (1)
     |                                               |                |                  [1]{}: in 0x608-0x608.7 (1)
0x600|                        0b                     |        .       |                    end: 0xb (valid) 0x608-0x608.7 (1)
     |                                               |                |            [15]{}: code 0x609-0x614.7 (12)
0x600|                           0b                  |         .      |              size: 11 0x609-0x609.7 (1)
     |                                               |                |              code{}: 0x60a-0x614.7 (11)
     |                                               |                |                t{}: 0x60a-0x60a.7 (1)
0x600|                              00               |          .     |                  n: 0 0x60a-0x60a.7 (1)
     |                                               |                |                  x[0:0]: 0x60b-NA (0)
     |                                               |                |                e[0:2]: 0x60b-0x614.7 (10)
     |                                               |                |                  [0]{}: in 0x60b-0x613.7 (9)
0x600|                                 03            |           .    |                    loop: 0x3 (valid) 0x60b-0x60b.7 (1)
0x600|                                    7f         |            .   |                    bt: "i32" (127) 0x60c-0x60c.7 (1)
     |                                               |                |                    instructions[0:3]: 0x60d-0x612.7 (6)
     |                                               |                |                      [0]{}: instr 0x60d-0x60e.7 (2)
0x600|                                       41      |             A  |                        i32.const: 0x41 (valid) 0x60d-0x60d.7 (1)
0x600|                                          03   |              . |                        n: 3 0x60e-0x60e.7 (1)
     |                                               |                |                      [1]{}: instr 0x60f-0x610.7 (2)
0x600|                                             22|               "|                        local.tee: 0x22 (valid) 0x60f-0x60f.7 (1)
0x610|00                                             |.               |                        x: 0 0x610-0x610.7 (1)
     |                                               |                |                      [2]{}: instr 0x611-0x612.7 (2)
0x610|   10                                          | .              |                        call: 0x10 (valid) 0x611-0x611.7 (1)
0x610|      0b                                       |  .             |                        x: 11 0x612-0x612.7 (1)
0x610|         0b                                    |   .            |                    end: 11 (valid) 0x613-0x613.7 (1)
     |                                               |                |                  [1]{}: in 0x614-0x614.7 (1)
0x610|            0b                                 |    .           |                    end: 0xb (valid) 0x614-0x614.7 (1)
     |                                               |                |            [16]{}: code 0x615-0x622.7 (14)
0x610|               0d                              |     .          |              size: 13 0x615-0x615.7 (1)
     |                                               |                |              code{}: 0x616-0x622.7 (13)
     |                                               |                |                t{}: 0x616-0x616.7 (1)
0x610|                  00                           |      .         |                  n: 0 0x616-0x616.7 (1)
     |                                               |                |                  x[0:0]: 0x617-NA (0)
     |                                               |                |                e[0:2]: 0x617-0x622.7 (12)
     |                                               |                |                  [0]{}: in 0x617-0x621.7 (11)
0x610|                     03                        |       .        |                    loop: 0x3 (valid) 0x617-0x617.7 (1)
0x610|                        7f                     |        .       |                    bt: "i32" (127) 0x618-0x618.7 (1)
     |                                               |                |                    instructions[0:4]: 0x619-0x620.7 (8)
     |                                               |                |                      [0]{}: instr 0x619-0x61a.7 (2)
0x610|                           10                  |         .      |                        call: 0x10 (valid) 0x619-0x619.7 (1)
0x610|                              0b               |          .     |                        x: 11 0x61a-0x61a.7 (1)
     |                                               |                |                      [1]{}: instr 0x61b-0x61c.7 (2)
0x610|                                 41            |           A    |                        i32.const: 0x41 (valid) 0x61b-0x61b.7 (1)
0x610|                                    04         |            .   |                        n: 4 0x61c-0x61c.7 (1)
     |                                               |                |                      [2]{}: instr 0x61d-0x61e.7 (2)
0x610|                                       22      |             "  |                        local.tee: 0x22 (valid) 0x61d-0x61d.7 (1)
0x610|                                          00   |              . |                        x: 0 0x61e-0x61e.7 (1)
     |                                               |                |                      [3]{}: instr 0x61f-0x620.7 (2)
0x610|                                             10|               .|                        call: 0x10 (valid) 0x61f-0x61f.7 (1)
0x620|0b                                             |.               |                        x: 11 0x620-0x620.7 (1)
0x620|   0b                                          | .              |                    end: 11 (valid) 0x621-0x621.7 (1)
     |                                               |                |                  [1]{}: in 0x622-0x622.7 (1)
0x620|      0b                                       |  .             |                    end: 0xb (valid) 0x622-0x622.7 (1)
     |                                               |                |            [17]{}: code 0x623-0x630.7 (14)
0x620|         0d                                    |   .            |              size: 13 0x623-0x623.7 (1)
     |                                               |                |              code{}: 0x624-0x630.7 (13)
     |                                               |                |                t{}: 0x624-0x624.7 (1)
0x620|            00                                 |    .           |                  n: 0 0x624-0x624.7 (1)
     |                                               |                |                  x[0:0]: 0x625-NA (0)
     |                                               |                |                e[0:2]: 0x625-0x630.7 (12)
     |                                               |                |                  [0]{}: in 0x625-0x62f.7 (11)
0x620|               03                              |     .          |                    loop: 0x3 (valid) 0x625-0x625.7 (1)
0x620|                  7f                           |      .         |                    bt: "i32" (127) 0x626-0x626.7 (1)
     |                                               |                |                    instructions[0:4]: 0x627-0x62e.7 (8)
     |                                               |                |                      [0]{}: instr 0x627-0x628.7 (2)
0x620|                     10                        |       .        |                        call: 0x10 (valid) 0x627-0x627.7 (1)
0x620|                        0b                     |        .       |                        x: 11 0x628-0x628.7 (1)
     |                                               |                |                      [1]{}: instr 0x629-0x62a.7 (2)
0x620|                           10                  |         .      |                        call: 0x10 (valid) 0x629-0x629.7 (1)
0x620|                              0b               |          .     |                        x: 11 0x62a-0x62a.7 (1)
     |                                               |                |                      [2]{}: instr 0x62b-0x62c.7 (2)
0x620|                                 41            |           A    |                        i32.const: 0x41 (valid) 0x62b-0x62b.7 (1)
0x620|                                    05         |            .   |                        n: 5 0x62c-0x62c.7 (1)
     |                                               |                |                      [3]{}: instr 0x62d-0x62e.7 (2)
0x620|                                       22      |             "  |                        local.tee: 0x22 (valid) 0x62d-0x62d.7 (1)
0x620|                                          00   |              . |                        x: 0 0x62e-0x62e.7 (1)
0x620|                                             0b|               .|                    end: 11 (valid) 0x62f-0x62f.7 (1)
     |                                               |                |                  [1]{}: in 0x630-0x630.7 (1)
0x630|0b                                             |.               |                    end: 0xb (valid) 0x630-0x630.7 (1)
     |                                               |                |            [18]{}: code 0x631-0x63c.7 (12)
0x630|   0b                                          | .              |              size: 11 0x631-0x631.7 (1)
     |                                               |                |              code{}: 0x632-0x63c.7 (11)
     |                                               |                |                t{}: 0x632-0x632.7 (1)
0x630|      00                                       |  .             |                  n: 0 0x632-0x632.7 (1)
     |                                               |                |                  x[0:0]: 0x633-NA (0)
     |                                               |                |                e[0:2]: 0x633-0x63c.7 (10)
     |                                               |                |                  [0]{}: in 0x633-0x63b.7 (9)
0x630|         02                                    |   .            |                    block: 0x2 (valid) 0x633-0x633.7 (1)
0x630|            7f                                 |    .           |                    bt: "i32" (127) 0x634-0x634.7 (1)
     |                                               |                |                    instructions[0:3]: 0x635-0x63a.7 (6)
     |                                               |                |                      [0]{}: instr 0x635-0x636.7 (2)
0x630|               41                              |     A          |                        i32.const: 0x41 (valid) 0x635-0x635.7 (1)
0x630|                  09                           |      .         |                        n: 9 0x636-0x636.7 (1)
     |                                               |                |                      [1]{}: instr 0x637-0x638.7 (2)
0x630|                     22                        |       "        |                        local.tee: 0x22 (valid) 0x637-0x637.7 (1)
0x630|                        00                     |        .       |                        x: 0 0x638-0x638.7 (1)
     |                                               |                |                      [2]{}: instr 0x639-0x63a.7 (2)
0x630|                           0c                  |         .      |                        br: 0xc (valid) 0x639-0x639.7 (1)
0x630|                              00               |          .     |                        l: 0 0x63a-0x63a.7 (1)
0x630|                                 0b            |           .    |                    end: 11 (valid) 0x63b-0x63b.7 (1)
     |                                               |                |                  [1]{}: in 0x63c-0x63c.7 (1)
0x630|                                    0b         |            .   |                    end: 0xb (valid) 0x63c-0x63c.7 (1)
     |                                               |                |            [19]{}: code 0x63d-0x648.7 (12)
0x630|                                       0b      |             .  |              size: 11 0x63d-0x63d.7 (1)
     |                                               |                |              code{}: 0x63e-0x648.7 (11)
     |                                               |                |                t{}: 0x63e-0x63e.7 (1)
0x630|                                          00   |              . |                  n: 0 0x63e-0x63e.7 (1)
     |                                               |                |                  x[0:0]: 0x63f-NA (0)
     |                                               |                |                e[0:2]: 0x63f-0x648.7 (10)
     |                                               |                |                  [0]{}: in 0x63f-0x647.7 (9)
0x630|                                             02|               .|                    block: 0x2 (valid) 0x63f-0x63f.7 (1)
0x640|40                                             |@               |                    bt: "ε" (64) 0x640-0x640.7 (1)
     |                                               |                |                    instructions[0:3]: 0x641-0x646.7 (6)
     |                                               |                |                      [0]{}: instr 0x641-0x642.7 (2)
0x640|   41                                          | A              |                        i32.const: 0x41 (valid) 0x641-0x641.7 (1)
0x640|      01                                       |  .             |                        n: 1 0x642-0x642.7 (1)
     |                                               |                |                      [1]{}: instr 0x643-0x644.7 (2)
0x640|         22                                    |   "            |                        local.tee: 0x22 (valid) 0x643-0x643.7 (1)
0x640|            00                                 |    .           |                        x: 0 0x644-0x644.7 (1)
     |                                               |                |                      [2]{}: instr 0x645-0x646.7 (2)
0x640|               0d                              |     .          |                        br_if: 0xd (valid) 0x645-0x645.7 (1)
0x640|                  00                           |      .         |                        l: 0 0x646-0x646.7 (1)
0x640|                     0b                        |       .        |                    end: 11 (valid) 0x647-0x647.7 (1)
     |                                               |                |                  [1]{}: in 0x648-0x648.7 (1)
0x640|                        0b                     |        .       |                    end: 0xb (valid) 0x648-0x648.7 (1)
     |                                               |                |            [20]{}: code 0x649-0x659.7 (17)
0x640|                           10                  |         .      |              size: 16 0x649-0x649.7 (1)
     |                                               |                |              code{}: 0x64a-0x659.7 (16)
     |                                               |                |                t{}: 0x64a-0x64a.7 (1)
0x640|                              00               |          .     |                  n: 0 0x64a-0x64a.7 (1)
     |                                               |                |                  x[0:0]: 0x64b-NA (0)
     |                                               |                |                e[0:2]: 0x64b-0x659.7 (15)
     |                                               |                |                  [0]{}: in 0x64b-0x658.7 (14)
0x640|                                 02            |           .    |                    block: 0x2 (valid) 0x64b-0x64b.7 (1)
0x640|                                    7f         |            .   |                    bt: "i32" (127) 0x64c-0x64c.7 (1)
     |                                               |                |                    instructions[0:6]: 0x64d-0x657.7 (11)
     |                                               |                |                      [0]{}: instr 0x64d-0x64e.7 (2)
0x640|                                       41      |             A  |                        i32.const: 0x41 (valid) 0x64d-0x64d.7 (1)
0x640|                                          08   |              . |                        n: 8 0x64e-0x64e.7 (1)
     |                                               |                |                      [1]{}: instr 0x64f-0x650.7 (2)
0x640|                                             22|               "|                        local.tee: 0x22 (valid) 0x64f-0x64f.7 (1)
0x650|00                                             |.               |                        x: 0 0x650-0x650.7 (1)
     |                                               |                |                      [2]{}: instr 0x651-0x652.7 (2)
0x650|   41                                          | A              |                        i32.const: 0x41 (valid) 0x651-0x651.7 (1)
0x650|      01                                       |  .             |                        n: 1 0x652-0x652.7 (1)
     |                                               |                |                      [3]{}: instr 0x653-0x654.7 (2)
0x650|         0d                                    |   .            |                        br_if: 0xd (valid) 0x653-0x653.7 (1)
0x650|            00                                 |    .           |                        l: 0 0x654-0x654.7 (1)
     |                                               |                |                      [4]{}: instr 0x655-0x655.7 (1)
0x650|               1a                              |     .          |                        drop: 0x1a (valid) 0x655-0x655.7 (1)
     |                                               |                |                      [5]{}: instr 0x656-0x657.7 (2)
0x650|                  41                           |      A         |                        i32.const: 0x41 (valid) 0x656-0x656.7 (1)
0x650|                     07                        |       .        |                        n: 7 0x657-0x657.7 (1)
0x650|                        0b                     |        .       |                    end: 11 (valid) 0x658-0x658.7 (1)
     |                                               |                |                  [1]{}: in 0x659-0x659.7 (1)
0x650|                           0b                  |         .      |                    end: 0xb (valid) 0x659-0x659.7 (1)
     |                                               |                |            [21]{}: code 0x65a-0x66a.7 (17)
0x650|                              10               |          .     |              size: 16 0x65a-0x65a.7 (1)
     |                                               |                |              code{}: 0x65b-0x66a.7 (16)
     |                                               |                |                t{}: 0x65b-0x65b.7 (1)
0x650|                                 00            |           .    |                  n: 0 0x65b-0x65b.7 (1)
     |                                               |                |                  x[0:0]: 0x65c-NA (0)
     |                                               |                |                e[0:2]: 0x65c-0x66a.7 (15)
     |                                               |                |                  [0]{}: in 0x65c-0x669.7 (14)
0x650|                                    02         |            .   |                    block: 0x2 (valid) 0x65c-0x65c.7 (1)
0x650|                                       7f      |             .  |                    bt: "i32" (127) 0x65d-0x65d.7 (1)
     |                                               |                |                    instructions[0:6]: 0x65e-0x668.7 (11)
     |                                               |                |                      [0]{}: instr 0x65e-0x65f.7 (2)
0x650|                                          41   |              A |                        i32.const: 0x41 (valid) 0x65e-0x65e.7 (1)
0x650|                                             06|               .|                        n: 6 0x65f-0x65f.7 (1)
     |                                               |                |                      [1]{}: instr 0x660-0x661.7 (2)
0x660|41                                             |A               |                        i32.const: 0x41 (valid) 0x660-0x660.7 (1)
0x660|   09                                          | .              |                        n: 9 0x661-0x661.7 (1)
     |                                               |                |                      [2]{}: instr 0x662-0x663.7 (2)
0x660|      22                                       |  "             |                        local.tee: 0x22 (valid) 0x662-0x662.7 (1)
0x660|         00                                    |   .            |                        x: 0 0x663-0x663.7 (1)
     |                                               |                |                      [3]{}: instr 0x664-0x665.7 (2)
0x660|            0d                                 |    .           |                        br_if: 0xd (valid) 0x664-0x664.7 (1)
0x660|               00                              |     .          |                        l: 0 0x665-0x665.7 (1)
     |                                               |                |                      [4]{}: instr 0x666-0x666.7 (1)
0x660|                  1a                           |      .         |                        drop: 0x1a (valid) 0x666-0x666.7 (1)
     |                                               |                |                      [5]{}: instr 0x667-0x668.7 (2)
0x660|                     41                        |       A        |                        i32.const: 0x41 (valid) 0x667-0x667.7 (1)
0x660|                        07                     |        .       |                        n: 7 0x668-0x668.7 (1)
0x660|                           0b                  |         .      |                    end: 11 (valid) 0x669-0x669.7 (1)
     |                                               |                |                  [1]{}: in 0x66a-0x66a.7 (1)
0x660|                              0b               |          .     |                    end: 0xb (valid) 0x66a-0x66a.7 (1)
     |                                               |                |            [22]{}: code 0x66b-0x679.7 (15)
0x660|                                 0e            |           .    |              size: 14 0x66b-0x66b.7 (1)
     |                                               |                |              code{}: 0x66c-0x679.7 (14)
     |                                               |                |                t{}: 0x66c-0x66c.7 (1)
0x660|                                    00         |            .   |                  n: 0 0x66c-0x66c.7 (1)
     |                                               |                |                  x[0:0]: 0x66d-NA (0)
     |                                               |                |                e[0:2]: 0x66d-0x679.7 (13)
     |                                               |                |                  [0]{}: in 0x66d-0x678.7 (12)
0x660|                                       02      |             .  |                    block: 0x2 (valid) 0x66d-0x66d.7 (1)
0x660|                                          40   |              @ |                    bt: "ε" (64) 0x66e-0x66e.7 (1)
     |                                               |                |                    instructions[0:3]: 0x66f-0x677.7 (9)
     |                                               |                |                      [0]{}: instr 0x66f-0x670.7 (2)
0x660|                                             41|               A|                        i32.const: 0x41 (valid) 0x66f-0x66f.7 (1)
0x670|00                                             |.               |                        n: 0 0x670-0x670.7 (1)
     |                                               |                |                      [1]{}: instr 0x671-0x672.7 (2)
0x670|   22                                          | "              |                        local.tee: 0x22 (valid) 0x671-0x671.7 (1)
0x670|      00                                       |  .             |                        x: 0 0x672-0x672.7 (1)
     |                                               |                |                      [2]{}: instr 0x673-0x677.7 (5)
0x670|         0e                                    |   .            |                        br_table: 0xe (valid) 0x673-0x673.7 (1)
     |                                               |                |                        l{}: 0x674-0x676.7 (3)
0x670|            02                                 |    .           |                          n: 2 0x674-0x674.7 (1)
     |                                               |                |                          x[0:2]: 0x675-0x676.7 (2)
0x670|               00                              |     .          |                            [0]: 0 l 0x675-0x675.7 (1)
0x670|                  00                           |      .         |                            [1]: 0 l 0x676-0x676.7 (1)
0x670|                     00                        |       .        |                        lN: 0 0x677-0x677.7 (1)
0x670|                        0b                     |        .       |                    end: 11 (valid) 0x678-0x678.7 (1)
     |                                               |                |                  [1]{}: in 0x679-0x679.7 (1)
0x670|                           0b                  |         .      |                    end: 0xb (valid) 0x679-0x679.7 (1)
     |                                               |                |            [23]{}: code 0x67a-0x68c.7 (19)
0x670|                              12               |          .     |              size: 18 0x67a-0x67a.7 (1)
     |                                               |                |              code{}: 0x67b-0x68c.7 (18)
     |                                               |                |                t{}: 0x67b-0x67b.7 (1)
0x670|                                 00            |           .    |                  n: 0 0x67b-0x67b.7 (1)
     |                                               |                |                  x[0:0]: 0x67c-NA (0)
     |                                               |                |                e[0:2]: 0x67c-0x68c.7 (17)
     |                                               |                |                  [0]{}: in 0x67c-0x68b.7 (16)
0x670|                                    02         |            .   |                    block: 0x2 (valid) 0x67c-0x67c.7 (1)
0x670|                                       7f      |             .  |                    bt: "i32" (127) 0x67d-0x67d.7 (1)
     |                                               |                |                    instructions[0:5]: 0x67e-0x68a.7 (13)
     |                                               |                |                      [0]{}: instr 0x67e-0x67f.7 (2)
0x670|                                          41   |              A |                        i32.const: 0x41 (valid) 0x67e-0x67e.7 (1)
0x670|                                             0a|               .|                        n: 10 0x67f-0x67f.7 (1)
     |                                               |                |                      [1]{}: instr 0x680-0x681.7 (2)
0x680|22                                             |"               |                        local.tee: 0x22 (valid) 0x680-0x680.7 (1)
0x680|   00                                          | .              |                        x: 0 0x681-0x681.7 (1)
     |                                               |                |                      [2]{}: instr 0x682-0x683.7 (2)
0x680|      41                                       |  A             |                        i32.const: 0x41 (valid) 0x682-0x682.7 (1)
0x680|         01                                    |   .            |                        n: 1 0x683-0x683.7 (1)
     |                                               |                |                      [3]{}: instr 0x684-0x688.7 (5)
0x680|            0e                                 |    .           |                        br_table: 0xe (valid) 0x684-0x684.7 (1)
     |                                               |                |                        l{}: 0x685-0x687.7 (3)
0x680|               02                              |     .          |                          n: 2 0x685-0x685.7 (1)
     |                                               |                |                          x[0:2]: 0x686-0x687.7 (2)
0x680|                  00                           |      .         |                            [0]: 0 l 0x686-0x686.7 (1)
0x680|                     00                        |       .        |                            [1]: 0 l 0x687-0x687.7 (1)
0x680|                        00                     |        .       |                        lN: 0 0x688-0x688.7 (1)
     |                                               |                |                      [4]{}: instr 0x689-0x68a.7 (2)
0x680|                           41                  |         A      |                        i32.const: 0x41 (valid) 0x689-0x689.7 (1)
0x680|                              07               |          .     |                        n: 7 0x68a-0x68a.7 (1)
0x680|                                 0b            |           .    |                    end: 11 (valid) 0x68b-0x68b.7 (1)
     |                                               |                |                  [1]{}: in 0x68c-0x68c.7 (1)
0x680|                                    0b         |            .   |                    end: 0xb (valid) 0x68c-0x68c.7 (1)
     |                                               |                |            [24]{}: code 0x68d-0x69e.7 (18)
0x680|                                       11      |             .  |              size: 17 0x68d-0x68d.7 (1)
     |                                               |                |              code{}: 0x68e-0x69e.7 (17)
     |                                               |                |                t{}: 0x68e-0x68e.7 (1)
0x680|                                          00   |              . |                  n: 0 0x68e-0x68e.7 (1)
     |                                               |                |                  x[0:0]: 0x68f-NA (0)
     |                                               |                |                e[0:2]: 0x68f-0x69e.7 (16)
     |                                               |                |                  [0]{}: in 0x68f-0x69d.7 (15)
0x680|                                             02|               .|                    block: 0x2 (valid) 0x68f-0x68f.7 (1)
0x690|7f                                             |.               |                    bt: "i32" (127) 0x690-0x690.7 (1)
     |                                               |                |                    instructions[0:5]: 0x691-0x69c.7 (12)
     |                                               |                |                      [0]{}: instr 0x691-0x692.7 (2)
0x690|   41                                          | A              |                        i32.const: 0x41 (valid) 0x691-0x691.7 (1)
0x690|      06                                       |  .             |                        n: 6 0x692-0x692.7 (1)
     |                                               |                |                      [1]{}: instr 0x693-0x694.7 (2)
0x690|         41                                    |   A            |                        i32.const: 0x41 (valid) 0x693-0x693.7 (1)
0x690|            0b                                 |    .           |                        n: 11 0x694-0x694.7 (1)
     |                                               |                |                      [2]{}: instr 0x695-0x696.7 (2)
0x690|               22                              |     "          |                        local.tee: 0x22 (valid) 0x695-0x695.7 (1)
0x690|                  00                           |      .         |                        x: 0 0x696-0x696.7 (1)
     |                                               |                |                      [3]{}: instr 0x697-0x69a.7 (4)
0x690|                     0e                        |       .        |                        br_table: 0xe (valid) 0x697-0x697.7 (1)
     |                                               |                |                        l{}: 0x698-0x699.7 (2)
0x690|                        01                     |        .       |                          n: 1 0x698-0x698.7 (1)
     |                                               |                |                          x[0:1]: 0x699-0x699.7 (1)
0x690|                           00                  |         .      |                            [0]: 0 l 0x699-0x699.7 (1)
0x690|                              00               |          .     |                        lN: 0 0x69a-0x69a.7 (1)
     |                                               |                |                      [4]{}: instr 0x69b-0x69c.7 (2)
0x690|                                 41            |           A    |                        i32.const: 0x41 (valid) 0x69b-0x69b.7 (1)
0x690|                                    07         |            .   |                        n: 7 0x69c-0x69c.7 (1)
0x690|                                       0b      |             .  |                    end: 11 (valid) 0x69d-0x69d.7 (1)
     |                                               |                |                  [1]{}: in 0x69e-0x69e.7 (1)
0x690|                                          0b   |              . |                    end: 0xb (valid) 0x69e-0x69e.7 (1)
     |                                               |                |            [25]{}: code 0x69f-0x6a6.7 (8)
0x690|                                             07|               .|              size: 7 0x69f-0x69f.7 (1)
     |                                               |                |              code{}: 0x6a0-0x6a6.7 (7)
     |                                               |                |                t{}: 0x6a0-0x6a0.7 (1)
0x6a0|00                                             |.               |                  n: 0 0x6a0-0x6a0.7 (1)
     |                                               |                |                  x[0:0]: 0x6a1-NA (0)
     |                                               |                |                e[0:4]: 0x6a1-0x6a6.7 (6)
     |                                               |                |                  [0]{}: in 0x6a1-0x6a2.7 (2)
0x6a0|   41                                          | A              |                    i32.const: 0x41 (valid) 0x6a1-0x6a1.7 (1)
0x6a0|      07                                       |  .             |                    n: 7 0x6a2-0x6a2.7 (1)
     |                                               |                |                  [1]{}: in 0x6a3-0x6a4.7 (2)
0x6a0|         22                                    |   "            |                    local.tee: 0x22 (valid) 0x6a3-0x6a3.7 (1)
0x6a0|            00                                 |    .           |                    x: 0 0x6a4-0x6a4.7 (1)
     |                                               |                |                  [2]{}: in 0x6a5-0x6a5.7 (1)
0x6a0|               0f                              |     .          |                    return: 0xf (valid) 0x6a5-0x6a5.7 (1)
     |                                               |                |                  [3]{}: in 0x6a6-0x6a6.7 (1)
0x6a0|                  0b                           |      .         |                    end: 0xb (valid) 0x6a6-0x6a6.7 (1)
     |                                               |                |            [26]{}: code 0x6a7-0x6b5.7 (15)
0x6a0|                     0e                        |       .        |              size: 14 0x6a7-0x6a7.7 (1)
     |                                               |                |              code{}: 0x6a8-0x6b5.7 (14)
     |                                               |                |                t{}: 0x6a8-0x6a8.7 (1)
0x6a0|                        00                     |        .       |                  n: 0 0x6a8-0x6a8.7 (1)
     |                                               |                |                  x[0:0]: 0x6a9-NA (0)
     |                                               |                |                e[0:4]: 0x6a9-0x6b5.7 (13)
     |                                               |                |                  [0]{}: in 0x6a9-0x6aa.7 (2)
0x6a0|                           41                  |         A      |                    i32.const: 0x41 (valid) 0x6a9-0x6a9.7 (1)
0x6a0|                              02               |          .     |                    n: 2 0x6aa-0x6aa.7 (1)
     |                                               |                |                  [1]{}: in 0x6ab-0x6ac.7 (2)
0x6a0|                                 22            |           "    |                    local.tee: 0x22 (valid) 0x6ab-0x6ab.7 (1)
0x6a0|                                    00         |            .   |                    x: 0 0x6ac-0x6ac.7 (1)
     |                                               |                |                  [2]{}: in 0x6ad-0x6b4.7 (8)
0x6a0|                                       04      |             .  |                    if: 0x4 (valid) 0x6ad-0x6ad.7 (1)
0x6a0|                                          7f   |              . |                    bt: "i32" (127) 0x6ae-0x6ae.7 (1)
     |                                               |                |                    in1[0:1]: 0x6af-0x6b0.7 (2)
     |                                               |                |                      [0]{}: instr 0x6af-0x6b0.7 (2)
0x6a0|                                             41|               A|                        i32.const: 0x41 (valid) 0x6af-0x6af.7 (1)
0x6b0|00                                             |.               |                        n: 0 0x6b0-0x6b0.7 (1)
0x6b0|   05                                          | .              |                    else: 0x5 (valid) 0x6b1-0x6b1.7 (1)
     |                                               |                |                    in2[0:1]: 0x6b2-0x6b3.7 (2)
     |                                               |                |                      [0]{}: instr 0x6b2-0x6b3.7 (2)
0x6b0|      41                                       |  A             |                        i32.const: 0x41 (valid) 0x6b2-0x6b2.7 (1)
0x6b0|         01                                    |   .            |                        n: 1 0x6b3-0x6b3.7 (1)
0x6b0|            0b                                 |    .           |                    end: 11 (valid) 0x6b4-0x6b4.7 (1)
     |                                               |                |                  [3]{}: in 0x6b5-0x6b5.7 (1)
0x6b0|               0b                              |     .          |                    end: 0xb (valid) 0x6b5-0x6b5.7 (1)
     |                                               |                |            [27]{}: code 0x6b6-0x6c4.7 (15)
0x6b0|                  0e                           |      .         |              size: 14 0x6b6-0x6b6.7 (1)
     |                                               |                |              code{}: 0x6b7-0x6c4.7 (14)
     |                                               |                |                t{}: 0x6b7-0x6b7.7 (1)
0x6b0|                     00                        |       .        |                  n: 0 0x6b7-0x6b7.7 (1)
     |                                               |                |                  x[0:0]: 0x6b8-NA (0)
     |                                               |                |                e[0:3]: 0x6b8-0x6c4.7 (13)
     |                                               |                |                  [0]{}: in 0x6b8-0x6b9.7 (2)
0x6b0|                        20                     |                |                    local.get: 0x20 (valid) 0x6b8-0x6b8.7 (1)
0x6b0|                           00                  |         .      |                    x: 0 0x6b9-0x6b9.7 (1)
     |                                               |                |                  [1]{}: in 0x6ba-0x6c3.7 (10)
0x6b0|                              04               |          .     |                    if: 0x4 (valid) 0x6ba-0x6ba.7 (1)
0x6b0|                                 7f            |           .    |                    bt: "i32" (127) 0x6bb-0x6bb.7 (1)
     |                                               |                |                    in1[0:2]: 0x6bc-0x6bf.7 (4)
     |                                               |                |                      [0]{}: instr 0x6bc-0x6bd.7 (2)
0x6b0|                                    41         |            A   |                        i32.const: 0x41 (valid) 0x6bc-0x6bc.7 (1)
0x6b0|                                       03      |             .  |                        n: 3 0x6bd-0x6bd.7 (1)
     |                                               |                |                      [1]{}: instr 0x6be-0x6bf.7 (2)
0x6b0|                                          22   |              " |                        local.tee: 0x22 (valid) 0x6be-0x6be.7 (1)
0x6b0|                                             00|               .|                        x: 0 0x6bf-0x6bf.7 (1)
0x6c0|05                                             |.               |                    else: 0x5 (valid) 0x6c0-0x6c0.7 (1)
     |                                               |                |                    in2[0:1]: 0x6c1-0x6c2.7 (2)
     |                                               |                |                      [0]{}: instr 0x6c1-0x6c2.7 (2)
0x6c0|   20                                          |                |                        local.get: 0x20 (valid) 0x6c1-0x6c1.7 (1)
0x6c0|      00                                       |  .             |                        x: 0 0x6c2-0x6c2.7 (1)
0x6c0|         0b                                    |   .            |                    end: 11 (valid) 0x6c3-0x6c3.7 (1)
     |                                               |                |                  [2]{}: in 0x6c4-0x6c4.7 (1)
0x6c0|            0b                                 |    .           |                    end: 0xb (valid) 0x6c4-0x6c4.7 (1)
     |                                               |                |            [28]{}: code 0x6c5-0x6d3.7 (15)
0x6c0|               0e                              |     .          |              size: 14 0x6c5-0x6c5.7 (1)
     |                                               |                |              code{}: 0x6c6-0x6d3.7 (14)
     |                                               |                |                t{}: 0x6c6-0x6c6.7 (1)
0x6c0|                  00                           |      .         |                  n: 0 0x6c6-0x6c6.7 (1)
     |                                               |                |                  x[0:0]: 0x6c7-NA (0)
     |                                               |                |                e[0:3]: 0x6c7-0x6d3.7 (13)
     |                                               |                |                  [0]{}: in 0x6c7-0x6c8.7 (2)
0x6c0|                     20                        |                |                    local.get: 0x20 (valid) 0x6c7-0x6c7.7 (1)
0x6c0|                        00                     |        .       |                    x: 0 0x6c8-0x6c8.7 (1)
     |                                               |                |                  [1]{}: in 0x6c9-0x6d2.7 (10)
0x6c0|                           04                  |         .      |                    if: 0x4 (valid) 0x6c9-0x6c9.7 (1)
0x6c0|                              7f               |          .     |                    bt: "i32" (127) 0x6ca-0x6ca.7 (1)
     |                                               |                |                    in1[0:1]: 0x6cb-0x6cc.7 (2)
     |                                               |                |                      [0]{}: instr 0x6cb-0x6cc.7 (2)
0x6c0|                                 20            |                |                        local.get: 0x20 (valid) 0x6cb-0x6cb.7 (1)
0x6c0|                                    00         |            .   |                        x: 0 0x6cc-0x6cc.7 (1)
0x6c0|                                       05      |             .  |                    else: 0x5 (valid) 0x6cd-0x6cd.7 (1)
     |                                               |                |                    in2[0:2]: 0x6ce-0x6d1.7 (4)
     |                                               |                |                      [0]{}: instr 0x6ce-0x6cf.7 (2)
0x6c0|                                          41   |              A |                        i32.const: 0x41 (valid) 0x6ce-0x6ce.7 (1)
0x6c0|                                             04|               .|                        n: 4 0x6cf-0x6cf.7 (1)
     |                                               |                |                      [1]{}: instr 0x6d0-0x6d1.7 (2)
0x6d0|22                                             |"               |                        local.tee: 0x22 (valid) 0x6d0-0x6d0.7 (1)
0x6d0|   00                                          | .              |                        x: 0 0x6d1-0x6d1.7 (1)
0x6d0|      0b                                       |  .             |                    end: 11 (valid) 0x6d2-0x6d2.7 (1)
     |                                               |                |                  [2]{}: in 0x6d3-0x6d3.7 (1)
0x6d0|         0b                                    |   .            |                    end: 0xb (valid) 0x6d3-0x6d3.7 (1)
     |                                               |                |            [29]{}: code 0x6d4-0x6df.7 (12)
0x6d0|            0b                                 |    .           |              size: 11 0x6d4-0x6d4.7 (1)
     |                                               |                |              code{}: 0x6d5-0x6df.7 (11)
     |                                               |                |                t{}: 0x6d5-0x6d5.7 (1)
0x6d0|               00                              |     .          |                  n: 0 0x6d5-0x6d5.7 (1)
     |                                               |                |                  x[0:0]: 0x6d6-NA (0)
     |                                               |                |                e[0:6]: 0x6d6-0x6df.7 (10)
     |                                               |                |                  [0]{}: in 0x6d6-0x6d7.7 (2)
0x6d0|                  41                           |      A         |                    i32.const: 0x41 (valid) 0x6d6-0x6d6.7 (1)
0x6d0|                     05                        |       .        |                    n: 5 0x6d7-0x6d7.7 (1)
     |                                               |                |                  [1]{}: in 0x6d8-0x6d9.7 (2)
0x6d0|                        22                     |        "       |                    local.tee: 0x22 (valid) 0x6d8-0x6d8.7 (1)
0x6d0|                           00                  |         .      |                    x: 0 0x6d9-0x6d9.7 (1)
     |                                               |                |                  [2]{}: in 0x6da-0x6db.7 (2)
0x6d0|                              20               |                |                    local.get: 0x20 (valid) 0x6da-0x6da.7 (1)
0x6d0|                                 00            |           .    |                    x: 0 0x6db-0x6db.7 (1)
     |                                               |                |                  [3]{}: in 0x6dc-0x6dd.7 (2)
0x6d0|                                    20         |                |                    local.get: 0x20 (valid) 0x6dc-0x6dc.7 (1)
0x6d0|                                       01      |             .  |                    x: 1 0x6dd-0x6dd.7 (1)
     |                                               |                |                  [4]{}: in 0x6de-0x6de.7 (1)
0x6d0|                                          1b   |              . |                    select: 0x1b (valid) 0x6de-0x6de.7 (1)
     |                                               |                |                  [5]{}: in 0x6df-0x6df.7 (1)
0x6d0|                                             0b|               .|                    end: 0xb (valid) 0x6df-0x6df.7 (1)
     |                                               |                |            [30]{}: code 0x6e0-0x6eb.7 (12)
0x6e0|0b                                             |.               |              size: 11 0x6e0-0x6e0.7 (1)
     |                                               |                |              code{}: 0x6e1-0x6eb.7 (11)
     |                                               |                |                t{}: 0x6e1-0x6e1.7 (1)
0x6e0|   00                                          | .              |                  n: 0 0x6e1-0x6e1.7 (1)
     |                                               |                |                  x[0:0]: 0x6e2-NA (0)
     |                                               |                |                e[0:6]: 0x6e2-0x6eb.7 (10)
     |                                               |                |                  [0]{}: in 0x6e2-0x6e3.7 (2)
0x6e0|      20                                       |                |                    local.get: 0x20 (valid) 0x6e2-0x6e2.7 (1)
0x6e0|         00                                    |   .            |                    x: 0 0x6e3-0x6e3.7 (1)
     |                                               |                |                  [1]{}: in 0x6e4-0x6e5.7 (2)
0x6e0|            41                                 |    A           |                    i32.const: 0x41 (valid) 0x6e4-0x6e4.7 (1)
0x6e0|               06                              |     .          |                    n: 6 0x6e5-0x6e5.7 (1)
     |                                               |                |                  [2]{}: in 0x6e6-0x6e7.7 (2)
0x6e0|                  22                           |      "         |                    local.tee: 0x22 (valid) 0x6e6-0x6e6.7 (1)
0x6e0|                     00                        |       .        |                    x: 0 0x6e7-0x6e7.7 (1)
     |                                               |                |                  [3]{}: in 0x6e8-0x6e9.7 (2)
0x6e0|                        20                     |                |                    local.get: 0x20 (valid) 0x6e8-0x6e8.7 (1)
0x6e0|                           01                  |         .      |                    x: 1 0x6e9-0x6e9.7 (1)
     |                                               |                |                  [4]{}: in 0x6ea-0x6ea.7 (1)
0x6e0|                              1b               |          .     |                    select: 0x1b (valid) 0x6ea-0x6ea.7 (1)
     |                                               |                |                  [5]{}: in 0x6eb-0x6eb.7 (1)
0x6e0|                                 0b            |           .    |                    end: 0xb (valid) 0x6eb-0x6eb.7 (1)
     |                                               |                |            [31]{}: code 0x6ec-0x6f7.7 (12)
0x6e0|                                    0b         |            .   |              size: 11 0x6ec-0x6ec.7 (1)
     |                                               |                |              code{}: 0x6ed-0x6f7.7 (11)
     |                                               |                |                t{}: 0x6ed-0x6ed.7 (1)
0x6e0|                                       00      |             .  |                  n: 0 0x6ed-0x6ed.7 (1)
     |                                               |                |                  x[0:0]: 0x6ee-NA (0)
     |                                               |                |                e[0:6]: 0x6ee-0x6f7.7 (10)
     |                                               |                |                  [0]{}: in 0x6ee-0x6ef.7 (2)
0x6e0|                                          41   |              A |                    i32.const: 0x41 (valid) 0x6ee-0x6ee.7 (1)
0x6e0|                                             00|               .|                    n: 0 0x6ef-0x6ef.7 (1)
     |                                               |                |                  [1]{}: in 0x6f0-0x6f1.7 (2)
0x6f0|41                                             |A               |                    i32.const: 0x41 (valid) 0x6f0-0x6f0.7 (1)
0x6f0|   01                                          | .              |                    n: 1 0x6f1-0x6f1.7 (1)
     |                                               |                |                  [2]{}: in 0x6f2-0x6f3.7 (2)
0x6f0|      41                                       |  A             |                    i32.const: 0x41 (valid) 0x6f2-0x6f2.7 (1)
0x6f0|         07                                    |   .            |                    n: 7 0x6f3-0x6f3.7 (1)
     |                                               |                |                  [3]{}: in 0x6f4-0x6f5.7 (2)
0x6f0|            22                                 |    "           |                    local.tee: 0x22 (valid) 0x6f4-0x6f4.7 (1)
0x6f0|               00                              |     .          |                    x: 0 0x6f5-0x6f5.7 (1)
     |                                               |                |                  [4]{}: in 0x6f6-0x6f6.7 (1)
0x6f0|                  1b                           |      .         |                    select: 0x1b (valid) 0x6f6-0x6f6.7 (1)
     |                                               |                |                  [5]{}: in 0x6f7-0x6f7.7 (1)
0x6f0|                     0b                        |       .        |                    end: 0xb (valid) 0x6f7-0x6f7.7 (1)
     |                                               |                |            [32]{}: code 0x6f8-0x6fc.7 (5)
0x6f0|                        04                     |        .       |              size: 4 0x6f8-0x6f8.7 (1)
     |                                               |                |              code{}: 0x6f9-0x6fc.7 (4)
     |                                               |                |                t{}: 0x6f9-0x6f9.7 (1)
0x6f0|                           00                  |         .      |                  n: 0 0x6f9-0x6f9.7 (1)
     |                                               |                |                  x[0:0]: 0x6fa-NA (0)
     |                                               |                |                e[0:2]: 0x6fa-0x6fc.7 (3)
     |                                               |                |                  [0]{}: in 0x6fa-0x6fb.7 (2)
0x6f0|                              41               |          A     |                    i32.const: 0x41 (valid) 0x6fa-0x6fa.7 (1)
0x6f0|                                 7f            |           .    |                    n: -1 0x6fb-0x6fb.7 (1)
     |                                               |                |                  [1]{}: in 0x6fc-0x6fc.7 (1)
0x6f0|                                    0b         |            .   |                    end: 0xb (valid) 0x6fc-0x6fc.7 (1)
     |                                               |                |            [33]{}: code 0x6fd-0x709.7 (13)
0x6f0|                                       0c      |             .  |              size: 12 0x6fd-0x6fd.7 (1)
     |                                               |                |              code{}: 0x6fe-0x709.7 (12)
     |                                               |                |                t{}: 0x6fe-0x6fe.7 (1)
0x6f0|                                          00   |              . |                  n: 0 0x6fe-0x6fe.7 (1)
     |                                               |                |                  x[0:0]: 0x6ff-NA (0)
     |                                               |                |                e[0:6]: 0x6ff-0x709.7 (11)
     |                                               |                |                  [0]{}: in 0x6ff-0x700.7 (2)
0x6f0|                                             41|               A|                    i32.const: 0x41 (valid) 0x6ff-0x6ff.7 (1)
0x700|0c                                             |.               |                    n: 12 0x700-0x700.7 (1)
     |                                               |                |                  [1]{}: in 0x701-0x702.7 (2)
0x700|   22                                          | "              |                    local.tee: 0x22 (valid) 0x701-0x701.7 (1)
0x700|      00                                       |  .             |                    x: 0 0x702-0x702.7 (1)
     |                                               |                |                  [2]{}: in 0x703-0x704.7 (2)
0x700|         41                                    |   A            |                    i32.const: 0x41 (valid) 0x703-0x703.7 (1)
0x700|            02                                 |    .           |                    n: 2 0x704-0x704.7 (1)
     |                                               |                |                  [3]{}: in 0x705-0x706.7 (2)
0x700|               41                              |     A          |                    i32.const: 0x41 (valid) 0x705-0x705.7 (1)
0x700|                  03                           |      .         |                    n: 3 0x706-0x706.7 (1)
     |                                               |                |                  [4]{}: in 0x707-0x708.7 (2)
0x700|                     10                        |       .        |                    call: 0x10 (valid) 0x707-0x707.7 (1)
0x700|                        20                     |                |                    x: 32 0x708-0x708.7 (1)
     |                                               |                |                  [5]{}: in 0x709-0x709.7 (1)
0x700|                           0b                  |         .      |                    end: 0xb (valid) 0x709-0x709.7 (1)
     |                                               |                |            [34]{}: code 0x70a-0x716.7 (13)
0x700|                              0c               |          .     |              size: 12 0x70a-0x70a.7 (1)
     |                                               |                |              code{}: 0x70b-0x716.7 (12)
     |                                               |                |                t{}: 0x70b-0x70b.7 (1)
0x700|                                 00            |           .    |                  n: 0 0x70b-0x70b.7 (1)
     |                                               |                |                  x[0:0]: 0x70c-NA (0)
     |                                               |                |                e[0:6]: 0x70c-0x716.7 (11)
     |                                               |                |                  [0]{}: in 0x70c-0x70d.7 (2)
0x700|                                    41         |            A   |                    i32.const: 0x41 (valid) 0x70c-0x70c.7 (1)
0x700|                                       01      |             .  |                    n: 1 0x70d-0x70d.7 (1)
     |                                               |                |                  [1]{}: in 0x70e-0x70f.7 (2)
0x700|                                          41   |              A |                    i32.const: 0x41 (valid) 0x70e-0x70e.7 (1)
0x700|                                             0d|               .|                    n: 13 0x70f-0x70f.7 (1)
     |                                               |                |                  [2]{}: in 0x710-0x711.7 (2)
0x710|22                                             |"               |                    local.tee: 0x22 (valid) 0x710-0x710.7 (1)
0x710|   00                                          | .              |                    x: 0 0x711-0x711.7 (1)
     |                                               |                |                  [3]{}: in 0x712-0x713.7 (2)
0x710|      41                                       |  A             |                    i32.const: 0x41 (valid) 0x712-0x712.7 (1)
0x710|         03                                    |   .            |                    n: 3 0x713-0x713.7 (1)
     |                                               |                |                  [4]{}: in 0x714-0x715.7 (2)
0x710|            10                                 |    .           |                    call: 0x10 (valid) 0x714-0x714.7 (1)
0x710|               20                              |                |                    x: 32 0x715-0x715.7 (1)
     |                                               |                |                  [5]{}: in 0x716-0x716.7 (1)
0x710|                  0b                           |      .         |                    end: 0xb (valid) 0x716-0x716.7 (1)
     |                                               |                |            [35]{}: code 0x717-0x723.7 (13)
0x710|                     0c                        |       .        |              size: 12 0x717-0x717.7 (1)
     |                                               |                |              code{}: 0x718-0x723.7 (12)
     |                                               |                |                t{}: 0x718-0x718.7 (1)
0x710|                        00                     |        .       |                  n: 0 0x718-0x718.7 (1)
     |                                               |                |                  x[0:0]: 0x719-NA (0)
     |                                               |                |                e[0:6]: 0x719-0x723.7 (11)
     |                                               |                |                  [0]{}: in 0x719-0x71a.7 (2)
0x710|                           41                  |         A      |                    i32.const: 0x41 (valid) 0x719-0x719.7 (1)
0x710|                              01               |          .     |                    n: 1 0x71a-0x71a.7 (1)
     |                                               |                |                  [1]{}: in 0x71b-0x71c.7 (2)
0x710|                                 41            |           A    |                    i32.const: 0x41 (valid) 0x71b-0x71b.7 (1)
0x710|                                    02         |            .   |                    n: 2 0x71c-0x71c.7 (1)
     |                                               |                |                  [2]{}: in 0x71d-0x71e.7 (2)
0x710|                                       41      |             A  |                    i32.const: 0x41 (valid) 0x71d-0x71d.7 (1)
0x710|                                          0e   |              . |                    n: 14 0x71e-0x71e.7 (1)
     |                                               |                |                  [3]{}: in 0x71f-0x720.7 (2)
0x710|                                             22|               "|                    local.tee: 0x22 (valid) 0x71f-0x71f.7 (1)
0x720|00                                             |.               |                    x: 0 0x720-0x720.7 (1)
     |                                               |                |                  [4]{}: in 0x721-0x722.7 (2)
0x720|   10                                          | .              |                    call: 0x10 (valid) 0x721-0x721.7 (1)
0x720|      20                                       |                |                    x: 32 0x722-0x722.7 (1)
     |                                               |                |                  [5]{}: in 0x723-0x723.7 (1)
0x720|         0b                                    |   .            |                    end: 0xb (valid) 0x723-0x723.7 (1)
     |                                               |                |            [36]{}: code 0x724-0x733.7 (16)
0x720|            0f                                 |    .           |              size: 15 0x724-0x724.7 (1)
     |                                               |                |              code{}: 0x725-0x733.7 (15)
     |                                               |                |                t{}: 0x725-0x725.7 (1)
0x720|               00                              |     .          |                  n: 0 0x725-0x725.7 (1)
     |                                               |                |                  x[0:0]: 0x726-NA (0)
     |                                               |                |                e[0:7]: 0x726-0x733.7 (14)
     |                                               |                |                  [0]{}: in 0x726-0x727.7 (2)
0x720|                  41                           |      A         |                    i32.const: 0x41 (valid) 0x726-0x726.7 (1)
0x720|                     01                        |       .        |                    n: 1 0x727-0x727.7 (1)
     |                                               |                |                  [1]{}: in 0x728-0x729.7 (2)
0x720|                        22                     |        "       |                    local.tee: 0x22 (valid) 0x728-0x728.7 (1)
0x720|                           00                  |         .      |                    x: 0 0x729-0x729.7 (1)
     |                                               |                |                  [2]{}: in 0x72a-0x72b.7 (2)
0x720|                              41               |          A     |                    i32.const: 0x41 (valid) 0x72a-0x72a.7 (1)
0x720|                                 02            |           .    |                    n: 2 0x72b-0x72b.7 (1)
     |                                               |                |                  [3]{}: in 0x72c-0x72d.7 (2)
0x720|                                    41         |            A   |                    i32.const: 0x41 (valid) 0x72c-0x72c.7 (1)
0x720|                                       03      |             .  |                    n: 3 0x72d-0x72d.7 (1)
     |                                               |                |                  [4]{}: in 0x72e-0x72f.7 (2)
0x720|                                          41   |              A |                    i32.const: 0x41 (valid) 0x72e-0x72e.7 (1)
0x720|                                             00|               .|                    n: 0 0x72f-0x72f.7 (1)
     |                                               |                |                  [5]{}: in 0x730-0x732.7 (3)
0x730|11                                             |.               |                    call: 0x11 (valid) 0x730-0x730.7 (1)
0x730|   00                                          | .              |                    y: 0 0x731-0x731.7 (1)
0x730|      00                                       |  .             |                    x: 0 0x732-0x732.7 (1)
     |                                               |                |                  [6]{}: in 0x733-0x733.7 (1)
0x730|         0b                                    |   .            |                    end: 0xb (valid) 0x733-0x733.7 (1)
     |                                               |                |            [37]{}: code 0x734-0x743.7 (16)
0x730|            0f                                 |    .           |              size: 15 0x734-0x734.7 (1)
     |                                               |                |              code{}: 0x735-0x743.7 (15)
     |                                               |                |                t{}: 0x735-0x735.7 (1)
0x730|               00                              |     .          |                  n: 0 0x735-0x735.7 (1)
     |                                               |                |                  x[0:0]: 0x736-NA (0)
     |                                               |                |                e[0:7]: 0x736-0x743.7 (14)
     |                                               |                |                  [0]{}: in 0x736-0x737.7 (2)
0x730|                  41                           |      A         |                    i32.const: 0x41 (valid) 0x736-0x736.7 (1)
0x730|                     01                        |       .        |                    n: 1 0x737-0x737.7 (1)
     |                                               |                |                  [1]{}: in 0x738-0x739.7 (2)
0x730|                        41                     |        A       |                    i32.const: 0x41 (valid) 0x738-0x738.7 (1)
0x730|                           02                  |         .      |                    n: 2 0x739-0x739.7 (1)
     |                                               |                |                  [2]{}: in 0x73a-0x73b.7 (2)
0x730|                              22               |          "     |                    local.tee: 0x22 (valid) 0x73a-0x73a.7 (1)
0x730|                                 00            |           .    |                    x: 0 0x73b-0x73b.7 (1)
     |                                               |                |                  [3]{}: in 0x73c-0x73d.7 (2)
0x730|                                    41         |            A   |                    i32.const: 0x41 (valid) 0x73c-0x73c.7 (1)
0x730|                                       03      |             .  |                    n: 3 0x73d-0x73d.7 (1)
     |                                               |                |                  [4]{}: in 0x73e-0x73f.7 (2)
0x730|                                          41   |              A |                    i32.const: 0x41 (valid) 0x73e-0x73e.7 (1)
0x730|                                             00|               .|                    n: 0 0x73f-0x73f.7 (1)
     |                                               |                |                  [5]{}: in 0x740-0x742.7 (3)
0x740|11                                             |.               |                    call: 0x11 (valid) 0x740-0x740.7 (1)
0x740|   00                                          | .              |                    y: 0 0x741-0x741.7 (1)
0x740|      00                                       |  .             |                    x: 0 0x742-0x742.7 (1)
     |                                               |                |                  [6]{}: in 0x743-0x743.7 (1)
0x740|         0b                                    |   .            |                    end: 0xb (valid) 0x743-0x743.7 (1)
     |                                               |                |            [38]{}: code 0x744-0x753.7 (16)
0x740|            0f                                 |    .           |              size: 15 0x744-0x744.7 (1)
     |                                               |                |              code{}: 0x745-0x753.7 (15)
     |                                               |                |                t{}: 0x745-0x745.7 (1)
0x740|               00                              |     .          |                  n: 0 0x745-0x745.7 (1)
     |                                               |                |                  x[0:0]: 0x746-NA (0)
     |                                               |                |                e[0:7]: 0x746-0x753.7 (14)
     |                                               |                |                  [0]{}: in 0x746-0x747.7 (2)
0x740|                  41                           |      A         |                    i32.const: 0x41 (valid) 0x746-0x746.7 (1)
0x740|                     01                        |       .        |                    n: 1 0x747-0x747.7 (1)
     |                                               |                |                  [1]{}: in 0x748-0x749.7 (2)
0x740|                        41                     |        A       |                    i32.const: 0x41 (valid) 0x748-0x748.7 (1)
0x740|                           02                  |         .      |                    n: 2 0x749-0x749.7 (1)
     |                                               |                |                  [2]{}: in 0x74a-0x74b.7 (2)
0x740|                              41               |          A     |                    i32.const: 0x41 (valid) 0x74a-0x74a.7 (1)
0x740|                                 03            |           .    |                    n: 3 0x74b-0x74b.7 (1)
     |                                               |                |                  [3]{}: in 0x74c-0x74d.7 (2)
0x740|                                    22         |            "   |                    local.tee: 0x22 (valid) 0x74c-0x74c.7 (1)
0x740|                                       00      |             .  |                    x: 0 0x74d-0x74d.7 (1)
     |                                               |                |                  [4]{}: in 0x74e-0x74f.7 (2)
0x740|                                          41   |              A |                    i32.const: 0x41 (valid) 0x74e-0x74e.7 (1)
0x740|                                             00|               .|                    n: 0 0x74f-0x74f.7 (1)
     |                                               |                |                  [5]{}: in 0x750-0x752.7 (3)
0x750|11                                             |.               |                    call: 0x11 (valid) 0x750-0x750.7 (1)
0x750|   00                                          | .              |                    y: 0 0x751-0x751.7 (1)
0x750|      00                                       |  .             |                    x: 0 0x752-0x752.7 (1)
     |                                               |                |                  [6]{}: in 0x753-0x753.7 (1)
0x750|         0b                                    |   .            |                    end: 0xb (valid) 0x753-0x753.7 (1)
     |                                               |                |            [39]{}: code 0x754-0x763.7 (16)
0x750|            0f                                 |    .           |              size: 15 0x754-0x754.7 (1)
     |                                               |                |              code{}: 0x755-0x763.7 (15)
     |                                               |                |                t{}: 0x755-0x755.7 (1)
0x750|               00                              |     .          |                  n: 0 0x755-0x755.7 (1)
     |                                               |                |                  x[0:0]: 0x756-NA (0)
     |                                               |                |                e[0:7]: 0x756-0x763.7 (14)
     |                                               |                |                  [0]{}: in 0x756-0x757.7 (2)
0x750|                  41                           |      A         |                    i32.const: 0x41 (valid) 0x756-0x756.7 (1)
0x750|                     01                        |       .        |                    n: 1 0x757-0x757.7 (1)
     |                                               |                |                  [1]{}: in 0x758-0x759.7 (2)
0x750|                        41                     |        A       |                    i32.const: 0x41 (valid) 0x758-0x758.7 (1)
0x750|                           02                  |         .      |                    n: 2 0x759-0x759.7 (1)
     |                                               |                |                  [2]{}: in 0x75a-0x75b.7 (2)
0x750|                              41               |          A     |                    i32.const: 0x41 (valid) 0x75a-0x75a.7 (1)
0x750|                                 03            |           .    |                    n: 3 0x75b-0x75b.7 (1)
     |                                               |                |                  [3]{}: in 0x75c-0x75d.7 (2)
0x750|                                    41         |            A   |                    i32.const: 0x41 (valid) 0x75c-0x75c.7 (1)
0x750|                                       00      |             .  |                    n: 0 0x75d-0x75d.7 (1)
     |                                               |                |                  [4]{}: in 0x75e-0x75f.7 (2)
0x750|                                          22   |              " |                    local.tee: 0x22 (valid) 0x75e-0x75e.7 (1)
0x750|                                             00|               .|                    x: 0 0x75f-0x75f.7 (1)
     |                                               |                |                  [5]{}: in 0x760-0x762.7 (3)
0x760|11                                             |.               |                    call: 0x11 (valid) 0x760-0x760.7 (1)
0x760|   00                                          | .              |                    y: 0 0x761-0x761.7 (1)
0x760|      00                                       |  .             |                    x: 0 0x762-0x762.7 (1)
     |                                               |                |                  [6]{}: in 0x763-0x763.7 (1)
0x760|         0b                                    |   .            |                    end: 0xb (valid) 0x763-0x763.7 (1)
     |                                               |                |            [40]{}: code 0x764-0x76e.7 (11)
0x760|            0a                                 |    .           |              size: 10 0x764-0x764.7 (1)
     |                                               |                |              code{}: 0x765-0x76e.7 (10)
     |                                               |                |                t{}: 0x765-0x767.7 (3)
0x760|               01                              |     .          |                  n: 1 0x765-0x765.7 (1)
     |                                               |                |                  x[0:1]: 0x766-0x767.7 (2)
     |                                               |                |                    [0]{}: t 0x766-0x767.7 (2)
0x760|                  01                           |      .         |                      n: 1 0x766-0x766.7 (1)
0x760|                     7f                        |       .        |                      t: "i32" (0x7f) 0x767-0x767.7 (1)
     |                                               |                |                e[0:4]: 0x768-0x76e.7 (7)
     |                                               |                |                  [0]{}: in 0x768-0x769.7 (2)
0x760|                        41                     |        A       |                    i32.const: 0x41 (valid) 0x768-0x768.7 (1)
0x760|                           01                  |         .      |                    n: 1 0x769-0x769.7 (1)
     |                                               |                |                  [1]{}: in 0x76a-0x76b.7 (2)
0x760|                              22               |          "     |                    local.tee: 0x22 (valid) 0x76a-0x76a.7 (1)
0x760|                                 00            |           .    |                    x: 0 0x76b-0x76b.7 (1)
     |                                               |                |                  [2]{}: in 0x76c-0x76d.7 (2)
0x760|                                    21         |            !   |                    local.set: 0x21 (valid) 0x76c-0x76c.7 (1)
0x760|                                       00      |             .  |                    x: 0 0x76d-0x76d.7 (1)
     |                                               |                |                  [3]{}: in 0x76e-0x76e.7 (1)
0x760|                                          0b   |              . |                    end: 0xb (valid) 0x76e-0x76e.7 (1)
     |                                               |                |            [41]{}: code 0x76f-0x777.7 (9)
0x760|                                             08|               .|              size: 8 0x76f-0x76f.7 (1)
     |                                               |                |              code{}: 0x770-0x777.7 (8)
     |                                               |                |                t{}: 0x770-0x770.7 (1)
0x770|00                                             |.               |                  n: 0 0x770-0x770.7 (1)
     |                                               |                |                  x[0:0]: 0x771-NA (0)
     |                                               |                |                e[0:4]: 0x771-0x777.7 (7)
     |                                               |                |                  [0]{}: in 0x771-0x772.7 (2)
0x770|   41                                          | A              |                    i32.const: 0x41 (valid) 0x771-0x771.7 (1)
0x770|      01                                       |  .             |                    n: 1 0x772-0x772.7 (1)
     |                                               |                |                  [1]{}: in 0x773-0x774.7 (2)
0x770|         22                                    |   "            |                    local.tee: 0x22 (valid) 0x773-0x773.7 (1)
0x770|            00                                 |    .           |                    x: 0 0x774-0x774.7 (1)
     |                                               |                |                  [2]{}: in 0x775-0x776.7 (2)
0x770|               22                              |     "          |                    local.tee: 0x22 (valid) 0x775-0x775.7 (1)
0x770|                  00                           |      .         |                    x: 0 0x776-0x776.7 (1)
     |                                               |                |                  [3]{}: in 0x777-0x777.7 (1)
0x770|                     0b                        |       .        |                    end: 0xb (valid) 0x777-0x777.7 (1)
     |                                               |                |            [42]{}: code 0x778-0x782.7 (11)
0x770|                        0a                     |        .       |              size: 10 0x778-0x778.7 (1)
     |                                               |                |              code{}: 0x779-0x782.7 (10)
     |                                               |                |                t{}: 0x779-0x77b.7 (3)
0x770|                           01                  |         .      |                  n: 1 0x779-0x779.7 (1)
     |                                               |                |                  x[0:1]: 0x77a-0x77b.7 (2)
     |                                               |                |                    [0]{}: t 0x77a-0x77b.7 (2)
0x770|                              01               |          .     |                      n: 1 0x77a-0x77a.7 (1)
0x770|                                 7f            |           .    |                      t: "i32" (0x7f) 0x77b-0x77b.7 (1)
     |                                               |                |                e[0:4]: 0x77c-0x782.7 (7)
     |                                               |                |                  [0]{}: in 0x77c-0x77d.7 (2)
0x770|                                    41         |            A   |                    i32.const: 0x41 (valid) 0x77c-0x77c.7 (1)
0x770|                                       01      |             .  |                    n: 1 0x77d-0x77d.7 (1)
     |                                               |                |                  [1]{}: in 0x77e-0x77f.7 (2)
0x770|                                          22   |              " |                    local.tee: 0x22 (valid) 0x77e-0x77e.7 (1)
0x770|                                             00|               .|                    x: 0 0x77f-0x77f.7 (1)
     |                                               |                |                  [2]{}: in 0x780-0x781.7 (2)
0x780|24                                             |$               |                    global.set: 0x24 (valid) 0x780-0x780.7 (1)
0x780|   00                                          | .              |                    x: 0 0x781-0x781.7 (1)
     |                                               |                |                  [3]{}: in 0x782-0x782.7 (1)
0x780|      0b                                       |  .             |                    end: 0xb (valid) 0x782-0x782.7 (1)
     |                                               |                |            [43]{}: code 0x783-0x78c.7 (10)
0x780|         09                                    |   .            |              size: 9 0x783-0x783.7 (1)
     |                                               |                |              code{}: 0x784-0x78c.7 (9)
     |                                               |                |                t{}: 0x784-0x784.7 (1)
0x780|            00                                 |    .           |                  n: 0 0x784-0x784.7 (1)
     |                                               |                |                  x[0:0]: 0x785-NA (0)
     |                                               |                |                e[0:4]: 0x785-0x78c.7 (8)
     |                                               |                |                  [0]{}: in 0x785-0x786.7 (2)
0x780|               41                              |     A          |                    i32.const: 0x41 (valid) 0x785-0x785.7 (1)
0x780|                  01                           |      .         |                    n: 1 0x786-0x786.7 (1)
     |                                               |                |                  [1]{}: in 0x787-0x788.7 (2)
0x780|                     22                        |       "        |                    local.tee: 0x22 (valid) 0x787-0x787.7 (1)
0x780|                        00                     |        .       |                    x: 0 0x788-0x788.7 (1)
     |                                               |                |                  [2]{}: in 0x789-0x78b.7 (3)
0x780|                           28                  |         (      |                    i32.load: 0x28 (valid) 0x789-0x789.7 (1)
     |                                               |                |                    m{}: 0x78a-0x78b.7 (2)
0x780|                              02               |          .     |                      a: 2 0x78a-0x78a.7 (1)
0x780|                                 00            |           .    |                      o: 0 0x78b-0x78b.7 (1)
     |                                               |                |                  [3]{}: in 0x78c-0x78c.7 (1)
0x780|                                    0b         |            .   |                    end: 0xb (valid) 0x78c-0x78c.7 (1)
     |                                               |                |            [44]{}: code 0x78d-0x796.7 (10)
0x780|                                       09      |             .  |              size: 9 0x78d-0x78d.7 (1)
     |                                               |                |              code{}: 0x78e-0x796.7 (9)
     |                                               |                |                t{}: 0x78e-0x78e.7 (1)
0x780|                                          00   |              . |                  n: 0 0x78e-0x78e.7 (1)
     |                                               |                |                  x[0:0]: 0x78f-NA (0)
     |                                               |                |                e[0:4]: 0x78f-0x796.7 (8)
     |                                               |                |                  [0]{}: in 0x78f-0x790.7 (2)
0x780|                                             41|               A|                    i32.const: 0x41 (valid) 0x78f-0x78f.7 (1)
0x790|03                                             |.               |                    n: 3 0x790-0x790.7 (1)
     |                                               |                |                  [1]{}: in 0x791-0x792.7 (2)
0x790|   22                                          | "              |                    local.tee: 0x22 (valid) 0x791-0x791.7 (1)
0x790|      00                                       |  .             |                    x: 0 0x792-0x792.7 (1)
     |                                               |                |                  [2]{}: in 0x793-0x795.7 (3)
0x790|         2c                                    |   ,            |                    i32.load8_s: 0x2c (valid) 0x793-0x793.7 (1)
     |                                               |                |                    m{}: 0x794-0x795.7 (2)
0x790|            00                                 |    .           |                      a: 0 0x794-0x794.7 (1)
0x790|               00                              |     .          |                      o: 0 0x795-0x795.7 (1)
     |                                               |                |                  [3]{}: in 0x796-0x796.7 (1)
0x790|                  0b                           |      .         |                    end: 0xb (valid) 0x796-0x796.7 (1)
     |                                               |                |            [45]{}: code 0x797-0x7a2.7 (12)
0x790|                     0b                        |       .        |              size: 11 0x797-0x797.7 (1)
     |                                               |                |              code{}: 0x798-0x7a2.7 (11)
     |                                               |                |                t{}: 0x798-0x798.7 (1)
0x790|                        00                     |        .       |                  n: 0 0x798-0x798.7 (1)
     |                                               |                |                  x[0:0]: 0x799-NA (0)
     |                                               |                |                e[0:5]: 0x799-0x7a2.7 (10)
     |                                               |                |                  [0]{}: in 0x799-0x79a.7 (2)
0x790|                           41                  |         A      |                    i32.const: 0x41 (valid) 0x799-0x799.7 (1)
0x790|                              1e               |          .     |                    n: 30 0x79a-0x79a.7 (1)
     |                                               |                |                  [1]{}: in 0x79b-0x79c.7 (2)
0x790|                                 22            |           "    |                    local.tee: 0x22 (valid) 0x79b-0x79b.7 (1)
0x790|                                    00         |            .   |                    x: 0 0x79c-0x79c.7 (1)
     |                                               |                |                  [2]{}: in 0x79d-0x79e.7 (2)
0x790|                                       41      |             A  |                    i32.const: 0x41 (valid) 0x79d-0x79d.7 (1)
0x790|                                          07   |              . |                    n: 7 0x79e-0x79e.7 (1)
     |                                               |                |                  [3]{}: in 0x79f-0x7a1.7 (3)
0x790|                                             36|               6|                    i32.store: 0x36 (valid) 0x79f-0x79f.7 (1)
     |                                               |                |                    m{}: 0x7a0-0x7a1.7 (2)
0x7a0|02                                             |.               |                      a: 2 0x7a0-0x7a0.7 (1)
0x7a0|   00                                          | .              |                      o: 0 0x7a1-0x7a1.7 (1)
     |                                               |                |                  [4]{}: in 0x7a2-0x7a2.7 (1)
0x7a0|      0b                                       |  .             |                    end: 0xb (valid) 0x7a2-0x7a2.7 (1)
     |                                               |                |            [46]{}: code 0x7a3-0x7ae.7 (12)
0x7a0|         0b                                    |   .            |              size: 11 0x7a3-0x7a3.7 (1)
     |                                               |                |              code{}: 0x7a4-0x7ae.7 (11)
     |                                               |                |                t{}: 0x7a4-0x7a4.7 (1)
0x7a0|            00                                 |    .           |                  n: 0 0x7a4-0x7a4.7 (1)
     |                                               |                |                  x[0:0]: 0x7a5-NA (0)
     |                                               |                |                e[0:5]: 0x7a5-0x7ae.7 (10)
     |                                               |                |                  [0]{}: in 0x7a5-0x7a6.7 (2)
0x7a0|               41                              |     A          |                    i32.const: 0x41 (valid) 0x7a5-0x7a5.7 (1)
0x7a0|                  02                           |      .         |                    n: 2 0x7a6-0x7a6.7 (1)
     |                                               |                |                  [1]{}: in 0x7a7-0x7a8.7 (2)
0x7a0|                     41                        |       A        |                    i32.const: 0x41 (valid) 0x7a7-0x7a7.7 (1)
0x7a0|                        01                     |        .       |                    n: 1 0x7a8-0x7a8.7 (1)
     |                                               |                |                  [2]{}: in 0x7a9-0x7aa.7 (2)
0x7a0|                           22                  |         "      |                    local.tee: 0x22 (valid) 0x7a9-0x7a9.7 (1)
0x7a0|                              00               |          .     |                    x: 0 0x7aa-0x7aa.7 (1)
     |                                               |                |                  [3]{}: in 0x7ab-0x7ad.7 (3)
0x7a0|                                 36            |           6    |                    i32.store: 0x36 (valid) 0x7ab-0x7ab.7 (1)
     |                                               |                |                    m{}: 0x7ac-0x7ad.7 (2)
0x7a0|                                    02         |            .   |                      a: 2 0x7ac-0x7ac.7 (1)
0x7a0|                                       00      |             .  |                      o: 0 0x7ad-0x7ad.7 (1)
     |                                               |                |                  [4]{}: in 0x7ae-0x7ae.7 (1)
0x7a0|                                          0b   |              . |                    end: 0xb (valid) 0x7ae-0x7ae.7 (1)
     |                                               |                |            [47]{}: code 0x7af-0x7ba.7 (12)
0x7a0|                                             0b|               .|              size: 11 0x7af-0x7af.7 (1)
     |                                               |                |              code{}: 0x7b0-0x7ba.7 (11)
     |                                               |                |                t{}: 0x7b0-0x7b0.7 (1)
0x7b0|00                                             |.               |                  n: 0 0x7b0-0x7b0.7 (1)
     |                                               |                |                  x[0:0]: 0x7b1-NA (0)
     |                                               |                |                e[0:5]: 0x7b1-0x7ba.7 (10)
     |                                               |                |                  [0]{}: in 0x7b1-0x7b2.7 (2)
0x7b0|   41                                          | A              |                    i32.const: 0x41 (valid) 0x7b1-0x7b1.7 (1)
0x7b0|      01                                       |  .             |                    n: 1 0x7b2-0x7b2.7 (1)
     |                                               |                |                  [1]{}: in 0x7b3-0x7b4.7 (2)
0x7b0|         22                                    |   "            |                    local.tee: 0x22 (valid) 0x7b3-0x7b3.7 (1)
0x7b0|            00                                 |    .           |                    x: 0 0x7b4-0x7b4.7 (1)
     |                                               |                |                  [2]{}: in 0x7b5-0x7b6.7 (2)
0x7b0|               41                              |     A          |                    i32.const: 0x41 (valid) 0x7b5-0x7b5.7 (1)
0x7b0|                  07                           |      .         |                    n: 7 0x7b6-0x7b6.7 (1)
     |                                               |                |                  [3]{}: in 0x7b7-0x7b9.7 (3)
0x7b0|                     3a                        |       :        |                    i32.store8: 0x3a (valid) 0x7b7-0x7b7.7 (1)
     |                                               |                |                    m{}: 0x7b8-0x7b9.7 (2)
0x7b0|                        00                     |        .       |                      a: 0 0x7b8-0x7b8.7 (1)
0x7b0|                           00                  |         .      |                      o: 0 0x7b9-0x7b9.7 (1)
     |                                               |                |                  [4]{}: in 0x7ba-0x7ba.7 (1)
0x7b0|                              0b               |          .     |                    end: 0xb (valid) 0x7ba-0x7ba.7 (1)
     |                                               |                |            [48]{}: code 0x7bb-0x7c6.7 (12)
0x7b0|                                 0b            |           .    |              size: 11 0x7bb-0x7bb.7 (1)
     |                                               |                |              code{}: 0x7bc-0x7c6.7 (11)
     |                                               |                |                t{}: 0x7bc-0x7bc.7 (1)
0x7b0|                                    00         |            .   |                  n: 0 0x7bc-0x7bc.7 (1)
     |                                               |                |                  x[0:0]: 0x7bd-NA (0)
     |                                               |                |                e[0:5]: 0x7bd-0x7c6.7 (10)
     |                                               |                |                  [0]{}: in 0x7bd-0x7be.7 (2)
0x7b0|                                       41      |             A  |                    i32.const: 0x41 (valid) 0x7bd-0x7bd.7 (1)
0x7b0|                                          02   |              . |                    n: 2 0x7be-0x7be.7 (1)
     |                                               |                |                  [1]{}: in 0x7bf-0x7c0.7 (2)
0x7b0|                                             41|               A|                    i32.const: 0x41 (valid) 0x7bf-0x7bf.7 (1)
0x7c0|01                                             |.               |                    n: 1 0x7c0-0x7c0.7 (1)
     |                                               |                |                  [2]{}: in 0x7c1-0x7c2.7 (2)
0x7c0|   22                                          | "              |                    local.tee: 0x22 (valid) 0x7c1-0x7c1.7 (1)
0x7c0|      00                                       |  .             |                    x: 0 0x7c2-0x7c2.7 (1)
     |                                               |                |                  [3]{}: in 0x7c3-0x7c5.7 (3)
0x7c0|         3b                                    |   ;            |                    i32.store16: 0x3b (valid) 0x7c3-0x7c3.7 (1)
     |                                               |                |                    m{}: 0x7c4-0x7c5.7 (2)
0x7c0|            01                                 |    .           |                      a: 1 0x7c4-0x7c4.7 (1)
0x7c0|               00                              |     .          |                      o: 0 0x7c5-0x7c5.7 (1)
     |                                               |                |                  [4]{}: in 0x7c6-0x7c6.7 (1)
0x7c0|                  0b                           |      .         |                    end: 0xb (valid) 0x7c6-0x7c6.7 (1)
     |                                               |                |            [49]{}: code 0x7c7-0x7d1.7 (11)
0x7c0|                     0a                        |       .        |              size: 10 0x7c7-0x7c7.7 (1)
     |                                               |                |              code{}: 0x7c8-0x7d1.7 (10)
     |                                               |                |                t{}: 0x7c8-0x7c8.7 (1)
0x7c0|                        00                     |        .       |                  n: 0 0x7c8-0x7c8.7 (1)
     |                                               |                |                  x[0:0]: 0x7c9-NA (0)
     |                                               |                |                e[0:4]: 0x7c9-0x7d1.7 (9)
     |                                               |                |                  [0]{}: in 0x7c9-0x7cd.7 (5)
0x7c0|                           43                  |         C      |                    f32.const: 0x43 (valid) 0x7c9-0x7c9.7 (1)
0x7c0|                              e2 f1 80 7f      |          ....  |                    z: NaN 0x7ca-0x7cd.7 (4)
     |                                               |                |                  [1]{}: in 0x7ce-0x7cf.7 (2)
0x7c0|                                          22   |              " |                    local.tee: 0x22 (valid) 0x7ce-0x7ce.7 (1)
0x7c0|                                             00|               .|                    x: 0 0x7cf-0x7cf.7 (1)
     |                                               |                |                  [2]{}: in 0x7d0-0x7d0.7 (1)
0x7d0|8c                                             |.               |                    f32.neg: 0x8c (valid) 0x7d0-0x7d0.7 (1)
     |                                               |                |                  [3]{}: in 0x7d1-0x7d1.7 (1)
0x7d0|   0b                                          | .              |                    end: 0xb (valid) 0x7d1-0x7d1.7 (1)
     |                                               |                |            [50]{}: code 0x7d2-0x7db.7 (10)
0x7d0|      09                                       |  .             |              size: 9 0x7d2-0x7d2.7 (1)
     |                                               |                |              code{}: 0x7d3-0x7db.7 (9)
     |                                               |                |                t{}: 0x7d3-0x7d3.7 (1)
0x7d0|         00                                    |   .            |                  n: 0 0x7d3-0x7d3.7 (1)
     |                                               |                |                  x[0:0]: 0x7d4-NA (0)
     |                                               |                |                e[0:5]: 0x7d4-0x7db.7 (8)
     |                                               |                |                  [0]{}: in 0x7d4-0x7d5.7 (2)
0x7d0|            41                                 |    A           |                    i32.const: 0x41 (valid) 0x7d4-0x7d4.7 (1)
0x7d0|               03                              |     .          |                    n: 3 0x7d5-0x7d5.7 (1)
     |                                               |                |                  [1]{}: in 0x7d6-0x7d7.7 (2)
0x7d0|                  22                           |      "         |                    local.tee: 0x22 (valid) 0x7d6-0x7d6.7 (1)
0x7d0|                     00                        |       .        |                    x: 0 0x7d7-0x7d7.7 (1)
     |                                               |                |                  [2]{}: in 0x7d8-0x7d9.7 (2)
0x7d0|                        41                     |        A       |                    i32.const: 0x41 (valid) 0x7d8-0x7d8.7 (1)
0x7d0|                           0a                  |         .      |                    n: 10 0x7d9-0x7d9.7 (1)
     |                                               |                |                  [3]{}: in 0x7da-0x7da.7 (1)
0x7d0|                              6a               |          j     |                    i32.add: 0x6a (valid) 0x7da-0x7da.7 (1)
     |                                               |                |                  [4]{}: in 0x7db-0x7db.7 (1)
0x7d0|                                 0b            |           .    |                    end: 0xb (valid) 0x7db-0x7db.7 (1)
     |                                               |                |            [51]{}: code 0x7dc-0x7e5.7 (10)
0x7d0|                                    09         |            .   |              size: 9 0x7dc-0x7dc.7 (1)
     |                                               |                |              code{}: 0x7dd-0x7e5.7 (9)
     |                                               |                |                t{}: 0x7dd-0x7dd.7 (1)
0x7d0|                                       00      |             .  |                  n: 0 0x7dd-0x7dd.7 (1)
     |                                               |                |                  x[0:0]: 0x7de-NA (0)
     |                                               |                |                e[0:5]: 0x7de-0x7e5.7 (8)
     |                                               |                |                  [0]{}: in 0x7de-0x7df.7 (2)
0x7d0|                                          41   |              A |                    i32.const: 0x41 (valid) 0x7de-0x7de.7 (1)
0x7d0|                                             0a|               .|                    n: 10 0x7df-0x7df.7 (1)
     |                                               |                |                  [1]{}: in 0x7e0-0x7e1.7 (2)
0x7e0|41                                             |A               |                    i32.const: 0x41 (valid) 0x7e0-0x7e0.7 (1)
0x7e0|   04                                          | .              |                    n: 4 0x7e1-0x7e1.7 (1)
     |                                               |                |                  [2]{}: in 0x7e2-0x7e3.7 (2)
0x7e0|      22                                       |  "             |                    local.tee: 0x22 (valid) 0x7e2-0x7e2.7 (1)
0x7e0|         00                                    |   .            |                    x: 0 0x7e3-0x7e3.7 (1)
     |                                               |                |                  [3]{}: in 0x7e4-0x7e4.7 (1)
0x7e0|            6b                                 |    k           |                    i32.sub: 0x6b (valid) 0x7e4-0x7e4.7 (1)
     |                                               |                |                  [4]{}: in 0x7e5-0x7e5.7 (1)
0x7e0|               0b                              |     .          |                    end: 0xb (valid) 0x7e5-0x7e5.7 (1)
     |                                               |                |            [52]{}: code 0x7e6-0x7ed.7 (8)
0x7e0|                  07                           |      .         |              size: 7 0x7e6-0x7e6.7 (1)
     |                                               |                |              code{}: 0x7e7-0x7ed.7 (7)
     |                                               |                |                t{}: 0x7e7-0x7e7.7 (1)
0x7e0|                     00                        |       .        |                  n: 0 0x7e7-0x7e7.7 (1)
     |                                               |                |                  x[0:0]: 0x7e8-NA (0)
     |                                               |                |                e[0:4]: 0x7e8-0x7ed.7 (6)
     |                                               |                |                  [0]{}: in 0x7e8-0x7e9.7 (2)
0x7e0|                        41                     |        A       |                    i32.const: 0x41 (valid) 0x7e8-0x7e8.7 (1)
0x7e0|                           00                  |         .      |                    n: 0 0x7e9-0x7e9.7 (1)
     |                                               |                |                  [1]{}: in 0x7ea-0x7eb.7 (2)
0x7e0|                              22               |          "     |                    local.tee: 0x22 (valid) 0x7ea-0x7ea.7 (1)
0x7e0|                                 00            |           .    |                    x: 0 0x7eb-0x7eb.7 (1)
     |                                               |                |                  [2]{}: in 0x7ec-0x7ec.7 (1)
0x7e0|                                    45         |            E   |                    i32.eqz: 0x45 (valid) 0x7ec-0x7ec.7 (1)
     |                                               |                |                  [3]{}: in 0x7ed-0x7ed.7 (1)
0x7e0|                                       0b      |             .  |                    end: 0xb (valid) 0x7ed-0x7ed.7 (1)
     |                                               |                |            [53]{}: code 0x7ee-0x7f7.7 (10)
0x7e0|                                          09   |              . |              size: 9 0x7ee-0x7ee.7 (1)
     |                                               |                |              code{}: 0x7ef-0x7f7.7 (9)
     |                                               |                |                t{}: 0x7ef-0x7ef.7 (1)
0x7e0|                                             00|               .|                  n: 0 0x7ef-0x7ef.7 (1)
     |                                               |                |                  x[0:0]: 0x7f0-NA (0)
     |                                               |                |                e[0:5]: 0x7f0-0x7f7.7 (8)
     |                                               |                |                  [0]{}: in 0x7f0-0x7f1.7 (2)
0x7f0|41                                             |A               |                    i32.const: 0x41 (valid) 0x7f0-0x7f0.7 (1)
0x7f0|   2b                                          | +              |                    n: 43 0x7f1-0x7f1.7 (1)
     |                                               |                |                  [1]{}: in 0x7f2-0x7f3.7 (2)
0x7f0|      22                                       |  "             |                    local.tee: 0x22 (valid) 0x7f2-0x7f2.7 (1)
0x7f0|         00                                    |   .            |                    x: 0 0x7f3-0x7f3.7 (1)
     |                                               |                |                  [2]{}: in 0x7f4-0x7f5.7 (2)
0x7f0|            41                                 |    A           |                    i32.const: 0x41 (valid) 0x7f4-0x7f4.7 (1)
0x7f0|               0a                              |     .          |                    n: 10 0x7f5-0x7f5.7 (1)
     |                                               |                |                  [3]{}: in 0x7f6-0x7f6.7 (1)
0x7f0|                  4c                           |      L         |                    i32.le_s: 0x4c (valid) 0x7f6-0x7f6.7 (1)
     |                                               |                |                  [4]{}: in 0x7f7-0x7f7.7 (1)
0x7f0|                     0b                        |       .        |                    end: 0xb (valid) 0x7f7-0x7f7.7 (1)
     |                                               |                |            [54]{}: code 0x7f8-0x801.7 (10)
0x7f0|                        09                     |        .       |              size: 9 0x7f8-0x7f8.7 (1)
     |                                               |                |              code{}: 0x7f9-0x801.7 (9)
     |                                               |                |                t{}: 0x7f9-0x7f9.7 (1)
0x7f0|                           00                  |         .      |                  n: 0 0x7f9-0x7f9.7 (1)
     |                                               |                |                  x[0:0]: 0x7fa-NA (0)
     |                                               |                |                e[0:5]: 0x7fa-0x801.7 (8)
     |                                               |                |                  [0]{}: in 0x7fa-0x7fb.7 (2)
0x7f0|                              41               |          A     |                    i32.const: 0x41 (valid) 0x7fa-0x7fa.7 (1)
0x7f0|                                 0a            |           .    |                    n: 10 0x7fb-0x7fb.7 (1)
     |                                               |                |                  [1]{}: in 0x7fc-0x7fd.7 (2)
0x7f0|                                    41         |            A   |                    i32.const: 0x41 (valid) 0x7fc-0x7fc.7 (1)
0x7f0|                                       2a      |             *  |                    n: 42 0x7fd-0x7fd.7 (1)
     |                                               |                |                  [2]{}: in 0x7fe-0x7ff.7 (2)
0x7f0|                                          22   |              " |                    local.tee: 0x22 (valid) 0x7fe-0x7fe.7 (1)
0x7f0|                                             00|               .|                    x: 0 0x7ff-0x7ff.7 (1)
     |                                               |                |                  [3]{}: in 0x800-0x800.7 (1)
0x800|47                                             |G               |                    i32.ne: 0x47 (valid) 0x800-0x800.7 (1)
     |                                               |                |                  [4]{}: in 0x801-0x801.7 (1)
0x800|   0b                                          | .              |                    end: 0xb (valid) 0x801-0x801.7 (1)
     |                                               |                |            [55]{}: code 0x802-0x809.7 (8)
0x800|      07                                       |  .             |              size: 7 0x802-0x802.7 (1)
     |                                               |                |              code{}: 0x803-0x809.7 (7)
     |                                               |                |                t{}: 0x803-0x803.7 (1)
0x800|         00                                    |   .            |                  n: 0 0x803-0x803.7 (1)
     |                                               |                |                  x[0:0]: 0x804-NA (0)
     |                                               |                |                e[0:4]: 0x804-0x809.7 (6)
     |                                               |                |                  [0]{}: in 0x804-0x805.7 (2)
0x800|            42                                 |    B           |                    i64.const: 0x42 (valid) 0x804-0x804.7 (1)
0x800|               29                              |     )          |                    n: 41 0x805-0x805.7 (1)
     |                                               |                |                  [1]{}: in 0x806-0x807.7 (2)
0x800|                  22                           |      "         |                    local.tee: 0x22 (valid) 0x806-0x806.7 (1)
0x800|                     00                        |       .        |                    x: 0 0x807-0x807.7 (1)
     |                                               |                |                  [2]{}: in 0x808-0x808.7 (1)
0x800|                        a7                     |        .       |                    i32.wrap_i64: 0xa7 (valid) 0x808-0x808.7 (1)
     |                                               |                |                  [3]{}: in 0x809-0x809.7 (1)
0x800|                           0b                  |         .      |                    end: 0xb (valid) 0x809-0x809.7 (1)
     |                                               |                |            [56]{}: code 0x80a-0x812.7 (9)
0x800|                              08               |          .     |              size: 8 0x80a-0x80a.7 (1)
     |                                               |                |              code{}: 0x80b-0x812.7 (8)
     |                                               |                |                t{}: 0x80b-0x80b.7 (1)
0x800|                                 00            |           .    |                  n: 0 0x80b-0x80b.7 (1)
     |                                               |                |                  x[0:0]: 0x80c-NA (0)
     |                                               |                |                e[0:4]: 0x80c-0x812.7 (7)
     |                                               |                |                  [0]{}: in 0x80c-0x80d.7 (2)
0x800|                                    41         |            A   |                    i32.const: 0x41 (valid) 0x80c-0x80c.7 (1)
0x800|                                       28      |             (  |                    n: 40 0x80d-0x80d.7 (1)
     |                                               |                |                  [1]{}: in 0x80e-0x80f.7 (2)
0x800|                                          22   |              " |                    local.tee: 0x22 (valid) 0x80e-0x80e.7 (1)
0x800|                                             00|               .|                    x: 0 0x80f-0x80f.7 (1)
     |                                               |                |                  [2]{}: in 0x810-0x811.7 (2)
0x810|40                                             |@               |                    memory.grow: 0x40 (valid) 0x810-0x810.7 (1)
0x810|   00                                          | .              |                    reserved: 0x0 (valid) 0x811-0x811.7 (1)
     |                                               |                |                  [3]{}: in 0x812-0x812.7 (1)
0x810|      0b|                                      |  .|            |                    end: 0xb (valid) 0x812-0x812.7 (1)
