$ fq -d wasm dv memory_redundancy-0.wasm
     |00 01 02 03 04 05 06 07 08 09 0a 0b 0c 0d 0e 0f|0123456789abcdef|.{}: memory_redundancy-0.wasm (wasm) 0x0-0x13f (319)
0x000|00 61 73 6d                                    |.asm            |  magic: raw bits (valid) 0x0-0x4 (4)
0x000|            01 00 00 00                        |    ....        |  version: 1 0x4-0x8 (4)
     |                                               |                |  sections[0:5]: 0x8-0x13f (311)
     |                                               |                |    [0]{}: section 0x8-0x1b (19)
0x000|                        01                     |        .       |      id: "type_section" (1) 0x8-0x9 (1)
0x000|                           11                  |         .      |      size: 17 (valid) 0x9-0xa (1)
     |                                               |                |      content{}: 0xa-0x1b (17)
     |                                               |                |        ft{}: 0xa-0x1b (17)
0x000|                              04               |          .     |          n: 4 (valid) 0xa-0xb (1)
     |                                               |                |          x[0:4]: 0xb-0x1b (16)
     |                                               |                |            [0]{}: ft 0xb-0xe (3)
0x000|                                 60            |           `    |              tag: 0x60 (valid) 0xb-0xc (1)
     |                                               |                |              rt1{}: 0xc-0xd (1)
0x000|                                    00         |            .   |                n: 0 (valid) 0xc-0xd (1)
     |                                               |                |                x[0:0]: 0xd-0xd (0)
     |                                               |                |              rt2{}: 0xd-0xe (1)
0x000|                                       00      |             .  |                n: 0 (valid) 0xd-0xe (1)
     |                                               |                |                x[0:0]: 0xe-0xe (0)
     |                                               |                |            [1]{}: ft 0xe-0x12 (4)
0x000|                                          60   |              ` |              tag: 0x60 (valid) 0xe-0xf (1)
     |                                               |                |              rt1{}: 0xf-0x10 (1)
0x000|                                             00|               .|                n: 0 (valid) 0xf-0x10 (1)
     |                                               |                |                x[0:0]: 0x10-0x10 (0)
     |                                               |                |              rt2{}: 0x10-0x12 (2)
0x010|01                                             |.               |                n: 1 (valid) 0x10-0x11 (1)
     |                                               |                |                x[0:1]: 0x11-0x12 (1)
0x010|   7f                                          | .              |                  [0]: "i32" (0x7f) t 0x11-0x12 (1)
     |                                               |                |            [2]{}: ft 0x12-0x16 (4)
0x010|      60                                       |  `             |              tag: 0x60 (valid) 0x12-0x13 (1)
     |                                               |                |              rt1{}: 0x13-0x14 (1)
0x010|         00                                    |   .            |                n: 0 (valid) 0x13-0x14 (1)
     |                                               |                |                x[0:0]: 0x14-0x14 (0)
     |                                               |                |              rt2{}: 0x14-0x16 (2)
0x010|            01                                 |    .           |                n: 1 (valid) 0x14-0x15 (1)
     |                                               |                |                x[0:1]: 0x15-0x16 (1)
0x010|               7d                              |     }          |                  [0]: "f32" (0x7d) t 0x15-0x16 (1)
     |                                               |                |            [3]{}: ft 0x16-0x1b (5)
0x010|                  60                           |      `         |              tag: 0x60 (valid) 0x16-0x17 (1)
     |                                               |                |              rt1{}: 0x17-0x19 (2)
0x010|                     01                        |       .        |                n: 1 (valid) 0x17-0x18 (1)
     |                                               |                |                x[0:1]: 0x18-0x19 (1)
0x010|                        7f                     |        .       |                  [0]: "i32" (0x7f) t 0x18-0x19 (1)
     |                                               |                |              rt2{}: 0x19-0x1b (2)
0x010|                           01                  |         .      |                n: 1 (valid) 0x19-0x1a (1)
     |                                               |                |                x[0:1]: 0x1a-0x1b (1)
0x010|                              7f               |          .     |                  [0]: "i32" (0x7f) t 0x1a-0x1b (1)
     |                                               |                |    [1]{}: section 0x1b-0x24 (9)
0x010|                                 03            |           .    |      id: "function_section" (3) 0x1b-0x1c (1)
0x010|                                    07         |            .   |      size: 7 (valid) 0x1c-0x1d (1)
     |                                               |                |      content{}: 0x1d-0x24 (7)
     |                                               |                |        x{}: 0x1d-0x24 (7)
0x010|                                       06      |             .  |          n: 6 (valid) 0x1d-0x1e (1)
     |                                               |                |          x[0:6]: 0x1e-0x24 (6)
0x010|                                          00   |              . |            [0]: 0 x (valid) 0x1e-0x1f (1)
0x010|                                             01|               .|            [1]: 1 x (valid) 0x1f-0x20 (1)
0x020|01                                             |.               |            [2]: 1 x (valid) 0x20-0x21 (1)
0x020|   02                                          | .              |            [3]: 2 x (valid) 0x21-0x22 (1)
0x020|      03                                       |  .             |            [4]: 3 x (valid) 0x22-0x23 (1)
0x020|         01                                    |   .            |            [5]: 1 x (valid) 0x23-0x24 (1)
     |                                               |                |    [2]{}: section 0x24-0x2a (6)
0x020|            05                                 |    .           |      id: "memory_section" (5) 0x24-0x25 (1)
0x020|               04                              |     .          |      size: 4 (valid) 0x25-0x26 (1)
     |                                               |                |      content{}: 0x26-0x2a (4)
     |                                               |                |        mem{}: 0x26-0x2a (4)
0x020|                  01                           |      .         |          n: 1 (valid) 0x26-0x27 (1)
     |                                               |                |          x[0:1]: 0x27-0x2a (3)
     |                                               |                |            [0]{}: mem 0x27-0x2a (3)
     |                                               |                |              lim{}: 0x27-0x2a (3)
0x020|                     01                        |       .        |                tag: 0x1 0x27-0x28 (1)
0x020|                        01                     |        .       |                n: 1 (valid) 0x28-0x29 (1)
0x020|                           01                  |         .      |                m: 1 (valid) 0x29-0x2a (1)
     |                                               |                |    [3]{}: section 0x2a-0x97 (109)
0x020|                              07               |          .     |      id: "export_section" (7) 0x2a-0x2b (1)
0x020|                                 6b            |           k    |      size: 107 (valid) 0x2b-0x2c (1)
     |                                               |                |      content{}: 0x2c-0x97 (107)
     |                                               |                |        ex{}: 0x2c-0x97 (107)
0x020|                                    06         |            .   |          n: 6 (valid) 0x2c-0x2d (1)
     |                                               |                |          x[0:6]: 0x2d-0x97 (106)
     |                                               |                |            [0]{}: ex 0x2d-0x3f (18)
     |                                               |                |              nm{}: 0x2d-0x3d (16)
0x020|                                       0f      |             .  |                n: 15 (valid) 0x2d-0x2e (1)
0x020|                                          7a 65|              ze|                b: "zero_everything" 0x2e-0x3d (15)
0x030|72 6f 5f 65 76 65 72 79 74 68 69 6e 67         |ro_everything   |
     |                                               |                |              d{}: 0x3d-0x3f (2)
0x030|                                       00      |             .  |                tag: "funcidx" (0x0) 0x3d-0x3e (1)
0x030|                                          00   |              . |                x: 0 (valid) 0x3e-0x3f (1)
     |                                               |                |            [1]{}: ex 0x3f-0x54 (21)
     |                                               |                |              nm{}: 0x3f-0x52 (19)
0x030|                                             12|               .|                n: 18 (valid) 0x3f-0x40 (1)
0x040|74 65 73 74 5f 73 74 6f 72 65 5f 74 6f 5f 6c 6f|test_store_to_lo|                b: "test_store_to_load" 0x40-0x52 (18)
0x050|61 64                                          |ad              |
     |                                               |                |              d{}: 0x52-0x54 (2)
0x050|      00                                       |  .             |                tag: "funcidx" (0x0) 0x52-0x53 (1)
0x050|         01                                    |   .            |                x: 1 (valid) 0x53-0x54 (1)
     |                                               |                |            [2]{}: ex 0x54-0x6a (22)
     |                                               |                |              nm{}: 0x54-0x68 (20)
0x050|            13                                 |    .           |                n: 19 (valid) 0x54-0x55 (1)
0x050|               74 65 73 74 5f 72 65 64 75 6e 64|     test_redund|                b: "test_redundant_load" 0x55-0x68 (19)
0x060|61 6e 74 5f 6c 6f 61 64                        |ant_load        |
     |                                               |                |              d{}: 0x68-0x6a (2)
0x060|                        00                     |        .       |                tag: "funcidx" (0x0) 0x68-0x69 (1)
0x060|                           02                  |         .      |                x: 2 (valid) 0x69-0x6a (1)
     |                                               |                |            [3]{}: ex 0x6a-0x7c (18)
     |                                               |                |              nm{}: 0x6a-0x7a (16)
0x060|                              0f               |          .     |                n: 15 (valid) 0x6a-0x6b (1)
0x060|                                 74 65 73 74 5f|           test_|                b: "test_dead_store" 0x6b-0x7a (15)
0x070|64 65 61 64 5f 73 74 6f 72 65                  |dead_store      |
     |                                               |                |              d{}: 0x7a-0x7c (2)
0x070|                              00               |          .     |                tag: "funcidx" (0x0) 0x7a-0x7b (1)
0x070|                                 03            |           .    |                x: 3 (valid) 0x7b-0x7c (1)
     |                                               |                |            [4]{}: ex 0x7c-0x85 (9)
     |                                               |                |              nm{}: 0x7c-0x83 (7)
0x070|                                    06         |            .   |                n: 6 (valid) 0x7c-0x7d (1)
0x070|                                       6d 61 6c|             mal|                b: "malloc" 0x7d-0x83 (6)
0x080|6c 6f 63                                       |loc             |
     |                                               |                |              d{}: 0x83-0x85 (2)
0x080|         00                                    |   .            |                tag: "funcidx" (0x0) 0x83-0x84 (1)
0x080|            04                                 |    .           |                x: 4 (valid) 0x84-0x85 (1)
     |                                               |                |            [5]{}: ex 0x85-0x97 (18)
     |                                               |                |              nm{}: 0x85-0x95 (16)
0x080|               0f                              |     .          |                n: 15 (valid) 0x85-0x86 (1)
0x080|                  6d 61 6c 6c 6f 63 5f 61 6c 69|      malloc_ali|                b: "malloc_aliasing" 0x86-0x95 (15)
0x090|61 73 69 6e 67                                 |asing           |
     |                                               |                |              d{}: 0x95-0x97 (2)
0x090|               00                              |     .          |                tag: "funcidx" (0x0) 0x95-0x96 (1)
0x090|                  05                           |      .         |                x: 5 (valid) 0x96-0x97 (1)
     |                                               |                |    [4]{}: section 0x97-0x13f (168)
0x090|                     0a                        |       .        |      id: "code_section" (10) 0x97-0x98 (1)
0x090|                        a5 01                  |        ..      |      size: 165 (valid) 0x98-0x9a (2)
     |                                               |                |      content{}: 0x9a-0x13f (165)
     |                                               |                |        code{}: 0x9a-0x13f (165)
0x090|                              06               |          .     |          n: 6 (valid) 0x9a-0x9b (1)
     |                                               |                |          x[0:6]: 0x9b-0x13f (164)
     |                                               |                |            [0]{}: code 0x9b-0xba (31)
0x090|                                 1e            |           .    |              size: 30 (valid) 0x9b-0x9c (1)
     |                                               |                |              code{}: 0x9c-0xba (30)
     |                                               |                |                t{}: 0x9c-0x9d (1)
0x090|                                    00         |            .   |                  n: 0 (valid) 0x9c-0x9d (1)
     |                                               |                |                  x[0:0]: 0x9d-0x9d (0)
     |                                               |                |                e[0:13]: 0x9d-0xba (29)
     |                                               |                |                  [0]{}: in 0x9d-0x9f (2)
0x090|                                       41      |             A  |                    opcode: "i32.const" (0x41) 0x9d-0x9e (1)
0x090|                                          00   |              . |                    n: 0 (valid) 0x9e-0x9f (1)
     |                                               |                |                  [1]{}: in 0x9f-0xa1 (2)
0x090|                                             41|               A|                    opcode: "i32.const" (0x41) 0x9f-0xa0 (1)
0x0a0|00                                             |.               |                    n: 0 (valid) 0xa0-0xa1 (1)
     |                                               |                |                  [2]{}: in 0xa1-0xa4 (3)
0x0a0|   36                                          | 6              |                    opcode: "i32.store" (0x36) 0xa1-0xa2 (1)
     |                                               |                |                    m{}: 0xa2-0xa4 (2)
0x0a0|      02                                       |  .             |                      a: 2 (valid) 0xa2-0xa3 (1)
0x0a0|         00                                    |   .            |                      o: 0 (valid) 0xa3-0xa4 (1)
     |                                               |                |                  [3]{}: in 0xa4-0xa6 (2)
0x0a0|            41                                 |    A           |                    opcode: "i32.const" (0x41) 0xa4-0xa5 (1)
0x0a0|               04                              |     .          |                    n: 4 (valid) 0xa5-0xa6 (1)
     |                                               |                |                  [4]{}: in 0xa6-0xa8 (2)
0x0a0|                  41                           |      A         |                    opcode: "i32.const" (0x41) 0xa6-0xa7 (1)
0x0a0|                     00                        |       .        |                    n: 0 (valid) 0xa7-0xa8 (1)
     |                                               |                |                  [5]{}: in 0xa8-0xab (3)
0x0a0|                        36                     |        6       |                    opcode: "i32.store" (0x36) 0xa8-0xa9 (1)
     |                                               |                |                    m{}: 0xa9-0xab (2)
0x0a0|                           02                  |         .      |                      a: 2 (valid) 0xa9-0xaa (1)
0x0a0|                              00               |          .     |                      o: 0 (valid) 0xaa-0xab (1)
     |                                               |                |                  [6]{}: in 0xab-0xad (2)
0x0a0|                                 41            |           A    |                    opcode: "i32.const" (0x41) 0xab-0xac (1)
0x0a0|                                    08         |            .   |                    n: 8 (valid) 0xac-0xad (1)
     |                                               |                |                  [7]{}: in 0xad-0xaf (2)
0x0a0|                                       41      |             A  |                    opcode: "i32.const" (0x41) 0xad-0xae (1)
0x0a0|                                          00   |              . |                    n: 0 (valid) 0xae-0xaf (1)
     |                                               |                |                  [8]{}: in 0xaf-0xb2 (3)
0x0a0|                                             36|               6|                    opcode: "i32.store" (0x36) 0xaf-0xb0 (1)
     |                                               |                |                    m{}: 0xb0-0xb2 (2)
0x0b0|02                                             |.               |                      a: 2 (valid) 0xb0-0xb1 (1)
0x0b0|   00                                          | .              |                      o: 0 (valid) 0xb1-0xb2 (1)
     |                                               |                |                  [9]{}: in 0xb2-0xb4 (2)
0x0b0|      41                                       |  A             |                    opcode: "i32.const" (0x41) 0xb2-0xb3 (1)
0x0b0|         0c                                    |   .            |                    n: 12 (valid) 0xb3-0xb4 (1)
     |                                               |                |                  [10]{}: in 0xb4-0xb6 (2)
0x0b0|            41                                 |    A           |                    opcode: "i32.const" (0x41) 0xb4-0xb5 (1)
0x0b0|               00                              |     .          |                    n: 0 (valid) 0xb5-0xb6 (1)
     |                                               |                |                  [11]{}: in 0xb6-0xb9 (3)
0x0b0|                  36                           |      6         |                    opcode: "i32.store" (0x36) 0xb6-0xb7 (1)
     |                                               |                |                    m{}: 0xb7-0xb9 (2)
0x0b0|                     02                        |       .        |                      a: 2 (valid) 0xb7-0xb8 (1)
0x0b0|                        00                     |        .       |                      o: 0 (valid) 0xb8-0xb9 (1)
     |                                               |                |                  [12]{}: in 0xb9-0xba (1)
0x0b0|                           0b                  |         .      |                    opcode: "end" (0xb) 0xb9-0xba (1)
     |                                               |                |            [1]{}: code 0xba-0xd3 (25)
0x0b0|                              18               |          .     |              size: 24 (valid) 0xba-0xbb (1)
     |                                               |                |              code{}: 0xbb-0xd3 (24)
     |                                               |                |                t{}: 0xbb-0xbc (1)
0x0b0|                                 00            |           .    |                  n: 0 (valid) 0xbb-0xbc (1)
     |                                               |                |                  x[0:0]: 0xbc-0xbc (0)
     |                                               |                |                e[0:9]: 0xbc-0xd3 (23)
     |                                               |                |                  [0]{}: in 0xbc-0xbe (2)
0x0b0|                                    41         |            A   |                    opcode: "i32.const" (0x41) 0xbc-0xbd (1)
0x0b0|                                       08      |             .  |                    n: 8 (valid) 0xbd-0xbe (1)
     |                                               |                |                  [1]{}: in 0xbe-0xc0 (2)
0x0b0|                                          41   |              A |                    opcode: "i32.const" (0x41) 0xbe-0xbf (1)
0x0b0|                                             00|               .|                    n: 0 (valid) 0xbf-0xc0 (1)
     |                                               |                |                  [2]{}: in 0xc0-0xc3 (3)
0x0c0|36                                             |6               |                    opcode: "i32.store" (0x36) 0xc0-0xc1 (1)
     |                                               |                |                    m{}: 0xc1-0xc3 (2)
0x0c0|   02                                          | .              |                      a: 2 (valid) 0xc1-0xc2 (1)
0x0c0|      00                                       |  .             |                      o: 0 (valid) 0xc2-0xc3 (1)
     |                                               |                |                  [3]{}: in 0xc3-0xc5 (2)
0x0c0|         41                                    |   A            |                    opcode: "i32.const" (0x41) 0xc3-0xc4 (1)
0x0c0|            05                                 |    .           |                    n: 5 (valid) 0xc4-0xc5 (1)
     |                                               |                |                  [4]{}: in 0xc5-0xca (5)
0x0c0|               43                              |     C          |                    opcode: "f32.const" (0x43) 0xc5-0xc6 (1)
0x0c0|                  00 00 00 80                  |      ....      |                    z: -0 0xc6-0xca (4)
     |                                               |                |                  [5]{}: in 0xca-0xcd (3)
0x0c0|                              38               |          8     |                    opcode: "f32.store" (0x38) 0xca-0xcb (1)
     |                                               |                |                    m{}: 0xcb-0xcd (2)
0x0c0|                                 02            |           .    |                      a: 2 (valid) 0xcb-0xcc (1)
0x0c0|                                    00         |            .   |                      o: 0 (valid) 0xcc-0xcd (1)
     |                                               |                |                  [6]{}: in 0xcd-0xcf (2)
0x0c0|                                       41      |             A  |                    opcode: "i32.const" (0x41) 0xcd-0xce (1)
0x0c0|                                          08   |              . |                    n: 8 (valid) 0xce-0xcf (1)
     |                                               |                |                  [7]{}: in 0xcf-0xd2 (3)
0x0c0|                                             28|               (|                    opcode: "i32.load" (0x28) 0xcf-0xd0 (1)
     |                                               |                |                    m{}: 0xd0-0xd2 (2)
0x0d0|02                                             |.               |                      a: 2 (valid) 0xd0-0xd1 (1)
0x0d0|   00                                          | .              |                      o: 0 (valid) 0xd1-0xd2 (1)
     |                                               |                |                  [8]{}: in 0xd2-0xd3 (1)
0x0d0|      0b                                       |  .             |                    opcode: "end" (0xb) 0xd2-0xd3 (1)
     |                                               |                |            [2]{}: code 0xd3-0xf6 (35)
0x0d0|         22                                    |   "            |              size: 34 (valid) 0xd3-0xd4 (1)
     |                                               |                |              code{}: 0xd4-0xf6 (34)
     |                                               |                |                t{}: 0xd4-0xd7 (3)
0x0d0|            01                                 |    .           |                  n: 1 (valid) 0xd4-0xd5 (1)
     |                                               |                |                  x[0:1]: 0xd5-0xd7 (2)
     |                                               |                |                    [0]{}: t 0xd5-0xd7 (2)
0x0d0|               02                              |     .          |                      n: 2 (valid) 0xd5-0xd6 (1)
0x0d0|                  7f                           |      .         |                      t: "i32" (0x7f) 0xd6-0xd7 (1)
     |                                               |                |                e[0:13]: 0xd7-0xf6 (31)
     |                                               |                |                  [0]{}: in 0xd7-0xd9 (2)
0x0d0|                     41                        |       A        |                    opcode: "i32.const" (0x41) 0xd7-0xd8 (1)
0x0d0|                        08                     |        .       |                    n: 8 (valid) 0xd8-0xd9 (1)
     |                                               |                |                  [1]{}: in 0xd9-0xdc (3)
0x0d0|                           28                  |         (      |                    opcode: "i32.load" (0x28) 0xd9-0xda (1)
     |                                               |                |                    m{}: 0xda-0xdc (2)
0x0d0|                              02               |          .     |                      a: 2 (valid) 0xda-0xdb (1)
0x0d0|                                 00            |           .    |                      o: 0 (valid) 0xdb-0xdc (1)
     |                                               |                |                  [2]{}: in 0xdc-0xde (2)
0x0d0|                                    21         |            !   |                    opcode: "local.set" (0x21) 0xdc-0xdd (1)
0x0d0|                                       00      |             .  |                    x: 0 (valid) 0xdd-0xde (1)
     |                                               |                |                  [3]{}: in 0xde-0xe0 (2)
0x0d0|                                          41   |              A |                    opcode: "i32.const" (0x41) 0xde-0xdf (1)
0x0d0|                                             05|               .|                    n: 5 (valid) 0xdf-0xe0 (1)
     |                                               |                |                  [4]{}: in 0xe0-0xe6 (6)
0x0e0|41                                             |A               |                    opcode: "i32.const" (0x41) 0xe0-0xe1 (1)
0x0e0|   80 80 80 80 78                              | ....x          |                    n: -2147483648 (valid) 0xe1-0xe6 (5)
     |                                               |                |                  [5]{}: in 0xe6-0xe9 (3)
0x0e0|                  36                           |      6         |                    opcode: "i32.store" (0x36) 0xe6-0xe7 (1)
     |                                               |                |                    m{}: 0xe7-0xe9 (2)
0x0e0|                     02                        |       .        |                      a: 2 (valid) 0xe7-0xe8 (1)
0x0e0|                        00                     |        .       |                      o: 0 (valid) 0xe8-0xe9 (1)
     |                                               |                |                  [6]{}: in 0xe9-0xeb (2)
0x0e0|                           41                  |         A      |                    opcode: "i32.const" (0x41) 0xe9-0xea (1)
0x0e0|                              08               |          .     |                    n: 8 (valid) 0xea-0xeb (1)
     |                                               |                |                  [7]{}: in 0xeb-0xee (3)
0x0e0|                                 28            |           (    |                    opcode: "i32.load" (0x28) 0xeb-0xec (1)
     |                                               |                |                    m{}: 0xec-0xee (2)
0x0e0|                                    02         |            .   |                      a: 2 (valid) 0xec-0xed (1)
0x0e0|                                       00      |             .  |                      o: 0 (valid) 0xed-0xee (1)
     |                                               |                |                  [8]{}: in 0xee-0xf0 (2)
0x0e0|                                          21   |              ! |                    opcode: "local.set" (0x21) 0xee-0xef (1)
0x0e0|                                             01|               .|                    x: 1 (valid) 0xef-0xf0 (1)
     |                                               |                |                  [9]{}: in 0xf0-0xf2 (2)
0x0f0|20                                             |                |                    opcode: "local.get" (0x20) 0xf0-0xf1 (1)
0x0f0|   00                                          | .              |                    x: 0 (valid) 0xf1-0xf2 (1)
     |                                               |                |                  [10]{}: in 0xf2-0xf4 (2)
0x0f0|      20                                       |                |                    opcode: "local.get" (0x20) 0xf2-0xf3 (1)
0x0f0|         01                                    |   .            |                    x: 1 (valid) 0xf3-0xf4 (1)
     |                                               |                |                  [11]{}: in 0xf4-0xf5 (1)
0x0f0|            6a                                 |    j           |                    opcode: "i32.add" (0x6a) 0xf4-0xf5 (1)
     |                                               |                |                  [12]{}: in 0xf5-0xf6 (1)
0x0f0|               0b                              |     .          |                    opcode: "end" (0xb) 0xf5-0xf6 (1)
     |                                               |                |            [3]{}: code 0xf6-0x116 (32)
0x0f0|                  1f                           |      .         |              size: 31 (valid) 0xf6-0xf7 (1)
     |                                               |                |              code{}: 0xf7-0x116 (31)
     |                                               |                |                t{}: 0xf7-0xfa (3)
0x0f0|                     01                        |       .        |                  n: 1 (valid) 0xf7-0xf8 (1)
     |                                               |                |                  x[0:1]: 0xf8-0xfa (2)
     |                                               |                |                    [0]{}: t 0xf8-0xfa (2)
0x0f0|                        01                     |        .       |                      n: 1 (valid) 0xf8-0xf9 (1)
0x0f0|                           7d                  |         }      |                      t: "f32" (0x7d) 0xf9-0xfa (1)
     |                                               |                |                e[0:11]: 0xfa-0x116 (28)
     |                                               |                |                  [0]{}: in 0xfa-0xfc (2)
0x0f0|                              41               |          A     |                    opcode: "i32.const" (0x41) 0xfa-0xfb (1)
0x0f0|                                 08            |           .    |                    n: 8 (valid) 0xfb-0xfc (1)
     |                                               |                |                  [1]{}: in 0xfc-0x102 (6)
0x0f0|                                    41         |            A   |                    opcode: "i32.const" (0x41) 0xfc-0xfd (1)
0x0f0|                                       a3 c6 8c|             ...|                    n: 589505315 (valid) 0xfd-0x102 (5)
0x100|99 02                                          |..              |
     |                                               |                |                  [2]{}: in 0x102-0x105 (3)
0x100|      36                                       |  6             |                    opcode: "i32.store" (0x36) 0x102-0x103 (1)
     |                                               |                |                    m{}: 0x103-0x105 (2)
0x100|         02                                    |   .            |                      a: 2 (valid) 0x103-0x104 (1)
0x100|            00                                 |    .           |                      o: 0 (valid) 0x104-0x105 (1)
     |                                               |                |                  [3]{}: in 0x105-0x107 (2)
0x100|               41                              |     A          |                    opcode: "i32.const" (0x41) 0x105-0x106 (1)
0x100|                  0b                           |      .         |                    n: 11 (valid) 0x106-0x107 (1)
     |                                               |                |                  [4]{}: in 0x107-0x10a (3)
0x100|                     2a                        |       *        |                    opcode: "f32.load" (0x2a) 0x107-0x108 (1)
     |                                               |                |                    m{}: 0x108-0x10a (2)
0x100|                        02                     |        .       |                      a: 2 (valid) 0x108-0x109 (1)
0x100|                           00                  |         .      |                      o: 0 (valid) 0x109-0x10a (1)
     |                                               |                |                  [5]{}: in 0x10a-0x10c (2)
0x100|                              21               |          !     |                    opcode: "local.set" (0x21) 0x10a-0x10b (1)
0x100|                                 00            |           .    |                    x: 0 (valid) 0x10b-0x10c (1)
     |                                               |                |                  [6]{}: in 0x10c-0x10e (2)
0x100|                                    41         |            A   |                    opcode: "i32.const" (0x41) 0x10c-0x10d (1)
0x100|                                       08      |             .  |                    n: 8 (valid) 0x10d-0x10e (1)
     |                                               |                |                  [7]{}: in 0x10e-0x110 (2)
0x100|                                          41   |              A |                    opcode: "i32.const" (0x41) 0x10e-0x10f (1)
0x100|                                             00|               .|                    n: 0 (valid) 0x10f-0x110 (1)
     |                                               |                |                  [8]{}: in 0x110-0x113 (3)
0x110|36                                             |6               |                    opcode: "i32.store" (0x36) 0x110-0x111 (1)
     |                                               |                |                    m{}: 0x111-0x113 (2)
0x110|   02                                          | .              |                      a: 2 (valid) 0x111-0x112 (1)
0x110|      00                                       |  .             |                      o: 0 (valid) 0x112-0x113 (1)
     |                                               |                |                  [9]{}: in 0x113-0x115 (2)
0x110|         20                                    |                |                    opcode: "local.get" (0x20) 0x113-0x114 (1)
0x110|            00                                 |    .           |                    x: 0 (valid) 0x114-0x115 (1)
     |                                               |                |                  [10]{}: in 0x115-0x116 (1)
0x110|               0b                              |     .          |                    opcode: "end" (0xb) 0x115-0x116 (1)
     |                                               |                |            [4]{}: code 0x116-0x11b (5)
0x110|                  04                           |      .         |              size: 4 (valid) 0x116-0x117 (1)
     |                                               |                |              code{}: 0x117-0x11b (4)
     |                                               |                |                t{}: 0x117-0x118 (1)
0x110|                     00                        |       .        |                  n: 0 (valid) 0x117-0x118 (1)
     |                                               |                |                  x[0:0]: 0x118-0x118 (0)
     |                                               |                |                e[0:2]: 0x118-0x11b (3)
     |                                               |                |                  [0]{}: in 0x118-0x11a (2)
0x110|                        41                     |        A       |                    opcode: "i32.const" (0x41) 0x118-0x119 (1)
0x110|                           10                  |         .      |                    n: 16 (valid) 0x119-0x11a (1)
     |                                               |                |                  [1]{}: in 0x11a-0x11b (1)
0x110|                              0b               |          .     |                    opcode: "end" (0xb) 0x11a-0x11b (1)
     |                                               |                |            [5]{}: code 0x11b-0x13f (36)
0x110|                                 23            |           #    |              size: 35 (valid) 0x11b-0x11c (1)
     |                                               |                |              code{}: 0x11c-0x13f (35)
     |                                               |                |                t{}: 0x11c-0x11f (3)
0x110|                                    01         |            .   |                  n: 1 (valid) 0x11c-0x11d (1)
     |                                               |                |                  x[0:1]: 0x11d-0x11f (2)
     |                                               |                |                    [0]{}: t 0x11d-0x11f (2)
0x110|                                       02      |             .  |                      n: 2 (valid) 0x11d-0x11e (1)
0x110|                                          7f   |              . |                      t: "i32" (0x7f) 0x11e-0x11f (1)
     |                                               |                |                e[0:15]: 0x11f-0x13f (32)
     |                                               |                |                  [0]{}: in 0x11f-0x121 (2)
0x110|                                             41|               A|                    opcode: "i32.const" (0x41) 0x11f-0x120 (1)
0x120|04                                             |.               |                    n: 4 (valid) 0x120-0x121 (1)
     |                                               |                |                  [1]{}: in 0x121-0x123 (2)
0x120|   10                                          | .              |                    opcode: "call" (0x10) 0x121-0x122 (1)
0x120|      04                                       |  .             |                    x: 4 (valid) 0x122-0x123 (1)
     |                                               |                |                  [2]{}: in 0x123-0x125 (2)
0x120|         21                                    |   !            |                    opcode: "local.set" (0x21) 0x123-0x124 (1)
0x120|            00                                 |    .           |                    x: 0 (valid) 0x124-0x125 (1)
     |                                               |                |                  [3]{}: in 0x125-0x127 (2)
0x120|               41                              |     A          |                    opcode: "i32.const" (0x41) 0x125-0x126 (1)
0x120|                  04                           |      .         |                    n: 4 (valid) 0x126-0x127 (1)
     |                                               |                |                  [4]{}: in 0x127-0x129 (2)
0x120|                     10                        |       .        |                    opcode: "call" (0x10) 0x127-0x128 (1)
0x120|                        04                     |        .       |                    x: 4 (valid) 0x128-0x129 (1)
     |                                               |                |                  [5]{}: in 0x129-0x12b (2)
0x120|                           21                  |         !      |                    opcode: "local.set" (0x21) 0x129-0x12a (1)
0x120|                              01               |          .     |                    x: 1 (valid) 0x12a-0x12b (1)
     |                                               |                |                  [6]{}: in 0x12b-0x12d (2)
0x120|                                 20            |                |                    opcode: "local.get" (0x20) 0x12b-0x12c (1)
0x120|                                    00         |            .   |                    x: 0 (valid) 0x12c-0x12d (1)
     |                                               |                |                  [7]{}: in 0x12d-0x12f (2)
0x120|                                       41      |             A  |                    opcode: "i32.const" (0x41) 0x12d-0x12e (1)
0x120|                                          2a   |              * |                    n: 42 (valid) 0x12e-0x12f (1)
     |                                               |                |                  [8]{}: in 0x12f-0x132 (3)
0x120|                                             36|               6|                    opcode: "i32.store" (0x36) 0x12f-0x130 (1)
     |                                               |                |                    m{}: 0x130-0x132 (2)
0x130|02                                             |.               |                      a: 2 (valid) 0x130-0x131 (1)
0x130|   00                                          | .              |                      o: 0 (valid) 0x131-0x132 (1)
     |                                               |                |                  [9]{}: in 0x132-0x134 (2)
0x130|      20                                       |                |                    opcode: "local.get" (0x20) 0x132-0x133 (1)
0x130|         01                                    |   .            |                    x: 1 (valid) 0x133-0x134 (1)
     |                                               |                |                  [10]{}: in 0x134-0x136 (2)
0x130|            41                                 |    A           |                    opcode: "i32.const" (0x41) 0x134-0x135 (1)
0x130|               2b                              |     +          |                    n: 43 (valid) 0x135-0x136 (1)
     |                                               |                |                  [11]{}: in 0x136-0x139 (3)
0x130|                  36                           |      6         |                    opcode: "i32.store" (0x36) 0x136-0x137 (1)
     |                                               |                |                    m{}: 0x137-0x139 (2)
0x130|                     02                        |       .        |                      a: 2 (valid) 0x137-0x138 (1)
0x130|                        00                     |        .       |                      o: 0 (valid) 0x138-0x139 (1)
     |                                               |                |                  [12]{}: in 0x139-0x13b (2)
0x130|                           20                  |                |                    opcode: "local.get" (0x20) 0x139-0x13a (1)
0x130|                              00               |          .     |                    x: 0 (valid) 0x13a-0x13b (1)
     |                                               |                |                  [13]{}: in 0x13b-0x13e (3)
0x130|                                 28            |           (    |                    opcode: "i32.load" (0x28) 0x13b-0x13c (1)
     |                                               |                |                    m{}: 0x13c-0x13e (2)
0x130|                                    02         |            .   |                      a: 2 (valid) 0x13c-0x13d (1)
0x130|                                       00      |             .  |                      o: 0 (valid) 0x13d-0x13e (1)
     |                                               |                |                  [14]{}: in 0x13e-0x13f (1)
0x130|                                          0b|  |              .||                    opcode: "end" (0xb) 0x13e-0x13f (1)
