$ fq -d wasm dv memory_size-3.wasm
    |00 01 02 03 04 05 06 07 08 09 0a 0b 0c 0d 0e 0f|0123456789abcdef|.{}: memory_size-3.wasm (wasm) 0x0-0x3e.7 (63)
0x00|00 61 73 6d                                    |.asm            |  magic: raw bits (valid) 0x0-0x3.7 (4)
0x00|            01 00 00 00                        |    ....        |  version: 1 0x4-0x7.7 (4)
    |                                               |                |  sections[0:5]: 0x8-0x3e.7 (55)
    |                                               |                |    [0]{}: section 0x8-0x12.7 (11)
0x00|                        01                     |        .       |      id: "type_section" (1) 0x8-0x8.7 (1)
0x00|                           09                  |         .      |      size: 9 (valid) 0x9-0x9.7 (1)
    |                                               |                |      content{}: 0xa-0x12.7 (9)
    |                                               |                |        ft{}: 0xa-0x12.7 (9)
0x00|                              02               |          .     |          n: 2 (valid) 0xa-0xa.7 (1)
    |                                               |                |          x[0:2]: 0xb-0x12.7 (8)
    |                                               |                |            [0]{}: ft 0xb-0xe.7 (4)
0x00|                                 60            |           `    |              tag: 0x60 (valid) 0xb-0xb.7 (1)
    |                                               |                |              rt1{}: 0xc-0xc.7 (1)
0x00|                                    00         |            .   |                n: 0 (valid) 0xc-0xc.7 (1)
    |                                               |                |                x[0:0]: 0xd-NA (0)
    |                                               |                |              rt2{}: 0xd-0xe.7 (2)
0x00|                                       01      |             .  |                n: 1 (valid) 0xd-0xd.7 (1)
    |                                               |                |                x[0:1]: 0xe-0xe.7 (1)
0x00|                                          7f   |              . |                  [0]: "i32" (0x7f) t 0xe-0xe.7 (1)
    |                                               |                |            [1]{}: ft 0xf-0x12.7 (4)
0x00|                                             60|               `|              tag: 0x60 (valid) 0xf-0xf.7 (1)
    |                                               |                |              rt1{}: 0x10-0x11.7 (2)
0x10|01                                             |.               |                n: 1 (valid) 0x10-0x10.7 (1)
    |                                               |                |                x[0:1]: 0x11-0x11.7 (1)
0x10|   7f                                          | .              |                  [0]: "i32" (0x7f) t 0x11-0x11.7 (1)
    |                                               |                |              rt2{}: 0x12-0x12.7 (1)
0x10|      00                                       |  .             |                n: 0 (valid) 0x12-0x12.7 (1)
    |                                               |                |                x[0:0]: 0x13-NA (0)
    |                                               |                |    [1]{}: section 0x13-0x17.7 (5)
0x10|         03                                    |   .            |      id: "function_section" (3) 0x13-0x13.7 (1)
0x10|            03                                 |    .           |      size: 3 (valid) 0x14-0x14.7 (1)
    |                                               |                |      content{}: 0x15-0x17.7 (3)
    |                                               |                |        x{}: 0x15-0x17.7 (3)
0x10|               02                              |     .          |          n: 2 (valid) 0x15-0x15.7 (1)
    |                                               |                |          x[0:2]: 0x16-0x17.7 (2)
0x10|                  00                           |      .         |            [0]: 0 x (valid) 0x16-0x16.7 (1)
0x10|                     01                        |       .        |            [1]: 1 x (valid) 0x17-0x17.7 (1)
    |                                               |                |    [2]{}: section 0x18-0x1d.7 (6)
0x10|                        05                     |        .       |      id: "memory_section" (5) 0x18-0x18.7 (1)
0x10|                           04                  |         .      |      size: 4 (valid) 0x19-0x19.7 (1)
    |                                               |                |      content{}: 0x1a-0x1d.7 (4)
    |                                               |                |        mem{}: 0x1a-0x1d.7 (4)
0x10|                              01               |          .     |          n: 1 (valid) 0x1a-0x1a.7 (1)
    |                                               |                |          x[0:1]: 0x1b-0x1d.7 (3)
    |                                               |                |            [0]{}: mem 0x1b-0x1d.7 (3)
    |                                               |                |              lim{}: 0x1b-0x1d.7 (3)
0x10|                                 01            |           .    |                tag: 0x1 0x1b-0x1b.7 (1)
0x10|                                    03         |            .   |                n: 3 (valid) 0x1c-0x1c.7 (1)
0x10|                                       08      |             .  |                m: 8 (valid) 0x1d-0x1d.7 (1)
    |                                               |                |    [3]{}: section 0x1e-0x2e.7 (17)
0x10|                                          07   |              . |      id: "export_section" (7) 0x1e-0x1e.7 (1)
0x10|                                             0f|               .|      size: 15 (valid) 0x1f-0x1f.7 (1)
    |                                               |                |      content{}: 0x20-0x2e.7 (15)
    |                                               |                |        ex{}: 0x20-0x2e.7 (15)
0x20|02                                             |.               |          n: 2 (valid) 0x20-0x20.7 (1)
    |                                               |                |          x[0:2]: 0x21-0x2e.7 (14)
    |                                               |                |            [0]{}: ex 0x21-0x27.7 (7)
    |                                               |                |              nm{}: 0x21-0x25.7 (5)
0x20|   04                                          | .              |                n: 4 (valid) 0x21-0x21.7 (1)
0x20|      73 69 7a 65                              |  size          |                b: "size" 0x22-0x25.7 (4)
    |                                               |                |              d{}: 0x26-0x27.7 (2)
0x20|                  00                           |      .         |                tag: "funcidx" (0x0) 0x26-0x26.7 (1)
0x20|                     00                        |       .        |                x: 0 (valid) 0x27-0x27.7 (1)
    |                                               |                |            [1]{}: ex 0x28-0x2e.7 (7)
    |                                               |                |              nm{}: 0x28-0x2c.7 (5)
0x20|                        04                     |        .       |                n: 4 (valid) 0x28-0x28.7 (1)
0x20|                           67 72 6f 77         |         grow   |                b: "grow" 0x29-0x2c.7 (4)
    |                                               |                |              d{}: 0x2d-0x2e.7 (2)
0x20|                                       00      |             .  |                tag: "funcidx" (0x0) 0x2d-0x2d.7 (1)
0x20|                                          01   |              . |                x: 1 (valid) 0x2e-0x2e.7 (1)
    |                                               |                |    [4]{}: section 0x2f-0x3e.7 (16)
0x20|                                             0a|               .|      id: "code_section" (10) 0x2f-0x2f.7 (1)
0x30|0e                                             |.               |      size: 14 (valid) 0x30-0x30.7 (1)
    |                                               |                |      content{}: 0x31-0x3e.7 (14)
    |                                               |                |        code{}: 0x31-0x3e.7 (14)
0x30|   02                                          | .              |          n: 2 (valid) 0x31-0x31.7 (1)
    |                                               |                |          x[0:2]: 0x32-0x3e.7 (13)
    |                                               |                |            [0]{}: code 0x32-0x36.7 (5)
0x30|      04                                       |  .             |              size: 4 (valid) 0x32-0x32.7 (1)
    |                                               |                |              code{}: 0x33-0x36.7 (4)
    |                                               |                |                t{}: 0x33-0x33.7 (1)
0x30|         00                                    |   .            |                  n: 0 (valid) 0x33-0x33.7 (1)
    |                                               |                |                  x[0:0]: 0x34-NA (0)
    |                                               |                |                e[0:2]: 0x34-0x36.7 (3)
    |                                               |                |                  [0]{}: in 0x34-0x35.7 (2)
0x30|            3f                                 |    ?           |                    opcode: "memory.size" (0x3f) 0x34-0x34.7 (1)
0x30|               00                              |     .          |                    reserved: 0x0 (valid) 0x35-0x35.7 (1)
    |                                               |                |                  [1]{}: in 0x36-0x36.7 (1)
0x30|                  0b                           |      .         |                    opcode: "end" (0xb) 0x36-0x36.7 (1)
    |                                               |                |            [1]{}: code 0x37-0x3e.7 (8)
0x30|                     07                        |       .        |              size: 7 (valid) 0x37-0x37.7 (1)
    |                                               |                |              code{}: 0x38-0x3e.7 (7)
    |                                               |                |                t{}: 0x38-0x38.7 (1)
0x30|                        00                     |        .       |                  n: 0 (valid) 0x38-0x38.7 (1)
    |                                               |                |                  x[0:0]: 0x39-NA (0)
    |                                               |                |                e[0:4]: 0x39-0x3e.7 (6)
    |                                               |                |                  [0]{}: in 0x39-0x3a.7 (2)
0x30|                           20                  |                |                    opcode: "local.get" (0x20) 0x39-0x39.7 (1)
0x30|                              00               |          .     |                    x: 0 (valid) 0x3a-0x3a.7 (1)
    |                                               |                |                  [1]{}: in 0x3b-0x3c.7 (2)
0x30|                                 40            |           @    |                    opcode: "memory.grow" (0x40) 0x3b-0x3b.7 (1)
0x30|                                    00         |            .   |                    reserved: 0x0 (valid) 0x3c-0x3c.7 (1)
    |                                               |                |                  [2]{}: in 0x3d-0x3d.7 (1)
0x30|                                       1a      |             .  |                    opcode: "drop" (0x1a) 0x3d-0x3d.7 (1)
    |                                               |                |                  [3]{}: in 0x3e-0x3e.7 (1)
0x30|                                          0b|  |              .||                    opcode: "end" (0xb) 0x3e-0x3e.7 (1)
