$ fq -d wasm dv memory_init-22.wasm
    |00 01 02 03 04 05 06 07 08 09 0a 0b 0c 0d 0e 0f|0123456789abcdef|.{}: memory_init-22.wasm (wasm) 0x0-0x87 (135)
0x00|00 61 73 6d                                    |.asm            |  magic: raw bits (valid) 0x0-0x4 (4)
0x00|            01 00 00 00                        |    ....        |  version: 1 0x4-0x8 (4)
    |                                               |                |  sections[0:7]: 0x8-0x87 (127)
    |                                               |                |    [0]{}: section 0x8-0x17 (15)
0x00|                        01                     |        .       |      id: "type_section" (1) 0x8-0x9 (1)
0x00|                           0d                  |         .      |      size: 13 (valid) 0x9-0xa (1)
    |                                               |                |      content{}: 0xa-0x17 (13)
    |                                               |                |        ft{}: 0xa-0x17 (13)
0x00|                              02               |          .     |          n: 2 (valid) 0xa-0xb (1)
    |                                               |                |          x[0:2]: 0xb-0x17 (12)
    |                                               |                |            [0]{}: ft 0xb-0x12 (7)
0x00|                                 60            |           `    |              tag: 0x60 (valid) 0xb-0xc (1)
    |                                               |                |              rt1{}: 0xc-0x10 (4)
0x00|                                    03         |            .   |                n: 3 (valid) 0xc-0xd (1)
    |                                               |                |                x[0:3]: 0xd-0x10 (3)
0x00|                                       7f      |             .  |                  [0]: "i32" (0x7f) t 0xd-0xe (1)
0x00|                                          7f   |              . |                  [1]: "i32" (0x7f) t 0xe-0xf (1)
0x00|                                             7f|               .|                  [2]: "i32" (0x7f) t 0xf-0x10 (1)
    |                                               |                |              rt2{}: 0x10-0x12 (2)
0x10|01                                             |.               |                n: 1 (valid) 0x10-0x11 (1)
    |                                               |                |                x[0:1]: 0x11-0x12 (1)
0x10|   7f                                          | .              |                  [0]: "i32" (0x7f) t 0x11-0x12 (1)
    |                                               |                |            [1]{}: ft 0x12-0x17 (5)
0x10|      60                                       |  `             |              tag: 0x60 (valid) 0x12-0x13 (1)
    |                                               |                |              rt1{}: 0x13-0x16 (3)
0x10|         02                                    |   .            |                n: 2 (valid) 0x13-0x14 (1)
    |                                               |                |                x[0:2]: 0x14-0x16 (2)
0x10|            7f                                 |    .           |                  [0]: "i32" (0x7f) t 0x14-0x15 (1)
0x10|               7f                              |     .          |                  [1]: "i32" (0x7f) t 0x15-0x16 (1)
    |                                               |                |              rt2{}: 0x16-0x17 (1)
0x10|                  00                           |      .         |                n: 0 (valid) 0x16-0x17 (1)
    |                                               |                |                x[0:0]: 0x17-0x17 (0)
    |                                               |                |    [1]{}: section 0x17-0x1c (5)
0x10|                     03                        |       .        |      id: "function_section" (3) 0x17-0x18 (1)
0x10|                        03                     |        .       |      size: 3 (valid) 0x18-0x19 (1)
    |                                               |                |      content{}: 0x19-0x1c (3)
    |                                               |                |        x{}: 0x19-0x1c (3)
0x10|                           02                  |         .      |          n: 2 (valid) 0x19-0x1a (1)
    |                                               |                |          x[0:2]: 0x1a-0x1c (2)
0x10|                              00               |          .     |            [0]: 0 x (valid) 0x1a-0x1b (1)
0x10|                                 01            |           .    |            [1]: 1 x (valid) 0x1b-0x1c (1)
    |                                               |                |    [2]{}: section 0x1c-0x21 (5)
0x10|                                    05         |            .   |      id: "memory_section" (5) 0x1c-0x1d (1)
0x10|                                       03      |             .  |      size: 3 (valid) 0x1d-0x1e (1)
    |                                               |                |      content{}: 0x1e-0x21 (3)
    |                                               |                |        mem{}: 0x1e-0x21 (3)
0x10|                                          01   |              . |          n: 1 (valid) 0x1e-0x1f (1)
    |                                               |                |          x[0:1]: 0x1f-0x21 (2)
    |                                               |                |            [0]{}: mem 0x1f-0x21 (2)
    |                                               |                |              lim{}: 0x1f-0x21 (2)
0x10|                                             00|               .|                tag: 0x0 0x1f-0x20 (1)
0x20|01                                             |.               |                n: 1 (valid) 0x20-0x21 (1)
    |                                               |                |    [3]{}: section 0x21-0x37 (22)
0x20|   07                                          | .              |      id: "export_section" (7) 0x21-0x22 (1)
0x20|      14                                       |  .             |      size: 20 (valid) 0x22-0x23 (1)
    |                                               |                |      content{}: 0x23-0x37 (20)
    |                                               |                |        ex{}: 0x23-0x37 (20)
0x20|         02                                    |   .            |          n: 2 (valid) 0x23-0x24 (1)
    |                                               |                |          x[0:2]: 0x24-0x37 (19)
    |                                               |                |            [0]{}: ex 0x24-0x31 (13)
    |                                               |                |              nm{}: 0x24-0x2f (11)
0x20|            0a                                 |    .           |                n: 10 (valid) 0x24-0x25 (1)
0x20|               63 68 65 63 6b 52 61 6e 67 65   |     checkRange |                b: "checkRange" 0x25-0x2f (10)
    |                                               |                |              d{}: 0x2f-0x31 (2)
0x20|                                             00|               .|                tag: "funcidx" (0x0) 0x2f-0x30 (1)
0x30|00                                             |.               |                x: 0 (valid) 0x30-0x31 (1)
    |                                               |                |            [1]{}: ex 0x31-0x37 (6)
    |                                               |                |              nm{}: 0x31-0x35 (4)
0x30|   03                                          | .              |                n: 3 (valid) 0x31-0x32 (1)
0x30|      72 75 6e                                 |  run           |                b: "run" 0x32-0x35 (3)
    |                                               |                |              d{}: 0x35-0x37 (2)
0x30|               00                              |     .          |                tag: "funcidx" (0x0) 0x35-0x36 (1)
0x30|                  01                           |      .         |                x: 1 (valid) 0x36-0x37 (1)
    |                                               |                |    [4]{}: section 0x37-0x3a (3)
0x30|                     0c                        |       .        |      id: "data_count_section" (12) 0x37-0x38 (1)
0x30|                        01                     |        .       |      size: 1 (valid) 0x38-0x39 (1)
    |                                               |                |      content{}: 0x39-0x3a (1)
0x30|                           01                  |         .      |        n: 1 (valid) 0x39-0x3a (1)
    |                                               |                |    [5]{}: section 0x3a-0x72 (56)
0x30|                              0a               |          .     |      id: "code_section" (10) 0x3a-0x3b (1)
0x30|                                 36            |           6    |      size: 54 (valid) 0x3b-0x3c (1)
    |                                               |                |      content{}: 0x3c-0x72 (54)
    |                                               |                |        code{}: 0x3c-0x72 (54)
0x30|                                    02         |            .   |          n: 2 (valid) 0x3c-0x3d (1)
    |                                               |                |          x[0:2]: 0x3d-0x72 (53)
    |                                               |                |            [0]{}: code 0x3d-0x65 (40)
0x30|                                       27      |             '  |              size: 39 (valid) 0x3d-0x3e (1)
    |                                               |                |              code{}: 0x3e-0x65 (39)
    |                                               |                |                t{}: 0x3e-0x3f (1)
0x30|                                          00   |              . |                  n: 0 (valid) 0x3e-0x3f (1)
    |                                               |                |                  x[0:0]: 0x3f-0x3f (0)
    |                                               |                |                e[0:4]: 0x3f-0x65 (38)
    |                                               |                |                  [0]{}: in 0x3f-0x61 (34)
0x30|                                             03|               .|                    opcode: "loop" (0x3) 0x3f-0x40 (1)
0x40|40                                             |@               |                    bt: "ε" (64) 0x40-0x41 (1)
    |                                               |                |                    instructions[0:9]: 0x41-0x60 (31)
    |                                               |                |                      [0]{}: instr 0x41-0x43 (2)
0x40|   20                                          |                |                        opcode: "local.get" (0x20) 0x41-0x42 (1)
0x40|      00                                       |  .             |                        x: 0 (valid) 0x42-0x43 (1)
    |                                               |                |                      [1]{}: instr 0x43-0x45 (2)
0x40|         20                                    |                |                        opcode: "local.get" (0x20) 0x43-0x44 (1)
0x40|            01                                 |    .           |                        x: 1 (valid) 0x44-0x45 (1)
    |                                               |                |                      [2]{}: instr 0x45-0x46 (1)
0x40|               46                              |     F          |                        opcode: "i32.eq" (0x46) 0x45-0x46 (1)
    |                                               |                |                      [3]{}: instr 0x46-0x4c (6)
0x40|                  04                           |      .         |                        opcode: "if" (0x4) 0x46-0x47 (1)
0x40|                     40                        |       @        |                        bt: "ε" (64) 0x47-0x48 (1)
    |                                               |                |                        in1[0:2]: 0x48-0x4b (3)
    |                                               |                |                          [0]{}: instr 0x48-0x4a (2)
0x40|                        41                     |        A       |                            opcode: "i32.const" (0x41) 0x48-0x49 (1)
0x40|                           7f                  |         .      |                            n: -1 (valid) 0x49-0x4a (1)
    |                                               |                |                          [1]{}: instr 0x4a-0x4b (1)
0x40|                              0f               |          .     |                            opcode: "return" (0xf) 0x4a-0x4b (1)
0x40|                                 0b            |           .    |                        end: 0xb (valid) 0x4b-0x4c (1)
    |                                               |                |                      [4]{}: instr 0x4c-0x4e (2)
0x40|                                    20         |                |                        opcode: "local.get" (0x20) 0x4c-0x4d (1)
0x40|                                       00      |             .  |                        x: 0 (valid) 0x4d-0x4e (1)
    |                                               |                |                      [5]{}: instr 0x4e-0x51 (3)
0x40|                                          2d   |              - |                        opcode: "i32.load8_u" (0x2d) 0x4e-0x4f (1)
    |                                               |                |                        m{}: 0x4f-0x51 (2)
0x40|                                             00|               .|                          a: 0 (valid) 0x4f-0x50 (1)
0x50|00                                             |.               |                          o: 0 (valid) 0x50-0x51 (1)
    |                                               |                |                      [6]{}: instr 0x51-0x53 (2)
0x50|   20                                          |                |                        opcode: "local.get" (0x20) 0x51-0x52 (1)
0x50|      02                                       |  .             |                        x: 2 (valid) 0x52-0x53 (1)
    |                                               |                |                      [7]{}: instr 0x53-0x54 (1)
0x50|         46                                    |   F            |                        opcode: "i32.eq" (0x46) 0x53-0x54 (1)
    |                                               |                |                      [8]{}: instr 0x54-0x60 (12)
0x50|            04                                 |    .           |                        opcode: "if" (0x4) 0x54-0x55 (1)
0x50|               40                              |     @          |                        bt: "ε" (64) 0x55-0x56 (1)
    |                                               |                |                        in1[0:5]: 0x56-0x5f (9)
    |                                               |                |                          [0]{}: instr 0x56-0x58 (2)
0x50|                  20                           |                |                            opcode: "local.get" (0x20) 0x56-0x57 (1)
0x50|                     00                        |       .        |                            x: 0 (valid) 0x57-0x58 (1)
    |                                               |                |                          [1]{}: instr 0x58-0x5a (2)
0x50|                        41                     |        A       |                            opcode: "i32.const" (0x41) 0x58-0x59 (1)
0x50|                           01                  |         .      |                            n: 1 (valid) 0x59-0x5a (1)
    |                                               |                |                          [2]{}: instr 0x5a-0x5b (1)
0x50|                              6a               |          j     |                            opcode: "i32.add" (0x6a) 0x5a-0x5b (1)
    |                                               |                |                          [3]{}: instr 0x5b-0x5d (2)
0x50|                                 21            |           !    |                            opcode: "local.set" (0x21) 0x5b-0x5c (1)
0x50|                                    00         |            .   |                            x: 0 (valid) 0x5c-0x5d (1)
    |                                               |                |                          [4]{}: instr 0x5d-0x5f (2)
0x50|                                       0c      |             .  |                            opcode: "br" (0xc) 0x5d-0x5e (1)
0x50|                                          01   |              . |                            l: 1 (valid) 0x5e-0x5f (1)
0x50|                                             0b|               .|                        end: 0xb (valid) 0x5f-0x60 (1)
0x60|0b                                             |.               |                    end: 0xb (valid) 0x60-0x61 (1)
    |                                               |                |                  [1]{}: in 0x61-0x63 (2)
0x60|   20                                          |                |                    opcode: "local.get" (0x20) 0x61-0x62 (1)
0x60|      00                                       |  .             |                    x: 0 (valid) 0x62-0x63 (1)
    |                                               |                |                  [2]{}: in 0x63-0x64 (1)
0x60|         0f                                    |   .            |                    opcode: "return" (0xf) 0x63-0x64 (1)
    |                                               |                |                  [3]{}: in 0x64-0x65 (1)
0x60|            0b                                 |    .           |                    opcode: "end" (0xb) 0x64-0x65 (1)
    |                                               |                |            [1]{}: code 0x65-0x72 (13)
0x60|               0c                              |     .          |              size: 12 (valid) 0x65-0x66 (1)
    |                                               |                |              code{}: 0x66-0x72 (12)
    |                                               |                |                t{}: 0x66-0x67 (1)
0x60|                  00                           |      .         |                  n: 0 (valid) 0x66-0x67 (1)
    |                                               |                |                  x[0:0]: 0x67-0x67 (0)
    |                                               |                |                e[0:5]: 0x67-0x72 (11)
    |                                               |                |                  [0]{}: in 0x67-0x69 (2)
0x60|                     20                        |                |                    opcode: "local.get" (0x20) 0x67-0x68 (1)
0x60|                        00                     |        .       |                    x: 0 (valid) 0x68-0x69 (1)
    |                                               |                |                  [1]{}: in 0x69-0x6b (2)
0x60|                           41                  |         A      |                    opcode: "i32.const" (0x41) 0x69-0x6a (1)
0x60|                              00               |          .     |                    n: 0 (valid) 0x6a-0x6b (1)
    |                                               |                |                  [2]{}: in 0x6b-0x6d (2)
0x60|                                 20            |                |                    opcode: "local.get" (0x20) 0x6b-0x6c (1)
0x60|                                    01         |            .   |                    x: 1 (valid) 0x6c-0x6d (1)
    |                                               |                |                  [3]{}: in 0x6d-0x71 (4)
0x60|                                       fc      |             .  |                    opcode: "prefix" (0xfc) 0x6d-0x6e (1)
0x60|                                          08   |              . |                    p_opcode: "memory.init" (8) 0x6e-0x6f (1)
0x60|                                             00|               .|                    x: 0 (valid) 0x6f-0x70 (1)
0x70|00                                             |.               |                    reserved: 0x0 (valid) 0x70-0x71 (1)
    |                                               |                |                  [4]{}: in 0x71-0x72 (1)
0x70|   0b                                          | .              |                    opcode: "end" (0xb) 0x71-0x72 (1)
    |                                               |                |    [6]{}: section 0x72-0x87 (21)
0x70|      0b                                       |  .             |      id: "data_section" (11) 0x72-0x73 (1)
0x70|         13                                    |   .            |      size: 19 (valid) 0x73-0x74 (1)
    |                                               |                |      content{}: 0x74-0x87 (19)
    |                                               |                |        seg{}: 0x74-0x87 (19)
0x70|            01                                 |    .           |          n: 1 (valid) 0x74-0x75 (1)
    |                                               |                |          x[0:1]: 0x75-0x87 (18)
    |                                               |                |            [0]{}: seg 0x75-0x87 (18)
0x70|               01                              |     .          |              tag: 1 (valid) 0x75-0x76 (1)
    |                                               |                |              b{}: 0x76-0x87 (17)
0x70|                  10                           |      .         |                n: 16 (valid) 0x76-0x77 (1)
0x70|                     42 42 42 42 42 42 42 42 42|       BBBBBBBBB|                x: raw bits 0x77-0x87 (16)
0x80|42 42 42 42 42 42 42|                          |BBBBBBB|        |
