$ fq -d wasm dv memory-9.wasm
     |00 01 02 03 04 05 06 07 08 09 0a 0b 0c 0d 0e 0f|0123456789abcdef|.{}: memory-9.wasm (wasm) 0x0-0x20c.7 (525)
0x000|00 61 73 6d                                    |.asm            |  magic: raw bits (valid) 0x0-0x3.7 (4)
0x000|            01 00 00 00                        |    ....        |  version: 1 0x4-0x7.7 (4)
     |                                               |                |  sections[0:6]: 0x8-0x20c.7 (517)
     |                                               |                |    [0]{}: section 0x8-0x1c.7 (21)
0x000|                        01                     |        .       |      id: "type section" (1) 0x8-0x8.7 (1)
0x000|                           13                  |         .      |      size: 19 0x9-0x9.7 (1)
     |                                               |                |      content{}: 0xa-0x1c.7 (19)
     |                                               |                |        ft{}: 0xa-0x1c.7 (19)
0x000|                              04               |          .     |          n: 4 0xa-0xa.7 (1)
     |                                               |                |          x[0:4]: 0xb-0x1c.7 (18)
     |                                               |                |            [0]{}: ft 0xb-0xe.7 (4)
0x000|                                 60            |           `    |              tag: 0x60 (valid) 0xb-0xb.7 (1)
     |                                               |                |              rt1{}: 0xc-0xc.7 (1)
0x000|                                    00         |            .   |                n: 0 0xc-0xc.7 (1)
     |                                               |                |                x[0:0]: 0xd-NA (0)
     |                                               |                |              rt2{}: 0xd-0xe.7 (2)
0x000|                                       01      |             .  |                n: 1 0xd-0xd.7 (1)
     |                                               |                |                x[0:1]: 0xe-0xe.7 (1)
0x000|                                          7f   |              . |                  [0]: "i32" (0x7f) t 0xe-0xe.7 (1)
     |                                               |                |            [1]{}: ft 0xf-0x12.7 (4)
0x000|                                             60|               `|              tag: 0x60 (valid) 0xf-0xf.7 (1)
     |                                               |                |              rt1{}: 0x10-0x10.7 (1)
0x010|00                                             |.               |                n: 0 0x10-0x10.7 (1)
     |                                               |                |                x[0:0]: 0x11-NA (0)
     |                                               |                |              rt2{}: 0x11-0x12.7 (2)
0x010|   01                                          | .              |                n: 1 0x11-0x11.7 (1)
     |                                               |                |                x[0:1]: 0x12-0x12.7 (1)
0x010|      7c                                       |  |             |                  [0]: "f64" (0x7c) t 0x12-0x12.7 (1)
     |                                               |                |            [2]{}: ft 0x13-0x17.7 (5)
0x010|         60                                    |   `            |              tag: 0x60 (valid) 0x13-0x13.7 (1)
     |                                               |                |              rt1{}: 0x14-0x15.7 (2)
0x010|            01                                 |    .           |                n: 1 0x14-0x14.7 (1)
     |                                               |                |                x[0:1]: 0x15-0x15.7 (1)
0x010|               7f                              |     .          |                  [0]: "i32" (0x7f) t 0x15-0x15.7 (1)
     |                                               |                |              rt2{}: 0x16-0x17.7 (2)
0x010|                  01                           |      .         |                n: 1 0x16-0x16.7 (1)
     |                                               |                |                x[0:1]: 0x17-0x17.7 (1)
0x010|                     7f                        |       .        |                  [0]: "i32" (0x7f) t 0x17-0x17.7 (1)
     |                                               |                |            [3]{}: ft 0x18-0x1c.7 (5)
0x010|                        60                     |        `       |              tag: 0x60 (valid) 0x18-0x18.7 (1)
     |                                               |                |              rt1{}: 0x19-0x1a.7 (2)
0x010|                           01                  |         .      |                n: 1 0x19-0x19.7 (1)
     |                                               |                |                x[0:1]: 0x1a-0x1a.7 (1)
0x010|                              7e               |          ~     |                  [0]: "i64" (0x7e) t 0x1a-0x1a.7 (1)
     |                                               |                |              rt2{}: 0x1b-0x1c.7 (2)
0x010|                                 01            |           .    |                n: 1 0x1b-0x1b.7 (1)
     |                                               |                |                x[0:1]: 0x1c-0x1c.7 (1)
0x010|                                    7e         |            ~   |                  [0]: "i64" (0x7e) t 0x1c-0x1c.7 (1)
     |                                               |                |    [1]{}: section 0x1d-0x2b.7 (15)
0x010|                                       03      |             .  |      id: "function section" (3) 0x1d-0x1d.7 (1)
0x010|                                          0d   |              . |      size: 13 0x1e-0x1e.7 (1)
     |                                               |                |      content{}: 0x1f-0x2b.7 (13)
     |                                               |                |        x{}: 0x1f-0x2b.7 (13)
0x010|                                             0c|               .|          n: 12 0x1f-0x1f.7 (1)
     |                                               |                |          x[0:12]: 0x20-0x2b.7 (12)
0x020|00                                             |.               |            [0]: 0 x 0x20-0x20.7 (1)
0x020|   01                                          | .              |            [1]: 1 x 0x21-0x21.7 (1)
0x020|      02                                       |  .             |            [2]: 2 x 0x22-0x22.7 (1)
0x020|         02                                    |   .            |            [3]: 2 x 0x23-0x23.7 (1)
0x020|            02                                 |    .           |            [4]: 2 x 0x24-0x24.7 (1)
0x020|               02                              |     .          |            [5]: 2 x 0x25-0x25.7 (1)
0x020|                  03                           |      .         |            [6]: 3 x 0x26-0x26.7 (1)
0x020|                     03                        |       .        |            [7]: 3 x 0x27-0x27.7 (1)
0x020|                        03                     |        .       |            [8]: 3 x 0x28-0x28.7 (1)
0x020|                           03                  |         .      |            [9]: 3 x 0x29-0x29.7 (1)
0x020|                              03               |          .     |            [10]: 3 x 0x2a-0x2a.7 (1)
0x020|                                 03            |           .    |            [11]: 3 x 0x2b-0x2b.7 (1)
     |                                               |                |    [2]{}: section 0x2c-0x30.7 (5)
0x020|                                    05         |            .   |      id: "memory section" (5) 0x2c-0x2c.7 (1)
0x020|                                       03      |             .  |      size: 3 0x2d-0x2d.7 (1)
     |                                               |                |      content{}: 0x2e-0x30.7 (3)
     |                                               |                |        mem{}: 0x2e-0x30.7 (3)
0x020|                                          01   |              . |          n: 1 0x2e-0x2e.7 (1)
     |                                               |                |          x[0:1]: 0x2f-0x30.7 (2)
     |                                               |                |            [0]{}: mem 0x2f-0x30.7 (2)
     |                                               |                |              lim{}: 0x2f-0x30.7 (2)
0x020|                                             00|               .|                tag: 0x0 0x2f-0x2f.7 (1)
0x030|01                                             |.               |                n: 1 0x30-0x30.7 (1)
     |                                               |                |    [3]{}: section 0x31-0xd4.7 (164)
0x030|   07                                          | .              |      id: "export section" (7) 0x31-0x31.7 (1)
0x030|      a1 01                                    |  ..            |      size: 161 0x32-0x33.7 (2)
     |                                               |                |      content{}: 0x34-0xd4.7 (161)
     |                                               |                |        ex{}: 0x34-0xd4.7 (161)
0x030|            0c                                 |    .           |          n: 12 0x34-0x34.7 (1)
     |                                               |                |          x[0:12]: 0x35-0xd4.7 (160)
     |                                               |                |            [0]{}: ex 0x35-0x3b.7 (7)
     |                                               |                |              nm{}: 0x35-0x39.7 (5)
0x030|               04                              |     .          |                n: 4 0x35-0x35.7 (1)
0x030|                  64 61 74 61                  |      data      |                b: "data" 0x36-0x39.7 (4)
     |                                               |                |              d{}: 0x3a-0x3b.7 (2)
0x030|                              00               |          .     |                tag: "funcidx" (0x0) 0x3a-0x3a.7 (1)
0x030|                                 00            |           .    |                x: 0 0x3b-0x3b.7 (1)
     |                                               |                |            [1]{}: ex 0x3c-0x42.7 (7)
     |                                               |                |              nm{}: 0x3c-0x40.7 (5)
0x030|                                    04         |            .   |                n: 4 0x3c-0x3c.7 (1)
0x030|                                       63 61 73|             cas|                b: "cast" 0x3d-0x40.7 (4)
0x040|74                                             |t               |
     |                                               |                |              d{}: 0x41-0x42.7 (2)
0x040|   00                                          | .              |                tag: "funcidx" (0x0) 0x41-0x41.7 (1)
0x040|      01                                       |  .             |                x: 1 0x42-0x42.7 (1)
     |                                               |                |            [2]{}: ex 0x43-0x50.7 (14)
     |                                               |                |              nm{}: 0x43-0x4e.7 (12)
0x040|         0b                                    |   .            |                n: 11 0x43-0x43.7 (1)
0x040|            69 33 32 5f 6c 6f 61 64 38 5f 73   |    i32_load8_s |                b: "i32_load8_s" 0x44-0x4e.7 (11)
     |                                               |                |              d{}: 0x4f-0x50.7 (2)
0x040|                                             00|               .|                tag: "funcidx" (0x0) 0x4f-0x4f.7 (1)
0x050|02                                             |.               |                x: 2 0x50-0x50.7 (1)
     |                                               |                |            [3]{}: ex 0x51-0x5e.7 (14)
     |                                               |                |              nm{}: 0x51-0x5c.7 (12)
0x050|   0b                                          | .              |                n: 11 0x51-0x51.7 (1)
0x050|      69 33 32 5f 6c 6f 61 64 38 5f 75         |  i32_load8_u   |                b: "i32_load8_u" 0x52-0x5c.7 (11)
     |                                               |                |              d{}: 0x5d-0x5e.7 (2)
0x050|                                       00      |             .  |                tag: "funcidx" (0x0) 0x5d-0x5d.7 (1)
0x050|                                          03   |              . |                x: 3 0x5e-0x5e.7 (1)
     |                                               |                |            [4]{}: ex 0x5f-0x6d.7 (15)
     |                                               |                |              nm{}: 0x5f-0x6b.7 (13)
0x050|                                             0c|               .|                n: 12 0x5f-0x5f.7 (1)
0x060|69 33 32 5f 6c 6f 61 64 31 36 5f 73            |i32_load16_s    |                b: "i32_load16_s" 0x60-0x6b.7 (12)
     |                                               |                |              d{}: 0x6c-0x6d.7 (2)
0x060|                                    00         |            .   |                tag: "funcidx" (0x0) 0x6c-0x6c.7 (1)
0x060|                                       04      |             .  |                x: 4 0x6d-0x6d.7 (1)
     |                                               |                |            [5]{}: ex 0x6e-0x7c.7 (15)
     |                                               |                |              nm{}: 0x6e-0x7a.7 (13)
0x060|                                          0c   |              . |                n: 12 0x6e-0x6e.7 (1)
0x060|                                             69|               i|                b: "i32_load16_u" 0x6f-0x7a.7 (12)
0x070|33 32 5f 6c 6f 61 64 31 36 5f 75               |32_load16_u     |
     |                                               |                |              d{}: 0x7b-0x7c.7 (2)
0x070|                                 00            |           .    |                tag: "funcidx" (0x0) 0x7b-0x7b.7 (1)
0x070|                                    05         |            .   |                x: 5 0x7c-0x7c.7 (1)
     |                                               |                |            [6]{}: ex 0x7d-0x8a.7 (14)
     |                                               |                |              nm{}: 0x7d-0x88.7 (12)
0x070|                                       0b      |             .  |                n: 11 0x7d-0x7d.7 (1)
0x070|                                          69 36|              i6|                b: "i64_load8_s" 0x7e-0x88.7 (11)
0x080|34 5f 6c 6f 61 64 38 5f 73                     |4_load8_s       |
     |                                               |                |              d{}: 0x89-0x8a.7 (2)
0x080|                           00                  |         .      |                tag: "funcidx" (0x0) 0x89-0x89.7 (1)
0x080|                              06               |          .     |                x: 6 0x8a-0x8a.7 (1)
     |                                               |                |            [7]{}: ex 0x8b-0x98.7 (14)
     |                                               |                |              nm{}: 0x8b-0x96.7 (12)
0x080|                                 0b            |           .    |                n: 11 0x8b-0x8b.7 (1)
0x080|                                    69 36 34 5f|            i64_|                b: "i64_load8_u" 0x8c-0x96.7 (11)
0x090|6c 6f 61 64 38 5f 75                           |load8_u         |
     |                                               |                |              d{}: 0x97-0x98.7 (2)
0x090|                     00                        |       .        |                tag: "funcidx" (0x0) 0x97-0x97.7 (1)
0x090|                        07                     |        .       |                x: 7 0x98-0x98.7 (1)
     |                                               |                |            [8]{}: ex 0x99-0xa7.7 (15)
     |                                               |                |              nm{}: 0x99-0xa5.7 (13)
0x090|                           0c                  |         .      |                n: 12 0x99-0x99.7 (1)
0x090|                              69 36 34 5f 6c 6f|          i64_lo|                b: "i64_load16_s" 0x9a-0xa5.7 (12)
0x0a0|61 64 31 36 5f 73                              |ad16_s          |
     |                                               |                |              d{}: 0xa6-0xa7.7 (2)
0x0a0|                  00                           |      .         |                tag: "funcidx" (0x0) 0xa6-0xa6.7 (1)
0x0a0|                     08                        |       .        |                x: 8 0xa7-0xa7.7 (1)
     |                                               |                |            [9]{}: ex 0xa8-0xb6.7 (15)
     |                                               |                |              nm{}: 0xa8-0xb4.7 (13)
0x0a0|                        0c                     |        .       |                n: 12 0xa8-0xa8.7 (1)
0x0a0|                           69 36 34 5f 6c 6f 61|         i64_loa|                b: "i64_load16_u" 0xa9-0xb4.7 (12)
0x0b0|64 31 36 5f 75                                 |d16_u           |
     |                                               |                |              d{}: 0xb5-0xb6.7 (2)
0x0b0|               00                              |     .          |                tag: "funcidx" (0x0) 0xb5-0xb5.7 (1)
0x0b0|                  09                           |      .         |                x: 9 0xb6-0xb6.7 (1)
     |                                               |                |            [10]{}: ex 0xb7-0xc5.7 (15)
     |                                               |                |              nm{}: 0xb7-0xc3.7 (13)
0x0b0|                     0c                        |       .        |                n: 12 0xb7-0xb7.7 (1)
0x0b0|                        69 36 34 5f 6c 6f 61 64|        i64_load|                b: "i64_load32_s" 0xb8-0xc3.7 (12)
0x0c0|33 32 5f 73                                    |32_s            |
     |                                               |                |              d{}: 0xc4-0xc5.7 (2)
0x0c0|            00                                 |    .           |                tag: "funcidx" (0x0) 0xc4-0xc4.7 (1)
0x0c0|               0a                              |     .          |                x: 10 0xc5-0xc5.7 (1)
     |                                               |                |            [11]{}: ex 0xc6-0xd4.7 (15)
     |                                               |                |              nm{}: 0xc6-0xd2.7 (13)
0x0c0|                  0c                           |      .         |                n: 12 0xc6-0xc6.7 (1)
0x0c0|                     69 36 34 5f 6c 6f 61 64 33|       i64_load3|                b: "i64_load32_u" 0xc7-0xd2.7 (12)
0x0d0|32 5f 75                                       |2_u             |
     |                                               |                |              d{}: 0xd3-0xd4.7 (2)
0x0d0|         00                                    |   .            |                tag: "funcidx" (0x0) 0xd3-0xd3.7 (1)
0x0d0|            0b                                 |    .           |                x: 11 0xd4-0xd4.7 (1)
     |                                               |                |    [4]{}: section 0xd5-0x1f6.7 (290)
0x0d0|               0a                              |     .          |      id: "code section" (10) 0xd5-0xd5.7 (1)
0x0d0|                  9f 02                        |      ..        |      size: 287 0xd6-0xd7.7 (2)
     |                                               |                |      content{}: 0xd8-0x1f6.7 (287)
     |                                               |                |        code{}: 0xd8-0x1f6.7 (287)
0x0d0|                        0c                     |        .       |          n: 12 0xd8-0xd8.7 (1)
     |                                               |                |          x[0:12]: 0xd9-0x1f6.7 (286)
     |                                               |                |            [0]{}: code 0xd9-0x127.7 (79)
0x0d0|                           4e                  |         N      |              size: 78 0xd9-0xd9.7 (1)
     |                                               |                |              code{}: 0xda-0x127.7 (78)
     |                                               |                |                t{}: 0xda-0xda.7 (1)
0x0d0|                              00               |          .     |                  n: 0 0xda-0xda.7 (1)
     |                                               |                |                  x[0:0]: 0xdb-NA (0)
     |                                               |                |                e[0:40]: 0xdb-0x127.7 (77)
     |                                               |                |                  [0]{}: in 0xdb-0xdc.7 (2)
0x0d0|                                 41            |           A    |                    i32.const: 0x41 (valid) 0xdb-0xdb.7 (1)
0x0d0|                                    00         |            .   |                    n: 0 0xdc-0xdc.7 (1)
     |                                               |                |                  [1]{}: in 0xdd-0xdf.7 (3)
0x0d0|                                       2d      |             -  |                    i32.load8_u: 0x2d (valid) 0xdd-0xdd.7 (1)
     |                                               |                |                    m{}: 0xde-0xdf.7 (2)
0x0d0|                                          00   |              . |                      a: 0 0xde-0xde.7 (1)
0x0d0|                                             00|               .|                      o: 0 0xdf-0xdf.7 (1)
     |                                               |                |                  [2]{}: in 0xe0-0xe2.7 (3)
0x0e0|41                                             |A               |                    i32.const: 0x41 (valid) 0xe0-0xe0.7 (1)
0x0e0|   c1 00                                       | ..             |                    n: 65 0xe1-0xe2.7 (2)
     |                                               |                |                  [3]{}: in 0xe3-0xe3.7 (1)
0x0e0|         46                                    |   F            |                    i32.eq: 0x46 (valid) 0xe3-0xe3.7 (1)
     |                                               |                |                  [4]{}: in 0xe4-0xe5.7 (2)
0x0e0|            41                                 |    A           |                    i32.const: 0x41 (valid) 0xe4-0xe4.7 (1)
0x0e0|               03                              |     .          |                    n: 3 0xe5-0xe5.7 (1)
     |                                               |                |                  [5]{}: in 0xe6-0xe8.7 (3)
0x0e0|                  2d                           |      -         |                    i32.load8_u: 0x2d (valid) 0xe6-0xe6.7 (1)
     |                                               |                |                    m{}: 0xe7-0xe8.7 (2)
0x0e0|                     00                        |       .        |                      a: 0 0xe7-0xe7.7 (1)
0x0e0|                        00                     |        .       |                      o: 0 0xe8-0xe8.7 (1)
     |                                               |                |                  [6]{}: in 0xe9-0xeb.7 (3)
0x0e0|                           41                  |         A      |                    i32.const: 0x41 (valid) 0xe9-0xe9.7 (1)
0x0e0|                              a7 01            |          ..    |                    n: 167 0xea-0xeb.7 (2)
     |                                               |                |                  [7]{}: in 0xec-0xec.7 (1)
0x0e0|                                    46         |            F   |                    i32.eq: 0x46 (valid) 0xec-0xec.7 (1)
     |                                               |                |                  [8]{}: in 0xed-0xed.7 (1)
0x0e0|                                       71      |             q  |                    i32.and: 0x71 (valid) 0xed-0xed.7 (1)
     |                                               |                |                  [9]{}: in 0xee-0xef.7 (2)
0x0e0|                                          41   |              A |                    i32.const: 0x41 (valid) 0xee-0xee.7 (1)
0x0e0|                                             06|               .|                    n: 6 0xef-0xef.7 (1)
     |                                               |                |                  [10]{}: in 0xf0-0xf2.7 (3)
0x0f0|2d                                             |-               |                    i32.load8_u: 0x2d (valid) 0xf0-0xf0.7 (1)
     |                                               |                |                    m{}: 0xf1-0xf2.7 (2)
0x0f0|   00                                          | .              |                      a: 0 0xf1-0xf1.7 (1)
0x0f0|      00                                       |  .             |                      o: 0 0xf2-0xf2.7 (1)
     |                                               |                |                  [11]{}: in 0xf3-0xf4.7 (2)
0x0f0|         41                                    |   A            |                    i32.const: 0x41 (valid) 0xf3-0xf3.7 (1)
0x0f0|            00                                 |    .           |                    n: 0 0xf4-0xf4.7 (1)
     |                                               |                |                  [12]{}: in 0xf5-0xf5.7 (1)
0x0f0|               46                              |     F          |                    i32.eq: 0x46 (valid) 0xf5-0xf5.7 (1)
     |                                               |                |                  [13]{}: in 0xf6-0xf7.7 (2)
0x0f0|                  41                           |      A         |                    i32.const: 0x41 (valid) 0xf6-0xf6.7 (1)
0x0f0|                     13                        |       .        |                    n: 19 0xf7-0xf7.7 (1)
     |                                               |                |                  [14]{}: in 0xf8-0xfa.7 (3)
0x0f0|                        2d                     |        -       |                    i32.load8_u: 0x2d (valid) 0xf8-0xf8.7 (1)
     |                                               |                |                    m{}: 0xf9-0xfa.7 (2)
0x0f0|                           00                  |         .      |                      a: 0 0xf9-0xf9.7 (1)
0x0f0|                              00               |          .     |                      o: 0 0xfa-0xfa.7 (1)
     |                                               |                |                  [15]{}: in 0xfb-0xfc.7 (2)
0x0f0|                                 41            |           A    |                    i32.const: 0x41 (valid) 0xfb-0xfb.7 (1)
0x0f0|                                    00         |            .   |                    n: 0 0xfc-0xfc.7 (1)
     |                                               |                |                  [16]{}: in 0xfd-0xfd.7 (1)
0x0f0|                                       46      |             F  |                    i32.eq: 0x46 (valid) 0xfd-0xfd.7 (1)
     |                                               |                |                  [17]{}: in 0xfe-0xfe.7 (1)
0x0f0|                                          71   |              q |                    i32.and: 0x71 (valid) 0xfe-0xfe.7 (1)
     |                                               |                |                  [18]{}: in 0xff-0xff.7 (1)
0x0f0|                                             71|               q|                    i32.and: 0x71 (valid) 0xff-0xff.7 (1)
     |                                               |                |                  [19]{}: in 0x100-0x101.7 (2)
0x100|41                                             |A               |                    i32.const: 0x41 (valid) 0x100-0x100.7 (1)
0x100|   14                                          | .              |                    n: 20 0x101-0x101.7 (1)
     |                                               |                |                  [20]{}: in 0x102-0x104.7 (3)
0x100|      2d                                       |  -             |                    i32.load8_u: 0x2d (valid) 0x102-0x102.7 (1)
     |                                               |                |                    m{}: 0x103-0x104.7 (2)
0x100|         00                                    |   .            |                      a: 0 0x103-0x103.7 (1)
0x100|            00                                 |    .           |                      o: 0 0x104-0x104.7 (1)
     |                                               |                |                  [21]{}: in 0x105-0x107.7 (3)
0x100|               41                              |     A          |                    i32.const: 0x41 (valid) 0x105-0x105.7 (1)
0x100|                  d7 00                        |      ..        |                    n: 87 0x106-0x107.7 (2)
     |                                               |                |                  [22]{}: in 0x108-0x108.7 (1)
0x100|                        46                     |        F       |                    i32.eq: 0x46 (valid) 0x108-0x108.7 (1)
     |                                               |                |                  [23]{}: in 0x109-0x10a.7 (2)
0x100|                           41                  |         A      |                    i32.const: 0x41 (valid) 0x109-0x109.7 (1)
0x100|                              17               |          .     |                    n: 23 0x10a-0x10a.7 (1)
     |                                               |                |                  [24]{}: in 0x10b-0x10d.7 (3)
0x100|                                 2d            |           -    |                    i32.load8_u: 0x2d (valid) 0x10b-0x10b.7 (1)
     |                                               |                |                    m{}: 0x10c-0x10d.7 (2)
0x100|                                    00         |            .   |                      a: 0 0x10c-0x10c.7 (1)
0x100|                                       00      |             .  |                      o: 0 0x10d-0x10d.7 (1)
     |                                               |                |                  [25]{}: in 0x10e-0x110.7 (3)
0x100|                                          41   |              A |                    i32.const: 0x41 (valid) 0x10e-0x10e.7 (1)
0x100|                                             cd|               .|                    n: 77 0x10f-0x110.7 (2)
0x110|00                                             |.               |
     |                                               |                |                  [26]{}: in 0x111-0x111.7 (1)
0x110|   46                                          | F              |                    i32.eq: 0x46 (valid) 0x111-0x111.7 (1)
     |                                               |                |                  [27]{}: in 0x112-0x112.7 (1)
0x110|      71                                       |  q             |                    i32.and: 0x71 (valid) 0x112-0x112.7 (1)
     |                                               |                |                  [28]{}: in 0x113-0x114.7 (2)
0x110|         41                                    |   A            |                    i32.const: 0x41 (valid) 0x113-0x113.7 (1)
0x110|            18                                 |    .           |                    n: 24 0x114-0x114.7 (1)
     |                                               |                |                  [29]{}: in 0x115-0x117.7 (3)
0x110|               2d                              |     -          |                    i32.load8_u: 0x2d (valid) 0x115-0x115.7 (1)
     |                                               |                |                    m{}: 0x116-0x117.7 (2)
0x110|                  00                           |      .         |                      a: 0 0x116-0x116.7 (1)
0x110|                     00                        |       .        |                      o: 0 0x117-0x117.7 (1)
     |                                               |                |                  [30]{}: in 0x118-0x119.7 (2)
0x110|                        41                     |        A       |                    i32.const: 0x41 (valid) 0x118-0x118.7 (1)
0x110|                           00                  |         .      |                    n: 0 0x119-0x119.7 (1)
     |                                               |                |                  [31]{}: in 0x11a-0x11a.7 (1)
0x110|                              46               |          F     |                    i32.eq: 0x46 (valid) 0x11a-0x11a.7 (1)
     |                                               |                |                  [32]{}: in 0x11b-0x11d.7 (3)
0x110|                                 41            |           A    |                    i32.const: 0x41 (valid) 0x11b-0x11b.7 (1)
0x110|                                    ff 07      |            ..  |                    n: 1023 0x11c-0x11d.7 (2)
     |                                               |                |                  [33]{}: in 0x11e-0x120.7 (3)
0x110|                                          2d   |              - |                    i32.load8_u: 0x2d (valid) 0x11e-0x11e.7 (1)
     |                                               |                |                    m{}: 0x11f-0x120.7 (2)
0x110|                                             00|               .|                      a: 0 0x11f-0x11f.7 (1)
0x120|00                                             |.               |                      o: 0 0x120-0x120.7 (1)
     |                                               |                |                  [34]{}: in 0x121-0x122.7 (2)
0x120|   41                                          | A              |                    i32.const: 0x41 (valid) 0x121-0x121.7 (1)
0x120|      00                                       |  .             |                    n: 0 0x122-0x122.7 (1)
     |                                               |                |                  [35]{}: in 0x123-0x123.7 (1)
0x120|         46                                    |   F            |                    i32.eq: 0x46 (valid) 0x123-0x123.7 (1)
     |                                               |                |                  [36]{}: in 0x124-0x124.7 (1)
0x120|            71                                 |    q           |                    i32.and: 0x71 (valid) 0x124-0x124.7 (1)
     |                                               |                |                  [37]{}: in 0x125-0x125.7 (1)
0x120|               71                              |     q          |                    i32.and: 0x71 (valid) 0x125-0x125.7 (1)
     |                                               |                |                  [38]{}: in 0x126-0x126.7 (1)
0x120|                  71                           |      q         |                    i32.and: 0x71 (valid) 0x126-0x126.7 (1)
     |                                               |                |                  [39]{}: in 0x127-0x127.7 (1)
0x120|                     0b                        |       .        |                    end: 0xb (valid) 0x127-0x127.7 (1)
     |                                               |                |            [1]{}: code 0x128-0x160.7 (57)
0x120|                        38                     |        8       |              size: 56 0x128-0x128.7 (1)
     |                                               |                |              code{}: 0x129-0x160.7 (56)
     |                                               |                |                t{}: 0x129-0x129.7 (1)
0x120|                           00                  |         .      |                  n: 0 0x129-0x129.7 (1)
     |                                               |                |                  x[0:0]: 0x12a-NA (0)
     |                                               |                |                e[0:18]: 0x12a-0x160.7 (55)
     |                                               |                |                  [0]{}: in 0x12a-0x12b.7 (2)
0x120|                              41               |          A     |                    i32.const: 0x41 (valid) 0x12a-0x12a.7 (1)
0x120|                                 08            |           .    |                    n: 8 0x12b-0x12b.7 (1)
     |                                               |                |                  [1]{}: in 0x12c-0x12f.7 (4)
0x120|                                    42         |            B   |                    i64.const: 0x42 (valid) 0x12c-0x12c.7 (1)
0x120|                                       c7 9f 7f|             ...|                    n: -12345 0x12d-0x12f.7 (3)
     |                                               |                |                  [2]{}: in 0x130-0x132.7 (3)
0x130|37                                             |7               |                    i64.store: 0x37 (valid) 0x130-0x130.7 (1)
     |                                               |                |                    m{}: 0x131-0x132.7 (2)
0x130|   03                                          | .              |                      a: 3 0x131-0x131.7 (1)
0x130|      00                                       |  .             |                      o: 0 0x132-0x132.7 (1)
     |                                               |                |                  [3]{}: in 0x133-0x134.7 (2)
0x130|         41                                    |   A            |                    i32.const: 0x41 (valid) 0x133-0x133.7 (1)
0x130|            08                                 |    .           |                    n: 8 0x134-0x134.7 (1)
     |                                               |                |                  [4]{}: in 0x135-0x137.7 (3)
0x130|               2b                              |     +          |                    f64.load: 0x2b (valid) 0x135-0x135.7 (1)
     |                                               |                |                    m{}: 0x136-0x137.7 (2)
0x130|                  03                           |      .         |                      a: 3 0x136-0x136.7 (1)
0x130|                     00                        |       .        |                      o: 0 0x137-0x137.7 (1)
     |                                               |                |                  [5]{}: in 0x138-0x13b.7 (4)
0x130|                        42                     |        B       |                    i64.const: 0x42 (valid) 0x138-0x138.7 (1)
0x130|                           c7 9f 7f            |         ...    |                    n: -12345 0x139-0x13b.7 (3)
     |                                               |                |                  [6]{}: in 0x13c-0x13c.7 (1)
0x130|                                    bf         |            .   |                    f64.reinterpret_i64: 0xbf (valid) 0x13c-0x13c.7 (1)
     |                                               |                |                  [7]{}: in 0x13d-0x13d.7 (1)
0x130|                                       61      |             a  |                    f64.eq: 0x61 (valid) 0x13d-0x13d.7 (1)
     |                                               |                |                  [8]{}: in 0x13e-0x14a.7 (13)
0x130|                                          04   |              . |                    if: 0x4 (valid) 0x13e-0x13e.7 (1)
0x130|                                             40|               @|                    bt: "ε" (64) 0x13f-0x13f.7 (1)
     |                                               |                |                    in1[0:2]: 0x140-0x149.7 (10)
     |                                               |                |                      [0]{}: instr 0x140-0x148.7 (9)
0x140|44                                             |D               |                        f64.const: 0x44 (valid) 0x140-0x140.7 (1)
0x140|   00 00 00 00 00 00 00 00                     | ........       |                        z: 0 0x141-0x148.7 (8)
     |                                               |                |                      [1]{}: instr 0x149-0x149.7 (1)
0x140|                           0f                  |         .      |                        return: 0xf (valid) 0x149-0x149.7 (1)
0x140|                              0b               |          .     |                    end: 11 (valid) 0x14a-0x14a.7 (1)
     |                                               |                |                  [9]{}: in 0x14b-0x14c.7 (2)
0x140|                                 41            |           A    |                    i32.const: 0x41 (valid) 0x14b-0x14b.7 (1)
0x140|                                    09         |            .   |                    n: 9 0x14c-0x14c.7 (1)
     |                                               |                |                  [10]{}: in 0x14d-0x14e.7 (2)
0x140|                                       42      |             B  |                    i64.const: 0x42 (valid) 0x14d-0x14d.7 (1)
0x140|                                          00   |              . |                    n: 0 0x14e-0x14e.7 (1)
     |                                               |                |                  [11]{}: in 0x14f-0x151.7 (3)
0x140|                                             37|               7|                    i64.store: 0x37 (valid) 0x14f-0x14f.7 (1)
     |                                               |                |                    m{}: 0x150-0x151.7 (2)
0x150|00                                             |.               |                      a: 0 0x150-0x150.7 (1)
0x150|   00                                          | .              |                      o: 0 0x151-0x151.7 (1)
     |                                               |                |                  [12]{}: in 0x152-0x153.7 (2)
0x150|      41                                       |  A             |                    i32.const: 0x41 (valid) 0x152-0x152.7 (1)
0x150|         0f                                    |   .            |                    n: 15 0x153-0x153.7 (1)
     |                                               |                |                  [13]{}: in 0x154-0x157.7 (4)
0x150|            41                                 |    A           |                    i32.const: 0x41 (valid) 0x154-0x154.7 (1)
0x150|               c5 80 01                        |     ...        |                    n: 16453 0x155-0x157.7 (3)
     |                                               |                |                  [14]{}: in 0x158-0x15a.7 (3)
0x150|                        3b                     |        ;       |                    i32.store16: 0x3b (valid) 0x158-0x158.7 (1)
     |                                               |                |                    m{}: 0x159-0x15a.7 (2)
0x150|                           00                  |         .      |                      a: 0 0x159-0x159.7 (1)
0x150|                              00               |          .     |                      o: 0 0x15a-0x15a.7 (1)
     |                                               |                |                  [15]{}: in 0x15b-0x15c.7 (2)
0x150|                                 41            |           A    |                    i32.const: 0x41 (valid) 0x15b-0x15b.7 (1)
0x150|                                    09         |            .   |                    n: 9 0x15c-0x15c.7 (1)
     |                                               |                |                  [16]{}: in 0x15d-0x15f.7 (3)
0x150|                                       2b      |             +  |                    f64.load: 0x2b (valid) 0x15d-0x15d.7 (1)
     |                                               |                |                    m{}: 0x15e-0x15f.7 (2)
0x150|                                          00   |              . |                      a: 0 0x15e-0x15e.7 (1)
0x150|                                             00|               .|                      o: 0 0x15f-0x15f.7 (1)
     |                                               |                |                  [17]{}: in 0x160-0x160.7 (1)
0x160|0b                                             |.               |                    end: 0xb (valid) 0x160-0x160.7 (1)
     |                                               |                |            [2]{}: code 0x161-0x16f.7 (15)
0x160|   0e                                          | .              |              size: 14 0x161-0x161.7 (1)
     |                                               |                |              code{}: 0x162-0x16f.7 (14)
     |                                               |                |                t{}: 0x162-0x162.7 (1)
0x160|      00                                       |  .             |                  n: 0 0x162-0x162.7 (1)
     |                                               |                |                  x[0:0]: 0x163-NA (0)
     |                                               |                |                e[0:6]: 0x163-0x16f.7 (13)
     |                                               |                |                  [0]{}: in 0x163-0x164.7 (2)
0x160|         41                                    |   A            |                    i32.const: 0x41 (valid) 0x163-0x163.7 (1)
0x160|            08                                 |    .           |                    n: 8 0x164-0x164.7 (1)
     |                                               |                |                  [1]{}: in 0x165-0x166.7 (2)
0x160|               20                              |                |                    local.get: 0x20 (valid) 0x165-0x165.7 (1)
0x160|                  00                           |      .         |                    x: 0 0x166-0x166.7 (1)
     |                                               |                |                  [2]{}: in 0x167-0x169.7 (3)
0x160|                     3a                        |       :        |                    i32.store8: 0x3a (valid) 0x167-0x167.7 (1)
     |                                               |                |                    m{}: 0x168-0x169.7 (2)
0x160|                        00                     |        .       |                      a: 0 0x168-0x168.7 (1)
0x160|                           00                  |         .      |                      o: 0 0x169-0x169.7 (1)
     |                                               |                |                  [3]{}: in 0x16a-0x16b.7 (2)
0x160|                              41               |          A     |                    i32.const: 0x41 (valid) 0x16a-0x16a.7 (1)
0x160|                                 08            |           .    |                    n: 8 0x16b-0x16b.7 (1)
     |                                               |                |                  [4]{}: in 0x16c-0x16e.7 (3)
0x160|                                    2c         |            ,   |                    i32.load8_s: 0x2c (valid) 0x16c-0x16c.7 (1)
     |                                               |                |                    m{}: 0x16d-0x16e.7 (2)
0x160|                                       00      |             .  |                      a: 0 0x16d-0x16d.7 (1)
0x160|                                          00   |              . |                      o: 0 0x16e-0x16e.7 (1)
     |                                               |                |                  [5]{}: in 0x16f-0x16f.7 (1)
0x160|                                             0b|               .|                    end: 0xb (valid) 0x16f-0x16f.7 (1)
     |                                               |                |            [3]{}: code 0x170-0x17e.7 (15)
0x170|0e                                             |.               |              size: 14 0x170-0x170.7 (1)
     |                                               |                |              code{}: 0x171-0x17e.7 (14)
     |                                               |                |                t{}: 0x171-0x171.7 (1)
0x170|   00                                          | .              |                  n: 0 0x171-0x171.7 (1)
     |                                               |                |                  x[0:0]: 0x172-NA (0)
     |                                               |                |                e[0:6]: 0x172-0x17e.7 (13)
     |                                               |                |                  [0]{}: in 0x172-0x173.7 (2)
0x170|      41                                       |  A             |                    i32.const: 0x41 (valid) 0x172-0x172.7 (1)
0x170|         08                                    |   .            |                    n: 8 0x173-0x173.7 (1)
     |                                               |                |                  [1]{}: in 0x174-0x175.7 (2)
0x170|            20                                 |                |                    local.get: 0x20 (valid) 0x174-0x174.7 (1)
0x170|               00                              |     .          |                    x: 0 0x175-0x175.7 (1)
     |                                               |                |                  [2]{}: in 0x176-0x178.7 (3)
0x170|                  3a                           |      :         |                    i32.store8: 0x3a (valid) 0x176-0x176.7 (1)
     |                                               |                |                    m{}: 0x177-0x178.7 (2)
0x170|                     00                        |       .        |                      a: 0 0x177-0x177.7 (1)
0x170|                        00                     |        .       |                      o: 0 0x178-0x178.7 (1)
     |                                               |                |                  [3]{}: in 0x179-0x17a.7 (2)
0x170|                           41                  |         A      |                    i32.const: 0x41 (valid) 0x179-0x179.7 (1)
0x170|                              08               |          .     |                    n: 8 0x17a-0x17a.7 (1)
     |                                               |                |                  [4]{}: in 0x17b-0x17d.7 (3)
0x170|                                 2d            |           -    |                    i32.load8_u: 0x2d (valid) 0x17b-0x17b.7 (1)
     |                                               |                |                    m{}: 0x17c-0x17d.7 (2)
0x170|                                    00         |            .   |                      a: 0 0x17c-0x17c.7 (1)
0x170|                                       00      |             .  |                      o: 0 0x17d-0x17d.7 (1)
     |                                               |                |                  [5]{}: in 0x17e-0x17e.7 (1)
0x170|                                          0b   |              . |                    end: 0xb (valid) 0x17e-0x17e.7 (1)
     |                                               |                |            [4]{}: code 0x17f-0x18d.7 (15)
0x170|                                             0e|               .|              size: 14 0x17f-0x17f.7 (1)
     |                                               |                |              code{}: 0x180-0x18d.7 (14)
     |                                               |                |                t{}: 0x180-0x180.7 (1)
0x180|00                                             |.               |                  n: 0 0x180-0x180.7 (1)
     |                                               |                |                  x[0:0]: 0x181-NA (0)
     |                                               |                |                e[0:6]: 0x181-0x18d.7 (13)
     |                                               |                |                  [0]{}: in 0x181-0x182.7 (2)
0x180|   41                                          | A              |                    i32.const: 0x41 (valid) 0x181-0x181.7 (1)
0x180|      08                                       |  .             |                    n: 8 0x182-0x182.7 (1)
     |                                               |                |                  [1]{}: in 0x183-0x184.7 (2)
0x180|         20                                    |                |                    local.get: 0x20 (valid) 0x183-0x183.7 (1)
0x180|            00                                 |    .           |                    x: 0 0x184-0x184.7 (1)
     |                                               |                |                  [2]{}: in 0x185-0x187.7 (3)
0x180|               3b                              |     ;          |                    i32.store16: 0x3b (valid) 0x185-0x185.7 (1)
     |                                               |                |                    m{}: 0x186-0x187.7 (2)
0x180|                  01                           |      .         |                      a: 1 0x186-0x186.7 (1)
0x180|                     00                        |       .        |                      o: 0 0x187-0x187.7 (1)
     |                                               |                |                  [3]{}: in 0x188-0x189.7 (2)
0x180|                        41                     |        A       |                    i32.const: 0x41 (valid) 0x188-0x188.7 (1)
0x180|                           08                  |         .      |                    n: 8 0x189-0x189.7 (1)
     |                                               |                |                  [4]{}: in 0x18a-0x18c.7 (3)
0x180|                              2e               |          .     |                    i32.load16_s: 0x2e (valid) 0x18a-0x18a.7 (1)
     |                                               |                |                    m{}: 0x18b-0x18c.7 (2)
0x180|                                 01            |           .    |                      a: 1 0x18b-0x18b.7 (1)
0x180|                                    00         |            .   |                      o: 0 0x18c-0x18c.7 (1)
     |                                               |                |                  [5]{}: in 0x18d-0x18d.7 (1)
0x180|                                       0b      |             .  |                    end: 0xb (valid) 0x18d-0x18d.7 (1)
     |                                               |                |            [5]{}: code 0x18e-0x19c.7 (15)
0x180|                                          0e   |              . |              size: 14 0x18e-0x18e.7 (1)
     |                                               |                |              code{}: 0x18f-0x19c.7 (14)
     |                                               |                |                t{}: 0x18f-0x18f.7 (1)
0x180|                                             00|               .|                  n: 0 0x18f-0x18f.7 (1)
     |                                               |                |                  x[0:0]: 0x190-NA (0)
     |                                               |                |                e[0:6]: 0x190-0x19c.7 (13)
     |                                               |                |                  [0]{}: in 0x190-0x191.7 (2)
0x190|41                                             |A               |                    i32.const: 0x41 (valid) 0x190-0x190.7 (1)
0x190|   08                                          | .              |                    n: 8 0x191-0x191.7 (1)
     |                                               |                |                  [1]{}: in 0x192-0x193.7 (2)
0x190|      20                                       |                |                    local.get: 0x20 (valid) 0x192-0x192.7 (1)
0x190|         00                                    |   .            |                    x: 0 0x193-0x193.7 (1)
     |                                               |                |                  [2]{}: in 0x194-0x196.7 (3)
0x190|            3b                                 |    ;           |                    i32.store16: 0x3b (valid) 0x194-0x194.7 (1)
     |                                               |                |                    m{}: 0x195-0x196.7 (2)
0x190|               01                              |     .          |                      a: 1 0x195-0x195.7 (1)
0x190|                  00                           |      .         |                      o: 0 0x196-0x196.7 (1)
     |                                               |                |                  [3]{}: in 0x197-0x198.7 (2)
0x190|                     41                        |       A        |                    i32.const: 0x41 (valid) 0x197-0x197.7 (1)
0x190|                        08                     |        .       |                    n: 8 0x198-0x198.7 (1)
     |                                               |                |                  [4]{}: in 0x199-0x19b.7 (3)
0x190|                           2f                  |         /      |                    i32.load16_u: 0x2f (valid) 0x199-0x199.7 (1)
     |                                               |                |                    m{}: 0x19a-0x19b.7 (2)
0x190|                              01               |          .     |                      a: 1 0x19a-0x19a.7 (1)
0x190|                                 00            |           .    |                      o: 0 0x19b-0x19b.7 (1)
     |                                               |                |                  [5]{}: in 0x19c-0x19c.7 (1)
0x190|                                    0b         |            .   |                    end: 0xb (valid) 0x19c-0x19c.7 (1)
     |                                               |                |            [6]{}: code 0x19d-0x1ab.7 (15)
0x190|                                       0e      |             .  |              size: 14 0x19d-0x19d.7 (1)
     |                                               |                |              code{}: 0x19e-0x1ab.7 (14)
     |                                               |                |                t{}: 0x19e-0x19e.7 (1)
0x190|                                          00   |              . |                  n: 0 0x19e-0x19e.7 (1)
     |                                               |                |                  x[0:0]: 0x19f-NA (0)
     |                                               |                |                e[0:6]: 0x19f-0x1ab.7 (13)
     |                                               |                |                  [0]{}: in 0x19f-0x1a0.7 (2)
0x190|                                             41|               A|                    i32.const: 0x41 (valid) 0x19f-0x19f.7 (1)
0x1a0|08                                             |.               |                    n: 8 0x1a0-0x1a0.7 (1)
     |                                               |                |                  [1]{}: in 0x1a1-0x1a2.7 (2)
0x1a0|   20                                          |                |                    local.get: 0x20 (valid) 0x1a1-0x1a1.7 (1)
0x1a0|      00                                       |  .             |                    x: 0 0x1a2-0x1a2.7 (1)
     |                                               |                |                  [2]{}: in 0x1a3-0x1a5.7 (3)
0x1a0|         3c                                    |   <            |                    i64.store8: 0x3c (valid) 0x1a3-0x1a3.7 (1)
     |                                               |                |                    m{}: 0x1a4-0x1a5.7 (2)
0x1a0|            00                                 |    .           |                      a: 0 0x1a4-0x1a4.7 (1)
0x1a0|               00                              |     .          |                      o: 0 0x1a5-0x1a5.7 (1)
     |                                               |                |                  [3]{}: in 0x1a6-0x1a7.7 (2)
0x1a0|                  41                           |      A         |                    i32.const: 0x41 (valid) 0x1a6-0x1a6.7 (1)
0x1a0|                     08                        |       .        |                    n: 8 0x1a7-0x1a7.7 (1)
     |                                               |                |                  [4]{}: in 0x1a8-0x1aa.7 (3)
0x1a0|                        30                     |        0       |                    i64.load8_s: 0x30 (valid) 0x1a8-0x1a8.7 (1)
     |                                               |                |                    m{}: 0x1a9-0x1aa.7 (2)
0x1a0|                           00                  |         .      |                      a: 0 0x1a9-0x1a9.7 (1)
0x1a0|                              00               |          .     |                      o: 0 0x1aa-0x1aa.7 (1)
     |                                               |                |                  [5]{}: in 0x1ab-0x1ab.7 (1)
0x1a0|                                 0b            |           .    |                    end: 0xb (valid) 0x1ab-0x1ab.7 (1)
     |                                               |                |            [7]{}: code 0x1ac-0x1ba.7 (15)
0x1a0|                                    0e         |            .   |              size: 14 0x1ac-0x1ac.7 (1)
     |                                               |                |              code{}: 0x1ad-0x1ba.7 (14)
     |                                               |                |                t{}: 0x1ad-0x1ad.7 (1)
0x1a0|                                       00      |             .  |                  n: 0 0x1ad-0x1ad.7 (1)
     |                                               |                |                  x[0:0]: 0x1ae-NA (0)
     |                                               |                |                e[0:6]: 0x1ae-0x1ba.7 (13)
     |                                               |                |                  [0]{}: in 0x1ae-0x1af.7 (2)
0x1a0|                                          41   |              A |                    i32.const: 0x41 (valid) 0x1ae-0x1ae.7 (1)
0x1a0|                                             08|               .|                    n: 8 0x1af-0x1af.7 (1)
     |                                               |                |                  [1]{}: in 0x1b0-0x1b1.7 (2)
0x1b0|20                                             |                |                    local.get: 0x20 (valid) 0x1b0-0x1b0.7 (1)
0x1b0|   00                                          | .              |                    x: 0 0x1b1-0x1b1.7 (1)
     |                                               |                |                  [2]{}: in 0x1b2-0x1b4.7 (3)
0x1b0|      3c                                       |  <             |                    i64.store8: 0x3c (valid) 0x1b2-0x1b2.7 (1)
     |                                               |                |                    m{}: 0x1b3-0x1b4.7 (2)
0x1b0|         00                                    |   .            |                      a: 0 0x1b3-0x1b3.7 (1)
0x1b0|            00                                 |    .           |                      o: 0 0x1b4-0x1b4.7 (1)
     |                                               |                |                  [3]{}: in 0x1b5-0x1b6.7 (2)
0x1b0|               41                              |     A          |                    i32.const: 0x41 (valid) 0x1b5-0x1b5.7 (1)
0x1b0|                  08                           |      .         |                    n: 8 0x1b6-0x1b6.7 (1)
     |                                               |                |                  [4]{}: in 0x1b7-0x1b9.7 (3)
0x1b0|                     31                        |       1        |                    i64.load8_u: 0x31 (valid) 0x1b7-0x1b7.7 (1)
     |                                               |                |                    m{}: 0x1b8-0x1b9.7 (2)
0x1b0|                        00                     |        .       |                      a: 0 0x1b8-0x1b8.7 (1)
0x1b0|                           00                  |         .      |                      o: 0 0x1b9-0x1b9.7 (1)
     |                                               |                |                  [5]{}: in 0x1ba-0x1ba.7 (1)
0x1b0|                              0b               |          .     |                    end: 0xb (valid) 0x1ba-0x1ba.7 (1)
     |                                               |                |            [8]{}: code 0x1bb-0x1c9.7 (15)
0x1b0|                                 0e            |           .    |              size: 14 0x1bb-0x1bb.7 (1)
     |                                               |                |              code{}: 0x1bc-0x1c9.7 (14)
     |                                               |                |                t{}: 0x1bc-0x1bc.7 (1)
0x1b0|                                    00         |            .   |                  n: 0 0x1bc-0x1bc.7 (1)
     |                                               |                |                  x[0:0]: 0x1bd-NA (0)
     |                                               |                |                e[0:6]: 0x1bd-0x1c9.7 (13)
     |                                               |                |                  [0]{}: in 0x1bd-0x1be.7 (2)
0x1b0|                                       41      |             A  |                    i32.const: 0x41 (valid) 0x1bd-0x1bd.7 (1)
0x1b0|                                          08   |              . |                    n: 8 0x1be-0x1be.7 (1)
     |                                               |                |                  [1]{}: in 0x1bf-0x1c0.7 (2)
0x1b0|                                             20|                |                    local.get: 0x20 (valid) 0x1bf-0x1bf.7 (1)
0x1c0|00                                             |.               |                    x: 0 0x1c0-0x1c0.7 (1)
     |                                               |                |                  [2]{}: in 0x1c1-0x1c3.7 (3)
0x1c0|   3d                                          | =              |                    i64.store16: 0x3d (valid) 0x1c1-0x1c1.7 (1)
     |                                               |                |                    m{}: 0x1c2-0x1c3.7 (2)
0x1c0|      01                                       |  .             |                      a: 1 0x1c2-0x1c2.7 (1)
0x1c0|         00                                    |   .            |                      o: 0 0x1c3-0x1c3.7 (1)
     |                                               |                |                  [3]{}: in 0x1c4-0x1c5.7 (2)
0x1c0|            41                                 |    A           |                    i32.const: 0x41 (valid) 0x1c4-0x1c4.7 (1)
0x1c0|               08                              |     .          |                    n: 8 0x1c5-0x1c5.7 (1)
     |                                               |                |                  [4]{}: in 0x1c6-0x1c8.7 (3)
0x1c0|                  32                           |      2         |                    i64.load16_s: 0x32 (valid) 0x1c6-0x1c6.7 (1)
     |                                               |                |                    m{}: 0x1c7-0x1c8.7 (2)
0x1c0|                     01                        |       .        |                      a: 1 0x1c7-0x1c7.7 (1)
0x1c0|                        00                     |        .       |                      o: 0 0x1c8-0x1c8.7 (1)
     |                                               |                |                  [5]{}: in 0x1c9-0x1c9.7 (1)
0x1c0|                           0b                  |         .      |                    end: 0xb (valid) 0x1c9-0x1c9.7 (1)
     |                                               |                |            [9]{}: code 0x1ca-0x1d8.7 (15)
0x1c0|                              0e               |          .     |              size: 14 0x1ca-0x1ca.7 (1)
     |                                               |                |              code{}: 0x1cb-0x1d8.7 (14)
     |                                               |                |                t{}: 0x1cb-0x1cb.7 (1)
0x1c0|                                 00            |           .    |                  n: 0 0x1cb-0x1cb.7 (1)
     |                                               |                |                  x[0:0]: 0x1cc-NA (0)
     |                                               |                |                e[0:6]: 0x1cc-0x1d8.7 (13)
     |                                               |                |                  [0]{}: in 0x1cc-0x1cd.7 (2)
0x1c0|                                    41         |            A   |                    i32.const: 0x41 (valid) 0x1cc-0x1cc.7 (1)
0x1c0|                                       08      |             .  |                    n: 8 0x1cd-0x1cd.7 (1)
     |                                               |                |                  [1]{}: in 0x1ce-0x1cf.7 (2)
0x1c0|                                          20   |                |                    local.get: 0x20 (valid) 0x1ce-0x1ce.7 (1)
0x1c0|                                             00|               .|                    x: 0 0x1cf-0x1cf.7 (1)
     |                                               |                |                  [2]{}: in 0x1d0-0x1d2.7 (3)
0x1d0|3d                                             |=               |                    i64.store16: 0x3d (valid) 0x1d0-0x1d0.7 (1)
     |                                               |                |                    m{}: 0x1d1-0x1d2.7 (2)
0x1d0|   01                                          | .              |                      a: 1 0x1d1-0x1d1.7 (1)
0x1d0|      00                                       |  .             |                      o: 0 0x1d2-0x1d2.7 (1)
     |                                               |                |                  [3]{}: in 0x1d3-0x1d4.7 (2)
0x1d0|         41                                    |   A            |                    i32.const: 0x41 (valid) 0x1d3-0x1d3.7 (1)
0x1d0|            08                                 |    .           |                    n: 8 0x1d4-0x1d4.7 (1)
     |                                               |                |                  [4]{}: in 0x1d5-0x1d7.7 (3)
0x1d0|               33                              |     3          |                    i64.load16_u: 0x33 (valid) 0x1d5-0x1d5.7 (1)
     |                                               |                |                    m{}: 0x1d6-0x1d7.7 (2)
0x1d0|                  01                           |      .         |                      a: 1 0x1d6-0x1d6.7 (1)
0x1d0|                     00                        |       .        |                      o: 0 0x1d7-0x1d7.7 (1)
     |                                               |                |                  [5]{}: in 0x1d8-0x1d8.7 (1)
0x1d0|                        0b                     |        .       |                    end: 0xb (valid) 0x1d8-0x1d8.7 (1)
     |                                               |                |            [10]{}: code 0x1d9-0x1e7.7 (15)
0x1d0|                           0e                  |         .      |              size: 14 0x1d9-0x1d9.7 (1)
     |                                               |                |              code{}: 0x1da-0x1e7.7 (14)
     |                                               |                |                t{}: 0x1da-0x1da.7 (1)
0x1d0|                              00               |          .     |                  n: 0 0x1da-0x1da.7 (1)
     |                                               |                |                  x[0:0]: 0x1db-NA (0)
     |                                               |                |                e[0:6]: 0x1db-0x1e7.7 (13)
     |                                               |                |                  [0]{}: in 0x1db-0x1dc.7 (2)
0x1d0|                                 41            |           A    |                    i32.const: 0x41 (valid) 0x1db-0x1db.7 (1)
0x1d0|                                    08         |            .   |                    n: 8 0x1dc-0x1dc.7 (1)
     |                                               |                |                  [1]{}: in 0x1dd-0x1de.7 (2)
0x1d0|                                       20      |                |                    local.get: 0x20 (valid) 0x1dd-0x1dd.7 (1)
0x1d0|                                          00   |              . |                    x: 0 0x1de-0x1de.7 (1)
     |                                               |                |                  [2]{}: in 0x1df-0x1e1.7 (3)
0x1d0|                                             3e|               >|                    i64.store32: 0x3e (valid) 0x1df-0x1df.7 (1)
     |                                               |                |                    m{}: 0x1e0-0x1e1.7 (2)
0x1e0|02                                             |.               |                      a: 2 0x1e0-0x1e0.7 (1)
0x1e0|   00                                          | .              |                      o: 0 0x1e1-0x1e1.7 (1)
     |                                               |                |                  [3]{}: in 0x1e2-0x1e3.7 (2)
0x1e0|      41                                       |  A             |                    i32.const: 0x41 (valid) 0x1e2-0x1e2.7 (1)
0x1e0|         08                                    |   .            |                    n: 8 0x1e3-0x1e3.7 (1)
     |                                               |                |                  [4]{}: in 0x1e4-0x1e6.7 (3)
0x1e0|            34                                 |    4           |                    i64.load32_s: 0x34 (valid) 0x1e4-0x1e4.7 (1)
     |                                               |                |                    m{}: 0x1e5-0x1e6.7 (2)
0x1e0|               02                              |     .          |                      a: 2 0x1e5-0x1e5.7 (1)
0x1e0|                  00                           |      .         |                      o: 0 0x1e6-0x1e6.7 (1)
     |                                               |                |                  [5]{}: in 0x1e7-0x1e7.7 (1)
0x1e0|                     0b                        |       .        |                    end: 0xb (valid) 0x1e7-0x1e7.7 (1)
     |                                               |                |            [11]{}: code 0x1e8-0x1f6.7 (15)
0x1e0|                        0e                     |        .       |              size: 14 0x1e8-0x1e8.7 (1)
     |                                               |                |              code{}: 0x1e9-0x1f6.7 (14)
     |                                               |                |                t{}: 0x1e9-0x1e9.7 (1)
0x1e0|                           00                  |         .      |                  n: 0 0x1e9-0x1e9.7 (1)
     |                                               |                |                  x[0:0]: 0x1ea-NA (0)
     |                                               |                |                e[0:6]: 0x1ea-0x1f6.7 (13)
     |                                               |                |                  [0]{}: in 0x1ea-0x1eb.7 (2)
0x1e0|                              41               |          A     |                    i32.const: 0x41 (valid) 0x1ea-0x1ea.7 (1)
0x1e0|                                 08            |           .    |                    n: 8 0x1eb-0x1eb.7 (1)
     |                                               |                |                  [1]{}: in 0x1ec-0x1ed.7 (2)
0x1e0|                                    20         |                |                    local.get: 0x20 (valid) 0x1ec-0x1ec.7 (1)
0x1e0|                                       00      |             .  |                    x: 0 0x1ed-0x1ed.7 (1)
     |                                               |                |                  [2]{}: in 0x1ee-0x1f0.7 (3)
0x1e0|                                          3e   |              > |                    i64.store32: 0x3e (valid) 0x1ee-0x1ee.7 (1)
     |                                               |                |                    m{}: 0x1ef-0x1f0.7 (2)
0x1e0|                                             02|               .|                      a: 2 0x1ef-0x1ef.7 (1)
0x1f0|00                                             |.               |                      o: 0 0x1f0-0x1f0.7 (1)
     |                                               |                |                  [3]{}: in 0x1f1-0x1f2.7 (2)
0x1f0|   41                                          | A              |                    i32.const: 0x41 (valid) 0x1f1-0x1f1.7 (1)
0x1f0|      08                                       |  .             |                    n: 8 0x1f2-0x1f2.7 (1)
     |                                               |                |                  [4]{}: in 0x1f3-0x1f5.7 (3)
0x1f0|         35                                    |   5            |                    i64.load32_u: 0x35 (valid) 0x1f3-0x1f3.7 (1)
     |                                               |                |                    m{}: 0x1f4-0x1f5.7 (2)
0x1f0|            02                                 |    .           |                      a: 2 0x1f4-0x1f4.7 (1)
0x1f0|               00                              |     .          |                      o: 0 0x1f5-0x1f5.7 (1)
     |                                               |                |                  [5]{}: in 0x1f6-0x1f6.7 (1)
0x1f0|                  0b                           |      .         |                    end: 0xb (valid) 0x1f6-0x1f6.7 (1)
     |                                               |                |    [5]{}: section 0x1f7-0x20c.7 (22)
0x1f0|                     0b                        |       .        |      id: "data section" (11) 0x1f7-0x1f7.7 (1)
0x1f0|                        14                     |        .       |      size: 20 0x1f8-0x1f8.7 (1)
     |                                               |                |      content{}: 0x1f9-0x20c.7 (20)
     |                                               |                |        seg{}: 0x1f9-0x20c.7 (20)
0x1f0|                           02                  |         .      |          n: 2 0x1f9-0x1f9.7 (1)
     |                                               |                |          x[0:2]: 0x1fa-0x20c.7 (19)
     |                                               |                |            [0]{}: seg 0x1fa-0x203.7 (10)
0x1f0|                              00               |          .     |              tag: 0 0x1fa-0x1fa.7 (1)
     |                                               |                |              e[0:2]: 0x1fb-0x1fd.7 (3)
     |                                               |                |                [0]{}: in 0x1fb-0x1fc.7 (2)
0x1f0|                                 41            |           A    |                  i32.const: 0x41 (valid) 0x1fb-0x1fb.7 (1)
0x1f0|                                    00         |            .   |                  n: 0 0x1fc-0x1fc.7 (1)
     |                                               |                |                [1]{}: in 0x1fd-0x1fd.7 (1)
0x1f0|                                       0b      |             .  |                  end: 0xb (valid) 0x1fd-0x1fd.7 (1)
     |                                               |                |              b{}: 0x1fe-0x203.7 (6)
0x1f0|                                          05   |              . |                n: 5 0x1fe-0x1fe.7 (1)
0x1f0|                                             41|               A|                x: raw bits 0x1ff-0x203.7 (5)
0x200|42 43 a7 44                                    |BC.D            |
     |                                               |                |            [1]{}: seg 0x204-0x20c.7 (9)
0x200|            00                                 |    .           |              tag: 0 0x204-0x204.7 (1)
     |                                               |                |              e[0:2]: 0x205-0x207.7 (3)
     |                                               |                |                [0]{}: in 0x205-0x206.7 (2)
0x200|               41                              |     A          |                  i32.const: 0x41 (valid) 0x205-0x205.7 (1)
0x200|                  14                           |      .         |                  n: 20 0x206-0x206.7 (1)
     |                                               |                |                [1]{}: in 0x207-0x207.7 (1)
0x200|                     0b                        |       .        |                  end: 0xb (valid) 0x207-0x207.7 (1)
     |                                               |                |              b{}: 0x208-0x20c.7 (5)
0x200|                        04                     |        .       |                n: 4 0x208-0x208.7 (1)
0x200|                           57 41 53 4d|        |         WASM|  |                x: raw bits 0x209-0x20c.7 (4)
