$ fq -d wasm dv memory_fill-10.wasm
    |00 01 02 03 04 05 06 07 08 09 0a 0b 0c 0d 0e 0f|0123456789abcdef|.{}: memory_fill-10.wasm (wasm) 0x0-0x70 (112)
0x00|00 61 73 6d                                    |.asm            |  magic: raw bits (valid) 0x0-0x4 (4)
0x00|            01 00 00 00                        |    ....        |  version: 1 0x4-0x8 (4)
    |                                               |                |  sections[0:5]: 0x8-0x70 (104)
    |                                               |                |    [0]{}: section 0x8-0x18 (16)
0x00|                        01                     |        .       |      id: "type_section" (1) 0x8-0x9 (1)
0x00|                           0e                  |         .      |      size: 14 (valid) 0x9-0xa (1)
    |                                               |                |      content{}: 0xa-0x18 (14)
    |                                               |                |        ft{}: 0xa-0x18 (14)
0x00|                              02               |          .     |          n: 2 (valid) 0xa-0xb (1)
    |                                               |                |          x[0:2]: 0xb-0x18 (13)
    |                                               |                |            [0]{}: ft 0xb-0x12 (7)
0x00|                                 60            |           `    |              tag: 0x60 (valid) 0xb-0xc (1)
    |                                               |                |              rt1{}: 0xc-0x10 (4)
0x00|                                    03         |            .   |                n: 3 (valid) 0xc-0xd (1)
    |                                               |                |                x[0:3]: 0xd-0x10 (3)
0x00|                                       7f      |             .  |                  [0]: "i32" (0x7f) t 0xd-0xe (1)
0x00|                                          7f   |              . |                  [1]: "i32" (0x7f) t 0xe-0xf (1)
0x00|                                             7f|               .|                  [2]: "i32" (0x7f) t 0xf-0x10 (1)
    |                                               |                |              rt2{}: 0x10-0x12 (2)
0x10|01                                             |.               |                n: 1 (valid) 0x10-0x11 (1)
    |                                               |                |                x[0:1]: 0x11-0x12 (1)
0x10|   7f                                          | .              |                  [0]: "i32" (0x7f) t 0x11-0x12 (1)
    |                                               |                |            [1]{}: ft 0x12-0x18 (6)
0x10|      60                                       |  `             |              tag: 0x60 (valid) 0x12-0x13 (1)
    |                                               |                |              rt1{}: 0x13-0x17 (4)
0x10|         03                                    |   .            |                n: 3 (valid) 0x13-0x14 (1)
    |                                               |                |                x[0:3]: 0x14-0x17 (3)
0x10|            7f                                 |    .           |                  [0]: "i32" (0x7f) t 0x14-0x15 (1)
0x10|               7f                              |     .          |                  [1]: "i32" (0x7f) t 0x15-0x16 (1)
0x10|                  7f                           |      .         |                  [2]: "i32" (0x7f) t 0x16-0x17 (1)
    |                                               |                |              rt2{}: 0x17-0x18 (1)
0x10|                     00                        |       .        |                n: 0 (valid) 0x17-0x18 (1)
    |                                               |                |                x[0:0]: 0x18-0x18 (0)
    |                                               |                |    [1]{}: section 0x18-0x1d (5)
0x10|                        03                     |        .       |      id: "function_section" (3) 0x18-0x19 (1)
0x10|                           03                  |         .      |      size: 3 (valid) 0x19-0x1a (1)
    |                                               |                |      content{}: 0x1a-0x1d (3)
    |                                               |                |        x{}: 0x1a-0x1d (3)
0x10|                              02               |          .     |          n: 2 (valid) 0x1a-0x1b (1)
    |                                               |                |          x[0:2]: 0x1b-0x1d (2)
0x10|                                 00            |           .    |            [0]: 0 x (valid) 0x1b-0x1c (1)
0x10|                                    01         |            .   |            [1]: 1 x (valid) 0x1c-0x1d (1)
    |                                               |                |    [2]{}: section 0x1d-0x23 (6)
0x10|                                       05      |             .  |      id: "memory_section" (5) 0x1d-0x1e (1)
0x10|                                          04   |              . |      size: 4 (valid) 0x1e-0x1f (1)
    |                                               |                |      content{}: 0x1f-0x23 (4)
    |                                               |                |        mem{}: 0x1f-0x23 (4)
0x10|                                             01|               .|          n: 1 (valid) 0x1f-0x20 (1)
    |                                               |                |          x[0:1]: 0x20-0x23 (3)
    |                                               |                |            [0]{}: mem 0x20-0x23 (3)
    |                                               |                |              lim{}: 0x20-0x23 (3)
0x20|01                                             |.               |                tag: 0x1 0x20-0x21 (1)
0x20|   01                                          | .              |                n: 1 (valid) 0x21-0x22 (1)
0x20|      01                                       |  .             |                m: 1 (valid) 0x22-0x23 (1)
    |                                               |                |    [3]{}: section 0x23-0x39 (22)
0x20|         07                                    |   .            |      id: "export_section" (7) 0x23-0x24 (1)
0x20|            14                                 |    .           |      size: 20 (valid) 0x24-0x25 (1)
    |                                               |                |      content{}: 0x25-0x39 (20)
    |                                               |                |        ex{}: 0x25-0x39 (20)
0x20|               02                              |     .          |          n: 2 (valid) 0x25-0x26 (1)
    |                                               |                |          x[0:2]: 0x26-0x39 (19)
    |                                               |                |            [0]{}: ex 0x26-0x33 (13)
    |                                               |                |              nm{}: 0x26-0x31 (11)
0x20|                  0a                           |      .         |                n: 10 (valid) 0x26-0x27 (1)
0x20|                     63 68 65 63 6b 52 61 6e 67|       checkRang|                b: "checkRange" 0x27-0x31 (10)
0x30|65                                             |e               |
    |                                               |                |              d{}: 0x31-0x33 (2)
0x30|   00                                          | .              |                tag: "funcidx" (0x0) 0x31-0x32 (1)
0x30|      00                                       |  .             |                x: 0 (valid) 0x32-0x33 (1)
    |                                               |                |            [1]{}: ex 0x33-0x39 (6)
    |                                               |                |              nm{}: 0x33-0x37 (4)
0x30|         03                                    |   .            |                n: 3 (valid) 0x33-0x34 (1)
0x30|            72 75 6e                           |    run         |                b: "run" 0x34-0x37 (3)
    |                                               |                |              d{}: 0x37-0x39 (2)
0x30|                     00                        |       .        |                tag: "funcidx" (0x0) 0x37-0x38 (1)
0x30|                        01                     |        .       |                x: 1 (valid) 0x38-0x39 (1)
    |                                               |                |    [4]{}: section 0x39-0x70 (55)
0x30|                           0a                  |         .      |      id: "code_section" (10) 0x39-0x3a (1)
0x30|                              35               |          5     |      size: 53 (valid) 0x3a-0x3b (1)
    |                                               |                |      content{}: 0x3b-0x70 (53)
    |                                               |                |        code{}: 0x3b-0x70 (53)
0x30|                                 02            |           .    |          n: 2 (valid) 0x3b-0x3c (1)
    |                                               |                |          x[0:2]: 0x3c-0x70 (52)
    |                                               |                |            [0]{}: code 0x3c-0x64 (40)
0x30|                                    27         |            '   |              size: 39 (valid) 0x3c-0x3d (1)
    |                                               |                |              code{}: 0x3d-0x64 (39)
    |                                               |                |                t{}: 0x3d-0x3e (1)
0x30|                                       00      |             .  |                  n: 0 (valid) 0x3d-0x3e (1)
    |                                               |                |                  x[0:0]: 0x3e-0x3e (0)
    |                                               |                |                e[0:4]: 0x3e-0x64 (38)
    |                                               |                |                  [0]{}: in 0x3e-0x60 (34)
0x30|                                          03   |              . |                    opcode: "loop" (0x3) 0x3e-0x3f (1)
0x30|                                             40|               @|                    bt: "ε" (64) 0x3f-0x40 (1)
    |                                               |                |                    instructions[0:9]: 0x40-0x5f (31)
    |                                               |                |                      [0]{}: instr 0x40-0x42 (2)
0x40|20                                             |                |                        opcode: "local.get" (0x20) 0x40-0x41 (1)
0x40|   00                                          | .              |                        x: 0 (valid) 0x41-0x42 (1)
    |                                               |                |                      [1]{}: instr 0x42-0x44 (2)
0x40|      20                                       |                |                        opcode: "local.get" (0x20) 0x42-0x43 (1)
0x40|         01                                    |   .            |                        x: 1 (valid) 0x43-0x44 (1)
    |                                               |                |                      [2]{}: instr 0x44-0x45 (1)
0x40|            46                                 |    F           |                        opcode: "i32.eq" (0x46) 0x44-0x45 (1)
    |                                               |                |                      [3]{}: instr 0x45-0x4b (6)
0x40|               04                              |     .          |                        opcode: "if" (0x4) 0x45-0x46 (1)
0x40|                  40                           |      @         |                        bt: "ε" (64) 0x46-0x47 (1)
    |                                               |                |                        in1[0:2]: 0x47-0x4a (3)
    |                                               |                |                          [0]{}: instr 0x47-0x49 (2)
0x40|                     41                        |       A        |                            opcode: "i32.const" (0x41) 0x47-0x48 (1)
0x40|                        7f                     |        .       |                            n: -1 (valid) 0x48-0x49 (1)
    |                                               |                |                          [1]{}: instr 0x49-0x4a (1)
0x40|                           0f                  |         .      |                            opcode: "return" (0xf) 0x49-0x4a (1)
0x40|                              0b               |          .     |                        end: 0xb (valid) 0x4a-0x4b (1)
    |                                               |                |                      [4]{}: instr 0x4b-0x4d (2)
0x40|                                 20            |                |                        opcode: "local.get" (0x20) 0x4b-0x4c (1)
0x40|                                    00         |            .   |                        x: 0 (valid) 0x4c-0x4d (1)
    |                                               |                |                      [5]{}: instr 0x4d-0x50 (3)
0x40|                                       2d      |             -  |                        opcode: "i32.load8_u" (0x2d) 0x4d-0x4e (1)
    |                                               |                |                        m{}: 0x4e-0x50 (2)
0x40|                                          00   |              . |                          a: 0 (valid) 0x4e-0x4f (1)
0x40|                                             00|               .|                          o: 0 (valid) 0x4f-0x50 (1)
    |                                               |                |                      [6]{}: instr 0x50-0x52 (2)
0x50|20                                             |                |                        opcode: "local.get" (0x20) 0x50-0x51 (1)
0x50|   02                                          | .              |                        x: 2 (valid) 0x51-0x52 (1)
    |                                               |                |                      [7]{}: instr 0x52-0x53 (1)
0x50|      46                                       |  F             |                        opcode: "i32.eq" (0x46) 0x52-0x53 (1)
    |                                               |                |                      [8]{}: instr 0x53-0x5f (12)
0x50|         04                                    |   .            |                        opcode: "if" (0x4) 0x53-0x54 (1)
0x50|            40                                 |    @           |                        bt: "ε" (64) 0x54-0x55 (1)
    |                                               |                |                        in1[0:5]: 0x55-0x5e (9)
    |                                               |                |                          [0]{}: instr 0x55-0x57 (2)
0x50|               20                              |                |                            opcode: "local.get" (0x20) 0x55-0x56 (1)
0x50|                  00                           |      .         |                            x: 0 (valid) 0x56-0x57 (1)
    |                                               |                |                          [1]{}: instr 0x57-0x59 (2)
0x50|                     41                        |       A        |                            opcode: "i32.const" (0x41) 0x57-0x58 (1)
0x50|                        01                     |        .       |                            n: 1 (valid) 0x58-0x59 (1)
    |                                               |                |                          [2]{}: instr 0x59-0x5a (1)
0x50|                           6a                  |         j      |                            opcode: "i32.add" (0x6a) 0x59-0x5a (1)
    |                                               |                |                          [3]{}: instr 0x5a-0x5c (2)
0x50|                              21               |          !     |                            opcode: "local.set" (0x21) 0x5a-0x5b (1)
0x50|                                 00            |           .    |                            x: 0 (valid) 0x5b-0x5c (1)
    |                                               |                |                          [4]{}: instr 0x5c-0x5e (2)
0x50|                                    0c         |            .   |                            opcode: "br" (0xc) 0x5c-0x5d (1)
0x50|                                       01      |             .  |                            l: 1 (valid) 0x5d-0x5e (1)
0x50|                                          0b   |              . |                        end: 0xb (valid) 0x5e-0x5f (1)
0x50|                                             0b|               .|                    end: 0xb (valid) 0x5f-0x60 (1)
    |                                               |                |                  [1]{}: in 0x60-0x62 (2)
0x60|20                                             |                |                    opcode: "local.get" (0x20) 0x60-0x61 (1)
0x60|   00                                          | .              |                    x: 0 (valid) 0x61-0x62 (1)
    |                                               |                |                  [2]{}: in 0x62-0x63 (1)
0x60|      0f                                       |  .             |                    opcode: "return" (0xf) 0x62-0x63 (1)
    |                                               |                |                  [3]{}: in 0x63-0x64 (1)
0x60|         0b                                    |   .            |                    opcode: "end" (0xb) 0x63-0x64 (1)
    |                                               |                |            [1]{}: code 0x64-0x70 (12)
0x60|            0b                                 |    .           |              size: 11 (valid) 0x64-0x65 (1)
    |                                               |                |              code{}: 0x65-0x70 (11)
    |                                               |                |                t{}: 0x65-0x66 (1)
0x60|               00                              |     .          |                  n: 0 (valid) 0x65-0x66 (1)
    |                                               |                |                  x[0:0]: 0x66-0x66 (0)
    |                                               |                |                e[0:5]: 0x66-0x70 (10)
    |                                               |                |                  [0]{}: in 0x66-0x68 (2)
0x60|                  20                           |                |                    opcode: "local.get" (0x20) 0x66-0x67 (1)
0x60|                     00                        |       .        |                    x: 0 (valid) 0x67-0x68 (1)
    |                                               |                |                  [1]{}: in 0x68-0x6a (2)
0x60|                        20                     |                |                    opcode: "local.get" (0x20) 0x68-0x69 (1)
0x60|                           01                  |         .      |                    x: 1 (valid) 0x69-0x6a (1)
    |                                               |                |                  [2]{}: in 0x6a-0x6c (2)
0x60|                              20               |                |                    opcode: "local.get" (0x20) 0x6a-0x6b (1)
0x60|                                 02            |           .    |                    x: 2 (valid) 0x6b-0x6c (1)
    |                                               |                |                  [3]{}: in 0x6c-0x6f (3)
0x60|                                    fc         |            .   |                    opcode: "prefix" (0xfc) 0x6c-0x6d (1)
0x60|                                       0b      |             .  |                    p_opcode: "memory.fill" (11) 0x6d-0x6e (1)
0x60|                                          00   |              . |                    reserved: 0x0 (valid) 0x6e-0x6f (1)
    |                                               |                |                  [4]{}: in 0x6f-0x70 (1)
0x60|                                             0b|               .|                    opcode: "end" (0xb) 0x6f-0x70 (1)
