$ fq -d wasm dv memory_grow-0.wasm
    |00 01 02 03 04 05 06 07 08 09 0a 0b 0c 0d 0e 0f|0123456789abcdef|.{}: memory_grow-0.wasm (wasm) 0x0-0xb4.7 (181)
0x00|00 61 73 6d                                    |.asm            |  magic: raw bits (valid) 0x0-0x3.7 (4)
0x00|            01 00 00 00                        |    ....        |  version: 1 0x4-0x7.7 (4)
    |                                               |                |  sections[0:5]: 0x8-0xb4.7 (173)
    |                                               |                |    [0]{}: section 0x8-0x16.7 (15)
0x00|                        01                     |        .       |      id: "type section" (1) 0x8-0x8.7 (1)
0x00|                           0d                  |         .      |      size: 13 0x9-0x9.7 (1)
    |                                               |                |      content{}: 0xa-0x16.7 (13)
    |                                               |                |        ft{}: 0xa-0x16.7 (13)
0x00|                              03               |          .     |          n: 3 0xa-0xa.7 (1)
    |                                               |                |          x[0:3]: 0xb-0x16.7 (12)
    |                                               |                |            [0]{}: ft 0xb-0xe.7 (4)
0x00|                                 60            |           `    |              tag: 0x60 (valid) 0xb-0xb.7 (1)
    |                                               |                |              rt1{}: 0xc-0xc.7 (1)
0x00|                                    00         |            .   |                n: 0 0xc-0xc.7 (1)
    |                                               |                |                x[0:0]: 0xd-NA (0)
    |                                               |                |              rt2{}: 0xd-0xe.7 (2)
0x00|                                       01      |             .  |                n: 1 0xd-0xd.7 (1)
    |                                               |                |                x[0:1]: 0xe-0xe.7 (1)
0x00|                                          7f   |              . |                  [0]: "i32" (0x7f) t 0xe-0xe.7 (1)
    |                                               |                |            [1]{}: ft 0xf-0x11.7 (3)
0x00|                                             60|               `|              tag: 0x60 (valid) 0xf-0xf.7 (1)
    |                                               |                |              rt1{}: 0x10-0x10.7 (1)
0x10|00                                             |.               |                n: 0 0x10-0x10.7 (1)
    |                                               |                |                x[0:0]: 0x11-NA (0)
    |                                               |                |              rt2{}: 0x11-0x11.7 (1)
0x10|   00                                          | .              |                n: 0 0x11-0x11.7 (1)
    |                                               |                |                x[0:0]: 0x12-NA (0)
    |                                               |                |            [2]{}: ft 0x12-0x16.7 (5)
0x10|      60                                       |  `             |              tag: 0x60 (valid) 0x12-0x12.7 (1)
    |                                               |                |              rt1{}: 0x13-0x14.7 (2)
0x10|         01                                    |   .            |                n: 1 0x13-0x13.7 (1)
    |                                               |                |                x[0:1]: 0x14-0x14.7 (1)
0x10|            7f                                 |    .           |                  [0]: "i32" (0x7f) t 0x14-0x14.7 (1)
    |                                               |                |              rt2{}: 0x15-0x16.7 (2)
0x10|               01                              |     .          |                n: 1 0x15-0x15.7 (1)
    |                                               |                |                x[0:1]: 0x16-0x16.7 (1)
0x10|                  7f                           |      .         |                  [0]: "i32" (0x7f) t 0x16-0x16.7 (1)
    |                                               |                |    [1]{}: section 0x17-0x1f.7 (9)
0x10|                     03                        |       .        |      id: "function section" (3) 0x17-0x17.7 (1)
0x10|                        07                     |        .       |      size: 7 0x18-0x18.7 (1)
    |                                               |                |      content{}: 0x19-0x1f.7 (7)
    |                                               |                |        x{}: 0x19-0x1f.7 (7)
0x10|                           06                  |         .      |          n: 6 0x19-0x19.7 (1)
    |                                               |                |          x[0:6]: 0x1a-0x1f.7 (6)
0x10|                              00               |          .     |            [0]: 0 x 0x1a-0x1a.7 (1)
0x10|                                 01            |           .    |            [1]: 1 x 0x1b-0x1b.7 (1)
0x10|                                    00         |            .   |            [2]: 0 x 0x1c-0x1c.7 (1)
0x10|                                       01      |             .  |            [3]: 1 x 0x1d-0x1d.7 (1)
0x10|                                          02   |              . |            [4]: 2 x 0x1e-0x1e.7 (1)
0x10|                                             00|               .|            [5]: 0 x 0x1f-0x1f.7 (1)
    |                                               |                |    [2]{}: section 0x20-0x24.7 (5)
0x20|05                                             |.               |      id: "memory section" (5) 0x20-0x20.7 (1)
0x20|   03                                          | .              |      size: 3 0x21-0x21.7 (1)
    |                                               |                |      content{}: 0x22-0x24.7 (3)
    |                                               |                |        mem{}: 0x22-0x24.7 (3)
0x20|      01                                       |  .             |          n: 1 0x22-0x22.7 (1)
    |                                               |                |          x[0:1]: 0x23-0x24.7 (2)
    |                                               |                |            [0]{}: mem 0x23-0x24.7 (2)
    |                                               |                |              lim{}: 0x23-0x24.7 (2)
0x20|         00                                    |   .            |                tag: 0x0 0x23-0x23.7 (1)
0x20|            00                                 |    .           |                n: 0 0x24-0x24.7 (1)
    |                                               |                |    [3]{}: section 0x25-0x7d.7 (89)
0x20|               07                              |     .          |      id: "export section" (7) 0x25-0x25.7 (1)
0x20|                  57                           |      W         |      size: 87 0x26-0x26.7 (1)
    |                                               |                |      content{}: 0x27-0x7d.7 (87)
    |                                               |                |        ex{}: 0x27-0x7d.7 (87)
0x20|                     06                        |       .        |          n: 6 0x27-0x27.7 (1)
    |                                               |                |          x[0:6]: 0x28-0x7d.7 (86)
    |                                               |                |            [0]{}: ex 0x28-0x36.7 (15)
    |                                               |                |              nm{}: 0x28-0x34.7 (13)
0x20|                        0c                     |        .       |                n: 12 0x28-0x28.7 (1)
0x20|                           6c 6f 61 64 5f 61 74|         load_at|                b: "load_at_zero" 0x29-0x34.7 (12)
0x30|5f 7a 65 72 6f                                 |_zero           |
    |                                               |                |              d{}: 0x35-0x36.7 (2)
0x30|               00                              |     .          |                tag: "funcidx" (0x0) 0x35-0x35.7 (1)
0x30|                  00                           |      .         |                x: 0 0x36-0x36.7 (1)
    |                                               |                |            [1]{}: ex 0x37-0x46.7 (16)
    |                                               |                |              nm{}: 0x37-0x44.7 (14)
0x30|                     0d                        |       .        |                n: 13 0x37-0x37.7 (1)
0x30|                        73 74 6f 72 65 5f 61 74|        store_at|                b: "store_at_zero" 0x38-0x44.7 (13)
0x40|5f 7a 65 72 6f                                 |_zero           |
    |                                               |                |              d{}: 0x45-0x46.7 (2)
0x40|               00                              |     .          |                tag: "funcidx" (0x0) 0x45-0x45.7 (1)
0x40|                  01                           |      .         |                x: 1 0x46-0x46.7 (1)
    |                                               |                |            [2]{}: ex 0x47-0x5a.7 (20)
    |                                               |                |              nm{}: 0x47-0x58.7 (18)
0x40|                     11                        |       .        |                n: 17 0x47-0x47.7 (1)
0x40|                        6c 6f 61 64 5f 61 74 5f|        load_at_|                b: "load_at_page_size" 0x48-0x58.7 (17)
0x50|70 61 67 65 5f 73 69 7a 65                     |page_size       |
    |                                               |                |              d{}: 0x59-0x5a.7 (2)
0x50|                           00                  |         .      |                tag: "funcidx" (0x0) 0x59-0x59.7 (1)
0x50|                              02               |          .     |                x: 2 0x5a-0x5a.7 (1)
    |                                               |                |            [3]{}: ex 0x5b-0x6f.7 (21)
    |                                               |                |              nm{}: 0x5b-0x6d.7 (19)
0x50|                                 12            |           .    |                n: 18 0x5b-0x5b.7 (1)
0x50|                                    73 74 6f 72|            stor|                b: "store_at_page_size" 0x5c-0x6d.7 (18)
0x60|65 5f 61 74 5f 70 61 67 65 5f 73 69 7a 65      |e_at_page_size  |
    |                                               |                |              d{}: 0x6e-0x6f.7 (2)
0x60|                                          00   |              . |                tag: "funcidx" (0x0) 0x6e-0x6e.7 (1)
0x60|                                             03|               .|                x: 3 0x6f-0x6f.7 (1)
    |                                               |                |            [4]{}: ex 0x70-0x76.7 (7)
    |                                               |                |              nm{}: 0x70-0x74.7 (5)
0x70|04                                             |.               |                n: 4 0x70-0x70.7 (1)
0x70|   67 72 6f 77                                 | grow           |                b: "grow" 0x71-0x74.7 (4)
    |                                               |                |              d{}: 0x75-0x76.7 (2)
0x70|               00                              |     .          |                tag: "funcidx" (0x0) 0x75-0x75.7 (1)
0x70|                  04                           |      .         |                x: 4 0x76-0x76.7 (1)
    |                                               |                |            [5]{}: ex 0x77-0x7d.7 (7)
    |                                               |                |              nm{}: 0x77-0x7b.7 (5)
0x70|                     04                        |       .        |                n: 4 0x77-0x77.7 (1)
0x70|                        73 69 7a 65            |        size    |                b: "size" 0x78-0x7b.7 (4)
    |                                               |                |              d{}: 0x7c-0x7d.7 (2)
0x70|                                    00         |            .   |                tag: "funcidx" (0x0) 0x7c-0x7c.7 (1)
0x70|                                       05      |             .  |                x: 5 0x7d-0x7d.7 (1)
    |                                               |                |    [4]{}: section 0x7e-0xb4.7 (55)
0x70|                                          0a   |              . |      id: "code section" (10) 0x7e-0x7e.7 (1)
0x70|                                             35|               5|      size: 53 0x7f-0x7f.7 (1)
    |                                               |                |      content{}: 0x80-0xb4.7 (53)
    |                                               |                |        code{}: 0x80-0xb4.7 (53)
0x80|06                                             |.               |          n: 6 0x80-0x80.7 (1)
    |                                               |                |          x[0:6]: 0x81-0xb4.7 (52)
    |                                               |                |            [0]{}: code 0x81-0x88.7 (8)
0x80|   07                                          | .              |              size: 7 0x81-0x81.7 (1)
    |                                               |                |              code{}: 0x82-0x88.7 (7)
    |                                               |                |                t{}: 0x82-0x82.7 (1)
0x80|      00                                       |  .             |                  n: 0 0x82-0x82.7 (1)
    |                                               |                |                  x[0:0]: 0x83-NA (0)
    |                                               |                |                e[0:3]: 0x83-0x88.7 (6)
    |                                               |                |                  [0]{}: in 0x83-0x84.7 (2)
0x80|         41                                    |   A            |                    i32.const: 0x41 (valid) 0x83-0x83.7 (1)
0x80|            00                                 |    .           |                    n: 0 0x84-0x84.7 (1)
    |                                               |                |                  [1]{}: in 0x85-0x87.7 (3)
0x80|               28                              |     (          |                    i32.load: 0x28 (valid) 0x85-0x85.7 (1)
    |                                               |                |                    m{}: 0x86-0x87.7 (2)
0x80|                  02                           |      .         |                      a: 2 0x86-0x86.7 (1)
0x80|                     00                        |       .        |                      o: 0 0x87-0x87.7 (1)
    |                                               |                |                  [2]{}: in 0x88-0x88.7 (1)
0x80|                        0b                     |        .       |                    end: 0xb (valid) 0x88-0x88.7 (1)
    |                                               |                |            [1]{}: code 0x89-0x92.7 (10)
0x80|                           09                  |         .      |              size: 9 0x89-0x89.7 (1)
    |                                               |                |              code{}: 0x8a-0x92.7 (9)
    |                                               |                |                t{}: 0x8a-0x8a.7 (1)
0x80|                              00               |          .     |                  n: 0 0x8a-0x8a.7 (1)
    |                                               |                |                  x[0:0]: 0x8b-NA (0)
    |                                               |                |                e[0:4]: 0x8b-0x92.7 (8)
    |                                               |                |                  [0]{}: in 0x8b-0x8c.7 (2)
0x80|                                 41            |           A    |                    i32.const: 0x41 (valid) 0x8b-0x8b.7 (1)
0x80|                                    00         |            .   |                    n: 0 0x8c-0x8c.7 (1)
    |                                               |                |                  [1]{}: in 0x8d-0x8e.7 (2)
0x80|                                       41      |             A  |                    i32.const: 0x41 (valid) 0x8d-0x8d.7 (1)
0x80|                                          02   |              . |                    n: 2 0x8e-0x8e.7 (1)
    |                                               |                |                  [2]{}: in 0x8f-0x91.7 (3)
0x80|                                             36|               6|                    i32.store: 0x36 (valid) 0x8f-0x8f.7 (1)
    |                                               |                |                    m{}: 0x90-0x91.7 (2)
0x90|02                                             |.               |                      a: 2 0x90-0x90.7 (1)
0x90|   00                                          | .              |                      o: 0 0x91-0x91.7 (1)
    |                                               |                |                  [3]{}: in 0x92-0x92.7 (1)
0x90|      0b                                       |  .             |                    end: 0xb (valid) 0x92-0x92.7 (1)
    |                                               |                |            [2]{}: code 0x93-0x9c.7 (10)
0x90|         09                                    |   .            |              size: 9 0x93-0x93.7 (1)
    |                                               |                |              code{}: 0x94-0x9c.7 (9)
    |                                               |                |                t{}: 0x94-0x94.7 (1)
0x90|            00                                 |    .           |                  n: 0 0x94-0x94.7 (1)
    |                                               |                |                  x[0:0]: 0x95-NA (0)
    |                                               |                |                e[0:3]: 0x95-0x9c.7 (8)
    |                                               |                |                  [0]{}: in 0x95-0x98.7 (4)
0x90|               41                              |     A          |                    i32.const: 0x41 (valid) 0x95-0x95.7 (1)
0x90|                  80 80 04                     |      ...       |                    n: 65536 0x96-0x98.7 (3)
    |                                               |                |                  [1]{}: in 0x99-0x9b.7 (3)
0x90|                           28                  |         (      |                    i32.load: 0x28 (valid) 0x99-0x99.7 (1)
    |                                               |                |                    m{}: 0x9a-0x9b.7 (2)
0x90|                              02               |          .     |                      a: 2 0x9a-0x9a.7 (1)
0x90|                                 00            |           .    |                      o: 0 0x9b-0x9b.7 (1)
    |                                               |                |                  [2]{}: in 0x9c-0x9c.7 (1)
0x90|                                    0b         |            .   |                    end: 0xb (valid) 0x9c-0x9c.7 (1)
    |                                               |                |            [3]{}: code 0x9d-0xa8.7 (12)
0x90|                                       0b      |             .  |              size: 11 0x9d-0x9d.7 (1)
    |                                               |                |              code{}: 0x9e-0xa8.7 (11)
    |                                               |                |                t{}: 0x9e-0x9e.7 (1)
0x90|                                          00   |              . |                  n: 0 0x9e-0x9e.7 (1)
    |                                               |                |                  x[0:0]: 0x9f-NA (0)
    |                                               |                |                e[0:4]: 0x9f-0xa8.7 (10)
    |                                               |                |                  [0]{}: in 0x9f-0xa2.7 (4)
0x90|                                             41|               A|                    i32.const: 0x41 (valid) 0x9f-0x9f.7 (1)
0xa0|80 80 04                                       |...             |                    n: 65536 0xa0-0xa2.7 (3)
    |                                               |                |                  [1]{}: in 0xa3-0xa4.7 (2)
0xa0|         41                                    |   A            |                    i32.const: 0x41 (valid) 0xa3-0xa3.7 (1)
0xa0|            03                                 |    .           |                    n: 3 0xa4-0xa4.7 (1)
    |                                               |                |                  [2]{}: in 0xa5-0xa7.7 (3)
0xa0|               36                              |     6          |                    i32.store: 0x36 (valid) 0xa5-0xa5.7 (1)
    |                                               |                |                    m{}: 0xa6-0xa7.7 (2)
0xa0|                  02                           |      .         |                      a: 2 0xa6-0xa6.7 (1)
0xa0|                     00                        |       .        |                      o: 0 0xa7-0xa7.7 (1)
    |                                               |                |                  [3]{}: in 0xa8-0xa8.7 (1)
0xa0|                        0b                     |        .       |                    end: 0xb (valid) 0xa8-0xa8.7 (1)
    |                                               |                |            [4]{}: code 0xa9-0xaf.7 (7)
0xa0|                           06                  |         .      |              size: 6 0xa9-0xa9.7 (1)
    |                                               |                |              code{}: 0xaa-0xaf.7 (6)
    |                                               |                |                t{}: 0xaa-0xaa.7 (1)
0xa0|                              00               |          .     |                  n: 0 0xaa-0xaa.7 (1)
    |                                               |                |                  x[0:0]: 0xab-NA (0)
    |                                               |                |                e[0:3]: 0xab-0xaf.7 (5)
    |                                               |                |                  [0]{}: in 0xab-0xac.7 (2)
0xa0|                                 20            |                |                    local.get: 0x20 (valid) 0xab-0xab.7 (1)
0xa0|                                    00         |            .   |                    x: 0 0xac-0xac.7 (1)
    |                                               |                |                  [1]{}: in 0xad-0xae.7 (2)
0xa0|                                       40      |             @  |                    memory.grow: 0x40 (valid) 0xad-0xad.7 (1)
0xa0|                                          00   |              . |                    reserved: 0x0 (valid) 0xae-0xae.7 (1)
    |                                               |                |                  [2]{}: in 0xaf-0xaf.7 (1)
0xa0|                                             0b|               .|                    end: 0xb (valid) 0xaf-0xaf.7 (1)
    |                                               |                |            [5]{}: code 0xb0-0xb4.7 (5)
0xb0|04                                             |.               |              size: 4 0xb0-0xb0.7 (1)
    |                                               |                |              code{}: 0xb1-0xb4.7 (4)
    |                                               |                |                t{}: 0xb1-0xb1.7 (1)
0xb0|   00                                          | .              |                  n: 0 0xb1-0xb1.7 (1)
    |                                               |                |                  x[0:0]: 0xb2-NA (0)
    |                                               |                |                e[0:2]: 0xb2-0xb4.7 (3)
    |                                               |                |                  [0]{}: in 0xb2-0xb3.7 (2)
0xb0|      3f                                       |  ?             |                    memory.size: 0x3f (valid) 0xb2-0xb2.7 (1)
0xb0|         00                                    |   .            |                    reserved: 0x0 (valid) 0xb3-0xb3.7 (1)
    |                                               |                |                  [1]{}: in 0xb4-0xb4.7 (1)
0xb0|            0b|                                |    .|          |                    end: 0xb (valid) 0xb4-0xb4.7 (1)
