$ fq -d wasm dv memory_grow-2.wasm
    |00 01 02 03 04 05 06 07 08 09 0a 0b 0c 0d 0e 0f|0123456789abcdef|.{}: memory_grow-2.wasm (wasm) 0x0-0x2e (46)
0x00|00 61 73 6d                                    |.asm            |  magic: raw bits (valid) 0x0-0x4 (4)
0x00|            01 00 00 00                        |    ....        |  version: 1 0x4-0x8 (4)
    |                                               |                |  sections[0:5]: 0x8-0x2e (38)
    |                                               |                |    [0]{}: section 0x8-0x10 (8)
0x00|                        01                     |        .       |      id: "type_section" (1) 0x8-0x9 (1)
0x00|                           06                  |         .      |      size: 6 (valid) 0x9-0xa (1)
    |                                               |                |      content{}: 0xa-0x10 (6)
    |                                               |                |        ft{}: 0xa-0x10 (6)
0x00|                              01               |          .     |          n: 1 (valid) 0xa-0xb (1)
    |                                               |                |          x[0:1]: 0xb-0x10 (5)
    |                                               |                |            [0]{}: ft 0xb-0x10 (5)
0x00|                                 60            |           `    |              tag: 0x60 (valid) 0xb-0xc (1)
    |                                               |                |              rt1{}: 0xc-0xe (2)
0x00|                                    01         |            .   |                n: 1 (valid) 0xc-0xd (1)
    |                                               |                |                x[0:1]: 0xd-0xe (1)
0x00|                                       7f      |             .  |                  [0]: "i32" (0x7f) t 0xd-0xe (1)
    |                                               |                |              rt2{}: 0xe-0x10 (2)
0x00|                                          01   |              . |                n: 1 (valid) 0xe-0xf (1)
    |                                               |                |                x[0:1]: 0xf-0x10 (1)
0x00|                                             7f|               .|                  [0]: "i32" (0x7f) t 0xf-0x10 (1)
    |                                               |                |    [1]{}: section 0x10-0x14 (4)
0x10|03                                             |.               |      id: "function_section" (3) 0x10-0x11 (1)
0x10|   02                                          | .              |      size: 2 (valid) 0x11-0x12 (1)
    |                                               |                |      content{}: 0x12-0x14 (2)
    |                                               |                |        x{}: 0x12-0x14 (2)
0x10|      01                                       |  .             |          n: 1 (valid) 0x12-0x13 (1)
    |                                               |                |          x[0:1]: 0x13-0x14 (1)
0x10|         00                                    |   .            |            [0]: 0 x (valid) 0x13-0x14 (1)
    |                                               |                |    [2]{}: section 0x14-0x1a (6)
0x10|            05                                 |    .           |      id: "memory_section" (5) 0x14-0x15 (1)
0x10|               04                              |     .          |      size: 4 (valid) 0x15-0x16 (1)
    |                                               |                |      content{}: 0x16-0x1a (4)
    |                                               |                |        mem{}: 0x16-0x1a (4)
0x10|                  01                           |      .         |          n: 1 (valid) 0x16-0x17 (1)
    |                                               |                |          x[0:1]: 0x17-0x1a (3)
    |                                               |                |            [0]{}: mem 0x17-0x1a (3)
    |                                               |                |              lim{}: 0x17-0x1a (3)
0x10|                     01                        |       .        |                tag: 0x1 0x17-0x18 (1)
0x10|                        00                     |        .       |                n: 0 (valid) 0x18-0x19 (1)
0x10|                           0a                  |         .      |                m: 10 (valid) 0x19-0x1a (1)
    |                                               |                |    [3]{}: section 0x1a-0x24 (10)
0x10|                              07               |          .     |      id: "export_section" (7) 0x1a-0x1b (1)
0x10|                                 08            |           .    |      size: 8 (valid) 0x1b-0x1c (1)
    |                                               |                |      content{}: 0x1c-0x24 (8)
    |                                               |                |        ex{}: 0x1c-0x24 (8)
0x10|                                    01         |            .   |          n: 1 (valid) 0x1c-0x1d (1)
    |                                               |                |          x[0:1]: 0x1d-0x24 (7)
    |                                               |                |            [0]{}: ex 0x1d-0x24 (7)
    |                                               |                |              nm{}: 0x1d-0x22 (5)
0x10|                                       04      |             .  |                n: 4 (valid) 0x1d-0x1e (1)
0x10|                                          67 72|              gr|                b: "grow" 0x1e-0x22 (4)
0x20|6f 77                                          |ow              |
    |                                               |                |              d{}: 0x22-0x24 (2)
0x20|      00                                       |  .             |                tag: "funcidx" (0x0) 0x22-0x23 (1)
0x20|         00                                    |   .            |                x: 0 (valid) 0x23-0x24 (1)
    |                                               |                |    [4]{}: section 0x24-0x2e (10)
0x20|            0a                                 |    .           |      id: "code_section" (10) 0x24-0x25 (1)
0x20|               08                              |     .          |      size: 8 (valid) 0x25-0x26 (1)
    |                                               |                |      content{}: 0x26-0x2e (8)
    |                                               |                |        code{}: 0x26-0x2e (8)
0x20|                  01                           |      .         |          n: 1 (valid) 0x26-0x27 (1)
    |                                               |                |          x[0:1]: 0x27-0x2e (7)
    |                                               |                |            [0]{}: code 0x27-0x2e (7)
0x20|                     06                        |       .        |              size: 6 (valid) 0x27-0x28 (1)
    |                                               |                |              code{}: 0x28-0x2e (6)
    |                                               |                |                t{}: 0x28-0x29 (1)
0x20|                        00                     |        .       |                  n: 0 (valid) 0x28-0x29 (1)
    |                                               |                |                  x[0:0]: 0x29-0x29 (0)
    |                                               |                |                e[0:3]: 0x29-0x2e (5)
    |                                               |                |                  [0]{}: in 0x29-0x2b (2)
0x20|                           20                  |                |                    opcode: "local.get" (0x20) 0x29-0x2a (1)
0x20|                              00               |          .     |                    x: 0 (valid) 0x2a-0x2b (1)
    |                                               |                |                  [1]{}: in 0x2b-0x2d (2)
0x20|                                 40            |           @    |                    opcode: "memory.grow" (0x40) 0x2b-0x2c (1)
0x20|                                    00         |            .   |                    reserved: 0x0 (valid) 0x2c-0x2d (1)
    |                                               |                |                  [2]{}: in 0x2d-0x2e (1)
0x20|                                       0b|     |             .| |                    opcode: "end" (0xb) 0x2d-0x2e (1)
