$ fq -d wasm dv memory-9.wasm
     |00 01 02 03 04 05 06 07 08 09 0a 0b 0c 0d 0e 0f|0123456789abcdef|.{}: memory-9.wasm (wasm) 0x0-0x20d (525)
0x000|00 61 73 6d                                    |.asm            |  magic: raw bits (valid) 0x0-0x4 (4)
0x000|            01 00 00 00                        |    ....        |  version: 1 0x4-0x8 (4)
     |                                               |                |  sections[0:6]: 0x8-0x20d (517)
     |                                               |                |    [0]{}: section 0x8-0x1d (21)
0x000|                        01                     |        .       |      id: "type_section" (1) 0x8-0x9 (1)
0x000|                           13                  |         .      |      size: 19 (valid) 0x9-0xa (1)
     |                                               |                |      content{}: 0xa-0x1d (19)
     |                                               |                |        ft{}: 0xa-0x1d (19)
0x000|                              04               |          .     |          n: 4 (valid) 0xa-0xb (1)
     |                                               |                |          x[0:4]: 0xb-0x1d (18)
     |                                               |                |            [0]{}: ft 0xb-0xf (4)
0x000|                                 60            |           `    |              tag: 0x60 (valid) 0xb-0xc (1)
     |                                               |                |              rt1{}: 0xc-0xd (1)
0x000|                                    00         |            .   |                n: 0 (valid) 0xc-0xd (1)
     |                                               |                |                x[0:0]: 0xd-0xd (0)
     |                                               |                |              rt2{}: 0xd-0xf (2)
0x000|                                       01      |             .  |                n: 1 (valid) 0xd-0xe (1)
     |                                               |                |                x[0:1]: 0xe-0xf (1)
0x000|                                          7f   |              . |                  [0]: "i32" (0x7f) t 0xe-0xf (1)
     |                                               |                |            [1]{}: ft 0xf-0x13 (4)
0x000|                                             60|               `|              tag: 0x60 (valid) 0xf-0x10 (1)
     |                                               |                |              rt1{}: 0x10-0x11 (1)
0x010|00                                             |.               |                n: 0 (valid) 0x10-0x11 (1)
     |                                               |                |                x[0:0]: 0x11-0x11 (0)
     |                                               |                |              rt2{}: 0x11-0x13 (2)
0x010|   01                                          | .              |                n: 1 (valid) 0x11-0x12 (1)
     |                                               |                |                x[0:1]: 0x12-0x13 (1)
0x010|      7c                                       |  |             |                  [0]: "f64" (0x7c) t 0x12-0x13 (1)
     |                                               |                |            [2]{}: ft 0x13-0x18 (5)
0x010|         60                                    |   `            |              tag: 0x60 (valid) 0x13-0x14 (1)
     |                                               |                |              rt1{}: 0x14-0x16 (2)
0x010|            01                                 |    .           |                n: 1 (valid) 0x14-0x15 (1)
     |                                               |                |                x[0:1]: 0x15-0x16 (1)
0x010|               7f                              |     .          |                  [0]: "i32" (0x7f) t 0x15-0x16 (1)
     |                                               |                |              rt2{}: 0x16-0x18 (2)
0x010|                  01                           |      .         |                n: 1 (valid) 0x16-0x17 (1)
     |                                               |                |                x[0:1]: 0x17-0x18 (1)
0x010|                     7f                        |       .        |                  [0]: "i32" (0x7f) t 0x17-0x18 (1)
     |                                               |                |            [3]{}: ft 0x18-0x1d (5)
0x010|                        60                     |        `       |              tag: 0x60 (valid) 0x18-0x19 (1)
     |                                               |                |              rt1{}: 0x19-0x1b (2)
0x010|                           01                  |         .      |                n: 1 (valid) 0x19-0x1a (1)
     |                                               |                |                x[0:1]: 0x1a-0x1b (1)
0x010|                              7e               |          ~     |                  [0]: "i64" (0x7e) t 0x1a-0x1b (1)
     |                                               |                |              rt2{}: 0x1b-0x1d (2)
0x010|                                 01            |           .    |                n: 1 (valid) 0x1b-0x1c (1)
     |                                               |                |                x[0:1]: 0x1c-0x1d (1)
0x010|                                    7e         |            ~   |                  [0]: "i64" (0x7e) t 0x1c-0x1d (1)
     |                                               |                |    [1]{}: section 0x1d-0x2c (15)
0x010|                                       03      |             .  |      id: "function_section" (3) 0x1d-0x1e (1)
0x010|                                          0d   |              . |      size: 13 (valid) 0x1e-0x1f (1)
     |                                               |                |      content{}: 0x1f-0x2c (13)
     |                                               |                |        x{}: 0x1f-0x2c (13)
0x010|                                             0c|               .|          n: 12 (valid) 0x1f-0x20 (1)
     |                                               |                |          x[0:12]: 0x20-0x2c (12)
0x020|00                                             |.               |            [0]: 0 x (valid) 0x20-0x21 (1)
0x020|   01                                          | .              |            [1]: 1 x (valid) 0x21-0x22 (1)
0x020|      02                                       |  .             |            [2]: 2 x (valid) 0x22-0x23 (1)
0x020|         02                                    |   .            |            [3]: 2 x (valid) 0x23-0x24 (1)
0x020|            02                                 |    .           |            [4]: 2 x (valid) 0x24-0x25 (1)
0x020|               02                              |     .          |            [5]: 2 x (valid) 0x25-0x26 (1)
0x020|                  03                           |      .         |            [6]: 3 x (valid) 0x26-0x27 (1)
0x020|                     03                        |       .        |            [7]: 3 x (valid) 0x27-0x28 (1)
0x020|                        03                     |        .       |            [8]: 3 x (valid) 0x28-0x29 (1)
0x020|                           03                  |         .      |            [9]: 3 x (valid) 0x29-0x2a (1)
0x020|                              03               |          .     |            [10]: 3 x (valid) 0x2a-0x2b (1)
0x020|                                 03            |           .    |            [11]: 3 x (valid) 0x2b-0x2c (1)
     |                                               |                |    [2]{}: section 0x2c-0x31 (5)
0x020|                                    05         |            .   |      id: "memory_section" (5) 0x2c-0x2d (1)
0x020|                                       03      |             .  |      size: 3 (valid) 0x2d-0x2e (1)
     |                                               |                |      content{}: 0x2e-0x31 (3)
     |                                               |                |        mem{}: 0x2e-0x31 (3)
0x020|                                          01   |              . |          n: 1 (valid) 0x2e-0x2f (1)
     |                                               |                |          x[0:1]: 0x2f-0x31 (2)
     |                                               |                |            [0]{}: mem 0x2f-0x31 (2)
     |                                               |                |              lim{}: 0x2f-0x31 (2)
0x020|                                             00|               .|                tag: 0x0 0x2f-0x30 (1)
0x030|01                                             |.               |                n: 1 (valid) 0x30-0x31 (1)
     |                                               |                |    [3]{}: section 0x31-0xd5 (164)
0x030|   07                                          | .              |      id: "export_section" (7) 0x31-0x32 (1)
0x030|      a1 01                                    |  ..            |      size: 161 (valid) 0x32-0x34 (2)
     |                                               |                |      content{}: 0x34-0xd5 (161)
     |                                               |                |        ex{}: 0x34-0xd5 (161)
0x030|            0c                                 |    .           |          n: 12 (valid) 0x34-0x35 (1)
     |                                               |                |          x[0:12]: 0x35-0xd5 (160)
     |                                               |                |            [0]{}: ex 0x35-0x3c (7)
     |                                               |                |              nm{}: 0x35-0x3a (5)
0x030|               04                              |     .          |                n: 4 (valid) 0x35-0x36 (1)
0x030|                  64 61 74 61                  |      data      |                b: "data" 0x36-0x3a (4)
     |                                               |                |              d{}: 0x3a-0x3c (2)
0x030|                              00               |          .     |                tag: "funcidx" (0x0) 0x3a-0x3b (1)
0x030|                                 00            |           .    |                x: 0 (valid) 0x3b-0x3c (1)
     |                                               |                |            [1]{}: ex 0x3c-0x43 (7)
     |                                               |                |              nm{}: 0x3c-0x41 (5)
0x030|                                    04         |            .   |                n: 4 (valid) 0x3c-0x3d (1)
0x030|                                       63 61 73|             cas|                b: "cast" 0x3d-0x41 (4)
0x040|74                                             |t               |
     |                                               |                |              d{}: 0x41-0x43 (2)
0x040|   00                                          | .              |                tag: "funcidx" (0x0) 0x41-0x42 (1)
0x040|      01                                       |  .             |                x: 1 (valid) 0x42-0x43 (1)
     |                                               |                |            [2]{}: ex 0x43-0x51 (14)
     |                                               |                |              nm{}: 0x43-0x4f (12)
0x040|         0b                                    |   .            |                n: 11 (valid) 0x43-0x44 (1)
0x040|            69 33 32 5f 6c 6f 61 64 38 5f 73   |    i32_load8_s |                b: "i32_load8_s" 0x44-0x4f (11)
     |                                               |                |              d{}: 0x4f-0x51 (2)
0x040|                                             00|               .|                tag: "funcidx" (0x0) 0x4f-0x50 (1)
0x050|02                                             |.               |                x: 2 (valid) 0x50-0x51 (1)
     |                                               |                |            [3]{}: ex 0x51-0x5f (14)
     |                                               |                |              nm{}: 0x51-0x5d (12)
0x050|   0b                                          | .              |                n: 11 (valid) 0x51-0x52 (1)
0x050|      69 33 32 5f 6c 6f 61 64 38 5f 75         |  i32_load8_u   |                b: "i32_load8_u" 0x52-0x5d (11)
     |                                               |                |              d{}: 0x5d-0x5f (2)
0x050|                                       00      |             .  |                tag: "funcidx" (0x0) 0x5d-0x5e (1)
0x050|                                          03   |              . |                x: 3 (valid) 0x5e-0x5f (1)
     |                                               |                |            [4]{}: ex 0x5f-0x6e (15)
     |                                               |                |              nm{}: 0x5f-0x6c (13)
0x050|                                             0c|               .|                n: 12 (valid) 0x5f-0x60 (1)
0x060|69 33 32 5f 6c 6f 61 64 31 36 5f 73            |i32_load16_s    |                b: "i32_load16_s" 0x60-0x6c (12)
     |                                               |                |              d{}: 0x6c-0x6e (2)
0x060|                                    00         |            .   |                tag: "funcidx" (0x0) 0x6c-0x6d (1)
0x060|                                       04      |             .  |                x: 4 (valid) 0x6d-0x6e (1)
     |                                               |                |            [5]{}: ex 0x6e-0x7d (15)
     |                                               |                |              nm{}: 0x6e-0x7b (13)
0x060|                                          0c   |              . |                n: 12 (valid) 0x6e-0x6f (1)
0x060|                                             69|               i|                b: "i32_load16_u" 0x6f-0x7b (12)
0x070|33 32 5f 6c 6f 61 64 31 36 5f 75               |32_load16_u     |
     |                                               |                |              d{}: 0x7b-0x7d (2)
0x070|                                 00            |           .    |                tag: "funcidx" (0x0) 0x7b-0x7c (1)
0x070|                                    05         |            .   |                x: 5 (valid) 0x7c-0x7d (1)
     |                                               |                |            [6]{}: ex 0x7d-0x8b (14)
     |                                               |                |              nm{}: 0x7d-0x89 (12)
0x070|                                       0b      |             .  |                n: 11 (valid) 0x7d-0x7e (1)
0x070|                                          69 36|              i6|                b: "i64_load8_s" 0x7e-0x89 (11)
0x080|34 5f 6c 6f 61 64 38 5f 73                     |4_load8_s       |
     |                                               |                |              d{}: 0x89-0x8b (2)
0x080|                           00                  |         .      |                tag: "funcidx" (0x0) 0x89-0x8a (1)
0x080|                              06               |          .     |                x: 6 (valid) 0x8a-0x8b (1)
     |                                               |                |            [7]{}: ex 0x8b-0x99 (14)
     |                                               |                |              nm{}: 0x8b-0x97 (12)
0x080|                                 0b            |           .    |                n: 11 (valid) 0x8b-0x8c (1)
0x080|                                    69 36 34 5f|            i64_|                b: "i64_load8_u" 0x8c-0x97 (11)
0x090|6c 6f 61 64 38 5f 75                           |load8_u         |
     |                                               |                |              d{}: 0x97-0x99 (2)
0x090|                     00                        |       .        |                tag: "funcidx" (0x0) 0x97-0x98 (1)
0x090|                        07                     |        .       |                x: 7 (valid) 0x98-0x99 (1)
     |                                               |                |            [8]{}: ex 0x99-0xa8 (15)
     |                                               |                |              nm{}: 0x99-0xa6 (13)
0x090|                           0c                  |         .      |                n: 12 (valid) 0x99-0x9a (1)
0x090|                              69 36 34 5f 6c 6f|          i64_lo|                b: "i64_load16_s" 0x9a-0xa6 (12)
0x0a0|61 64 31 36 5f 73                              |ad16_s          |
     |                                               |                |              d{}: 0xa6-0xa8 (2)
0x0a0|                  00                           |      .         |                tag: "funcidx" (0x0) 0xa6-0xa7 (1)
0x0a0|                     08                        |       .        |                x: 8 (valid) 0xa7-0xa8 (1)
     |                                               |                |            [9]{}: ex 0xa8-0xb7 (15)
     |                                               |                |              nm{}: 0xa8-0xb5 (13)
0x0a0|                        0c                     |        .       |                n: 12 (valid) 0xa8-0xa9 (1)
0x0a0|                           69 36 34 5f 6c 6f 61|         i64_loa|                b: "i64_load16_u" 0xa9-0xb5 (12)
0x0b0|64 31 36 5f 75                                 |d16_u           |
     |                                               |                |              d{}: 0xb5-0xb7 (2)
0x0b0|               00                              |     .          |                tag: "funcidx" (0x0) 0xb5-0xb6 (1)
0x0b0|                  09                           |      .         |                x: 9 (valid) 0xb6-0xb7 (1)
     |                                               |                |            [10]{}: ex 0xb7-0xc6 (15)
     |                                               |                |              nm{}: 0xb7-0xc4 (13)
0x0b0|                     0c                        |       .        |                n: 12 (valid) 0xb7-0xb8 (1)
0x0b0|                        69 36 34 5f 6c 6f 61 64|        i64_load|                b: "i64_load32_s" 0xb8-0xc4 (12)
0x0c0|33 32 5f 73                                    |32_s            |
     |                                               |                |              d{}: 0xc4-0xc6 (2)
0x0c0|            00                                 |    .           |                tag: "funcidx" (0x0) 0xc4-0xc5 (1)
0x0c0|               0a                              |     .          |                x: 10 (valid) 0xc5-0xc6 (1)
     |                                               |                |            [11]{}: ex 0xc6-0xd5 (15)
     |                                               |                |              nm{}: 0xc6-0xd3 (13)
0x0c0|                  0c                           |      .         |                n: 12 (valid) 0xc6-0xc7 (1)
0x0c0|                     69 36 34 5f 6c 6f 61 64 33|       i64_load3|                b: "i64_load32_u" 0xc7-0xd3 (12)
0x0d0|32 5f 75                                       |2_u             |
     |                                               |                |              d{}: 0xd3-0xd5 (2)
0x0d0|         00                                    |   .            |                tag: "funcidx" (0x0) 0xd3-0xd4 (1)
0x0d0|            0b                                 |    .           |                x: 11 (valid) 0xd4-0xd5 (1)
     |                                               |                |    [4]{}: section 0xd5-0x1f7 (290)
0x0d0|               0a                              |     .          |      id: "code_section" (10) 0xd5-0xd6 (1)
0x0d0|                  9f 02                        |      ..        |      size: 287 (valid) 0xd6-0xd8 (2)
     |                                               |                |      content{}: 0xd8-0x1f7 (287)
     |                                               |                |        code{}: 0xd8-0x1f7 (287)
0x0d0|                        0c                     |        .       |          n: 12 (valid) 0xd8-0xd9 (1)
     |                                               |                |          x[0:12]: 0xd9-0x1f7 (286)
     |                                               |                |            [0]{}: code 0xd9-0x128 (79)
0x0d0|                           4e                  |         N      |              size: 78 (valid) 0xd9-0xda (1)
     |                                               |                |              code{}: 0xda-0x128 (78)
     |                                               |                |                t{}: 0xda-0xdb (1)
0x0d0|                              00               |          .     |                  n: 0 (valid) 0xda-0xdb (1)
     |                                               |                |                  x[0:0]: 0xdb-0xdb (0)
     |                                               |                |                e[0:40]: 0xdb-0x128 (77)
     |                                               |                |                  [0]{}: in 0xdb-0xdd (2)
0x0d0|                                 41            |           A    |                    opcode: "i32.const" (0x41) 0xdb-0xdc (1)
0x0d0|                                    00         |            .   |                    n: 0 (valid) 0xdc-0xdd (1)
     |                                               |                |                  [1]{}: in 0xdd-0xe0 (3)
0x0d0|                                       2d      |             -  |                    opcode: "i32.load8_u" (0x2d) 0xdd-0xde (1)
     |                                               |                |                    m{}: 0xde-0xe0 (2)
0x0d0|                                          00   |              . |                      a: 0 (valid) 0xde-0xdf (1)
0x0d0|                                             00|               .|                      o: 0 (valid) 0xdf-0xe0 (1)
     |                                               |                |                  [2]{}: in 0xe0-0xe3 (3)
0x0e0|41                                             |A               |                    opcode: "i32.const" (0x41) 0xe0-0xe1 (1)
0x0e0|   c1 00                                       | ..             |                    n: 65 (valid) 0xe1-0xe3 (2)
     |                                               |                |                  [3]{}: in 0xe3-0xe4 (1)
0x0e0|         46                                    |   F            |                    opcode: "i32.eq" (0x46) 0xe3-0xe4 (1)
     |                                               |                |                  [4]{}: in 0xe4-0xe6 (2)
0x0e0|            41                                 |    A           |                    opcode: "i32.const" (0x41) 0xe4-0xe5 (1)
0x0e0|               03                              |     .          |                    n: 3 (valid) 0xe5-0xe6 (1)
     |                                               |                |                  [5]{}: in 0xe6-0xe9 (3)
0x0e0|                  2d                           |      -         |                    opcode: "i32.load8_u" (0x2d) 0xe6-0xe7 (1)
     |                                               |                |                    m{}: 0xe7-0xe9 (2)
0x0e0|                     00                        |       .        |                      a: 0 (valid) 0xe7-0xe8 (1)
0x0e0|                        00                     |        .       |                      o: 0 (valid) 0xe8-0xe9 (1)
     |                                               |                |                  [6]{}: in 0xe9-0xec (3)
0x0e0|                           41                  |         A      |                    opcode: "i32.const" (0x41) 0xe9-0xea (1)
0x0e0|                              a7 01            |          ..    |                    n: 167 (valid) 0xea-0xec (2)
     |                                               |                |                  [7]{}: in 0xec-0xed (1)
0x0e0|                                    46         |            F   |                    opcode: "i32.eq" (0x46) 0xec-0xed (1)
     |                                               |                |                  [8]{}: in 0xed-0xee (1)
0x0e0|                                       71      |             q  |                    opcode: "i32.and" (0x71) 0xed-0xee (1)
     |                                               |                |                  [9]{}: in 0xee-0xf0 (2)
0x0e0|                                          41   |              A |                    opcode: "i32.const" (0x41) 0xee-0xef (1)
0x0e0|                                             06|               .|                    n: 6 (valid) 0xef-0xf0 (1)
     |                                               |                |                  [10]{}: in 0xf0-0xf3 (3)
0x0f0|2d                                             |-               |                    opcode: "i32.load8_u" (0x2d) 0xf0-0xf1 (1)
     |                                               |                |                    m{}: 0xf1-0xf3 (2)
0x0f0|   00                                          | .              |                      a: 0 (valid) 0xf1-0xf2 (1)
0x0f0|      00                                       |  .             |                      o: 0 (valid) 0xf2-0xf3 (1)
     |                                               |                |                  [11]{}: in 0xf3-0xf5 (2)
0x0f0|         41                                    |   A            |                    opcode: "i32.const" (0x41) 0xf3-0xf4 (1)
0x0f0|            00                                 |    .           |                    n: 0 (valid) 0xf4-0xf5 (1)
     |                                               |                |                  [12]{}: in 0xf5-0xf6 (1)
0x0f0|               46                              |     F          |                    opcode: "i32.eq" (0x46) 0xf5-0xf6 (1)
     |                                               |                |                  [13]{}: in 0xf6-0xf8 (2)
0x0f0|                  41                           |      A         |                    opcode: "i32.const" (0x41) 0xf6-0xf7 (1)
0x0f0|                     13                        |       .        |                    n: 19 (valid) 0xf7-0xf8 (1)
     |                                               |                |                  [14]{}: in 0xf8-0xfb (3)
0x0f0|                        2d                     |        -       |                    opcode: "i32.load8_u" (0x2d) 0xf8-0xf9 (1)
     |                                               |                |                    m{}: 0xf9-0xfb (2)
0x0f0|                           00                  |         .      |                      a: 0 (valid) 0xf9-0xfa (1)
0x0f0|                              00               |          .     |                      o: 0 (valid) 0xfa-0xfb (1)
     |                                               |                |                  [15]{}: in 0xfb-0xfd (2)
0x0f0|                                 41            |           A    |                    opcode: "i32.const" (0x41) 0xfb-0xfc (1)
0x0f0|                                    00         |            .   |                    n: 0 (valid) 0xfc-0xfd (1)
     |                                               |                |                  [16]{}: in 0xfd-0xfe (1)
0x0f0|                                       46      |             F  |                    opcode: "i32.eq" (0x46) 0xfd-0xfe (1)
     |                                               |                |                  [17]{}: in 0xfe-0xff (1)
0x0f0|                                          71   |              q |                    opcode: "i32.and" (0x71) 0xfe-0xff (1)
     |                                               |                |                  [18]{}: in 0xff-0x100 (1)
0x0f0|                                             71|               q|                    opcode: "i32.and" (0x71) 0xff-0x100 (1)
     |                                               |                |                  [19]{}: in 0x100-0x102 (2)
0x100|41                                             |A               |                    opcode: "i32.const" (0x41) 0x100-0x101 (1)
0x100|   14                                          | .              |                    n: 20 (valid) 0x101-0x102 (1)
     |                                               |                |                  [20]{}: in 0x102-0x105 (3)
0x100|      2d                                       |  -             |                    opcode: "i32.load8_u" (0x2d) 0x102-0x103 (1)
     |                                               |                |                    m{}: 0x103-0x105 (2)
0x100|         00                                    |   .            |                      a: 0 (valid) 0x103-0x104 (1)
0x100|            00                                 |    .           |                      o: 0 (valid) 0x104-0x105 (1)
     |                                               |                |                  [21]{}: in 0x105-0x108 (3)
0x100|               41                              |     A          |                    opcode: "i32.const" (0x41) 0x105-0x106 (1)
0x100|                  d7 00                        |      ..        |                    n: 87 (valid) 0x106-0x108 (2)
     |                                               |                |                  [22]{}: in 0x108-0x109 (1)
0x100|                        46                     |        F       |                    opcode: "i32.eq" (0x46) 0x108-0x109 (1)
     |                                               |                |                  [23]{}: in 0x109-0x10b (2)
0x100|                           41                  |         A      |                    opcode: "i32.const" (0x41) 0x109-0x10a (1)
0x100|                              17               |          .     |                    n: 23 (valid) 0x10a-0x10b (1)
     |                                               |                |                  [24]{}: in 0x10b-0x10e (3)
0x100|                                 2d            |           -    |                    opcode: "i32.load8_u" (0x2d) 0x10b-0x10c (1)
     |                                               |                |                    m{}: 0x10c-0x10e (2)
0x100|                                    00         |            .   |                      a: 0 (valid) 0x10c-0x10d (1)
0x100|                                       00      |             .  |                      o: 0 (valid) 0x10d-0x10e (1)
     |                                               |                |                  [25]{}: in 0x10e-0x111 (3)
0x100|                                          41   |              A |                    opcode: "i32.const" (0x41) 0x10e-0x10f (1)
0x100|                                             cd|               .|                    n: 77 (valid) 0x10f-0x111 (2)
0x110|00                                             |.               |
     |                                               |                |                  [26]{}: in 0x111-0x112 (1)
0x110|   46                                          | F              |                    opcode: "i32.eq" (0x46) 0x111-0x112 (1)
     |                                               |                |                  [27]{}: in 0x112-0x113 (1)
0x110|      71                                       |  q             |                    opcode: "i32.and" (0x71) 0x112-0x113 (1)
     |                                               |                |                  [28]{}: in 0x113-0x115 (2)
0x110|         41                                    |   A            |                    opcode: "i32.const" (0x41) 0x113-0x114 (1)
0x110|            18                                 |    .           |                    n: 24 (valid) 0x114-0x115 (1)
     |                                               |                |                  [29]{}: in 0x115-0x118 (3)
0x110|               2d                              |     -          |                    opcode: "i32.load8_u" (0x2d) 0x115-0x116 (1)
     |                                               |                |                    m{}: 0x116-0x118 (2)
0x110|                  00                           |      .         |                      a: 0 (valid) 0x116-0x117 (1)
0x110|                     00                        |       .        |                      o: 0 (valid) 0x117-0x118 (1)
     |                                               |                |                  [30]{}: in 0x118-0x11a (2)
0x110|                        41                     |        A       |                    opcode: "i32.const" (0x41) 0x118-0x119 (1)
0x110|                           00                  |         .      |                    n: 0 (valid) 0x119-0x11a (1)
     |                                               |                |                  [31]{}: in 0x11a-0x11b (1)
0x110|                              46               |          F     |                    opcode: "i32.eq" (0x46) 0x11a-0x11b (1)
     |                                               |                |                  [32]{}: in 0x11b-0x11e (3)
0x110|                                 41            |           A    |                    opcode: "i32.const" (0x41) 0x11b-0x11c (1)
0x110|                                    ff 07      |            ..  |                    n: 1023 (valid) 0x11c-0x11e (2)
     |                                               |                |                  [33]{}: in 0x11e-0x121 (3)
0x110|                                          2d   |              - |                    opcode: "i32.load8_u" (0x2d) 0x11e-0x11f (1)
     |                                               |                |                    m{}: 0x11f-0x121 (2)
0x110|                                             00|               .|                      a: 0 (valid) 0x11f-0x120 (1)
0x120|00                                             |.               |                      o: 0 (valid) 0x120-0x121 (1)
     |                                               |                |                  [34]{}: in 0x121-0x123 (2)
0x120|   41                                          | A              |                    opcode: "i32.const" (0x41) 0x121-0x122 (1)
0x120|      00                                       |  .             |                    n: 0 (valid) 0x122-0x123 (1)
     |                                               |                |                  [35]{}: in 0x123-0x124 (1)
0x120|         46                                    |   F            |                    opcode: "i32.eq" (0x46) 0x123-0x124 (1)
     |                                               |                |                  [36]{}: in 0x124-0x125 (1)
0x120|            71                                 |    q           |                    opcode: "i32.and" (0x71) 0x124-0x125 (1)
     |                                               |                |                  [37]{}: in 0x125-0x126 (1)
0x120|               71                              |     q          |                    opcode: "i32.and" (0x71) 0x125-0x126 (1)
     |                                               |                |                  [38]{}: in 0x126-0x127 (1)
0x120|                  71                           |      q         |                    opcode: "i32.and" (0x71) 0x126-0x127 (1)
     |                                               |                |                  [39]{}: in 0x127-0x128 (1)
0x120|                     0b                        |       .        |                    opcode: "end" (0xb) 0x127-0x128 (1)
     |                                               |                |            [1]{}: code 0x128-0x161 (57)
0x120|                        38                     |        8       |              size: 56 (valid) 0x128-0x129 (1)
     |                                               |                |              code{}: 0x129-0x161 (56)
     |                                               |                |                t{}: 0x129-0x12a (1)
0x120|                           00                  |         .      |                  n: 0 (valid) 0x129-0x12a (1)
     |                                               |                |                  x[0:0]: 0x12a-0x12a (0)
     |                                               |                |                e[0:18]: 0x12a-0x161 (55)
     |                                               |                |                  [0]{}: in 0x12a-0x12c (2)
0x120|                              41               |          A     |                    opcode: "i32.const" (0x41) 0x12a-0x12b (1)
0x120|                                 08            |           .    |                    n: 8 (valid) 0x12b-0x12c (1)
     |                                               |                |                  [1]{}: in 0x12c-0x130 (4)
0x120|                                    42         |            B   |                    opcode: "i64.const" (0x42) 0x12c-0x12d (1)
0x120|                                       c7 9f 7f|             ...|                    n: -12345 0x12d-0x130 (3)
     |                                               |                |                  [2]{}: in 0x130-0x133 (3)
0x130|37                                             |7               |                    opcode: "i64.store" (0x37) 0x130-0x131 (1)
     |                                               |                |                    m{}: 0x131-0x133 (2)
0x130|   03                                          | .              |                      a: 3 (valid) 0x131-0x132 (1)
0x130|      00                                       |  .             |                      o: 0 (valid) 0x132-0x133 (1)
     |                                               |                |                  [3]{}: in 0x133-0x135 (2)
0x130|         41                                    |   A            |                    opcode: "i32.const" (0x41) 0x133-0x134 (1)
0x130|            08                                 |    .           |                    n: 8 (valid) 0x134-0x135 (1)
     |                                               |                |                  [4]{}: in 0x135-0x138 (3)
0x130|               2b                              |     +          |                    opcode: "f64.load" (0x2b) 0x135-0x136 (1)
     |                                               |                |                    m{}: 0x136-0x138 (2)
0x130|                  03                           |      .         |                      a: 3 (valid) 0x136-0x137 (1)
0x130|                     00                        |       .        |                      o: 0 (valid) 0x137-0x138 (1)
     |                                               |                |                  [5]{}: in 0x138-0x13c (4)
0x130|                        42                     |        B       |                    opcode: "i64.const" (0x42) 0x138-0x139 (1)
0x130|                           c7 9f 7f            |         ...    |                    n: -12345 0x139-0x13c (3)
     |                                               |                |                  [6]{}: in 0x13c-0x13d (1)
0x130|                                    bf         |            .   |                    opcode: "f64.reinterpret_i64" (0xbf) 0x13c-0x13d (1)
     |                                               |                |                  [7]{}: in 0x13d-0x13e (1)
0x130|                                       61      |             a  |                    opcode: "f64.eq" (0x61) 0x13d-0x13e (1)
     |                                               |                |                  [8]{}: in 0x13e-0x14b (13)
0x130|                                          04   |              . |                    opcode: "if" (0x4) 0x13e-0x13f (1)
0x130|                                             40|               @|                    bt: "ε" (64) 0x13f-0x140 (1)
     |                                               |                |                    in1[0:2]: 0x140-0x14a (10)
     |                                               |                |                      [0]{}: instr 0x140-0x149 (9)
0x140|44                                             |D               |                        opcode: "f64.const" (0x44) 0x140-0x141 (1)
0x140|   00 00 00 00 00 00 00 00                     | ........       |                        z: 0 0x141-0x149 (8)
     |                                               |                |                      [1]{}: instr 0x149-0x14a (1)
0x140|                           0f                  |         .      |                        opcode: "return" (0xf) 0x149-0x14a (1)
0x140|                              0b               |          .     |                    end: 0xb (valid) 0x14a-0x14b (1)
     |                                               |                |                  [9]{}: in 0x14b-0x14d (2)
0x140|                                 41            |           A    |                    opcode: "i32.const" (0x41) 0x14b-0x14c (1)
0x140|                                    09         |            .   |                    n: 9 (valid) 0x14c-0x14d (1)
     |                                               |                |                  [10]{}: in 0x14d-0x14f (2)
0x140|                                       42      |             B  |                    opcode: "i64.const" (0x42) 0x14d-0x14e (1)
0x140|                                          00   |              . |                    n: 0 0x14e-0x14f (1)
     |                                               |                |                  [11]{}: in 0x14f-0x152 (3)
0x140|                                             37|               7|                    opcode: "i64.store" (0x37) 0x14f-0x150 (1)
     |                                               |                |                    m{}: 0x150-0x152 (2)
0x150|00                                             |.               |                      a: 0 (valid) 0x150-0x151 (1)
0x150|   00                                          | .              |                      o: 0 (valid) 0x151-0x152 (1)
     |                                               |                |                  [12]{}: in 0x152-0x154 (2)
0x150|      41                                       |  A             |                    opcode: "i32.const" (0x41) 0x152-0x153 (1)
0x150|         0f                                    |   .            |                    n: 15 (valid) 0x153-0x154 (1)
     |                                               |                |                  [13]{}: in 0x154-0x158 (4)
0x150|            41                                 |    A           |                    opcode: "i32.const" (0x41) 0x154-0x155 (1)
0x150|               c5 80 01                        |     ...        |                    n: 16453 (valid) 0x155-0x158 (3)
     |                                               |                |                  [14]{}: in 0x158-0x15b (3)
0x150|                        3b                     |        ;       |                    opcode: "i32.store16" (0x3b) 0x158-0x159 (1)
     |                                               |                |                    m{}: 0x159-0x15b (2)
0x150|                           00                  |         .      |                      a: 0 (valid) 0x159-0x15a (1)
0x150|                              00               |          .     |                      o: 0 (valid) 0x15a-0x15b (1)
     |                                               |                |                  [15]{}: in 0x15b-0x15d (2)
0x150|                                 41            |           A    |                    opcode: "i32.const" (0x41) 0x15b-0x15c (1)
0x150|                                    09         |            .   |                    n: 9 (valid) 0x15c-0x15d (1)
     |                                               |                |                  [16]{}: in 0x15d-0x160 (3)
0x150|                                       2b      |             +  |                    opcode: "f64.load" (0x2b) 0x15d-0x15e (1)
     |                                               |                |                    m{}: 0x15e-0x160 (2)
0x150|                                          00   |              . |                      a: 0 (valid) 0x15e-0x15f (1)
0x150|                                             00|               .|                      o: 0 (valid) 0x15f-0x160 (1)
     |                                               |                |                  [17]{}: in 0x160-0x161 (1)
0x160|0b                                             |.               |                    opcode: "end" (0xb) 0x160-0x161 (1)
     |                                               |                |            [2]{}: code 0x161-0x170 (15)
0x160|   0e                                          | .              |              size: 14 (valid) 0x161-0x162 (1)
     |                                               |                |              code{}: 0x162-0x170 (14)
     |                                               |                |                t{}: 0x162-0x163 (1)
0x160|      00                                       |  .             |                  n: 0 (valid) 0x162-0x163 (1)
     |                                               |                |                  x[0:0]: 0x163-0x163 (0)
     |                                               |                |                e[0:6]: 0x163-0x170 (13)
     |                                               |                |                  [0]{}: in 0x163-0x165 (2)
0x160|         41                                    |   A            |                    opcode: "i32.const" (0x41) 0x163-0x164 (1)
0x160|            08                                 |    .           |                    n: 8 (valid) 0x164-0x165 (1)
     |                                               |                |                  [1]{}: in 0x165-0x167 (2)
0x160|               20                              |                |                    opcode: "local.get" (0x20) 0x165-0x166 (1)
0x160|                  00                           |      .         |                    x: 0 (valid) 0x166-0x167 (1)
     |                                               |                |                  [2]{}: in 0x167-0x16a (3)
0x160|                     3a                        |       :        |                    opcode: "i32.store8" (0x3a) 0x167-0x168 (1)
     |                                               |                |                    m{}: 0x168-0x16a (2)
0x160|                        00                     |        .       |                      a: 0 (valid) 0x168-0x169 (1)
0x160|                           00                  |         .      |                      o: 0 (valid) 0x169-0x16a (1)
     |                                               |                |                  [3]{}: in 0x16a-0x16c (2)
0x160|                              41               |          A     |                    opcode: "i32.const" (0x41) 0x16a-0x16b (1)
0x160|                                 08            |           .    |                    n: 8 (valid) 0x16b-0x16c (1)
     |                                               |                |                  [4]{}: in 0x16c-0x16f (3)
0x160|                                    2c         |            ,   |                    opcode: "i32.load8_s" (0x2c) 0x16c-0x16d (1)
     |                                               |                |                    m{}: 0x16d-0x16f (2)
0x160|                                       00      |             .  |                      a: 0 (valid) 0x16d-0x16e (1)
0x160|                                          00   |              . |                      o: 0 (valid) 0x16e-0x16f (1)
     |                                               |                |                  [5]{}: in 0x16f-0x170 (1)
0x160|                                             0b|               .|                    opcode: "end" (0xb) 0x16f-0x170 (1)
     |                                               |                |            [3]{}: code 0x170-0x17f (15)
0x170|0e                                             |.               |              size: 14 (valid) 0x170-0x171 (1)
     |                                               |                |              code{}: 0x171-0x17f (14)
     |                                               |                |                t{}: 0x171-0x172 (1)
0x170|   00                                          | .              |                  n: 0 (valid) 0x171-0x172 (1)
     |                                               |                |                  x[0:0]: 0x172-0x172 (0)
     |                                               |                |                e[0:6]: 0x172-0x17f (13)
     |                                               |                |                  [0]{}: in 0x172-0x174 (2)
0x170|      41                                       |  A             |                    opcode: "i32.const" (0x41) 0x172-0x173 (1)
0x170|         08                                    |   .            |                    n: 8 (valid) 0x173-0x174 (1)
     |                                               |                |                  [1]{}: in 0x174-0x176 (2)
0x170|            20                                 |                |                    opcode: "local.get" (0x20) 0x174-0x175 (1)
0x170|               00                              |     .          |                    x: 0 (valid) 0x175-0x176 (1)
     |                                               |                |                  [2]{}: in 0x176-0x179 (3)
0x170|                  3a                           |      :         |                    opcode: "i32.store8" (0x3a) 0x176-0x177 (1)
     |                                               |                |                    m{}: 0x177-0x179 (2)
0x170|                     00                        |       .        |                      a: 0 (valid) 0x177-0x178 (1)
0x170|                        00                     |        .       |                      o: 0 (valid) 0x178-0x179 (1)
     |                                               |                |                  [3]{}: in 0x179-0x17b (2)
0x170|                           41                  |         A      |                    opcode: "i32.const" (0x41) 0x179-0x17a (1)
0x170|                              08               |          .     |                    n: 8 (valid) 0x17a-0x17b (1)
     |                                               |                |                  [4]{}: in 0x17b-0x17e (3)
0x170|                                 2d            |           -    |                    opcode: "i32.load8_u" (0x2d) 0x17b-0x17c (1)
     |                                               |                |                    m{}: 0x17c-0x17e (2)
0x170|                                    00         |            .   |                      a: 0 (valid) 0x17c-0x17d (1)
0x170|                                       00      |             .  |                      o: 0 (valid) 0x17d-0x17e (1)
     |                                               |                |                  [5]{}: in 0x17e-0x17f (1)
0x170|                                          0b   |              . |                    opcode: "end" (0xb) 0x17e-0x17f (1)
     |                                               |                |            [4]{}: code 0x17f-0x18e (15)
0x170|                                             0e|               .|              size: 14 (valid) 0x17f-0x180 (1)
     |                                               |                |              code{}: 0x180-0x18e (14)
     |                                               |                |                t{}: 0x180-0x181 (1)
0x180|00                                             |.               |                  n: 0 (valid) 0x180-0x181 (1)
     |                                               |                |                  x[0:0]: 0x181-0x181 (0)
     |                                               |                |                e[0:6]: 0x181-0x18e (13)
     |                                               |                |                  [0]{}: in 0x181-0x183 (2)
0x180|   41                                          | A              |                    opcode: "i32.const" (0x41) 0x181-0x182 (1)
0x180|      08                                       |  .             |                    n: 8 (valid) 0x182-0x183 (1)
     |                                               |                |                  [1]{}: in 0x183-0x185 (2)
0x180|         20                                    |                |                    opcode: "local.get" (0x20) 0x183-0x184 (1)
0x180|            00                                 |    .           |                    x: 0 (valid) 0x184-0x185 (1)
     |                                               |                |                  [2]{}: in 0x185-0x188 (3)
0x180|               3b                              |     ;          |                    opcode: "i32.store16" (0x3b) 0x185-0x186 (1)
     |                                               |                |                    m{}: 0x186-0x188 (2)
0x180|                  01                           |      .         |                      a: 1 (valid) 0x186-0x187 (1)
0x180|                     00                        |       .        |                      o: 0 (valid) 0x187-0x188 (1)
     |                                               |                |                  [3]{}: in 0x188-0x18a (2)
0x180|                        41                     |        A       |                    opcode: "i32.const" (0x41) 0x188-0x189 (1)
0x180|                           08                  |         .      |                    n: 8 (valid) 0x189-0x18a (1)
     |                                               |                |                  [4]{}: in 0x18a-0x18d (3)
0x180|                              2e               |          .     |                    opcode: "i32.load16_s" (0x2e) 0x18a-0x18b (1)
     |                                               |                |                    m{}: 0x18b-0x18d (2)
0x180|                                 01            |           .    |                      a: 1 (valid) 0x18b-0x18c (1)
0x180|                                    00         |            .   |                      o: 0 (valid) 0x18c-0x18d (1)
     |                                               |                |                  [5]{}: in 0x18d-0x18e (1)
0x180|                                       0b      |             .  |                    opcode: "end" (0xb) 0x18d-0x18e (1)
     |                                               |                |            [5]{}: code 0x18e-0x19d (15)
0x180|                                          0e   |              . |              size: 14 (valid) 0x18e-0x18f (1)
     |                                               |                |              code{}: 0x18f-0x19d (14)
     |                                               |                |                t{}: 0x18f-0x190 (1)
0x180|                                             00|               .|                  n: 0 (valid) 0x18f-0x190 (1)
     |                                               |                |                  x[0:0]: 0x190-0x190 (0)
     |                                               |                |                e[0:6]: 0x190-0x19d (13)
     |                                               |                |                  [0]{}: in 0x190-0x192 (2)
0x190|41                                             |A               |                    opcode: "i32.const" (0x41) 0x190-0x191 (1)
0x190|   08                                          | .              |                    n: 8 (valid) 0x191-0x192 (1)
     |                                               |                |                  [1]{}: in 0x192-0x194 (2)
0x190|      20                                       |                |                    opcode: "local.get" (0x20) 0x192-0x193 (1)
0x190|         00                                    |   .            |                    x: 0 (valid) 0x193-0x194 (1)
     |                                               |                |                  [2]{}: in 0x194-0x197 (3)
0x190|            3b                                 |    ;           |                    opcode: "i32.store16" (0x3b) 0x194-0x195 (1)
     |                                               |                |                    m{}: 0x195-0x197 (2)
0x190|               01                              |     .          |                      a: 1 (valid) 0x195-0x196 (1)
0x190|                  00                           |      .         |                      o: 0 (valid) 0x196-0x197 (1)
     |                                               |                |                  [3]{}: in 0x197-0x199 (2)
0x190|                     41                        |       A        |                    opcode: "i32.const" (0x41) 0x197-0x198 (1)
0x190|                        08                     |        .       |                    n: 8 (valid) 0x198-0x199 (1)
     |                                               |                |                  [4]{}: in 0x199-0x19c (3)
0x190|                           2f                  |         /      |                    opcode: "i32.load16_u" (0x2f) 0x199-0x19a (1)
     |                                               |                |                    m{}: 0x19a-0x19c (2)
0x190|                              01               |          .     |                      a: 1 (valid) 0x19a-0x19b (1)
0x190|                                 00            |           .    |                      o: 0 (valid) 0x19b-0x19c (1)
     |                                               |                |                  [5]{}: in 0x19c-0x19d (1)
0x190|                                    0b         |            .   |                    opcode: "end" (0xb) 0x19c-0x19d (1)
     |                                               |                |            [6]{}: code 0x19d-0x1ac (15)
0x190|                                       0e      |             .  |              size: 14 (valid) 0x19d-0x19e (1)
     |                                               |                |              code{}: 0x19e-0x1ac (14)
     |                                               |                |                t{}: 0x19e-0x19f (1)
0x190|                                          00   |              . |                  n: 0 (valid) 0x19e-0x19f (1)
     |                                               |                |                  x[0:0]: 0x19f-0x19f (0)
     |                                               |                |                e[0:6]: 0x19f-0x1ac (13)
     |                                               |                |                  [0]{}: in 0x19f-0x1a1 (2)
0x190|                                             41|               A|                    opcode: "i32.const" (0x41) 0x19f-0x1a0 (1)
0x1a0|08                                             |.               |                    n: 8 (valid) 0x1a0-0x1a1 (1)
     |                                               |                |                  [1]{}: in 0x1a1-0x1a3 (2)
0x1a0|   20                                          |                |                    opcode: "local.get" (0x20) 0x1a1-0x1a2 (1)
0x1a0|      00                                       |  .             |                    x: 0 (valid) 0x1a2-0x1a3 (1)
     |                                               |                |                  [2]{}: in 0x1a3-0x1a6 (3)
0x1a0|         3c                                    |   <            |                    opcode: "i64.store8" (0x3c) 0x1a3-0x1a4 (1)
     |                                               |                |                    m{}: 0x1a4-0x1a6 (2)
0x1a0|            00                                 |    .           |                      a: 0 (valid) 0x1a4-0x1a5 (1)
0x1a0|               00                              |     .          |                      o: 0 (valid) 0x1a5-0x1a6 (1)
     |                                               |                |                  [3]{}: in 0x1a6-0x1a8 (2)
0x1a0|                  41                           |      A         |                    opcode: "i32.const" (0x41) 0x1a6-0x1a7 (1)
0x1a0|                     08                        |       .        |                    n: 8 (valid) 0x1a7-0x1a8 (1)
     |                                               |                |                  [4]{}: in 0x1a8-0x1ab (3)
0x1a0|                        30                     |        0       |                    opcode: "i64.load8_s" (0x30) 0x1a8-0x1a9 (1)
     |                                               |                |                    m{}: 0x1a9-0x1ab (2)
0x1a0|                           00                  |         .      |                      a: 0 (valid) 0x1a9-0x1aa (1)
0x1a0|                              00               |          .     |                      o: 0 (valid) 0x1aa-0x1ab (1)
     |                                               |                |                  [5]{}: in 0x1ab-0x1ac (1)
0x1a0|                                 0b            |           .    |                    opcode: "end" (0xb) 0x1ab-0x1ac (1)
     |                                               |                |            [7]{}: code 0x1ac-0x1bb (15)
0x1a0|                                    0e         |            .   |              size: 14 (valid) 0x1ac-0x1ad (1)
     |                                               |                |              code{}: 0x1ad-0x1bb (14)
     |                                               |                |                t{}: 0x1ad-0x1ae (1)
0x1a0|                                       00      |             .  |                  n: 0 (valid) 0x1ad-0x1ae (1)
     |                                               |                |                  x[0:0]: 0x1ae-0x1ae (0)
     |                                               |                |                e[0:6]: 0x1ae-0x1bb (13)
     |                                               |                |                  [0]{}: in 0x1ae-0x1b0 (2)
0x1a0|                                          41   |              A |                    opcode: "i32.const" (0x41) 0x1ae-0x1af (1)
0x1a0|                                             08|               .|                    n: 8 (valid) 0x1af-0x1b0 (1)
     |                                               |                |                  [1]{}: in 0x1b0-0x1b2 (2)
0x1b0|20                                             |                |                    opcode: "local.get" (0x20) 0x1b0-0x1b1 (1)
0x1b0|   00                                          | .              |                    x: 0 (valid) 0x1b1-0x1b2 (1)
     |                                               |                |                  [2]{}: in 0x1b2-0x1b5 (3)
0x1b0|      3c                                       |  <             |                    opcode: "i64.store8" (0x3c) 0x1b2-0x1b3 (1)
     |                                               |                |                    m{}: 0x1b3-0x1b5 (2)
0x1b0|         00                                    |   .            |                      a: 0 (valid) 0x1b3-0x1b4 (1)
0x1b0|            00                                 |    .           |                      o: 0 (valid) 0x1b4-0x1b5 (1)
     |                                               |                |                  [3]{}: in 0x1b5-0x1b7 (2)
0x1b0|               41                              |     A          |                    opcode: "i32.const" (0x41) 0x1b5-0x1b6 (1)
0x1b0|                  08                           |      .         |                    n: 8 (valid) 0x1b6-0x1b7 (1)
     |                                               |                |                  [4]{}: in 0x1b7-0x1ba (3)
0x1b0|                     31                        |       1        |                    opcode: "i64.load8_u" (0x31) 0x1b7-0x1b8 (1)
     |                                               |                |                    m{}: 0x1b8-0x1ba (2)
0x1b0|                        00                     |        .       |                      a: 0 (valid) 0x1b8-0x1b9 (1)
0x1b0|                           00                  |         .      |                      o: 0 (valid) 0x1b9-0x1ba (1)
     |                                               |                |                  [5]{}: in 0x1ba-0x1bb (1)
0x1b0|                              0b               |          .     |                    opcode: "end" (0xb) 0x1ba-0x1bb (1)
     |                                               |                |            [8]{}: code 0x1bb-0x1ca (15)
0x1b0|                                 0e            |           .    |              size: 14 (valid) 0x1bb-0x1bc (1)
     |                                               |                |              code{}: 0x1bc-0x1ca (14)
     |                                               |                |                t{}: 0x1bc-0x1bd (1)
0x1b0|                                    00         |            .   |                  n: 0 (valid) 0x1bc-0x1bd (1)
     |                                               |                |                  x[0:0]: 0x1bd-0x1bd (0)
     |                                               |                |                e[0:6]: 0x1bd-0x1ca (13)
     |                                               |                |                  [0]{}: in 0x1bd-0x1bf (2)
0x1b0|                                       41      |             A  |                    opcode: "i32.const" (0x41) 0x1bd-0x1be (1)
0x1b0|                                          08   |              . |                    n: 8 (valid) 0x1be-0x1bf (1)
     |                                               |                |                  [1]{}: in 0x1bf-0x1c1 (2)
0x1b0|                                             20|                |                    opcode: "local.get" (0x20) 0x1bf-0x1c0 (1)
0x1c0|00                                             |.               |                    x: 0 (valid) 0x1c0-0x1c1 (1)
     |                                               |                |                  [2]{}: in 0x1c1-0x1c4 (3)
0x1c0|   3d                                          | =              |                    opcode: "i64.store16" (0x3d) 0x1c1-0x1c2 (1)
     |                                               |                |                    m{}: 0x1c2-0x1c4 (2)
0x1c0|      01                                       |  .             |                      a: 1 (valid) 0x1c2-0x1c3 (1)
0x1c0|         00                                    |   .            |                      o: 0 (valid) 0x1c3-0x1c4 (1)
     |                                               |                |                  [3]{}: in 0x1c4-0x1c6 (2)
0x1c0|            41                                 |    A           |                    opcode: "i32.const" (0x41) 0x1c4-0x1c5 (1)
0x1c0|               08                              |     .          |                    n: 8 (valid) 0x1c5-0x1c6 (1)
     |                                               |                |                  [4]{}: in 0x1c6-0x1c9 (3)
0x1c0|                  32                           |      2         |                    opcode: "i64.load16_s" (0x32) 0x1c6-0x1c7 (1)
     |                                               |                |                    m{}: 0x1c7-0x1c9 (2)
0x1c0|                     01                        |       .        |                      a: 1 (valid) 0x1c7-0x1c8 (1)
0x1c0|                        00                     |        .       |                      o: 0 (valid) 0x1c8-0x1c9 (1)
     |                                               |                |                  [5]{}: in 0x1c9-0x1ca (1)
0x1c0|                           0b                  |         .      |                    opcode: "end" (0xb) 0x1c9-0x1ca (1)
     |                                               |                |            [9]{}: code 0x1ca-0x1d9 (15)
0x1c0|                              0e               |          .     |              size: 14 (valid) 0x1ca-0x1cb (1)
     |                                               |                |              code{}: 0x1cb-0x1d9 (14)
     |                                               |                |                t{}: 0x1cb-0x1cc (1)
0x1c0|                                 00            |           .    |                  n: 0 (valid) 0x1cb-0x1cc (1)
     |                                               |                |                  x[0:0]: 0x1cc-0x1cc (0)
     |                                               |                |                e[0:6]: 0x1cc-0x1d9 (13)
     |                                               |                |                  [0]{}: in 0x1cc-0x1ce (2)
0x1c0|                                    41         |            A   |                    opcode: "i32.const" (0x41) 0x1cc-0x1cd (1)
0x1c0|                                       08      |             .  |                    n: 8 (valid) 0x1cd-0x1ce (1)
     |                                               |                |                  [1]{}: in 0x1ce-0x1d0 (2)
0x1c0|                                          20   |                |                    opcode: "local.get" (0x20) 0x1ce-0x1cf (1)
0x1c0|                                             00|               .|                    x: 0 (valid) 0x1cf-0x1d0 (1)
     |                                               |                |                  [2]{}: in 0x1d0-0x1d3 (3)
0x1d0|3d                                             |=               |                    opcode: "i64.store16" (0x3d) 0x1d0-0x1d1 (1)
     |                                               |                |                    m{}: 0x1d1-0x1d3 (2)
0x1d0|   01                                          | .              |                      a: 1 (valid) 0x1d1-0x1d2 (1)
0x1d0|      00                                       |  .             |                      o: 0 (valid) 0x1d2-0x1d3 (1)
     |                                               |                |                  [3]{}: in 0x1d3-0x1d5 (2)
0x1d0|         41                                    |   A            |                    opcode: "i32.const" (0x41) 0x1d3-0x1d4 (1)
0x1d0|            08                                 |    .           |                    n: 8 (valid) 0x1d4-0x1d5 (1)
     |                                               |                |                  [4]{}: in 0x1d5-0x1d8 (3)
0x1d0|               33                              |     3          |                    opcode: "i64.load16_u" (0x33) 0x1d5-0x1d6 (1)
     |                                               |                |                    m{}: 0x1d6-0x1d8 (2)
0x1d0|                  01                           |      .         |                      a: 1 (valid) 0x1d6-0x1d7 (1)
0x1d0|                     00                        |       .        |                      o: 0 (valid) 0x1d7-0x1d8 (1)
     |                                               |                |                  [5]{}: in 0x1d8-0x1d9 (1)
0x1d0|                        0b                     |        .       |                    opcode: "end" (0xb) 0x1d8-0x1d9 (1)
     |                                               |                |            [10]{}: code 0x1d9-0x1e8 (15)
0x1d0|                           0e                  |         .      |              size: 14 (valid) 0x1d9-0x1da (1)
     |                                               |                |              code{}: 0x1da-0x1e8 (14)
     |                                               |                |                t{}: 0x1da-0x1db (1)
0x1d0|                              00               |          .     |                  n: 0 (valid) 0x1da-0x1db (1)
     |                                               |                |                  x[0:0]: 0x1db-0x1db (0)
     |                                               |                |                e[0:6]: 0x1db-0x1e8 (13)
     |                                               |                |                  [0]{}: in 0x1db-0x1dd (2)
0x1d0|                                 41            |           A    |                    opcode: "i32.const" (0x41) 0x1db-0x1dc (1)
0x1d0|                                    08         |            .   |                    n: 8 (valid) 0x1dc-0x1dd (1)
     |                                               |                |                  [1]{}: in 0x1dd-0x1df (2)
0x1d0|                                       20      |                |                    opcode: "local.get" (0x20) 0x1dd-0x1de (1)
0x1d0|                                          00   |              . |                    x: 0 (valid) 0x1de-0x1df (1)
     |                                               |                |                  [2]{}: in 0x1df-0x1e2 (3)
0x1d0|                                             3e|               >|                    opcode: "i64.store32" (0x3e) 0x1df-0x1e0 (1)
     |                                               |                |                    m{}: 0x1e0-0x1e2 (2)
0x1e0|02                                             |.               |                      a: 2 (valid) 0x1e0-0x1e1 (1)
0x1e0|   00                                          | .              |                      o: 0 (valid) 0x1e1-0x1e2 (1)
     |                                               |                |                  [3]{}: in 0x1e2-0x1e4 (2)
0x1e0|      41                                       |  A             |                    opcode: "i32.const" (0x41) 0x1e2-0x1e3 (1)
0x1e0|         08                                    |   .            |                    n: 8 (valid) 0x1e3-0x1e4 (1)
     |                                               |                |                  [4]{}: in 0x1e4-0x1e7 (3)
0x1e0|            34                                 |    4           |                    opcode: "i64.load32_s" (0x34) 0x1e4-0x1e5 (1)
     |                                               |                |                    m{}: 0x1e5-0x1e7 (2)
0x1e0|               02                              |     .          |                      a: 2 (valid) 0x1e5-0x1e6 (1)
0x1e0|                  00                           |      .         |                      o: 0 (valid) 0x1e6-0x1e7 (1)
     |                                               |                |                  [5]{}: in 0x1e7-0x1e8 (1)
0x1e0|                     0b                        |       .        |                    opcode: "end" (0xb) 0x1e7-0x1e8 (1)
     |                                               |                |            [11]{}: code 0x1e8-0x1f7 (15)
0x1e0|                        0e                     |        .       |              size: 14 (valid) 0x1e8-0x1e9 (1)
     |                                               |                |              code{}: 0x1e9-0x1f7 (14)
     |                                               |                |                t{}: 0x1e9-0x1ea (1)
0x1e0|                           00                  |         .      |                  n: 0 (valid) 0x1e9-0x1ea (1)
     |                                               |                |                  x[0:0]: 0x1ea-0x1ea (0)
     |                                               |                |                e[0:6]: 0x1ea-0x1f7 (13)
     |                                               |                |                  [0]{}: in 0x1ea-0x1ec (2)
0x1e0|                              41               |          A     |                    opcode: "i32.const" (0x41) 0x1ea-0x1eb (1)
0x1e0|                                 08            |           .    |                    n: 8 (valid) 0x1eb-0x1ec (1)
     |                                               |                |                  [1]{}: in 0x1ec-0x1ee (2)
0x1e0|                                    20         |                |                    opcode: "local.get" (0x20) 0x1ec-0x1ed (1)
0x1e0|                                       00      |             .  |                    x: 0 (valid) 0x1ed-0x1ee (1)
     |                                               |                |                  [2]{}: in 0x1ee-0x1f1 (3)
0x1e0|                                          3e   |              > |                    opcode: "i64.store32" (0x3e) 0x1ee-0x1ef (1)
     |                                               |                |                    m{}: 0x1ef-0x1f1 (2)
0x1e0|                                             02|               .|                      a: 2 (valid) 0x1ef-0x1f0 (1)
0x1f0|00                                             |.               |                      o: 0 (valid) 0x1f0-0x1f1 (1)
     |                                               |                |                  [3]{}: in 0x1f1-0x1f3 (2)
0x1f0|   41                                          | A              |                    opcode: "i32.const" (0x41) 0x1f1-0x1f2 (1)
0x1f0|      08                                       |  .             |                    n: 8 (valid) 0x1f2-0x1f3 (1)
     |                                               |                |                  [4]{}: in 0x1f3-0x1f6 (3)
0x1f0|         35                                    |   5            |                    opcode: "i64.load32_u" (0x35) 0x1f3-0x1f4 (1)
     |                                               |                |                    m{}: 0x1f4-0x1f6 (2)
0x1f0|            02                                 |    .           |                      a: 2 (valid) 0x1f4-0x1f5 (1)
0x1f0|               00                              |     .          |                      o: 0 (valid) 0x1f5-0x1f6 (1)
     |                                               |                |                  [5]{}: in 0x1f6-0x1f7 (1)
0x1f0|                  0b                           |      .         |                    opcode: "end" (0xb) 0x1f6-0x1f7 (1)
     |                                               |                |    [5]{}: section 0x1f7-0x20d (22)
0x1f0|                     0b                        |       .        |      id: "data_section" (11) 0x1f7-0x1f8 (1)
0x1f0|                        14                     |        .       |      size: 20 (valid) 0x1f8-0x1f9 (1)
     |                                               |                |      content{}: 0x1f9-0x20d (20)
     |                                               |                |        seg{}: 0x1f9-0x20d (20)
0x1f0|                           02                  |         .      |          n: 2 (valid) 0x1f9-0x1fa (1)
     |                                               |                |          x[0:2]: 0x1fa-0x20d (19)
     |                                               |                |            [0]{}: seg 0x1fa-0x204 (10)
0x1f0|                              00               |          .     |              tag: 0 (valid) 0x1fa-0x1fb (1)
     |                                               |                |              e[0:2]: 0x1fb-0x1fe (3)
     |                                               |                |                [0]{}: in 0x1fb-0x1fd (2)
0x1f0|                                 41            |           A    |                  opcode: "i32.const" (0x41) 0x1fb-0x1fc (1)
0x1f0|                                    00         |            .   |                  n: 0 (valid) 0x1fc-0x1fd (1)
     |                                               |                |                [1]{}: in 0x1fd-0x1fe (1)
0x1f0|                                       0b      |             .  |                  opcode: "end" (0xb) 0x1fd-0x1fe (1)
     |                                               |                |              b{}: 0x1fe-0x204 (6)
0x1f0|                                          05   |              . |                n: 5 (valid) 0x1fe-0x1ff (1)
0x1f0|                                             41|               A|                x: raw bits 0x1ff-0x204 (5)
0x200|42 43 a7 44                                    |BC.D            |
     |                                               |                |            [1]{}: seg 0x204-0x20d (9)
0x200|            00                                 |    .           |              tag: 0 (valid) 0x204-0x205 (1)
     |                                               |                |              e[0:2]: 0x205-0x208 (3)
     |                                               |                |                [0]{}: in 0x205-0x207 (2)
0x200|               41                              |     A          |                  opcode: "i32.const" (0x41) 0x205-0x206 (1)
0x200|                  14                           |      .         |                  n: 20 (valid) 0x206-0x207 (1)
     |                                               |                |                [1]{}: in 0x207-0x208 (1)
0x200|                     0b                        |       .        |                  opcode: "end" (0xb) 0x207-0x208 (1)
     |                                               |                |              b{}: 0x208-0x20d (5)
0x200|                        04                     |        .       |                n: 4 (valid) 0x208-0x209 (1)
0x200|                           57 41 53 4d|        |         WASM|  |                x: raw bits 0x209-0x20d (4)
