$ fq -d wasm dv memory_redundancy-0.wasm
     |00 01 02 03 04 05 06 07 08 09 0a 0b 0c 0d 0e 0f|0123456789abcdef|.{}: memory_redundancy-0.wasm (wasm) 0x0-0x13e.7 (319)
0x000|00 61 73 6d                                    |.asm            |  magic: raw bits (valid) 0x0-0x3.7 (4)
0x000|            01 00 00 00                        |    ....        |  version: 1 0x4-0x7.7 (4)
     |                                               |                |  sections[0:5]: 0x8-0x13e.7 (311)
     |                                               |                |    [0]{}: section 0x8-0x1a.7 (19)
0x000|                        01                     |        .       |      id: "type section" (1) 0x8-0x8.7 (1)
0x000|                           11                  |         .      |      size: 17 0x9-0x9.7 (1)
     |                                               |                |      content{}: 0xa-0x1a.7 (17)
     |                                               |                |        ft{}: 0xa-0x1a.7 (17)
0x000|                              04               |          .     |          n: 4 0xa-0xa.7 (1)
     |                                               |                |          x[0:4]: 0xb-0x1a.7 (16)
     |                                               |                |            [0]{}: ft 0xb-0xd.7 (3)
0x000|                                 60            |           `    |              tag: 0x60 (valid) 0xb-0xb.7 (1)
     |                                               |                |              rt1{}: 0xc-0xc.7 (1)
0x000|                                    00         |            .   |                n: 0 0xc-0xc.7 (1)
     |                                               |                |                x[0:0]: 0xd-NA (0)
     |                                               |                |              rt2{}: 0xd-0xd.7 (1)
0x000|                                       00      |             .  |                n: 0 0xd-0xd.7 (1)
     |                                               |                |                x[0:0]: 0xe-NA (0)
     |                                               |                |            [1]{}: ft 0xe-0x11.7 (4)
0x000|                                          60   |              ` |              tag: 0x60 (valid) 0xe-0xe.7 (1)
     |                                               |                |              rt1{}: 0xf-0xf.7 (1)
0x000|                                             00|               .|                n: 0 0xf-0xf.7 (1)
     |                                               |                |                x[0:0]: 0x10-NA (0)
     |                                               |                |              rt2{}: 0x10-0x11.7 (2)
0x010|01                                             |.               |                n: 1 0x10-0x10.7 (1)
     |                                               |                |                x[0:1]: 0x11-0x11.7 (1)
0x010|   7f                                          | .              |                  [0]: "i32" (0x7f) t 0x11-0x11.7 (1)
     |                                               |                |            [2]{}: ft 0x12-0x15.7 (4)
0x010|      60                                       |  `             |              tag: 0x60 (valid) 0x12-0x12.7 (1)
     |                                               |                |              rt1{}: 0x13-0x13.7 (1)
0x010|         00                                    |   .            |                n: 0 0x13-0x13.7 (1)
     |                                               |                |                x[0:0]: 0x14-NA (0)
     |                                               |                |              rt2{}: 0x14-0x15.7 (2)
0x010|            01                                 |    .           |                n: 1 0x14-0x14.7 (1)
     |                                               |                |                x[0:1]: 0x15-0x15.7 (1)
0x010|               7d                              |     }          |                  [0]: "f32" (0x7d) t 0x15-0x15.7 (1)
     |                                               |                |            [3]{}: ft 0x16-0x1a.7 (5)
0x010|                  60                           |      `         |              tag: 0x60 (valid) 0x16-0x16.7 (1)
     |                                               |                |              rt1{}: 0x17-0x18.7 (2)
0x010|                     01                        |       .        |                n: 1 0x17-0x17.7 (1)
     |                                               |                |                x[0:1]: 0x18-0x18.7 (1)
0x010|                        7f                     |        .       |                  [0]: "i32" (0x7f) t 0x18-0x18.7 (1)
     |                                               |                |              rt2{}: 0x19-0x1a.7 (2)
0x010|                           01                  |         .      |                n: 1 0x19-0x19.7 (1)
     |                                               |                |                x[0:1]: 0x1a-0x1a.7 (1)
0x010|                              7f               |          .     |                  [0]: "i32" (0x7f) t 0x1a-0x1a.7 (1)
     |                                               |                |    [1]{}: section 0x1b-0x23.7 (9)
0x010|                                 03            |           .    |      id: "function section" (3) 0x1b-0x1b.7 (1)
0x010|                                    07         |            .   |      size: 7 0x1c-0x1c.7 (1)
     |                                               |                |      content{}: 0x1d-0x23.7 (7)
     |                                               |                |        x{}: 0x1d-0x23.7 (7)
0x010|                                       06      |             .  |          n: 6 0x1d-0x1d.7 (1)
     |                                               |                |          x[0:6]: 0x1e-0x23.7 (6)
0x010|                                          00   |              . |            [0]: 0 x 0x1e-0x1e.7 (1)
0x010|                                             01|               .|            [1]: 1 x 0x1f-0x1f.7 (1)
0x020|01                                             |.               |            [2]: 1 x 0x20-0x20.7 (1)
0x020|   02                                          | .              |            [3]: 2 x 0x21-0x21.7 (1)
0x020|      03                                       |  .             |            [4]: 3 x 0x22-0x22.7 (1)
0x020|         01                                    |   .            |            [5]: 1 x 0x23-0x23.7 (1)
     |                                               |                |    [2]{}: section 0x24-0x29.7 (6)
0x020|            05                                 |    .           |      id: "memory section" (5) 0x24-0x24.7 (1)
0x020|               04                              |     .          |      size: 4 0x25-0x25.7 (1)
     |                                               |                |      content{}: 0x26-0x29.7 (4)
     |                                               |                |        mem{}: 0x26-0x29.7 (4)
0x020|                  01                           |      .         |          n: 1 0x26-0x26.7 (1)
     |                                               |                |          x[0:1]: 0x27-0x29.7 (3)
     |                                               |                |            [0]{}: mem 0x27-0x29.7 (3)
     |                                               |                |              lim{}: 0x27-0x29.7 (3)
0x020|                     01                        |       .        |                tag: 0x1 0x27-0x27.7 (1)
0x020|                        01                     |        .       |                n: 1 0x28-0x28.7 (1)
0x020|                           01                  |         .      |                m: 1 0x29-0x29.7 (1)
     |                                               |                |    [3]{}: section 0x2a-0x96.7 (109)
0x020|                              07               |          .     |      id: "export section" (7) 0x2a-0x2a.7 (1)
0x020|                                 6b            |           k    |      size: 107 0x2b-0x2b.7 (1)
     |                                               |                |      content{}: 0x2c-0x96.7 (107)
     |                                               |                |        ex{}: 0x2c-0x96.7 (107)
0x020|                                    06         |            .   |          n: 6 0x2c-0x2c.7 (1)
     |                                               |                |          x[0:6]: 0x2d-0x96.7 (106)
     |                                               |                |            [0]{}: ex 0x2d-0x3e.7 (18)
     |                                               |                |              nm{}: 0x2d-0x3c.7 (16)
0x020|                                       0f      |             .  |                n: 15 0x2d-0x2d.7 (1)
0x020|                                          7a 65|              ze|                b: "zero_everything" 0x2e-0x3c.7 (15)
0x030|72 6f 5f 65 76 65 72 79 74 68 69 6e 67         |ro_everything   |
     |                                               |                |              d{}: 0x3d-0x3e.7 (2)
0x030|                                       00      |             .  |                tag: "funcidx" (0x0) 0x3d-0x3d.7 (1)
0x030|                                          00   |              . |                x: 0 0x3e-0x3e.7 (1)
     |                                               |                |            [1]{}: ex 0x3f-0x53.7 (21)
     |                                               |                |              nm{}: 0x3f-0x51.7 (19)
0x030|                                             12|               .|                n: 18 0x3f-0x3f.7 (1)
0x040|74 65 73 74 5f 73 74 6f 72 65 5f 74 6f 5f 6c 6f|test_store_to_lo|                b: "test_store_to_load" 0x40-0x51.7 (18)
0x050|61 64                                          |ad              |
     |                                               |                |              d{}: 0x52-0x53.7 (2)
0x050|      00                                       |  .             |                tag: "funcidx" (0x0) 0x52-0x52.7 (1)
0x050|         01                                    |   .            |                x: 1 0x53-0x53.7 (1)
     |                                               |                |            [2]{}: ex 0x54-0x69.7 (22)
     |                                               |                |              nm{}: 0x54-0x67.7 (20)
0x050|            13                                 |    .           |                n: 19 0x54-0x54.7 (1)
0x050|               74 65 73 74 5f 72 65 64 75 6e 64|     test_redund|                b: "test_redundant_load" 0x55-0x67.7 (19)
0x060|61 6e 74 5f 6c 6f 61 64                        |ant_load        |
     |                                               |                |              d{}: 0x68-0x69.7 (2)
0x060|                        00                     |        .       |                tag: "funcidx" (0x0) 0x68-0x68.7 (1)
0x060|                           02                  |         .      |                x: 2 0x69-0x69.7 (1)
     |                                               |                |            [3]{}: ex 0x6a-0x7b.7 (18)
     |                                               |                |              nm{}: 0x6a-0x79.7 (16)
0x060|                              0f               |          .     |                n: 15 0x6a-0x6a.7 (1)
0x060|                                 74 65 73 74 5f|           test_|                b: "test_dead_store" 0x6b-0x79.7 (15)
0x070|64 65 61 64 5f 73 74 6f 72 65                  |dead_store      |
     |                                               |                |              d{}: 0x7a-0x7b.7 (2)
0x070|                              00               |          .     |                tag: "funcidx" (0x0) 0x7a-0x7a.7 (1)
0x070|                                 03            |           .    |                x: 3 0x7b-0x7b.7 (1)
     |                                               |                |            [4]{}: ex 0x7c-0x84.7 (9)
     |                                               |                |              nm{}: 0x7c-0x82.7 (7)
0x070|                                    06         |            .   |                n: 6 0x7c-0x7c.7 (1)
0x070|                                       6d 61 6c|             mal|                b: "malloc" 0x7d-0x82.7 (6)
0x080|6c 6f 63                                       |loc             |
     |                                               |                |              d{}: 0x83-0x84.7 (2)
0x080|         00                                    |   .            |                tag: "funcidx" (0x0) 0x83-0x83.7 (1)
0x080|            04                                 |    .           |                x: 4 0x84-0x84.7 (1)
     |                                               |                |            [5]{}: ex 0x85-0x96.7 (18)
     |                                               |                |              nm{}: 0x85-0x94.7 (16)
0x080|               0f                              |     .          |                n: 15 0x85-0x85.7 (1)
0x080|                  6d 61 6c 6c 6f 63 5f 61 6c 69|      malloc_ali|                b: "malloc_aliasing" 0x86-0x94.7 (15)
0x090|61 73 69 6e 67                                 |asing           |
     |                                               |                |              d{}: 0x95-0x96.7 (2)
0x090|               00                              |     .          |                tag: "funcidx" (0x0) 0x95-0x95.7 (1)
0x090|                  05                           |      .         |                x: 5 0x96-0x96.7 (1)
     |                                               |                |    [4]{}: section 0x97-0x13e.7 (168)
0x090|                     0a                        |       .        |      id: "code section" (10) 0x97-0x97.7 (1)
0x090|                        a5 01                  |        ..      |      size: 165 0x98-0x99.7 (2)
     |                                               |                |      content{}: 0x9a-0x13e.7 (165)
     |                                               |                |        code{}: 0x9a-0x13e.7 (165)
0x090|                              06               |          .     |          n: 6 0x9a-0x9a.7 (1)
     |                                               |                |          x[0:6]: 0x9b-0x13e.7 (164)
     |                                               |                |            [0]{}: code 0x9b-0xb9.7 (31)
0x090|                                 1e            |           .    |              size: 30 0x9b-0x9b.7 (1)
     |                                               |                |              code{}: 0x9c-0xb9.7 (30)
     |                                               |                |                t{}: 0x9c-0x9c.7 (1)
0x090|                                    00         |            .   |                  n: 0 0x9c-0x9c.7 (1)
     |                                               |                |                  x[0:0]: 0x9d-NA (0)
     |                                               |                |                e[0:13]: 0x9d-0xb9.7 (29)
     |                                               |                |                  [0]{}: in 0x9d-0x9e.7 (2)
0x090|                                       41      |             A  |                    i32.const: 0x41 (valid) 0x9d-0x9d.7 (1)
0x090|                                          00   |              . |                    n: 0 0x9e-0x9e.7 (1)
     |                                               |                |                  [1]{}: in 0x9f-0xa0.7 (2)
0x090|                                             41|               A|                    i32.const: 0x41 (valid) 0x9f-0x9f.7 (1)
0x0a0|00                                             |.               |                    n: 0 0xa0-0xa0.7 (1)
     |                                               |                |                  [2]{}: in 0xa1-0xa3.7 (3)
0x0a0|   36                                          | 6              |                    i32.store: 0x36 (valid) 0xa1-0xa1.7 (1)
     |                                               |                |                    m{}: 0xa2-0xa3.7 (2)
0x0a0|      02                                       |  .             |                      a: 2 0xa2-0xa2.7 (1)
0x0a0|         00                                    |   .            |                      o: 0 0xa3-0xa3.7 (1)
     |                                               |                |                  [3]{}: in 0xa4-0xa5.7 (2)
0x0a0|            41                                 |    A           |                    i32.const: 0x41 (valid) 0xa4-0xa4.7 (1)
0x0a0|               04                              |     .          |                    n: 4 0xa5-0xa5.7 (1)
     |                                               |                |                  [4]{}: in 0xa6-0xa7.7 (2)
0x0a0|                  41                           |      A         |                    i32.const: 0x41 (valid) 0xa6-0xa6.7 (1)
0x0a0|                     00                        |       .        |                    n: 0 0xa7-0xa7.7 (1)
     |                                               |                |                  [5]{}: in 0xa8-0xaa.7 (3)
0x0a0|                        36                     |        6       |                    i32.store: 0x36 (valid) 0xa8-0xa8.7 (1)
     |                                               |                |                    m{}: 0xa9-0xaa.7 (2)
0x0a0|                           02                  |         .      |                      a: 2 0xa9-0xa9.7 (1)
0x0a0|                              00               |          .     |                      o: 0 0xaa-0xaa.7 (1)
     |                                               |                |                  [6]{}: in 0xab-0xac.7 (2)
0x0a0|                                 41            |           A    |                    i32.const: 0x41 (valid) 0xab-0xab.7 (1)
0x0a0|                                    08         |            .   |                    n: 8 0xac-0xac.7 (1)
     |                                               |                |                  [7]{}: in 0xad-0xae.7 (2)
0x0a0|                                       41      |             A  |                    i32.const: 0x41 (valid) 0xad-0xad.7 (1)
0x0a0|                                          00   |              . |                    n: 0 0xae-0xae.7 (1)
     |                                               |                |                  [8]{}: in 0xaf-0xb1.7 (3)
0x0a0|                                             36|               6|                    i32.store: 0x36 (valid) 0xaf-0xaf.7 (1)
     |                                               |                |                    m{}: 0xb0-0xb1.7 (2)
0x0b0|02                                             |.               |                      a: 2 0xb0-0xb0.7 (1)
0x0b0|   00                                          | .              |                      o: 0 0xb1-0xb1.7 (1)
     |                                               |                |                  [9]{}: in 0xb2-0xb3.7 (2)
0x0b0|      41                                       |  A             |                    i32.const: 0x41 (valid) 0xb2-0xb2.7 (1)
0x0b0|         0c                                    |   .            |                    n: 12 0xb3-0xb3.7 (1)
     |                                               |                |                  [10]{}: in 0xb4-0xb5.7 (2)
0x0b0|            41                                 |    A           |                    i32.const: 0x41 (valid) 0xb4-0xb4.7 (1)
0x0b0|               00                              |     .          |                    n: 0 0xb5-0xb5.7 (1)
     |                                               |                |                  [11]{}: in 0xb6-0xb8.7 (3)
0x0b0|                  36                           |      6         |                    i32.store: 0x36 (valid) 0xb6-0xb6.7 (1)
     |                                               |                |                    m{}: 0xb7-0xb8.7 (2)
0x0b0|                     02                        |       .        |                      a: 2 0xb7-0xb7.7 (1)
0x0b0|                        00                     |        .       |                      o: 0 0xb8-0xb8.7 (1)
     |                                               |                |                  [12]{}: in 0xb9-0xb9.7 (1)
0x0b0|                           0b                  |         .      |                    end: 0xb (valid) 0xb9-0xb9.7 (1)
     |                                               |                |            [1]{}: code 0xba-0xd2.7 (25)
0x0b0|                              18               |          .     |              size: 24 0xba-0xba.7 (1)
     |                                               |                |              code{}: 0xbb-0xd2.7 (24)
     |                                               |                |                t{}: 0xbb-0xbb.7 (1)
0x0b0|                                 00            |           .    |                  n: 0 0xbb-0xbb.7 (1)
     |                                               |                |                  x[0:0]: 0xbc-NA (0)
     |                                               |                |                e[0:9]: 0xbc-0xd2.7 (23)
     |                                               |                |                  [0]{}: in 0xbc-0xbd.7 (2)
0x0b0|                                    41         |            A   |                    i32.const: 0x41 (valid) 0xbc-0xbc.7 (1)
0x0b0|                                       08      |             .  |                    n: 8 0xbd-0xbd.7 (1)
     |                                               |                |                  [1]{}: in 0xbe-0xbf.7 (2)
0x0b0|                                          41   |              A |                    i32.const: 0x41 (valid) 0xbe-0xbe.7 (1)
0x0b0|                                             00|               .|                    n: 0 0xbf-0xbf.7 (1)
     |                                               |                |                  [2]{}: in 0xc0-0xc2.7 (3)
0x0c0|36                                             |6               |                    i32.store: 0x36 (valid) 0xc0-0xc0.7 (1)
     |                                               |                |                    m{}: 0xc1-0xc2.7 (2)
0x0c0|   02                                          | .              |                      a: 2 0xc1-0xc1.7 (1)
0x0c0|      00                                       |  .             |                      o: 0 0xc2-0xc2.7 (1)
     |                                               |                |                  [3]{}: in 0xc3-0xc4.7 (2)
0x0c0|         41                                    |   A            |                    i32.const: 0x41 (valid) 0xc3-0xc3.7 (1)
0x0c0|            05                                 |    .           |                    n: 5 0xc4-0xc4.7 (1)
     |                                               |                |                  [4]{}: in 0xc5-0xc9.7 (5)
0x0c0|               43                              |     C          |                    f32.const: 0x43 (valid) 0xc5-0xc5.7 (1)
0x0c0|                  00 00 00 80                  |      ....      |                    z: -0 0xc6-0xc9.7 (4)
     |                                               |                |                  [5]{}: in 0xca-0xcc.7 (3)
0x0c0|                              38               |          8     |                    f32.store: 0x38 (valid) 0xca-0xca.7 (1)
     |                                               |                |                    m{}: 0xcb-0xcc.7 (2)
0x0c0|                                 02            |           .    |                      a: 2 0xcb-0xcb.7 (1)
0x0c0|                                    00         |            .   |                      o: 0 0xcc-0xcc.7 (1)
     |                                               |                |                  [6]{}: in 0xcd-0xce.7 (2)
0x0c0|                                       41      |             A  |                    i32.const: 0x41 (valid) 0xcd-0xcd.7 (1)
0x0c0|                                          08   |              . |                    n: 8 0xce-0xce.7 (1)
     |                                               |                |                  [7]{}: in 0xcf-0xd1.7 (3)
0x0c0|                                             28|               (|                    i32.load: 0x28 (valid) 0xcf-0xcf.7 (1)
     |                                               |                |                    m{}: 0xd0-0xd1.7 (2)
0x0d0|02                                             |.               |                      a: 2 0xd0-0xd0.7 (1)
0x0d0|   00                                          | .              |                      o: 0 0xd1-0xd1.7 (1)
     |                                               |                |                  [8]{}: in 0xd2-0xd2.7 (1)
0x0d0|      0b                                       |  .             |                    end: 0xb (valid) 0xd2-0xd2.7 (1)
     |                                               |                |            [2]{}: code 0xd3-0xf5.7 (35)
0x0d0|         22                                    |   "            |              size: 34 0xd3-0xd3.7 (1)
     |                                               |                |              code{}: 0xd4-0xf5.7 (34)
     |                                               |                |                t{}: 0xd4-0xd6.7 (3)
0x0d0|            01                                 |    .           |                  n: 1 0xd4-0xd4.7 (1)
     |                                               |                |                  x[0:1]: 0xd5-0xd6.7 (2)
     |                                               |                |                    [0]{}: t 0xd5-0xd6.7 (2)
0x0d0|               02                              |     .          |                      n: 2 0xd5-0xd5.7 (1)
0x0d0|                  7f                           |      .         |                      t: "i32" (0x7f) 0xd6-0xd6.7 (1)
     |                                               |                |                e[0:13]: 0xd7-0xf5.7 (31)
     |                                               |                |                  [0]{}: in 0xd7-0xd8.7 (2)
0x0d0|                     41                        |       A        |                    i32.const: 0x41 (valid) 0xd7-0xd7.7 (1)
0x0d0|                        08                     |        .       |                    n: 8 0xd8-0xd8.7 (1)
     |                                               |                |                  [1]{}: in 0xd9-0xdb.7 (3)
0x0d0|                           28                  |         (      |                    i32.load: 0x28 (valid) 0xd9-0xd9.7 (1)
     |                                               |                |                    m{}: 0xda-0xdb.7 (2)
0x0d0|                              02               |          .     |                      a: 2 0xda-0xda.7 (1)
0x0d0|                                 00            |           .    |                      o: 0 0xdb-0xdb.7 (1)
     |                                               |                |                  [2]{}: in 0xdc-0xdd.7 (2)
0x0d0|                                    21         |            !   |                    local.set: 0x21 (valid) 0xdc-0xdc.7 (1)
0x0d0|                                       00      |             .  |                    x: 0 0xdd-0xdd.7 (1)
     |                                               |                |                  [3]{}: in 0xde-0xdf.7 (2)
0x0d0|                                          41   |              A |                    i32.const: 0x41 (valid) 0xde-0xde.7 (1)
0x0d0|                                             05|               .|                    n: 5 0xdf-0xdf.7 (1)
     |                                               |                |                  [4]{}: in 0xe0-0xe5.7 (6)
0x0e0|41                                             |A               |                    i32.const: 0x41 (valid) 0xe0-0xe0.7 (1)
0x0e0|   80 80 80 80 78                              | ....x          |                    n: -2147483648 0xe1-0xe5.7 (5)
     |                                               |                |                  [5]{}: in 0xe6-0xe8.7 (3)
0x0e0|                  36                           |      6         |                    i32.store: 0x36 (valid) 0xe6-0xe6.7 (1)
     |                                               |                |                    m{}: 0xe7-0xe8.7 (2)
0x0e0|                     02                        |       .        |                      a: 2 0xe7-0xe7.7 (1)
0x0e0|                        00                     |        .       |                      o: 0 0xe8-0xe8.7 (1)
     |                                               |                |                  [6]{}: in 0xe9-0xea.7 (2)
0x0e0|                           41                  |         A      |                    i32.const: 0x41 (valid) 0xe9-0xe9.7 (1)
0x0e0|                              08               |          .     |                    n: 8 0xea-0xea.7 (1)
     |                                               |                |                  [7]{}: in 0xeb-0xed.7 (3)
0x0e0|                                 28            |           (    |                    i32.load: 0x28 (valid) 0xeb-0xeb.7 (1)
     |                                               |                |                    m{}: 0xec-0xed.7 (2)
0x0e0|                                    02         |            .   |                      a: 2 0xec-0xec.7 (1)
0x0e0|                                       00      |             .  |                      o: 0 0xed-0xed.7 (1)
     |                                               |                |                  [8]{}: in 0xee-0xef.7 (2)
0x0e0|                                          21   |              ! |                    local.set: 0x21 (valid) 0xee-0xee.7 (1)
0x0e0|                                             01|               .|                    x: 1 0xef-0xef.7 (1)
     |                                               |                |                  [9]{}: in 0xf0-0xf1.7 (2)
0x0f0|20                                             |                |                    local.get: 0x20 (valid) 0xf0-0xf0.7 (1)
0x0f0|   00                                          | .              |                    x: 0 0xf1-0xf1.7 (1)
     |                                               |                |                  [10]{}: in 0xf2-0xf3.7 (2)
0x0f0|      20                                       |                |                    local.get: 0x20 (valid) 0xf2-0xf2.7 (1)
0x0f0|         01                                    |   .            |                    x: 1 0xf3-0xf3.7 (1)
     |                                               |                |                  [11]{}: in 0xf4-0xf4.7 (1)
0x0f0|            6a                                 |    j           |                    i32.add: 0x6a (valid) 0xf4-0xf4.7 (1)
     |                                               |                |                  [12]{}: in 0xf5-0xf5.7 (1)
0x0f0|               0b                              |     .          |                    end: 0xb (valid) 0xf5-0xf5.7 (1)
     |                                               |                |            [3]{}: code 0xf6-0x115.7 (32)
0x0f0|                  1f                           |      .         |              size: 31 0xf6-0xf6.7 (1)
     |                                               |                |              code{}: 0xf7-0x115.7 (31)
     |                                               |                |                t{}: 0xf7-0xf9.7 (3)
0x0f0|                     01                        |       .        |                  n: 1 0xf7-0xf7.7 (1)
     |                                               |                |                  x[0:1]: 0xf8-0xf9.7 (2)
     |                                               |                |                    [0]{}: t 0xf8-0xf9.7 (2)
0x0f0|                        01                     |        .       |                      n: 1 0xf8-0xf8.7 (1)
0x0f0|                           7d                  |         }      |                      t: "f32" (0x7d) 0xf9-0xf9.7 (1)
     |                                               |                |                e[0:11]: 0xfa-0x115.7 (28)
     |                                               |                |                  [0]{}: in 0xfa-0xfb.7 (2)
0x0f0|                              41               |          A     |                    i32.const: 0x41 (valid) 0xfa-0xfa.7 (1)
0x0f0|                                 08            |           .    |                    n: 8 0xfb-0xfb.7 (1)
     |                                               |                |                  [1]{}: in 0xfc-0x101.7 (6)
0x0f0|                                    41         |            A   |                    i32.const: 0x41 (valid) 0xfc-0xfc.7 (1)
0x0f0|                                       a3 c6 8c|             ...|                    n: 589505315 0xfd-0x101.7 (5)
0x100|99 02                                          |..              |
     |                                               |                |                  [2]{}: in 0x102-0x104.7 (3)
0x100|      36                                       |  6             |                    i32.store: 0x36 (valid) 0x102-0x102.7 (1)
     |                                               |                |                    m{}: 0x103-0x104.7 (2)
0x100|         02                                    |   .            |                      a: 2 0x103-0x103.7 (1)
0x100|            00                                 |    .           |                      o: 0 0x104-0x104.7 (1)
     |                                               |                |                  [3]{}: in 0x105-0x106.7 (2)
0x100|               41                              |     A          |                    i32.const: 0x41 (valid) 0x105-0x105.7 (1)
0x100|                  0b                           |      .         |                    n: 11 0x106-0x106.7 (1)
     |                                               |                |                  [4]{}: in 0x107-0x109.7 (3)
0x100|                     2a                        |       *        |                    f32.load: 0x2a (valid) 0x107-0x107.7 (1)
     |                                               |                |                    m{}: 0x108-0x109.7 (2)
0x100|                        02                     |        .       |                      a: 2 0x108-0x108.7 (1)
0x100|                           00                  |         .      |                      o: 0 0x109-0x109.7 (1)
     |                                               |                |                  [5]{}: in 0x10a-0x10b.7 (2)
0x100|                              21               |          !     |                    local.set: 0x21 (valid) 0x10a-0x10a.7 (1)
0x100|                                 00            |           .    |                    x: 0 0x10b-0x10b.7 (1)
     |                                               |                |                  [6]{}: in 0x10c-0x10d.7 (2)
0x100|                                    41         |            A   |                    i32.const: 0x41 (valid) 0x10c-0x10c.7 (1)
0x100|                                       08      |             .  |                    n: 8 0x10d-0x10d.7 (1)
     |                                               |                |                  [7]{}: in 0x10e-0x10f.7 (2)
0x100|                                          41   |              A |                    i32.const: 0x41 (valid) 0x10e-0x10e.7 (1)
0x100|                                             00|               .|                    n: 0 0x10f-0x10f.7 (1)
     |                                               |                |                  [8]{}: in 0x110-0x112.7 (3)
0x110|36                                             |6               |                    i32.store: 0x36 (valid) 0x110-0x110.7 (1)
     |                                               |                |                    m{}: 0x111-0x112.7 (2)
0x110|   02                                          | .              |                      a: 2 0x111-0x111.7 (1)
0x110|      00                                       |  .             |                      o: 0 0x112-0x112.7 (1)
     |                                               |                |                  [9]{}: in 0x113-0x114.7 (2)
0x110|         20                                    |                |                    local.get: 0x20 (valid) 0x113-0x113.7 (1)
0x110|            00                                 |    .           |                    x: 0 0x114-0x114.7 (1)
     |                                               |                |                  [10]{}: in 0x115-0x115.7 (1)
0x110|               0b                              |     .          |                    end: 0xb (valid) 0x115-0x115.7 (1)
     |                                               |                |            [4]{}: code 0x116-0x11a.7 (5)
0x110|                  04                           |      .         |              size: 4 0x116-0x116.7 (1)
     |                                               |                |              code{}: 0x117-0x11a.7 (4)
     |                                               |                |                t{}: 0x117-0x117.7 (1)
0x110|                     00                        |       .        |                  n: 0 0x117-0x117.7 (1)
     |                                               |                |                  x[0:0]: 0x118-NA (0)
     |                                               |                |                e[0:2]: 0x118-0x11a.7 (3)
     |                                               |                |                  [0]{}: in 0x118-0x119.7 (2)
0x110|                        41                     |        A       |                    i32.const: 0x41 (valid) 0x118-0x118.7 (1)
0x110|                           10                  |         .      |                    n: 16 0x119-0x119.7 (1)
     |                                               |                |                  [1]{}: in 0x11a-0x11a.7 (1)
0x110|                              0b               |          .     |                    end: 0xb (valid) 0x11a-0x11a.7 (1)
     |                                               |                |            [5]{}: code 0x11b-0x13e.7 (36)
0x110|                                 23            |           #    |              size: 35 0x11b-0x11b.7 (1)
     |                                               |                |              code{}: 0x11c-0x13e.7 (35)
     |                                               |                |                t{}: 0x11c-0x11e.7 (3)
0x110|                                    01         |            .   |                  n: 1 0x11c-0x11c.7 (1)
     |                                               |                |                  x[0:1]: 0x11d-0x11e.7 (2)
     |                                               |                |                    [0]{}: t 0x11d-0x11e.7 (2)
0x110|                                       02      |             .  |                      n: 2 0x11d-0x11d.7 (1)
0x110|                                          7f   |              . |                      t: "i32" (0x7f) 0x11e-0x11e.7 (1)
     |                                               |                |                e[0:15]: 0x11f-0x13e.7 (32)
     |                                               |                |                  [0]{}: in 0x11f-0x120.7 (2)
0x110|                                             41|               A|                    i32.const: 0x41 (valid) 0x11f-0x11f.7 (1)
0x120|04                                             |.               |                    n: 4 0x120-0x120.7 (1)
     |                                               |                |                  [1]{}: in 0x121-0x122.7 (2)
0x120|   10                                          | .              |                    call: 0x10 (valid) 0x121-0x121.7 (1)
0x120|      04                                       |  .             |                    x: 4 0x122-0x122.7 (1)
     |                                               |                |                  [2]{}: in 0x123-0x124.7 (2)
0x120|         21                                    |   !            |                    local.set: 0x21 (valid) 0x123-0x123.7 (1)
0x120|            00                                 |    .           |                    x: 0 0x124-0x124.7 (1)
     |                                               |                |                  [3]{}: in 0x125-0x126.7 (2)
0x120|               41                              |     A          |                    i32.const: 0x41 (valid) 0x125-0x125.7 (1)
0x120|                  04                           |      .         |                    n: 4 0x126-0x126.7 (1)
     |                                               |                |                  [4]{}: in 0x127-0x128.7 (2)
0x120|                     10                        |       .        |                    call: 0x10 (valid) 0x127-0x127.7 (1)
0x120|                        04                     |        .       |                    x: 4 0x128-0x128.7 (1)
     |                                               |                |                  [5]{}: in 0x129-0x12a.7 (2)
0x120|                           21                  |         !      |                    local.set: 0x21 (valid) 0x129-0x129.7 (1)
0x120|                              01               |          .     |                    x: 1 0x12a-0x12a.7 (1)
     |                                               |                |                  [6]{}: in 0x12b-0x12c.7 (2)
0x120|                                 20            |                |                    local.get: 0x20 (valid) 0x12b-0x12b.7 (1)
0x120|                                    00         |            .   |                    x: 0 0x12c-0x12c.7 (1)
     |                                               |                |                  [7]{}: in 0x12d-0x12e.7 (2)
0x120|                                       41      |             A  |                    i32.const: 0x41 (valid) 0x12d-0x12d.7 (1)
0x120|                                          2a   |              * |                    n: 42 0x12e-0x12e.7 (1)
     |                                               |                |                  [8]{}: in 0x12f-0x131.7 (3)
0x120|                                             36|               6|                    i32.store: 0x36 (valid) 0x12f-0x12f.7 (1)
     |                                               |                |                    m{}: 0x130-0x131.7 (2)
0x130|02                                             |.               |                      a: 2 0x130-0x130.7 (1)
0x130|   00                                          | .              |                      o: 0 0x131-0x131.7 (1)
     |                                               |                |                  [9]{}: in 0x132-0x133.7 (2)
0x130|      20                                       |                |                    local.get: 0x20 (valid) 0x132-0x132.7 (1)
0x130|         01                                    |   .            |                    x: 1 0x133-0x133.7 (1)
     |                                               |                |                  [10]{}: in 0x134-0x135.7 (2)
0x130|            41                                 |    A           |                    i32.const: 0x41 (valid) 0x134-0x134.7 (1)
0x130|               2b                              |     +          |                    n: 43 0x135-0x135.7 (1)
     |                                               |                |                  [11]{}: in 0x136-0x138.7 (3)
0x130|                  36                           |      6         |                    i32.store: 0x36 (valid) 0x136-0x136.7 (1)
     |                                               |                |                    m{}: 0x137-0x138.7 (2)
0x130|                     02                        |       .        |                      a: 2 0x137-0x137.7 (1)
0x130|                        00                     |        .       |                      o: 0 0x138-0x138.7 (1)
     |                                               |                |                  [12]{}: in 0x139-0x13a.7 (2)
0x130|                           20                  |                |                    local.get: 0x20 (valid) 0x139-0x139.7 (1)
0x130|                              00               |          .     |                    x: 0 0x13a-0x13a.7 (1)
     |                                               |                |                  [13]{}: in 0x13b-0x13d.7 (3)
0x130|                                 28            |           (    |                    i32.load: 0x28 (valid) 0x13b-0x13b.7 (1)
     |                                               |                |                    m{}: 0x13c-0x13d.7 (2)
0x130|                                    02         |            .   |                      a: 2 0x13c-0x13c.7 (1)
0x130|                                       00      |             .  |                      o: 0 0x13d-0x13d.7 (1)
     |                                               |                |                  [14]{}: in 0x13e-0x13e.7 (1)
0x130|                                          0b|  |              .||                    end: 0xb (valid) 0x13e-0x13e.7 (1)
