$ fq -d wasm dv memory_copy-1.wasm
    |00 01 02 03 04 05 06 07 08 09 0a 0b 0c 0d 0e 0f|0123456789abcdef|.{}: memory_copy-1.wasm (wasm) 0x0-0x6a (106)
0x00|00 61 73 6d                                    |.asm            |  magic: raw bits (valid) 0x0-0x4 (4)
0x00|            01 00 00 00                        |    ....        |  version: 1 0x4-0x8 (4)
    |                                               |                |  sections[0:6]: 0x8-0x6a (98)
    |                                               |                |    [0]{}: section 0x8-0x13 (11)
0x00|                        01                     |        .       |      id: "type_section" (1) 0x8-0x9 (1)
0x00|                           09                  |         .      |      size: 9 (valid) 0x9-0xa (1)
    |                                               |                |      content{}: 0xa-0x13 (9)
    |                                               |                |        ft{}: 0xa-0x13 (9)
0x00|                              02               |          .     |          n: 2 (valid) 0xa-0xb (1)
    |                                               |                |          x[0:2]: 0xb-0x13 (8)
    |                                               |                |            [0]{}: ft 0xb-0xe (3)
0x00|                                 60            |           `    |              tag: 0x60 (valid) 0xb-0xc (1)
    |                                               |                |              rt1{}: 0xc-0xd (1)
0x00|                                    00         |            .   |                n: 0 (valid) 0xc-0xd (1)
    |                                               |                |                x[0:0]: 0xd-0xd (0)
    |                                               |                |              rt2{}: 0xd-0xe (1)
0x00|                                       00      |             .  |                n: 0 (valid) 0xd-0xe (1)
    |                                               |                |                x[0:0]: 0xe-0xe (0)
    |                                               |                |            [1]{}: ft 0xe-0x13 (5)
0x00|                                          60   |              ` |              tag: 0x60 (valid) 0xe-0xf (1)
    |                                               |                |              rt1{}: 0xf-0x11 (2)
0x00|                                             01|               .|                n: 1 (valid) 0xf-0x10 (1)
    |                                               |                |                x[0:1]: 0x10-0x11 (1)
0x10|7f                                             |.               |                  [0]: "i32" (0x7f) t 0x10-0x11 (1)
    |                                               |                |              rt2{}: 0x11-0x13 (2)
0x10|   01                                          | .              |                n: 1 (valid) 0x11-0x12 (1)
    |                                               |                |                x[0:1]: 0x12-0x13 (1)
0x10|      7f                                       |  .             |                  [0]: "i32" (0x7f) t 0x12-0x13 (1)
    |                                               |                |    [1]{}: section 0x13-0x18 (5)
0x10|         03                                    |   .            |      id: "function_section" (3) 0x13-0x14 (1)
0x10|            03                                 |    .           |      size: 3 (valid) 0x14-0x15 (1)
    |                                               |                |      content{}: 0x15-0x18 (3)
    |                                               |                |        x{}: 0x15-0x18 (3)
0x10|               02                              |     .          |          n: 2 (valid) 0x15-0x16 (1)
    |                                               |                |          x[0:2]: 0x16-0x18 (2)
0x10|                  00                           |      .         |            [0]: 0 x (valid) 0x16-0x17 (1)
0x10|                     01                        |       .        |            [1]: 1 x (valid) 0x17-0x18 (1)
    |                                               |                |    [2]{}: section 0x18-0x1e (6)
0x10|                        05                     |        .       |      id: "memory_section" (5) 0x18-0x19 (1)
0x10|                           04                  |         .      |      size: 4 (valid) 0x19-0x1a (1)
    |                                               |                |      content{}: 0x1a-0x1e (4)
    |                                               |                |        mem{}: 0x1a-0x1e (4)
0x10|                              01               |          .     |          n: 1 (valid) 0x1a-0x1b (1)
    |                                               |                |          x[0:1]: 0x1b-0x1e (3)
    |                                               |                |            [0]{}: mem 0x1b-0x1e (3)
    |                                               |                |              lim{}: 0x1b-0x1e (3)
0x10|                                 01            |           .    |                tag: 0x1 0x1b-0x1c (1)
0x10|                                    01         |            .   |                n: 1 (valid) 0x1c-0x1d (1)
0x10|                                       01      |             .  |                m: 1 (valid) 0x1d-0x1e (1)
    |                                               |                |    [3]{}: section 0x1e-0x3c (30)
0x10|                                          07   |              . |      id: "export_section" (7) 0x1e-0x1f (1)
0x10|                                             1c|               .|      size: 28 (valid) 0x1f-0x20 (1)
    |                                               |                |      content{}: 0x20-0x3c (28)
    |                                               |                |        ex{}: 0x20-0x3c (28)
0x20|03                                             |.               |          n: 3 (valid) 0x20-0x21 (1)
    |                                               |                |          x[0:3]: 0x21-0x3c (27)
    |                                               |                |            [0]{}: ex 0x21-0x2b (10)
    |                                               |                |              nm{}: 0x21-0x29 (8)
0x20|   07                                          | .              |                n: 7 (valid) 0x21-0x22 (1)
0x20|      6d 65 6d 6f 72 79 30                     |  memory0       |                b: "memory0" 0x22-0x29 (7)
    |                                               |                |              d{}: 0x29-0x2b (2)
0x20|                           02                  |         .      |                tag: "memidx" (0x2) 0x29-0x2a (1)
0x20|                              00               |          .     |                x: 0 (valid) 0x2a-0x2b (1)
    |                                               |                |            [1]{}: ex 0x2b-0x32 (7)
    |                                               |                |              nm{}: 0x2b-0x30 (5)
0x20|                                 04            |           .    |                n: 4 (valid) 0x2b-0x2c (1)
0x20|                                    74 65 73 74|            test|                b: "test" 0x2c-0x30 (4)
    |                                               |                |              d{}: 0x30-0x32 (2)
0x30|00                                             |.               |                tag: "funcidx" (0x0) 0x30-0x31 (1)
0x30|   00                                          | .              |                x: 0 (valid) 0x31-0x32 (1)
    |                                               |                |            [2]{}: ex 0x32-0x3c (10)
    |                                               |                |              nm{}: 0x32-0x3a (8)
0x30|      07                                       |  .             |                n: 7 (valid) 0x32-0x33 (1)
0x30|         6c 6f 61 64 38 5f 75                  |   load8_u      |                b: "load8_u" 0x33-0x3a (7)
    |                                               |                |              d{}: 0x3a-0x3c (2)
0x30|                              00               |          .     |                tag: "funcidx" (0x0) 0x3a-0x3b (1)
0x30|                                 01            |           .    |                x: 1 (valid) 0x3b-0x3c (1)
    |                                               |                |    [4]{}: section 0x3c-0x54 (24)
0x30|                                    0a         |            .   |      id: "code_section" (10) 0x3c-0x3d (1)
0x30|                                       16      |             .  |      size: 22 (valid) 0x3d-0x3e (1)
    |                                               |                |      content{}: 0x3e-0x54 (22)
    |                                               |                |        code{}: 0x3e-0x54 (22)
0x30|                                          02   |              . |          n: 2 (valid) 0x3e-0x3f (1)
    |                                               |                |          x[0:2]: 0x3f-0x54 (21)
    |                                               |                |            [0]{}: code 0x3f-0x4c (13)
0x30|                                             0c|               .|              size: 12 (valid) 0x3f-0x40 (1)
    |                                               |                |              code{}: 0x40-0x4c (12)
    |                                               |                |                t{}: 0x40-0x41 (1)
0x40|00                                             |.               |                  n: 0 (valid) 0x40-0x41 (1)
    |                                               |                |                  x[0:0]: 0x41-0x41 (0)
    |                                               |                |                e[0:5]: 0x41-0x4c (11)
    |                                               |                |                  [0]{}: in 0x41-0x43 (2)
0x40|   41                                          | A              |                    opcode: "i32.const" (0x41) 0x41-0x42 (1)
0x40|      0d                                       |  .             |                    n: 13 (valid) 0x42-0x43 (1)
    |                                               |                |                  [1]{}: in 0x43-0x45 (2)
0x40|         41                                    |   A            |                    opcode: "i32.const" (0x41) 0x43-0x44 (1)
0x40|            02                                 |    .           |                    n: 2 (valid) 0x44-0x45 (1)
    |                                               |                |                  [2]{}: in 0x45-0x47 (2)
0x40|               41                              |     A          |                    opcode: "i32.const" (0x41) 0x45-0x46 (1)
0x40|                  03                           |      .         |                    n: 3 (valid) 0x46-0x47 (1)
    |                                               |                |                  [3]{}: in 0x47-0x4b (4)
0x40|                     fc                        |       .        |                    opcode: "prefix" (0xfc) 0x47-0x48 (1)
0x40|                        0a                     |        .       |                    p_opcode: "memory.copy" (10) 0x48-0x49 (1)
0x40|                           00                  |         .      |                    reserved1: 0x0 (valid) 0x49-0x4a (1)
0x40|                              00               |          .     |                    reserved2: 0x0 (valid) 0x4a-0x4b (1)
    |                                               |                |                  [4]{}: in 0x4b-0x4c (1)
0x40|                                 0b            |           .    |                    opcode: "end" (0xb) 0x4b-0x4c (1)
    |                                               |                |            [1]{}: code 0x4c-0x54 (8)
0x40|                                    07         |            .   |              size: 7 (valid) 0x4c-0x4d (1)
    |                                               |                |              code{}: 0x4d-0x54 (7)
    |                                               |                |                t{}: 0x4d-0x4e (1)
0x40|                                       00      |             .  |                  n: 0 (valid) 0x4d-0x4e (1)
    |                                               |                |                  x[0:0]: 0x4e-0x4e (0)
    |                                               |                |                e[0:3]: 0x4e-0x54 (6)
    |                                               |                |                  [0]{}: in 0x4e-0x50 (2)
0x40|                                          20   |                |                    opcode: "local.get" (0x20) 0x4e-0x4f (1)
0x40|                                             00|               .|                    x: 0 (valid) 0x4f-0x50 (1)
    |                                               |                |                  [1]{}: in 0x50-0x53 (3)
0x50|2d                                             |-               |                    opcode: "i32.load8_u" (0x2d) 0x50-0x51 (1)
    |                                               |                |                    m{}: 0x51-0x53 (2)
0x50|   00                                          | .              |                      a: 0 (valid) 0x51-0x52 (1)
0x50|      00                                       |  .             |                      o: 0 (valid) 0x52-0x53 (1)
    |                                               |                |                  [2]{}: in 0x53-0x54 (1)
0x50|         0b                                    |   .            |                    opcode: "end" (0xb) 0x53-0x54 (1)
    |                                               |                |    [5]{}: section 0x54-0x6a (22)
0x50|            0b                                 |    .           |      id: "data_section" (11) 0x54-0x55 (1)
0x50|               14                              |     .          |      size: 20 (valid) 0x55-0x56 (1)
    |                                               |                |      content{}: 0x56-0x6a (20)
    |                                               |                |        seg{}: 0x56-0x6a (20)
0x50|                  02                           |      .         |          n: 2 (valid) 0x56-0x57 (1)
    |                                               |                |          x[0:2]: 0x57-0x6a (19)
    |                                               |                |            [0]{}: seg 0x57-0x60 (9)
0x50|                     00                        |       .        |              tag: 0 (valid) 0x57-0x58 (1)
    |                                               |                |              e[0:2]: 0x58-0x5b (3)
    |                                               |                |                [0]{}: in 0x58-0x5a (2)
0x50|                        41                     |        A       |                  opcode: "i32.const" (0x41) 0x58-0x59 (1)
0x50|                           02                  |         .      |                  n: 2 (valid) 0x59-0x5a (1)
    |                                               |                |                [1]{}: in 0x5a-0x5b (1)
0x50|                              0b               |          .     |                  opcode: "end" (0xb) 0x5a-0x5b (1)
    |                                               |                |              b{}: 0x5b-0x60 (5)
0x50|                                 04            |           .    |                n: 4 (valid) 0x5b-0x5c (1)
0x50|                                    03 01 04 01|            ....|                x: raw bits 0x5c-0x60 (4)
    |                                               |                |            [1]{}: seg 0x60-0x6a (10)
0x60|00                                             |.               |              tag: 0 (valid) 0x60-0x61 (1)
    |                                               |                |              e[0:2]: 0x61-0x64 (3)
    |                                               |                |                [0]{}: in 0x61-0x63 (2)
0x60|   41                                          | A              |                  opcode: "i32.const" (0x41) 0x61-0x62 (1)
0x60|      0c                                       |  .             |                  n: 12 (valid) 0x62-0x63 (1)
    |                                               |                |                [1]{}: in 0x63-0x64 (1)
0x60|         0b                                    |   .            |                  opcode: "end" (0xb) 0x63-0x64 (1)
    |                                               |                |              b{}: 0x64-0x6a (6)
0x60|            05                                 |    .           |                n: 5 (valid) 0x64-0x65 (1)
0x60|               07 05 02 03 06|                 |     .....|     |                x: raw bits 0x65-0x6a (5)
