$ fq -d wasm dv memory_copy-8.wasm
    |00 01 02 03 04 05 06 07 08 09 0a 0b 0c 0d 0e 0f|0123456789abcdef|.{}: memory_copy-8.wasm (wasm) 0x0-0x6e (110)
0x00|00 61 73 6d                                    |.asm            |  magic: raw bits (valid) 0x0-0x4 (4)
0x00|            01 00 00 00                        |    ....        |  version: 1 0x4-0x8 (4)
    |                                               |                |  sections[0:6]: 0x8-0x6e (102)
    |                                               |                |    [0]{}: section 0x8-0x16 (14)
0x00|                        01                     |        .       |      id: "type_section" (1) 0x8-0x9 (1)
0x00|                           0c                  |         .      |      size: 12 (valid) 0x9-0xa (1)
    |                                               |                |      content{}: 0xa-0x16 (12)
    |                                               |                |        ft{}: 0xa-0x16 (12)
0x00|                              02               |          .     |          n: 2 (valid) 0xa-0xb (1)
    |                                               |                |          x[0:2]: 0xb-0x16 (11)
    |                                               |                |            [0]{}: ft 0xb-0x11 (6)
0x00|                                 60            |           `    |              tag: 0x60 (valid) 0xb-0xc (1)
    |                                               |                |              rt1{}: 0xc-0x10 (4)
0x00|                                    03         |            .   |                n: 3 (valid) 0xc-0xd (1)
    |                                               |                |                x[0:3]: 0xd-0x10 (3)
0x00|                                       7f      |             .  |                  [0]: "i32" (0x7f) t 0xd-0xe (1)
0x00|                                          7f   |              . |                  [1]: "i32" (0x7f) t 0xe-0xf (1)
0x00|                                             7f|               .|                  [2]: "i32" (0x7f) t 0xf-0x10 (1)
    |                                               |                |              rt2{}: 0x10-0x11 (1)
0x10|00                                             |.               |                n: 0 (valid) 0x10-0x11 (1)
    |                                               |                |                x[0:0]: 0x11-0x11 (0)
    |                                               |                |            [1]{}: ft 0x11-0x16 (5)
0x10|   60                                          | `              |              tag: 0x60 (valid) 0x11-0x12 (1)
    |                                               |                |              rt1{}: 0x12-0x14 (2)
0x10|      01                                       |  .             |                n: 1 (valid) 0x12-0x13 (1)
    |                                               |                |                x[0:1]: 0x13-0x14 (1)
0x10|         7f                                    |   .            |                  [0]: "i32" (0x7f) t 0x13-0x14 (1)
    |                                               |                |              rt2{}: 0x14-0x16 (2)
0x10|            01                                 |    .           |                n: 1 (valid) 0x14-0x15 (1)
    |                                               |                |                x[0:1]: 0x15-0x16 (1)
0x10|               7f                              |     .          |                  [0]: "i32" (0x7f) t 0x15-0x16 (1)
    |                                               |                |    [1]{}: section 0x16-0x1b (5)
0x10|                  03                           |      .         |      id: "function_section" (3) 0x16-0x17 (1)
0x10|                     03                        |       .        |      size: 3 (valid) 0x17-0x18 (1)
    |                                               |                |      content{}: 0x18-0x1b (3)
    |                                               |                |        x{}: 0x18-0x1b (3)
0x10|                        02                     |        .       |          n: 2 (valid) 0x18-0x19 (1)
    |                                               |                |          x[0:2]: 0x19-0x1b (2)
0x10|                           00                  |         .      |            [0]: 0 x (valid) 0x19-0x1a (1)
0x10|                              01               |          .     |            [1]: 1 x (valid) 0x1a-0x1b (1)
    |                                               |                |    [2]{}: section 0x1b-0x21 (6)
0x10|                                 05            |           .    |      id: "memory_section" (5) 0x1b-0x1c (1)
0x10|                                    04         |            .   |      size: 4 (valid) 0x1c-0x1d (1)
    |                                               |                |      content{}: 0x1d-0x21 (4)
    |                                               |                |        mem{}: 0x1d-0x21 (4)
0x10|                                       01      |             .  |          n: 1 (valid) 0x1d-0x1e (1)
    |                                               |                |          x[0:1]: 0x1e-0x21 (3)
    |                                               |                |            [0]{}: mem 0x1e-0x21 (3)
    |                                               |                |              lim{}: 0x1e-0x21 (3)
0x10|                                          01   |              . |                tag: 0x1 0x1e-0x1f (1)
0x10|                                             01|               .|                n: 1 (valid) 0x1f-0x20 (1)
0x20|01                                             |.               |                m: 1 (valid) 0x20-0x21 (1)
    |                                               |                |    [3]{}: section 0x21-0x3a (25)
0x20|   07                                          | .              |      id: "export_section" (7) 0x21-0x22 (1)
0x20|      17                                       |  .             |      size: 23 (valid) 0x22-0x23 (1)
    |                                               |                |      content{}: 0x23-0x3a (23)
    |                                               |                |        ex{}: 0x23-0x3a (23)
0x20|         03                                    |   .            |          n: 3 (valid) 0x23-0x24 (1)
    |                                               |                |          x[0:3]: 0x24-0x3a (22)
    |                                               |                |            [0]{}: ex 0x24-0x2a (6)
    |                                               |                |              nm{}: 0x24-0x28 (4)
0x20|            03                                 |    .           |                n: 3 (valid) 0x24-0x25 (1)
0x20|               6d 65 6d                        |     mem        |                b: "mem" 0x25-0x28 (3)
    |                                               |                |              d{}: 0x28-0x2a (2)
0x20|                        02                     |        .       |                tag: "memidx" (0x2) 0x28-0x29 (1)
0x20|                           00                  |         .      |                x: 0 (valid) 0x29-0x2a (1)
    |                                               |                |            [1]{}: ex 0x2a-0x30 (6)
    |                                               |                |              nm{}: 0x2a-0x2e (4)
0x20|                              03               |          .     |                n: 3 (valid) 0x2a-0x2b (1)
0x20|                                 72 75 6e      |           run  |                b: "run" 0x2b-0x2e (3)
    |                                               |                |              d{}: 0x2e-0x30 (2)
0x20|                                          00   |              . |                tag: "funcidx" (0x0) 0x2e-0x2f (1)
0x20|                                             00|               .|                x: 0 (valid) 0x2f-0x30 (1)
    |                                               |                |            [2]{}: ex 0x30-0x3a (10)
    |                                               |                |              nm{}: 0x30-0x38 (8)
0x30|07                                             |.               |                n: 7 (valid) 0x30-0x31 (1)
0x30|   6c 6f 61 64 38 5f 75                        | load8_u        |                b: "load8_u" 0x31-0x38 (7)
    |                                               |                |              d{}: 0x38-0x3a (2)
0x30|                        00                     |        .       |                tag: "funcidx" (0x0) 0x38-0x39 (1)
0x30|                           01                  |         .      |                x: 1 (valid) 0x39-0x3a (1)
    |                                               |                |    [4]{}: section 0x3a-0x52 (24)
0x30|                              0a               |          .     |      id: "code_section" (10) 0x3a-0x3b (1)
0x30|                                 16            |           .    |      size: 22 (valid) 0x3b-0x3c (1)
    |                                               |                |      content{}: 0x3c-0x52 (22)
    |                                               |                |        code{}: 0x3c-0x52 (22)
0x30|                                    02         |            .   |          n: 2 (valid) 0x3c-0x3d (1)
    |                                               |                |          x[0:2]: 0x3d-0x52 (21)
    |                                               |                |            [0]{}: code 0x3d-0x4a (13)
0x30|                                       0c      |             .  |              size: 12 (valid) 0x3d-0x3e (1)
    |                                               |                |              code{}: 0x3e-0x4a (12)
    |                                               |                |                t{}: 0x3e-0x3f (1)
0x30|                                          00   |              . |                  n: 0 (valid) 0x3e-0x3f (1)
    |                                               |                |                  x[0:0]: 0x3f-0x3f (0)
    |                                               |                |                e[0:5]: 0x3f-0x4a (11)
    |                                               |                |                  [0]{}: in 0x3f-0x41 (2)
0x30|                                             20|                |                    opcode: "local.get" (0x20) 0x3f-0x40 (1)
0x40|00                                             |.               |                    x: 0 (valid) 0x40-0x41 (1)
    |                                               |                |                  [1]{}: in 0x41-0x43 (2)
0x40|   20                                          |                |                    opcode: "local.get" (0x20) 0x41-0x42 (1)
0x40|      01                                       |  .             |                    x: 1 (valid) 0x42-0x43 (1)
    |                                               |                |                  [2]{}: in 0x43-0x45 (2)
0x40|         20                                    |                |                    opcode: "local.get" (0x20) 0x43-0x44 (1)
0x40|            02                                 |    .           |                    x: 2 (valid) 0x44-0x45 (1)
    |                                               |                |                  [3]{}: in 0x45-0x49 (4)
0x40|               fc                              |     .          |                    opcode: "prefix" (0xfc) 0x45-0x46 (1)
0x40|                  0a                           |      .         |                    p_opcode: "memory.copy" (10) 0x46-0x47 (1)
0x40|                     00                        |       .        |                    reserved1: 0x0 (valid) 0x47-0x48 (1)
0x40|                        00                     |        .       |                    reserved2: 0x0 (valid) 0x48-0x49 (1)
    |                                               |                |                  [4]{}: in 0x49-0x4a (1)
0x40|                           0b                  |         .      |                    opcode: "end" (0xb) 0x49-0x4a (1)
    |                                               |                |            [1]{}: code 0x4a-0x52 (8)
0x40|                              07               |          .     |              size: 7 (valid) 0x4a-0x4b (1)
    |                                               |                |              code{}: 0x4b-0x52 (7)
    |                                               |                |                t{}: 0x4b-0x4c (1)
0x40|                                 00            |           .    |                  n: 0 (valid) 0x4b-0x4c (1)
    |                                               |                |                  x[0:0]: 0x4c-0x4c (0)
    |                                               |                |                e[0:3]: 0x4c-0x52 (6)
    |                                               |                |                  [0]{}: in 0x4c-0x4e (2)
0x40|                                    20         |                |                    opcode: "local.get" (0x20) 0x4c-0x4d (1)
0x40|                                       00      |             .  |                    x: 0 (valid) 0x4d-0x4e (1)
    |                                               |                |                  [1]{}: in 0x4e-0x51 (3)
0x40|                                          2d   |              - |                    opcode: "i32.load8_u" (0x2d) 0x4e-0x4f (1)
    |                                               |                |                    m{}: 0x4f-0x51 (2)
0x40|                                             00|               .|                      a: 0 (valid) 0x4f-0x50 (1)
0x50|00                                             |.               |                      o: 0 (valid) 0x50-0x51 (1)
    |                                               |                |                  [2]{}: in 0x51-0x52 (1)
0x50|   0b                                          | .              |                    opcode: "end" (0xb) 0x51-0x52 (1)
    |                                               |                |    [5]{}: section 0x52-0x6e (28)
0x50|      0b                                       |  .             |      id: "data_section" (11) 0x52-0x53 (1)
0x50|         1a                                    |   .            |      size: 26 (valid) 0x53-0x54 (1)
    |                                               |                |      content{}: 0x54-0x6e (26)
    |                                               |                |        seg{}: 0x54-0x6e (26)
0x50|            01                                 |    .           |          n: 1 (valid) 0x54-0x55 (1)
    |                                               |                |          x[0:1]: 0x55-0x6e (25)
    |                                               |                |            [0]{}: seg 0x55-0x6e (25)
0x50|               00                              |     .          |              tag: 0 (valid) 0x55-0x56 (1)
    |                                               |                |              e[0:2]: 0x56-0x59 (3)
    |                                               |                |                [0]{}: in 0x56-0x58 (2)
0x50|                  41                           |      A         |                  opcode: "i32.const" (0x41) 0x56-0x57 (1)
0x50|                     00                        |       .        |                  n: 0 (valid) 0x57-0x58 (1)
    |                                               |                |                [1]{}: in 0x58-0x59 (1)
0x50|                        0b                     |        .       |                  opcode: "end" (0xb) 0x58-0x59 (1)
    |                                               |                |              b{}: 0x59-0x6e (21)
0x50|                           14                  |         .      |                n: 20 (valid) 0x59-0x5a (1)
0x50|                              00 01 02 03 04 05|          ......|                x: raw bits 0x5a-0x6e (20)
0x60|06 07 08 09 0a 0b 0c 0d 0e 0f 10 11 12 13|     |..............| |
