$ fq -d wasm dv memory_init-3.wasm
    |00 01 02 03 04 05 06 07 08 09 0a 0b 0c 0d 0e 0f|0123456789abcdef|.{}: memory_init-3.wasm (wasm) 0x0-0xbc (188)
0x00|00 61 73 6d                                    |.asm            |  magic: raw bits (valid) 0x0-0x4 (4)
0x00|            01 00 00 00                        |    ....        |  version: 1 0x4-0x8 (4)
    |                                               |                |  sections[0:7]: 0x8-0xbc (180)
    |                                               |                |    [0]{}: section 0x8-0x13 (11)
0x00|                        01                     |        .       |      id: "type_section" (1) 0x8-0x9 (1)
0x00|                           09                  |         .      |      size: 9 (valid) 0x9-0xa (1)
    |                                               |                |      content{}: 0xa-0x13 (9)
    |                                               |                |        ft{}: 0xa-0x13 (9)
0x00|                              02               |          .     |          n: 2 (valid) 0xa-0xb (1)
    |                                               |                |          x[0:2]: 0xb-0x13 (8)
    |                                               |                |            [0]{}: ft 0xb-0xe (3)
0x00|                                 60            |           `    |              tag: 0x60 (valid) 0xb-0xc (1)
    |                                               |                |              rt1{}: 0xc-0xd (1)
0x00|                                    00         |            .   |                n: 0 (valid) 0xc-0xd (1)
    |                                               |                |                x[0:0]: 0xd-0xd (0)
    |                                               |                |              rt2{}: 0xd-0xe (1)
0x00|                                       00      |             .  |                n: 0 (valid) 0xd-0xe (1)
    |                                               |                |                x[0:0]: 0xe-0xe (0)
    |                                               |                |            [1]{}: ft 0xe-0x13 (5)
0x00|                                          60   |              ` |              tag: 0x60 (valid) 0xe-0xf (1)
    |                                               |                |              rt1{}: 0xf-0x11 (2)
0x00|                                             01|               .|                n: 1 (valid) 0xf-0x10 (1)
    |                                               |                |                x[0:1]: 0x10-0x11 (1)
0x10|7f                                             |.               |                  [0]: "i32" (0x7f) t 0x10-0x11 (1)
    |                                               |                |              rt2{}: 0x11-0x13 (2)
0x10|   01                                          | .              |                n: 1 (valid) 0x11-0x12 (1)
    |                                               |                |                x[0:1]: 0x12-0x13 (1)
0x10|      7f                                       |  .             |                  [0]: "i32" (0x7f) t 0x12-0x13 (1)
    |                                               |                |    [1]{}: section 0x13-0x18 (5)
0x10|         03                                    |   .            |      id: "function_section" (3) 0x13-0x14 (1)
0x10|            03                                 |    .           |      size: 3 (valid) 0x14-0x15 (1)
    |                                               |                |      content{}: 0x15-0x18 (3)
    |                                               |                |        x{}: 0x15-0x18 (3)
0x10|               02                              |     .          |          n: 2 (valid) 0x15-0x16 (1)
    |                                               |                |          x[0:2]: 0x16-0x18 (2)
0x10|                  00                           |      .         |            [0]: 0 x (valid) 0x16-0x17 (1)
0x10|                     01                        |       .        |            [1]: 1 x (valid) 0x17-0x18 (1)
    |                                               |                |    [2]{}: section 0x18-0x1e (6)
0x10|                        05                     |        .       |      id: "memory_section" (5) 0x18-0x19 (1)
0x10|                           04                  |         .      |      size: 4 (valid) 0x19-0x1a (1)
    |                                               |                |      content{}: 0x1a-0x1e (4)
    |                                               |                |        mem{}: 0x1a-0x1e (4)
0x10|                              01               |          .     |          n: 1 (valid) 0x1a-0x1b (1)
    |                                               |                |          x[0:1]: 0x1b-0x1e (3)
    |                                               |                |            [0]{}: mem 0x1b-0x1e (3)
    |                                               |                |              lim{}: 0x1b-0x1e (3)
0x10|                                 01            |           .    |                tag: 0x1 0x1b-0x1c (1)
0x10|                                    01         |            .   |                n: 1 (valid) 0x1c-0x1d (1)
0x10|                                       01      |             .  |                m: 1 (valid) 0x1d-0x1e (1)
    |                                               |                |    [3]{}: section 0x1e-0x3c (30)
0x10|                                          07   |              . |      id: "export_section" (7) 0x1e-0x1f (1)
0x10|                                             1c|               .|      size: 28 (valid) 0x1f-0x20 (1)
    |                                               |                |      content{}: 0x20-0x3c (28)
    |                                               |                |        ex{}: 0x20-0x3c (28)
0x20|03                                             |.               |          n: 3 (valid) 0x20-0x21 (1)
    |                                               |                |          x[0:3]: 0x21-0x3c (27)
    |                                               |                |            [0]{}: ex 0x21-0x2b (10)
    |                                               |                |              nm{}: 0x21-0x29 (8)
0x20|   07                                          | .              |                n: 7 (valid) 0x21-0x22 (1)
0x20|      6d 65 6d 6f 72 79 30                     |  memory0       |                b: "memory0" 0x22-0x29 (7)
    |                                               |                |              d{}: 0x29-0x2b (2)
0x20|                           02                  |         .      |                tag: "memidx" (0x2) 0x29-0x2a (1)
0x20|                              00               |          .     |                x: 0 (valid) 0x2a-0x2b (1)
    |                                               |                |            [1]{}: ex 0x2b-0x32 (7)
    |                                               |                |              nm{}: 0x2b-0x30 (5)
0x20|                                 04            |           .    |                n: 4 (valid) 0x2b-0x2c (1)
0x20|                                    74 65 73 74|            test|                b: "test" 0x2c-0x30 (4)
    |                                               |                |              d{}: 0x30-0x32 (2)
0x30|00                                             |.               |                tag: "funcidx" (0x0) 0x30-0x31 (1)
0x30|   00                                          | .              |                x: 0 (valid) 0x31-0x32 (1)
    |                                               |                |            [2]{}: ex 0x32-0x3c (10)
    |                                               |                |              nm{}: 0x32-0x3a (8)
0x30|      07                                       |  .             |                n: 7 (valid) 0x32-0x33 (1)
0x30|         6c 6f 61 64 38 5f 75                  |   load8_u      |                b: "load8_u" 0x33-0x3a (7)
    |                                               |                |              d{}: 0x3a-0x3c (2)
0x30|                              00               |          .     |                tag: "funcidx" (0x0) 0x3a-0x3b (1)
0x30|                                 01            |           .    |                x: 1 (valid) 0x3b-0x3c (1)
    |                                               |                |    [4]{}: section 0x3c-0x3f (3)
0x30|                                    0c         |            .   |      id: "data_count_section" (12) 0x3c-0x3d (1)
0x30|                                       01      |             .  |      size: 1 (valid) 0x3d-0x3e (1)
    |                                               |                |      content{}: 0x3e-0x3f (1)
0x30|                                          04   |              . |        n: 4 (valid) 0x3e-0x3f (1)
    |                                               |                |    [5]{}: section 0x3f-0x99 (90)
0x30|                                             0a|               .|      id: "code_section" (10) 0x3f-0x40 (1)
0x40|58                                             |X               |      size: 88 (valid) 0x40-0x41 (1)
    |                                               |                |      content{}: 0x41-0x99 (88)
    |                                               |                |        code{}: 0x41-0x99 (88)
0x40|   02                                          | .              |          n: 2 (valid) 0x41-0x42 (1)
    |                                               |                |          x[0:2]: 0x42-0x99 (87)
    |                                               |                |            [0]{}: code 0x42-0x91 (79)
0x40|      4e                                       |  N             |              size: 78 (valid) 0x42-0x43 (1)
    |                                               |                |              code{}: 0x43-0x91 (78)
    |                                               |                |                t{}: 0x43-0x44 (1)
0x40|         00                                    |   .            |                  n: 0 (valid) 0x43-0x44 (1)
    |                                               |                |                  x[0:0]: 0x44-0x44 (0)
    |                                               |                |                e[0:31]: 0x44-0x91 (77)
    |                                               |                |                  [0]{}: in 0x44-0x46 (2)
0x40|            41                                 |    A           |                    opcode: "i32.const" (0x41) 0x44-0x45 (1)
0x40|               07                              |     .          |                    n: 7 (valid) 0x45-0x46 (1)
    |                                               |                |                  [1]{}: in 0x46-0x48 (2)
0x40|                  41                           |      A         |                    opcode: "i32.const" (0x41) 0x46-0x47 (1)
0x40|                     00                        |       .        |                    n: 0 (valid) 0x47-0x48 (1)
    |                                               |                |                  [2]{}: in 0x48-0x4a (2)
0x40|                        41                     |        A       |                    opcode: "i32.const" (0x41) 0x48-0x49 (1)
0x40|                           04                  |         .      |                    n: 4 (valid) 0x49-0x4a (1)
    |                                               |                |                  [3]{}: in 0x4a-0x4e (4)
0x40|                              fc               |          .     |                    opcode: "prefix" (0xfc) 0x4a-0x4b (1)
0x40|                                 08            |           .    |                    p_opcode: "memory.init" (8) 0x4b-0x4c (1)
0x40|                                    01         |            .   |                    x: 1 (valid) 0x4c-0x4d (1)
0x40|                                       00      |             .  |                    reserved: 0x0 (valid) 0x4d-0x4e (1)
    |                                               |                |                  [4]{}: in 0x4e-0x51 (3)
0x40|                                          fc   |              . |                    opcode: "prefix" (0xfc) 0x4e-0x4f (1)
0x40|                                             09|               .|                    p_opcode: "data.drop" (9) 0x4f-0x50 (1)
0x50|01                                             |.               |                    x: 1 (valid) 0x50-0x51 (1)
    |                                               |                |                  [5]{}: in 0x51-0x53 (2)
0x50|   41                                          | A              |                    opcode: "i32.const" (0x41) 0x51-0x52 (1)
0x50|      0f                                       |  .             |                    n: 15 (valid) 0x52-0x53 (1)
    |                                               |                |                  [6]{}: in 0x53-0x55 (2)
0x50|         41                                    |   A            |                    opcode: "i32.const" (0x41) 0x53-0x54 (1)
0x50|            01                                 |    .           |                    n: 1 (valid) 0x54-0x55 (1)
    |                                               |                |                  [7]{}: in 0x55-0x57 (2)
0x50|               41                              |     A          |                    opcode: "i32.const" (0x41) 0x55-0x56 (1)
0x50|                  03                           |      .         |                    n: 3 (valid) 0x56-0x57 (1)
    |                                               |                |                  [8]{}: in 0x57-0x5b (4)
0x50|                     fc                        |       .        |                    opcode: "prefix" (0xfc) 0x57-0x58 (1)
0x50|                        08                     |        .       |                    p_opcode: "memory.init" (8) 0x58-0x59 (1)
0x50|                           03                  |         .      |                    x: 3 (valid) 0x59-0x5a (1)
0x50|                              00               |          .     |                    reserved: 0x0 (valid) 0x5a-0x5b (1)
    |                                               |                |                  [9]{}: in 0x5b-0x5e (3)
0x50|                                 fc            |           .    |                    opcode: "prefix" (0xfc) 0x5b-0x5c (1)
0x50|                                    09         |            .   |                    p_opcode: "data.drop" (9) 0x5c-0x5d (1)
0x50|                                       03      |             .  |                    x: 3 (valid) 0x5d-0x5e (1)
    |                                               |                |                  [10]{}: in 0x5e-0x60 (2)
0x50|                                          41   |              A |                    opcode: "i32.const" (0x41) 0x5e-0x5f (1)
0x50|                                             14|               .|                    n: 20 (valid) 0x5f-0x60 (1)
    |                                               |                |                  [11]{}: in 0x60-0x62 (2)
0x60|41                                             |A               |                    opcode: "i32.const" (0x41) 0x60-0x61 (1)
0x60|   0f                                          | .              |                    n: 15 (valid) 0x61-0x62 (1)
    |                                               |                |                  [12]{}: in 0x62-0x64 (2)
0x60|      41                                       |  A             |                    opcode: "i32.const" (0x41) 0x62-0x63 (1)
0x60|         05                                    |   .            |                    n: 5 (valid) 0x63-0x64 (1)
    |                                               |                |                  [13]{}: in 0x64-0x68 (4)
0x60|            fc                                 |    .           |                    opcode: "prefix" (0xfc) 0x64-0x65 (1)
0x60|               0a                              |     .          |                    p_opcode: "memory.copy" (10) 0x65-0x66 (1)
0x60|                  00                           |      .         |                    reserved1: 0x0 (valid) 0x66-0x67 (1)
0x60|                     00                        |       .        |                    reserved2: 0x0 (valid) 0x67-0x68 (1)
    |                                               |                |                  [14]{}: in 0x68-0x6a (2)
0x60|                        41                     |        A       |                    opcode: "i32.const" (0x41) 0x68-0x69 (1)
0x60|                           15                  |         .      |                    n: 21 (valid) 0x69-0x6a (1)
    |                                               |                |                  [15]{}: in 0x6a-0x6c (2)
0x60|                              41               |          A     |                    opcode: "i32.const" (0x41) 0x6a-0x6b (1)
0x60|                                 1d            |           .    |                    n: 29 (valid) 0x6b-0x6c (1)
    |                                               |                |                  [16]{}: in 0x6c-0x6e (2)
0x60|                                    41         |            A   |                    opcode: "i32.const" (0x41) 0x6c-0x6d (1)
0x60|                                       01      |             .  |                    n: 1 (valid) 0x6d-0x6e (1)
    |                                               |                |                  [17]{}: in 0x6e-0x72 (4)
0x60|                                          fc   |              . |                    opcode: "prefix" (0xfc) 0x6e-0x6f (1)
0x60|                                             0a|               .|                    p_opcode: "memory.copy" (10) 0x6f-0x70 (1)
0x70|00                                             |.               |                    reserved1: 0x0 (valid) 0x70-0x71 (1)
0x70|   00                                          | .              |                    reserved2: 0x0 (valid) 0x71-0x72 (1)
    |                                               |                |                  [18]{}: in 0x72-0x74 (2)
0x70|      41                                       |  A             |                    opcode: "i32.const" (0x41) 0x72-0x73 (1)
0x70|         18                                    |   .            |                    n: 24 (valid) 0x73-0x74 (1)
    |                                               |                |                  [19]{}: in 0x74-0x76 (2)
0x70|            41                                 |    A           |                    opcode: "i32.const" (0x41) 0x74-0x75 (1)
0x70|               0a                              |     .          |                    n: 10 (valid) 0x75-0x76 (1)
    |                                               |                |                  [20]{}: in 0x76-0x78 (2)
0x70|                  41                           |      A         |                    opcode: "i32.const" (0x41) 0x76-0x77 (1)
0x70|                     01                        |       .        |                    n: 1 (valid) 0x77-0x78 (1)
    |                                               |                |                  [21]{}: in 0x78-0x7c (4)
0x70|                        fc                     |        .       |                    opcode: "prefix" (0xfc) 0x78-0x79 (1)
0x70|                           0a                  |         .      |                    p_opcode: "memory.copy" (10) 0x79-0x7a (1)
0x70|                              00               |          .     |                    reserved1: 0x0 (valid) 0x7a-0x7b (1)
0x70|                                 00            |           .    |                    reserved2: 0x0 (valid) 0x7b-0x7c (1)
    |                                               |                |                  [22]{}: in 0x7c-0x7e (2)
0x70|                                    41         |            A   |                    opcode: "i32.const" (0x41) 0x7c-0x7d (1)
0x70|                                       0d      |             .  |                    n: 13 (valid) 0x7d-0x7e (1)
    |                                               |                |                  [23]{}: in 0x7e-0x80 (2)
0x70|                                          41   |              A |                    opcode: "i32.const" (0x41) 0x7e-0x7f (1)
0x70|                                             0b|               .|                    n: 11 (valid) 0x7f-0x80 (1)
    |                                               |                |                  [24]{}: in 0x80-0x82 (2)
0x80|41                                             |A               |                    opcode: "i32.const" (0x41) 0x80-0x81 (1)
0x80|   04                                          | .              |                    n: 4 (valid) 0x81-0x82 (1)
    |                                               |                |                  [25]{}: in 0x82-0x86 (4)
0x80|      fc                                       |  .             |                    opcode: "prefix" (0xfc) 0x82-0x83 (1)
0x80|         0a                                    |   .            |                    p_opcode: "memory.copy" (10) 0x83-0x84 (1)
0x80|            00                                 |    .           |                    reserved1: 0x0 (valid) 0x84-0x85 (1)
0x80|               00                              |     .          |                    reserved2: 0x0 (valid) 0x85-0x86 (1)
    |                                               |                |                  [26]{}: in 0x86-0x88 (2)
0x80|                  41                           |      A         |                    opcode: "i32.const" (0x41) 0x86-0x87 (1)
0x80|                     13                        |       .        |                    n: 19 (valid) 0x87-0x88 (1)
    |                                               |                |                  [27]{}: in 0x88-0x8a (2)
0x80|                        41                     |        A       |                    opcode: "i32.const" (0x41) 0x88-0x89 (1)
0x80|                           14                  |         .      |                    n: 20 (valid) 0x89-0x8a (1)
    |                                               |                |                  [28]{}: in 0x8a-0x8c (2)
0x80|                              41               |          A     |                    opcode: "i32.const" (0x41) 0x8a-0x8b (1)
0x80|                                 05            |           .    |                    n: 5 (valid) 0x8b-0x8c (1)
    |                                               |                |                  [29]{}: in 0x8c-0x90 (4)
0x80|                                    fc         |            .   |                    opcode: "prefix" (0xfc) 0x8c-0x8d (1)
0x80|                                       0a      |             .  |                    p_opcode: "memory.copy" (10) 0x8d-0x8e (1)
0x80|                                          00   |              . |                    reserved1: 0x0 (valid) 0x8e-0x8f (1)
0x80|                                             00|               .|                    reserved2: 0x0 (valid) 0x8f-0x90 (1)
    |                                               |                |                  [30]{}: in 0x90-0x91 (1)
0x90|0b                                             |.               |                    opcode: "end" (0xb) 0x90-0x91 (1)
    |                                               |                |            [1]{}: code 0x91-0x99 (8)
0x90|   07                                          | .              |              size: 7 (valid) 0x91-0x92 (1)
    |                                               |                |              code{}: 0x92-0x99 (7)
    |                                               |                |                t{}: 0x92-0x93 (1)
0x90|      00                                       |  .             |                  n: 0 (valid) 0x92-0x93 (1)
    |                                               |                |                  x[0:0]: 0x93-0x93 (0)
    |                                               |                |                e[0:3]: 0x93-0x99 (6)
    |                                               |                |                  [0]{}: in 0x93-0x95 (2)
0x90|         20                                    |                |                    opcode: "local.get" (0x20) 0x93-0x94 (1)
0x90|            00                                 |    .           |                    x: 0 (valid) 0x94-0x95 (1)
    |                                               |                |                  [1]{}: in 0x95-0x98 (3)
0x90|               2d                              |     -          |                    opcode: "i32.load8_u" (0x2d) 0x95-0x96 (1)
    |                                               |                |                    m{}: 0x96-0x98 (2)
0x90|                  00                           |      .         |                      a: 0 (valid) 0x96-0x97 (1)
0x90|                     00                        |       .        |                      o: 0 (valid) 0x97-0x98 (1)
    |                                               |                |                  [2]{}: in 0x98-0x99 (1)
0x90|                        0b                     |        .       |                    opcode: "end" (0xb) 0x98-0x99 (1)
    |                                               |                |    [6]{}: section 0x99-0xbc (35)
0x90|                           0b                  |         .      |      id: "data_section" (11) 0x99-0x9a (1)
0x90|                              21               |          !     |      size: 33 (valid) 0x9a-0x9b (1)
    |                                               |                |      content{}: 0x9b-0xbc (33)
    |                                               |                |        seg{}: 0x9b-0xbc (33)
0x90|                                 04            |           .    |          n: 4 (valid) 0x9b-0x9c (1)
    |                                               |                |          x[0:4]: 0x9c-0xbc (32)
    |                                               |                |            [0]{}: seg 0x9c-0xa5 (9)
0x90|                                    00         |            .   |              tag: 0 (valid) 0x9c-0x9d (1)
    |                                               |                |              e[0:2]: 0x9d-0xa0 (3)
    |                                               |                |                [0]{}: in 0x9d-0x9f (2)
0x90|                                       41      |             A  |                  opcode: "i32.const" (0x41) 0x9d-0x9e (1)
0x90|                                          02   |              . |                  n: 2 (valid) 0x9e-0x9f (1)
    |                                               |                |                [1]{}: in 0x9f-0xa0 (1)
0x90|                                             0b|               .|                  opcode: "end" (0xb) 0x9f-0xa0 (1)
    |                                               |                |              b{}: 0xa0-0xa5 (5)
0xa0|04                                             |.               |                n: 4 (valid) 0xa0-0xa1 (1)
0xa0|   03 01 04 01                                 | ....           |                x: raw bits 0xa1-0xa5 (4)
    |                                               |                |            [1]{}: seg 0xa5-0xab (6)
0xa0|               01                              |     .          |              tag: 1 (valid) 0xa5-0xa6 (1)
    |                                               |                |              b{}: 0xa6-0xab (5)
0xa0|                  04                           |      .         |                n: 4 (valid) 0xa6-0xa7 (1)
0xa0|                     02 07 01 08               |       ....     |                x: raw bits 0xa7-0xab (4)
    |                                               |                |            [2]{}: seg 0xab-0xb5 (10)
0xa0|                                 00            |           .    |              tag: 0 (valid) 0xab-0xac (1)
    |                                               |                |              e[0:2]: 0xac-0xaf (3)
    |                                               |                |                [0]{}: in 0xac-0xae (2)
0xa0|                                    41         |            A   |                  opcode: "i32.const" (0x41) 0xac-0xad (1)
0xa0|                                       0c      |             .  |                  n: 12 (valid) 0xad-0xae (1)
    |                                               |                |                [1]{}: in 0xae-0xaf (1)
0xa0|                                          0b   |              . |                  opcode: "end" (0xb) 0xae-0xaf (1)
    |                                               |                |              b{}: 0xaf-0xb5 (6)
0xa0|                                             05|               .|                n: 5 (valid) 0xaf-0xb0 (1)
0xb0|07 05 02 03 06                                 |.....           |                x: raw bits 0xb0-0xb5 (5)
    |                                               |                |            [3]{}: seg 0xb5-0xbc (7)
0xb0|               01                              |     .          |              tag: 1 (valid) 0xb5-0xb6 (1)
    |                                               |                |              b{}: 0xb6-0xbc (6)
0xb0|                  05                           |      .         |                n: 5 (valid) 0xb6-0xb7 (1)
0xb0|                     05 09 02 07 06|           |       .....|   |                x: raw bits 0xb7-0xbc (5)
