$ fq -d wasm dv memory_copy-21.wasm
    |00 01 02 03 04 05 06 07 08 09 0a 0b 0c 0d 0e 0f|0123456789abcdef|.{}: memory_copy-21.wasm (wasm) 0x0-0x36.7 (55)
0x00|00 61 73 6d                                    |.asm            |  magic: raw bits (valid) 0x0-0x3.7 (4)
0x00|            01 00 00 00                        |    ....        |  version: 1 0x4-0x7.7 (4)
    |                                               |                |  sections[0:5]: 0x8-0x36.7 (47)
    |                                               |                |    [0]{}: section 0x8-0xd.7 (6)
0x00|                        01                     |        .       |      id: "type section" (1) 0x8-0x8.7 (1)
0x00|                           04                  |         .      |      size: 4 0x9-0x9.7 (1)
    |                                               |                |      content{}: 0xa-0xd.7 (4)
    |                                               |                |        ft{}: 0xa-0xd.7 (4)
0x00|                              01               |          .     |          n: 1 0xa-0xa.7 (1)
    |                                               |                |          x[0:1]: 0xb-0xd.7 (3)
    |                                               |                |            [0]{}: ft 0xb-0xd.7 (3)
0x00|                                 60            |           `    |              tag: 0x60 (valid) 0xb-0xb.7 (1)
    |                                               |                |              rt1{}: 0xc-0xc.7 (1)
0x00|                                    00         |            .   |                n: 0 0xc-0xc.7 (1)
    |                                               |                |                x[0:0]: 0xd-NA (0)
    |                                               |                |              rt2{}: 0xd-0xd.7 (1)
0x00|                                       00      |             .  |                n: 0 0xd-0xd.7 (1)
    |                                               |                |                x[0:0]: 0xe-NA (0)
    |                                               |                |    [1]{}: section 0xe-0x11.7 (4)
0x00|                                          03   |              . |      id: "function section" (3) 0xe-0xe.7 (1)
0x00|                                             02|               .|      size: 2 0xf-0xf.7 (1)
    |                                               |                |      content{}: 0x10-0x11.7 (2)
    |                                               |                |        x{}: 0x10-0x11.7 (2)
0x10|01                                             |.               |          n: 1 0x10-0x10.7 (1)
    |                                               |                |          x[0:1]: 0x11-0x11.7 (1)
0x10|   00                                          | .              |            [0]: 0 x 0x11-0x11.7 (1)
    |                                               |                |    [2]{}: section 0x12-0x17.7 (6)
0x10|      05                                       |  .             |      id: "memory section" (5) 0x12-0x12.7 (1)
0x10|         04                                    |   .            |      size: 4 0x13-0x13.7 (1)
    |                                               |                |      content{}: 0x14-0x17.7 (4)
    |                                               |                |        mem{}: 0x14-0x17.7 (4)
0x10|            01                                 |    .           |          n: 1 0x14-0x14.7 (1)
    |                                               |                |          x[0:1]: 0x15-0x17.7 (3)
    |                                               |                |            [0]{}: mem 0x15-0x17.7 (3)
    |                                               |                |              lim{}: 0x15-0x17.7 (3)
0x10|               01                              |     .          |                tag: 0x1 0x15-0x15.7 (1)
0x10|                  01                           |      .         |                n: 1 0x16-0x16.7 (1)
0x10|                     01                        |       .        |                m: 1 0x17-0x17.7 (1)
    |                                               |                |    [3]{}: section 0x18-0x21.7 (10)
0x10|                        07                     |        .       |      id: "export section" (7) 0x18-0x18.7 (1)
0x10|                           08                  |         .      |      size: 8 0x19-0x19.7 (1)
    |                                               |                |      content{}: 0x1a-0x21.7 (8)
    |                                               |                |        ex{}: 0x1a-0x21.7 (8)
0x10|                              01               |          .     |          n: 1 0x1a-0x1a.7 (1)
    |                                               |                |          x[0:1]: 0x1b-0x21.7 (7)
    |                                               |                |            [0]{}: ex 0x1b-0x21.7 (7)
    |                                               |                |              nm{}: 0x1b-0x1f.7 (5)
0x10|                                 04            |           .    |                n: 4 0x1b-0x1b.7 (1)
0x10|                                    74 65 73 74|            test|                b: "test" 0x1c-0x1f.7 (4)
    |                                               |                |              d{}: 0x20-0x21.7 (2)
0x20|00                                             |.               |                tag: "funcidx" (0x0) 0x20-0x20.7 (1)
0x20|   00                                          | .              |                x: 0 0x21-0x21.7 (1)
    |                                               |                |    [4]{}: section 0x22-0x36.7 (21)
0x20|      0a                                       |  .             |      id: "code section" (10) 0x22-0x22.7 (1)
0x20|         13                                    |   .            |      size: 19 0x23-0x23.7 (1)
    |                                               |                |      content{}: 0x24-0x36.7 (19)
    |                                               |                |        code{}: 0x24-0x36.7 (19)
0x20|            01                                 |    .           |          n: 1 0x24-0x24.7 (1)
    |                                               |                |          x[0:1]: 0x25-0x36.7 (18)
    |                                               |                |            [0]{}: code 0x25-0x36.7 (18)
0x20|               11                              |     .          |              size: 17 0x25-0x25.7 (1)
    |                                               |                |              code{}: 0x26-0x36.7 (17)
    |                                               |                |                t{}: 0x26-0x26.7 (1)
0x20|                  00                           |      .         |                  n: 0 0x26-0x26.7 (1)
    |                                               |                |                  x[0:0]: 0x27-NA (0)
    |                                               |                |                e[0:5]: 0x27-0x36.7 (16)
    |                                               |                |                  [0]{}: in 0x27-0x2a.7 (4)
0x20|                     41                        |       A        |                    i32.const: 0x41 (valid) 0x27-0x27.7 (1)
0x20|                        80 fe 03               |        ...     |                    n: 65280 0x28-0x2a.7 (3)
    |                                               |                |                  [1]{}: in 0x2b-0x2e.7 (4)
0x20|                                 41            |           A    |                    i32.const: 0x41 (valid) 0x2b-0x2b.7 (1)
0x20|                                    80 80 02   |            ... |                    n: 32768 0x2c-0x2e.7 (3)
    |                                               |                |                  [2]{}: in 0x2f-0x31.7 (3)
0x20|                                             41|               A|                    i32.const: 0x41 (valid) 0x2f-0x2f.7 (1)
0x30|81 02                                          |..              |                    n: 257 0x30-0x31.7 (2)
    |                                               |                |                  [3]{}: in 0x32-0x35.7 (4)
0x30|      fc                                       |  .             |                    prefix: 0xfc (valid) 0x32-0x32.7 (1)
0x30|         0a                                    |   .            |                    memory.copy: 10 (valid) 0x33-0x33.7 (1)
0x30|            00                                 |    .           |                    reserved1: 0x0 (valid) 0x34-0x34.7 (1)
0x30|               00                              |     .          |                    reserved2: 0x0 (valid) 0x35-0x35.7 (1)
    |                                               |                |                  [4]{}: in 0x36-0x36.7 (1)
0x30|                  0b|                          |      .|        |                    end: 0xb (valid) 0x36-0x36.7 (1)
