$ fq -d wasm dv memory_init-21.wasm
    |00 01 02 03 04 05 06 07 08 09 0a 0b 0c 0d 0e 0f|0123456789abcdef|.{}: memory_init-21.wasm (wasm) 0x0-0x86.7 (135)
0x00|00 61 73 6d                                    |.asm            |  magic: raw bits (valid) 0x0-0x3.7 (4)
0x00|            01 00 00 00                        |    ....        |  version: 1 0x4-0x7.7 (4)
    |                                               |                |  sections[0:7]: 0x8-0x86.7 (127)
    |                                               |                |    [0]{}: section 0x8-0x16.7 (15)
0x00|                        01                     |        .       |      id: "type_section" (1) 0x8-0x8.7 (1)
0x00|                           0d                  |         .      |      size: 13 (valid) 0x9-0x9.7 (1)
    |                                               |                |      content{}: 0xa-0x16.7 (13)
    |                                               |                |        ft{}: 0xa-0x16.7 (13)
0x00|                              02               |          .     |          n: 2 (valid) 0xa-0xa.7 (1)
    |                                               |                |          x[0:2]: 0xb-0x16.7 (12)
    |                                               |                |            [0]{}: ft 0xb-0x11.7 (7)
0x00|                                 60            |           `    |              tag: 0x60 (valid) 0xb-0xb.7 (1)
    |                                               |                |              rt1{}: 0xc-0xf.7 (4)
0x00|                                    03         |            .   |                n: 3 (valid) 0xc-0xc.7 (1)
    |                                               |                |                x[0:3]: 0xd-0xf.7 (3)
0x00|                                       7f      |             .  |                  [0]: "i32" (0x7f) t 0xd-0xd.7 (1)
0x00|                                          7f   |              . |                  [1]: "i32" (0x7f) t 0xe-0xe.7 (1)
0x00|                                             7f|               .|                  [2]: "i32" (0x7f) t 0xf-0xf.7 (1)
    |                                               |                |              rt2{}: 0x10-0x11.7 (2)
0x10|01                                             |.               |                n: 1 (valid) 0x10-0x10.7 (1)
    |                                               |                |                x[0:1]: 0x11-0x11.7 (1)
0x10|   7f                                          | .              |                  [0]: "i32" (0x7f) t 0x11-0x11.7 (1)
    |                                               |                |            [1]{}: ft 0x12-0x16.7 (5)
0x10|      60                                       |  `             |              tag: 0x60 (valid) 0x12-0x12.7 (1)
    |                                               |                |              rt1{}: 0x13-0x15.7 (3)
0x10|         02                                    |   .            |                n: 2 (valid) 0x13-0x13.7 (1)
    |                                               |                |                x[0:2]: 0x14-0x15.7 (2)
0x10|            7f                                 |    .           |                  [0]: "i32" (0x7f) t 0x14-0x14.7 (1)
0x10|               7f                              |     .          |                  [1]: "i32" (0x7f) t 0x15-0x15.7 (1)
    |                                               |                |              rt2{}: 0x16-0x16.7 (1)
0x10|                  00                           |      .         |                n: 0 (valid) 0x16-0x16.7 (1)
    |                                               |                |                x[0:0]: 0x17-NA (0)
    |                                               |                |    [1]{}: section 0x17-0x1b.7 (5)
0x10|                     03                        |       .        |      id: "function_section" (3) 0x17-0x17.7 (1)
0x10|                        03                     |        .       |      size: 3 (valid) 0x18-0x18.7 (1)
    |                                               |                |      content{}: 0x19-0x1b.7 (3)
    |                                               |                |        x{}: 0x19-0x1b.7 (3)
0x10|                           02                  |         .      |          n: 2 (valid) 0x19-0x19.7 (1)
    |                                               |                |          x[0:2]: 0x1a-0x1b.7 (2)
0x10|                              00               |          .     |            [0]: 0 x (valid) 0x1a-0x1a.7 (1)
0x10|                                 01            |           .    |            [1]: 1 x (valid) 0x1b-0x1b.7 (1)
    |                                               |                |    [2]{}: section 0x1c-0x20.7 (5)
0x10|                                    05         |            .   |      id: "memory_section" (5) 0x1c-0x1c.7 (1)
0x10|                                       03      |             .  |      size: 3 (valid) 0x1d-0x1d.7 (1)
    |                                               |                |      content{}: 0x1e-0x20.7 (3)
    |                                               |                |        mem{}: 0x1e-0x20.7 (3)
0x10|                                          01   |              . |          n: 1 (valid) 0x1e-0x1e.7 (1)
    |                                               |                |          x[0:1]: 0x1f-0x20.7 (2)
    |                                               |                |            [0]{}: mem 0x1f-0x20.7 (2)
    |                                               |                |              lim{}: 0x1f-0x20.7 (2)
0x10|                                             00|               .|                tag: 0x0 0x1f-0x1f.7 (1)
0x20|01                                             |.               |                n: 1 (valid) 0x20-0x20.7 (1)
    |                                               |                |    [3]{}: section 0x21-0x36.7 (22)
0x20|   07                                          | .              |      id: "export_section" (7) 0x21-0x21.7 (1)
0x20|      14                                       |  .             |      size: 20 (valid) 0x22-0x22.7 (1)
    |                                               |                |      content{}: 0x23-0x36.7 (20)
    |                                               |                |        ex{}: 0x23-0x36.7 (20)
0x20|         02                                    |   .            |          n: 2 (valid) 0x23-0x23.7 (1)
    |                                               |                |          x[0:2]: 0x24-0x36.7 (19)
    |                                               |                |            [0]{}: ex 0x24-0x30.7 (13)
    |                                               |                |              nm{}: 0x24-0x2e.7 (11)
0x20|            0a                                 |    .           |                n: 10 (valid) 0x24-0x24.7 (1)
0x20|               63 68 65 63 6b 52 61 6e 67 65   |     checkRange |                b: "checkRange" 0x25-0x2e.7 (10)
    |                                               |                |              d{}: 0x2f-0x30.7 (2)
0x20|                                             00|               .|                tag: "funcidx" (0x0) 0x2f-0x2f.7 (1)
0x30|00                                             |.               |                x: 0 (valid) 0x30-0x30.7 (1)
    |                                               |                |            [1]{}: ex 0x31-0x36.7 (6)
    |                                               |                |              nm{}: 0x31-0x34.7 (4)
0x30|   03                                          | .              |                n: 3 (valid) 0x31-0x31.7 (1)
0x30|      72 75 6e                                 |  run           |                b: "run" 0x32-0x34.7 (3)
    |                                               |                |              d{}: 0x35-0x36.7 (2)
0x30|               00                              |     .          |                tag: "funcidx" (0x0) 0x35-0x35.7 (1)
0x30|                  01                           |      .         |                x: 1 (valid) 0x36-0x36.7 (1)
    |                                               |                |    [4]{}: section 0x37-0x39.7 (3)
0x30|                     0c                        |       .        |      id: "data_count_section" (12) 0x37-0x37.7 (1)
0x30|                        01                     |        .       |      size: 1 (valid) 0x38-0x38.7 (1)
    |                                               |                |      content{}: 0x39-0x39.7 (1)
0x30|                           01                  |         .      |        n: 1 (valid) 0x39-0x39.7 (1)
    |                                               |                |    [5]{}: section 0x3a-0x71.7 (56)
0x30|                              0a               |          .     |      id: "code_section" (10) 0x3a-0x3a.7 (1)
0x30|                                 36            |           6    |      size: 54 (valid) 0x3b-0x3b.7 (1)
    |                                               |                |      content{}: 0x3c-0x71.7 (54)
    |                                               |                |        code{}: 0x3c-0x71.7 (54)
0x30|                                    02         |            .   |          n: 2 (valid) 0x3c-0x3c.7 (1)
    |                                               |                |          x[0:2]: 0x3d-0x71.7 (53)
    |                                               |                |            [0]{}: code 0x3d-0x64.7 (40)
0x30|                                       27      |             '  |              size: 39 (valid) 0x3d-0x3d.7 (1)
    |                                               |                |              code{}: 0x3e-0x64.7 (39)
    |                                               |                |                t{}: 0x3e-0x3e.7 (1)
0x30|                                          00   |              . |                  n: 0 (valid) 0x3e-0x3e.7 (1)
    |                                               |                |                  x[0:0]: 0x3f-NA (0)
    |                                               |                |                e[0:4]: 0x3f-0x64.7 (38)
    |                                               |                |                  [0]{}: in 0x3f-0x60.7 (34)
0x30|                                             03|               .|                    opcode: "loop" (0x3) 0x3f-0x3f.7 (1)
0x40|40                                             |@               |                    bt: "ε" (64) 0x40-0x40.7 (1)
    |                                               |                |                    instructions[0:9]: 0x41-0x5f.7 (31)
    |                                               |                |                      [0]{}: instr 0x41-0x42.7 (2)
0x40|   20                                          |                |                        opcode: "local.get" (0x20) 0x41-0x41.7 (1)
0x40|      00                                       |  .             |                        x: 0 (valid) 0x42-0x42.7 (1)
    |                                               |                |                      [1]{}: instr 0x43-0x44.7 (2)
0x40|         20                                    |                |                        opcode: "local.get" (0x20) 0x43-0x43.7 (1)
0x40|            01                                 |    .           |                        x: 1 (valid) 0x44-0x44.7 (1)
    |                                               |                |                      [2]{}: instr 0x45-0x45.7 (1)
0x40|               46                              |     F          |                        opcode: "i32.eq" (0x46) 0x45-0x45.7 (1)
    |                                               |                |                      [3]{}: instr 0x46-0x4b.7 (6)
0x40|                  04                           |      .         |                        opcode: "if" (0x4) 0x46-0x46.7 (1)
0x40|                     40                        |       @        |                        bt: "ε" (64) 0x47-0x47.7 (1)
    |                                               |                |                        in1[0:2]: 0x48-0x4a.7 (3)
    |                                               |                |                          [0]{}: instr 0x48-0x49.7 (2)
0x40|                        41                     |        A       |                            opcode: "i32.const" (0x41) 0x48-0x48.7 (1)
0x40|                           7f                  |         .      |                            n: -1 (valid) 0x49-0x49.7 (1)
    |                                               |                |                          [1]{}: instr 0x4a-0x4a.7 (1)
0x40|                              0f               |          .     |                            opcode: "return" (0xf) 0x4a-0x4a.7 (1)
0x40|                                 0b            |           .    |                        end: 0xb (valid) 0x4b-0x4b.7 (1)
    |                                               |                |                      [4]{}: instr 0x4c-0x4d.7 (2)
0x40|                                    20         |                |                        opcode: "local.get" (0x20) 0x4c-0x4c.7 (1)
0x40|                                       00      |             .  |                        x: 0 (valid) 0x4d-0x4d.7 (1)
    |                                               |                |                      [5]{}: instr 0x4e-0x50.7 (3)
0x40|                                          2d   |              - |                        opcode: "i32.load8_u" (0x2d) 0x4e-0x4e.7 (1)
    |                                               |                |                        m{}: 0x4f-0x50.7 (2)
0x40|                                             00|               .|                          a: 0 (valid) 0x4f-0x4f.7 (1)
0x50|00                                             |.               |                          o: 0 (valid) 0x50-0x50.7 (1)
    |                                               |                |                      [6]{}: instr 0x51-0x52.7 (2)
0x50|   20                                          |                |                        opcode: "local.get" (0x20) 0x51-0x51.7 (1)
0x50|      02                                       |  .             |                        x: 2 (valid) 0x52-0x52.7 (1)
    |                                               |                |                      [7]{}: instr 0x53-0x53.7 (1)
0x50|         46                                    |   F            |                        opcode: "i32.eq" (0x46) 0x53-0x53.7 (1)
    |                                               |                |                      [8]{}: instr 0x54-0x5f.7 (12)
0x50|            04                                 |    .           |                        opcode: "if" (0x4) 0x54-0x54.7 (1)
0x50|               40                              |     @          |                        bt: "ε" (64) 0x55-0x55.7 (1)
    |                                               |                |                        in1[0:5]: 0x56-0x5e.7 (9)
    |                                               |                |                          [0]{}: instr 0x56-0x57.7 (2)
0x50|                  20                           |                |                            opcode: "local.get" (0x20) 0x56-0x56.7 (1)
0x50|                     00                        |       .        |                            x: 0 (valid) 0x57-0x57.7 (1)
    |                                               |                |                          [1]{}: instr 0x58-0x59.7 (2)
0x50|                        41                     |        A       |                            opcode: "i32.const" (0x41) 0x58-0x58.7 (1)
0x50|                           01                  |         .      |                            n: 1 (valid) 0x59-0x59.7 (1)
    |                                               |                |                          [2]{}: instr 0x5a-0x5a.7 (1)
0x50|                              6a               |          j     |                            opcode: "i32.add" (0x6a) 0x5a-0x5a.7 (1)
    |                                               |                |                          [3]{}: instr 0x5b-0x5c.7 (2)
0x50|                                 21            |           !    |                            opcode: "local.set" (0x21) 0x5b-0x5b.7 (1)
0x50|                                    00         |            .   |                            x: 0 (valid) 0x5c-0x5c.7 (1)
    |                                               |                |                          [4]{}: instr 0x5d-0x5e.7 (2)
0x50|                                       0c      |             .  |                            opcode: "br" (0xc) 0x5d-0x5d.7 (1)
0x50|                                          01   |              . |                            l: 1 (valid) 0x5e-0x5e.7 (1)
0x50|                                             0b|               .|                        end: 0xb (valid) 0x5f-0x5f.7 (1)
0x60|0b                                             |.               |                    end: 0xb (valid) 0x60-0x60.7 (1)
    |                                               |                |                  [1]{}: in 0x61-0x62.7 (2)
0x60|   20                                          |                |                    opcode: "local.get" (0x20) 0x61-0x61.7 (1)
0x60|      00                                       |  .             |                    x: 0 (valid) 0x62-0x62.7 (1)
    |                                               |                |                  [2]{}: in 0x63-0x63.7 (1)
0x60|         0f                                    |   .            |                    opcode: "return" (0xf) 0x63-0x63.7 (1)
    |                                               |                |                  [3]{}: in 0x64-0x64.7 (1)
0x60|            0b                                 |    .           |                    opcode: "end" (0xb) 0x64-0x64.7 (1)
    |                                               |                |            [1]{}: code 0x65-0x71.7 (13)
0x60|               0c                              |     .          |              size: 12 (valid) 0x65-0x65.7 (1)
    |                                               |                |              code{}: 0x66-0x71.7 (12)
    |                                               |                |                t{}: 0x66-0x66.7 (1)
0x60|                  00                           |      .         |                  n: 0 (valid) 0x66-0x66.7 (1)
    |                                               |                |                  x[0:0]: 0x67-NA (0)
    |                                               |                |                e[0:5]: 0x67-0x71.7 (11)
    |                                               |                |                  [0]{}: in 0x67-0x68.7 (2)
0x60|                     20                        |                |                    opcode: "local.get" (0x20) 0x67-0x67.7 (1)
0x60|                        00                     |        .       |                    x: 0 (valid) 0x68-0x68.7 (1)
    |                                               |                |                  [1]{}: in 0x69-0x6a.7 (2)
0x60|                           41                  |         A      |                    opcode: "i32.const" (0x41) 0x69-0x69.7 (1)
0x60|                              00               |          .     |                    n: 0 (valid) 0x6a-0x6a.7 (1)
    |                                               |                |                  [2]{}: in 0x6b-0x6c.7 (2)
0x60|                                 20            |                |                    opcode: "local.get" (0x20) 0x6b-0x6b.7 (1)
0x60|                                    01         |            .   |                    x: 1 (valid) 0x6c-0x6c.7 (1)
    |                                               |                |                  [3]{}: in 0x6d-0x70.7 (4)
0x60|                                       fc      |             .  |                    opcode: "prefix" (0xfc) 0x6d-0x6d.7 (1)
0x60|                                          08   |              . |                    p_opcode: "memory.init" (8) 0x6e-0x6e.7 (1)
0x60|                                             00|               .|                    x: 0 (valid) 0x6f-0x6f.7 (1)
0x70|00                                             |.               |                    reserved: 0x0 (valid) 0x70-0x70.7 (1)
    |                                               |                |                  [4]{}: in 0x71-0x71.7 (1)
0x70|   0b                                          | .              |                    opcode: "end" (0xb) 0x71-0x71.7 (1)
    |                                               |                |    [6]{}: section 0x72-0x86.7 (21)
0x70|      0b                                       |  .             |      id: "data_section" (11) 0x72-0x72.7 (1)
0x70|         13                                    |   .            |      size: 19 (valid) 0x73-0x73.7 (1)
    |                                               |                |      content{}: 0x74-0x86.7 (19)
    |                                               |                |        seg{}: 0x74-0x86.7 (19)
0x70|            01                                 |    .           |          n: 1 (valid) 0x74-0x74.7 (1)
    |                                               |                |          x[0:1]: 0x75-0x86.7 (18)
    |                                               |                |            [0]{}: seg 0x75-0x86.7 (18)
0x70|               01                              |     .          |              tag: 1 (valid) 0x75-0x75.7 (1)
    |                                               |                |              b{}: 0x76-0x86.7 (17)
0x70|                  10                           |      .         |                n: 16 (valid) 0x76-0x76.7 (1)
0x70|                     42 42 42 42 42 42 42 42 42|       BBBBBBBBB|                x: raw bits 0x77-0x86.7 (16)
0x80|42 42 42 42 42 42 42|                          |BBBBBBB|        |
