$ fq -d wasm dv memory_init-0.wasm
    |00 01 02 03 04 05 06 07 08 09 0a 0b 0c 0d 0e 0f|0123456789abcdef|.{}: memory_init-0.wasm (wasm) 0x0-0x6d.7 (110)
0x00|00 61 73 6d                                    |.asm            |  magic: raw bits (valid) 0x0-0x3.7 (4)
0x00|            01 00 00 00                        |    ....        |  version: 1 0x4-0x7.7 (4)
    |                                               |                |  sections[0:6]: 0x8-0x6d.7 (102)
    |                                               |                |    [0]{}: section 0x8-0x12.7 (11)
0x00|                        01                     |        .       |      id: "type section" (1) 0x8-0x8.7 (1)
0x00|                           09                  |         .      |      size: 9 0x9-0x9.7 (1)
    |                                               |                |      content{}: 0xa-0x12.7 (9)
    |                                               |                |        ft{}: 0xa-0x12.7 (9)
0x00|                              02               |          .     |          n: 2 0xa-0xa.7 (1)
    |                                               |                |          x[0:2]: 0xb-0x12.7 (8)
    |                                               |                |            [0]{}: ft 0xb-0xd.7 (3)
0x00|                                 60            |           `    |              tag: 0x60 (valid) 0xb-0xb.7 (1)
    |                                               |                |              rt1{}: 0xc-0xc.7 (1)
0x00|                                    00         |            .   |                n: 0 0xc-0xc.7 (1)
    |                                               |                |                x[0:0]: 0xd-NA (0)
    |                                               |                |              rt2{}: 0xd-0xd.7 (1)
0x00|                                       00      |             .  |                n: 0 0xd-0xd.7 (1)
    |                                               |                |                x[0:0]: 0xe-NA (0)
    |                                               |                |            [1]{}: ft 0xe-0x12.7 (5)
0x00|                                          60   |              ` |              tag: 0x60 (valid) 0xe-0xe.7 (1)
    |                                               |                |              rt1{}: 0xf-0x10.7 (2)
0x00|                                             01|               .|                n: 1 0xf-0xf.7 (1)
    |                                               |                |                x[0:1]: 0x10-0x10.7 (1)
0x10|7f                                             |.               |                  [0]: "i32" (0x7f) t 0x10-0x10.7 (1)
    |                                               |                |              rt2{}: 0x11-0x12.7 (2)
0x10|   01                                          | .              |                n: 1 0x11-0x11.7 (1)
    |                                               |                |                x[0:1]: 0x12-0x12.7 (1)
0x10|      7f                                       |  .             |                  [0]: "i32" (0x7f) t 0x12-0x12.7 (1)
    |                                               |                |    [1]{}: section 0x13-0x17.7 (5)
0x10|         03                                    |   .            |      id: "function section" (3) 0x13-0x13.7 (1)
0x10|            03                                 |    .           |      size: 3 0x14-0x14.7 (1)
    |                                               |                |      content{}: 0x15-0x17.7 (3)
    |                                               |                |        x{}: 0x15-0x17.7 (3)
0x10|               02                              |     .          |          n: 2 0x15-0x15.7 (1)
    |                                               |                |          x[0:2]: 0x16-0x17.7 (2)
0x10|                  00                           |      .         |            [0]: 0 x 0x16-0x16.7 (1)
0x10|                     01                        |       .        |            [1]: 1 x 0x17-0x17.7 (1)
    |                                               |                |    [2]{}: section 0x18-0x1d.7 (6)
0x10|                        05                     |        .       |      id: "memory section" (5) 0x18-0x18.7 (1)
0x10|                           04                  |         .      |      size: 4 0x19-0x19.7 (1)
    |                                               |                |      content{}: 0x1a-0x1d.7 (4)
    |                                               |                |        mem{}: 0x1a-0x1d.7 (4)
0x10|                              01               |          .     |          n: 1 0x1a-0x1a.7 (1)
    |                                               |                |          x[0:1]: 0x1b-0x1d.7 (3)
    |                                               |                |            [0]{}: mem 0x1b-0x1d.7 (3)
    |                                               |                |              lim{}: 0x1b-0x1d.7 (3)
0x10|                                 01            |           .    |                tag: 0x1 0x1b-0x1b.7 (1)
0x10|                                    01         |            .   |                n: 1 0x1c-0x1c.7 (1)
0x10|                                       01      |             .  |                m: 1 0x1d-0x1d.7 (1)
    |                                               |                |    [3]{}: section 0x1e-0x3b.7 (30)
0x10|                                          07   |              . |      id: "export section" (7) 0x1e-0x1e.7 (1)
0x10|                                             1c|               .|      size: 28 0x1f-0x1f.7 (1)
    |                                               |                |      content{}: 0x20-0x3b.7 (28)
    |                                               |                |        ex{}: 0x20-0x3b.7 (28)
0x20|03                                             |.               |          n: 3 0x20-0x20.7 (1)
    |                                               |                |          x[0:3]: 0x21-0x3b.7 (27)
    |                                               |                |            [0]{}: ex 0x21-0x2a.7 (10)
    |                                               |                |              nm{}: 0x21-0x28.7 (8)
0x20|   07                                          | .              |                n: 7 0x21-0x21.7 (1)
0x20|      6d 65 6d 6f 72 79 30                     |  memory0       |                b: "memory0" 0x22-0x28.7 (7)
    |                                               |                |              d{}: 0x29-0x2a.7 (2)
0x20|                           02                  |         .      |                tag: "memidx" (0x2) 0x29-0x29.7 (1)
0x20|                              00               |          .     |                x: 0 0x2a-0x2a.7 (1)
    |                                               |                |            [1]{}: ex 0x2b-0x31.7 (7)
    |                                               |                |              nm{}: 0x2b-0x2f.7 (5)
0x20|                                 04            |           .    |                n: 4 0x2b-0x2b.7 (1)
0x20|                                    74 65 73 74|            test|                b: "test" 0x2c-0x2f.7 (4)
    |                                               |                |              d{}: 0x30-0x31.7 (2)
0x30|00                                             |.               |                tag: "funcidx" (0x0) 0x30-0x30.7 (1)
0x30|   00                                          | .              |                x: 0 0x31-0x31.7 (1)
    |                                               |                |            [2]{}: ex 0x32-0x3b.7 (10)
    |                                               |                |              nm{}: 0x32-0x39.7 (8)
0x30|      07                                       |  .             |                n: 7 0x32-0x32.7 (1)
0x30|         6c 6f 61 64 38 5f 75                  |   load8_u      |                b: "load8_u" 0x33-0x39.7 (7)
    |                                               |                |              d{}: 0x3a-0x3b.7 (2)
0x30|                              00               |          .     |                tag: "funcidx" (0x0) 0x3a-0x3a.7 (1)
0x30|                                 01            |           .    |                x: 1 0x3b-0x3b.7 (1)
    |                                               |                |    [4]{}: section 0x3c-0x4a.7 (15)
0x30|                                    0a         |            .   |      id: "code section" (10) 0x3c-0x3c.7 (1)
0x30|                                       0d      |             .  |      size: 13 0x3d-0x3d.7 (1)
    |                                               |                |      content{}: 0x3e-0x4a.7 (13)
    |                                               |                |        code{}: 0x3e-0x4a.7 (13)
0x30|                                          02   |              . |          n: 2 0x3e-0x3e.7 (1)
    |                                               |                |          x[0:2]: 0x3f-0x4a.7 (12)
    |                                               |                |            [0]{}: code 0x3f-0x42.7 (4)
0x30|                                             03|               .|              size: 3 0x3f-0x3f.7 (1)
    |                                               |                |              code{}: 0x40-0x42.7 (3)
    |                                               |                |                t{}: 0x40-0x40.7 (1)
0x40|00                                             |.               |                  n: 0 0x40-0x40.7 (1)
    |                                               |                |                  x[0:0]: 0x41-NA (0)
    |                                               |                |                e[0:2]: 0x41-0x42.7 (2)
    |                                               |                |                  [0]{}: in 0x41-0x41.7 (1)
0x40|   01                                          | .              |                    nop: 0x1 (valid) 0x41-0x41.7 (1)
    |                                               |                |                  [1]{}: in 0x42-0x42.7 (1)
0x40|      0b                                       |  .             |                    end: 0xb (valid) 0x42-0x42.7 (1)
    |                                               |                |            [1]{}: code 0x43-0x4a.7 (8)
0x40|         07                                    |   .            |              size: 7 0x43-0x43.7 (1)
    |                                               |                |              code{}: 0x44-0x4a.7 (7)
    |                                               |                |                t{}: 0x44-0x44.7 (1)
0x40|            00                                 |    .           |                  n: 0 0x44-0x44.7 (1)
    |                                               |                |                  x[0:0]: 0x45-NA (0)
    |                                               |                |                e[0:3]: 0x45-0x4a.7 (6)
    |                                               |                |                  [0]{}: in 0x45-0x46.7 (2)
0x40|               20                              |                |                    local.get: 0x20 (valid) 0x45-0x45.7 (1)
0x40|                  00                           |      .         |                    x: 0 0x46-0x46.7 (1)
    |                                               |                |                  [1]{}: in 0x47-0x49.7 (3)
0x40|                     2d                        |       -        |                    i32.load8_u: 0x2d (valid) 0x47-0x47.7 (1)
    |                                               |                |                    m{}: 0x48-0x49.7 (2)
0x40|                        00                     |        .       |                      a: 0 0x48-0x48.7 (1)
0x40|                           00                  |         .      |                      o: 0 0x49-0x49.7 (1)
    |                                               |                |                  [2]{}: in 0x4a-0x4a.7 (1)
0x40|                              0b               |          .     |                    end: 0xb (valid) 0x4a-0x4a.7 (1)
    |                                               |                |    [5]{}: section 0x4b-0x6d.7 (35)
0x40|                                 0b            |           .    |      id: "data section" (11) 0x4b-0x4b.7 (1)
0x40|                                    21         |            !   |      size: 33 0x4c-0x4c.7 (1)
    |                                               |                |      content{}: 0x4d-0x6d.7 (33)
    |                                               |                |        seg{}: 0x4d-0x6d.7 (33)
0x40|                                       04      |             .  |          n: 4 0x4d-0x4d.7 (1)
    |                                               |                |          x[0:4]: 0x4e-0x6d.7 (32)
    |                                               |                |            [0]{}: seg 0x4e-0x56.7 (9)
0x40|                                          00   |              . |              tag: 0 0x4e-0x4e.7 (1)
    |                                               |                |              e[0:2]: 0x4f-0x51.7 (3)
    |                                               |                |                [0]{}: in 0x4f-0x50.7 (2)
0x40|                                             41|               A|                  i32.const: 0x41 (valid) 0x4f-0x4f.7 (1)
0x50|02                                             |.               |                  n: 2 0x50-0x50.7 (1)
    |                                               |                |                [1]{}: in 0x51-0x51.7 (1)
0x50|   0b                                          | .              |                  end: 0xb (valid) 0x51-0x51.7 (1)
    |                                               |                |              b{}: 0x52-0x56.7 (5)
0x50|      04                                       |  .             |                n: 4 0x52-0x52.7 (1)
0x50|         03 01 04 01                           |   ....         |                x: raw bits 0x53-0x56.7 (4)
    |                                               |                |            [1]{}: seg 0x57-0x5c.7 (6)
0x50|                     01                        |       .        |              tag: 1 0x57-0x57.7 (1)
    |                                               |                |              b{}: 0x58-0x5c.7 (5)
0x50|                        04                     |        .       |                n: 4 0x58-0x58.7 (1)
0x50|                           02 07 01 08         |         ....   |                x: raw bits 0x59-0x5c.7 (4)
    |                                               |                |            [2]{}: seg 0x5d-0x66.7 (10)
0x50|                                       00      |             .  |              tag: 0 0x5d-0x5d.7 (1)
    |                                               |                |              e[0:2]: 0x5e-0x60.7 (3)
    |                                               |                |                [0]{}: in 0x5e-0x5f.7 (2)
0x50|                                          41   |              A |                  i32.const: 0x41 (valid) 0x5e-0x5e.7 (1)
0x50|                                             0c|               .|                  n: 12 0x5f-0x5f.7 (1)
    |                                               |                |                [1]{}: in 0x60-0x60.7 (1)
0x60|0b                                             |.               |                  end: 0xb (valid) 0x60-0x60.7 (1)
    |                                               |                |              b{}: 0x61-0x66.7 (6)
0x60|   05                                          | .              |                n: 5 0x61-0x61.7 (1)
0x60|      07 05 02 03 06                           |  .....         |                x: raw bits 0x62-0x66.7 (5)
    |                                               |                |            [3]{}: seg 0x67-0x6d.7 (7)
0x60|                     01                        |       .        |              tag: 1 0x67-0x67.7 (1)
    |                                               |                |              b{}: 0x68-0x6d.7 (6)
0x60|                        05                     |        .       |                n: 5 0x68-0x68.7 (1)
0x60|                           05 09 02 07 06|     |         .....| |                x: raw bits 0x69-0x6d.7 (5)
