$ fq -d wasm dv memory_copy-25.wasm
    |00 01 02 03 04 05 06 07 08 09 0a 0b 0c 0d 0e 0f|0123456789abcdef|.{}: memory_copy-25.wasm (wasm) 0x0-0x8d (141)
0x00|00 61 73 6d                                    |.asm            |  magic: raw bits (valid) 0x0-0x4 (4)
0x00|            01 00 00 00                        |    ....        |  version: 1 0x4-0x8 (4)
    |                                               |                |  sections[0:5]: 0x8-0x8d (133)
    |                                               |                |    [0]{}: section 0x8-0x15 (13)
0x00|                        01                     |        .       |      id: "type_section" (1) 0x8-0x9 (1)
0x00|                           0b                  |         .      |      size: 11 (valid) 0x9-0xa (1)
    |                                               |                |      content{}: 0xa-0x15 (11)
    |                                               |                |        ft{}: 0xa-0x15 (11)
0x00|                              02               |          .     |          n: 2 (valid) 0xa-0xb (1)
    |                                               |                |          x[0:2]: 0xb-0x15 (10)
    |                                               |                |            [0]{}: ft 0xb-0xe (3)
0x00|                                 60            |           `    |              tag: 0x60 (valid) 0xb-0xc (1)
    |                                               |                |              rt1{}: 0xc-0xd (1)
0x00|                                    00         |            .   |                n: 0 (valid) 0xc-0xd (1)
    |                                               |                |                x[0:0]: 0xd-0xd (0)
    |                                               |                |              rt2{}: 0xd-0xe (1)
0x00|                                       00      |             .  |                n: 0 (valid) 0xd-0xe (1)
    |                                               |                |                x[0:0]: 0xe-0xe (0)
    |                                               |                |            [1]{}: ft 0xe-0x15 (7)
0x00|                                          60   |              ` |              tag: 0x60 (valid) 0xe-0xf (1)
    |                                               |                |              rt1{}: 0xf-0x13 (4)
0x00|                                             03|               .|                n: 3 (valid) 0xf-0x10 (1)
    |                                               |                |                x[0:3]: 0x10-0x13 (3)
0x10|7f                                             |.               |                  [0]: "i32" (0x7f) t 0x10-0x11 (1)
0x10|   7f                                          | .              |                  [1]: "i32" (0x7f) t 0x11-0x12 (1)
0x10|      7f                                       |  .             |                  [2]: "i32" (0x7f) t 0x12-0x13 (1)
    |                                               |                |              rt2{}: 0x13-0x15 (2)
0x10|         01                                    |   .            |                n: 1 (valid) 0x13-0x14 (1)
    |                                               |                |                x[0:1]: 0x14-0x15 (1)
0x10|            7f                                 |    .           |                  [0]: "i32" (0x7f) t 0x14-0x15 (1)
    |                                               |                |    [1]{}: section 0x15-0x1a (5)
0x10|               03                              |     .          |      id: "function_section" (3) 0x15-0x16 (1)
0x10|                  03                           |      .         |      size: 3 (valid) 0x16-0x17 (1)
    |                                               |                |      content{}: 0x17-0x1a (3)
    |                                               |                |        x{}: 0x17-0x1a (3)
0x10|                     02                        |       .        |          n: 2 (valid) 0x17-0x18 (1)
    |                                               |                |          x[0:2]: 0x18-0x1a (2)
0x10|                        00                     |        .       |            [0]: 0 x (valid) 0x18-0x19 (1)
0x10|                           01                  |         .      |            [1]: 1 x (valid) 0x19-0x1a (1)
    |                                               |                |    [2]{}: section 0x1a-0x20 (6)
0x10|                              05               |          .     |      id: "memory_section" (5) 0x1a-0x1b (1)
0x10|                                 04            |           .    |      size: 4 (valid) 0x1b-0x1c (1)
    |                                               |                |      content{}: 0x1c-0x20 (4)
    |                                               |                |        mem{}: 0x1c-0x20 (4)
0x10|                                    01         |            .   |          n: 1 (valid) 0x1c-0x1d (1)
    |                                               |                |          x[0:1]: 0x1d-0x20 (3)
    |                                               |                |            [0]{}: mem 0x1d-0x20 (3)
    |                                               |                |              lim{}: 0x1d-0x20 (3)
0x10|                                       01      |             .  |                tag: 0x1 0x1d-0x1e (1)
0x10|                                          01   |              . |                n: 1 (valid) 0x1e-0x1f (1)
0x10|                                             01|               .|                m: 1 (valid) 0x1f-0x20 (1)
    |                                               |                |    [3]{}: section 0x20-0x37 (23)
0x20|07                                             |.               |      id: "export_section" (7) 0x20-0x21 (1)
0x20|   15                                          | .              |      size: 21 (valid) 0x21-0x22 (1)
    |                                               |                |      content{}: 0x22-0x37 (21)
    |                                               |                |        ex{}: 0x22-0x37 (21)
0x20|      02                                       |  .             |          n: 2 (valid) 0x22-0x23 (1)
    |                                               |                |          x[0:2]: 0x23-0x37 (20)
    |                                               |                |            [0]{}: ex 0x23-0x2a (7)
    |                                               |                |              nm{}: 0x23-0x28 (5)
0x20|         04                                    |   .            |                n: 4 (valid) 0x23-0x24 (1)
0x20|            74 65 73 74                        |    test        |                b: "test" 0x24-0x28 (4)
    |                                               |                |              d{}: 0x28-0x2a (2)
0x20|                        00                     |        .       |                tag: "funcidx" (0x0) 0x28-0x29 (1)
0x20|                           00                  |         .      |                x: 0 (valid) 0x29-0x2a (1)
    |                                               |                |            [1]{}: ex 0x2a-0x37 (13)
    |                                               |                |              nm{}: 0x2a-0x35 (11)
0x20|                              0a               |          .     |                n: 10 (valid) 0x2a-0x2b (1)
0x20|                                 63 68 65 63 6b|           check|                b: "checkRange" 0x2b-0x35 (10)
0x30|52 61 6e 67 65                                 |Range           |
    |                                               |                |              d{}: 0x35-0x37 (2)
0x30|               00                              |     .          |                tag: "funcidx" (0x0) 0x35-0x36 (1)
0x30|                  01                           |      .         |                x: 1 (valid) 0x36-0x37 (1)
    |                                               |                |    [4]{}: section 0x37-0x8d (86)
0x30|                     0a                        |       .        |      id: "code_section" (10) 0x37-0x38 (1)
0x30|                        54                     |        T       |      size: 84 (valid) 0x38-0x39 (1)
    |                                               |                |      content{}: 0x39-0x8d (84)
    |                                               |                |        code{}: 0x39-0x8d (84)
0x30|                           02                  |         .      |          n: 2 (valid) 0x39-0x3a (1)
    |                                               |                |          x[0:2]: 0x3a-0x8d (83)
    |                                               |                |            [0]{}: code 0x3a-0x65 (43)
0x30|                              2a               |          *     |              size: 42 (valid) 0x3a-0x3b (1)
    |                                               |                |              code{}: 0x3b-0x65 (42)
    |                                               |                |                t{}: 0x3b-0x3c (1)
0x30|                                 00            |           .    |                  n: 0 (valid) 0x3b-0x3c (1)
    |                                               |                |                  x[0:0]: 0x3c-0x3c (0)
    |                                               |                |                e[0:13]: 0x3c-0x65 (41)
    |                                               |                |                  [0]{}: in 0x3c-0x3e (2)
0x30|                                    41         |            A   |                    opcode: "i32.const" (0x41) 0x3c-0x3d (1)
0x30|                                       00      |             .  |                    n: 0 (valid) 0x3d-0x3e (1)
    |                                               |                |                  [1]{}: in 0x3e-0x41 (3)
0x30|                                          41   |              A |                    opcode: "i32.const" (0x41) 0x3e-0x3f (1)
0x30|                                             d5|               .|                    n: 85 (valid) 0x3f-0x41 (2)
0x40|00                                             |.               |
    |                                               |                |                  [2]{}: in 0x41-0x45 (4)
0x40|   41                                          | A              |                    opcode: "i32.const" (0x41) 0x41-0x42 (1)
0x40|      80 80 02                                 |  ...           |                    n: 32768 (valid) 0x42-0x45 (3)
    |                                               |                |                  [3]{}: in 0x45-0x48 (3)
0x40|               fc                              |     .          |                    opcode: "prefix" (0xfc) 0x45-0x46 (1)
0x40|                  0b                           |      .         |                    p_opcode: "memory.fill" (11) 0x46-0x47 (1)
0x40|                     00                        |       .        |                    reserved: 0x0 (valid) 0x47-0x48 (1)
    |                                               |                |                  [4]{}: in 0x48-0x4c (4)
0x40|                        41                     |        A       |                    opcode: "i32.const" (0x41) 0x48-0x49 (1)
0x40|                           80 80 02            |         ...    |                    n: 32768 (valid) 0x49-0x4c (3)
    |                                               |                |                  [5]{}: in 0x4c-0x4f (3)
0x40|                                    41         |            A   |                    opcode: "i32.const" (0x41) 0x4c-0x4d (1)
0x40|                                       aa 01   |             .. |                    n: 170 (valid) 0x4d-0x4f (2)
    |                                               |                |                  [6]{}: in 0x4f-0x53 (4)
0x40|                                             41|               A|                    opcode: "i32.const" (0x41) 0x4f-0x50 (1)
0x50|80 80 02                                       |...             |                    n: 32768 (valid) 0x50-0x53 (3)
    |                                               |                |                  [7]{}: in 0x53-0x56 (3)
0x50|         fc                                    |   .            |                    opcode: "prefix" (0xfc) 0x53-0x54 (1)
0x50|            0b                                 |    .           |                    p_opcode: "memory.fill" (11) 0x54-0x55 (1)
0x50|               00                              |     .          |                    reserved: 0x0 (valid) 0x55-0x56 (1)
    |                                               |                |                  [8]{}: in 0x56-0x5a (4)
0x50|                  41                           |      A         |                    opcode: "i32.const" (0x41) 0x56-0x57 (1)
0x50|                     80 a0 02                  |       ...      |                    n: 36864 (valid) 0x57-0x5a (3)
    |                                               |                |                  [9]{}: in 0x5a-0x5e (4)
0x50|                              41               |          A     |                    opcode: "i32.const" (0x41) 0x5a-0x5b (1)
0x50|                                 80 e0 01      |           ...  |                    n: 28672 (valid) 0x5b-0x5e (3)
    |                                               |                |                  [10]{}: in 0x5e-0x60 (2)
0x50|                                          41   |              A |                    opcode: "i32.const" (0x41) 0x5e-0x5f (1)
0x50|                                             00|               .|                    n: 0 (valid) 0x5f-0x60 (1)
    |                                               |                |                  [11]{}: in 0x60-0x64 (4)
0x60|fc                                             |.               |                    opcode: "prefix" (0xfc) 0x60-0x61 (1)
0x60|   0a                                          | .              |                    p_opcode: "memory.copy" (10) 0x61-0x62 (1)
0x60|      00                                       |  .             |                    reserved1: 0x0 (valid) 0x62-0x63 (1)
0x60|         00                                    |   .            |                    reserved2: 0x0 (valid) 0x63-0x64 (1)
    |                                               |                |                  [12]{}: in 0x64-0x65 (1)
0x60|            0b                                 |    .           |                    opcode: "end" (0xb) 0x64-0x65 (1)
    |                                               |                |            [1]{}: code 0x65-0x8d (40)
0x60|               27                              |     '          |              size: 39 (valid) 0x65-0x66 (1)
    |                                               |                |              code{}: 0x66-0x8d (39)
    |                                               |                |                t{}: 0x66-0x67 (1)
0x60|                  00                           |      .         |                  n: 0 (valid) 0x66-0x67 (1)
    |                                               |                |                  x[0:0]: 0x67-0x67 (0)
    |                                               |                |                e[0:4]: 0x67-0x8d (38)
    |                                               |                |                  [0]{}: in 0x67-0x89 (34)
0x60|                     03                        |       .        |                    opcode: "loop" (0x3) 0x67-0x68 (1)
0x60|                        40                     |        @       |                    bt: "ε" (64) 0x68-0x69 (1)
    |                                               |                |                    instructions[0:9]: 0x69-0x88 (31)
    |                                               |                |                      [0]{}: instr 0x69-0x6b (2)
0x60|                           20                  |                |                        opcode: "local.get" (0x20) 0x69-0x6a (1)
0x60|                              00               |          .     |                        x: 0 (valid) 0x6a-0x6b (1)
    |                                               |                |                      [1]{}: instr 0x6b-0x6d (2)
0x60|                                 20            |                |                        opcode: "local.get" (0x20) 0x6b-0x6c (1)
0x60|                                    01         |            .   |                        x: 1 (valid) 0x6c-0x6d (1)
    |                                               |                |                      [2]{}: instr 0x6d-0x6e (1)
0x60|                                       46      |             F  |                        opcode: "i32.eq" (0x46) 0x6d-0x6e (1)
    |                                               |                |                      [3]{}: instr 0x6e-0x74 (6)
0x60|                                          04   |              . |                        opcode: "if" (0x4) 0x6e-0x6f (1)
0x60|                                             40|               @|                        bt: "ε" (64) 0x6f-0x70 (1)
    |                                               |                |                        in1[0:2]: 0x70-0x73 (3)
    |                                               |                |                          [0]{}: instr 0x70-0x72 (2)
0x70|41                                             |A               |                            opcode: "i32.const" (0x41) 0x70-0x71 (1)
0x70|   7f                                          | .              |                            n: -1 (valid) 0x71-0x72 (1)
    |                                               |                |                          [1]{}: instr 0x72-0x73 (1)
0x70|      0f                                       |  .             |                            opcode: "return" (0xf) 0x72-0x73 (1)
0x70|         0b                                    |   .            |                        end: 0xb (valid) 0x73-0x74 (1)
    |                                               |                |                      [4]{}: instr 0x74-0x76 (2)
0x70|            20                                 |                |                        opcode: "local.get" (0x20) 0x74-0x75 (1)
0x70|               00                              |     .          |                        x: 0 (valid) 0x75-0x76 (1)
    |                                               |                |                      [5]{}: instr 0x76-0x79 (3)
0x70|                  2d                           |      -         |                        opcode: "i32.load8_u" (0x2d) 0x76-0x77 (1)
    |                                               |                |                        m{}: 0x77-0x79 (2)
0x70|                     00                        |       .        |                          a: 0 (valid) 0x77-0x78 (1)
0x70|                        00                     |        .       |                          o: 0 (valid) 0x78-0x79 (1)
    |                                               |                |                      [6]{}: instr 0x79-0x7b (2)
0x70|                           20                  |                |                        opcode: "local.get" (0x20) 0x79-0x7a (1)
0x70|                              02               |          .     |                        x: 2 (valid) 0x7a-0x7b (1)
    |                                               |                |                      [7]{}: instr 0x7b-0x7c (1)
0x70|                                 46            |           F    |                        opcode: "i32.eq" (0x46) 0x7b-0x7c (1)
    |                                               |                |                      [8]{}: instr 0x7c-0x88 (12)
0x70|                                    04         |            .   |                        opcode: "if" (0x4) 0x7c-0x7d (1)
0x70|                                       40      |             @  |                        bt: "ε" (64) 0x7d-0x7e (1)
    |                                               |                |                        in1[0:5]: 0x7e-0x87 (9)
    |                                               |                |                          [0]{}: instr 0x7e-0x80 (2)
0x70|                                          20   |                |                            opcode: "local.get" (0x20) 0x7e-0x7f (1)
0x70|                                             00|               .|                            x: 0 (valid) 0x7f-0x80 (1)
    |                                               |                |                          [1]{}: instr 0x80-0x82 (2)
0x80|41                                             |A               |                            opcode: "i32.const" (0x41) 0x80-0x81 (1)
0x80|   01                                          | .              |                            n: 1 (valid) 0x81-0x82 (1)
    |                                               |                |                          [2]{}: instr 0x82-0x83 (1)
0x80|      6a                                       |  j             |                            opcode: "i32.add" (0x6a) 0x82-0x83 (1)
    |                                               |                |                          [3]{}: instr 0x83-0x85 (2)
0x80|         21                                    |   !            |                            opcode: "local.set" (0x21) 0x83-0x84 (1)
0x80|            00                                 |    .           |                            x: 0 (valid) 0x84-0x85 (1)
    |                                               |                |                          [4]{}: instr 0x85-0x87 (2)
0x80|               0c                              |     .          |                            opcode: "br" (0xc) 0x85-0x86 (1)
0x80|                  01                           |      .         |                            l: 1 (valid) 0x86-0x87 (1)
0x80|                     0b                        |       .        |                        end: 0xb (valid) 0x87-0x88 (1)
0x80|                        0b                     |        .       |                    end: 0xb (valid) 0x88-0x89 (1)
    |                                               |                |                  [1]{}: in 0x89-0x8b (2)
0x80|                           20                  |                |                    opcode: "local.get" (0x20) 0x89-0x8a (1)
0x80|                              00               |          .     |                    x: 0 (valid) 0x8a-0x8b (1)
    |                                               |                |                  [2]{}: in 0x8b-0x8c (1)
0x80|                                 0f            |           .    |                    opcode: "return" (0xf) 0x8b-0x8c (1)
    |                                               |                |                  [3]{}: in 0x8c-0x8d (1)
0x80|                                    0b|        |            .|  |                    opcode: "end" (0xb) 0x8c-0x8d (1)
