$ fq -d wasm dv memory_copy-19.wasm
    |00 01 02 03 04 05 06 07 08 09 0a 0b 0c 0d 0e 0f|0123456789abcdef|.{}: memory_copy-19.wasm (wasm) 0x0-0x79 (121)
0x00|00 61 73 6d                                    |.asm            |  magic: raw bits (valid) 0x0-0x4 (4)
0x00|            01 00 00 00                        |    ....        |  version: 1 0x4-0x8 (4)
    |                                               |                |  sections[0:5]: 0x8-0x79 (113)
    |                                               |                |    [0]{}: section 0x8-0x15 (13)
0x00|                        01                     |        .       |      id: "type_section" (1) 0x8-0x9 (1)
0x00|                           0b                  |         .      |      size: 11 (valid) 0x9-0xa (1)
    |                                               |                |      content{}: 0xa-0x15 (11)
    |                                               |                |        ft{}: 0xa-0x15 (11)
0x00|                              02               |          .     |          n: 2 (valid) 0xa-0xb (1)
    |                                               |                |          x[0:2]: 0xb-0x15 (10)
    |                                               |                |            [0]{}: ft 0xb-0xe (3)
0x00|                                 60            |           `    |              tag: 0x60 (valid) 0xb-0xc (1)
    |                                               |                |              rt1{}: 0xc-0xd (1)
0x00|                                    00         |            .   |                n: 0 (valid) 0xc-0xd (1)
    |                                               |                |                x[0:0]: 0xd-0xd (0)
    |                                               |                |              rt2{}: 0xd-0xe (1)
0x00|                                       00      |             .  |                n: 0 (valid) 0xd-0xe (1)
    |                                               |                |                x[0:0]: 0xe-0xe (0)
    |                                               |                |            [1]{}: ft 0xe-0x15 (7)
0x00|                                          60   |              ` |              tag: 0x60 (valid) 0xe-0xf (1)
    |                                               |                |              rt1{}: 0xf-0x13 (4)
0x00|                                             03|               .|                n: 3 (valid) 0xf-0x10 (1)
    |                                               |                |                x[0:3]: 0x10-0x13 (3)
0x10|7f                                             |.               |                  [0]: "i32" (0x7f) t 0x10-0x11 (1)
0x10|   7f                                          | .              |                  [1]: "i32" (0x7f) t 0x11-0x12 (1)
0x10|      7f                                       |  .             |                  [2]: "i32" (0x7f) t 0x12-0x13 (1)
    |                                               |                |              rt2{}: 0x13-0x15 (2)
0x10|         01                                    |   .            |                n: 1 (valid) 0x13-0x14 (1)
    |                                               |                |                x[0:1]: 0x14-0x15 (1)
0x10|            7f                                 |    .           |                  [0]: "i32" (0x7f) t 0x14-0x15 (1)
    |                                               |                |    [1]{}: section 0x15-0x1a (5)
0x10|               03                              |     .          |      id: "function_section" (3) 0x15-0x16 (1)
0x10|                  03                           |      .         |      size: 3 (valid) 0x16-0x17 (1)
    |                                               |                |      content{}: 0x17-0x1a (3)
    |                                               |                |        x{}: 0x17-0x1a (3)
0x10|                     02                        |       .        |          n: 2 (valid) 0x17-0x18 (1)
    |                                               |                |          x[0:2]: 0x18-0x1a (2)
0x10|                        00                     |        .       |            [0]: 0 x (valid) 0x18-0x19 (1)
0x10|                           01                  |         .      |            [1]: 1 x (valid) 0x19-0x1a (1)
    |                                               |                |    [2]{}: section 0x1a-0x20 (6)
0x10|                              05               |          .     |      id: "memory_section" (5) 0x1a-0x1b (1)
0x10|                                 04            |           .    |      size: 4 (valid) 0x1b-0x1c (1)
    |                                               |                |      content{}: 0x1c-0x20 (4)
    |                                               |                |        mem{}: 0x1c-0x20 (4)
0x10|                                    01         |            .   |          n: 1 (valid) 0x1c-0x1d (1)
    |                                               |                |          x[0:1]: 0x1d-0x20 (3)
    |                                               |                |            [0]{}: mem 0x1d-0x20 (3)
    |                                               |                |              lim{}: 0x1d-0x20 (3)
0x10|                                       01      |             .  |                tag: 0x1 0x1d-0x1e (1)
0x10|                                          01   |              . |                n: 1 (valid) 0x1e-0x1f (1)
0x10|                                             01|               .|                m: 1 (valid) 0x1f-0x20 (1)
    |                                               |                |    [3]{}: section 0x20-0x37 (23)
0x20|07                                             |.               |      id: "export_section" (7) 0x20-0x21 (1)
0x20|   15                                          | .              |      size: 21 (valid) 0x21-0x22 (1)
    |                                               |                |      content{}: 0x22-0x37 (21)
    |                                               |                |        ex{}: 0x22-0x37 (21)
0x20|      02                                       |  .             |          n: 2 (valid) 0x22-0x23 (1)
    |                                               |                |          x[0:2]: 0x23-0x37 (20)
    |                                               |                |            [0]{}: ex 0x23-0x2a (7)
    |                                               |                |              nm{}: 0x23-0x28 (5)
0x20|         04                                    |   .            |                n: 4 (valid) 0x23-0x24 (1)
0x20|            74 65 73 74                        |    test        |                b: "test" 0x24-0x28 (4)
    |                                               |                |              d{}: 0x28-0x2a (2)
0x20|                        00                     |        .       |                tag: "funcidx" (0x0) 0x28-0x29 (1)
0x20|                           00                  |         .      |                x: 0 (valid) 0x29-0x2a (1)
    |                                               |                |            [1]{}: ex 0x2a-0x37 (13)
    |                                               |                |              nm{}: 0x2a-0x35 (11)
0x20|                              0a               |          .     |                n: 10 (valid) 0x2a-0x2b (1)
0x20|                                 63 68 65 63 6b|           check|                b: "checkRange" 0x2b-0x35 (10)
0x30|52 61 6e 67 65                                 |Range           |
    |                                               |                |              d{}: 0x35-0x37 (2)
0x30|               00                              |     .          |                tag: "funcidx" (0x0) 0x35-0x36 (1)
0x30|                  01                           |      .         |                x: 1 (valid) 0x36-0x37 (1)
    |                                               |                |    [4]{}: section 0x37-0x79 (66)
0x30|                     0a                        |       .        |      id: "code_section" (10) 0x37-0x38 (1)
0x30|                        40                     |        @       |      size: 64 (valid) 0x38-0x39 (1)
    |                                               |                |      content{}: 0x39-0x79 (64)
    |                                               |                |        code{}: 0x39-0x79 (64)
0x30|                           02                  |         .      |          n: 2 (valid) 0x39-0x3a (1)
    |                                               |                |          x[0:2]: 0x3a-0x79 (63)
    |                                               |                |            [0]{}: code 0x3a-0x51 (23)
0x30|                              16               |          .     |              size: 22 (valid) 0x3a-0x3b (1)
    |                                               |                |              code{}: 0x3b-0x51 (22)
    |                                               |                |                t{}: 0x3b-0x3c (1)
0x30|                                 00            |           .    |                  n: 0 (valid) 0x3b-0x3c (1)
    |                                               |                |                  x[0:0]: 0x3c-0x3c (0)
    |                                               |                |                e[0:9]: 0x3c-0x51 (21)
    |                                               |                |                  [0]{}: in 0x3c-0x3e (2)
0x30|                                    41         |            A   |                    opcode: "i32.const" (0x41) 0x3c-0x3d (1)
0x30|                                       0a      |             .  |                    n: 10 (valid) 0x3d-0x3e (1)
    |                                               |                |                  [1]{}: in 0x3e-0x41 (3)
0x30|                                          41   |              A |                    opcode: "i32.const" (0x41) 0x3e-0x3f (1)
0x30|                                             d5|               .|                    n: 85 (valid) 0x3f-0x41 (2)
0x40|00                                             |.               |
    |                                               |                |                  [2]{}: in 0x41-0x43 (2)
0x40|   41                                          | A              |                    opcode: "i32.const" (0x41) 0x41-0x42 (1)
0x40|      0a                                       |  .             |                    n: 10 (valid) 0x42-0x43 (1)
    |                                               |                |                  [3]{}: in 0x43-0x46 (3)
0x40|         fc                                    |   .            |                    opcode: "prefix" (0xfc) 0x43-0x44 (1)
0x40|            0b                                 |    .           |                    p_opcode: "memory.fill" (11) 0x44-0x45 (1)
0x40|               00                              |     .          |                    reserved: 0x0 (valid) 0x45-0x46 (1)
    |                                               |                |                  [4]{}: in 0x46-0x48 (2)
0x40|                  41                           |      A         |                    opcode: "i32.const" (0x41) 0x46-0x47 (1)
0x40|                     09                        |       .        |                    n: 9 (valid) 0x47-0x48 (1)
    |                                               |                |                  [5]{}: in 0x48-0x4a (2)
0x40|                        41                     |        A       |                    opcode: "i32.const" (0x41) 0x48-0x49 (1)
0x40|                           0a                  |         .      |                    n: 10 (valid) 0x49-0x4a (1)
    |                                               |                |                  [6]{}: in 0x4a-0x4c (2)
0x40|                              41               |          A     |                    opcode: "i32.const" (0x41) 0x4a-0x4b (1)
0x40|                                 05            |           .    |                    n: 5 (valid) 0x4b-0x4c (1)
    |                                               |                |                  [7]{}: in 0x4c-0x50 (4)
0x40|                                    fc         |            .   |                    opcode: "prefix" (0xfc) 0x4c-0x4d (1)
0x40|                                       0a      |             .  |                    p_opcode: "memory.copy" (10) 0x4d-0x4e (1)
0x40|                                          00   |              . |                    reserved1: 0x0 (valid) 0x4e-0x4f (1)
0x40|                                             00|               .|                    reserved2: 0x0 (valid) 0x4f-0x50 (1)
    |                                               |                |                  [8]{}: in 0x50-0x51 (1)
0x50|0b                                             |.               |                    opcode: "end" (0xb) 0x50-0x51 (1)
    |                                               |                |            [1]{}: code 0x51-0x79 (40)
0x50|   27                                          | '              |              size: 39 (valid) 0x51-0x52 (1)
    |                                               |                |              code{}: 0x52-0x79 (39)
    |                                               |                |                t{}: 0x52-0x53 (1)
0x50|      00                                       |  .             |                  n: 0 (valid) 0x52-0x53 (1)
    |                                               |                |                  x[0:0]: 0x53-0x53 (0)
    |                                               |                |                e[0:4]: 0x53-0x79 (38)
    |                                               |                |                  [0]{}: in 0x53-0x75 (34)
0x50|         03                                    |   .            |                    opcode: "loop" (0x3) 0x53-0x54 (1)
0x50|            40                                 |    @           |                    bt: "ε" (64) 0x54-0x55 (1)
    |                                               |                |                    instructions[0:9]: 0x55-0x74 (31)
    |                                               |                |                      [0]{}: instr 0x55-0x57 (2)
0x50|               20                              |                |                        opcode: "local.get" (0x20) 0x55-0x56 (1)
0x50|                  00                           |      .         |                        x: 0 (valid) 0x56-0x57 (1)
    |                                               |                |                      [1]{}: instr 0x57-0x59 (2)
0x50|                     20                        |                |                        opcode: "local.get" (0x20) 0x57-0x58 (1)
0x50|                        01                     |        .       |                        x: 1 (valid) 0x58-0x59 (1)
    |                                               |                |                      [2]{}: instr 0x59-0x5a (1)
0x50|                           46                  |         F      |                        opcode: "i32.eq" (0x46) 0x59-0x5a (1)
    |                                               |                |                      [3]{}: instr 0x5a-0x60 (6)
0x50|                              04               |          .     |                        opcode: "if" (0x4) 0x5a-0x5b (1)
0x50|                                 40            |           @    |                        bt: "ε" (64) 0x5b-0x5c (1)
    |                                               |                |                        in1[0:2]: 0x5c-0x5f (3)
    |                                               |                |                          [0]{}: instr 0x5c-0x5e (2)
0x50|                                    41         |            A   |                            opcode: "i32.const" (0x41) 0x5c-0x5d (1)
0x50|                                       7f      |             .  |                            n: -1 (valid) 0x5d-0x5e (1)
    |                                               |                |                          [1]{}: instr 0x5e-0x5f (1)
0x50|                                          0f   |              . |                            opcode: "return" (0xf) 0x5e-0x5f (1)
0x50|                                             0b|               .|                        end: 0xb (valid) 0x5f-0x60 (1)
    |                                               |                |                      [4]{}: instr 0x60-0x62 (2)
0x60|20                                             |                |                        opcode: "local.get" (0x20) 0x60-0x61 (1)
0x60|   00                                          | .              |                        x: 0 (valid) 0x61-0x62 (1)
    |                                               |                |                      [5]{}: instr 0x62-0x65 (3)
0x60|      2d                                       |  -             |                        opcode: "i32.load8_u" (0x2d) 0x62-0x63 (1)
    |                                               |                |                        m{}: 0x63-0x65 (2)
0x60|         00                                    |   .            |                          a: 0 (valid) 0x63-0x64 (1)
0x60|            00                                 |    .           |                          o: 0 (valid) 0x64-0x65 (1)
    |                                               |                |                      [6]{}: instr 0x65-0x67 (2)
0x60|               20                              |                |                        opcode: "local.get" (0x20) 0x65-0x66 (1)
0x60|                  02                           |      .         |                        x: 2 (valid) 0x66-0x67 (1)
    |                                               |                |                      [7]{}: instr 0x67-0x68 (1)
0x60|                     46                        |       F        |                        opcode: "i32.eq" (0x46) 0x67-0x68 (1)
    |                                               |                |                      [8]{}: instr 0x68-0x74 (12)
0x60|                        04                     |        .       |                        opcode: "if" (0x4) 0x68-0x69 (1)
0x60|                           40                  |         @      |                        bt: "ε" (64) 0x69-0x6a (1)
    |                                               |                |                        in1[0:5]: 0x6a-0x73 (9)
    |                                               |                |                          [0]{}: instr 0x6a-0x6c (2)
0x60|                              20               |                |                            opcode: "local.get" (0x20) 0x6a-0x6b (1)
0x60|                                 00            |           .    |                            x: 0 (valid) 0x6b-0x6c (1)
    |                                               |                |                          [1]{}: instr 0x6c-0x6e (2)
0x60|                                    41         |            A   |                            opcode: "i32.const" (0x41) 0x6c-0x6d (1)
0x60|                                       01      |             .  |                            n: 1 (valid) 0x6d-0x6e (1)
    |                                               |                |                          [2]{}: instr 0x6e-0x6f (1)
0x60|                                          6a   |              j |                            opcode: "i32.add" (0x6a) 0x6e-0x6f (1)
    |                                               |                |                          [3]{}: instr 0x6f-0x71 (2)
0x60|                                             21|               !|                            opcode: "local.set" (0x21) 0x6f-0x70 (1)
0x70|00                                             |.               |                            x: 0 (valid) 0x70-0x71 (1)
    |                                               |                |                          [4]{}: instr 0x71-0x73 (2)
0x70|   0c                                          | .              |                            opcode: "br" (0xc) 0x71-0x72 (1)
0x70|      01                                       |  .             |                            l: 1 (valid) 0x72-0x73 (1)
0x70|         0b                                    |   .            |                        end: 0xb (valid) 0x73-0x74 (1)
0x70|            0b                                 |    .           |                    end: 0xb (valid) 0x74-0x75 (1)
    |                                               |                |                  [1]{}: in 0x75-0x77 (2)
0x70|               20                              |                |                    opcode: "local.get" (0x20) 0x75-0x76 (1)
0x70|                  00                           |      .         |                    x: 0 (valid) 0x76-0x77 (1)
    |                                               |                |                  [2]{}: in 0x77-0x78 (1)
0x70|                     0f                        |       .        |                    opcode: "return" (0xf) 0x77-0x78 (1)
    |                                               |                |                  [3]{}: in 0x78-0x79 (1)
0x70|                        0b|                    |        .|      |                    opcode: "end" (0xb) 0x78-0x79 (1)
