$ fq -d wasm dv memory_trap-0.wasm
    |00 01 02 03 04 05 06 07 08 09 0a 0b 0c 0d 0e 0f|0123456789abcdef|.{}: memory_trap-0.wasm (wasm) 0x0-0x71 (113)
0x00|00 61 73 6d                                    |.asm            |  magic: raw bits (valid) 0x0-0x4 (4)
0x00|            01 00 00 00                        |    ....        |  version: 1 0x4-0x8 (4)
    |                                               |                |  sections[0:5]: 0x8-0x71 (105)
    |                                               |                |    [0]{}: section 0x8-0x19 (17)
0x00|                        01                     |        .       |      id: "type_section" (1) 0x8-0x9 (1)
0x00|                           0f                  |         .      |      size: 15 (valid) 0x9-0xa (1)
    |                                               |                |      content{}: 0xa-0x19 (15)
    |                                               |                |        ft{}: 0xa-0x19 (15)
0x00|                              03               |          .     |          n: 3 (valid) 0xa-0xb (1)
    |                                               |                |          x[0:3]: 0xb-0x19 (14)
    |                                               |                |            [0]{}: ft 0xb-0xf (4)
0x00|                                 60            |           `    |              tag: 0x60 (valid) 0xb-0xc (1)
    |                                               |                |              rt1{}: 0xc-0xd (1)
0x00|                                    00         |            .   |                n: 0 (valid) 0xc-0xd (1)
    |                                               |                |                x[0:0]: 0xd-0xd (0)
    |                                               |                |              rt2{}: 0xd-0xf (2)
0x00|                                       01      |             .  |                n: 1 (valid) 0xd-0xe (1)
    |                                               |                |                x[0:1]: 0xe-0xf (1)
0x00|                                          7f   |              . |                  [0]: "i32" (0x7f) t 0xe-0xf (1)
    |                                               |                |            [1]{}: ft 0xf-0x14 (5)
0x00|                                             60|               `|              tag: 0x60 (valid) 0xf-0x10 (1)
    |                                               |                |              rt1{}: 0x10-0x13 (3)
0x10|02                                             |.               |                n: 2 (valid) 0x10-0x11 (1)
    |                                               |                |                x[0:2]: 0x11-0x13 (2)
0x10|   7f                                          | .              |                  [0]: "i32" (0x7f) t 0x11-0x12 (1)
0x10|      7f                                       |  .             |                  [1]: "i32" (0x7f) t 0x12-0x13 (1)
    |                                               |                |              rt2{}: 0x13-0x14 (1)
0x10|         00                                    |   .            |                n: 0 (valid) 0x13-0x14 (1)
    |                                               |                |                x[0:0]: 0x14-0x14 (0)
    |                                               |                |            [2]{}: ft 0x14-0x19 (5)
0x10|            60                                 |    `           |              tag: 0x60 (valid) 0x14-0x15 (1)
    |                                               |                |              rt1{}: 0x15-0x17 (2)
0x10|               01                              |     .          |                n: 1 (valid) 0x15-0x16 (1)
    |                                               |                |                x[0:1]: 0x16-0x17 (1)
0x10|                  7f                           |      .         |                  [0]: "i32" (0x7f) t 0x16-0x17 (1)
    |                                               |                |              rt2{}: 0x17-0x19 (2)
0x10|                     01                        |       .        |                n: 1 (valid) 0x17-0x18 (1)
    |                                               |                |                x[0:1]: 0x18-0x19 (1)
0x10|                        7f                     |        .       |                  [0]: "i32" (0x7f) t 0x18-0x19 (1)
    |                                               |                |    [1]{}: section 0x19-0x20 (7)
0x10|                           03                  |         .      |      id: "function_section" (3) 0x19-0x1a (1)
0x10|                              05               |          .     |      size: 5 (valid) 0x1a-0x1b (1)
    |                                               |                |      content{}: 0x1b-0x20 (5)
    |                                               |                |        x{}: 0x1b-0x20 (5)
0x10|                                 04            |           .    |          n: 4 (valid) 0x1b-0x1c (1)
    |                                               |                |          x[0:4]: 0x1c-0x20 (4)
0x10|                                    00         |            .   |            [0]: 0 x (valid) 0x1c-0x1d (1)
0x10|                                       01      |             .  |            [1]: 1 x (valid) 0x1d-0x1e (1)
0x10|                                          02   |              . |            [2]: 2 x (valid) 0x1e-0x1f (1)
0x10|                                             02|               .|            [3]: 2 x (valid) 0x1f-0x20 (1)
    |                                               |                |    [2]{}: section 0x20-0x25 (5)
0x20|05                                             |.               |      id: "memory_section" (5) 0x20-0x21 (1)
0x20|   03                                          | .              |      size: 3 (valid) 0x21-0x22 (1)
    |                                               |                |      content{}: 0x22-0x25 (3)
    |                                               |                |        mem{}: 0x22-0x25 (3)
0x20|      01                                       |  .             |          n: 1 (valid) 0x22-0x23 (1)
    |                                               |                |          x[0:1]: 0x23-0x25 (2)
    |                                               |                |            [0]{}: mem 0x23-0x25 (2)
    |                                               |                |              lim{}: 0x23-0x25 (2)
0x20|         00                                    |   .            |                tag: 0x0 0x23-0x24 (1)
0x20|            01                                 |    .           |                n: 1 (valid) 0x24-0x25 (1)
    |                                               |                |    [3]{}: section 0x25-0x45 (32)
0x20|               07                              |     .          |      id: "export_section" (7) 0x25-0x26 (1)
0x20|                  1e                           |      .         |      size: 30 (valid) 0x26-0x27 (1)
    |                                               |                |      content{}: 0x27-0x45 (30)
    |                                               |                |        ex{}: 0x27-0x45 (30)
0x20|                     03                        |       .        |          n: 3 (valid) 0x27-0x28 (1)
    |                                               |                |          x[0:3]: 0x28-0x45 (29)
    |                                               |                |            [0]{}: ex 0x28-0x30 (8)
    |                                               |                |              nm{}: 0x28-0x2e (6)
0x20|                        05                     |        .       |                n: 5 (valid) 0x28-0x29 (1)
0x20|                           73 74 6f 72 65      |         store  |                b: "store" 0x29-0x2e (5)
    |                                               |                |              d{}: 0x2e-0x30 (2)
0x20|                                          00   |              . |                tag: "funcidx" (0x0) 0x2e-0x2f (1)
0x20|                                             01|               .|                x: 1 (valid) 0x2f-0x30 (1)
    |                                               |                |            [1]{}: ex 0x30-0x37 (7)
    |                                               |                |              nm{}: 0x30-0x35 (5)
0x30|04                                             |.               |                n: 4 (valid) 0x30-0x31 (1)
0x30|   6c 6f 61 64                                 | load           |                b: "load" 0x31-0x35 (4)
    |                                               |                |              d{}: 0x35-0x37 (2)
0x30|               00                              |     .          |                tag: "funcidx" (0x0) 0x35-0x36 (1)
0x30|                  02                           |      .         |                x: 2 (valid) 0x36-0x37 (1)
    |                                               |                |            [2]{}: ex 0x37-0x45 (14)
    |                                               |                |              nm{}: 0x37-0x43 (12)
0x30|                     0b                        |       .        |                n: 11 (valid) 0x37-0x38 (1)
0x30|                        6d 65 6d 6f 72 79 2e 67|        memory.g|                b: "memory.grow" 0x38-0x43 (11)
0x40|72 6f 77                                       |row             |
    |                                               |                |              d{}: 0x43-0x45 (2)
0x40|         00                                    |   .            |                tag: "funcidx" (0x0) 0x43-0x44 (1)
0x40|            03                                 |    .           |                x: 3 (valid) 0x44-0x45 (1)
    |                                               |                |    [4]{}: section 0x45-0x71 (44)
0x40|               0a                              |     .          |      id: "code_section" (10) 0x45-0x46 (1)
0x40|                  2a                           |      *         |      size: 42 (valid) 0x46-0x47 (1)
    |                                               |                |      content{}: 0x47-0x71 (42)
    |                                               |                |        code{}: 0x47-0x71 (42)
0x40|                     04                        |       .        |          n: 4 (valid) 0x47-0x48 (1)
    |                                               |                |          x[0:4]: 0x48-0x71 (41)
    |                                               |                |            [0]{}: code 0x48-0x52 (10)
0x40|                        09                     |        .       |              size: 9 (valid) 0x48-0x49 (1)
    |                                               |                |              code{}: 0x49-0x52 (9)
    |                                               |                |                t{}: 0x49-0x4a (1)
0x40|                           00                  |         .      |                  n: 0 (valid) 0x49-0x4a (1)
    |                                               |                |                  x[0:0]: 0x4a-0x4a (0)
    |                                               |                |                e[0:4]: 0x4a-0x52 (8)
    |                                               |                |                  [0]{}: in 0x4a-0x4c (2)
0x40|                              3f               |          ?     |                    opcode: "memory.size" (0x3f) 0x4a-0x4b (1)
0x40|                                 00            |           .    |                    reserved: 0x0 (valid) 0x4b-0x4c (1)
    |                                               |                |                  [1]{}: in 0x4c-0x50 (4)
0x40|                                    41         |            A   |                    opcode: "i32.const" (0x41) 0x4c-0x4d (1)
0x40|                                       80 80 04|             ...|                    n: 65536 (valid) 0x4d-0x50 (3)
    |                                               |                |                  [2]{}: in 0x50-0x51 (1)
0x50|6c                                             |l               |                    opcode: "i32.mul" (0x6c) 0x50-0x51 (1)
    |                                               |                |                  [3]{}: in 0x51-0x52 (1)
0x50|   0b                                          | .              |                    opcode: "end" (0xb) 0x51-0x52 (1)
    |                                               |                |            [1]{}: code 0x52-0x5f (13)
0x50|      0c                                       |  .             |              size: 12 (valid) 0x52-0x53 (1)
    |                                               |                |              code{}: 0x53-0x5f (12)
    |                                               |                |                t{}: 0x53-0x54 (1)
0x50|         00                                    |   .            |                  n: 0 (valid) 0x53-0x54 (1)
    |                                               |                |                  x[0:0]: 0x54-0x54 (0)
    |                                               |                |                e[0:6]: 0x54-0x5f (11)
    |                                               |                |                  [0]{}: in 0x54-0x56 (2)
0x50|            10                                 |    .           |                    opcode: "call" (0x10) 0x54-0x55 (1)
0x50|               00                              |     .          |                    x: 0 (valid) 0x55-0x56 (1)
    |                                               |                |                  [1]{}: in 0x56-0x58 (2)
0x50|                  20                           |                |                    opcode: "local.get" (0x20) 0x56-0x57 (1)
0x50|                     00                        |       .        |                    x: 0 (valid) 0x57-0x58 (1)
    |                                               |                |                  [2]{}: in 0x58-0x59 (1)
0x50|                        6a                     |        j       |                    opcode: "i32.add" (0x6a) 0x58-0x59 (1)
    |                                               |                |                  [3]{}: in 0x59-0x5b (2)
0x50|                           20                  |                |                    opcode: "local.get" (0x20) 0x59-0x5a (1)
0x50|                              01               |          .     |                    x: 1 (valid) 0x5a-0x5b (1)
    |                                               |                |                  [4]{}: in 0x5b-0x5e (3)
0x50|                                 36            |           6    |                    opcode: "i32.store" (0x36) 0x5b-0x5c (1)
    |                                               |                |                    m{}: 0x5c-0x5e (2)
0x50|                                    02         |            .   |                      a: 2 (valid) 0x5c-0x5d (1)
0x50|                                       00      |             .  |                      o: 0 (valid) 0x5d-0x5e (1)
    |                                               |                |                  [5]{}: in 0x5e-0x5f (1)
0x50|                                          0b   |              . |                    opcode: "end" (0xb) 0x5e-0x5f (1)
    |                                               |                |            [2]{}: code 0x5f-0x6a (11)
0x50|                                             0a|               .|              size: 10 (valid) 0x5f-0x60 (1)
    |                                               |                |              code{}: 0x60-0x6a (10)
    |                                               |                |                t{}: 0x60-0x61 (1)
0x60|00                                             |.               |                  n: 0 (valid) 0x60-0x61 (1)
    |                                               |                |                  x[0:0]: 0x61-0x61 (0)
    |                                               |                |                e[0:5]: 0x61-0x6a (9)
    |                                               |                |                  [0]{}: in 0x61-0x63 (2)
0x60|   10                                          | .              |                    opcode: "call" (0x10) 0x61-0x62 (1)
0x60|      00                                       |  .             |                    x: 0 (valid) 0x62-0x63 (1)
    |                                               |                |                  [1]{}: in 0x63-0x65 (2)
0x60|         20                                    |                |                    opcode: "local.get" (0x20) 0x63-0x64 (1)
0x60|            00                                 |    .           |                    x: 0 (valid) 0x64-0x65 (1)
    |                                               |                |                  [2]{}: in 0x65-0x66 (1)
0x60|               6a                              |     j          |                    opcode: "i32.add" (0x6a) 0x65-0x66 (1)
    |                                               |                |                  [3]{}: in 0x66-0x69 (3)
0x60|                  28                           |      (         |                    opcode: "i32.load" (0x28) 0x66-0x67 (1)
    |                                               |                |                    m{}: 0x67-0x69 (2)
0x60|                     02                        |       .        |                      a: 2 (valid) 0x67-0x68 (1)
0x60|                        00                     |        .       |                      o: 0 (valid) 0x68-0x69 (1)
    |                                               |                |                  [4]{}: in 0x69-0x6a (1)
0x60|                           0b                  |         .      |                    opcode: "end" (0xb) 0x69-0x6a (1)
    |                                               |                |            [3]{}: code 0x6a-0x71 (7)
0x60|                              06               |          .     |              size: 6 (valid) 0x6a-0x6b (1)
    |                                               |                |              code{}: 0x6b-0x71 (6)
    |                                               |                |                t{}: 0x6b-0x6c (1)
0x60|                                 00            |           .    |                  n: 0 (valid) 0x6b-0x6c (1)
    |                                               |                |                  x[0:0]: 0x6c-0x6c (0)
    |                                               |                |                e[0:3]: 0x6c-0x71 (5)
    |                                               |                |                  [0]{}: in 0x6c-0x6e (2)
0x60|                                    20         |                |                    opcode: "local.get" (0x20) 0x6c-0x6d (1)
0x60|                                       00      |             .  |                    x: 0 (valid) 0x6d-0x6e (1)
    |                                               |                |                  [1]{}: in 0x6e-0x70 (2)
0x60|                                          40   |              @ |                    opcode: "memory.grow" (0x40) 0x6e-0x6f (1)
0x60|                                             00|               .|                    reserved: 0x0 (valid) 0x6f-0x70 (1)
    |                                               |                |                  [2]{}: in 0x70-0x71 (1)
0x70|0b|                                            |.|              |                    opcode: "end" (0xb) 0x70-0x71 (1)
