$ fq -d wasm dv memory_trap-1.wasm
     |00 01 02 03 04 05 06 07 08 09 0a 0b 0c 0d 0e 0f|0123456789abcdef|.{}: memory_trap-1.wasm (wasm) 0x0-0x275 (629)
0x000|00 61 73 6d                                    |.asm            |  magic: raw bits (valid) 0x0-0x4 (4)
0x000|            01 00 00 00                        |    ....        |  version: 1 0x4-0x8 (4)
     |                                               |                |  sections[0:6]: 0x8-0x275 (621)
     |                                               |                |    [0]{}: section 0x8-0x33 (43)
0x000|                        01                     |        .       |      id: "type_section" (1) 0x8-0x9 (1)
0x000|                           29                  |         )      |      size: 41 (valid) 0x9-0xa (1)
     |                                               |                |      content{}: 0xa-0x33 (41)
     |                                               |                |        ft{}: 0xa-0x33 (41)
0x000|                              08               |          .     |          n: 8 (valid) 0xa-0xb (1)
     |                                               |                |          x[0:8]: 0xb-0x33 (40)
     |                                               |                |            [0]{}: ft 0xb-0x10 (5)
0x000|                                 60            |           `    |              tag: 0x60 (valid) 0xb-0xc (1)
     |                                               |                |              rt1{}: 0xc-0xe (2)
0x000|                                    01         |            .   |                n: 1 (valid) 0xc-0xd (1)
     |                                               |                |                x[0:1]: 0xd-0xe (1)
0x000|                                       7f      |             .  |                  [0]: "i32" (0x7f) t 0xd-0xe (1)
     |                                               |                |              rt2{}: 0xe-0x10 (2)
0x000|                                          01   |              . |                n: 1 (valid) 0xe-0xf (1)
     |                                               |                |                x[0:1]: 0xf-0x10 (1)
0x000|                                             7f|               .|                  [0]: "i32" (0x7f) t 0xf-0x10 (1)
     |                                               |                |            [1]{}: ft 0x10-0x15 (5)
0x010|60                                             |`               |              tag: 0x60 (valid) 0x10-0x11 (1)
     |                                               |                |              rt1{}: 0x11-0x13 (2)
0x010|   01                                          | .              |                n: 1 (valid) 0x11-0x12 (1)
     |                                               |                |                x[0:1]: 0x12-0x13 (1)
0x010|      7f                                       |  .             |                  [0]: "i32" (0x7f) t 0x12-0x13 (1)
     |                                               |                |              rt2{}: 0x13-0x15 (2)
0x010|         01                                    |   .            |                n: 1 (valid) 0x13-0x14 (1)
     |                                               |                |                x[0:1]: 0x14-0x15 (1)
0x010|            7e                                 |    ~           |                  [0]: "i64" (0x7e) t 0x14-0x15 (1)
     |                                               |                |            [2]{}: ft 0x15-0x1a (5)
0x010|               60                              |     `          |              tag: 0x60 (valid) 0x15-0x16 (1)
     |                                               |                |              rt1{}: 0x16-0x18 (2)
0x010|                  01                           |      .         |                n: 1 (valid) 0x16-0x17 (1)
     |                                               |                |                x[0:1]: 0x17-0x18 (1)
0x010|                     7f                        |       .        |                  [0]: "i32" (0x7f) t 0x17-0x18 (1)
     |                                               |                |              rt2{}: 0x18-0x1a (2)
0x010|                        01                     |        .       |                n: 1 (valid) 0x18-0x19 (1)
     |                                               |                |                x[0:1]: 0x19-0x1a (1)
0x010|                           7d                  |         }      |                  [0]: "f32" (0x7d) t 0x19-0x1a (1)
     |                                               |                |            [3]{}: ft 0x1a-0x1f (5)
0x010|                              60               |          `     |              tag: 0x60 (valid) 0x1a-0x1b (1)
     |                                               |                |              rt1{}: 0x1b-0x1d (2)
0x010|                                 01            |           .    |                n: 1 (valid) 0x1b-0x1c (1)
     |                                               |                |                x[0:1]: 0x1c-0x1d (1)
0x010|                                    7f         |            .   |                  [0]: "i32" (0x7f) t 0x1c-0x1d (1)
     |                                               |                |              rt2{}: 0x1d-0x1f (2)
0x010|                                       01      |             .  |                n: 1 (valid) 0x1d-0x1e (1)
     |                                               |                |                x[0:1]: 0x1e-0x1f (1)
0x010|                                          7c   |              | |                  [0]: "f64" (0x7c) t 0x1e-0x1f (1)
     |                                               |                |            [4]{}: ft 0x1f-0x24 (5)
0x010|                                             60|               `|              tag: 0x60 (valid) 0x1f-0x20 (1)
     |                                               |                |              rt1{}: 0x20-0x23 (3)
0x020|02                                             |.               |                n: 2 (valid) 0x20-0x21 (1)
     |                                               |                |                x[0:2]: 0x21-0x23 (2)
0x020|   7f                                          | .              |                  [0]: "i32" (0x7f) t 0x21-0x22 (1)
0x020|      7f                                       |  .             |                  [1]: "i32" (0x7f) t 0x22-0x23 (1)
     |                                               |                |              rt2{}: 0x23-0x24 (1)
0x020|         00                                    |   .            |                n: 0 (valid) 0x23-0x24 (1)
     |                                               |                |                x[0:0]: 0x24-0x24 (0)
     |                                               |                |            [5]{}: ft 0x24-0x29 (5)
0x020|            60                                 |    `           |              tag: 0x60 (valid) 0x24-0x25 (1)
     |                                               |                |              rt1{}: 0x25-0x28 (3)
0x020|               02                              |     .          |                n: 2 (valid) 0x25-0x26 (1)
     |                                               |                |                x[0:2]: 0x26-0x28 (2)
0x020|                  7f                           |      .         |                  [0]: "i32" (0x7f) t 0x26-0x27 (1)
0x020|                     7e                        |       ~        |                  [1]: "i64" (0x7e) t 0x27-0x28 (1)
     |                                               |                |              rt2{}: 0x28-0x29 (1)
0x020|                        00                     |        .       |                n: 0 (valid) 0x28-0x29 (1)
     |                                               |                |                x[0:0]: 0x29-0x29 (0)
     |                                               |                |            [6]{}: ft 0x29-0x2e (5)
0x020|                           60                  |         `      |              tag: 0x60 (valid) 0x29-0x2a (1)
     |                                               |                |              rt1{}: 0x2a-0x2d (3)
0x020|                              02               |          .     |                n: 2 (valid) 0x2a-0x2b (1)
     |                                               |                |                x[0:2]: 0x2b-0x2d (2)
0x020|                                 7f            |           .    |                  [0]: "i32" (0x7f) t 0x2b-0x2c (1)
0x020|                                    7d         |            }   |                  [1]: "f32" (0x7d) t 0x2c-0x2d (1)
     |                                               |                |              rt2{}: 0x2d-0x2e (1)
0x020|                                       00      |             .  |                n: 0 (valid) 0x2d-0x2e (1)
     |                                               |                |                x[0:0]: 0x2e-0x2e (0)
     |                                               |                |            [7]{}: ft 0x2e-0x33 (5)
0x020|                                          60   |              ` |              tag: 0x60 (valid) 0x2e-0x2f (1)
     |                                               |                |              rt1{}: 0x2f-0x32 (3)
0x020|                                             02|               .|                n: 2 (valid) 0x2f-0x30 (1)
     |                                               |                |                x[0:2]: 0x30-0x32 (2)
0x030|7f                                             |.               |                  [0]: "i32" (0x7f) t 0x30-0x31 (1)
0x030|   7c                                          | |              |                  [1]: "f64" (0x7c) t 0x31-0x32 (1)
     |                                               |                |              rt2{}: 0x32-0x33 (1)
0x030|      00                                       |  .             |                n: 0 (valid) 0x32-0x33 (1)
     |                                               |                |                x[0:0]: 0x33-0x33 (0)
     |                                               |                |    [1]{}: section 0x33-0x4d (26)
0x030|         03                                    |   .            |      id: "function_section" (3) 0x33-0x34 (1)
0x030|            18                                 |    .           |      size: 24 (valid) 0x34-0x35 (1)
     |                                               |                |      content{}: 0x35-0x4d (24)
     |                                               |                |        x{}: 0x35-0x4d (24)
0x030|               17                              |     .          |          n: 23 (valid) 0x35-0x36 (1)
     |                                               |                |          x[0:23]: 0x36-0x4d (23)
0x030|                  00                           |      .         |            [0]: 0 x (valid) 0x36-0x37 (1)
0x030|                     01                        |       .        |            [1]: 1 x (valid) 0x37-0x38 (1)
0x030|                        02                     |        .       |            [2]: 2 x (valid) 0x38-0x39 (1)
0x030|                           03                  |         .      |            [3]: 3 x (valid) 0x39-0x3a (1)
0x030|                              00               |          .     |            [4]: 0 x (valid) 0x3a-0x3b (1)
0x030|                                 00            |           .    |            [5]: 0 x (valid) 0x3b-0x3c (1)
0x030|                                    00         |            .   |            [6]: 0 x (valid) 0x3c-0x3d (1)
0x030|                                       00      |             .  |            [7]: 0 x (valid) 0x3d-0x3e (1)
0x030|                                          01   |              . |            [8]: 1 x (valid) 0x3e-0x3f (1)
0x030|                                             01|               .|            [9]: 1 x (valid) 0x3f-0x40 (1)
0x040|01                                             |.               |            [10]: 1 x (valid) 0x40-0x41 (1)
0x040|   01                                          | .              |            [11]: 1 x (valid) 0x41-0x42 (1)
0x040|      01                                       |  .             |            [12]: 1 x (valid) 0x42-0x43 (1)
0x040|         01                                    |   .            |            [13]: 1 x (valid) 0x43-0x44 (1)
0x040|            04                                 |    .           |            [14]: 4 x (valid) 0x44-0x45 (1)
0x040|               05                              |     .          |            [15]: 5 x (valid) 0x45-0x46 (1)
0x040|                  06                           |      .         |            [16]: 6 x (valid) 0x46-0x47 (1)
0x040|                     07                        |       .        |            [17]: 7 x (valid) 0x47-0x48 (1)
0x040|                        04                     |        .       |            [18]: 4 x (valid) 0x48-0x49 (1)
0x040|                           04                  |         .      |            [19]: 4 x (valid) 0x49-0x4a (1)
0x040|                              05               |          .     |            [20]: 5 x (valid) 0x4a-0x4b (1)
0x040|                                 05            |           .    |            [21]: 5 x (valid) 0x4b-0x4c (1)
0x040|                                    05         |            .   |            [22]: 5 x (valid) 0x4c-0x4d (1)
     |                                               |                |    [2]{}: section 0x4d-0x52 (5)
0x040|                                       05      |             .  |      id: "memory_section" (5) 0x4d-0x4e (1)
0x040|                                          03   |              . |      size: 3 (valid) 0x4e-0x4f (1)
     |                                               |                |      content{}: 0x4f-0x52 (3)
     |                                               |                |        mem{}: 0x4f-0x52 (3)
0x040|                                             01|               .|          n: 1 (valid) 0x4f-0x50 (1)
     |                                               |                |          x[0:1]: 0x50-0x52 (2)
     |                                               |                |            [0]{}: mem 0x50-0x52 (2)
     |                                               |                |              lim{}: 0x50-0x52 (2)
0x050|00                                             |.               |                tag: 0x0 0x50-0x51 (1)
0x050|   01                                          | .              |                n: 1 (valid) 0x51-0x52 (1)
     |                                               |                |    [3]{}: section 0x52-0x188 (310)
0x050|      07                                       |  .             |      id: "export_section" (7) 0x52-0x53 (1)
0x050|         b3 02                                 |   ..           |      size: 307 (valid) 0x53-0x55 (2)
     |                                               |                |      content{}: 0x55-0x188 (307)
     |                                               |                |        ex{}: 0x55-0x188 (307)
0x050|               17                              |     .          |          n: 23 (valid) 0x55-0x56 (1)
     |                                               |                |          x[0:23]: 0x56-0x188 (306)
     |                                               |                |            [0]{}: ex 0x56-0x61 (11)
     |                                               |                |              nm{}: 0x56-0x5f (9)
0x050|                  08                           |      .         |                n: 8 (valid) 0x56-0x57 (1)
0x050|                     69 33 32 2e 6c 6f 61 64   |       i32.load |                b: "i32.load" 0x57-0x5f (8)
     |                                               |                |              d{}: 0x5f-0x61 (2)
0x050|                                             00|               .|                tag: "funcidx" (0x0) 0x5f-0x60 (1)
0x060|00                                             |.               |                x: 0 (valid) 0x60-0x61 (1)
     |                                               |                |            [1]{}: ex 0x61-0x6c (11)
     |                                               |                |              nm{}: 0x61-0x6a (9)
0x060|   08                                          | .              |                n: 8 (valid) 0x61-0x62 (1)
0x060|      69 36 34 2e 6c 6f 61 64                  |  i64.load      |                b: "i64.load" 0x62-0x6a (8)
     |                                               |                |              d{}: 0x6a-0x6c (2)
0x060|                              00               |          .     |                tag: "funcidx" (0x0) 0x6a-0x6b (1)
0x060|                                 01            |           .    |                x: 1 (valid) 0x6b-0x6c (1)
     |                                               |                |            [2]{}: ex 0x6c-0x77 (11)
     |                                               |                |              nm{}: 0x6c-0x75 (9)
0x060|                                    08         |            .   |                n: 8 (valid) 0x6c-0x6d (1)
0x060|                                       66 33 32|             f32|                b: "f32.load" 0x6d-0x75 (8)
0x070|2e 6c 6f 61 64                                 |.load           |
     |                                               |                |              d{}: 0x75-0x77 (2)
0x070|               00                              |     .          |                tag: "funcidx" (0x0) 0x75-0x76 (1)
0x070|                  02                           |      .         |                x: 2 (valid) 0x76-0x77 (1)
     |                                               |                |            [3]{}: ex 0x77-0x82 (11)
     |                                               |                |              nm{}: 0x77-0x80 (9)
0x070|                     08                        |       .        |                n: 8 (valid) 0x77-0x78 (1)
0x070|                        66 36 34 2e 6c 6f 61 64|        f64.load|                b: "f64.load" 0x78-0x80 (8)
     |                                               |                |              d{}: 0x80-0x82 (2)
0x080|00                                             |.               |                tag: "funcidx" (0x0) 0x80-0x81 (1)
0x080|   03                                          | .              |                x: 3 (valid) 0x81-0x82 (1)
     |                                               |                |            [4]{}: ex 0x82-0x90 (14)
     |                                               |                |              nm{}: 0x82-0x8e (12)
0x080|      0b                                       |  .             |                n: 11 (valid) 0x82-0x83 (1)
0x080|         69 33 32 2e 6c 6f 61 64 38 5f 73      |   i32.load8_s  |                b: "i32.load8_s" 0x83-0x8e (11)
     |                                               |                |              d{}: 0x8e-0x90 (2)
0x080|                                          00   |              . |                tag: "funcidx" (0x0) 0x8e-0x8f (1)
0x080|                                             04|               .|                x: 4 (valid) 0x8f-0x90 (1)
     |                                               |                |            [5]{}: ex 0x90-0x9e (14)
     |                                               |                |              nm{}: 0x90-0x9c (12)
0x090|0b                                             |.               |                n: 11 (valid) 0x90-0x91 (1)
0x090|   69 33 32 2e 6c 6f 61 64 38 5f 75            | i32.load8_u    |                b: "i32.load8_u" 0x91-0x9c (11)
     |                                               |                |              d{}: 0x9c-0x9e (2)
0x090|                                    00         |            .   |                tag: "funcidx" (0x0) 0x9c-0x9d (1)
0x090|                                       05      |             .  |                x: 5 (valid) 0x9d-0x9e (1)
     |                                               |                |            [6]{}: ex 0x9e-0xad (15)
     |                                               |                |              nm{}: 0x9e-0xab (13)
0x090|                                          0c   |              . |                n: 12 (valid) 0x9e-0x9f (1)
0x090|                                             69|               i|                b: "i32.load16_s" 0x9f-0xab (12)
0x0a0|33 32 2e 6c 6f 61 64 31 36 5f 73               |32.load16_s     |
     |                                               |                |              d{}: 0xab-0xad (2)
0x0a0|                                 00            |           .    |                tag: "funcidx" (0x0) 0xab-0xac (1)
0x0a0|                                    06         |            .   |                x: 6 (valid) 0xac-0xad (1)
     |                                               |                |            [7]{}: ex 0xad-0xbc (15)
     |                                               |                |              nm{}: 0xad-0xba (13)
0x0a0|                                       0c      |             .  |                n: 12 (valid) 0xad-0xae (1)
0x0a0|                                          69 33|              i3|                b: "i32.load16_u" 0xae-0xba (12)
0x0b0|32 2e 6c 6f 61 64 31 36 5f 75                  |2.load16_u      |
     |                                               |                |              d{}: 0xba-0xbc (2)
0x0b0|                              00               |          .     |                tag: "funcidx" (0x0) 0xba-0xbb (1)
0x0b0|                                 07            |           .    |                x: 7 (valid) 0xbb-0xbc (1)
     |                                               |                |            [8]{}: ex 0xbc-0xca (14)
     |                                               |                |              nm{}: 0xbc-0xc8 (12)
0x0b0|                                    0b         |            .   |                n: 11 (valid) 0xbc-0xbd (1)
0x0b0|                                       69 36 34|             i64|                b: "i64.load8_s" 0xbd-0xc8 (11)
0x0c0|2e 6c 6f 61 64 38 5f 73                        |.load8_s        |
     |                                               |                |              d{}: 0xc8-0xca (2)
0x0c0|                        00                     |        .       |                tag: "funcidx" (0x0) 0xc8-0xc9 (1)
0x0c0|                           08                  |         .      |                x: 8 (valid) 0xc9-0xca (1)
     |                                               |                |            [9]{}: ex 0xca-0xd8 (14)
     |                                               |                |              nm{}: 0xca-0xd6 (12)
0x0c0|                              0b               |          .     |                n: 11 (valid) 0xca-0xcb (1)
0x0c0|                                 69 36 34 2e 6c|           i64.l|                b: "i64.load8_u" 0xcb-0xd6 (11)
0x0d0|6f 61 64 38 5f 75                              |oad8_u          |
     |                                               |                |              d{}: 0xd6-0xd8 (2)
0x0d0|                  00                           |      .         |                tag: "funcidx" (0x0) 0xd6-0xd7 (1)
0x0d0|                     09                        |       .        |                x: 9 (valid) 0xd7-0xd8 (1)
     |                                               |                |            [10]{}: ex 0xd8-0xe7 (15)
     |                                               |                |              nm{}: 0xd8-0xe5 (13)
0x0d0|                        0c                     |        .       |                n: 12 (valid) 0xd8-0xd9 (1)
0x0d0|                           69 36 34 2e 6c 6f 61|         i64.loa|                b: "i64.load16_s" 0xd9-0xe5 (12)
0x0e0|64 31 36 5f 73                                 |d16_s           |
     |                                               |                |              d{}: 0xe5-0xe7 (2)
0x0e0|               00                              |     .          |                tag: "funcidx" (0x0) 0xe5-0xe6 (1)
0x0e0|                  0a                           |      .         |                x: 10 (valid) 0xe6-0xe7 (1)
     |                                               |                |            [11]{}: ex 0xe7-0xf6 (15)
     |                                               |                |              nm{}: 0xe7-0xf4 (13)
0x0e0|                     0c                        |       .        |                n: 12 (valid) 0xe7-0xe8 (1)
0x0e0|                        69 36 34 2e 6c 6f 61 64|        i64.load|                b: "i64.load16_u" 0xe8-0xf4 (12)
0x0f0|31 36 5f 75                                    |16_u            |
     |                                               |                |              d{}: 0xf4-0xf6 (2)
0x0f0|            00                                 |    .           |                tag: "funcidx" (0x0) 0xf4-0xf5 (1)
0x0f0|               0b                              |     .          |                x: 11 (valid) 0xf5-0xf6 (1)
     |                                               |                |            [12]{}: ex 0xf6-0x105 (15)
     |                                               |                |              nm{}: 0xf6-0x103 (13)
0x0f0|                  0c                           |      .         |                n: 12 (valid) 0xf6-0xf7 (1)
0x0f0|                     69 36 34 2e 6c 6f 61 64 33|       i64.load3|                b: "i64.load32_s" 0xf7-0x103 (12)
0x100|32 5f 73                                       |2_s             |
     |                                               |                |              d{}: 0x103-0x105 (2)
0x100|         00                                    |   .            |                tag: "funcidx" (0x0) 0x103-0x104 (1)
0x100|            0c                                 |    .           |                x: 12 (valid) 0x104-0x105 (1)
     |                                               |                |            [13]{}: ex 0x105-0x114 (15)
     |                                               |                |              nm{}: 0x105-0x112 (13)
0x100|               0c                              |     .          |                n: 12 (valid) 0x105-0x106 (1)
0x100|                  69 36 34 2e 6c 6f 61 64 33 32|      i64.load32|                b: "i64.load32_u" 0x106-0x112 (12)
0x110|5f 75                                          |_u              |
     |                                               |                |              d{}: 0x112-0x114 (2)
0x110|      00                                       |  .             |                tag: "funcidx" (0x0) 0x112-0x113 (1)
0x110|         0d                                    |   .            |                x: 13 (valid) 0x113-0x114 (1)
     |                                               |                |            [14]{}: ex 0x114-0x120 (12)
     |                                               |                |              nm{}: 0x114-0x11e (10)
0x110|            09                                 |    .           |                n: 9 (valid) 0x114-0x115 (1)
0x110|               69 33 32 2e 73 74 6f 72 65      |     i32.store  |                b: "i32.store" 0x115-0x11e (9)
     |                                               |                |              d{}: 0x11e-0x120 (2)
0x110|                                          00   |              . |                tag: "funcidx" (0x0) 0x11e-0x11f (1)
0x110|                                             0e|               .|                x: 14 (valid) 0x11f-0x120 (1)
     |                                               |                |            [15]{}: ex 0x120-0x12c (12)
     |                                               |                |              nm{}: 0x120-0x12a (10)
0x120|09                                             |.               |                n: 9 (valid) 0x120-0x121 (1)
0x120|   69 36 34 2e 73 74 6f 72 65                  | i64.store      |                b: "i64.store" 0x121-0x12a (9)
     |                                               |                |              d{}: 0x12a-0x12c (2)
0x120|                              00               |          .     |                tag: "funcidx" (0x0) 0x12a-0x12b (1)
0x120|                                 0f            |           .    |                x: 15 (valid) 0x12b-0x12c (1)
     |                                               |                |            [16]{}: ex 0x12c-0x138 (12)
     |                                               |                |              nm{}: 0x12c-0x136 (10)
0x120|                                    09         |            .   |                n: 9 (valid) 0x12c-0x12d (1)
0x120|                                       66 33 32|             f32|                b: "f32.store" 0x12d-0x136 (9)
0x130|2e 73 74 6f 72 65                              |.store          |
     |                                               |                |              d{}: 0x136-0x138 (2)
0x130|                  00                           |      .         |                tag: "funcidx" (0x0) 0x136-0x137 (1)
0x130|                     10                        |       .        |                x: 16 (valid) 0x137-0x138 (1)
     |                                               |                |            [17]{}: ex 0x138-0x144 (12)
     |                                               |                |              nm{}: 0x138-0x142 (10)
0x130|                        09                     |        .       |                n: 9 (valid) 0x138-0x139 (1)
0x130|                           66 36 34 2e 73 74 6f|         f64.sto|                b: "f64.store" 0x139-0x142 (9)
0x140|72 65                                          |re              |
     |                                               |                |              d{}: 0x142-0x144 (2)
0x140|      00                                       |  .             |                tag: "funcidx" (0x0) 0x142-0x143 (1)
0x140|         11                                    |   .            |                x: 17 (valid) 0x143-0x144 (1)
     |                                               |                |            [18]{}: ex 0x144-0x151 (13)
     |                                               |                |              nm{}: 0x144-0x14f (11)
0x140|            0a                                 |    .           |                n: 10 (valid) 0x144-0x145 (1)
0x140|               69 33 32 2e 73 74 6f 72 65 38   |     i32.store8 |                b: "i32.store8" 0x145-0x14f (10)
     |                                               |                |              d{}: 0x14f-0x151 (2)
0x140|                                             00|               .|                tag: "funcidx" (0x0) 0x14f-0x150 (1)
0x150|12                                             |.               |                x: 18 (valid) 0x150-0x151 (1)
     |                                               |                |            [19]{}: ex 0x151-0x15f (14)
     |                                               |                |              nm{}: 0x151-0x15d (12)
0x150|   0b                                          | .              |                n: 11 (valid) 0x151-0x152 (1)
0x150|      69 33 32 2e 73 74 6f 72 65 31 36         |  i32.store16   |                b: "i32.store16" 0x152-0x15d (11)
     |                                               |                |              d{}: 0x15d-0x15f (2)
0x150|                                       00      |             .  |                tag: "funcidx" (0x0) 0x15d-0x15e (1)
0x150|                                          13   |              . |                x: 19 (valid) 0x15e-0x15f (1)
     |                                               |                |            [20]{}: ex 0x15f-0x16c (13)
     |                                               |                |              nm{}: 0x15f-0x16a (11)
0x150|                                             0a|               .|                n: 10 (valid) 0x15f-0x160 (1)
0x160|69 36 34 2e 73 74 6f 72 65 38                  |i64.store8      |                b: "i64.store8" 0x160-0x16a (10)
     |                                               |                |              d{}: 0x16a-0x16c (2)
0x160|                              00               |          .     |                tag: "funcidx" (0x0) 0x16a-0x16b (1)
0x160|                                 14            |           .    |                x: 20 (valid) 0x16b-0x16c (1)
     |                                               |                |            [21]{}: ex 0x16c-0x17a (14)
     |                                               |                |              nm{}: 0x16c-0x178 (12)
0x160|                                    0b         |            .   |                n: 11 (valid) 0x16c-0x16d (1)
0x160|                                       69 36 34|             i64|                b: "i64.store16" 0x16d-0x178 (11)
0x170|2e 73 74 6f 72 65 31 36                        |.store16        |
     |                                               |                |              d{}: 0x178-0x17a (2)
0x170|                        00                     |        .       |                tag: "funcidx" (0x0) 0x178-0x179 (1)
0x170|                           15                  |         .      |                x: 21 (valid) 0x179-0x17a (1)
     |                                               |                |            [22]{}: ex 0x17a-0x188 (14)
     |                                               |                |              nm{}: 0x17a-0x186 (12)
0x170|                              0b               |          .     |                n: 11 (valid) 0x17a-0x17b (1)
0x170|                                 69 36 34 2e 73|           i64.s|                b: "i64.store32" 0x17b-0x186 (11)
0x180|74 6f 72 65 33 32                              |tore32          |
     |                                               |                |              d{}: 0x186-0x188 (2)
0x180|                  00                           |      .         |                tag: "funcidx" (0x0) 0x186-0x187 (1)
0x180|                     16                        |       .        |                x: 22 (valid) 0x187-0x188 (1)
     |                                               |                |    [4]{}: section 0x188-0x256 (206)
0x180|                        0a                     |        .       |      id: "code_section" (10) 0x188-0x189 (1)
0x180|                           cb 01               |         ..     |      size: 203 (valid) 0x189-0x18b (2)
     |                                               |                |      content{}: 0x18b-0x256 (203)
     |                                               |                |        code{}: 0x18b-0x256 (203)
0x180|                                 17            |           .    |          n: 23 (valid) 0x18b-0x18c (1)
     |                                               |                |          x[0:23]: 0x18c-0x256 (202)
     |                                               |                |            [0]{}: code 0x18c-0x194 (8)
0x180|                                    07         |            .   |              size: 7 (valid) 0x18c-0x18d (1)
     |                                               |                |              code{}: 0x18d-0x194 (7)
     |                                               |                |                t{}: 0x18d-0x18e (1)
0x180|                                       00      |             .  |                  n: 0 (valid) 0x18d-0x18e (1)
     |                                               |                |                  x[0:0]: 0x18e-0x18e (0)
     |                                               |                |                e[0:3]: 0x18e-0x194 (6)
     |                                               |                |                  [0]{}: in 0x18e-0x190 (2)
0x180|                                          20   |                |                    opcode: "local.get" (0x20) 0x18e-0x18f (1)
0x180|                                             00|               .|                    x: 0 (valid) 0x18f-0x190 (1)
     |                                               |                |                  [1]{}: in 0x190-0x193 (3)
0x190|28                                             |(               |                    opcode: "i32.load" (0x28) 0x190-0x191 (1)
     |                                               |                |                    m{}: 0x191-0x193 (2)
0x190|   02                                          | .              |                      a: 2 (valid) 0x191-0x192 (1)
0x190|      00                                       |  .             |                      o: 0 (valid) 0x192-0x193 (1)
     |                                               |                |                  [2]{}: in 0x193-0x194 (1)
0x190|         0b                                    |   .            |                    opcode: "end" (0xb) 0x193-0x194 (1)
     |                                               |                |            [1]{}: code 0x194-0x19c (8)
0x190|            07                                 |    .           |              size: 7 (valid) 0x194-0x195 (1)
     |                                               |                |              code{}: 0x195-0x19c (7)
     |                                               |                |                t{}: 0x195-0x196 (1)
0x190|               00                              |     .          |                  n: 0 (valid) 0x195-0x196 (1)
     |                                               |                |                  x[0:0]: 0x196-0x196 (0)
     |                                               |                |                e[0:3]: 0x196-0x19c (6)
     |                                               |                |                  [0]{}: in 0x196-0x198 (2)
0x190|                  20                           |                |                    opcode: "local.get" (0x20) 0x196-0x197 (1)
0x190|                     00                        |       .        |                    x: 0 (valid) 0x197-0x198 (1)
     |                                               |                |                  [1]{}: in 0x198-0x19b (3)
0x190|                        29                     |        )       |                    opcode: "i64.load" (0x29) 0x198-0x199 (1)
     |                                               |                |                    m{}: 0x199-0x19b (2)
0x190|                           03                  |         .      |                      a: 3 (valid) 0x199-0x19a (1)
0x190|                              00               |          .     |                      o: 0 (valid) 0x19a-0x19b (1)
     |                                               |                |                  [2]{}: in 0x19b-0x19c (1)
0x190|                                 0b            |           .    |                    opcode: "end" (0xb) 0x19b-0x19c (1)
     |                                               |                |            [2]{}: code 0x19c-0x1a4 (8)
0x190|                                    07         |            .   |              size: 7 (valid) 0x19c-0x19d (1)
     |                                               |                |              code{}: 0x19d-0x1a4 (7)
     |                                               |                |                t{}: 0x19d-0x19e (1)
0x190|                                       00      |             .  |                  n: 0 (valid) 0x19d-0x19e (1)
     |                                               |                |                  x[0:0]: 0x19e-0x19e (0)
     |                                               |                |                e[0:3]: 0x19e-0x1a4 (6)
     |                                               |                |                  [0]{}: in 0x19e-0x1a0 (2)
0x190|                                          20   |                |                    opcode: "local.get" (0x20) 0x19e-0x19f (1)
0x190|                                             00|               .|                    x: 0 (valid) 0x19f-0x1a0 (1)
     |                                               |                |                  [1]{}: in 0x1a0-0x1a3 (3)
0x1a0|2a                                             |*               |                    opcode: "f32.load" (0x2a) 0x1a0-0x1a1 (1)
     |                                               |                |                    m{}: 0x1a1-0x1a3 (2)
0x1a0|   02                                          | .              |                      a: 2 (valid) 0x1a1-0x1a2 (1)
0x1a0|      00                                       |  .             |                      o: 0 (valid) 0x1a2-0x1a3 (1)
     |                                               |                |                  [2]{}: in 0x1a3-0x1a4 (1)
0x1a0|         0b                                    |   .            |                    opcode: "end" (0xb) 0x1a3-0x1a4 (1)
     |                                               |                |            [3]{}: code 0x1a4-0x1ac (8)
0x1a0|            07                                 |    .           |              size: 7 (valid) 0x1a4-0x1a5 (1)
     |                                               |                |              code{}: 0x1a5-0x1ac (7)
     |                                               |                |                t{}: 0x1a5-0x1a6 (1)
0x1a0|               00                              |     .          |                  n: 0 (valid) 0x1a5-0x1a6 (1)
     |                                               |                |                  x[0:0]: 0x1a6-0x1a6 (0)
     |                                               |                |                e[0:3]: 0x1a6-0x1ac (6)
     |                                               |                |                  [0]{}: in 0x1a6-0x1a8 (2)
0x1a0|                  20                           |                |                    opcode: "local.get" (0x20) 0x1a6-0x1a7 (1)
0x1a0|                     00                        |       .        |                    x: 0 (valid) 0x1a7-0x1a8 (1)
     |                                               |                |                  [1]{}: in 0x1a8-0x1ab (3)
0x1a0|                        2b                     |        +       |                    opcode: "f64.load" (0x2b) 0x1a8-0x1a9 (1)
     |                                               |                |                    m{}: 0x1a9-0x1ab (2)
0x1a0|                           03                  |         .      |                      a: 3 (valid) 0x1a9-0x1aa (1)
0x1a0|                              00               |          .     |                      o: 0 (valid) 0x1aa-0x1ab (1)
     |                                               |                |                  [2]{}: in 0x1ab-0x1ac (1)
0x1a0|                                 0b            |           .    |                    opcode: "end" (0xb) 0x1ab-0x1ac (1)
     |                                               |                |            [4]{}: code 0x1ac-0x1b4 (8)
0x1a0|                                    07         |            .   |              size: 7 (valid) 0x1ac-0x1ad (1)
     |                                               |                |              code{}: 0x1ad-0x1b4 (7)
     |                                               |                |                t{}: 0x1ad-0x1ae (1)
0x1a0|                                       00      |             .  |                  n: 0 (valid) 0x1ad-0x1ae (1)
     |                                               |                |                  x[0:0]: 0x1ae-0x1ae (0)
     |                                               |                |                e[0:3]: 0x1ae-0x1b4 (6)
     |                                               |                |                  [0]{}: in 0x1ae-0x1b0 (2)
0x1a0|                                          20   |                |                    opcode: "local.get" (0x20) 0x1ae-0x1af (1)
0x1a0|                                             00|               .|                    x: 0 (valid) 0x1af-0x1b0 (1)
     |                                               |                |                  [1]{}: in 0x1b0-0x1b3 (3)
0x1b0|2c                                             |,               |                    opcode: "i32.load8_s" (0x2c) 0x1b0-0x1b1 (1)
     |                                               |                |                    m{}: 0x1b1-0x1b3 (2)
0x1b0|   00                                          | .              |                      a: 0 (valid) 0x1b1-0x1b2 (1)
0x1b0|      00                                       |  .             |                      o: 0 (valid) 0x1b2-0x1b3 (1)
     |                                               |                |                  [2]{}: in 0x1b3-0x1b4 (1)
0x1b0|         0b                                    |   .            |                    opcode: "end" (0xb) 0x1b3-0x1b4 (1)
     |                                               |                |            [5]{}: code 0x1b4-0x1bc (8)
0x1b0|            07                                 |    .           |              size: 7 (valid) 0x1b4-0x1b5 (1)
     |                                               |                |              code{}: 0x1b5-0x1bc (7)
     |                                               |                |                t{}: 0x1b5-0x1b6 (1)
0x1b0|               00                              |     .          |                  n: 0 (valid) 0x1b5-0x1b6 (1)
     |                                               |                |                  x[0:0]: 0x1b6-0x1b6 (0)
     |                                               |                |                e[0:3]: 0x1b6-0x1bc (6)
     |                                               |                |                  [0]{}: in 0x1b6-0x1b8 (2)
0x1b0|                  20                           |                |                    opcode: "local.get" (0x20) 0x1b6-0x1b7 (1)
0x1b0|                     00                        |       .        |                    x: 0 (valid) 0x1b7-0x1b8 (1)
     |                                               |                |                  [1]{}: in 0x1b8-0x1bb (3)
0x1b0|                        2d                     |        -       |                    opcode: "i32.load8_u" (0x2d) 0x1b8-0x1b9 (1)
     |                                               |                |                    m{}: 0x1b9-0x1bb (2)
0x1b0|                           00                  |         .      |                      a: 0 (valid) 0x1b9-0x1ba (1)
0x1b0|                              00               |          .     |                      o: 0 (valid) 0x1ba-0x1bb (1)
     |                                               |                |                  [2]{}: in 0x1bb-0x1bc (1)
0x1b0|                                 0b            |           .    |                    opcode: "end" (0xb) 0x1bb-0x1bc (1)
     |                                               |                |            [6]{}: code 0x1bc-0x1c4 (8)
0x1b0|                                    07         |            .   |              size: 7 (valid) 0x1bc-0x1bd (1)
     |                                               |                |              code{}: 0x1bd-0x1c4 (7)
     |                                               |                |                t{}: 0x1bd-0x1be (1)
0x1b0|                                       00      |             .  |                  n: 0 (valid) 0x1bd-0x1be (1)
     |                                               |                |                  x[0:0]: 0x1be-0x1be (0)
     |                                               |                |                e[0:3]: 0x1be-0x1c4 (6)
     |                                               |                |                  [0]{}: in 0x1be-0x1c0 (2)
0x1b0|                                          20   |                |                    opcode: "local.get" (0x20) 0x1be-0x1bf (1)
0x1b0|                                             00|               .|                    x: 0 (valid) 0x1bf-0x1c0 (1)
     |                                               |                |                  [1]{}: in 0x1c0-0x1c3 (3)
0x1c0|2e                                             |.               |                    opcode: "i32.load16_s" (0x2e) 0x1c0-0x1c1 (1)
     |                                               |                |                    m{}: 0x1c1-0x1c3 (2)
0x1c0|   01                                          | .              |                      a: 1 (valid) 0x1c1-0x1c2 (1)
0x1c0|      00                                       |  .             |                      o: 0 (valid) 0x1c2-0x1c3 (1)
     |                                               |                |                  [2]{}: in 0x1c3-0x1c4 (1)
0x1c0|         0b                                    |   .            |                    opcode: "end" (0xb) 0x1c3-0x1c4 (1)
     |                                               |                |            [7]{}: code 0x1c4-0x1cc (8)
0x1c0|            07                                 |    .           |              size: 7 (valid) 0x1c4-0x1c5 (1)
     |                                               |                |              code{}: 0x1c5-0x1cc (7)
     |                                               |                |                t{}: 0x1c5-0x1c6 (1)
0x1c0|               00                              |     .          |                  n: 0 (valid) 0x1c5-0x1c6 (1)
     |                                               |                |                  x[0:0]: 0x1c6-0x1c6 (0)
     |                                               |                |                e[0:3]: 0x1c6-0x1cc (6)
     |                                               |                |                  [0]{}: in 0x1c6-0x1c8 (2)
0x1c0|                  20                           |                |                    opcode: "local.get" (0x20) 0x1c6-0x1c7 (1)
0x1c0|                     00                        |       .        |                    x: 0 (valid) 0x1c7-0x1c8 (1)
     |                                               |                |                  [1]{}: in 0x1c8-0x1cb (3)
0x1c0|                        2f                     |        /       |                    opcode: "i32.load16_u" (0x2f) 0x1c8-0x1c9 (1)
     |                                               |                |                    m{}: 0x1c9-0x1cb (2)
0x1c0|                           01                  |         .      |                      a: 1 (valid) 0x1c9-0x1ca (1)
0x1c0|                              00               |          .     |                      o: 0 (valid) 0x1ca-0x1cb (1)
     |                                               |                |                  [2]{}: in 0x1cb-0x1cc (1)
0x1c0|                                 0b            |           .    |                    opcode: "end" (0xb) 0x1cb-0x1cc (1)
     |                                               |                |            [8]{}: code 0x1cc-0x1d4 (8)
0x1c0|                                    07         |            .   |              size: 7 (valid) 0x1cc-0x1cd (1)
     |                                               |                |              code{}: 0x1cd-0x1d4 (7)
     |                                               |                |                t{}: 0x1cd-0x1ce (1)
0x1c0|                                       00      |             .  |                  n: 0 (valid) 0x1cd-0x1ce (1)
     |                                               |                |                  x[0:0]: 0x1ce-0x1ce (0)
     |                                               |                |                e[0:3]: 0x1ce-0x1d4 (6)
     |                                               |                |                  [0]{}: in 0x1ce-0x1d0 (2)
0x1c0|                                          20   |                |                    opcode: "local.get" (0x20) 0x1ce-0x1cf (1)
0x1c0|                                             00|               .|                    x: 0 (valid) 0x1cf-0x1d0 (1)
     |                                               |                |                  [1]{}: in 0x1d0-0x1d3 (3)
0x1d0|30                                             |0               |                    opcode: "i64.load8_s" (0x30) 0x1d0-0x1d1 (1)
     |                                               |                |                    m{}: 0x1d1-0x1d3 (2)
0x1d0|   00                                          | .              |                      a: 0 (valid) 0x1d1-0x1d2 (1)
0x1d0|      00                                       |  .             |                      o: 0 (valid) 0x1d2-0x1d3 (1)
     |                                               |                |                  [2]{}: in 0x1d3-0x1d4 (1)
0x1d0|         0b                                    |   .            |                    opcode: "end" (0xb) 0x1d3-0x1d4 (1)
     |                                               |                |            [9]{}: code 0x1d4-0x1dc (8)
0x1d0|            07                                 |    .           |              size: 7 (valid) 0x1d4-0x1d5 (1)
     |                                               |                |              code{}: 0x1d5-0x1dc (7)
     |                                               |                |                t{}: 0x1d5-0x1d6 (1)
0x1d0|               00                              |     .          |                  n: 0 (valid) 0x1d5-0x1d6 (1)
     |                                               |                |                  x[0:0]: 0x1d6-0x1d6 (0)
     |                                               |                |                e[0:3]: 0x1d6-0x1dc (6)
     |                                               |                |                  [0]{}: in 0x1d6-0x1d8 (2)
0x1d0|                  20                           |                |                    opcode: "local.get" (0x20) 0x1d6-0x1d7 (1)
0x1d0|                     00                        |       .        |                    x: 0 (valid) 0x1d7-0x1d8 (1)
     |                                               |                |                  [1]{}: in 0x1d8-0x1db (3)
0x1d0|                        31                     |        1       |                    opcode: "i64.load8_u" (0x31) 0x1d8-0x1d9 (1)
     |                                               |                |                    m{}: 0x1d9-0x1db (2)
0x1d0|                           00                  |         .      |                      a: 0 (valid) 0x1d9-0x1da (1)
0x1d0|                              00               |          .     |                      o: 0 (valid) 0x1da-0x1db (1)
     |                                               |                |                  [2]{}: in 0x1db-0x1dc (1)
0x1d0|                                 0b            |           .    |                    opcode: "end" (0xb) 0x1db-0x1dc (1)
     |                                               |                |            [10]{}: code 0x1dc-0x1e4 (8)
0x1d0|                                    07         |            .   |              size: 7 (valid) 0x1dc-0x1dd (1)
     |                                               |                |              code{}: 0x1dd-0x1e4 (7)
     |                                               |                |                t{}: 0x1dd-0x1de (1)
0x1d0|                                       00      |             .  |                  n: 0 (valid) 0x1dd-0x1de (1)
     |                                               |                |                  x[0:0]: 0x1de-0x1de (0)
     |                                               |                |                e[0:3]: 0x1de-0x1e4 (6)
     |                                               |                |                  [0]{}: in 0x1de-0x1e0 (2)
0x1d0|                                          20   |                |                    opcode: "local.get" (0x20) 0x1de-0x1df (1)
0x1d0|                                             00|               .|                    x: 0 (valid) 0x1df-0x1e0 (1)
     |                                               |                |                  [1]{}: in 0x1e0-0x1e3 (3)
0x1e0|32                                             |2               |                    opcode: "i64.load16_s" (0x32) 0x1e0-0x1e1 (1)
     |                                               |                |                    m{}: 0x1e1-0x1e3 (2)
0x1e0|   01                                          | .              |                      a: 1 (valid) 0x1e1-0x1e2 (1)
0x1e0|      00                                       |  .             |                      o: 0 (valid) 0x1e2-0x1e3 (1)
     |                                               |                |                  [2]{}: in 0x1e3-0x1e4 (1)
0x1e0|         0b                                    |   .            |                    opcode: "end" (0xb) 0x1e3-0x1e4 (1)
     |                                               |                |            [11]{}: code 0x1e4-0x1ec (8)
0x1e0|            07                                 |    .           |              size: 7 (valid) 0x1e4-0x1e5 (1)
     |                                               |                |              code{}: 0x1e5-0x1ec (7)
     |                                               |                |                t{}: 0x1e5-0x1e6 (1)
0x1e0|               00                              |     .          |                  n: 0 (valid) 0x1e5-0x1e6 (1)
     |                                               |                |                  x[0:0]: 0x1e6-0x1e6 (0)
     |                                               |                |                e[0:3]: 0x1e6-0x1ec (6)
     |                                               |                |                  [0]{}: in 0x1e6-0x1e8 (2)
0x1e0|                  20                           |                |                    opcode: "local.get" (0x20) 0x1e6-0x1e7 (1)
0x1e0|                     00                        |       .        |                    x: 0 (valid) 0x1e7-0x1e8 (1)
     |                                               |                |                  [1]{}: in 0x1e8-0x1eb (3)
0x1e0|                        33                     |        3       |                    opcode: "i64.load16_u" (0x33) 0x1e8-0x1e9 (1)
     |                                               |                |                    m{}: 0x1e9-0x1eb (2)
0x1e0|                           01                  |         .      |                      a: 1 (valid) 0x1e9-0x1ea (1)
0x1e0|                              00               |          .     |                      o: 0 (valid) 0x1ea-0x1eb (1)
     |                                               |                |                  [2]{}: in 0x1eb-0x1ec (1)
0x1e0|                                 0b            |           .    |                    opcode: "end" (0xb) 0x1eb-0x1ec (1)
     |                                               |                |            [12]{}: code 0x1ec-0x1f4 (8)
0x1e0|                                    07         |            .   |              size: 7 (valid) 0x1ec-0x1ed (1)
     |                                               |                |              code{}: 0x1ed-0x1f4 (7)
     |                                               |                |                t{}: 0x1ed-0x1ee (1)
0x1e0|                                       00      |             .  |                  n: 0 (valid) 0x1ed-0x1ee (1)
     |                                               |                |                  x[0:0]: 0x1ee-0x1ee (0)
     |                                               |                |                e[0:3]: 0x1ee-0x1f4 (6)
     |                                               |                |                  [0]{}: in 0x1ee-0x1f0 (2)
0x1e0|                                          20   |                |                    opcode: "local.get" (0x20) 0x1ee-0x1ef (1)
0x1e0|                                             00|               .|                    x: 0 (valid) 0x1ef-0x1f0 (1)
     |                                               |                |                  [1]{}: in 0x1f0-0x1f3 (3)
0x1f0|34                                             |4               |                    opcode: "i64.load32_s" (0x34) 0x1f0-0x1f1 (1)
     |                                               |                |                    m{}: 0x1f1-0x1f3 (2)
0x1f0|   02                                          | .              |                      a: 2 (valid) 0x1f1-0x1f2 (1)
0x1f0|      00                                       |  .             |                      o: 0 (valid) 0x1f2-0x1f3 (1)
     |                                               |                |                  [2]{}: in 0x1f3-0x1f4 (1)
0x1f0|         0b                                    |   .            |                    opcode: "end" (0xb) 0x1f3-0x1f4 (1)
     |                                               |                |            [13]{}: code 0x1f4-0x1fc (8)
0x1f0|            07                                 |    .           |              size: 7 (valid) 0x1f4-0x1f5 (1)
     |                                               |                |              code{}: 0x1f5-0x1fc (7)
     |                                               |                |                t{}: 0x1f5-0x1f6 (1)
0x1f0|               00                              |     .          |                  n: 0 (valid) 0x1f5-0x1f6 (1)
     |                                               |                |                  x[0:0]: 0x1f6-0x1f6 (0)
     |                                               |                |                e[0:3]: 0x1f6-0x1fc (6)
     |                                               |                |                  [0]{}: in 0x1f6-0x1f8 (2)
0x1f0|                  20                           |                |                    opcode: "local.get" (0x20) 0x1f6-0x1f7 (1)
0x1f0|                     00                        |       .        |                    x: 0 (valid) 0x1f7-0x1f8 (1)
     |                                               |                |                  [1]{}: in 0x1f8-0x1fb (3)
0x1f0|                        35                     |        5       |                    opcode: "i64.load32_u" (0x35) 0x1f8-0x1f9 (1)
     |                                               |                |                    m{}: 0x1f9-0x1fb (2)
0x1f0|                           02                  |         .      |                      a: 2 (valid) 0x1f9-0x1fa (1)
0x1f0|                              00               |          .     |                      o: 0 (valid) 0x1fa-0x1fb (1)
     |                                               |                |                  [2]{}: in 0x1fb-0x1fc (1)
0x1f0|                                 0b            |           .    |                    opcode: "end" (0xb) 0x1fb-0x1fc (1)
     |                                               |                |            [14]{}: code 0x1fc-0x206 (10)
0x1f0|                                    09         |            .   |              size: 9 (valid) 0x1fc-0x1fd (1)
     |                                               |                |              code{}: 0x1fd-0x206 (9)
     |                                               |                |                t{}: 0x1fd-0x1fe (1)
0x1f0|                                       00      |             .  |                  n: 0 (valid) 0x1fd-0x1fe (1)
     |                                               |                |                  x[0:0]: 0x1fe-0x1fe (0)
     |                                               |                |                e[0:4]: 0x1fe-0x206 (8)
     |                                               |                |                  [0]{}: in 0x1fe-0x200 (2)
0x1f0|                                          20   |                |                    opcode: "local.get" (0x20) 0x1fe-0x1ff (1)
0x1f0|                                             00|               .|                    x: 0 (valid) 0x1ff-0x200 (1)
     |                                               |                |                  [1]{}: in 0x200-0x202 (2)
0x200|20                                             |                |                    opcode: "local.get" (0x20) 0x200-0x201 (1)
0x200|   01                                          | .              |                    x: 1 (valid) 0x201-0x202 (1)
     |                                               |                |                  [2]{}: in 0x202-0x205 (3)
0x200|      36                                       |  6             |                    opcode: "i32.store" (0x36) 0x202-0x203 (1)
     |                                               |                |                    m{}: 0x203-0x205 (2)
0x200|         02                                    |   .            |                      a: 2 (valid) 0x203-0x204 (1)
0x200|            00                                 |    .           |                      o: 0 (valid) 0x204-0x205 (1)
     |                                               |                |                  [3]{}: in 0x205-0x206 (1)
0x200|               0b                              |     .          |                    opcode: "end" (0xb) 0x205-0x206 (1)
     |                                               |                |            [15]{}: code 0x206-0x210 (10)
0x200|                  09                           |      .         |              size: 9 (valid) 0x206-0x207 (1)
     |                                               |                |              code{}: 0x207-0x210 (9)
     |                                               |                |                t{}: 0x207-0x208 (1)
0x200|                     00                        |       .        |                  n: 0 (valid) 0x207-0x208 (1)
     |                                               |                |                  x[0:0]: 0x208-0x208 (0)
     |                                               |                |                e[0:4]: 0x208-0x210 (8)
     |                                               |                |                  [0]{}: in 0x208-0x20a (2)
0x200|                        20                     |                |                    opcode: "local.get" (0x20) 0x208-0x209 (1)
0x200|                           00                  |         .      |                    x: 0 (valid) 0x209-0x20a (1)
     |                                               |                |                  [1]{}: in 0x20a-0x20c (2)
0x200|                              20               |                |                    opcode: "local.get" (0x20) 0x20a-0x20b (1)
0x200|                                 01            |           .    |                    x: 1 (valid) 0x20b-0x20c (1)
     |                                               |                |                  [2]{}: in 0x20c-0x20f (3)
0x200|                                    37         |            7   |                    opcode: "i64.store" (0x37) 0x20c-0x20d (1)
     |                                               |                |                    m{}: 0x20d-0x20f (2)
0x200|                                       03      |             .  |                      a: 3 (valid) 0x20d-0x20e (1)
0x200|                                          00   |              . |                      o: 0 (valid) 0x20e-0x20f (1)
     |                                               |                |                  [3]{}: in 0x20f-0x210 (1)
0x200|                                             0b|               .|                    opcode: "end" (0xb) 0x20f-0x210 (1)
     |                                               |                |            [16]{}: code 0x210-0x21a (10)
0x210|09                                             |.               |              size: 9 (valid) 0x210-0x211 (1)
     |                                               |                |              code{}: 0x211-0x21a (9)
     |                                               |                |                t{}: 0x211-0x212 (1)
0x210|   00                                          | .              |                  n: 0 (valid) 0x211-0x212 (1)
     |                                               |                |                  x[0:0]: 0x212-0x212 (0)
     |                                               |                |                e[0:4]: 0x212-0x21a (8)
     |                                               |                |                  [0]{}: in 0x212-0x214 (2)
0x210|      20                                       |                |                    opcode: "local.get" (0x20) 0x212-0x213 (1)
0x210|         00                                    |   .            |                    x: 0 (valid) 0x213-0x214 (1)
     |                                               |                |                  [1]{}: in 0x214-0x216 (2)
0x210|            20                                 |                |                    opcode: "local.get" (0x20) 0x214-0x215 (1)
0x210|               01                              |     .          |                    x: 1 (valid) 0x215-0x216 (1)
     |                                               |                |                  [2]{}: in 0x216-0x219 (3)
0x210|                  38                           |      8         |                    opcode: "f32.store" (0x38) 0x216-0x217 (1)
     |                                               |                |                    m{}: 0x217-0x219 (2)
0x210|                     02                        |       .        |                      a: 2 (valid) 0x217-0x218 (1)
0x210|                        00                     |        .       |                      o: 0 (valid) 0x218-0x219 (1)
     |                                               |                |                  [3]{}: in 0x219-0x21a (1)
0x210|                           0b                  |         .      |                    opcode: "end" (0xb) 0x219-0x21a (1)
     |                                               |                |            [17]{}: code 0x21a-0x224 (10)
0x210|                              09               |          .     |              size: 9 (valid) 0x21a-0x21b (1)
     |                                               |                |              code{}: 0x21b-0x224 (9)
     |                                               |                |                t{}: 0x21b-0x21c (1)
0x210|                                 00            |           .    |                  n: 0 (valid) 0x21b-0x21c (1)
     |                                               |                |                  x[0:0]: 0x21c-0x21c (0)
     |                                               |                |                e[0:4]: 0x21c-0x224 (8)
     |                                               |                |                  [0]{}: in 0x21c-0x21e (2)
0x210|                                    20         |                |                    opcode: "local.get" (0x20) 0x21c-0x21d (1)
0x210|                                       00      |             .  |                    x: 0 (valid) 0x21d-0x21e (1)
     |                                               |                |                  [1]{}: in 0x21e-0x220 (2)
0x210|                                          20   |                |                    opcode: "local.get" (0x20) 0x21e-0x21f (1)
0x210|                                             01|               .|                    x: 1 (valid) 0x21f-0x220 (1)
     |                                               |                |                  [2]{}: in 0x220-0x223 (3)
0x220|39                                             |9               |                    opcode: "f64.store" (0x39) 0x220-0x221 (1)
     |                                               |                |                    m{}: 0x221-0x223 (2)
0x220|   03                                          | .              |                      a: 3 (valid) 0x221-0x222 (1)
0x220|      00                                       |  .             |                      o: 0 (valid) 0x222-0x223 (1)
     |                                               |                |                  [3]{}: in 0x223-0x224 (1)
0x220|         0b                                    |   .            |                    opcode: "end" (0xb) 0x223-0x224 (1)
     |                                               |                |            [18]{}: code 0x224-0x22e (10)
0x220|            09                                 |    .           |              size: 9 (valid) 0x224-0x225 (1)
     |                                               |                |              code{}: 0x225-0x22e (9)
     |                                               |                |                t{}: 0x225-0x226 (1)
0x220|               00                              |     .          |                  n: 0 (valid) 0x225-0x226 (1)
     |                                               |                |                  x[0:0]: 0x226-0x226 (0)
     |                                               |                |                e[0:4]: 0x226-0x22e (8)
     |                                               |                |                  [0]{}: in 0x226-0x228 (2)
0x220|                  20                           |                |                    opcode: "local.get" (0x20) 0x226-0x227 (1)
0x220|                     00                        |       .        |                    x: 0 (valid) 0x227-0x228 (1)
     |                                               |                |                  [1]{}: in 0x228-0x22a (2)
0x220|                        20                     |                |                    opcode: "local.get" (0x20) 0x228-0x229 (1)
0x220|                           01                  |         .      |                    x: 1 (valid) 0x229-0x22a (1)
     |                                               |                |                  [2]{}: in 0x22a-0x22d (3)
0x220|                              3a               |          :     |                    opcode: "i32.store8" (0x3a) 0x22a-0x22b (1)
     |                                               |                |                    m{}: 0x22b-0x22d (2)
0x220|                                 00            |           .    |                      a: 0 (valid) 0x22b-0x22c (1)
0x220|                                    00         |            .   |                      o: 0 (valid) 0x22c-0x22d (1)
     |                                               |                |                  [3]{}: in 0x22d-0x22e (1)
0x220|                                       0b      |             .  |                    opcode: "end" (0xb) 0x22d-0x22e (1)
     |                                               |                |            [19]{}: code 0x22e-0x238 (10)
0x220|                                          09   |              . |              size: 9 (valid) 0x22e-0x22f (1)
     |                                               |                |              code{}: 0x22f-0x238 (9)
     |                                               |                |                t{}: 0x22f-0x230 (1)
0x220|                                             00|               .|                  n: 0 (valid) 0x22f-0x230 (1)
     |                                               |                |                  x[0:0]: 0x230-0x230 (0)
     |                                               |                |                e[0:4]: 0x230-0x238 (8)
     |                                               |                |                  [0]{}: in 0x230-0x232 (2)
0x230|20                                             |                |                    opcode: "local.get" (0x20) 0x230-0x231 (1)
0x230|   00                                          | .              |                    x: 0 (valid) 0x231-0x232 (1)
     |                                               |                |                  [1]{}: in 0x232-0x234 (2)
0x230|      20                                       |                |                    opcode: "local.get" (0x20) 0x232-0x233 (1)
0x230|         01                                    |   .            |                    x: 1 (valid) 0x233-0x234 (1)
     |                                               |                |                  [2]{}: in 0x234-0x237 (3)
0x230|            3b                                 |    ;           |                    opcode: "i32.store16" (0x3b) 0x234-0x235 (1)
     |                                               |                |                    m{}: 0x235-0x237 (2)
0x230|               01                              |     .          |                      a: 1 (valid) 0x235-0x236 (1)
0x230|                  00                           |      .         |                      o: 0 (valid) 0x236-0x237 (1)
     |                                               |                |                  [3]{}: in 0x237-0x238 (1)
0x230|                     0b                        |       .        |                    opcode: "end" (0xb) 0x237-0x238 (1)
     |                                               |                |            [20]{}: code 0x238-0x242 (10)
0x230|                        09                     |        .       |              size: 9 (valid) 0x238-0x239 (1)
     |                                               |                |              code{}: 0x239-0x242 (9)
     |                                               |                |                t{}: 0x239-0x23a (1)
0x230|                           00                  |         .      |                  n: 0 (valid) 0x239-0x23a (1)
     |                                               |                |                  x[0:0]: 0x23a-0x23a (0)
     |                                               |                |                e[0:4]: 0x23a-0x242 (8)
     |                                               |                |                  [0]{}: in 0x23a-0x23c (2)
0x230|                              20               |                |                    opcode: "local.get" (0x20) 0x23a-0x23b (1)
0x230|                                 00            |           .    |                    x: 0 (valid) 0x23b-0x23c (1)
     |                                               |                |                  [1]{}: in 0x23c-0x23e (2)
0x230|                                    20         |                |                    opcode: "local.get" (0x20) 0x23c-0x23d (1)
0x230|                                       01      |             .  |                    x: 1 (valid) 0x23d-0x23e (1)
     |                                               |                |                  [2]{}: in 0x23e-0x241 (3)
0x230|                                          3c   |              < |                    opcode: "i64.store8" (0x3c) 0x23e-0x23f (1)
     |                                               |                |                    m{}: 0x23f-0x241 (2)
0x230|                                             00|               .|                      a: 0 (valid) 0x23f-0x240 (1)
0x240|00                                             |.               |                      o: 0 (valid) 0x240-0x241 (1)
     |                                               |                |                  [3]{}: in 0x241-0x242 (1)
0x240|   0b                                          | .              |                    opcode: "end" (0xb) 0x241-0x242 (1)
     |                                               |                |            [21]{}: code 0x242-0x24c (10)
0x240|      09                                       |  .             |              size: 9 (valid) 0x242-0x243 (1)
     |                                               |                |              code{}: 0x243-0x24c (9)
     |                                               |                |                t{}: 0x243-0x244 (1)
0x240|         00                                    |   .            |                  n: 0 (valid) 0x243-0x244 (1)
     |                                               |                |                  x[0:0]: 0x244-0x244 (0)
     |                                               |                |                e[0:4]: 0x244-0x24c (8)
     |                                               |                |                  [0]{}: in 0x244-0x246 (2)
0x240|            20                                 |                |                    opcode: "local.get" (0x20) 0x244-0x245 (1)
0x240|               00                              |     .          |                    x: 0 (valid) 0x245-0x246 (1)
     |                                               |                |                  [1]{}: in 0x246-0x248 (2)
0x240|                  20                           |                |                    opcode: "local.get" (0x20) 0x246-0x247 (1)
0x240|                     01                        |       .        |                    x: 1 (valid) 0x247-0x248 (1)
     |                                               |                |                  [2]{}: in 0x248-0x24b (3)
0x240|                        3d                     |        =       |                    opcode: "i64.store16" (0x3d) 0x248-0x249 (1)
     |                                               |                |                    m{}: 0x249-0x24b (2)
0x240|                           01                  |         .      |                      a: 1 (valid) 0x249-0x24a (1)
0x240|                              00               |          .     |                      o: 0 (valid) 0x24a-0x24b (1)
     |                                               |                |                  [3]{}: in 0x24b-0x24c (1)
0x240|                                 0b            |           .    |                    opcode: "end" (0xb) 0x24b-0x24c (1)
     |                                               |                |            [22]{}: code 0x24c-0x256 (10)
0x240|                                    09         |            .   |              size: 9 (valid) 0x24c-0x24d (1)
     |                                               |                |              code{}: 0x24d-0x256 (9)
     |                                               |                |                t{}: 0x24d-0x24e (1)
0x240|                                       00      |             .  |                  n: 0 (valid) 0x24d-0x24e (1)
     |                                               |                |                  x[0:0]: 0x24e-0x24e (0)
     |                                               |                |                e[0:4]: 0x24e-0x256 (8)
     |                                               |                |                  [0]{}: in 0x24e-0x250 (2)
0x240|                                          20   |                |                    opcode: "local.get" (0x20) 0x24e-0x24f (1)
0x240|                                             00|               .|                    x: 0 (valid) 0x24f-0x250 (1)
     |                                               |                |                  [1]{}: in 0x250-0x252 (2)
0x250|20                                             |                |                    opcode: "local.get" (0x20) 0x250-0x251 (1)
0x250|   01                                          | .              |                    x: 1 (valid) 0x251-0x252 (1)
     |                                               |                |                  [2]{}: in 0x252-0x255 (3)
0x250|      3e                                       |  >             |                    opcode: "i64.store32" (0x3e) 0x252-0x253 (1)
     |                                               |                |                    m{}: 0x253-0x255 (2)
0x250|         02                                    |   .            |                      a: 2 (valid) 0x253-0x254 (1)
0x250|            00                                 |    .           |                      o: 0 (valid) 0x254-0x255 (1)
     |                                               |                |                  [3]{}: in 0x255-0x256 (1)
0x250|               0b                              |     .          |                    opcode: "end" (0xb) 0x255-0x256 (1)
     |                                               |                |    [5]{}: section 0x256-0x275 (31)
0x250|                  0b                           |      .         |      id: "data_section" (11) 0x256-0x257 (1)
0x250|                     1d                        |       .        |      size: 29 (valid) 0x257-0x258 (1)
     |                                               |                |      content{}: 0x258-0x275 (29)
     |                                               |                |        seg{}: 0x258-0x275 (29)
0x250|                        02                     |        .       |          n: 2 (valid) 0x258-0x259 (1)
     |                                               |                |          x[0:2]: 0x259-0x275 (28)
     |                                               |                |            [0]{}: seg 0x259-0x266 (13)
0x250|                           00                  |         .      |              tag: 0 (valid) 0x259-0x25a (1)
     |                                               |                |              e[0:2]: 0x25a-0x25d (3)
     |                                               |                |                [0]{}: in 0x25a-0x25c (2)
0x250|                              41               |          A     |                  opcode: "i32.const" (0x41) 0x25a-0x25b (1)
0x250|                                 00            |           .    |                  n: 0 (valid) 0x25b-0x25c (1)
     |                                               |                |                [1]{}: in 0x25c-0x25d (1)
0x250|                                    0b         |            .   |                  opcode: "end" (0xb) 0x25c-0x25d (1)
     |                                               |                |              b{}: 0x25d-0x266 (9)
0x250|                                       08      |             .  |                n: 8 (valid) 0x25d-0x25e (1)
0x250|                                          61 62|              ab|                x: raw bits 0x25e-0x266 (8)
0x260|63 64 65 66 67 68                              |cdefgh          |
     |                                               |                |            [1]{}: seg 0x266-0x275 (15)
0x260|                  00                           |      .         |              tag: 0 (valid) 0x266-0x267 (1)
     |                                               |                |              e[0:2]: 0x267-0x26c (5)
     |                                               |                |                [0]{}: in 0x267-0x26b (4)
0x260|                     41                        |       A        |                  opcode: "i32.const" (0x41) 0x267-0x268 (1)
0x260|                        f8 ff 03               |        ...     |                  n: 65528 (valid) 0x268-0x26b (3)
     |                                               |                |                [1]{}: in 0x26b-0x26c (1)
0x260|                                 0b            |           .    |                  opcode: "end" (0xb) 0x26b-0x26c (1)
     |                                               |                |              b{}: 0x26c-0x275 (9)
0x260|                                    08         |            .   |                n: 8 (valid) 0x26c-0x26d (1)
0x260|                                       61 62 63|             abc|                x: raw bits 0x26d-0x275 (8)
0x270|64 65 66 67 68|                                |defgh|          |
