$ fq -d wasm dv memory_grow-2.wasm
    |00 01 02 03 04 05 06 07 08 09 0a 0b 0c 0d 0e 0f|0123456789abcdef|.{}: memory_grow-2.wasm (wasm) 0x0-0x2d.7 (46)
0x00|00 61 73 6d                                    |.asm            |  magic: raw bits (valid) 0x0-0x3.7 (4)
0x00|            01 00 00 00                        |    ....        |  version: 1 0x4-0x7.7 (4)
    |                                               |                |  sections[0:5]: 0x8-0x2d.7 (38)
    |                                               |                |    [0]{}: section 0x8-0xf.7 (8)
0x00|                        01                     |        .       |      id: "type section" (1) 0x8-0x8.7 (1)
0x00|                           06                  |         .      |      size: 6 0x9-0x9.7 (1)
    |                                               |                |      content{}: 0xa-0xf.7 (6)
    |                                               |                |        ft{}: 0xa-0xf.7 (6)
0x00|                              01               |          .     |          n: 1 0xa-0xa.7 (1)
    |                                               |                |          x[0:1]: 0xb-0xf.7 (5)
    |                                               |                |            [0]{}: ft 0xb-0xf.7 (5)
0x00|                                 60            |           `    |              tag: 0x60 (valid) 0xb-0xb.7 (1)
    |                                               |                |              rt1{}: 0xc-0xd.7 (2)
0x00|                                    01         |            .   |                n: 1 0xc-0xc.7 (1)
    |                                               |                |                x[0:1]: 0xd-0xd.7 (1)
0x00|                                       7f      |             .  |                  [0]: "i32" (0x7f) t 0xd-0xd.7 (1)
    |                                               |                |              rt2{}: 0xe-0xf.7 (2)
0x00|                                          01   |              . |                n: 1 0xe-0xe.7 (1)
    |                                               |                |                x[0:1]: 0xf-0xf.7 (1)
0x00|                                             7f|               .|                  [0]: "i32" (0x7f) t 0xf-0xf.7 (1)
    |                                               |                |    [1]{}: section 0x10-0x13.7 (4)
0x10|03                                             |.               |      id: "function section" (3) 0x10-0x10.7 (1)
0x10|   02                                          | .              |      size: 2 0x11-0x11.7 (1)
    |                                               |                |      content{}: 0x12-0x13.7 (2)
    |                                               |                |        x{}: 0x12-0x13.7 (2)
0x10|      01                                       |  .             |          n: 1 0x12-0x12.7 (1)
    |                                               |                |          x[0:1]: 0x13-0x13.7 (1)
0x10|         00                                    |   .            |            [0]: 0 x 0x13-0x13.7 (1)
    |                                               |                |    [2]{}: section 0x14-0x19.7 (6)
0x10|            05                                 |    .           |      id: "memory section" (5) 0x14-0x14.7 (1)
0x10|               04                              |     .          |      size: 4 0x15-0x15.7 (1)
    |                                               |                |      content{}: 0x16-0x19.7 (4)
    |                                               |                |        mem{}: 0x16-0x19.7 (4)
0x10|                  01                           |      .         |          n: 1 0x16-0x16.7 (1)
    |                                               |                |          x[0:1]: 0x17-0x19.7 (3)
    |                                               |                |            [0]{}: mem 0x17-0x19.7 (3)
    |                                               |                |              lim{}: 0x17-0x19.7 (3)
0x10|                     01                        |       .        |                tag: 0x1 0x17-0x17.7 (1)
0x10|                        00                     |        .       |                n: 0 0x18-0x18.7 (1)
0x10|                           0a                  |         .      |                m: 10 0x19-0x19.7 (1)
    |                                               |                |    [3]{}: section 0x1a-0x23.7 (10)
0x10|                              07               |          .     |      id: "export section" (7) 0x1a-0x1a.7 (1)
0x10|                                 08            |           .    |      size: 8 0x1b-0x1b.7 (1)
    |                                               |                |      content{}: 0x1c-0x23.7 (8)
    |                                               |                |        ex{}: 0x1c-0x23.7 (8)
0x10|                                    01         |            .   |          n: 1 0x1c-0x1c.7 (1)
    |                                               |                |          x[0:1]: 0x1d-0x23.7 (7)
    |                                               |                |            [0]{}: ex 0x1d-0x23.7 (7)
    |                                               |                |              nm{}: 0x1d-0x21.7 (5)
0x10|                                       04      |             .  |                n: 4 0x1d-0x1d.7 (1)
0x10|                                          67 72|              gr|                b: "grow" 0x1e-0x21.7 (4)
0x20|6f 77                                          |ow              |
    |                                               |                |              d{}: 0x22-0x23.7 (2)
0x20|      00                                       |  .             |                tag: "funcidx" (0x0) 0x22-0x22.7 (1)
0x20|         00                                    |   .            |                x: 0 0x23-0x23.7 (1)
    |                                               |                |    [4]{}: section 0x24-0x2d.7 (10)
0x20|            0a                                 |    .           |      id: "code section" (10) 0x24-0x24.7 (1)
0x20|               08                              |     .          |      size: 8 0x25-0x25.7 (1)
    |                                               |                |      content{}: 0x26-0x2d.7 (8)
    |                                               |                |        code{}: 0x26-0x2d.7 (8)
0x20|                  01                           |      .         |          n: 1 0x26-0x26.7 (1)
    |                                               |                |          x[0:1]: 0x27-0x2d.7 (7)
    |                                               |                |            [0]{}: code 0x27-0x2d.7 (7)
0x20|                     06                        |       .        |              size: 6 0x27-0x27.7 (1)
    |                                               |                |              code{}: 0x28-0x2d.7 (6)
    |                                               |                |                t{}: 0x28-0x28.7 (1)
0x20|                        00                     |        .       |                  n: 0 0x28-0x28.7 (1)
    |                                               |                |                  x[0:0]: 0x29-NA (0)
    |                                               |                |                e[0:3]: 0x29-0x2d.7 (5)
    |                                               |                |                  [0]{}: in 0x29-0x2a.7 (2)
0x20|                           20                  |                |                    local.get: 0x20 (valid) 0x29-0x29.7 (1)
0x20|                              00               |          .     |                    x: 0 0x2a-0x2a.7 (1)
    |                                               |                |                  [1]{}: in 0x2b-0x2c.7 (2)
0x20|                                 40            |           @    |                    memory.grow: 0x40 (valid) 0x2b-0x2b.7 (1)
0x20|                                    00         |            .   |                    reserved: 0x0 (valid) 0x2c-0x2c.7 (1)
    |                                               |                |                  [2]{}: in 0x2d-0x2d.7 (1)
0x20|                                       0b|     |             .| |                    end: 0xb (valid) 0x2d-0x2d.7 (1)
