$ fq -d wasm dv memory_init-9.wasm
    |00 01 02 03 04 05 06 07 08 09 0a 0b 0c 0d 0e 0f|0123456789abcdef|.{}: memory_init-9.wasm (wasm) 0x0-0x3a.7 (59)
0x00|00 61 73 6d                                    |.asm            |  magic: raw bits (valid) 0x0-0x3.7 (4)
0x00|            01 00 00 00                        |    ....        |  version: 1 0x4-0x7.7 (4)
    |                                               |                |  sections[0:7]: 0x8-0x3a.7 (51)
    |                                               |                |    [0]{}: section 0x8-0xd.7 (6)
0x00|                        01                     |        .       |      id: "type section" (1) 0x8-0x8.7 (1)
0x00|                           04                  |         .      |      size: 4 0x9-0x9.7 (1)
    |                                               |                |      content{}: 0xa-0xd.7 (4)
    |                                               |                |        ft{}: 0xa-0xd.7 (4)
0x00|                              01               |          .     |          n: 1 0xa-0xa.7 (1)
    |                                               |                |          x[0:1]: 0xb-0xd.7 (3)
    |                                               |                |            [0]{}: ft 0xb-0xd.7 (3)
0x00|                                 60            |           `    |              tag: 0x60 (valid) 0xb-0xb.7 (1)
    |                                               |                |              rt1{}: 0xc-0xc.7 (1)
0x00|                                    00         |            .   |                n: 0 0xc-0xc.7 (1)
    |                                               |                |                x[0:0]: 0xd-NA (0)
    |                                               |                |              rt2{}: 0xd-0xd.7 (1)
0x00|                                       00      |             .  |                n: 0 0xd-0xd.7 (1)
    |                                               |                |                x[0:0]: 0xe-NA (0)
    |                                               |                |    [1]{}: section 0xe-0x11.7 (4)
0x00|                                          03   |              . |      id: "function section" (3) 0xe-0xe.7 (1)
0x00|                                             02|               .|      size: 2 0xf-0xf.7 (1)
    |                                               |                |      content{}: 0x10-0x11.7 (2)
    |                                               |                |        x{}: 0x10-0x11.7 (2)
0x10|01                                             |.               |          n: 1 0x10-0x10.7 (1)
    |                                               |                |          x[0:1]: 0x11-0x11.7 (1)
0x10|   00                                          | .              |            [0]: 0 x 0x11-0x11.7 (1)
    |                                               |                |    [2]{}: section 0x12-0x16.7 (5)
0x10|      05                                       |  .             |      id: "memory section" (5) 0x12-0x12.7 (1)
0x10|         03                                    |   .            |      size: 3 0x13-0x13.7 (1)
    |                                               |                |      content{}: 0x14-0x16.7 (3)
    |                                               |                |        mem{}: 0x14-0x16.7 (3)
0x10|            01                                 |    .           |          n: 1 0x14-0x14.7 (1)
    |                                               |                |          x[0:1]: 0x15-0x16.7 (2)
    |                                               |                |            [0]{}: mem 0x15-0x16.7 (2)
    |                                               |                |              lim{}: 0x15-0x16.7 (2)
0x10|               00                              |     .          |                tag: 0x0 0x15-0x15.7 (1)
0x10|                  01                           |      .         |                n: 1 0x16-0x16.7 (1)
    |                                               |                |    [3]{}: section 0x17-0x20.7 (10)
0x10|                     07                        |       .        |      id: "export section" (7) 0x17-0x17.7 (1)
0x10|                        08                     |        .       |      size: 8 0x18-0x18.7 (1)
    |                                               |                |      content{}: 0x19-0x20.7 (8)
    |                                               |                |        ex{}: 0x19-0x20.7 (8)
0x10|                           01                  |         .      |          n: 1 0x19-0x19.7 (1)
    |                                               |                |          x[0:1]: 0x1a-0x20.7 (7)
    |                                               |                |            [0]{}: ex 0x1a-0x20.7 (7)
    |                                               |                |              nm{}: 0x1a-0x1e.7 (5)
0x10|                              04               |          .     |                n: 4 0x1a-0x1a.7 (1)
0x10|                                 74 65 73 74   |           test |                b: "test" 0x1b-0x1e.7 (4)
    |                                               |                |              d{}: 0x1f-0x20.7 (2)
0x10|                                             00|               .|                tag: "funcidx" (0x0) 0x1f-0x1f.7 (1)
0x20|00                                             |.               |                x: 0 0x20-0x20.7 (1)
    |                                               |                |    [4]{}: section 0x21-0x23.7 (3)
0x20|   0c                                          | .              |      id: "data count section" (12) 0x21-0x21.7 (1)
0x20|      01                                       |  .             |      size: 1 0x22-0x22.7 (1)
    |                                               |                |      content{}: 0x23-0x23.7 (1)
0x20|         01                                    |   .            |        n: 1 0x23-0x23.7 (1)
    |                                               |                |    [5]{}: section 0x24-0x34.7 (17)
0x20|            0a                                 |    .           |      id: "code section" (10) 0x24-0x24.7 (1)
0x20|               0f                              |     .          |      size: 15 0x25-0x25.7 (1)
    |                                               |                |      content{}: 0x26-0x34.7 (15)
    |                                               |                |        code{}: 0x26-0x34.7 (15)
0x20|                  01                           |      .         |          n: 1 0x26-0x26.7 (1)
    |                                               |                |          x[0:1]: 0x27-0x34.7 (14)
    |                                               |                |            [0]{}: code 0x27-0x34.7 (14)
0x20|                     0d                        |       .        |              size: 13 0x27-0x27.7 (1)
    |                                               |                |              code{}: 0x28-0x34.7 (13)
    |                                               |                |                t{}: 0x28-0x28.7 (1)
0x20|                        00                     |        .       |                  n: 0 0x28-0x28.7 (1)
    |                                               |                |                  x[0:0]: 0x29-NA (0)
    |                                               |                |                e[0:5]: 0x29-0x34.7 (12)
    |                                               |                |                  [0]{}: in 0x29-0x2b.7 (3)
0x20|                           41                  |         A      |                    i32.const: 0x41 (valid) 0x29-0x29.7 (1)
0x20|                              d2 09            |          ..    |                    n: 1234 0x2a-0x2b.7 (2)
    |                                               |                |                  [1]{}: in 0x2c-0x2d.7 (2)
0x20|                                    41         |            A   |                    i32.const: 0x41 (valid) 0x2c-0x2c.7 (1)
0x20|                                       02      |             .  |                    n: 2 0x2d-0x2d.7 (1)
    |                                               |                |                  [2]{}: in 0x2e-0x2f.7 (2)
0x20|                                          41   |              A |                    i32.const: 0x41 (valid) 0x2e-0x2e.7 (1)
0x20|                                             03|               .|                    n: 3 0x2f-0x2f.7 (1)
    |                                               |                |                  [3]{}: in 0x30-0x33.7 (4)
0x30|fc                                             |.               |                    prefix: 0xfc (valid) 0x30-0x30.7 (1)
0x30|   08                                          | .              |                    memory.init: 8 (valid) 0x31-0x31.7 (1)
0x30|      00                                       |  .             |                    x: 0 0x32-0x32.7 (1)
0x30|         00                                    |   .            |                    reserved: 0x0 (valid) 0x33-0x33.7 (1)
    |                                               |                |                  [4]{}: in 0x34-0x34.7 (1)
0x30|            0b                                 |    .           |                    end: 0xb (valid) 0x34-0x34.7 (1)
    |                                               |                |    [6]{}: section 0x35-0x3a.7 (6)
0x30|               0b                              |     .          |      id: "data section" (11) 0x35-0x35.7 (1)
0x30|                  04                           |      .         |      size: 4 0x36-0x36.7 (1)
    |                                               |                |      content{}: 0x37-0x3a.7 (4)
    |                                               |                |        seg{}: 0x37-0x3a.7 (4)
0x30|                     01                        |       .        |          n: 1 0x37-0x37.7 (1)
    |                                               |                |          x[0:1]: 0x38-0x3a.7 (3)
    |                                               |                |            [0]{}: seg 0x38-0x3a.7 (3)
0x30|                        01                     |        .       |              tag: 1 0x38-0x38.7 (1)
    |                                               |                |              b{}: 0x39-0x3a.7 (2)
0x30|                           01                  |         .      |                n: 1 0x39-0x39.7 (1)
0x30|                              37|              |          7|    |                x: raw bits 0x3a-0x3a.7 (1)
