$ fq -d wasm dv memory_fill-3.wasm
    |00 01 02 03 04 05 06 07 08 09 0a 0b 0c 0d 0e 0f|0123456789abcdef|.{}: memory_fill-3.wasm (wasm) 0x0-0x6e.7 (111)
0x00|00 61 73 6d                                    |.asm            |  magic: raw bits (valid) 0x0-0x3.7 (4)
0x00|            01 00 00 00                        |    ....        |  version: 1 0x4-0x7.7 (4)
    |                                               |                |  sections[0:5]: 0x8-0x6e.7 (103)
    |                                               |                |    [0]{}: section 0x8-0x14.7 (13)
0x00|                        01                     |        .       |      id: "type section" (1) 0x8-0x8.7 (1)
0x00|                           0b                  |         .      |      size: 11 0x9-0x9.7 (1)
    |                                               |                |      content{}: 0xa-0x14.7 (11)
    |                                               |                |        ft{}: 0xa-0x14.7 (11)
0x00|                              02               |          .     |          n: 2 0xa-0xa.7 (1)
    |                                               |                |          x[0:2]: 0xb-0x14.7 (10)
    |                                               |                |            [0]{}: ft 0xb-0x11.7 (7)
0x00|                                 60            |           `    |              tag: 0x60 (valid) 0xb-0xb.7 (1)
    |                                               |                |              rt1{}: 0xc-0xf.7 (4)
0x00|                                    03         |            .   |                n: 3 0xc-0xc.7 (1)
    |                                               |                |                x[0:3]: 0xd-0xf.7 (3)
0x00|                                       7f      |             .  |                  [0]: "i32" (0x7f) t 0xd-0xd.7 (1)
0x00|                                          7f   |              . |                  [1]: "i32" (0x7f) t 0xe-0xe.7 (1)
0x00|                                             7f|               .|                  [2]: "i32" (0x7f) t 0xf-0xf.7 (1)
    |                                               |                |              rt2{}: 0x10-0x11.7 (2)
0x10|01                                             |.               |                n: 1 0x10-0x10.7 (1)
    |                                               |                |                x[0:1]: 0x11-0x11.7 (1)
0x10|   7f                                          | .              |                  [0]: "i32" (0x7f) t 0x11-0x11.7 (1)
    |                                               |                |            [1]{}: ft 0x12-0x14.7 (3)
0x10|      60                                       |  `             |              tag: 0x60 (valid) 0x12-0x12.7 (1)
    |                                               |                |              rt1{}: 0x13-0x13.7 (1)
0x10|         00                                    |   .            |                n: 0 0x13-0x13.7 (1)
    |                                               |                |                x[0:0]: 0x14-NA (0)
    |                                               |                |              rt2{}: 0x14-0x14.7 (1)
0x10|            00                                 |    .           |                n: 0 0x14-0x14.7 (1)
    |                                               |                |                x[0:0]: 0x15-NA (0)
    |                                               |                |    [1]{}: section 0x15-0x19.7 (5)
0x10|               03                              |     .          |      id: "function section" (3) 0x15-0x15.7 (1)
0x10|                  03                           |      .         |      size: 3 0x16-0x16.7 (1)
    |                                               |                |      content{}: 0x17-0x19.7 (3)
    |                                               |                |        x{}: 0x17-0x19.7 (3)
0x10|                     02                        |       .        |          n: 2 0x17-0x17.7 (1)
    |                                               |                |          x[0:2]: 0x18-0x19.7 (2)
0x10|                        00                     |        .       |            [0]: 0 x 0x18-0x18.7 (1)
0x10|                           01                  |         .      |            [1]: 1 x 0x19-0x19.7 (1)
    |                                               |                |    [2]{}: section 0x1a-0x1f.7 (6)
0x10|                              05               |          .     |      id: "memory section" (5) 0x1a-0x1a.7 (1)
0x10|                                 04            |           .    |      size: 4 0x1b-0x1b.7 (1)
    |                                               |                |      content{}: 0x1c-0x1f.7 (4)
    |                                               |                |        mem{}: 0x1c-0x1f.7 (4)
0x10|                                    01         |            .   |          n: 1 0x1c-0x1c.7 (1)
    |                                               |                |          x[0:1]: 0x1d-0x1f.7 (3)
    |                                               |                |            [0]{}: mem 0x1d-0x1f.7 (3)
    |                                               |                |              lim{}: 0x1d-0x1f.7 (3)
0x10|                                       01      |             .  |                tag: 0x1 0x1d-0x1d.7 (1)
0x10|                                          01   |              . |                n: 1 0x1e-0x1e.7 (1)
0x10|                                             01|               .|                m: 1 0x1f-0x1f.7 (1)
    |                                               |                |    [3]{}: section 0x20-0x36.7 (23)
0x20|07                                             |.               |      id: "export section" (7) 0x20-0x20.7 (1)
0x20|   15                                          | .              |      size: 21 0x21-0x21.7 (1)
    |                                               |                |      content{}: 0x22-0x36.7 (21)
    |                                               |                |        ex{}: 0x22-0x36.7 (21)
0x20|      02                                       |  .             |          n: 2 0x22-0x22.7 (1)
    |                                               |                |          x[0:2]: 0x23-0x36.7 (20)
    |                                               |                |            [0]{}: ex 0x23-0x2f.7 (13)
    |                                               |                |              nm{}: 0x23-0x2d.7 (11)
0x20|         0a                                    |   .            |                n: 10 0x23-0x23.7 (1)
0x20|            63 68 65 63 6b 52 61 6e 67 65      |    checkRange  |                b: "checkRange" 0x24-0x2d.7 (10)
    |                                               |                |              d{}: 0x2e-0x2f.7 (2)
0x20|                                          00   |              . |                tag: "funcidx" (0x0) 0x2e-0x2e.7 (1)
0x20|                                             00|               .|                x: 0 0x2f-0x2f.7 (1)
    |                                               |                |            [1]{}: ex 0x30-0x36.7 (7)
    |                                               |                |              nm{}: 0x30-0x34.7 (5)
0x30|04                                             |.               |                n: 4 0x30-0x30.7 (1)
0x30|   74 65 73 74                                 | test           |                b: "test" 0x31-0x34.7 (4)
    |                                               |                |              d{}: 0x35-0x36.7 (2)
0x30|               00                              |     .          |                tag: "funcidx" (0x0) 0x35-0x35.7 (1)
0x30|                  01                           |      .         |                x: 1 0x36-0x36.7 (1)
    |                                               |                |    [4]{}: section 0x37-0x6e.7 (56)
0x30|                     0a                        |       .        |      id: "code section" (10) 0x37-0x37.7 (1)
0x30|                        36                     |        6       |      size: 54 0x38-0x38.7 (1)
    |                                               |                |      content{}: 0x39-0x6e.7 (54)
    |                                               |                |        code{}: 0x39-0x6e.7 (54)
0x30|                           02                  |         .      |          n: 2 0x39-0x39.7 (1)
    |                                               |                |          x[0:2]: 0x3a-0x6e.7 (53)
    |                                               |                |            [0]{}: code 0x3a-0x61.7 (40)
0x30|                              27               |          '     |              size: 39 0x3a-0x3a.7 (1)
    |                                               |                |              code{}: 0x3b-0x61.7 (39)
    |                                               |                |                t{}: 0x3b-0x3b.7 (1)
0x30|                                 00            |           .    |                  n: 0 0x3b-0x3b.7 (1)
    |                                               |                |                  x[0:0]: 0x3c-NA (0)
    |                                               |                |                e[0:4]: 0x3c-0x61.7 (38)
    |                                               |                |                  [0]{}: in 0x3c-0x5d.7 (34)
0x30|                                    03         |            .   |                    loop: 0x3 (valid) 0x3c-0x3c.7 (1)
0x30|                                       40      |             @  |                    bt: "ε" (64) 0x3d-0x3d.7 (1)
    |                                               |                |                    instructions[0:9]: 0x3e-0x5c.7 (31)
    |                                               |                |                      [0]{}: instr 0x3e-0x3f.7 (2)
0x30|                                          20   |                |                        local.get: 0x20 (valid) 0x3e-0x3e.7 (1)
0x30|                                             00|               .|                        x: 0 0x3f-0x3f.7 (1)
    |                                               |                |                      [1]{}: instr 0x40-0x41.7 (2)
0x40|20                                             |                |                        local.get: 0x20 (valid) 0x40-0x40.7 (1)
0x40|   01                                          | .              |                        x: 1 0x41-0x41.7 (1)
    |                                               |                |                      [2]{}: instr 0x42-0x42.7 (1)
0x40|      46                                       |  F             |                        i32.eq: 0x46 (valid) 0x42-0x42.7 (1)
    |                                               |                |                      [3]{}: instr 0x43-0x48.7 (6)
0x40|         04                                    |   .            |                        if: 0x4 (valid) 0x43-0x43.7 (1)
0x40|            40                                 |    @           |                        bt: "ε" (64) 0x44-0x44.7 (1)
    |                                               |                |                        in1[0:2]: 0x45-0x47.7 (3)
    |                                               |                |                          [0]{}: instr 0x45-0x46.7 (2)
0x40|               41                              |     A          |                            i32.const: 0x41 (valid) 0x45-0x45.7 (1)
0x40|                  7f                           |      .         |                            n: -1 0x46-0x46.7 (1)
    |                                               |                |                          [1]{}: instr 0x47-0x47.7 (1)
0x40|                     0f                        |       .        |                            return: 0xf (valid) 0x47-0x47.7 (1)
0x40|                        0b                     |        .       |                        end: 11 (valid) 0x48-0x48.7 (1)
    |                                               |                |                      [4]{}: instr 0x49-0x4a.7 (2)
0x40|                           20                  |                |                        local.get: 0x20 (valid) 0x49-0x49.7 (1)
0x40|                              00               |          .     |                        x: 0 0x4a-0x4a.7 (1)
    |                                               |                |                      [5]{}: instr 0x4b-0x4d.7 (3)
0x40|                                 2d            |           -    |                        i32.load8_u: 0x2d (valid) 0x4b-0x4b.7 (1)
    |                                               |                |                        m{}: 0x4c-0x4d.7 (2)
0x40|                                    00         |            .   |                          a: 0 0x4c-0x4c.7 (1)
0x40|                                       00      |             .  |                          o: 0 0x4d-0x4d.7 (1)
    |                                               |                |                      [6]{}: instr 0x4e-0x4f.7 (2)
0x40|                                          20   |                |                        local.get: 0x20 (valid) 0x4e-0x4e.7 (1)
0x40|                                             02|               .|                        x: 2 0x4f-0x4f.7 (1)
    |                                               |                |                      [7]{}: instr 0x50-0x50.7 (1)
0x50|46                                             |F               |                        i32.eq: 0x46 (valid) 0x50-0x50.7 (1)
    |                                               |                |                      [8]{}: instr 0x51-0x5c.7 (12)
0x50|   04                                          | .              |                        if: 0x4 (valid) 0x51-0x51.7 (1)
0x50|      40                                       |  @             |                        bt: "ε" (64) 0x52-0x52.7 (1)
    |                                               |                |                        in1[0:5]: 0x53-0x5b.7 (9)
    |                                               |                |                          [0]{}: instr 0x53-0x54.7 (2)
0x50|         20                                    |                |                            local.get: 0x20 (valid) 0x53-0x53.7 (1)
0x50|            00                                 |    .           |                            x: 0 0x54-0x54.7 (1)
    |                                               |                |                          [1]{}: instr 0x55-0x56.7 (2)
0x50|               41                              |     A          |                            i32.const: 0x41 (valid) 0x55-0x55.7 (1)
0x50|                  01                           |      .         |                            n: 1 0x56-0x56.7 (1)
    |                                               |                |                          [2]{}: instr 0x57-0x57.7 (1)
0x50|                     6a                        |       j        |                            i32.add: 0x6a (valid) 0x57-0x57.7 (1)
    |                                               |                |                          [3]{}: instr 0x58-0x59.7 (2)
0x50|                        21                     |        !       |                            local.set: 0x21 (valid) 0x58-0x58.7 (1)
0x50|                           00                  |         .      |                            x: 0 0x59-0x59.7 (1)
    |                                               |                |                          [4]{}: instr 0x5a-0x5b.7 (2)
0x50|                              0c               |          .     |                            br: 0xc (valid) 0x5a-0x5a.7 (1)
0x50|                                 01            |           .    |                            l: 1 0x5b-0x5b.7 (1)
0x50|                                    0b         |            .   |                        end: 11 (valid) 0x5c-0x5c.7 (1)
0x50|                                       0b      |             .  |                    end: 11 (valid) 0x5d-0x5d.7 (1)
    |                                               |                |                  [1]{}: in 0x5e-0x5f.7 (2)
0x50|                                          20   |                |                    local.get: 0x20 (valid) 0x5e-0x5e.7 (1)
0x50|                                             00|               .|                    x: 0 0x5f-0x5f.7 (1)
    |                                               |                |                  [2]{}: in 0x60-0x60.7 (1)
0x60|0f                                             |.               |                    return: 0xf (valid) 0x60-0x60.7 (1)
    |                                               |                |                  [3]{}: in 0x61-0x61.7 (1)
0x60|   0b                                          | .              |                    end: 0xb (valid) 0x61-0x61.7 (1)
    |                                               |                |            [1]{}: code 0x62-0x6e.7 (13)
0x60|      0c                                       |  .             |              size: 12 0x62-0x62.7 (1)
    |                                               |                |              code{}: 0x63-0x6e.7 (12)
    |                                               |                |                t{}: 0x63-0x63.7 (1)
0x60|         00                                    |   .            |                  n: 0 0x63-0x63.7 (1)
    |                                               |                |                  x[0:0]: 0x64-NA (0)
    |                                               |                |                e[0:5]: 0x64-0x6e.7 (11)
    |                                               |                |                  [0]{}: in 0x64-0x65.7 (2)
0x60|            41                                 |    A           |                    i32.const: 0x41 (valid) 0x64-0x64.7 (1)
0x60|               12                              |     .          |                    n: 18 0x65-0x65.7 (1)
    |                                               |                |                  [1]{}: in 0x66-0x68.7 (3)
0x60|                  41                           |      A         |                    i32.const: 0x41 (valid) 0x66-0x66.7 (1)
0x60|                     d5 00                     |       ..       |                    n: 85 0x67-0x68.7 (2)
    |                                               |                |                  [2]{}: in 0x69-0x6a.7 (2)
0x60|                           41                  |         A      |                    i32.const: 0x41 (valid) 0x69-0x69.7 (1)
0x60|                              00               |          .     |                    n: 0 0x6a-0x6a.7 (1)
    |                                               |                |                  [3]{}: in 0x6b-0x6d.7 (3)
0x60|                                 fc            |           .    |                    prefix: 0xfc (valid) 0x6b-0x6b.7 (1)
0x60|                                    0b         |            .   |                    memory.fill: 11 (valid) 0x6c-0x6c.7 (1)
0x60|                                       00      |             .  |                    reserved: 0x0 (valid) 0x6d-0x6d.7 (1)
    |                                               |                |                  [4]{}: in 0x6e-0x6e.7 (1)
0x60|                                          0b|  |              .||                    end: 0xb (valid) 0x6e-0x6e.7 (1)
