$ fq -d wasm dv memory_init-9.wasm
    |00 01 02 03 04 05 06 07 08 09 0a 0b 0c 0d 0e 0f|0123456789abcdef|.{}: memory_init-9.wasm (wasm) 0x0-0x3b (59)
0x00|00 61 73 6d                                    |.asm            |  magic: raw bits (valid) 0x0-0x4 (4)
0x00|            01 00 00 00                        |    ....        |  version: 1 0x4-0x8 (4)
    |                                               |                |  sections[0:7]: 0x8-0x3b (51)
    |                                               |                |    [0]{}: section 0x8-0xe (6)
0x00|                        01                     |        .       |      id: "type_section" (1) 0x8-0x9 (1)
0x00|                           04                  |         .      |      size: 4 (valid) 0x9-0xa (1)
    |                                               |                |      content{}: 0xa-0xe (4)
    |                                               |                |        ft{}: 0xa-0xe (4)
0x00|                              01               |          .     |          n: 1 (valid) 0xa-0xb (1)
    |                                               |                |          x[0:1]: 0xb-0xe (3)
    |                                               |                |            [0]{}: ft 0xb-0xe (3)
0x00|                                 60            |           `    |              tag: 0x60 (valid) 0xb-0xc (1)
    |                                               |                |              rt1{}: 0xc-0xd (1)
0x00|                                    00         |            .   |                n: 0 (valid) 0xc-0xd (1)
    |                                               |                |                x[0:0]: 0xd-0xd (0)
    |                                               |                |              rt2{}: 0xd-0xe (1)
0x00|                                       00      |             .  |                n: 0 (valid) 0xd-0xe (1)
    |                                               |                |                x[0:0]: 0xe-0xe (0)
    |                                               |                |    [1]{}: section 0xe-0x12 (4)
0x00|                                          03   |              . |      id: "function_section" (3) 0xe-0xf (1)
0x00|                                             02|               .|      size: 2 (valid) 0xf-0x10 (1)
    |                                               |                |      content{}: 0x10-0x12 (2)
    |                                               |                |        x{}: 0x10-0x12 (2)
0x10|01                                             |.               |          n: 1 (valid) 0x10-0x11 (1)
    |                                               |                |          x[0:1]: 0x11-0x12 (1)
0x10|   00                                          | .              |            [0]: 0 x (valid) 0x11-0x12 (1)
    |                                               |                |    [2]{}: section 0x12-0x17 (5)
0x10|      05                                       |  .             |      id: "memory_section" (5) 0x12-0x13 (1)
0x10|         03                                    |   .            |      size: 3 (valid) 0x13-0x14 (1)
    |                                               |                |      content{}: 0x14-0x17 (3)
    |                                               |                |        mem{}: 0x14-0x17 (3)
0x10|            01                                 |    .           |          n: 1 (valid) 0x14-0x15 (1)
    |                                               |                |          x[0:1]: 0x15-0x17 (2)
    |                                               |                |            [0]{}: mem 0x15-0x17 (2)
    |                                               |                |              lim{}: 0x15-0x17 (2)
0x10|               00                              |     .          |                tag: 0x0 0x15-0x16 (1)
0x10|                  01                           |      .         |                n: 1 (valid) 0x16-0x17 (1)
    |                                               |                |    [3]{}: section 0x17-0x21 (10)
0x10|                     07                        |       .        |      id: "export_section" (7) 0x17-0x18 (1)
0x10|                        08                     |        .       |      size: 8 (valid) 0x18-0x19 (1)
    |                                               |                |      content{}: 0x19-0x21 (8)
    |                                               |                |        ex{}: 0x19-0x21 (8)
0x10|                           01                  |         .      |          n: 1 (valid) 0x19-0x1a (1)
    |                                               |                |          x[0:1]: 0x1a-0x21 (7)
    |                                               |                |            [0]{}: ex 0x1a-0x21 (7)
    |                                               |                |              nm{}: 0x1a-0x1f (5)
0x10|                              04               |          .     |                n: 4 (valid) 0x1a-0x1b (1)
0x10|                                 74 65 73 74   |           test |                b: "test" 0x1b-0x1f (4)
    |                                               |                |              d{}: 0x1f-0x21 (2)
0x10|                                             00|               .|                tag: "funcidx" (0x0) 0x1f-0x20 (1)
0x20|00                                             |.               |                x: 0 (valid) 0x20-0x21 (1)
    |                                               |                |    [4]{}: section 0x21-0x24 (3)
0x20|   0c                                          | .              |      id: "data_count_section" (12) 0x21-0x22 (1)
0x20|      01                                       |  .             |      size: 1 (valid) 0x22-0x23 (1)
    |                                               |                |      content{}: 0x23-0x24 (1)
0x20|         01                                    |   .            |        n: 1 (valid) 0x23-0x24 (1)
    |                                               |                |    [5]{}: section 0x24-0x35 (17)
0x20|            0a                                 |    .           |      id: "code_section" (10) 0x24-0x25 (1)
0x20|               0f                              |     .          |      size: 15 (valid) 0x25-0x26 (1)
    |                                               |                |      content{}: 0x26-0x35 (15)
    |                                               |                |        code{}: 0x26-0x35 (15)
0x20|                  01                           |      .         |          n: 1 (valid) 0x26-0x27 (1)
    |                                               |                |          x[0:1]: 0x27-0x35 (14)
    |                                               |                |            [0]{}: code 0x27-0x35 (14)
0x20|                     0d                        |       .        |              size: 13 (valid) 0x27-0x28 (1)
    |                                               |                |              code{}: 0x28-0x35 (13)
    |                                               |                |                t{}: 0x28-0x29 (1)
0x20|                        00                     |        .       |                  n: 0 (valid) 0x28-0x29 (1)
    |                                               |                |                  x[0:0]: 0x29-0x29 (0)
    |                                               |                |                e[0:5]: 0x29-0x35 (12)
    |                                               |                |                  [0]{}: in 0x29-0x2c (3)
0x20|                           41                  |         A      |                    opcode: "i32.const" (0x41) 0x29-0x2a (1)
0x20|                              d2 09            |          ..    |                    n: 1234 (valid) 0x2a-0x2c (2)
    |                                               |                |                  [1]{}: in 0x2c-0x2e (2)
0x20|                                    41         |            A   |                    opcode: "i32.const" (0x41) 0x2c-0x2d (1)
0x20|                                       02      |             .  |                    n: 2 (valid) 0x2d-0x2e (1)
    |                                               |                |                  [2]{}: in 0x2e-0x30 (2)
0x20|                                          41   |              A |                    opcode: "i32.const" (0x41) 0x2e-0x2f (1)
0x20|                                             03|               .|                    n: 3 (valid) 0x2f-0x30 (1)
    |                                               |                |                  [3]{}: in 0x30-0x34 (4)
0x30|fc                                             |.               |                    opcode: "prefix" (0xfc) 0x30-0x31 (1)
0x30|   08                                          | .              |                    p_opcode: "memory.init" (8) 0x31-0x32 (1)
0x30|      00                                       |  .             |                    x: 0 (valid) 0x32-0x33 (1)
0x30|         00                                    |   .            |                    reserved: 0x0 (valid) 0x33-0x34 (1)
    |                                               |                |                  [4]{}: in 0x34-0x35 (1)
0x30|            0b                                 |    .           |                    opcode: "end" (0xb) 0x34-0x35 (1)
    |                                               |                |    [6]{}: section 0x35-0x3b (6)
0x30|               0b                              |     .          |      id: "data_section" (11) 0x35-0x36 (1)
0x30|                  04                           |      .         |      size: 4 (valid) 0x36-0x37 (1)
    |                                               |                |      content{}: 0x37-0x3b (4)
    |                                               |                |        seg{}: 0x37-0x3b (4)
0x30|                     01                        |       .        |          n: 1 (valid) 0x37-0x38 (1)
    |                                               |                |          x[0:1]: 0x38-0x3b (3)
    |                                               |                |            [0]{}: seg 0x38-0x3b (3)
0x30|                        01                     |        .       |              tag: 1 (valid) 0x38-0x39 (1)
    |                                               |                |              b{}: 0x39-0x3b (2)
0x30|                           01                  |         .      |                n: 1 (valid) 0x39-0x3a (1)
0x30|                              37|              |          7|    |                x: raw bits 0x3a-0x3b (1)
