$ fq -d wasm dv memory_copy-17.wasm
    |00 01 02 03 04 05 06 07 08 09 0a 0b 0c 0d 0e 0f|0123456789abcdef|.{}: memory_copy-17.wasm (wasm) 0x0-0x6e.7 (111)
0x00|00 61 73 6d                                    |.asm            |  magic: raw bits (valid) 0x0-0x3.7 (4)
0x00|            01 00 00 00                        |    ....        |  version: 1 0x4-0x7.7 (4)
    |                                               |                |  sections[0:6]: 0x8-0x6e.7 (103)
    |                                               |                |    [0]{}: section 0x8-0x15.7 (14)
0x00|                        01                     |        .       |      id: "type section" (1) 0x8-0x8.7 (1)
0x00|                           0c                  |         .      |      size: 12 0x9-0x9.7 (1)
    |                                               |                |      content{}: 0xa-0x15.7 (12)
    |                                               |                |        ft{}: 0xa-0x15.7 (12)
0x00|                              02               |          .     |          n: 2 0xa-0xa.7 (1)
    |                                               |                |          x[0:2]: 0xb-0x15.7 (11)
    |                                               |                |            [0]{}: ft 0xb-0x10.7 (6)
0x00|                                 60            |           `    |              tag: 0x60 (valid) 0xb-0xb.7 (1)
    |                                               |                |              rt1{}: 0xc-0xf.7 (4)
0x00|                                    03         |            .   |                n: 3 0xc-0xc.7 (1)
    |                                               |                |                x[0:3]: 0xd-0xf.7 (3)
0x00|                                       7f      |             .  |                  [0]: "i32" (0x7f) t 0xd-0xd.7 (1)
0x00|                                          7f   |              . |                  [1]: "i32" (0x7f) t 0xe-0xe.7 (1)
0x00|                                             7f|               .|                  [2]: "i32" (0x7f) t 0xf-0xf.7 (1)
    |                                               |                |              rt2{}: 0x10-0x10.7 (1)
0x10|00                                             |.               |                n: 0 0x10-0x10.7 (1)
    |                                               |                |                x[0:0]: 0x11-NA (0)
    |                                               |                |            [1]{}: ft 0x11-0x15.7 (5)
0x10|   60                                          | `              |              tag: 0x60 (valid) 0x11-0x11.7 (1)
    |                                               |                |              rt1{}: 0x12-0x13.7 (2)
0x10|      01                                       |  .             |                n: 1 0x12-0x12.7 (1)
    |                                               |                |                x[0:1]: 0x13-0x13.7 (1)
0x10|         7f                                    |   .            |                  [0]: "i32" (0x7f) t 0x13-0x13.7 (1)
    |                                               |                |              rt2{}: 0x14-0x15.7 (2)
0x10|            01                                 |    .           |                n: 1 0x14-0x14.7 (1)
    |                                               |                |                x[0:1]: 0x15-0x15.7 (1)
0x10|               7f                              |     .          |                  [0]: "i32" (0x7f) t 0x15-0x15.7 (1)
    |                                               |                |    [1]{}: section 0x16-0x1a.7 (5)
0x10|                  03                           |      .         |      id: "function section" (3) 0x16-0x16.7 (1)
0x10|                     03                        |       .        |      size: 3 0x17-0x17.7 (1)
    |                                               |                |      content{}: 0x18-0x1a.7 (3)
    |                                               |                |        x{}: 0x18-0x1a.7 (3)
0x10|                        02                     |        .       |          n: 2 0x18-0x18.7 (1)
    |                                               |                |          x[0:2]: 0x19-0x1a.7 (2)
0x10|                           00                  |         .      |            [0]: 0 x 0x19-0x19.7 (1)
0x10|                              01               |          .     |            [1]: 1 x 0x1a-0x1a.7 (1)
    |                                               |                |    [2]{}: section 0x1b-0x1f.7 (5)
0x10|                                 05            |           .    |      id: "memory section" (5) 0x1b-0x1b.7 (1)
0x10|                                    03         |            .   |      size: 3 0x1c-0x1c.7 (1)
    |                                               |                |      content{}: 0x1d-0x1f.7 (3)
    |                                               |                |        mem{}: 0x1d-0x1f.7 (3)
0x10|                                       01      |             .  |          n: 1 0x1d-0x1d.7 (1)
    |                                               |                |          x[0:1]: 0x1e-0x1f.7 (2)
    |                                               |                |            [0]{}: mem 0x1e-0x1f.7 (2)
    |                                               |                |              lim{}: 0x1e-0x1f.7 (2)
0x10|                                          00   |              . |                tag: 0x0 0x1e-0x1e.7 (1)
0x10|                                             01|               .|                n: 1 0x1f-0x1f.7 (1)
    |                                               |                |    [3]{}: section 0x20-0x38.7 (25)
0x20|07                                             |.               |      id: "export section" (7) 0x20-0x20.7 (1)
0x20|   17                                          | .              |      size: 23 0x21-0x21.7 (1)
    |                                               |                |      content{}: 0x22-0x38.7 (23)
    |                                               |                |        ex{}: 0x22-0x38.7 (23)
0x20|      03                                       |  .             |          n: 3 0x22-0x22.7 (1)
    |                                               |                |          x[0:3]: 0x23-0x38.7 (22)
    |                                               |                |            [0]{}: ex 0x23-0x28.7 (6)
    |                                               |                |              nm{}: 0x23-0x26.7 (4)
0x20|         03                                    |   .            |                n: 3 0x23-0x23.7 (1)
0x20|            6d 65 6d                           |    mem         |                b: "mem" 0x24-0x26.7 (3)
    |                                               |                |              d{}: 0x27-0x28.7 (2)
0x20|                     02                        |       .        |                tag: "memidx" (0x2) 0x27-0x27.7 (1)
0x20|                        00                     |        .       |                x: 0 0x28-0x28.7 (1)
    |                                               |                |            [1]{}: ex 0x29-0x2e.7 (6)
    |                                               |                |              nm{}: 0x29-0x2c.7 (4)
0x20|                           03                  |         .      |                n: 3 0x29-0x29.7 (1)
0x20|                              72 75 6e         |          run   |                b: "run" 0x2a-0x2c.7 (3)
    |                                               |                |              d{}: 0x2d-0x2e.7 (2)
0x20|                                       00      |             .  |                tag: "funcidx" (0x0) 0x2d-0x2d.7 (1)
0x20|                                          00   |              . |                x: 0 0x2e-0x2e.7 (1)
    |                                               |                |            [2]{}: ex 0x2f-0x38.7 (10)
    |                                               |                |              nm{}: 0x2f-0x36.7 (8)
0x20|                                             07|               .|                n: 7 0x2f-0x2f.7 (1)
0x30|6c 6f 61 64 38 5f 75                           |load8_u         |                b: "load8_u" 0x30-0x36.7 (7)
    |                                               |                |              d{}: 0x37-0x38.7 (2)
0x30|                     00                        |       .        |                tag: "funcidx" (0x0) 0x37-0x37.7 (1)
0x30|                        01                     |        .       |                x: 1 0x38-0x38.7 (1)
    |                                               |                |    [4]{}: section 0x39-0x50.7 (24)
0x30|                           0a                  |         .      |      id: "code section" (10) 0x39-0x39.7 (1)
0x30|                              16               |          .     |      size: 22 0x3a-0x3a.7 (1)
    |                                               |                |      content{}: 0x3b-0x50.7 (22)
    |                                               |                |        code{}: 0x3b-0x50.7 (22)
0x30|                                 02            |           .    |          n: 2 0x3b-0x3b.7 (1)
    |                                               |                |          x[0:2]: 0x3c-0x50.7 (21)
    |                                               |                |            [0]{}: code 0x3c-0x48.7 (13)
0x30|                                    0c         |            .   |              size: 12 0x3c-0x3c.7 (1)
    |                                               |                |              code{}: 0x3d-0x48.7 (12)
    |                                               |                |                t{}: 0x3d-0x3d.7 (1)
0x30|                                       00      |             .  |                  n: 0 0x3d-0x3d.7 (1)
    |                                               |                |                  x[0:0]: 0x3e-NA (0)
    |                                               |                |                e[0:5]: 0x3e-0x48.7 (11)
    |                                               |                |                  [0]{}: in 0x3e-0x3f.7 (2)
0x30|                                          20   |                |                    local.get: 0x20 (valid) 0x3e-0x3e.7 (1)
0x30|                                             00|               .|                    x: 0 0x3f-0x3f.7 (1)
    |                                               |                |                  [1]{}: in 0x40-0x41.7 (2)
0x40|20                                             |                |                    local.get: 0x20 (valid) 0x40-0x40.7 (1)
0x40|   01                                          | .              |                    x: 1 0x41-0x41.7 (1)
    |                                               |                |                  [2]{}: in 0x42-0x43.7 (2)
0x40|      20                                       |                |                    local.get: 0x20 (valid) 0x42-0x42.7 (1)
0x40|         02                                    |   .            |                    x: 2 0x43-0x43.7 (1)
    |                                               |                |                  [3]{}: in 0x44-0x47.7 (4)
0x40|            fc                                 |    .           |                    prefix: 0xfc (valid) 0x44-0x44.7 (1)
0x40|               0a                              |     .          |                    memory.copy: 10 (valid) 0x45-0x45.7 (1)
0x40|                  00                           |      .         |                    reserved1: 0x0 (valid) 0x46-0x46.7 (1)
0x40|                     00                        |       .        |                    reserved2: 0x0 (valid) 0x47-0x47.7 (1)
    |                                               |                |                  [4]{}: in 0x48-0x48.7 (1)
0x40|                        0b                     |        .       |                    end: 0xb (valid) 0x48-0x48.7 (1)
    |                                               |                |            [1]{}: code 0x49-0x50.7 (8)
0x40|                           07                  |         .      |              size: 7 0x49-0x49.7 (1)
    |                                               |                |              code{}: 0x4a-0x50.7 (7)
    |                                               |                |                t{}: 0x4a-0x4a.7 (1)
0x40|                              00               |          .     |                  n: 0 0x4a-0x4a.7 (1)
    |                                               |                |                  x[0:0]: 0x4b-NA (0)
    |                                               |                |                e[0:3]: 0x4b-0x50.7 (6)
    |                                               |                |                  [0]{}: in 0x4b-0x4c.7 (2)
0x40|                                 20            |                |                    local.get: 0x20 (valid) 0x4b-0x4b.7 (1)
0x40|                                    00         |            .   |                    x: 0 0x4c-0x4c.7 (1)
    |                                               |                |                  [1]{}: in 0x4d-0x4f.7 (3)
0x40|                                       2d      |             -  |                    i32.load8_u: 0x2d (valid) 0x4d-0x4d.7 (1)
    |                                               |                |                    m{}: 0x4e-0x4f.7 (2)
0x40|                                          00   |              . |                      a: 0 0x4e-0x4e.7 (1)
0x40|                                             00|               .|                      o: 0 0x4f-0x4f.7 (1)
    |                                               |                |                  [2]{}: in 0x50-0x50.7 (1)
0x50|0b                                             |.               |                    end: 0xb (valid) 0x50-0x50.7 (1)
    |                                               |                |    [5]{}: section 0x51-0x6e.7 (30)
0x50|   0b                                          | .              |      id: "data section" (11) 0x51-0x51.7 (1)
0x50|      1c                                       |  .             |      size: 28 0x52-0x52.7 (1)
    |                                               |                |      content{}: 0x53-0x6e.7 (28)
    |                                               |                |        seg{}: 0x53-0x6e.7 (28)
0x50|         01                                    |   .            |          n: 1 0x53-0x53.7 (1)
    |                                               |                |          x[0:1]: 0x54-0x6e.7 (27)
    |                                               |                |            [0]{}: seg 0x54-0x6e.7 (27)
0x50|            00                                 |    .           |              tag: 0 0x54-0x54.7 (1)
    |                                               |                |              e[0:2]: 0x55-0x59.7 (5)
    |                                               |                |                [0]{}: in 0x55-0x58.7 (4)
0x50|               41                              |     A          |                  i32.const: 0x41 (valid) 0x55-0x55.7 (1)
0x50|                  ec ff 03                     |      ...       |                  n: 65516 0x56-0x58.7 (3)
    |                                               |                |                [1]{}: in 0x59-0x59.7 (1)
0x50|                           0b                  |         .      |                  end: 0xb (valid) 0x59-0x59.7 (1)
    |                                               |                |              b{}: 0x5a-0x6e.7 (21)
0x50|                              14               |          .     |                n: 20 0x5a-0x5a.7 (1)
0x50|                                 00 01 02 03 04|           .....|                x: raw bits 0x5b-0x6e.7 (20)
0x60|05 06 07 08 09 0a 0b 0c 0d 0e 0f 10 11 12 13|  |...............||
