$ fq -d wasm dv memory-6.wasm
    |00 01 02 03 04 05 06 07 08 09 0a 0b 0c 0d 0e 0f|0123456789abcdef|.{}: memory-6.wasm (wasm) 0x0-0x35.7 (54)
0x00|00 61 73 6d                                    |.asm            |  magic: raw bits (valid) 0x0-0x3.7 (4)
0x00|            01 00 00 00                        |    ....        |  version: 1 0x4-0x7.7 (4)
    |                                               |                |  sections[0:6]: 0x8-0x35.7 (46)
    |                                               |                |    [0]{}: section 0x8-0xe.7 (7)
0x00|                        01                     |        .       |      id: "type section" (1) 0x8-0x8.7 (1)
0x00|                           05                  |         .      |      size: 5 0x9-0x9.7 (1)
    |                                               |                |      content{}: 0xa-0xe.7 (5)
    |                                               |                |        ft{}: 0xa-0xe.7 (5)
0x00|                              01               |          .     |          n: 1 0xa-0xa.7 (1)
    |                                               |                |          x[0:1]: 0xb-0xe.7 (4)
    |                                               |                |            [0]{}: ft 0xb-0xe.7 (4)
0x00|                                 60            |           `    |              tag: 0x60 (valid) 0xb-0xb.7 (1)
    |                                               |                |              rt1{}: 0xc-0xc.7 (1)
0x00|                                    00         |            .   |                n: 0 0xc-0xc.7 (1)
    |                                               |                |                x[0:0]: 0xd-NA (0)
    |                                               |                |              rt2{}: 0xd-0xe.7 (2)
0x00|                                       01      |             .  |                n: 1 0xd-0xd.7 (1)
    |                                               |                |                x[0:1]: 0xe-0xe.7 (1)
0x00|                                          7f   |              . |                  [0]: "i32" (0x7f) t 0xe-0xe.7 (1)
    |                                               |                |    [1]{}: section 0xf-0x12.7 (4)
0x00|                                             03|               .|      id: "function section" (3) 0xf-0xf.7 (1)
0x10|02                                             |.               |      size: 2 0x10-0x10.7 (1)
    |                                               |                |      content{}: 0x11-0x12.7 (2)
    |                                               |                |        x{}: 0x11-0x12.7 (2)
0x10|   01                                          | .              |          n: 1 0x11-0x11.7 (1)
    |                                               |                |          x[0:1]: 0x12-0x12.7 (1)
0x10|      00                                       |  .             |            [0]: 0 x 0x12-0x12.7 (1)
    |                                               |                |    [2]{}: section 0x13-0x18.7 (6)
0x10|         05                                    |   .            |      id: "memory section" (5) 0x13-0x13.7 (1)
0x10|            04                                 |    .           |      size: 4 0x14-0x14.7 (1)
    |                                               |                |      content{}: 0x15-0x18.7 (4)
    |                                               |                |        mem{}: 0x15-0x18.7 (4)
0x10|               01                              |     .          |          n: 1 0x15-0x15.7 (1)
    |                                               |                |          x[0:1]: 0x16-0x18.7 (3)
    |                                               |                |            [0]{}: mem 0x16-0x18.7 (3)
    |                                               |                |              lim{}: 0x16-0x18.7 (3)
0x10|                  01                           |      .         |                tag: 0x1 0x16-0x16.7 (1)
0x10|                     00                        |       .        |                n: 0 0x17-0x17.7 (1)
0x10|                        00                     |        .       |                m: 0 0x18-0x18.7 (1)
    |                                               |                |    [3]{}: section 0x19-0x25.7 (13)
0x10|                           07                  |         .      |      id: "export section" (7) 0x19-0x19.7 (1)
0x10|                              0b               |          .     |      size: 11 0x1a-0x1a.7 (1)
    |                                               |                |      content{}: 0x1b-0x25.7 (11)
    |                                               |                |        ex{}: 0x1b-0x25.7 (11)
0x10|                                 01            |           .    |          n: 1 0x1b-0x1b.7 (1)
    |                                               |                |          x[0:1]: 0x1c-0x25.7 (10)
    |                                               |                |            [0]{}: ex 0x1c-0x25.7 (10)
    |                                               |                |              nm{}: 0x1c-0x23.7 (8)
0x10|                                    07         |            .   |                n: 7 0x1c-0x1c.7 (1)
0x10|                                       6d 65 6d|             mem|                b: "memsize" 0x1d-0x23.7 (7)
0x20|73 69 7a 65                                    |size            |
    |                                               |                |              d{}: 0x24-0x25.7 (2)
0x20|            00                                 |    .           |                tag: "funcidx" (0x0) 0x24-0x24.7 (1)
0x20|               00                              |     .          |                x: 0 0x25-0x25.7 (1)
    |                                               |                |    [4]{}: section 0x26-0x2d.7 (8)
0x20|                  0a                           |      .         |      id: "code section" (10) 0x26-0x26.7 (1)
0x20|                     06                        |       .        |      size: 6 0x27-0x27.7 (1)
    |                                               |                |      content{}: 0x28-0x2d.7 (6)
    |                                               |                |        code{}: 0x28-0x2d.7 (6)
0x20|                        01                     |        .       |          n: 1 0x28-0x28.7 (1)
    |                                               |                |          x[0:1]: 0x29-0x2d.7 (5)
    |                                               |                |            [0]{}: code 0x29-0x2d.7 (5)
0x20|                           04                  |         .      |              size: 4 0x29-0x29.7 (1)
    |                                               |                |              code{}: 0x2a-0x2d.7 (4)
    |                                               |                |                t{}: 0x2a-0x2a.7 (1)
0x20|                              00               |          .     |                  n: 0 0x2a-0x2a.7 (1)
    |                                               |                |                  x[0:0]: 0x2b-NA (0)
    |                                               |                |                e[0:2]: 0x2b-0x2d.7 (3)
    |                                               |                |                  [0]{}: in 0x2b-0x2c.7 (2)
0x20|                                 3f            |           ?    |                    memory.size: 0x3f (valid) 0x2b-0x2b.7 (1)
0x20|                                    00         |            .   |                    reserved: 0x0 (valid) 0x2c-0x2c.7 (1)
    |                                               |                |                  [1]{}: in 0x2d-0x2d.7 (1)
0x20|                                       0b      |             .  |                    end: 0xb (valid) 0x2d-0x2d.7 (1)
    |                                               |                |    [5]{}: section 0x2e-0x35.7 (8)
0x20|                                          0b   |              . |      id: "data section" (11) 0x2e-0x2e.7 (1)
0x20|                                             06|               .|      size: 6 0x2f-0x2f.7 (1)
    |                                               |                |      content{}: 0x30-0x35.7 (6)
    |                                               |                |        seg{}: 0x30-0x35.7 (6)
0x30|01                                             |.               |          n: 1 0x30-0x30.7 (1)
    |                                               |                |          x[0:1]: 0x31-0x35.7 (5)
    |                                               |                |            [0]{}: seg 0x31-0x35.7 (5)
0x30|   00                                          | .              |              tag: 0 0x31-0x31.7 (1)
    |                                               |                |              e[0:2]: 0x32-0x34.7 (3)
    |                                               |                |                [0]{}: in 0x32-0x33.7 (2)
0x30|      41                                       |  A             |                  i32.const: 0x41 (valid) 0x32-0x32.7 (1)
0x30|         00                                    |   .            |                  n: 0 0x33-0x33.7 (1)
    |                                               |                |                [1]{}: in 0x34-0x34.7 (1)
0x30|            0b                                 |    .           |                  end: 0xb (valid) 0x34-0x34.7 (1)
    |                                               |                |              b{}: 0x35-0x35.7 (1)
0x30|               00|                             |     .|         |                n: 0 0x35-0x35.7 (1)
    |                                               |                |                x: raw bits 0x36-NA (0)
