$ fq -d wasm dv memory_grow-4.wasm
     |00 01 02 03 04 05 06 07 08 09 0a 0b 0c 0d 0e 0f|0123456789abcdef|.{}: memory_grow-4.wasm (wasm) 0x0-0x4fc (1276)
0x000|00 61 73 6d                                    |.asm            |  magic: raw bits (valid) 0x0-0x4 (4)
0x000|            01 00 00 00                        |    ....        |  version: 1 0x4-0x8 (4)
     |                                               |                |  sections[0:8]: 0x8-0x4fc (1268)
     |                                               |                |    [0]{}: section 0x8-0x1f (23)
0x000|                        01                     |        .       |      id: "type_section" (1) 0x8-0x9 (1)
0x000|                           15                  |         .      |      size: 21 (valid) 0x9-0xa (1)
     |                                               |                |      content{}: 0xa-0x1f (21)
     |                                               |                |        ft{}: 0xa-0x1f (21)
0x000|                              04               |          .     |          n: 4 (valid) 0xa-0xb (1)
     |                                               |                |          x[0:4]: 0xb-0x1f (20)
     |                                               |                |            [0]{}: ft 0xb-0x12 (7)
0x000|                                 60            |           `    |              tag: 0x60 (valid) 0xb-0xc (1)
     |                                               |                |              rt1{}: 0xc-0x10 (4)
0x000|                                    03         |            .   |                n: 3 (valid) 0xc-0xd (1)
     |                                               |                |                x[0:3]: 0xd-0x10 (3)
0x000|                                       7f      |             .  |                  [0]: "i32" (0x7f) t 0xd-0xe (1)
0x000|                                          7f   |              . |                  [1]: "i32" (0x7f) t 0xe-0xf (1)
0x000|                                             7f|               .|                  [2]: "i32" (0x7f) t 0xf-0x10 (1)
     |                                               |                |              rt2{}: 0x10-0x12 (2)
0x010|01                                             |.               |                n: 1 (valid) 0x10-0x11 (1)
     |                                               |                |                x[0:1]: 0x11-0x12 (1)
0x010|   7f                                          | .              |                  [0]: "i32" (0x7f) t 0x11-0x12 (1)
     |                                               |                |            [1]{}: ft 0x12-0x16 (4)
0x010|      60                                       |  `             |              tag: 0x60 (valid) 0x12-0x13 (1)
     |                                               |                |              rt1{}: 0x13-0x14 (1)
0x010|         00                                    |   .            |                n: 0 (valid) 0x13-0x14 (1)
     |                                               |                |                x[0:0]: 0x14-0x14 (0)
     |                                               |                |              rt2{}: 0x14-0x16 (2)
0x010|            01                                 |    .           |                n: 1 (valid) 0x14-0x15 (1)
     |                                               |                |                x[0:1]: 0x15-0x16 (1)
0x010|               7f                              |     .          |                  [0]: "i32" (0x7f) t 0x15-0x16 (1)
     |                                               |                |            [2]{}: ft 0x16-0x19 (3)
0x010|                  60                           |      `         |              tag: 0x60 (valid) 0x16-0x17 (1)
     |                                               |                |              rt1{}: 0x17-0x18 (1)
0x010|                     00                        |       .        |                n: 0 (valid) 0x17-0x18 (1)
     |                                               |                |                x[0:0]: 0x18-0x18 (0)
     |                                               |                |              rt2{}: 0x18-0x19 (1)
0x010|                        00                     |        .       |                n: 0 (valid) 0x18-0x19 (1)
     |                                               |                |                x[0:0]: 0x19-0x19 (0)
     |                                               |                |            [3]{}: ft 0x19-0x1f (6)
0x010|                           60                  |         `      |              tag: 0x60 (valid) 0x19-0x1a (1)
     |                                               |                |              rt1{}: 0x1a-0x1d (3)
0x010|                              02               |          .     |                n: 2 (valid) 0x1a-0x1b (1)
     |                                               |                |                x[0:2]: 0x1b-0x1d (2)
0x010|                                 7f            |           .    |                  [0]: "i32" (0x7f) t 0x1b-0x1c (1)
0x010|                                    7f         |            .   |                  [1]: "i32" (0x7f) t 0x1c-0x1d (1)
     |                                               |                |              rt2{}: 0x1d-0x1f (2)
0x010|                                       01      |             .  |                n: 1 (valid) 0x1d-0x1e (1)
     |                                               |                |                x[0:1]: 0x1e-0x1f (1)
0x010|                                          7f   |              . |                  [0]: "i32" (0x7f) t 0x1e-0x1f (1)
     |                                               |                |    [1]{}: section 0x1f-0x48 (41)
0x010|                                             03|               .|      id: "function_section" (3) 0x1f-0x20 (1)
0x020|27                                             |'               |      size: 39 (valid) 0x20-0x21 (1)
     |                                               |                |      content{}: 0x21-0x48 (39)
     |                                               |                |        x{}: 0x21-0x48 (39)
0x020|   26                                          | &              |          n: 38 (valid) 0x21-0x22 (1)
     |                                               |                |          x[0:38]: 0x22-0x48 (38)
0x020|      01                                       |  .             |            [0]: 1 x (valid) 0x22-0x23 (1)
0x020|         02                                    |   .            |            [1]: 2 x (valid) 0x23-0x24 (1)
0x020|            01                                 |    .           |            [2]: 1 x (valid) 0x24-0x25 (1)
0x020|               01                              |     .          |            [3]: 1 x (valid) 0x25-0x26 (1)
0x020|                  02                           |      .         |            [4]: 2 x (valid) 0x26-0x27 (1)
0x020|                     01                        |       .        |            [5]: 1 x (valid) 0x27-0x28 (1)
0x020|                        01                     |        .       |            [6]: 1 x (valid) 0x28-0x29 (1)
0x020|                           01                  |         .      |            [7]: 1 x (valid) 0x29-0x2a (1)
0x020|                              01               |          .     |            [8]: 1 x (valid) 0x2a-0x2b (1)
0x020|                                 01            |           .    |            [9]: 1 x (valid) 0x2b-0x2c (1)
0x020|                                    01         |            .   |            [10]: 1 x (valid) 0x2c-0x2d (1)
0x020|                                       03      |             .  |            [11]: 3 x (valid) 0x2d-0x2e (1)
0x020|                                          03   |              . |            [12]: 3 x (valid) 0x2e-0x2f (1)
0x020|                                             01|               .|            [13]: 1 x (valid) 0x2f-0x30 (1)
0x030|00                                             |.               |            [14]: 0 x (valid) 0x30-0x31 (1)
0x030|   01                                          | .              |            [15]: 1 x (valid) 0x31-0x32 (1)
0x030|      01                                       |  .             |            [16]: 1 x (valid) 0x32-0x33 (1)
0x030|         01                                    |   .            |            [17]: 1 x (valid) 0x33-0x34 (1)
0x030|            01                                 |    .           |            [18]: 1 x (valid) 0x34-0x35 (1)
0x030|               01                              |     .          |            [19]: 1 x (valid) 0x35-0x36 (1)
0x030|                  01                           |      .         |            [20]: 1 x (valid) 0x36-0x37 (1)
0x030|                     01                        |       .        |            [21]: 1 x (valid) 0x37-0x38 (1)
0x030|                        02                     |        .       |            [22]: 2 x (valid) 0x38-0x39 (1)
0x030|                           01                  |         .      |            [23]: 1 x (valid) 0x39-0x3a (1)
0x030|                              02               |          .     |            [24]: 2 x (valid) 0x3a-0x3b (1)
0x030|                                 01            |           .    |            [25]: 1 x (valid) 0x3b-0x3c (1)
0x030|                                    01         |            .   |            [26]: 1 x (valid) 0x3c-0x3d (1)
0x030|                                       02      |             .  |            [27]: 2 x (valid) 0x3d-0x3e (1)
0x030|                                          02   |              . |            [28]: 2 x (valid) 0x3e-0x3f (1)
0x030|                                             02|               .|            [29]: 2 x (valid) 0x3f-0x40 (1)
0x040|02                                             |.               |            [30]: 2 x (valid) 0x40-0x41 (1)
0x040|   01                                          | .              |            [31]: 1 x (valid) 0x41-0x42 (1)
0x040|      01                                       |  .             |            [32]: 1 x (valid) 0x42-0x43 (1)
0x040|         01                                    |   .            |            [33]: 1 x (valid) 0x43-0x44 (1)
0x040|            01                                 |    .           |            [34]: 1 x (valid) 0x44-0x45 (1)
0x040|               01                              |     .          |            [35]: 1 x (valid) 0x45-0x46 (1)
0x040|                  01                           |      .         |            [36]: 1 x (valid) 0x46-0x47 (1)
0x040|                     01                        |       .        |            [37]: 1 x (valid) 0x47-0x48 (1)
     |                                               |                |    [2]{}: section 0x48-0x4f (7)
0x040|                        04                     |        .       |      id: "table_section" (4) 0x48-0x49 (1)
0x040|                           05                  |         .      |      size: 5 (valid) 0x49-0x4a (1)
     |                                               |                |      content{}: 0x4a-0x4f (5)
     |                                               |                |        tab{}: 0x4a-0x4f (5)
0x040|                              01               |          .     |          n: 1 (valid) 0x4a-0x4b (1)
     |                                               |                |          x[0:1]: 0x4b-0x4f (4)
     |                                               |                |            [0]{}: tab 0x4b-0x4f (4)
0x040|                                 70            |           p    |              et: "funcref" (112) 0x4b-0x4c (1)
     |                                               |                |              lim{}: 0x4c-0x4f (3)
0x040|                                    01         |            .   |                tag: 0x1 0x4c-0x4d (1)
0x040|                                       01      |             .  |                n: 1 (valid) 0x4d-0x4e (1)
0x040|                                          01   |              . |                m: 1 (valid) 0x4e-0x4f (1)
     |                                               |                |    [3]{}: section 0x4f-0x54 (5)
0x040|                                             05|               .|      id: "memory_section" (5) 0x4f-0x50 (1)
0x050|03                                             |.               |      size: 3 (valid) 0x50-0x51 (1)
     |                                               |                |      content{}: 0x51-0x54 (3)
     |                                               |                |        mem{}: 0x51-0x54 (3)
0x050|   01                                          | .              |          n: 1 (valid) 0x51-0x52 (1)
     |                                               |                |          x[0:1]: 0x52-0x54 (2)
     |                                               |                |            [0]{}: mem 0x52-0x54 (2)
     |                                               |                |              lim{}: 0x52-0x54 (2)
0x050|      00                                       |  .             |                tag: 0x0 0x52-0x53 (1)
0x050|         01                                    |   .            |                n: 1 (valid) 0x53-0x54 (1)
     |                                               |                |    [4]{}: section 0x54-0x5c (8)
0x050|            06                                 |    .           |      id: "global_section" (6) 0x54-0x55 (1)
0x050|               06                              |     .          |      size: 6 (valid) 0x55-0x56 (1)
     |                                               |                |      content{}: 0x56-0x5c (6)
     |                                               |                |        glob{}: 0x56-0x5c (6)
0x050|                  01                           |      .         |          n: 1 (valid) 0x56-0x57 (1)
     |                                               |                |          x[0:1]: 0x57-0x5c (5)
     |                                               |                |            [0]{}: glob 0x57-0x5c (5)
     |                                               |                |              gt{}: 0x57-0x59 (2)
0x050|                     7f                        |       .        |                t: "i32" (0x7f) 0x57-0x58 (1)
0x050|                        01                     |        .       |                m: "var" (1) 0x58-0x59 (1)
     |                                               |                |              e[0:2]: 0x59-0x5c (3)
     |                                               |                |                [0]{}: in 0x59-0x5b (2)
0x050|                           41                  |         A      |                  opcode: "i32.const" (0x41) 0x59-0x5a (1)
0x050|                              00               |          .     |                  n: 0 (valid) 0x5a-0x5b (1)
     |                                               |                |                [1]{}: in 0x5b-0x5c (1)
0x050|                                 0b            |           .    |                  opcode: "end" (0xb) 0x5b-0x5c (1)
     |                                               |                |    [5]{}: section 0x5c-0x316 (698)
0x050|                                    07         |            .   |      id: "export_section" (7) 0x5c-0x5d (1)
0x050|                                       b7 05   |             .. |      size: 695 (valid) 0x5d-0x5f (2)
     |                                               |                |      content{}: 0x5f-0x316 (695)
     |                                               |                |        ex{}: 0x5f-0x316 (695)
0x050|                                             25|               %|          n: 37 (valid) 0x5f-0x60 (1)
     |                                               |                |          x[0:37]: 0x60-0x316 (694)
     |                                               |                |            [0]{}: ex 0x60-0x6e (14)
     |                                               |                |              nm{}: 0x60-0x6c (12)
0x060|0b                                             |.               |                n: 11 (valid) 0x60-0x61 (1)
0x060|   61 73 2d 62 72 2d 76 61 6c 75 65            | as-br-value    |                b: "as-br-value" 0x61-0x6c (11)
     |                                               |                |              d{}: 0x6c-0x6e (2)
0x060|                                    00         |            .   |                tag: "funcidx" (0x0) 0x6c-0x6d (1)
0x060|                                       00      |             .  |                x: 0 (valid) 0x6d-0x6e (1)
     |                                               |                |            [1]{}: ex 0x6e-0x7e (16)
     |                                               |                |              nm{}: 0x6e-0x7c (14)
0x060|                                          0d   |              . |                n: 13 (valid) 0x6e-0x6f (1)
0x060|                                             61|               a|                b: "as-br_if-cond" 0x6f-0x7c (13)
0x070|73 2d 62 72 5f 69 66 2d 63 6f 6e 64            |s-br_if-cond    |
     |                                               |                |              d{}: 0x7c-0x7e (2)
0x070|                                    00         |            .   |                tag: "funcidx" (0x0) 0x7c-0x7d (1)
0x070|                                       01      |             .  |                x: 1 (valid) 0x7d-0x7e (1)
     |                                               |                |            [2]{}: ex 0x7e-0x8f (17)
     |                                               |                |              nm{}: 0x7e-0x8d (15)
0x070|                                          0e   |              . |                n: 14 (valid) 0x7e-0x7f (1)
0x070|                                             61|               a|                b: "as-br_if-value" 0x7f-0x8d (14)
0x080|73 2d 62 72 5f 69 66 2d 76 61 6c 75 65         |s-br_if-value   |
     |                                               |                |              d{}: 0x8d-0x8f (2)
0x080|                                       00      |             .  |                tag: "funcidx" (0x0) 0x8d-0x8e (1)
0x080|                                          02   |              . |                x: 2 (valid) 0x8e-0x8f (1)
     |                                               |                |            [3]{}: ex 0x8f-0xa5 (22)
     |                                               |                |              nm{}: 0x8f-0xa3 (20)
0x080|                                             13|               .|                n: 19 (valid) 0x8f-0x90 (1)
0x090|61 73 2d 62 72 5f 69 66 2d 76 61 6c 75 65 2d 63|as-br_if-value-c|                b: "as-br_if-value-cond" 0x90-0xa3 (19)
0x0a0|6f 6e 64                                       |ond             |
     |                                               |                |              d{}: 0xa3-0xa5 (2)
0x0a0|         00                                    |   .            |                tag: "funcidx" (0x0) 0xa3-0xa4 (1)
0x0a0|            03                                 |    .           |                x: 3 (valid) 0xa4-0xa5 (1)
     |                                               |                |            [4]{}: ex 0xa5-0xb9 (20)
     |                                               |                |              nm{}: 0xa5-0xb7 (18)
0x0a0|               11                              |     .          |                n: 17 (valid) 0xa5-0xa6 (1)
0x0a0|                  61 73 2d 62 72 5f 74 61 62 6c|      as-br_tabl|                b: "as-br_table-index" 0xa6-0xb7 (17)
0x0b0|65 2d 69 6e 64 65 78                           |e-index         |
     |                                               |                |              d{}: 0xb7-0xb9 (2)
0x0b0|                     00                        |       .        |                tag: "funcidx" (0x0) 0xb7-0xb8 (1)
0x0b0|                        04                     |        .       |                x: 4 (valid) 0xb8-0xb9 (1)
     |                                               |                |            [5]{}: ex 0xb9-0xcd (20)
     |                                               |                |              nm{}: 0xb9-0xcb (18)
0x0b0|                           11                  |         .      |                n: 17 (valid) 0xb9-0xba (1)
0x0b0|                              61 73 2d 62 72 5f|          as-br_|                b: "as-br_table-value" 0xba-0xcb (17)
0x0c0|74 61 62 6c 65 2d 76 61 6c 75 65               |table-value     |
     |                                               |                |              d{}: 0xcb-0xcd (2)
0x0c0|                                 00            |           .    |                tag: "funcidx" (0x0) 0xcb-0xcc (1)
0x0c0|                                    05         |            .   |                x: 5 (valid) 0xcc-0xcd (1)
     |                                               |                |            [6]{}: ex 0xcd-0xe7 (26)
     |                                               |                |              nm{}: 0xcd-0xe5 (24)
0x0c0|                                       17      |             .  |                n: 23 (valid) 0xcd-0xce (1)
0x0c0|                                          61 73|              as|                b: "as-br_table-value-index" 0xce-0xe5 (23)
0x0d0|2d 62 72 5f 74 61 62 6c 65 2d 76 61 6c 75 65 2d|-br_table-value-|
0x0e0|69 6e 64 65 78                                 |index           |
     |                                               |                |              d{}: 0xe5-0xe7 (2)
0x0e0|               00                              |     .          |                tag: "funcidx" (0x0) 0xe5-0xe6 (1)
0x0e0|                  06                           |      .         |                x: 6 (valid) 0xe6-0xe7 (1)
     |                                               |                |            [7]{}: ex 0xe7-0xf9 (18)
     |                                               |                |              nm{}: 0xe7-0xf7 (16)
0x0e0|                     0f                        |       .        |                n: 15 (valid) 0xe7-0xe8 (1)
0x0e0|                        61 73 2d 72 65 74 75 72|        as-retur|                b: "as-return-value" 0xe8-0xf7 (15)
0x0f0|6e 2d 76 61 6c 75 65                           |n-value         |
     |                                               |                |              d{}: 0xf7-0xf9 (2)
0x0f0|                     00                        |       .        |                tag: "funcidx" (0x0) 0xf7-0xf8 (1)
0x0f0|                        07                     |        .       |                x: 7 (valid) 0xf8-0xf9 (1)
     |                                               |                |            [8]{}: ex 0xf9-0x106 (13)
     |                                               |                |              nm{}: 0xf9-0x104 (11)
0x0f0|                           0a                  |         .      |                n: 10 (valid) 0xf9-0xfa (1)
0x0f0|                              61 73 2d 69 66 2d|          as-if-|                b: "as-if-cond" 0xfa-0x104 (10)
0x100|63 6f 6e 64                                    |cond            |
     |                                               |                |              d{}: 0x104-0x106 (2)
0x100|            00                                 |    .           |                tag: "funcidx" (0x0) 0x104-0x105 (1)
0x100|               08                              |     .          |                x: 8 (valid) 0x105-0x106 (1)
     |                                               |                |            [9]{}: ex 0x106-0x113 (13)
     |                                               |                |              nm{}: 0x106-0x111 (11)
0x100|                  0a                           |      .         |                n: 10 (valid) 0x106-0x107 (1)
0x100|                     61 73 2d 69 66 2d 74 68 65|       as-if-the|                b: "as-if-then" 0x107-0x111 (10)
0x110|6e                                             |n               |
     |                                               |                |              d{}: 0x111-0x113 (2)
0x110|   00                                          | .              |                tag: "funcidx" (0x0) 0x111-0x112 (1)
0x110|      09                                       |  .             |                x: 9 (valid) 0x112-0x113 (1)
     |                                               |                |            [10]{}: ex 0x113-0x120 (13)
     |                                               |                |              nm{}: 0x113-0x11e (11)
0x110|         0a                                    |   .            |                n: 10 (valid) 0x113-0x114 (1)
0x110|            61 73 2d 69 66 2d 65 6c 73 65      |    as-if-else  |                b: "as-if-else" 0x114-0x11e (10)
     |                                               |                |              d{}: 0x11e-0x120 (2)
0x110|                                          00   |              . |                tag: "funcidx" (0x0) 0x11e-0x11f (1)
0x110|                                             0a|               .|                x: 10 (valid) 0x11f-0x120 (1)
     |                                               |                |            [11]{}: ex 0x120-0x132 (18)
     |                                               |                |              nm{}: 0x120-0x130 (16)
0x120|0f                                             |.               |                n: 15 (valid) 0x120-0x121 (1)
0x120|   61 73 2d 73 65 6c 65 63 74 2d 66 69 72 73 74| as-select-first|                b: "as-select-first" 0x121-0x130 (15)
     |                                               |                |              d{}: 0x130-0x132 (2)
0x130|00                                             |.               |                tag: "funcidx" (0x0) 0x130-0x131 (1)
0x130|   0b                                          | .              |                x: 11 (valid) 0x131-0x132 (1)
     |                                               |                |            [12]{}: ex 0x132-0x145 (19)
     |                                               |                |              nm{}: 0x132-0x143 (17)
0x130|      10                                       |  .             |                n: 16 (valid) 0x132-0x133 (1)
0x130|         61 73 2d 73 65 6c 65 63 74 2d 73 65 63|   as-select-sec|                b: "as-select-second" 0x133-0x143 (16)
0x140|6f 6e 64                                       |ond             |
     |                                               |                |              d{}: 0x143-0x145 (2)
0x140|         00                                    |   .            |                tag: "funcidx" (0x0) 0x143-0x144 (1)
0x140|            0c                                 |    .           |                x: 12 (valid) 0x144-0x145 (1)
     |                                               |                |            [13]{}: ex 0x145-0x156 (17)
     |                                               |                |              nm{}: 0x145-0x154 (15)
0x140|               0e                              |     .          |                n: 14 (valid) 0x145-0x146 (1)
0x140|                  61 73 2d 73 65 6c 65 63 74 2d|      as-select-|                b: "as-select-cond" 0x146-0x154 (14)
0x150|63 6f 6e 64                                    |cond            |
     |                                               |                |              d{}: 0x154-0x156 (2)
0x150|            00                                 |    .           |                tag: "funcidx" (0x0) 0x154-0x155 (1)
0x150|               0d                              |     .          |                x: 13 (valid) 0x155-0x156 (1)
     |                                               |                |            [14]{}: ex 0x156-0x166 (16)
     |                                               |                |              nm{}: 0x156-0x164 (14)
0x150|                  0d                           |      .         |                n: 13 (valid) 0x156-0x157 (1)
0x150|                     61 73 2d 63 61 6c 6c 2d 66|       as-call-f|                b: "as-call-first" 0x157-0x164 (13)
0x160|69 72 73 74                                    |irst            |
     |                                               |                |              d{}: 0x164-0x166 (2)
0x160|            00                                 |    .           |                tag: "funcidx" (0x0) 0x164-0x165 (1)
0x160|               0f                              |     .          |                x: 15 (valid) 0x165-0x166 (1)
     |                                               |                |            [15]{}: ex 0x166-0x174 (14)
     |                                               |                |              nm{}: 0x166-0x172 (12)
0x160|                  0b                           |      .         |                n: 11 (valid) 0x166-0x167 (1)
0x160|                     61 73 2d 63 61 6c 6c 2d 6d|       as-call-m|                b: "as-call-mid" 0x167-0x172 (11)
0x170|69 64                                          |id              |
     |                                               |                |              d{}: 0x172-0x174 (2)
0x170|      00                                       |  .             |                tag: "funcidx" (0x0) 0x172-0x173 (1)
0x170|         10                                    |   .            |                x: 16 (valid) 0x173-0x174 (1)
     |                                               |                |            [16]{}: ex 0x174-0x183 (15)
     |                                               |                |              nm{}: 0x174-0x181 (13)
0x170|            0c                                 |    .           |                n: 12 (valid) 0x174-0x175 (1)
0x170|               61 73 2d 63 61 6c 6c 2d 6c 61 73|     as-call-las|                b: "as-call-last" 0x175-0x181 (12)
0x180|74                                             |t               |
     |                                               |                |              d{}: 0x181-0x183 (2)
0x180|   00                                          | .              |                tag: "funcidx" (0x0) 0x181-0x182 (1)
0x180|      11                                       |  .             |                x: 17 (valid) 0x182-0x183 (1)
     |                                               |                |            [17]{}: ex 0x183-0x19c (25)
     |                                               |                |              nm{}: 0x183-0x19a (23)
0x180|         16                                    |   .            |                n: 22 (valid) 0x183-0x184 (1)
0x180|            61 73 2d 63 61 6c 6c 5f 69 6e 64 69|    as-call_indi|                b: "as-call_indirect-first" 0x184-0x19a (22)
0x190|72 65 63 74 2d 66 69 72 73 74                  |rect-first      |
     |                                               |                |              d{}: 0x19a-0x19c (2)
0x190|                              00               |          .     |                tag: "funcidx" (0x0) 0x19a-0x19b (1)
0x190|                                 12            |           .    |                x: 18 (valid) 0x19b-0x19c (1)
     |                                               |                |            [18]{}: ex 0x19c-0x1b3 (23)
     |                                               |                |              nm{}: 0x19c-0x1b1 (21)
0x190|                                    14         |            .   |                n: 20 (valid) 0x19c-0x19d (1)
0x190|                                       61 73 2d|             as-|                b: "as-call_indirect-mid" 0x19d-0x1b1 (20)
0x1a0|63 61 6c 6c 5f 69 6e 64 69 72 65 63 74 2d 6d 69|call_indirect-mi|
0x1b0|64                                             |d               |
     |                                               |                |              d{}: 0x1b1-0x1b3 (2)
0x1b0|   00                                          | .              |                tag: "funcidx" (0x0) 0x1b1-0x1b2 (1)
0x1b0|      13                                       |  .             |                x: 19 (valid) 0x1b2-0x1b3 (1)
     |                                               |                |            [19]{}: ex 0x1b3-0x1cb (24)
     |                                               |                |              nm{}: 0x1b3-0x1c9 (22)
0x1b0|         15                                    |   .            |                n: 21 (valid) 0x1b3-0x1b4 (1)
0x1b0|            61 73 2d 63 61 6c 6c 5f 69 6e 64 69|    as-call_indi|                b: "as-call_indirect-last" 0x1b4-0x1c9 (21)
0x1c0|72 65 63 74 2d 6c 61 73 74                     |rect-last       |
     |                                               |                |              d{}: 0x1c9-0x1cb (2)
0x1c0|                           00                  |         .      |                tag: "funcidx" (0x0) 0x1c9-0x1ca (1)
0x1c0|                              14               |          .     |                x: 20 (valid) 0x1ca-0x1cb (1)
     |                                               |                |            [20]{}: ex 0x1cb-0x1e4 (25)
     |                                               |                |              nm{}: 0x1cb-0x1e2 (23)
0x1c0|                                 16            |           .    |                n: 22 (valid) 0x1cb-0x1cc (1)
0x1c0|                                    61 73 2d 63|            as-c|                b: "as-call_indirect-index" 0x1cc-0x1e2 (22)
0x1d0|61 6c 6c 5f 69 6e 64 69 72 65 63 74 2d 69 6e 64|all_indirect-ind|
0x1e0|65 78                                          |ex              |
     |                                               |                |              d{}: 0x1e2-0x1e4 (2)
0x1e0|      00                                       |  .             |                tag: "funcidx" (0x0) 0x1e2-0x1e3 (1)
0x1e0|         15                                    |   .            |                x: 21 (valid) 0x1e3-0x1e4 (1)
     |                                               |                |            [21]{}: ex 0x1e4-0x1f9 (21)
     |                                               |                |              nm{}: 0x1e4-0x1f7 (19)
0x1e0|            12                                 |    .           |                n: 18 (valid) 0x1e4-0x1e5 (1)
0x1e0|               61 73 2d 6c 6f 63 61 6c 2e 73 65|     as-local.se|                b: "as-local.set-value" 0x1e5-0x1f7 (18)
0x1f0|74 2d 76 61 6c 75 65                           |t-value         |
     |                                               |                |              d{}: 0x1f7-0x1f9 (2)
0x1f0|                     00                        |       .        |                tag: "funcidx" (0x0) 0x1f7-0x1f8 (1)
0x1f0|                        16                     |        .       |                x: 22 (valid) 0x1f8-0x1f9 (1)
     |                                               |                |            [22]{}: ex 0x1f9-0x20e (21)
     |                                               |                |              nm{}: 0x1f9-0x20c (19)
0x1f0|                           12                  |         .      |                n: 18 (valid) 0x1f9-0x1fa (1)
0x1f0|                              61 73 2d 6c 6f 63|          as-loc|                b: "as-local.tee-value" 0x1fa-0x20c (18)
0x200|61 6c 2e 74 65 65 2d 76 61 6c 75 65            |al.tee-value    |
     |                                               |                |              d{}: 0x20c-0x20e (2)
0x200|                                    00         |            .   |                tag: "funcidx" (0x0) 0x20c-0x20d (1)
0x200|                                       17      |             .  |                x: 23 (valid) 0x20d-0x20e (1)
     |                                               |                |            [23]{}: ex 0x20e-0x224 (22)
     |                                               |                |              nm{}: 0x20e-0x222 (20)
0x200|                                          13   |              . |                n: 19 (valid) 0x20e-0x20f (1)
0x200|                                             61|               a|                b: "as-global.set-value" 0x20f-0x222 (19)
0x210|73 2d 67 6c 6f 62 61 6c 2e 73 65 74 2d 76 61 6c|s-global.set-val|
0x220|75 65                                          |ue              |
     |                                               |                |              d{}: 0x222-0x224 (2)
0x220|      00                                       |  .             |                tag: "funcidx" (0x0) 0x222-0x223 (1)
0x220|         18                                    |   .            |                x: 24 (valid) 0x223-0x224 (1)
     |                                               |                |            [24]{}: ex 0x224-0x236 (18)
     |                                               |                |              nm{}: 0x224-0x234 (16)
0x220|            0f                                 |    .           |                n: 15 (valid) 0x224-0x225 (1)
0x220|               61 73 2d 6c 6f 61 64 2d 61 64 64|     as-load-add|                b: "as-load-address" 0x225-0x234 (15)
0x230|72 65 73 73                                    |ress            |
     |                                               |                |              d{}: 0x234-0x236 (2)
0x230|            00                                 |    .           |                tag: "funcidx" (0x0) 0x234-0x235 (1)
0x230|               19                              |     .          |                x: 25 (valid) 0x235-0x236 (1)
     |                                               |                |            [25]{}: ex 0x236-0x249 (19)
     |                                               |                |              nm{}: 0x236-0x247 (17)
0x230|                  10                           |      .         |                n: 16 (valid) 0x236-0x237 (1)
0x230|                     61 73 2d 6c 6f 61 64 4e 2d|       as-loadN-|                b: "as-loadN-address" 0x237-0x247 (16)
0x240|61 64 64 72 65 73 73                           |address         |
     |                                               |                |              d{}: 0x247-0x249 (2)
0x240|                     00                        |       .        |                tag: "funcidx" (0x0) 0x247-0x248 (1)
0x240|                        1a                     |        .       |                x: 26 (valid) 0x248-0x249 (1)
     |                                               |                |            [26]{}: ex 0x249-0x25c (19)
     |                                               |                |              nm{}: 0x249-0x25a (17)
0x240|                           10                  |         .      |                n: 16 (valid) 0x249-0x24a (1)
0x240|                              61 73 2d 73 74 6f|          as-sto|                b: "as-store-address" 0x24a-0x25a (16)
0x250|72 65 2d 61 64 64 72 65 73 73                  |re-address      |
     |                                               |                |              d{}: 0x25a-0x25c (2)
0x250|                              00               |          .     |                tag: "funcidx" (0x0) 0x25a-0x25b (1)
0x250|                                 1b            |           .    |                x: 27 (valid) 0x25b-0x25c (1)
     |                                               |                |            [27]{}: ex 0x25c-0x26d (17)
     |                                               |                |              nm{}: 0x25c-0x26b (15)
0x250|                                    0e         |            .   |                n: 14 (valid) 0x25c-0x25d (1)
0x250|                                       61 73 2d|             as-|                b: "as-store-value" 0x25d-0x26b (14)
0x260|73 74 6f 72 65 2d 76 61 6c 75 65               |store-value     |
     |                                               |                |              d{}: 0x26b-0x26d (2)
0x260|                                 00            |           .    |                tag: "funcidx" (0x0) 0x26b-0x26c (1)
0x260|                                    1c         |            .   |                x: 28 (valid) 0x26c-0x26d (1)
     |                                               |                |            [28]{}: ex 0x26d-0x281 (20)
     |                                               |                |              nm{}: 0x26d-0x27f (18)
0x260|                                       11      |             .  |                n: 17 (valid) 0x26d-0x26e (1)
0x260|                                          61 73|              as|                b: "as-storeN-address" 0x26e-0x27f (17)
0x270|2d 73 74 6f 72 65 4e 2d 61 64 64 72 65 73 73   |-storeN-address |
     |                                               |                |              d{}: 0x27f-0x281 (2)
0x270|                                             00|               .|                tag: "funcidx" (0x0) 0x27f-0x280 (1)
0x280|1d                                             |.               |                x: 29 (valid) 0x280-0x281 (1)
     |                                               |                |            [29]{}: ex 0x281-0x293 (18)
     |                                               |                |              nm{}: 0x281-0x291 (16)
0x280|   0f                                          | .              |                n: 15 (valid) 0x281-0x282 (1)
0x280|      61 73 2d 73 74 6f 72 65 4e 2d 76 61 6c 75|  as-storeN-valu|                b: "as-storeN-value" 0x282-0x291 (15)
0x290|65                                             |e               |
     |                                               |                |              d{}: 0x291-0x293 (2)
0x290|   00                                          | .              |                tag: "funcidx" (0x0) 0x291-0x292 (1)
0x290|      1e                                       |  .             |                x: 30 (valid) 0x292-0x293 (1)
     |                                               |                |            [30]{}: ex 0x293-0x2a6 (19)
     |                                               |                |              nm{}: 0x293-0x2a4 (17)
0x290|         10                                    |   .            |                n: 16 (valid) 0x293-0x294 (1)
0x290|            61 73 2d 75 6e 61 72 79 2d 6f 70 65|    as-unary-ope|                b: "as-unary-operand" 0x294-0x2a4 (16)
0x2a0|72 61 6e 64                                    |rand            |
     |                                               |                |              d{}: 0x2a4-0x2a6 (2)
0x2a0|            00                                 |    .           |                tag: "funcidx" (0x0) 0x2a4-0x2a5 (1)
0x2a0|               1f                              |     .          |                x: 31 (valid) 0x2a5-0x2a6 (1)
     |                                               |                |            [31]{}: ex 0x2a6-0x2b7 (17)
     |                                               |                |              nm{}: 0x2a6-0x2b5 (15)
0x2a0|                  0e                           |      .         |                n: 14 (valid) 0x2a6-0x2a7 (1)
0x2a0|                     61 73 2d 62 69 6e 61 72 79|       as-binary|                b: "as-binary-left" 0x2a7-0x2b5 (14)
0x2b0|2d 6c 65 66 74                                 |-left           |
     |                                               |                |              d{}: 0x2b5-0x2b7 (2)
0x2b0|               00                              |     .          |                tag: "funcidx" (0x0) 0x2b5-0x2b6 (1)
0x2b0|                  20                           |                |                x: 32 (valid) 0x2b6-0x2b7 (1)
     |                                               |                |            [32]{}: ex 0x2b7-0x2c9 (18)
     |                                               |                |              nm{}: 0x2b7-0x2c7 (16)
0x2b0|                     0f                        |       .        |                n: 15 (valid) 0x2b7-0x2b8 (1)
0x2b0|                        61 73 2d 62 69 6e 61 72|        as-binar|                b: "as-binary-right" 0x2b8-0x2c7 (15)
0x2c0|79 2d 72 69 67 68 74                           |y-right         |
     |                                               |                |              d{}: 0x2c7-0x2c9 (2)
0x2c0|                     00                        |       .        |                tag: "funcidx" (0x0) 0x2c7-0x2c8 (1)
0x2c0|                        21                     |        !       |                x: 33 (valid) 0x2c8-0x2c9 (1)
     |                                               |                |            [33]{}: ex 0x2c9-0x2db (18)
     |                                               |                |              nm{}: 0x2c9-0x2d9 (16)
0x2c0|                           0f                  |         .      |                n: 15 (valid) 0x2c9-0x2ca (1)
0x2c0|                              61 73 2d 74 65 73|          as-tes|                b: "as-test-operand" 0x2ca-0x2d9 (15)
0x2d0|74 2d 6f 70 65 72 61 6e 64                     |t-operand       |
     |                                               |                |              d{}: 0x2d9-0x2db (2)
0x2d0|                           00                  |         .      |                tag: "funcidx" (0x0) 0x2d9-0x2da (1)
0x2d0|                              22               |          "     |                x: 34 (valid) 0x2da-0x2db (1)
     |                                               |                |            [34]{}: ex 0x2db-0x2ed (18)
     |                                               |                |              nm{}: 0x2db-0x2eb (16)
0x2d0|                                 0f            |           .    |                n: 15 (valid) 0x2db-0x2dc (1)
0x2d0|                                    61 73 2d 63|            as-c|                b: "as-compare-left" 0x2dc-0x2eb (15)
0x2e0|6f 6d 70 61 72 65 2d 6c 65 66 74               |ompare-left     |
     |                                               |                |              d{}: 0x2eb-0x2ed (2)
0x2e0|                                 00            |           .    |                tag: "funcidx" (0x0) 0x2eb-0x2ec (1)
0x2e0|                                    23         |            #   |                x: 35 (valid) 0x2ec-0x2ed (1)
     |                                               |                |            [35]{}: ex 0x2ed-0x300 (19)
     |                                               |                |              nm{}: 0x2ed-0x2fe (17)
0x2e0|                                       10      |             .  |                n: 16 (valid) 0x2ed-0x2ee (1)
0x2e0|                                          61 73|              as|                b: "as-compare-right" 0x2ee-0x2fe (16)
0x2f0|2d 63 6f 6d 70 61 72 65 2d 72 69 67 68 74      |-compare-right  |
     |                                               |                |              d{}: 0x2fe-0x300 (2)
0x2f0|                                          00   |              . |                tag: "funcidx" (0x0) 0x2fe-0x2ff (1)
0x2f0|                                             24|               $|                x: 36 (valid) 0x2ff-0x300 (1)
     |                                               |                |            [36]{}: ex 0x300-0x316 (22)
     |                                               |                |              nm{}: 0x300-0x314 (20)
0x300|13                                             |.               |                n: 19 (valid) 0x300-0x301 (1)
0x300|   61 73 2d 6d 65 6d 6f 72 79 2e 67 72 6f 77 2d| as-memory.grow-|                b: "as-memory.grow-size" 0x301-0x314 (19)
0x310|73 69 7a 65                                    |size            |
     |                                               |                |              d{}: 0x314-0x316 (2)
0x310|            00                                 |    .           |                tag: "funcidx" (0x0) 0x314-0x315 (1)
0x310|               25                              |     %          |                x: 37 (valid) 0x315-0x316 (1)
     |                                               |                |    [6]{}: section 0x316-0x31f (9)
0x310|                  09                           |      .         |      id: "element_section" (9) 0x316-0x317 (1)
0x310|                     07                        |       .        |      size: 7 (valid) 0x317-0x318 (1)
     |                                               |                |      element{}: 0x318-0x31f (7)
     |                                               |                |        seg{}: 0x318-0x31f (7)
0x310|                        01                     |        .       |          n: 1 (valid) 0x318-0x319 (1)
     |                                               |                |          x[0:1]: 0x319-0x31f (6)
     |                                               |                |            [0]{}: seg 0x319-0x31f (6)
0x310|                           00                  |         .      |              tag: 0 (valid) 0x319-0x31a (1)
     |                                               |                |              e[0:2]: 0x31a-0x31d (3)
     |                                               |                |                [0]{}: in 0x31a-0x31c (2)
0x310|                              41               |          A     |                  opcode: "i32.const" (0x41) 0x31a-0x31b (1)
0x310|                                 00            |           .    |                  n: 0 (valid) 0x31b-0x31c (1)
     |                                               |                |                [1]{}: in 0x31c-0x31d (1)
0x310|                                    0b         |            .   |                  opcode: "end" (0xb) 0x31c-0x31d (1)
     |                                               |                |              y{}: 0x31d-0x31f (2)
0x310|                                       01      |             .  |                n: 1 (valid) 0x31d-0x31e (1)
     |                                               |                |                x[0:1]: 0x31e-0x31f (1)
0x310|                                          0e   |              . |                  [0]: 14 y (valid) 0x31e-0x31f (1)
     |                                               |                |    [7]{}: section 0x31f-0x4fc (477)
0x310|                                             0a|               .|      id: "code_section" (10) 0x31f-0x320 (1)
0x320|da 03                                          |..              |      size: 474 (valid) 0x320-0x322 (2)
     |                                               |                |      content{}: 0x322-0x4fc (474)
     |                                               |                |        code{}: 0x322-0x4fc (474)
0x320|      26                                       |  &             |          n: 38 (valid) 0x322-0x323 (1)
     |                                               |                |          x[0:38]: 0x323-0x4fc (473)
     |                                               |                |            [0]{}: code 0x323-0x32f (12)
0x320|         0b                                    |   .            |              size: 11 (valid) 0x323-0x324 (1)
     |                                               |                |              code{}: 0x324-0x32f (11)
     |                                               |                |                t{}: 0x324-0x325 (1)
0x320|            00                                 |    .           |                  n: 0 (valid) 0x324-0x325 (1)
     |                                               |                |                  x[0:0]: 0x325-0x325 (0)
     |                                               |                |                e[0:2]: 0x325-0x32f (10)
     |                                               |                |                  [0]{}: in 0x325-0x32e (9)
0x320|               02                              |     .          |                    opcode: "block" (0x2) 0x325-0x326 (1)
0x320|                  7f                           |      .         |                    bt: "i32" (127) 0x326-0x327 (1)
     |                                               |                |                    instructions[0:3]: 0x327-0x32d (6)
     |                                               |                |                      [0]{}: instr 0x327-0x329 (2)
0x320|                     41                        |       A        |                        opcode: "i32.const" (0x41) 0x327-0x328 (1)
0x320|                        00                     |        .       |                        n: 0 (valid) 0x328-0x329 (1)
     |                                               |                |                      [1]{}: instr 0x329-0x32b (2)
0x320|                           40                  |         @      |                        opcode: "memory.grow" (0x40) 0x329-0x32a (1)
0x320|                              00               |          .     |                        reserved: 0x0 (valid) 0x32a-0x32b (1)
     |                                               |                |                      [2]{}: instr 0x32b-0x32d (2)
0x320|                                 0c            |           .    |                        opcode: "br" (0xc) 0x32b-0x32c (1)
0x320|                                    00         |            .   |                        l: 0 (valid) 0x32c-0x32d (1)
0x320|                                       0b      |             .  |                    end: 0xb (valid) 0x32d-0x32e (1)
     |                                               |                |                  [1]{}: in 0x32e-0x32f (1)
0x320|                                          0b   |              . |                    opcode: "end" (0xb) 0x32e-0x32f (1)
     |                                               |                |            [1]{}: code 0x32f-0x33b (12)
0x320|                                             0b|               .|              size: 11 (valid) 0x32f-0x330 (1)
     |                                               |                |              code{}: 0x330-0x33b (11)
     |                                               |                |                t{}: 0x330-0x331 (1)
0x330|00                                             |.               |                  n: 0 (valid) 0x330-0x331 (1)
     |                                               |                |                  x[0:0]: 0x331-0x331 (0)
     |                                               |                |                e[0:2]: 0x331-0x33b (10)
     |                                               |                |                  [0]{}: in 0x331-0x33a (9)
0x330|   02                                          | .              |                    opcode: "block" (0x2) 0x331-0x332 (1)
0x330|      40                                       |  @             |                    bt: "ε" (64) 0x332-0x333 (1)
     |                                               |                |                    instructions[0:3]: 0x333-0x339 (6)
     |                                               |                |                      [0]{}: instr 0x333-0x335 (2)
0x330|         41                                    |   A            |                        opcode: "i32.const" (0x41) 0x333-0x334 (1)
0x330|            00                                 |    .           |                        n: 0 (valid) 0x334-0x335 (1)
     |                                               |                |                      [1]{}: instr 0x335-0x337 (2)
0x330|               40                              |     @          |                        opcode: "memory.grow" (0x40) 0x335-0x336 (1)
0x330|                  00                           |      .         |                        reserved: 0x0 (valid) 0x336-0x337 (1)
     |                                               |                |                      [2]{}: instr 0x337-0x339 (2)
0x330|                     0d                        |       .        |                        opcode: "br_if" (0xd) 0x337-0x338 (1)
0x330|                        00                     |        .       |                        l: 0 (valid) 0x338-0x339 (1)
0x330|                           0b                  |         .      |                    end: 0xb (valid) 0x339-0x33a (1)
     |                                               |                |                  [1]{}: in 0x33a-0x33b (1)
0x330|                              0b               |          .     |                    opcode: "end" (0xb) 0x33a-0x33b (1)
     |                                               |                |            [2]{}: code 0x33b-0x34c (17)
0x330|                                 10            |           .    |              size: 16 (valid) 0x33b-0x33c (1)
     |                                               |                |              code{}: 0x33c-0x34c (16)
     |                                               |                |                t{}: 0x33c-0x33d (1)
0x330|                                    00         |            .   |                  n: 0 (valid) 0x33c-0x33d (1)
     |                                               |                |                  x[0:0]: 0x33d-0x33d (0)
     |                                               |                |                e[0:2]: 0x33d-0x34c (15)
     |                                               |                |                  [0]{}: in 0x33d-0x34b (14)
0x330|                                       02      |             .  |                    opcode: "block" (0x2) 0x33d-0x33e (1)
0x330|                                          7f   |              . |                    bt: "i32" (127) 0x33e-0x33f (1)
     |                                               |                |                    instructions[0:6]: 0x33f-0x34a (11)
     |                                               |                |                      [0]{}: instr 0x33f-0x341 (2)
0x330|                                             41|               A|                        opcode: "i32.const" (0x41) 0x33f-0x340 (1)
0x340|00                                             |.               |                        n: 0 (valid) 0x340-0x341 (1)
     |                                               |                |                      [1]{}: instr 0x341-0x343 (2)
0x340|   40                                          | @              |                        opcode: "memory.grow" (0x40) 0x341-0x342 (1)
0x340|      00                                       |  .             |                        reserved: 0x0 (valid) 0x342-0x343 (1)
     |                                               |                |                      [2]{}: instr 0x343-0x345 (2)
0x340|         41                                    |   A            |                        opcode: "i32.const" (0x41) 0x343-0x344 (1)
0x340|            01                                 |    .           |                        n: 1 (valid) 0x344-0x345 (1)
     |                                               |                |                      [3]{}: instr 0x345-0x347 (2)
0x340|               0d                              |     .          |                        opcode: "br_if" (0xd) 0x345-0x346 (1)
0x340|                  00                           |      .         |                        l: 0 (valid) 0x346-0x347 (1)
     |                                               |                |                      [4]{}: instr 0x347-0x348 (1)
0x340|                     1a                        |       .        |                        opcode: "drop" (0x1a) 0x347-0x348 (1)
     |                                               |                |                      [5]{}: instr 0x348-0x34a (2)
0x340|                        41                     |        A       |                        opcode: "i32.const" (0x41) 0x348-0x349 (1)
0x340|                           07                  |         .      |                        n: 7 (valid) 0x349-0x34a (1)
0x340|                              0b               |          .     |                    end: 0xb (valid) 0x34a-0x34b (1)
     |                                               |                |                  [1]{}: in 0x34b-0x34c (1)
0x340|                                 0b            |           .    |                    opcode: "end" (0xb) 0x34b-0x34c (1)
     |                                               |                |            [3]{}: code 0x34c-0x35d (17)
0x340|                                    10         |            .   |              size: 16 (valid) 0x34c-0x34d (1)
     |                                               |                |              code{}: 0x34d-0x35d (16)
     |                                               |                |                t{}: 0x34d-0x34e (1)
0x340|                                       00      |             .  |                  n: 0 (valid) 0x34d-0x34e (1)
     |                                               |                |                  x[0:0]: 0x34e-0x34e (0)
     |                                               |                |                e[0:2]: 0x34e-0x35d (15)
     |                                               |                |                  [0]{}: in 0x34e-0x35c (14)
0x340|                                          02   |              . |                    opcode: "block" (0x2) 0x34e-0x34f (1)
0x340|                                             7f|               .|                    bt: "i32" (127) 0x34f-0x350 (1)
     |                                               |                |                    instructions[0:6]: 0x350-0x35b (11)
     |                                               |                |                      [0]{}: instr 0x350-0x352 (2)
0x350|41                                             |A               |                        opcode: "i32.const" (0x41) 0x350-0x351 (1)
0x350|   06                                          | .              |                        n: 6 (valid) 0x351-0x352 (1)
     |                                               |                |                      [1]{}: instr 0x352-0x354 (2)
0x350|      41                                       |  A             |                        opcode: "i32.const" (0x41) 0x352-0x353 (1)
0x350|         00                                    |   .            |                        n: 0 (valid) 0x353-0x354 (1)
     |                                               |                |                      [2]{}: instr 0x354-0x356 (2)
0x350|            40                                 |    @           |                        opcode: "memory.grow" (0x40) 0x354-0x355 (1)
0x350|               00                              |     .          |                        reserved: 0x0 (valid) 0x355-0x356 (1)
     |                                               |                |                      [3]{}: instr 0x356-0x358 (2)
0x350|                  0d                           |      .         |                        opcode: "br_if" (0xd) 0x356-0x357 (1)
0x350|                     00                        |       .        |                        l: 0 (valid) 0x357-0x358 (1)
     |                                               |                |                      [4]{}: instr 0x358-0x359 (1)
0x350|                        1a                     |        .       |                        opcode: "drop" (0x1a) 0x358-0x359 (1)
     |                                               |                |                      [5]{}: instr 0x359-0x35b (2)
0x350|                           41                  |         A      |                        opcode: "i32.const" (0x41) 0x359-0x35a (1)
0x350|                              07               |          .     |                        n: 7 (valid) 0x35a-0x35b (1)
0x350|                                 0b            |           .    |                    end: 0xb (valid) 0x35b-0x35c (1)
     |                                               |                |                  [1]{}: in 0x35c-0x35d (1)
0x350|                                    0b         |            .   |                    opcode: "end" (0xb) 0x35c-0x35d (1)
     |                                               |                |            [4]{}: code 0x35d-0x36c (15)
0x350|                                       0e      |             .  |              size: 14 (valid) 0x35d-0x35e (1)
     |                                               |                |              code{}: 0x35e-0x36c (14)
     |                                               |                |                t{}: 0x35e-0x35f (1)
0x350|                                          00   |              . |                  n: 0 (valid) 0x35e-0x35f (1)
     |                                               |                |                  x[0:0]: 0x35f-0x35f (0)
     |                                               |                |                e[0:2]: 0x35f-0x36c (13)
     |                                               |                |                  [0]{}: in 0x35f-0x36b (12)
0x350|                                             02|               .|                    opcode: "block" (0x2) 0x35f-0x360 (1)
0x360|40                                             |@               |                    bt: "ε" (64) 0x360-0x361 (1)
     |                                               |                |                    instructions[0:3]: 0x361-0x36a (9)
     |                                               |                |                      [0]{}: instr 0x361-0x363 (2)
0x360|   41                                          | A              |                        opcode: "i32.const" (0x41) 0x361-0x362 (1)
0x360|      00                                       |  .             |                        n: 0 (valid) 0x362-0x363 (1)
     |                                               |                |                      [1]{}: instr 0x363-0x365 (2)
0x360|         40                                    |   @            |                        opcode: "memory.grow" (0x40) 0x363-0x364 (1)
0x360|            00                                 |    .           |                        reserved: 0x0 (valid) 0x364-0x365 (1)
     |                                               |                |                      [2]{}: instr 0x365-0x36a (5)
0x360|               0e                              |     .          |                        opcode: "br_table" (0xe) 0x365-0x366 (1)
     |                                               |                |                        l{}: 0x366-0x369 (3)
0x360|                  02                           |      .         |                          n: 2 (valid) 0x366-0x367 (1)
     |                                               |                |                          x[0:2]: 0x367-0x369 (2)
0x360|                     00                        |       .        |                            [0]: 0 l (valid) 0x367-0x368 (1)
0x360|                        00                     |        .       |                            [1]: 0 l (valid) 0x368-0x369 (1)
0x360|                           00                  |         .      |                        lN: 0 (valid) 0x369-0x36a (1)
0x360|                              0b               |          .     |                    end: 0xb (valid) 0x36a-0x36b (1)
     |                                               |                |                  [1]{}: in 0x36b-0x36c (1)
0x360|                                 0b            |           .    |                    opcode: "end" (0xb) 0x36b-0x36c (1)
     |                                               |                |            [5]{}: code 0x36c-0x37f (19)
0x360|                                    12         |            .   |              size: 18 (valid) 0x36c-0x36d (1)
     |                                               |                |              code{}: 0x36d-0x37f (18)
     |                                               |                |                t{}: 0x36d-0x36e (1)
0x360|                                       00      |             .  |                  n: 0 (valid) 0x36d-0x36e (1)
     |                                               |                |                  x[0:0]: 0x36e-0x36e (0)
     |                                               |                |                e[0:2]: 0x36e-0x37f (17)
     |                                               |                |                  [0]{}: in 0x36e-0x37e (16)
0x360|                                          02   |              . |                    opcode: "block" (0x2) 0x36e-0x36f (1)
0x360|                                             7f|               .|                    bt: "i32" (127) 0x36f-0x370 (1)
     |                                               |                |                    instructions[0:5]: 0x370-0x37d (13)
     |                                               |                |                      [0]{}: instr 0x370-0x372 (2)
0x370|41                                             |A               |                        opcode: "i32.const" (0x41) 0x370-0x371 (1)
0x370|   00                                          | .              |                        n: 0 (valid) 0x371-0x372 (1)
     |                                               |                |                      [1]{}: instr 0x372-0x374 (2)
0x370|      40                                       |  @             |                        opcode: "memory.grow" (0x40) 0x372-0x373 (1)
0x370|         00                                    |   .            |                        reserved: 0x0 (valid) 0x373-0x374 (1)
     |                                               |                |                      [2]{}: instr 0x374-0x376 (2)
0x370|            41                                 |    A           |                        opcode: "i32.const" (0x41) 0x374-0x375 (1)
0x370|               01                              |     .          |                        n: 1 (valid) 0x375-0x376 (1)
     |                                               |                |                      [3]{}: instr 0x376-0x37b (5)
0x370|                  0e                           |      .         |                        opcode: "br_table" (0xe) 0x376-0x377 (1)
     |                                               |                |                        l{}: 0x377-0x37a (3)
0x370|                     02                        |       .        |                          n: 2 (valid) 0x377-0x378 (1)
     |                                               |                |                          x[0:2]: 0x378-0x37a (2)
0x370|                        00                     |        .       |                            [0]: 0 l (valid) 0x378-0x379 (1)
0x370|                           00                  |         .      |                            [1]: 0 l (valid) 0x379-0x37a (1)
0x370|                              00               |          .     |                        lN: 0 (valid) 0x37a-0x37b (1)
     |                                               |                |                      [4]{}: instr 0x37b-0x37d (2)
0x370|                                 41            |           A    |                        opcode: "i32.const" (0x41) 0x37b-0x37c (1)
0x370|                                    07         |            .   |                        n: 7 (valid) 0x37c-0x37d (1)
0x370|                                       0b      |             .  |                    end: 0xb (valid) 0x37d-0x37e (1)
     |                                               |                |                  [1]{}: in 0x37e-0x37f (1)
0x370|                                          0b   |              . |                    opcode: "end" (0xb) 0x37e-0x37f (1)
     |                                               |                |            [6]{}: code 0x37f-0x391 (18)
0x370|                                             11|               .|              size: 17 (valid) 0x37f-0x380 (1)
     |                                               |                |              code{}: 0x380-0x391 (17)
     |                                               |                |                t{}: 0x380-0x381 (1)
0x380|00                                             |.               |                  n: 0 (valid) 0x380-0x381 (1)
     |                                               |                |                  x[0:0]: 0x381-0x381 (0)
     |                                               |                |                e[0:2]: 0x381-0x391 (16)
     |                                               |                |                  [0]{}: in 0x381-0x390 (15)
0x380|   02                                          | .              |                    opcode: "block" (0x2) 0x381-0x382 (1)
0x380|      7f                                       |  .             |                    bt: "i32" (127) 0x382-0x383 (1)
     |                                               |                |                    instructions[0:5]: 0x383-0x38f (12)
     |                                               |                |                      [0]{}: instr 0x383-0x385 (2)
0x380|         41                                    |   A            |                        opcode: "i32.const" (0x41) 0x383-0x384 (1)
0x380|            06                                 |    .           |                        n: 6 (valid) 0x384-0x385 (1)
     |                                               |                |                      [1]{}: instr 0x385-0x387 (2)
0x380|               41                              |     A          |                        opcode: "i32.const" (0x41) 0x385-0x386 (1)
0x380|                  00                           |      .         |                        n: 0 (valid) 0x386-0x387 (1)
     |                                               |                |                      [2]{}: instr 0x387-0x389 (2)
0x380|                     40                        |       @        |                        opcode: "memory.grow" (0x40) 0x387-0x388 (1)
0x380|                        00                     |        .       |                        reserved: 0x0 (valid) 0x388-0x389 (1)
     |                                               |                |                      [3]{}: instr 0x389-0x38d (4)
0x380|                           0e                  |         .      |                        opcode: "br_table" (0xe) 0x389-0x38a (1)
     |                                               |                |                        l{}: 0x38a-0x38c (2)
0x380|                              01               |          .     |                          n: 1 (valid) 0x38a-0x38b (1)
     |                                               |                |                          x[0:1]: 0x38b-0x38c (1)
0x380|                                 00            |           .    |                            [0]: 0 l (valid) 0x38b-0x38c (1)
0x380|                                    00         |            .   |                        lN: 0 (valid) 0x38c-0x38d (1)
     |                                               |                |                      [4]{}: instr 0x38d-0x38f (2)
0x380|                                       41      |             A  |                        opcode: "i32.const" (0x41) 0x38d-0x38e (1)
0x380|                                          07   |              . |                        n: 7 (valid) 0x38e-0x38f (1)
0x380|                                             0b|               .|                    end: 0xb (valid) 0x38f-0x390 (1)
     |                                               |                |                  [1]{}: in 0x390-0x391 (1)
0x390|0b                                             |.               |                    opcode: "end" (0xb) 0x390-0x391 (1)
     |                                               |                |            [7]{}: code 0x391-0x399 (8)
0x390|   07                                          | .              |              size: 7 (valid) 0x391-0x392 (1)
     |                                               |                |              code{}: 0x392-0x399 (7)
     |                                               |                |                t{}: 0x392-0x393 (1)
0x390|      00                                       |  .             |                  n: 0 (valid) 0x392-0x393 (1)
     |                                               |                |                  x[0:0]: 0x393-0x393 (0)
     |                                               |                |                e[0:4]: 0x393-0x399 (6)
     |                                               |                |                  [0]{}: in 0x393-0x395 (2)
0x390|         41                                    |   A            |                    opcode: "i32.const" (0x41) 0x393-0x394 (1)
0x390|            00                                 |    .           |                    n: 0 (valid) 0x394-0x395 (1)
     |                                               |                |                  [1]{}: in 0x395-0x397 (2)
0x390|               40                              |     @          |                    opcode: "memory.grow" (0x40) 0x395-0x396 (1)
0x390|                  00                           |      .         |                    reserved: 0x0 (valid) 0x396-0x397 (1)
     |                                               |                |                  [2]{}: in 0x397-0x398 (1)
0x390|                     0f                        |       .        |                    opcode: "return" (0xf) 0x397-0x398 (1)
     |                                               |                |                  [3]{}: in 0x398-0x399 (1)
0x390|                        0b                     |        .       |                    opcode: "end" (0xb) 0x398-0x399 (1)
     |                                               |                |            [8]{}: code 0x399-0x3a8 (15)
0x390|                           0e                  |         .      |              size: 14 (valid) 0x399-0x39a (1)
     |                                               |                |              code{}: 0x39a-0x3a8 (14)
     |                                               |                |                t{}: 0x39a-0x39b (1)
0x390|                              00               |          .     |                  n: 0 (valid) 0x39a-0x39b (1)
     |                                               |                |                  x[0:0]: 0x39b-0x39b (0)
     |                                               |                |                e[0:4]: 0x39b-0x3a8 (13)
     |                                               |                |                  [0]{}: in 0x39b-0x39d (2)
0x390|                                 41            |           A    |                    opcode: "i32.const" (0x41) 0x39b-0x39c (1)
0x390|                                    00         |            .   |                    n: 0 (valid) 0x39c-0x39d (1)
     |                                               |                |                  [1]{}: in 0x39d-0x39f (2)
0x390|                                       40      |             @  |                    opcode: "memory.grow" (0x40) 0x39d-0x39e (1)
0x390|                                          00   |              . |                    reserved: 0x0 (valid) 0x39e-0x39f (1)
     |                                               |                |                  [2]{}: in 0x39f-0x3a7 (8)
0x390|                                             04|               .|                    opcode: "if" (0x4) 0x39f-0x3a0 (1)
0x3a0|7f                                             |.               |                    bt: "i32" (127) 0x3a0-0x3a1 (1)
     |                                               |                |                    in1[0:1]: 0x3a1-0x3a3 (2)
     |                                               |                |                      [0]{}: instr 0x3a1-0x3a3 (2)
0x3a0|   41                                          | A              |                        opcode: "i32.const" (0x41) 0x3a1-0x3a2 (1)
0x3a0|      00                                       |  .             |                        n: 0 (valid) 0x3a2-0x3a3 (1)
0x3a0|         05                                    |   .            |                    else: 0x5 (valid) 0x3a3-0x3a4 (1)
     |                                               |                |                    in2[0:1]: 0x3a4-0x3a6 (2)
     |                                               |                |                      [0]{}: instr 0x3a4-0x3a6 (2)
0x3a0|            41                                 |    A           |                        opcode: "i32.const" (0x41) 0x3a4-0x3a5 (1)
0x3a0|               01                              |     .          |                        n: 1 (valid) 0x3a5-0x3a6 (1)
0x3a0|                  0b                           |      .         |                    end: 0xb (valid) 0x3a6-0x3a7 (1)
     |                                               |                |                  [3]{}: in 0x3a7-0x3a8 (1)
0x3a0|                     0b                        |       .        |                    opcode: "end" (0xb) 0x3a7-0x3a8 (1)
     |                                               |                |            [9]{}: code 0x3a8-0x3b7 (15)
0x3a0|                        0e                     |        .       |              size: 14 (valid) 0x3a8-0x3a9 (1)
     |                                               |                |              code{}: 0x3a9-0x3b7 (14)
     |                                               |                |                t{}: 0x3a9-0x3aa (1)
0x3a0|                           00                  |         .      |                  n: 0 (valid) 0x3a9-0x3aa (1)
     |                                               |                |                  x[0:0]: 0x3aa-0x3aa (0)
     |                                               |                |                e[0:3]: 0x3aa-0x3b7 (13)
     |                                               |                |                  [0]{}: in 0x3aa-0x3ac (2)
0x3a0|                              41               |          A     |                    opcode: "i32.const" (0x41) 0x3aa-0x3ab (1)
0x3a0|                                 01            |           .    |                    n: 1 (valid) 0x3ab-0x3ac (1)
     |                                               |                |                  [1]{}: in 0x3ac-0x3b6 (10)
0x3a0|                                    04         |            .   |                    opcode: "if" (0x4) 0x3ac-0x3ad (1)
0x3a0|                                       7f      |             .  |                    bt: "i32" (127) 0x3ad-0x3ae (1)
     |                                               |                |                    in1[0:2]: 0x3ae-0x3b2 (4)
     |                                               |                |                      [0]{}: instr 0x3ae-0x3b0 (2)
0x3a0|                                          41   |              A |                        opcode: "i32.const" (0x41) 0x3ae-0x3af (1)
0x3a0|                                             00|               .|                        n: 0 (valid) 0x3af-0x3b0 (1)
     |                                               |                |                      [1]{}: instr 0x3b0-0x3b2 (2)
0x3b0|40                                             |@               |                        opcode: "memory.grow" (0x40) 0x3b0-0x3b1 (1)
0x3b0|   00                                          | .              |                        reserved: 0x0 (valid) 0x3b1-0x3b2 (1)
0x3b0|      05                                       |  .             |                    else: 0x5 (valid) 0x3b2-0x3b3 (1)
     |                                               |                |                    in2[0:1]: 0x3b3-0x3b5 (2)
     |                                               |                |                      [0]{}: instr 0x3b3-0x3b5 (2)
0x3b0|         41                                    |   A            |                        opcode: "i32.const" (0x41) 0x3b3-0x3b4 (1)
0x3b0|            00                                 |    .           |                        n: 0 (valid) 0x3b4-0x3b5 (1)
0x3b0|               0b                              |     .          |                    end: 0xb (valid) 0x3b5-0x3b6 (1)
     |                                               |                |                  [2]{}: in 0x3b6-0x3b7 (1)
0x3b0|                  0b                           |      .         |                    opcode: "end" (0xb) 0x3b6-0x3b7 (1)
     |                                               |                |            [10]{}: code 0x3b7-0x3c6 (15)
0x3b0|                     0e                        |       .        |              size: 14 (valid) 0x3b7-0x3b8 (1)
     |                                               |                |              code{}: 0x3b8-0x3c6 (14)
     |                                               |                |                t{}: 0x3b8-0x3b9 (1)
0x3b0|                        00                     |        .       |                  n: 0 (valid) 0x3b8-0x3b9 (1)
     |                                               |                |                  x[0:0]: 0x3b9-0x3b9 (0)
     |                                               |                |                e[0:3]: 0x3b9-0x3c6 (13)
     |                                               |                |                  [0]{}: in 0x3b9-0x3bb (2)
0x3b0|                           41                  |         A      |                    opcode: "i32.const" (0x41) 0x3b9-0x3ba (1)
0x3b0|                              00               |          .     |                    n: 0 (valid) 0x3ba-0x3bb (1)
     |                                               |                |                  [1]{}: in 0x3bb-0x3c5 (10)
0x3b0|                                 04            |           .    |                    opcode: "if" (0x4) 0x3bb-0x3bc (1)
0x3b0|                                    7f         |            .   |                    bt: "i32" (127) 0x3bc-0x3bd (1)
     |                                               |                |                    in1[0:1]: 0x3bd-0x3bf (2)
     |                                               |                |                      [0]{}: instr 0x3bd-0x3bf (2)
0x3b0|                                       41      |             A  |                        opcode: "i32.const" (0x41) 0x3bd-0x3be (1)
0x3b0|                                          00   |              . |                        n: 0 (valid) 0x3be-0x3bf (1)
0x3b0|                                             05|               .|                    else: 0x5 (valid) 0x3bf-0x3c0 (1)
     |                                               |                |                    in2[0:2]: 0x3c0-0x3c4 (4)
     |                                               |                |                      [0]{}: instr 0x3c0-0x3c2 (2)
0x3c0|41                                             |A               |                        opcode: "i32.const" (0x41) 0x3c0-0x3c1 (1)
0x3c0|   00                                          | .              |                        n: 0 (valid) 0x3c1-0x3c2 (1)
     |                                               |                |                      [1]{}: instr 0x3c2-0x3c4 (2)
0x3c0|      40                                       |  @             |                        opcode: "memory.grow" (0x40) 0x3c2-0x3c3 (1)
0x3c0|         00                                    |   .            |                        reserved: 0x0 (valid) 0x3c3-0x3c4 (1)
0x3c0|            0b                                 |    .           |                    end: 0xb (valid) 0x3c4-0x3c5 (1)
     |                                               |                |                  [2]{}: in 0x3c5-0x3c6 (1)
0x3c0|               0b                              |     .          |                    opcode: "end" (0xb) 0x3c5-0x3c6 (1)
     |                                               |                |            [11]{}: code 0x3c6-0x3d2 (12)
0x3c0|                  0b                           |      .         |              size: 11 (valid) 0x3c6-0x3c7 (1)
     |                                               |                |              code{}: 0x3c7-0x3d2 (11)
     |                                               |                |                t{}: 0x3c7-0x3c8 (1)
0x3c0|                     00                        |       .        |                  n: 0 (valid) 0x3c7-0x3c8 (1)
     |                                               |                |                  x[0:0]: 0x3c8-0x3c8 (0)
     |                                               |                |                e[0:6]: 0x3c8-0x3d2 (10)
     |                                               |                |                  [0]{}: in 0x3c8-0x3ca (2)
0x3c0|                        41                     |        A       |                    opcode: "i32.const" (0x41) 0x3c8-0x3c9 (1)
0x3c0|                           00                  |         .      |                    n: 0 (valid) 0x3c9-0x3ca (1)
     |                                               |                |                  [1]{}: in 0x3ca-0x3cc (2)
0x3c0|                              40               |          @     |                    opcode: "memory.grow" (0x40) 0x3ca-0x3cb (1)
0x3c0|                                 00            |           .    |                    reserved: 0x0 (valid) 0x3cb-0x3cc (1)
     |                                               |                |                  [2]{}: in 0x3cc-0x3ce (2)
0x3c0|                                    20         |                |                    opcode: "local.get" (0x20) 0x3cc-0x3cd (1)
0x3c0|                                       00      |             .  |                    x: 0 (valid) 0x3cd-0x3ce (1)
     |                                               |                |                  [3]{}: in 0x3ce-0x3d0 (2)
0x3c0|                                          20   |                |                    opcode: "local.get" (0x20) 0x3ce-0x3cf (1)
0x3c0|                                             01|               .|                    x: 1 (valid) 0x3cf-0x3d0 (1)
     |                                               |                |                  [4]{}: in 0x3d0-0x3d1 (1)
0x3d0|1b                                             |.               |                    opcode: "select" (0x1b) 0x3d0-0x3d1 (1)
     |                                               |                |                  [5]{}: in 0x3d1-0x3d2 (1)
0x3d0|   0b                                          | .              |                    opcode: "end" (0xb) 0x3d1-0x3d2 (1)
     |                                               |                |            [12]{}: code 0x3d2-0x3de (12)
0x3d0|      0b                                       |  .             |              size: 11 (valid) 0x3d2-0x3d3 (1)
     |                                               |                |              code{}: 0x3d3-0x3de (11)
     |                                               |                |                t{}: 0x3d3-0x3d4 (1)
0x3d0|         00                                    |   .            |                  n: 0 (valid) 0x3d3-0x3d4 (1)
     |                                               |                |                  x[0:0]: 0x3d4-0x3d4 (0)
     |                                               |                |                e[0:6]: 0x3d4-0x3de (10)
     |                                               |                |                  [0]{}: in 0x3d4-0x3d6 (2)
0x3d0|            20                                 |                |                    opcode: "local.get" (0x20) 0x3d4-0x3d5 (1)
0x3d0|               00                              |     .          |                    x: 0 (valid) 0x3d5-0x3d6 (1)
     |                                               |                |                  [1]{}: in 0x3d6-0x3d8 (2)
0x3d0|                  41                           |      A         |                    opcode: "i32.const" (0x41) 0x3d6-0x3d7 (1)
0x3d0|                     00                        |       .        |                    n: 0 (valid) 0x3d7-0x3d8 (1)
     |                                               |                |                  [2]{}: in 0x3d8-0x3da (2)
0x3d0|                        40                     |        @       |                    opcode: "memory.grow" (0x40) 0x3d8-0x3d9 (1)
0x3d0|                           00                  |         .      |                    reserved: 0x0 (valid) 0x3d9-0x3da (1)
     |                                               |                |                  [3]{}: in 0x3da-0x3dc (2)
0x3d0|                              20               |                |                    opcode: "local.get" (0x20) 0x3da-0x3db (1)
0x3d0|                                 01            |           .    |                    x: 1 (valid) 0x3db-0x3dc (1)
     |                                               |                |                  [4]{}: in 0x3dc-0x3dd (1)
0x3d0|                                    1b         |            .   |                    opcode: "select" (0x1b) 0x3dc-0x3dd (1)
     |                                               |                |                  [5]{}: in 0x3dd-0x3de (1)
0x3d0|                                       0b      |             .  |                    opcode: "end" (0xb) 0x3dd-0x3de (1)
     |                                               |                |            [13]{}: code 0x3de-0x3ea (12)
0x3d0|                                          0b   |              . |              size: 11 (valid) 0x3de-0x3df (1)
     |                                               |                |              code{}: 0x3df-0x3ea (11)
     |                                               |                |                t{}: 0x3df-0x3e0 (1)
0x3d0|                                             00|               .|                  n: 0 (valid) 0x3df-0x3e0 (1)
     |                                               |                |                  x[0:0]: 0x3e0-0x3e0 (0)
     |                                               |                |                e[0:6]: 0x3e0-0x3ea (10)
     |                                               |                |                  [0]{}: in 0x3e0-0x3e2 (2)
0x3e0|41                                             |A               |                    opcode: "i32.const" (0x41) 0x3e0-0x3e1 (1)
0x3e0|   00                                          | .              |                    n: 0 (valid) 0x3e1-0x3e2 (1)
     |                                               |                |                  [1]{}: in 0x3e2-0x3e4 (2)
0x3e0|      41                                       |  A             |                    opcode: "i32.const" (0x41) 0x3e2-0x3e3 (1)
0x3e0|         01                                    |   .            |                    n: 1 (valid) 0x3e3-0x3e4 (1)
     |                                               |                |                  [2]{}: in 0x3e4-0x3e6 (2)
0x3e0|            41                                 |    A           |                    opcode: "i32.const" (0x41) 0x3e4-0x3e5 (1)
0x3e0|               00                              |     .          |                    n: 0 (valid) 0x3e5-0x3e6 (1)
     |                                               |                |                  [3]{}: in 0x3e6-0x3e8 (2)
0x3e0|                  40                           |      @         |                    opcode: "memory.grow" (0x40) 0x3e6-0x3e7 (1)
0x3e0|                     00                        |       .        |                    reserved: 0x0 (valid) 0x3e7-0x3e8 (1)
     |                                               |                |                  [4]{}: in 0x3e8-0x3e9 (1)
0x3e0|                        1b                     |        .       |                    opcode: "select" (0x1b) 0x3e8-0x3e9 (1)
     |                                               |                |                  [5]{}: in 0x3e9-0x3ea (1)
0x3e0|                           0b                  |         .      |                    opcode: "end" (0xb) 0x3e9-0x3ea (1)
     |                                               |                |            [14]{}: code 0x3ea-0x3ef (5)
0x3e0|                              04               |          .     |              size: 4 (valid) 0x3ea-0x3eb (1)
     |                                               |                |              code{}: 0x3eb-0x3ef (4)
     |                                               |                |                t{}: 0x3eb-0x3ec (1)
0x3e0|                                 00            |           .    |                  n: 0 (valid) 0x3eb-0x3ec (1)
     |                                               |                |                  x[0:0]: 0x3ec-0x3ec (0)
     |                                               |                |                e[0:2]: 0x3ec-0x3ef (3)
     |                                               |                |                  [0]{}: in 0x3ec-0x3ee (2)
0x3e0|                                    41         |            A   |                    opcode: "i32.const" (0x41) 0x3ec-0x3ed (1)
0x3e0|                                       7f      |             .  |                    n: -1 (valid) 0x3ed-0x3ee (1)
     |                                               |                |                  [1]{}: in 0x3ee-0x3ef (1)
0x3e0|                                          0b   |              . |                    opcode: "end" (0xb) 0x3ee-0x3ef (1)
     |                                               |                |            [15]{}: code 0x3ef-0x3fc (13)
0x3e0|                                             0c|               .|              size: 12 (valid) 0x3ef-0x3f0 (1)
     |                                               |                |              code{}: 0x3f0-0x3fc (12)
     |                                               |                |                t{}: 0x3f0-0x3f1 (1)
0x3f0|00                                             |.               |                  n: 0 (valid) 0x3f0-0x3f1 (1)
     |                                               |                |                  x[0:0]: 0x3f1-0x3f1 (0)
     |                                               |                |                e[0:6]: 0x3f1-0x3fc (11)
     |                                               |                |                  [0]{}: in 0x3f1-0x3f3 (2)
0x3f0|   41                                          | A              |                    opcode: "i32.const" (0x41) 0x3f1-0x3f2 (1)
0x3f0|      00                                       |  .             |                    n: 0 (valid) 0x3f2-0x3f3 (1)
     |                                               |                |                  [1]{}: in 0x3f3-0x3f5 (2)
0x3f0|         40                                    |   @            |                    opcode: "memory.grow" (0x40) 0x3f3-0x3f4 (1)
0x3f0|            00                                 |    .           |                    reserved: 0x0 (valid) 0x3f4-0x3f5 (1)
     |                                               |                |                  [2]{}: in 0x3f5-0x3f7 (2)
0x3f0|               41                              |     A          |                    opcode: "i32.const" (0x41) 0x3f5-0x3f6 (1)
0x3f0|                  02                           |      .         |                    n: 2 (valid) 0x3f6-0x3f7 (1)
     |                                               |                |                  [3]{}: in 0x3f7-0x3f9 (2)
0x3f0|                     41                        |       A        |                    opcode: "i32.const" (0x41) 0x3f7-0x3f8 (1)
0x3f0|                        03                     |        .       |                    n: 3 (valid) 0x3f8-0x3f9 (1)
     |                                               |                |                  [4]{}: in 0x3f9-0x3fb (2)
0x3f0|                           10                  |         .      |                    opcode: "call" (0x10) 0x3f9-0x3fa (1)
0x3f0|                              0e               |          .     |                    x: 14 (valid) 0x3fa-0x3fb (1)
     |                                               |                |                  [5]{}: in 0x3fb-0x3fc (1)
0x3f0|                                 0b            |           .    |                    opcode: "end" (0xb) 0x3fb-0x3fc (1)
     |                                               |                |            [16]{}: code 0x3fc-0x409 (13)
0x3f0|                                    0c         |            .   |              size: 12 (valid) 0x3fc-0x3fd (1)
     |                                               |                |              code{}: 0x3fd-0x409 (12)
     |                                               |                |                t{}: 0x3fd-0x3fe (1)
0x3f0|                                       00      |             .  |                  n: 0 (valid) 0x3fd-0x3fe (1)
     |                                               |                |                  x[0:0]: 0x3fe-0x3fe (0)
     |                                               |                |                e[0:6]: 0x3fe-0x409 (11)
     |                                               |                |                  [0]{}: in 0x3fe-0x400 (2)
0x3f0|                                          41   |              A |                    opcode: "i32.const" (0x41) 0x3fe-0x3ff (1)
0x3f0|                                             01|               .|                    n: 1 (valid) 0x3ff-0x400 (1)
     |                                               |                |                  [1]{}: in 0x400-0x402 (2)
0x400|41                                             |A               |                    opcode: "i32.const" (0x41) 0x400-0x401 (1)
0x400|   00                                          | .              |                    n: 0 (valid) 0x401-0x402 (1)
     |                                               |                |                  [2]{}: in 0x402-0x404 (2)
0x400|      40                                       |  @             |                    opcode: "memory.grow" (0x40) 0x402-0x403 (1)
0x400|         00                                    |   .            |                    reserved: 0x0 (valid) 0x403-0x404 (1)
     |                                               |                |                  [3]{}: in 0x404-0x406 (2)
0x400|            41                                 |    A           |                    opcode: "i32.const" (0x41) 0x404-0x405 (1)
0x400|               03                              |     .          |                    n: 3 (valid) 0x405-0x406 (1)
     |                                               |                |                  [4]{}: in 0x406-0x408 (2)
0x400|                  10                           |      .         |                    opcode: "call" (0x10) 0x406-0x407 (1)
0x400|                     0e                        |       .        |                    x: 14 (valid) 0x407-0x408 (1)
     |                                               |                |                  [5]{}: in 0x408-0x409 (1)
0x400|                        0b                     |        .       |                    opcode: "end" (0xb) 0x408-0x409 (1)
     |                                               |                |            [17]{}: code 0x409-0x416 (13)
0x400|                           0c                  |         .      |              size: 12 (valid) 0x409-0x40a (1)
     |                                               |                |              code{}: 0x40a-0x416 (12)
     |                                               |                |                t{}: 0x40a-0x40b (1)
0x400|                              00               |          .     |                  n: 0 (valid) 0x40a-0x40b (1)
     |                                               |                |                  x[0:0]: 0x40b-0x40b (0)
     |                                               |                |                e[0:6]: 0x40b-0x416 (11)
     |                                               |                |                  [0]{}: in 0x40b-0x40d (2)
0x400|                                 41            |           A    |                    opcode: "i32.const" (0x41) 0x40b-0x40c (1)
0x400|                                    01         |            .   |                    n: 1 (valid) 0x40c-0x40d (1)
     |                                               |                |                  [1]{}: in 0x40d-0x40f (2)
0x400|                                       41      |             A  |                    opcode: "i32.const" (0x41) 0x40d-0x40e (1)
0x400|                                          02   |              . |                    n: 2 (valid) 0x40e-0x40f (1)
     |                                               |                |                  [2]{}: in 0x40f-0x411 (2)
0x400|                                             41|               A|                    opcode: "i32.const" (0x41) 0x40f-0x410 (1)
0x410|00                                             |.               |                    n: 0 (valid) 0x410-0x411 (1)
     |                                               |                |                  [3]{}: in 0x411-0x413 (2)
0x410|   40                                          | @              |                    opcode: "memory.grow" (0x40) 0x411-0x412 (1)
0x410|      00                                       |  .             |                    reserved: 0x0 (valid) 0x412-0x413 (1)
     |                                               |                |                  [4]{}: in 0x413-0x415 (2)
0x410|         10                                    |   .            |                    opcode: "call" (0x10) 0x413-0x414 (1)
0x410|            0e                                 |    .           |                    x: 14 (valid) 0x414-0x415 (1)
     |                                               |                |                  [5]{}: in 0x415-0x416 (1)
0x410|               0b                              |     .          |                    opcode: "end" (0xb) 0x415-0x416 (1)
     |                                               |                |            [18]{}: code 0x416-0x426 (16)
0x410|                  0f                           |      .         |              size: 15 (valid) 0x416-0x417 (1)
     |                                               |                |              code{}: 0x417-0x426 (15)
     |                                               |                |                t{}: 0x417-0x418 (1)
0x410|                     00                        |       .        |                  n: 0 (valid) 0x417-0x418 (1)
     |                                               |                |                  x[0:0]: 0x418-0x418 (0)
     |                                               |                |                e[0:7]: 0x418-0x426 (14)
     |                                               |                |                  [0]{}: in 0x418-0x41a (2)
0x410|                        41                     |        A       |                    opcode: "i32.const" (0x41) 0x418-0x419 (1)
0x410|                           00                  |         .      |                    n: 0 (valid) 0x419-0x41a (1)
     |                                               |                |                  [1]{}: in 0x41a-0x41c (2)
0x410|                              40               |          @     |                    opcode: "memory.grow" (0x40) 0x41a-0x41b (1)
0x410|                                 00            |           .    |                    reserved: 0x0 (valid) 0x41b-0x41c (1)
     |                                               |                |                  [2]{}: in 0x41c-0x41e (2)
0x410|                                    41         |            A   |                    opcode: "i32.const" (0x41) 0x41c-0x41d (1)
0x410|                                       02      |             .  |                    n: 2 (valid) 0x41d-0x41e (1)
     |                                               |                |                  [3]{}: in 0x41e-0x420 (2)
0x410|                                          41   |              A |                    opcode: "i32.const" (0x41) 0x41e-0x41f (1)
0x410|                                             03|               .|                    n: 3 (valid) 0x41f-0x420 (1)
     |                                               |                |                  [4]{}: in 0x420-0x422 (2)
0x420|41                                             |A               |                    opcode: "i32.const" (0x41) 0x420-0x421 (1)
0x420|   00                                          | .              |                    n: 0 (valid) 0x421-0x422 (1)
     |                                               |                |                  [5]{}: in 0x422-0x425 (3)
0x420|      11                                       |  .             |                    opcode: "call_indirect" (0x11) 0x422-0x423 (1)
0x420|         00                                    |   .            |                    y: 0 (valid) 0x423-0x424 (1)
0x420|            00                                 |    .           |                    x: 0 (valid) 0x424-0x425 (1)
     |                                               |                |                  [6]{}: in 0x425-0x426 (1)
0x420|               0b                              |     .          |                    opcode: "end" (0xb) 0x425-0x426 (1)
     |                                               |                |            [19]{}: code 0x426-0x436 (16)
0x420|                  0f                           |      .         |              size: 15 (valid) 0x426-0x427 (1)
     |                                               |                |              code{}: 0x427-0x436 (15)
     |                                               |                |                t{}: 0x427-0x428 (1)
0x420|                     00                        |       .        |                  n: 0 (valid) 0x427-0x428 (1)
     |                                               |                |                  x[0:0]: 0x428-0x428 (0)
     |                                               |                |                e[0:7]: 0x428-0x436 (14)
     |                                               |                |                  [0]{}: in 0x428-0x42a (2)
0x420|                        41                     |        A       |                    opcode: "i32.const" (0x41) 0x428-0x429 (1)
0x420|                           01                  |         .      |                    n: 1 (valid) 0x429-0x42a (1)
     |                                               |                |                  [1]{}: in 0x42a-0x42c (2)
0x420|                              41               |          A     |                    opcode: "i32.const" (0x41) 0x42a-0x42b (1)
0x420|                                 00            |           .    |                    n: 0 (valid) 0x42b-0x42c (1)
     |                                               |                |                  [2]{}: in 0x42c-0x42e (2)
0x420|                                    40         |            @   |                    opcode: "memory.grow" (0x40) 0x42c-0x42d (1)
0x420|                                       00      |             .  |                    reserved: 0x0 (valid) 0x42d-0x42e (1)
     |                                               |                |                  [3]{}: in 0x42e-0x430 (2)
0x420|                                          41   |              A |                    opcode: "i32.const" (0x41) 0x42e-0x42f (1)
0x420|                                             03|               .|                    n: 3 (valid) 0x42f-0x430 (1)
     |                                               |                |                  [4]{}: in 0x430-0x432 (2)
0x430|41                                             |A               |                    opcode: "i32.const" (0x41) 0x430-0x431 (1)
0x430|   00                                          | .              |                    n: 0 (valid) 0x431-0x432 (1)
     |                                               |                |                  [5]{}: in 0x432-0x435 (3)
0x430|      11                                       |  .             |                    opcode: "call_indirect" (0x11) 0x432-0x433 (1)
0x430|         00                                    |   .            |                    y: 0 (valid) 0x433-0x434 (1)
0x430|            00                                 |    .           |                    x: 0 (valid) 0x434-0x435 (1)
     |                                               |                |                  [6]{}: in 0x435-0x436 (1)
0x430|               0b                              |     .          |                    opcode: "end" (0xb) 0x435-0x436 (1)
     |                                               |                |            [20]{}: code 0x436-0x446 (16)
0x430|                  0f                           |      .         |              size: 15 (valid) 0x436-0x437 (1)
     |                                               |                |              code{}: 0x437-0x446 (15)
     |                                               |                |                t{}: 0x437-0x438 (1)
0x430|                     00                        |       .        |                  n: 0 (valid) 0x437-0x438 (1)
     |                                               |                |                  x[0:0]: 0x438-0x438 (0)
     |                                               |                |                e[0:7]: 0x438-0x446 (14)
     |                                               |                |                  [0]{}: in 0x438-0x43a (2)
0x430|                        41                     |        A       |                    opcode: "i32.const" (0x41) 0x438-0x439 (1)
0x430|                           01                  |         .      |                    n: 1 (valid) 0x439-0x43a (1)
     |                                               |                |                  [1]{}: in 0x43a-0x43c (2)
0x430|                              41               |          A     |                    opcode: "i32.const" (0x41) 0x43a-0x43b (1)
0x430|                                 02            |           .    |                    n: 2 (valid) 0x43b-0x43c (1)
     |                                               |                |                  [2]{}: in 0x43c-0x43e (2)
0x430|                                    41         |            A   |                    opcode: "i32.const" (0x41) 0x43c-0x43d (1)
0x430|                                       00      |             .  |                    n: 0 (valid) 0x43d-0x43e (1)
     |                                               |                |                  [3]{}: in 0x43e-0x440 (2)
0x430|                                          40   |              @ |                    opcode: "memory.grow" (0x40) 0x43e-0x43f (1)
0x430|                                             00|               .|                    reserved: 0x0 (valid) 0x43f-0x440 (1)
     |                                               |                |                  [4]{}: in 0x440-0x442 (2)
0x440|41                                             |A               |                    opcode: "i32.const" (0x41) 0x440-0x441 (1)
0x440|   00                                          | .              |                    n: 0 (valid) 0x441-0x442 (1)
     |                                               |                |                  [5]{}: in 0x442-0x445 (3)
0x440|      11                                       |  .             |                    opcode: "call_indirect" (0x11) 0x442-0x443 (1)
0x440|         00                                    |   .            |                    y: 0 (valid) 0x443-0x444 (1)
0x440|            00                                 |    .           |                    x: 0 (valid) 0x444-0x445 (1)
     |                                               |                |                  [6]{}: in 0x445-0x446 (1)
0x440|               0b                              |     .          |                    opcode: "end" (0xb) 0x445-0x446 (1)
     |                                               |                |            [21]{}: code 0x446-0x456 (16)
0x440|                  0f                           |      .         |              size: 15 (valid) 0x446-0x447 (1)
     |                                               |                |              code{}: 0x447-0x456 (15)
     |                                               |                |                t{}: 0x447-0x448 (1)
0x440|                     00                        |       .        |                  n: 0 (valid) 0x447-0x448 (1)
     |                                               |                |                  x[0:0]: 0x448-0x448 (0)
     |                                               |                |                e[0:7]: 0x448-0x456 (14)
     |                                               |                |                  [0]{}: in 0x448-0x44a (2)
0x440|                        41                     |        A       |                    opcode: "i32.const" (0x41) 0x448-0x449 (1)
0x440|                           01                  |         .      |                    n: 1 (valid) 0x449-0x44a (1)
     |                                               |                |                  [1]{}: in 0x44a-0x44c (2)
0x440|                              41               |          A     |                    opcode: "i32.const" (0x41) 0x44a-0x44b (1)
0x440|                                 02            |           .    |                    n: 2 (valid) 0x44b-0x44c (1)
     |                                               |                |                  [2]{}: in 0x44c-0x44e (2)
0x440|                                    41         |            A   |                    opcode: "i32.const" (0x41) 0x44c-0x44d (1)
0x440|                                       03      |             .  |                    n: 3 (valid) 0x44d-0x44e (1)
     |                                               |                |                  [3]{}: in 0x44e-0x450 (2)
0x440|                                          41   |              A |                    opcode: "i32.const" (0x41) 0x44e-0x44f (1)
0x440|                                             00|               .|                    n: 0 (valid) 0x44f-0x450 (1)
     |                                               |                |                  [4]{}: in 0x450-0x452 (2)
0x450|40                                             |@               |                    opcode: "memory.grow" (0x40) 0x450-0x451 (1)
0x450|   00                                          | .              |                    reserved: 0x0 (valid) 0x451-0x452 (1)
     |                                               |                |                  [5]{}: in 0x452-0x455 (3)
0x450|      11                                       |  .             |                    opcode: "call_indirect" (0x11) 0x452-0x453 (1)
0x450|         00                                    |   .            |                    y: 0 (valid) 0x453-0x454 (1)
0x450|            00                                 |    .           |                    x: 0 (valid) 0x454-0x455 (1)
     |                                               |                |                  [6]{}: in 0x455-0x456 (1)
0x450|               0b                              |     .          |                    opcode: "end" (0xb) 0x455-0x456 (1)
     |                                               |                |            [22]{}: code 0x456-0x461 (11)
0x450|                  0a                           |      .         |              size: 10 (valid) 0x456-0x457 (1)
     |                                               |                |              code{}: 0x457-0x461 (10)
     |                                               |                |                t{}: 0x457-0x45a (3)
0x450|                     01                        |       .        |                  n: 1 (valid) 0x457-0x458 (1)
     |                                               |                |                  x[0:1]: 0x458-0x45a (2)
     |                                               |                |                    [0]{}: t 0x458-0x45a (2)
0x450|                        01                     |        .       |                      n: 1 (valid) 0x458-0x459 (1)
0x450|                           7f                  |         .      |                      t: "i32" (0x7f) 0x459-0x45a (1)
     |                                               |                |                e[0:4]: 0x45a-0x461 (7)
     |                                               |                |                  [0]{}: in 0x45a-0x45c (2)
0x450|                              41               |          A     |                    opcode: "i32.const" (0x41) 0x45a-0x45b (1)
0x450|                                 00            |           .    |                    n: 0 (valid) 0x45b-0x45c (1)
     |                                               |                |                  [1]{}: in 0x45c-0x45e (2)
0x450|                                    40         |            @   |                    opcode: "memory.grow" (0x40) 0x45c-0x45d (1)
0x450|                                       00      |             .  |                    reserved: 0x0 (valid) 0x45d-0x45e (1)
     |                                               |                |                  [2]{}: in 0x45e-0x460 (2)
0x450|                                          21   |              ! |                    opcode: "local.set" (0x21) 0x45e-0x45f (1)
0x450|                                             00|               .|                    x: 0 (valid) 0x45f-0x460 (1)
     |                                               |                |                  [3]{}: in 0x460-0x461 (1)
0x460|0b                                             |.               |                    opcode: "end" (0xb) 0x460-0x461 (1)
     |                                               |                |            [23]{}: code 0x461-0x46c (11)
0x460|   0a                                          | .              |              size: 10 (valid) 0x461-0x462 (1)
     |                                               |                |              code{}: 0x462-0x46c (10)
     |                                               |                |                t{}: 0x462-0x465 (3)
0x460|      01                                       |  .             |                  n: 1 (valid) 0x462-0x463 (1)
     |                                               |                |                  x[0:1]: 0x463-0x465 (2)
     |                                               |                |                    [0]{}: t 0x463-0x465 (2)
0x460|         01                                    |   .            |                      n: 1 (valid) 0x463-0x464 (1)
0x460|            7f                                 |    .           |                      t: "i32" (0x7f) 0x464-0x465 (1)
     |                                               |                |                e[0:4]: 0x465-0x46c (7)
     |                                               |                |                  [0]{}: in 0x465-0x467 (2)
0x460|               41                              |     A          |                    opcode: "i32.const" (0x41) 0x465-0x466 (1)
0x460|                  00                           |      .         |                    n: 0 (valid) 0x466-0x467 (1)
     |                                               |                |                  [1]{}: in 0x467-0x469 (2)
0x460|                     40                        |       @        |                    opcode: "memory.grow" (0x40) 0x467-0x468 (1)
0x460|                        00                     |        .       |                    reserved: 0x0 (valid) 0x468-0x469 (1)
     |                                               |                |                  [2]{}: in 0x469-0x46b (2)
0x460|                           22                  |         "      |                    opcode: "local.tee" (0x22) 0x469-0x46a (1)
0x460|                              00               |          .     |                    x: 0 (valid) 0x46a-0x46b (1)
     |                                               |                |                  [3]{}: in 0x46b-0x46c (1)
0x460|                                 0b            |           .    |                    opcode: "end" (0xb) 0x46b-0x46c (1)
     |                                               |                |            [24]{}: code 0x46c-0x477 (11)
0x460|                                    0a         |            .   |              size: 10 (valid) 0x46c-0x46d (1)
     |                                               |                |              code{}: 0x46d-0x477 (10)
     |                                               |                |                t{}: 0x46d-0x470 (3)
0x460|                                       01      |             .  |                  n: 1 (valid) 0x46d-0x46e (1)
     |                                               |                |                  x[0:1]: 0x46e-0x470 (2)
     |                                               |                |                    [0]{}: t 0x46e-0x470 (2)
0x460|                                          01   |              . |                      n: 1 (valid) 0x46e-0x46f (1)
0x460|                                             7f|               .|                      t: "i32" (0x7f) 0x46f-0x470 (1)
     |                                               |                |                e[0:4]: 0x470-0x477 (7)
     |                                               |                |                  [0]{}: in 0x470-0x472 (2)
0x470|41                                             |A               |                    opcode: "i32.const" (0x41) 0x470-0x471 (1)
0x470|   00                                          | .              |                    n: 0 (valid) 0x471-0x472 (1)
     |                                               |                |                  [1]{}: in 0x472-0x474 (2)
0x470|      40                                       |  @             |                    opcode: "memory.grow" (0x40) 0x472-0x473 (1)
0x470|         00                                    |   .            |                    reserved: 0x0 (valid) 0x473-0x474 (1)
     |                                               |                |                  [2]{}: in 0x474-0x476 (2)
0x470|            24                                 |    $           |                    opcode: "global.set" (0x24) 0x474-0x475 (1)
0x470|               00                              |     .          |                    x: 0 (valid) 0x475-0x476 (1)
     |                                               |                |                  [3]{}: in 0x476-0x477 (1)
0x470|                  0b                           |      .         |                    opcode: "end" (0xb) 0x476-0x477 (1)
     |                                               |                |            [25]{}: code 0x477-0x481 (10)
0x470|                     09                        |       .        |              size: 9 (valid) 0x477-0x478 (1)
     |                                               |                |              code{}: 0x478-0x481 (9)
     |                                               |                |                t{}: 0x478-0x479 (1)
0x470|                        00                     |        .       |                  n: 0 (valid) 0x478-0x479 (1)
     |                                               |                |                  x[0:0]: 0x479-0x479 (0)
     |                                               |                |                e[0:4]: 0x479-0x481 (8)
     |                                               |                |                  [0]{}: in 0x479-0x47b (2)
0x470|                           41                  |         A      |                    opcode: "i32.const" (0x41) 0x479-0x47a (1)
0x470|                              00               |          .     |                    n: 0 (valid) 0x47a-0x47b (1)
     |                                               |                |                  [1]{}: in 0x47b-0x47d (2)
0x470|                                 40            |           @    |                    opcode: "memory.grow" (0x40) 0x47b-0x47c (1)
0x470|                                    00         |            .   |                    reserved: 0x0 (valid) 0x47c-0x47d (1)
     |                                               |                |                  [2]{}: in 0x47d-0x480 (3)
0x470|                                       28      |             (  |                    opcode: "i32.load" (0x28) 0x47d-0x47e (1)
     |                                               |                |                    m{}: 0x47e-0x480 (2)
0x470|                                          02   |              . |                      a: 2 (valid) 0x47e-0x47f (1)
0x470|                                             00|               .|                      o: 0 (valid) 0x47f-0x480 (1)
     |                                               |                |                  [3]{}: in 0x480-0x481 (1)
0x480|0b                                             |.               |                    opcode: "end" (0xb) 0x480-0x481 (1)
     |                                               |                |            [26]{}: code 0x481-0x48b (10)
0x480|   09                                          | .              |              size: 9 (valid) 0x481-0x482 (1)
     |                                               |                |              code{}: 0x482-0x48b (9)
     |                                               |                |                t{}: 0x482-0x483 (1)
0x480|      00                                       |  .             |                  n: 0 (valid) 0x482-0x483 (1)
     |                                               |                |                  x[0:0]: 0x483-0x483 (0)
     |                                               |                |                e[0:4]: 0x483-0x48b (8)
     |                                               |                |                  [0]{}: in 0x483-0x485 (2)
0x480|         41                                    |   A            |                    opcode: "i32.const" (0x41) 0x483-0x484 (1)
0x480|            00                                 |    .           |                    n: 0 (valid) 0x484-0x485 (1)
     |                                               |                |                  [1]{}: in 0x485-0x487 (2)
0x480|               40                              |     @          |                    opcode: "memory.grow" (0x40) 0x485-0x486 (1)
0x480|                  00                           |      .         |                    reserved: 0x0 (valid) 0x486-0x487 (1)
     |                                               |                |                  [2]{}: in 0x487-0x48a (3)
0x480|                     2c                        |       ,        |                    opcode: "i32.load8_s" (0x2c) 0x487-0x488 (1)
     |                                               |                |                    m{}: 0x488-0x48a (2)
0x480|                        00                     |        .       |                      a: 0 (valid) 0x488-0x489 (1)
0x480|                           00                  |         .      |                      o: 0 (valid) 0x489-0x48a (1)
     |                                               |                |                  [3]{}: in 0x48a-0x48b (1)
0x480|                              0b               |          .     |                    opcode: "end" (0xb) 0x48a-0x48b (1)
     |                                               |                |            [27]{}: code 0x48b-0x497 (12)
0x480|                                 0b            |           .    |              size: 11 (valid) 0x48b-0x48c (1)
     |                                               |                |              code{}: 0x48c-0x497 (11)
     |                                               |                |                t{}: 0x48c-0x48d (1)
0x480|                                    00         |            .   |                  n: 0 (valid) 0x48c-0x48d (1)
     |                                               |                |                  x[0:0]: 0x48d-0x48d (0)
     |                                               |                |                e[0:5]: 0x48d-0x497 (10)
     |                                               |                |                  [0]{}: in 0x48d-0x48f (2)
0x480|                                       41      |             A  |                    opcode: "i32.const" (0x41) 0x48d-0x48e (1)
0x480|                                          00   |              . |                    n: 0 (valid) 0x48e-0x48f (1)
     |                                               |                |                  [1]{}: in 0x48f-0x491 (2)
0x480|                                             40|               @|                    opcode: "memory.grow" (0x40) 0x48f-0x490 (1)
0x490|00                                             |.               |                    reserved: 0x0 (valid) 0x490-0x491 (1)
     |                                               |                |                  [2]{}: in 0x491-0x493 (2)
0x490|   41                                          | A              |                    opcode: "i32.const" (0x41) 0x491-0x492 (1)
0x490|      07                                       |  .             |                    n: 7 (valid) 0x492-0x493 (1)
     |                                               |                |                  [3]{}: in 0x493-0x496 (3)
0x490|         36                                    |   6            |                    opcode: "i32.store" (0x36) 0x493-0x494 (1)
     |                                               |                |                    m{}: 0x494-0x496 (2)
0x490|            02                                 |    .           |                      a: 2 (valid) 0x494-0x495 (1)
0x490|               00                              |     .          |                      o: 0 (valid) 0x495-0x496 (1)
     |                                               |                |                  [4]{}: in 0x496-0x497 (1)
0x490|                  0b                           |      .         |                    opcode: "end" (0xb) 0x496-0x497 (1)
     |                                               |                |            [28]{}: code 0x497-0x4a3 (12)
0x490|                     0b                        |       .        |              size: 11 (valid) 0x497-0x498 (1)
     |                                               |                |              code{}: 0x498-0x4a3 (11)
     |                                               |                |                t{}: 0x498-0x499 (1)
0x490|                        00                     |        .       |                  n: 0 (valid) 0x498-0x499 (1)
     |                                               |                |                  x[0:0]: 0x499-0x499 (0)
     |                                               |                |                e[0:5]: 0x499-0x4a3 (10)
     |                                               |                |                  [0]{}: in 0x499-0x49b (2)
0x490|                           41                  |         A      |                    opcode: "i32.const" (0x41) 0x499-0x49a (1)
0x490|                              02               |          .     |                    n: 2 (valid) 0x49a-0x49b (1)
     |                                               |                |                  [1]{}: in 0x49b-0x49d (2)
0x490|                                 41            |           A    |                    opcode: "i32.const" (0x41) 0x49b-0x49c (1)
0x490|                                    00         |            .   |                    n: 0 (valid) 0x49c-0x49d (1)
     |                                               |                |                  [2]{}: in 0x49d-0x49f (2)
0x490|                                       40      |             @  |                    opcode: "memory.grow" (0x40) 0x49d-0x49e (1)
0x490|                                          00   |              . |                    reserved: 0x0 (valid) 0x49e-0x49f (1)
     |                                               |                |                  [3]{}: in 0x49f-0x4a2 (3)
0x490|                                             36|               6|                    opcode: "i32.store" (0x36) 0x49f-0x4a0 (1)
     |                                               |                |                    m{}: 0x4a0-0x4a2 (2)
0x4a0|02                                             |.               |                      a: 2 (valid) 0x4a0-0x4a1 (1)
0x4a0|   00                                          | .              |                      o: 0 (valid) 0x4a1-0x4a2 (1)
     |                                               |                |                  [4]{}: in 0x4a2-0x4a3 (1)
0x4a0|      0b                                       |  .             |                    opcode: "end" (0xb) 0x4a2-0x4a3 (1)
     |                                               |                |            [29]{}: code 0x4a3-0x4af (12)
0x4a0|         0b                                    |   .            |              size: 11 (valid) 0x4a3-0x4a4 (1)
     |                                               |                |              code{}: 0x4a4-0x4af (11)
     |                                               |                |                t{}: 0x4a4-0x4a5 (1)
0x4a0|            00                                 |    .           |                  n: 0 (valid) 0x4a4-0x4a5 (1)
     |                                               |                |                  x[0:0]: 0x4a5-0x4a5 (0)
     |                                               |                |                e[0:5]: 0x4a5-0x4af (10)
     |                                               |                |                  [0]{}: in 0x4a5-0x4a7 (2)
0x4a0|               41                              |     A          |                    opcode: "i32.const" (0x41) 0x4a5-0x4a6 (1)
0x4a0|                  00                           |      .         |                    n: 0 (valid) 0x4a6-0x4a7 (1)
     |                                               |                |                  [1]{}: in 0x4a7-0x4a9 (2)
0x4a0|                     40                        |       @        |                    opcode: "memory.grow" (0x40) 0x4a7-0x4a8 (1)
0x4a0|                        00                     |        .       |                    reserved: 0x0 (valid) 0x4a8-0x4a9 (1)
     |                                               |                |                  [2]{}: in 0x4a9-0x4ab (2)
0x4a0|                           41                  |         A      |                    opcode: "i32.const" (0x41) 0x4a9-0x4aa (1)
0x4a0|                              07               |          .     |                    n: 7 (valid) 0x4aa-0x4ab (1)
     |                                               |                |                  [3]{}: in 0x4ab-0x4ae (3)
0x4a0|                                 3a            |           :    |                    opcode: "i32.store8" (0x3a) 0x4ab-0x4ac (1)
     |                                               |                |                    m{}: 0x4ac-0x4ae (2)
0x4a0|                                    00         |            .   |                      a: 0 (valid) 0x4ac-0x4ad (1)
0x4a0|                                       00      |             .  |                      o: 0 (valid) 0x4ad-0x4ae (1)
     |                                               |                |                  [4]{}: in 0x4ae-0x4af (1)
0x4a0|                                          0b   |              . |                    opcode: "end" (0xb) 0x4ae-0x4af (1)
     |                                               |                |            [30]{}: code 0x4af-0x4bb (12)
0x4a0|                                             0b|               .|              size: 11 (valid) 0x4af-0x4b0 (1)
     |                                               |                |              code{}: 0x4b0-0x4bb (11)
     |                                               |                |                t{}: 0x4b0-0x4b1 (1)
0x4b0|00                                             |.               |                  n: 0 (valid) 0x4b0-0x4b1 (1)
     |                                               |                |                  x[0:0]: 0x4b1-0x4b1 (0)
     |                                               |                |                e[0:5]: 0x4b1-0x4bb (10)
     |                                               |                |                  [0]{}: in 0x4b1-0x4b3 (2)
0x4b0|   41                                          | A              |                    opcode: "i32.const" (0x41) 0x4b1-0x4b2 (1)
0x4b0|      02                                       |  .             |                    n: 2 (valid) 0x4b2-0x4b3 (1)
     |                                               |                |                  [1]{}: in 0x4b3-0x4b5 (2)
0x4b0|         41                                    |   A            |                    opcode: "i32.const" (0x41) 0x4b3-0x4b4 (1)
0x4b0|            00                                 |    .           |                    n: 0 (valid) 0x4b4-0x4b5 (1)
     |                                               |                |                  [2]{}: in 0x4b5-0x4b7 (2)
0x4b0|               40                              |     @          |                    opcode: "memory.grow" (0x40) 0x4b5-0x4b6 (1)
0x4b0|                  00                           |      .         |                    reserved: 0x0 (valid) 0x4b6-0x4b7 (1)
     |                                               |                |                  [3]{}: in 0x4b7-0x4ba (3)
0x4b0|                     3b                        |       ;        |                    opcode: "i32.store16" (0x3b) 0x4b7-0x4b8 (1)
     |                                               |                |                    m{}: 0x4b8-0x4ba (2)
0x4b0|                        01                     |        .       |                      a: 1 (valid) 0x4b8-0x4b9 (1)
0x4b0|                           00                  |         .      |                      o: 0 (valid) 0x4b9-0x4ba (1)
     |                                               |                |                  [4]{}: in 0x4ba-0x4bb (1)
0x4b0|                              0b               |          .     |                    opcode: "end" (0xb) 0x4ba-0x4bb (1)
     |                                               |                |            [31]{}: code 0x4bb-0x4c3 (8)
0x4b0|                                 07            |           .    |              size: 7 (valid) 0x4bb-0x4bc (1)
     |                                               |                |              code{}: 0x4bc-0x4c3 (7)
     |                                               |                |                t{}: 0x4bc-0x4bd (1)
0x4b0|                                    00         |            .   |                  n: 0 (valid) 0x4bc-0x4bd (1)
     |                                               |                |                  x[0:0]: 0x4bd-0x4bd (0)
     |                                               |                |                e[0:4]: 0x4bd-0x4c3 (6)
     |                                               |                |                  [0]{}: in 0x4bd-0x4bf (2)
0x4b0|                                       41      |             A  |                    opcode: "i32.const" (0x41) 0x4bd-0x4be (1)
0x4b0|                                          00   |              . |                    n: 0 (valid) 0x4be-0x4bf (1)
     |                                               |                |                  [1]{}: in 0x4bf-0x4c1 (2)
0x4b0|                                             40|               @|                    opcode: "memory.grow" (0x40) 0x4bf-0x4c0 (1)
0x4c0|00                                             |.               |                    reserved: 0x0 (valid) 0x4c0-0x4c1 (1)
     |                                               |                |                  [2]{}: in 0x4c1-0x4c2 (1)
0x4c0|   67                                          | g              |                    opcode: "i32.clz" (0x67) 0x4c1-0x4c2 (1)
     |                                               |                |                  [3]{}: in 0x4c2-0x4c3 (1)
0x4c0|      0b                                       |  .             |                    opcode: "end" (0xb) 0x4c2-0x4c3 (1)
     |                                               |                |            [32]{}: code 0x4c3-0x4cd (10)
0x4c0|         09                                    |   .            |              size: 9 (valid) 0x4c3-0x4c4 (1)
     |                                               |                |              code{}: 0x4c4-0x4cd (9)
     |                                               |                |                t{}: 0x4c4-0x4c5 (1)
0x4c0|            00                                 |    .           |                  n: 0 (valid) 0x4c4-0x4c5 (1)
     |                                               |                |                  x[0:0]: 0x4c5-0x4c5 (0)
     |                                               |                |                e[0:5]: 0x4c5-0x4cd (8)
     |                                               |                |                  [0]{}: in 0x4c5-0x4c7 (2)
0x4c0|               41                              |     A          |                    opcode: "i32.const" (0x41) 0x4c5-0x4c6 (1)
0x4c0|                  00                           |      .         |                    n: 0 (valid) 0x4c6-0x4c7 (1)
     |                                               |                |                  [1]{}: in 0x4c7-0x4c9 (2)
0x4c0|                     40                        |       @        |                    opcode: "memory.grow" (0x40) 0x4c7-0x4c8 (1)
0x4c0|                        00                     |        .       |                    reserved: 0x0 (valid) 0x4c8-0x4c9 (1)
     |                                               |                |                  [2]{}: in 0x4c9-0x4cb (2)
0x4c0|                           41                  |         A      |                    opcode: "i32.const" (0x41) 0x4c9-0x4ca (1)
0x4c0|                              0a               |          .     |                    n: 10 (valid) 0x4ca-0x4cb (1)
     |                                               |                |                  [3]{}: in 0x4cb-0x4cc (1)
0x4c0|                                 6a            |           j    |                    opcode: "i32.add" (0x6a) 0x4cb-0x4cc (1)
     |                                               |                |                  [4]{}: in 0x4cc-0x4cd (1)
0x4c0|                                    0b         |            .   |                    opcode: "end" (0xb) 0x4cc-0x4cd (1)
     |                                               |                |            [33]{}: code 0x4cd-0x4d7 (10)
0x4c0|                                       09      |             .  |              size: 9 (valid) 0x4cd-0x4ce (1)
     |                                               |                |              code{}: 0x4ce-0x4d7 (9)
     |                                               |                |                t{}: 0x4ce-0x4cf (1)
0x4c0|                                          00   |              . |                  n: 0 (valid) 0x4ce-0x4cf (1)
     |                                               |                |                  x[0:0]: 0x4cf-0x4cf (0)
     |                                               |                |                e[0:5]: 0x4cf-0x4d7 (8)
     |                                               |                |                  [0]{}: in 0x4cf-0x4d1 (2)
0x4c0|                                             41|               A|                    opcode: "i32.const" (0x41) 0x4cf-0x4d0 (1)
0x4d0|0a                                             |.               |                    n: 10 (valid) 0x4d0-0x4d1 (1)
     |                                               |                |                  [1]{}: in 0x4d1-0x4d3 (2)
0x4d0|   41                                          | A              |                    opcode: "i32.const" (0x41) 0x4d1-0x4d2 (1)
0x4d0|      00                                       |  .             |                    n: 0 (valid) 0x4d2-0x4d3 (1)
     |                                               |                |                  [2]{}: in 0x4d3-0x4d5 (2)
0x4d0|         40                                    |   @            |                    opcode: "memory.grow" (0x40) 0x4d3-0x4d4 (1)
0x4d0|            00                                 |    .           |                    reserved: 0x0 (valid) 0x4d4-0x4d5 (1)
     |                                               |                |                  [3]{}: in 0x4d5-0x4d6 (1)
0x4d0|               6b                              |     k          |                    opcode: "i32.sub" (0x6b) 0x4d5-0x4d6 (1)
     |                                               |                |                  [4]{}: in 0x4d6-0x4d7 (1)
0x4d0|                  0b                           |      .         |                    opcode: "end" (0xb) 0x4d6-0x4d7 (1)
     |                                               |                |            [34]{}: code 0x4d7-0x4df (8)
0x4d0|                     07                        |       .        |              size: 7 (valid) 0x4d7-0x4d8 (1)
     |                                               |                |              code{}: 0x4d8-0x4df (7)
     |                                               |                |                t{}: 0x4d8-0x4d9 (1)
0x4d0|                        00                     |        .       |                  n: 0 (valid) 0x4d8-0x4d9 (1)
     |                                               |                |                  x[0:0]: 0x4d9-0x4d9 (0)
     |                                               |                |                e[0:4]: 0x4d9-0x4df (6)
     |                                               |                |                  [0]{}: in 0x4d9-0x4db (2)
0x4d0|                           41                  |         A      |                    opcode: "i32.const" (0x41) 0x4d9-0x4da (1)
0x4d0|                              00               |          .     |                    n: 0 (valid) 0x4da-0x4db (1)
     |                                               |                |                  [1]{}: in 0x4db-0x4dd (2)
0x4d0|                                 40            |           @    |                    opcode: "memory.grow" (0x40) 0x4db-0x4dc (1)
0x4d0|                                    00         |            .   |                    reserved: 0x0 (valid) 0x4dc-0x4dd (1)
     |                                               |                |                  [2]{}: in 0x4dd-0x4de (1)
0x4d0|                                       45      |             E  |                    opcode: "32.eqz" (0x45) 0x4dd-0x4de (1)
     |                                               |                |                  [3]{}: in 0x4de-0x4df (1)
0x4d0|                                          0b   |              . |                    opcode: "end" (0xb) 0x4de-0x4df (1)
     |                                               |                |            [35]{}: code 0x4df-0x4e9 (10)
0x4d0|                                             09|               .|              size: 9 (valid) 0x4df-0x4e0 (1)
     |                                               |                |              code{}: 0x4e0-0x4e9 (9)
     |                                               |                |                t{}: 0x4e0-0x4e1 (1)
0x4e0|00                                             |.               |                  n: 0 (valid) 0x4e0-0x4e1 (1)
     |                                               |                |                  x[0:0]: 0x4e1-0x4e1 (0)
     |                                               |                |                e[0:5]: 0x4e1-0x4e9 (8)
     |                                               |                |                  [0]{}: in 0x4e1-0x4e3 (2)
0x4e0|   41                                          | A              |                    opcode: "i32.const" (0x41) 0x4e1-0x4e2 (1)
0x4e0|      00                                       |  .             |                    n: 0 (valid) 0x4e2-0x4e3 (1)
     |                                               |                |                  [1]{}: in 0x4e3-0x4e5 (2)
0x4e0|         40                                    |   @            |                    opcode: "memory.grow" (0x40) 0x4e3-0x4e4 (1)
0x4e0|            00                                 |    .           |                    reserved: 0x0 (valid) 0x4e4-0x4e5 (1)
     |                                               |                |                  [2]{}: in 0x4e5-0x4e7 (2)
0x4e0|               41                              |     A          |                    opcode: "i32.const" (0x41) 0x4e5-0x4e6 (1)
0x4e0|                  0a                           |      .         |                    n: 10 (valid) 0x4e6-0x4e7 (1)
     |                                               |                |                  [3]{}: in 0x4e7-0x4e8 (1)
0x4e0|                     4c                        |       L        |                    opcode: "i32.le_s" (0x4c) 0x4e7-0x4e8 (1)
     |                                               |                |                  [4]{}: in 0x4e8-0x4e9 (1)
0x4e0|                        0b                     |        .       |                    opcode: "end" (0xb) 0x4e8-0x4e9 (1)
     |                                               |                |            [36]{}: code 0x4e9-0x4f3 (10)
0x4e0|                           09                  |         .      |              size: 9 (valid) 0x4e9-0x4ea (1)
     |                                               |                |              code{}: 0x4ea-0x4f3 (9)
     |                                               |                |                t{}: 0x4ea-0x4eb (1)
0x4e0|                              00               |          .     |                  n: 0 (valid) 0x4ea-0x4eb (1)
     |                                               |                |                  x[0:0]: 0x4eb-0x4eb (0)
     |                                               |                |                e[0:5]: 0x4eb-0x4f3 (8)
     |                                               |                |                  [0]{}: in 0x4eb-0x4ed (2)
0x4e0|                                 41            |           A    |                    opcode: "i32.const" (0x41) 0x4eb-0x4ec (1)
0x4e0|                                    0a         |            .   |                    n: 10 (valid) 0x4ec-0x4ed (1)
     |                                               |                |                  [1]{}: in 0x4ed-0x4ef (2)
0x4e0|                                       41      |             A  |                    opcode: "i32.const" (0x41) 0x4ed-0x4ee (1)
0x4e0|                                          00   |              . |                    n: 0 (valid) 0x4ee-0x4ef (1)
     |                                               |                |                  [2]{}: in 0x4ef-0x4f1 (2)
0x4e0|                                             40|               @|                    opcode: "memory.grow" (0x40) 0x4ef-0x4f0 (1)
0x4f0|00                                             |.               |                    reserved: 0x0 (valid) 0x4f0-0x4f1 (1)
     |                                               |                |                  [3]{}: in 0x4f1-0x4f2 (1)
0x4f0|   47                                          | G              |                    opcode: "i32.ne" (0x47) 0x4f1-0x4f2 (1)
     |                                               |                |                  [4]{}: in 0x4f2-0x4f3 (1)
0x4f0|      0b                                       |  .             |                    opcode: "end" (0xb) 0x4f2-0x4f3 (1)
     |                                               |                |            [37]{}: code 0x4f3-0x4fc (9)
0x4f0|         08                                    |   .            |              size: 8 (valid) 0x4f3-0x4f4 (1)
     |                                               |                |              code{}: 0x4f4-0x4fc (8)
     |                                               |                |                t{}: 0x4f4-0x4f5 (1)
0x4f0|            00                                 |    .           |                  n: 0 (valid) 0x4f4-0x4f5 (1)
     |                                               |                |                  x[0:0]: 0x4f5-0x4f5 (0)
     |                                               |                |                e[0:4]: 0x4f5-0x4fc (7)
     |                                               |                |                  [0]{}: in 0x4f5-0x4f7 (2)
0x4f0|               41                              |     A          |                    opcode: "i32.const" (0x41) 0x4f5-0x4f6 (1)
0x4f0|                  00                           |      .         |                    n: 0 (valid) 0x4f6-0x4f7 (1)
     |                                               |                |                  [1]{}: in 0x4f7-0x4f9 (2)
0x4f0|                     40                        |       @        |                    opcode: "memory.grow" (0x40) 0x4f7-0x4f8 (1)
0x4f0|                        00                     |        .       |                    reserved: 0x0 (valid) 0x4f8-0x4f9 (1)
     |                                               |                |                  [2]{}: in 0x4f9-0x4fb (2)
0x4f0|                           40                  |         @      |                    opcode: "memory.grow" (0x40) 0x4f9-0x4fa (1)
0x4f0|                              00               |          .     |                    reserved: 0x0 (valid) 0x4fa-0x4fb (1)
     |                                               |                |                  [3]{}: in 0x4fb-0x4fc (1)
0x4f0|                                 0b|           |           .|   |                    opcode: "end" (0xb) 0x4fb-0x4fc (1)
