$ fq -d wasm dv memory-5.wasm
    |00 01 02 03 04 05 06 07 08 09 0a 0b 0c 0d 0e 0f|0123456789abcdef|.{}: memory-5.wasm (wasm) 0x0-0x10 (16)
0x00|00 61 73 6d                                    |.asm            |  magic: raw bits (valid) 0x0-0x4 (4)
0x00|            01 00 00 00                        |    ....        |  version: 1 0x4-0x8 (4)
    |                                               |                |  sections[0:1]: 0x8-0x10 (8)
    |                                               |                |    [0]{}: section 0x8-0x10 (8)
0x00|                        05                     |        .       |      id: "memory_section" (5) 0x8-0x9 (1)
0x00|                           06                  |         .      |      size: 6 (valid) 0x9-0xa (1)
    |                                               |                |      content{}: 0xa-0x10 (6)
    |                                               |                |        mem{}: 0xa-0x10 (6)
0x00|                              01               |          .     |          n: 1 (valid) 0xa-0xb (1)
    |                                               |                |          x[0:1]: 0xb-0x10 (5)
    |                                               |                |            [0]{}: mem 0xb-0x10 (5)
    |                                               |                |              lim{}: 0xb-0x10 (5)
0x00|                                 01            |           .    |                tag: 0x1 0xb-0xc (1)
0x00|                                    00         |            .   |                n: 0 (valid) 0xc-0xd (1)
0x00|                                       80 80 04|             ...|                m: 65536 (valid) 0xd-0x10 (3)
