$ fq -d wasm dv memory-7.wasm
    |00 01 02 03 04 05 06 07 08 09 0a 0b 0c 0d 0e 0f|0123456789abcdef|.{}: memory-7.wasm (wasm) 0x0-0x36 (54)
0x00|00 61 73 6d                                    |.asm            |  magic: raw bits (valid) 0x0-0x4 (4)
0x00|            01 00 00 00                        |    ....        |  version: 1 0x4-0x8 (4)
    |                                               |                |  sections[0:6]: 0x8-0x36 (46)
    |                                               |                |    [0]{}: section 0x8-0xf (7)
0x00|                        01                     |        .       |      id: "type_section" (1) 0x8-0x9 (1)
0x00|                           05                  |         .      |      size: 5 (valid) 0x9-0xa (1)
    |                                               |                |      content{}: 0xa-0xf (5)
    |                                               |                |        ft{}: 0xa-0xf (5)
0x00|                              01               |          .     |          n: 1 (valid) 0xa-0xb (1)
    |                                               |                |          x[0:1]: 0xb-0xf (4)
    |                                               |                |            [0]{}: ft 0xb-0xf (4)
0x00|                                 60            |           `    |              tag: 0x60 (valid) 0xb-0xc (1)
    |                                               |                |              rt1{}: 0xc-0xd (1)
0x00|                                    00         |            .   |                n: 0 (valid) 0xc-0xd (1)
    |                                               |                |                x[0:0]: 0xd-0xd (0)
    |                                               |                |              rt2{}: 0xd-0xf (2)
0x00|                                       01      |             .  |                n: 1 (valid) 0xd-0xe (1)
    |                                               |                |                x[0:1]: 0xe-0xf (1)
0x00|                                          7f   |              . |                  [0]: "i32" (0x7f) t 0xe-0xf (1)
    |                                               |                |    [1]{}: section 0xf-0x13 (4)
0x00|                                             03|               .|      id: "function_section" (3) 0xf-0x10 (1)
0x10|02                                             |.               |      size: 2 (valid) 0x10-0x11 (1)
    |                                               |                |      content{}: 0x11-0x13 (2)
    |                                               |                |        x{}: 0x11-0x13 (2)
0x10|   01                                          | .              |          n: 1 (valid) 0x11-0x12 (1)
    |                                               |                |          x[0:1]: 0x12-0x13 (1)
0x10|      00                                       |  .             |            [0]: 0 x (valid) 0x12-0x13 (1)
    |                                               |                |    [2]{}: section 0x13-0x19 (6)
0x10|         05                                    |   .            |      id: "memory_section" (5) 0x13-0x14 (1)
0x10|            04                                 |    .           |      size: 4 (valid) 0x14-0x15 (1)
    |                                               |                |      content{}: 0x15-0x19 (4)
    |                                               |                |        mem{}: 0x15-0x19 (4)
0x10|               01                              |     .          |          n: 1 (valid) 0x15-0x16 (1)
    |                                               |                |          x[0:1]: 0x16-0x19 (3)
    |                                               |                |            [0]{}: mem 0x16-0x19 (3)
    |                                               |                |              lim{}: 0x16-0x19 (3)
0x10|                  01                           |      .         |                tag: 0x1 0x16-0x17 (1)
0x10|                     00                        |       .        |                n: 0 (valid) 0x17-0x18 (1)
0x10|                        00                     |        .       |                m: 0 (valid) 0x18-0x19 (1)
    |                                               |                |    [3]{}: section 0x19-0x26 (13)
0x10|                           07                  |         .      |      id: "export_section" (7) 0x19-0x1a (1)
0x10|                              0b               |          .     |      size: 11 (valid) 0x1a-0x1b (1)
    |                                               |                |      content{}: 0x1b-0x26 (11)
    |                                               |                |        ex{}: 0x1b-0x26 (11)
0x10|                                 01            |           .    |          n: 1 (valid) 0x1b-0x1c (1)
    |                                               |                |          x[0:1]: 0x1c-0x26 (10)
    |                                               |                |            [0]{}: ex 0x1c-0x26 (10)
    |                                               |                |              nm{}: 0x1c-0x24 (8)
0x10|                                    07         |            .   |                n: 7 (valid) 0x1c-0x1d (1)
0x10|                                       6d 65 6d|             mem|                b: "memsize" 0x1d-0x24 (7)
0x20|73 69 7a 65                                    |size            |
    |                                               |                |              d{}: 0x24-0x26 (2)
0x20|            00                                 |    .           |                tag: "funcidx" (0x0) 0x24-0x25 (1)
0x20|               00                              |     .          |                x: 0 (valid) 0x25-0x26 (1)
    |                                               |                |    [4]{}: section 0x26-0x2e (8)
0x20|                  0a                           |      .         |      id: "code_section" (10) 0x26-0x27 (1)
0x20|                     06                        |       .        |      size: 6 (valid) 0x27-0x28 (1)
    |                                               |                |      content{}: 0x28-0x2e (6)
    |                                               |                |        code{}: 0x28-0x2e (6)
0x20|                        01                     |        .       |          n: 1 (valid) 0x28-0x29 (1)
    |                                               |                |          x[0:1]: 0x29-0x2e (5)
    |                                               |                |            [0]{}: code 0x29-0x2e (5)
0x20|                           04                  |         .      |              size: 4 (valid) 0x29-0x2a (1)
    |                                               |                |              code{}: 0x2a-0x2e (4)
    |                                               |                |                t{}: 0x2a-0x2b (1)
0x20|                              00               |          .     |                  n: 0 (valid) 0x2a-0x2b (1)
    |                                               |                |                  x[0:0]: 0x2b-0x2b (0)
    |                                               |                |                e[0:2]: 0x2b-0x2e (3)
    |                                               |                |                  [0]{}: in 0x2b-0x2d (2)
0x20|                                 3f            |           ?    |                    opcode: "memory.size" (0x3f) 0x2b-0x2c (1)
0x20|                                    00         |            .   |                    reserved: 0x0 (valid) 0x2c-0x2d (1)
    |                                               |                |                  [1]{}: in 0x2d-0x2e (1)
0x20|                                       0b      |             .  |                    opcode: "end" (0xb) 0x2d-0x2e (1)
    |                                               |                |    [5]{}: section 0x2e-0x36 (8)
0x20|                                          0b   |              . |      id: "data_section" (11) 0x2e-0x2f (1)
0x20|                                             06|               .|      size: 6 (valid) 0x2f-0x30 (1)
    |                                               |                |      content{}: 0x30-0x36 (6)
    |                                               |                |        seg{}: 0x30-0x36 (6)
0x30|01                                             |.               |          n: 1 (valid) 0x30-0x31 (1)
    |                                               |                |          x[0:1]: 0x31-0x36 (5)
    |                                               |                |            [0]{}: seg 0x31-0x36 (5)
0x30|   00                                          | .              |              tag: 0 (valid) 0x31-0x32 (1)
    |                                               |                |              e[0:2]: 0x32-0x35 (3)
    |                                               |                |                [0]{}: in 0x32-0x34 (2)
0x30|      41                                       |  A             |                  opcode: "i32.const" (0x41) 0x32-0x33 (1)
0x30|         00                                    |   .            |                  n: 0 (valid) 0x33-0x34 (1)
    |                                               |                |                [1]{}: in 0x34-0x35 (1)
0x30|            0b                                 |    .           |                  opcode: "end" (0xb) 0x34-0x35 (1)
    |                                               |                |              b{}: 0x35-0x36 (1)
0x30|               00|                             |     .|         |                n: 0 (valid) 0x35-0x36 (1)
    |                                               |                |                x: raw bits 0x36-0x36 (0)
