$ fq -d wasm dv memory_grow-0.wasm
    |00 01 02 03 04 05 06 07 08 09 0a 0b 0c 0d 0e 0f|0123456789abcdef|.{}: memory_grow-0.wasm (wasm) 0x0-0xb5 (181)
0x00|00 61 73 6d                                    |.asm            |  magic: raw bits (valid) 0x0-0x4 (4)
0x00|            01 00 00 00                        |    ....        |  version: 1 0x4-0x8 (4)
    |                                               |                |  sections[0:5]: 0x8-0xb5 (173)
    |                                               |                |    [0]{}: section 0x8-0x17 (15)
0x00|                        01                     |        .       |      id: "type_section" (1) 0x8-0x9 (1)
0x00|                           0d                  |         .      |      size: 13 (valid) 0x9-0xa (1)
    |                                               |                |      content{}: 0xa-0x17 (13)
    |                                               |                |        ft{}: 0xa-0x17 (13)
0x00|                              03               |          .     |          n: 3 (valid) 0xa-0xb (1)
    |                                               |                |          x[0:3]: 0xb-0x17 (12)
    |                                               |                |            [0]{}: ft 0xb-0xf (4)
0x00|                                 60            |           `    |              tag: 0x60 (valid) 0xb-0xc (1)
    |                                               |                |              rt1{}: 0xc-0xd (1)
0x00|                                    00         |            .   |                n: 0 (valid) 0xc-0xd (1)
    |                                               |                |                x[0:0]: 0xd-0xd (0)
    |                                               |                |              rt2{}: 0xd-0xf (2)
0x00|                                       01      |             .  |                n: 1 (valid) 0xd-0xe (1)
    |                                               |                |                x[0:1]: 0xe-0xf (1)
0x00|                                          7f   |              . |                  [0]: "i32" (0x7f) t 0xe-0xf (1)
    |                                               |                |            [1]{}: ft 0xf-0x12 (3)
0x00|                                             60|               `|              tag: 0x60 (valid) 0xf-0x10 (1)
    |                                               |                |              rt1{}: 0x10-0x11 (1)
0x10|00                                             |.               |                n: 0 (valid) 0x10-0x11 (1)
    |                                               |                |                x[0:0]: 0x11-0x11 (0)
    |                                               |                |              rt2{}: 0x11-0x12 (1)
0x10|   00                                          | .              |                n: 0 (valid) 0x11-0x12 (1)
    |                                               |                |                x[0:0]: 0x12-0x12 (0)
    |                                               |                |            [2]{}: ft 0x12-0x17 (5)
0x10|      60                                       |  `             |              tag: 0x60 (valid) 0x12-0x13 (1)
    |                                               |                |              rt1{}: 0x13-0x15 (2)
0x10|         01                                    |   .            |                n: 1 (valid) 0x13-0x14 (1)
    |                                               |                |                x[0:1]: 0x14-0x15 (1)
0x10|            7f                                 |    .           |                  [0]: "i32" (0x7f) t 0x14-0x15 (1)
    |                                               |                |              rt2{}: 0x15-0x17 (2)
0x10|               01                              |     .          |                n: 1 (valid) 0x15-0x16 (1)
    |                                               |                |                x[0:1]: 0x16-0x17 (1)
0x10|                  7f                           |      .         |                  [0]: "i32" (0x7f) t 0x16-0x17 (1)
    |                                               |                |    [1]{}: section 0x17-0x20 (9)
0x10|                     03                        |       .        |      id: "function_section" (3) 0x17-0x18 (1)
0x10|                        07                     |        .       |      size: 7 (valid) 0x18-0x19 (1)
    |                                               |                |      content{}: 0x19-0x20 (7)
    |                                               |                |        x{}: 0x19-0x20 (7)
0x10|                           06                  |         .      |          n: 6 (valid) 0x19-0x1a (1)
    |                                               |                |          x[0:6]: 0x1a-0x20 (6)
0x10|                              00               |          .     |            [0]: 0 x (valid) 0x1a-0x1b (1)
0x10|                                 01            |           .    |            [1]: 1 x (valid) 0x1b-0x1c (1)
0x10|                                    00         |            .   |            [2]: 0 x (valid) 0x1c-0x1d (1)
0x10|                                       01      |             .  |            [3]: 1 x (valid) 0x1d-0x1e (1)
0x10|                                          02   |              . |            [4]: 2 x (valid) 0x1e-0x1f (1)
0x10|                                             00|               .|            [5]: 0 x (valid) 0x1f-0x20 (1)
    |                                               |                |    [2]{}: section 0x20-0x25 (5)
0x20|05                                             |.               |      id: "memory_section" (5) 0x20-0x21 (1)
0x20|   03                                          | .              |      size: 3 (valid) 0x21-0x22 (1)
    |                                               |                |      content{}: 0x22-0x25 (3)
    |                                               |                |        mem{}: 0x22-0x25 (3)
0x20|      01                                       |  .             |          n: 1 (valid) 0x22-0x23 (1)
    |                                               |                |          x[0:1]: 0x23-0x25 (2)
    |                                               |                |            [0]{}: mem 0x23-0x25 (2)
    |                                               |                |              lim{}: 0x23-0x25 (2)
0x20|         00                                    |   .            |                tag: 0x0 0x23-0x24 (1)
0x20|            00                                 |    .           |                n: 0 (valid) 0x24-0x25 (1)
    |                                               |                |    [3]{}: section 0x25-0x7e (89)
0x20|               07                              |     .          |      id: "export_section" (7) 0x25-0x26 (1)
0x20|                  57                           |      W         |      size: 87 (valid) 0x26-0x27 (1)
    |                                               |                |      content{}: 0x27-0x7e (87)
    |                                               |                |        ex{}: 0x27-0x7e (87)
0x20|                     06                        |       .        |          n: 6 (valid) 0x27-0x28 (1)
    |                                               |                |          x[0:6]: 0x28-0x7e (86)
    |                                               |                |            [0]{}: ex 0x28-0x37 (15)
    |                                               |                |              nm{}: 0x28-0x35 (13)
0x20|                        0c                     |        .       |                n: 12 (valid) 0x28-0x29 (1)
0x20|                           6c 6f 61 64 5f 61 74|         load_at|                b: "load_at_zero" 0x29-0x35 (12)
0x30|5f 7a 65 72 6f                                 |_zero           |
    |                                               |                |              d{}: 0x35-0x37 (2)
0x30|               00                              |     .          |                tag: "funcidx" (0x0) 0x35-0x36 (1)
0x30|                  00                           |      .         |                x: 0 (valid) 0x36-0x37 (1)
    |                                               |                |            [1]{}: ex 0x37-0x47 (16)
    |                                               |                |              nm{}: 0x37-0x45 (14)
0x30|                     0d                        |       .        |                n: 13 (valid) 0x37-0x38 (1)
0x30|                        73 74 6f 72 65 5f 61 74|        store_at|                b: "store_at_zero" 0x38-0x45 (13)
0x40|5f 7a 65 72 6f                                 |_zero           |
    |                                               |                |              d{}: 0x45-0x47 (2)
0x40|               00                              |     .          |                tag: "funcidx" (0x0) 0x45-0x46 (1)
0x40|                  01                           |      .         |                x: 1 (valid) 0x46-0x47 (1)
    |                                               |                |            [2]{}: ex 0x47-0x5b (20)
    |                                               |                |              nm{}: 0x47-0x59 (18)
0x40|                     11                        |       .        |                n: 17 (valid) 0x47-0x48 (1)
0x40|                        6c 6f 61 64 5f 61 74 5f|        load_at_|                b: "load_at_page_size" 0x48-0x59 (17)
0x50|70 61 67 65 5f 73 69 7a 65                     |page_size       |
    |                                               |                |              d{}: 0x59-0x5b (2)
0x50|                           00                  |         .      |                tag: "funcidx" (0x0) 0x59-0x5a (1)
0x50|                              02               |          .     |                x: 2 (valid) 0x5a-0x5b (1)
    |                                               |                |            [3]{}: ex 0x5b-0x70 (21)
    |                                               |                |              nm{}: 0x5b-0x6e (19)
0x50|                                 12            |           .    |                n: 18 (valid) 0x5b-0x5c (1)
0x50|                                    73 74 6f 72|            stor|                b: "store_at_page_size" 0x5c-0x6e (18)
0x60|65 5f 61 74 5f 70 61 67 65 5f 73 69 7a 65      |e_at_page_size  |
    |                                               |                |              d{}: 0x6e-0x70 (2)
0x60|                                          00   |              . |                tag: "funcidx" (0x0) 0x6e-0x6f (1)
0x60|                                             03|               .|                x: 3 (valid) 0x6f-0x70 (1)
    |                                               |                |            [4]{}: ex 0x70-0x77 (7)
    |                                               |                |              nm{}: 0x70-0x75 (5)
0x70|04                                             |.               |                n: 4 (valid) 0x70-0x71 (1)
0x70|   67 72 6f 77                                 | grow           |                b: "grow" 0x71-0x75 (4)
    |                                               |                |              d{}: 0x75-0x77 (2)
0x70|               00                              |     .          |                tag: "funcidx" (0x0) 0x75-0x76 (1)
0x70|                  04                           |      .         |                x: 4 (valid) 0x76-0x77 (1)
    |                                               |                |            [5]{}: ex 0x77-0x7e (7)
    |                                               |                |              nm{}: 0x77-0x7c (5)
0x70|                     04                        |       .        |                n: 4 (valid) 0x77-0x78 (1)
0x70|                        73 69 7a 65            |        size    |                b: "size" 0x78-0x7c (4)
    |                                               |                |              d{}: 0x7c-0x7e (2)
0x70|                                    00         |            .   |                tag: "funcidx" (0x0) 0x7c-0x7d (1)
0x70|                                       05      |             .  |                x: 5 (valid) 0x7d-0x7e (1)
    |                                               |                |    [4]{}: section 0x7e-0xb5 (55)
0x70|                                          0a   |              . |      id: "code_section" (10) 0x7e-0x7f (1)
0x70|                                             35|               5|      size: 53 (valid) 0x7f-0x80 (1)
    |                                               |                |      content{}: 0x80-0xb5 (53)
    |                                               |                |        code{}: 0x80-0xb5 (53)
0x80|06                                             |.               |          n: 6 (valid) 0x80-0x81 (1)
    |                                               |                |          x[0:6]: 0x81-0xb5 (52)
    |                                               |                |            [0]{}: code 0x81-0x89 (8)
0x80|   07                                          | .              |              size: 7 (valid) 0x81-0x82 (1)
    |                                               |                |              code{}: 0x82-0x89 (7)
    |                                               |                |                t{}: 0x82-0x83 (1)
0x80|      00                                       |  .             |                  n: 0 (valid) 0x82-0x83 (1)
    |                                               |                |                  x[0:0]: 0x83-0x83 (0)
    |                                               |                |                e[0:3]: 0x83-0x89 (6)
    |                                               |                |                  [0]{}: in 0x83-0x85 (2)
0x80|         41                                    |   A            |                    opcode: "i32.const" (0x41) 0x83-0x84 (1)
0x80|            00                                 |    .           |                    n: 0 (valid) 0x84-0x85 (1)
    |                                               |                |                  [1]{}: in 0x85-0x88 (3)
0x80|               28                              |     (          |                    opcode: "i32.load" (0x28) 0x85-0x86 (1)
    |                                               |                |                    m{}: 0x86-0x88 (2)
0x80|                  02                           |      .         |                      a: 2 (valid) 0x86-0x87 (1)
0x80|                     00                        |       .        |                      o: 0 (valid) 0x87-0x88 (1)
    |                                               |                |                  [2]{}: in 0x88-0x89 (1)
0x80|                        0b                     |        .       |                    opcode: "end" (0xb) 0x88-0x89 (1)
    |                                               |                |            [1]{}: code 0x89-0x93 (10)
0x80|                           09                  |         .      |              size: 9 (valid) 0x89-0x8a (1)
    |                                               |                |              code{}: 0x8a-0x93 (9)
    |                                               |                |                t{}: 0x8a-0x8b (1)
0x80|                              00               |          .     |                  n: 0 (valid) 0x8a-0x8b (1)
    |                                               |                |                  x[0:0]: 0x8b-0x8b (0)
    |                                               |                |                e[0:4]: 0x8b-0x93 (8)
    |                                               |                |                  [0]{}: in 0x8b-0x8d (2)
0x80|                                 41            |           A    |                    opcode: "i32.const" (0x41) 0x8b-0x8c (1)
0x80|                                    00         |            .   |                    n: 0 (valid) 0x8c-0x8d (1)
    |                                               |                |                  [1]{}: in 0x8d-0x8f (2)
0x80|                                       41      |             A  |                    opcode: "i32.const" (0x41) 0x8d-0x8e (1)
0x80|                                          02   |              . |                    n: 2 (valid) 0x8e-0x8f (1)
    |                                               |                |                  [2]{}: in 0x8f-0x92 (3)
0x80|                                             36|               6|                    opcode: "i32.store" (0x36) 0x8f-0x90 (1)
    |                                               |                |                    m{}: 0x90-0x92 (2)
0x90|02                                             |.               |                      a: 2 (valid) 0x90-0x91 (1)
0x90|   00                                          | .              |                      o: 0 (valid) 0x91-0x92 (1)
    |                                               |                |                  [3]{}: in 0x92-0x93 (1)
0x90|      0b                                       |  .             |                    opcode: "end" (0xb) 0x92-0x93 (1)
    |                                               |                |            [2]{}: code 0x93-0x9d (10)
0x90|         09                                    |   .            |              size: 9 (valid) 0x93-0x94 (1)
    |                                               |                |              code{}: 0x94-0x9d (9)
    |                                               |                |                t{}: 0x94-0x95 (1)
0x90|            00                                 |    .           |                  n: 0 (valid) 0x94-0x95 (1)
    |                                               |                |                  x[0:0]: 0x95-0x95 (0)
    |                                               |                |                e[0:3]: 0x95-0x9d (8)
    |                                               |                |                  [0]{}: in 0x95-0x99 (4)
0x90|               41                              |     A          |                    opcode: "i32.const" (0x41) 0x95-0x96 (1)
0x90|                  80 80 04                     |      ...       |                    n: 65536 (valid) 0x96-0x99 (3)
    |                                               |                |                  [1]{}: in 0x99-0x9c (3)
0x90|                           28                  |         (      |                    opcode: "i32.load" (0x28) 0x99-0x9a (1)
    |                                               |                |                    m{}: 0x9a-0x9c (2)
0x90|                              02               |          .     |                      a: 2 (valid) 0x9a-0x9b (1)
0x90|                                 00            |           .    |                      o: 0 (valid) 0x9b-0x9c (1)
    |                                               |                |                  [2]{}: in 0x9c-0x9d (1)
0x90|                                    0b         |            .   |                    opcode: "end" (0xb) 0x9c-0x9d (1)
    |                                               |                |            [3]{}: code 0x9d-0xa9 (12)
0x90|                                       0b      |             .  |              size: 11 (valid) 0x9d-0x9e (1)
    |                                               |                |              code{}: 0x9e-0xa9 (11)
    |                                               |                |                t{}: 0x9e-0x9f (1)
0x90|                                          00   |              . |                  n: 0 (valid) 0x9e-0x9f (1)
    |                                               |                |                  x[0:0]: 0x9f-0x9f (0)
    |                                               |                |                e[0:4]: 0x9f-0xa9 (10)
    |                                               |                |                  [0]{}: in 0x9f-0xa3 (4)
0x90|                                             41|               A|                    opcode: "i32.const" (0x41) 0x9f-0xa0 (1)
0xa0|80 80 04                                       |...             |                    n: 65536 (valid) 0xa0-0xa3 (3)
    |                                               |                |                  [1]{}: in 0xa3-0xa5 (2)
0xa0|         41                                    |   A            |                    opcode: "i32.const" (0x41) 0xa3-0xa4 (1)
0xa0|            03                                 |    .           |                    n: 3 (valid) 0xa4-0xa5 (1)
    |                                               |                |                  [2]{}: in 0xa5-0xa8 (3)
0xa0|               36                              |     6          |                    opcode: "i32.store" (0x36) 0xa5-0xa6 (1)
    |                                               |                |                    m{}: 0xa6-0xa8 (2)
0xa0|                  02                           |      .         |                      a: 2 (valid) 0xa6-0xa7 (1)
0xa0|                     00                        |       .        |                      o: 0 (valid) 0xa7-0xa8 (1)
    |                                               |                |                  [3]{}: in 0xa8-0xa9 (1)
0xa0|                        0b                     |        .       |                    opcode: "end" (0xb) 0xa8-0xa9 (1)
    |                                               |                |            [4]{}: code 0xa9-0xb0 (7)
0xa0|                           06                  |         .      |              size: 6 (valid) 0xa9-0xaa (1)
    |                                               |                |              code{}: 0xaa-0xb0 (6)
    |                                               |                |                t{}: 0xaa-0xab (1)
0xa0|                              00               |          .     |                  n: 0 (valid) 0xaa-0xab (1)
    |                                               |                |                  x[0:0]: 0xab-0xab (0)
    |                                               |                |                e[0:3]: 0xab-0xb0 (5)
    |                                               |                |                  [0]{}: in 0xab-0xad (2)
0xa0|                                 20            |                |                    opcode: "local.get" (0x20) 0xab-0xac (1)
0xa0|                                    00         |            .   |                    x: 0 (valid) 0xac-0xad (1)
    |                                               |                |                  [1]{}: in 0xad-0xaf (2)
0xa0|                                       40      |             @  |                    opcode: "memory.grow" (0x40) 0xad-0xae (1)
0xa0|                                          00   |              . |                    reserved: 0x0 (valid) 0xae-0xaf (1)
    |                                               |                |                  [2]{}: in 0xaf-0xb0 (1)
0xa0|                                             0b|               .|                    opcode: "end" (0xb) 0xaf-0xb0 (1)
    |                                               |                |            [5]{}: code 0xb0-0xb5 (5)
0xb0|04                                             |.               |              size: 4 (valid) 0xb0-0xb1 (1)
    |                                               |                |              code{}: 0xb1-0xb5 (4)
    |                                               |                |                t{}: 0xb1-0xb2 (1)
0xb0|   00                                          | .              |                  n: 0 (valid) 0xb1-0xb2 (1)
    |                                               |                |                  x[0:0]: 0xb2-0xb2 (0)
    |                                               |                |                e[0:2]: 0xb2-0xb5 (3)
    |                                               |                |                  [0]{}: in 0xb2-0xb4 (2)
0xb0|      3f                                       |  ?             |                    opcode: "memory.size" (0x3f) 0xb2-0xb3 (1)
0xb0|         00                                    |   .            |                    reserved: 0x0 (valid) 0xb3-0xb4 (1)
    |                                               |                |                  [1]{}: in 0xb4-0xb5 (1)
0xb0|            0b|                                |    .|          |                    opcode: "end" (0xb) 0xb4-0xb5 (1)
