$ fq -d wasm dv names-0.wasm
    |00 01 02 03 04 05 06 07 08 09 0a 0b 0c 0d 0e 0f|0123456789abcdef|.{}: names-0.wasm (wasm) 0x0-0x24 (36)
0x00|00 61 73 6d                                    |.asm            |  magic: raw bits (valid) 0x0-0x4 (4)
0x00|            01 00 00 00                        |    ....        |  version: 1 0x4-0x8 (4)
    |                                               |                |  sections[0:4]: 0x8-0x24 (28)
    |                                               |                |    [0]{}: section 0x8-0xf (7)
0x00|                        01                     |        .       |      id: "type_section" (1) 0x8-0x9 (1)
0x00|                           05                  |         .      |      size: 5 (valid) 0x9-0xa (1)
    |                                               |                |      content{}: 0xa-0xf (5)
    |                                               |                |        ft{}: 0xa-0xf (5)
0x00|                              01               |          .     |          n: 1 (valid) 0xa-0xb (1)
    |                                               |                |          x[0:1]: 0xb-0xf (4)
    |                                               |                |            [0]{}: ft 0xb-0xf (4)
0x00|                                 60            |           `    |              tag: 0x60 (valid) 0xb-0xc (1)
    |                                               |                |              rt1{}: 0xc-0xd (1)
0x00|                                    00         |            .   |                n: 0 (valid) 0xc-0xd (1)
    |                                               |                |                x[0:0]: 0xd-0xd (0)
    |                                               |                |              rt2{}: 0xd-0xf (2)
0x00|                                       01      |             .  |                n: 1 (valid) 0xd-0xe (1)
    |                                               |                |                x[0:1]: 0xe-0xf (1)
0x00|                                          7f   |              . |                  [0]: "i32" (0x7f) t 0xe-0xf (1)
    |                                               |                |    [1]{}: section 0xf-0x13 (4)
0x00|                                             03|               .|      id: "function_section" (3) 0xf-0x10 (1)
0x10|02                                             |.               |      size: 2 (valid) 0x10-0x11 (1)
    |                                               |                |      content{}: 0x11-0x13 (2)
    |                                               |                |        x{}: 0x11-0x13 (2)
0x10|   01                                          | .              |          n: 1 (valid) 0x11-0x12 (1)
    |                                               |                |          x[0:1]: 0x12-0x13 (1)
0x10|      00                                       |  .             |            [0]: 0 x (valid) 0x12-0x13 (1)
    |                                               |                |    [2]{}: section 0x13-0x1c (9)
0x10|         07                                    |   .            |      id: "export_section" (7) 0x13-0x14 (1)
0x10|            07                                 |    .           |      size: 7 (valid) 0x14-0x15 (1)
    |                                               |                |      content{}: 0x15-0x1c (7)
    |                                               |                |        ex{}: 0x15-0x1c (7)
0x10|               01                              |     .          |          n: 1 (valid) 0x15-0x16 (1)
    |                                               |                |          x[0:1]: 0x16-0x1c (6)
    |                                               |                |            [0]{}: ex 0x16-0x1c (6)
    |                                               |                |              nm{}: 0x16-0x1a (4)
0x10|                  03                           |      .         |                n: 3 (valid) 0x16-0x17 (1)
0x10|                     66 6f 6f                  |       foo      |                b: "foo" 0x17-0x1a (3)
    |                                               |                |              d{}: 0x1a-0x1c (2)
0x10|                              00               |          .     |                tag: "funcidx" (0x0) 0x1a-0x1b (1)
0x10|                                 00            |           .    |                x: 0 (valid) 0x1b-0x1c (1)
    |                                               |                |    [3]{}: section 0x1c-0x24 (8)
0x10|                                    0a         |            .   |      id: "code_section" (10) 0x1c-0x1d (1)
0x10|                                       06      |             .  |      size: 6 (valid) 0x1d-0x1e (1)
    |                                               |                |      content{}: 0x1e-0x24 (6)
    |                                               |                |        code{}: 0x1e-0x24 (6)
0x10|                                          01   |              . |          n: 1 (valid) 0x1e-0x1f (1)
    |                                               |                |          x[0:1]: 0x1f-0x24 (5)
    |                                               |                |            [0]{}: code 0x1f-0x24 (5)
0x10|                                             04|               .|              size: 4 (valid) 0x1f-0x20 (1)
    |                                               |                |              code{}: 0x20-0x24 (4)
    |                                               |                |                t{}: 0x20-0x21 (1)
0x20|00                                             |.               |                  n: 0 (valid) 0x20-0x21 (1)
    |                                               |                |                  x[0:0]: 0x21-0x21 (0)
    |                                               |                |                e[0:2]: 0x21-0x24 (3)
    |                                               |                |                  [0]{}: in 0x21-0x23 (2)
0x20|   41                                          | A              |                    opcode: "i32.const" (0x41) 0x21-0x22 (1)
0x20|      00                                       |  .             |                    n: 0 (valid) 0x22-0x23 (1)
    |                                               |                |                  [1]{}: in 0x23-0x24 (1)
0x20|         0b|                                   |   .|           |                    opcode: "end" (0xb) 0x23-0x24 (1)
