$ fq -d wasm dv ref_is_null-0.wasm
    |00 01 02 03 04 05 06 07 08 09 0a 0b 0c 0d 0e 0f|0123456789abcdef|.{}: ref_is_null-0.wasm (wasm) 0x0-0xc1.7 (194)
0x00|00 61 73 6d                                    |.asm            |  magic: raw bits (valid) 0x0-0x3.7 (4)
0x00|            01 00 00 00                        |    ....        |  version: 1 0x4-0x7.7 (4)
    |                                               |                |  sections[0:6]: 0x8-0xc1.7 (186)
    |                                               |                |    [0]{}: section 0x8-0x20.7 (25)
0x00|                        01                     |        .       |      id: "type section" (1) 0x8-0x8.7 (1)
0x00|                           17                  |         .      |      size: 23 0x9-0x9.7 (1)
    |                                               |                |      content{}: 0xa-0x20.7 (23)
    |                                               |                |        ft{}: 0xa-0x20.7 (23)
0x00|                              05               |          .     |          n: 5 0xa-0xa.7 (1)
    |                                               |                |          x[0:5]: 0xb-0x20.7 (22)
    |                                               |                |            [0]{}: ft 0xb-0xf.7 (5)
0x00|                                 60            |           `    |              tag: 0x60 (valid) 0xb-0xb.7 (1)
    |                                               |                |              rt1{}: 0xc-0xd.7 (2)
0x00|                                    01         |            .   |                n: 1 0xc-0xc.7 (1)
    |                                               |                |                x[0:1]: 0xd-0xd.7 (1)
0x00|                                       70      |             p  |                  [0]: "funcref" (0x70) t 0xd-0xd.7 (1)
    |                                               |                |              rt2{}: 0xe-0xf.7 (2)
0x00|                                          01   |              . |                n: 1 0xe-0xe.7 (1)
    |                                               |                |                x[0:1]: 0xf-0xf.7 (1)
0x00|                                             7f|               .|                  [0]: "i32" (0x7f) t 0xf-0xf.7 (1)
    |                                               |                |            [1]{}: ft 0x10-0x14.7 (5)
0x10|60                                             |`               |              tag: 0x60 (valid) 0x10-0x10.7 (1)
    |                                               |                |              rt1{}: 0x11-0x12.7 (2)
0x10|   01                                          | .              |                n: 1 0x11-0x11.7 (1)
    |                                               |                |                x[0:1]: 0x12-0x12.7 (1)
0x10|      6f                                       |  o             |                  [0]: "externref" (0x6f) t 0x12-0x12.7 (1)
    |                                               |                |              rt2{}: 0x13-0x14.7 (2)
0x10|         01                                    |   .            |                n: 1 0x13-0x13.7 (1)
    |                                               |                |                x[0:1]: 0x14-0x14.7 (1)
0x10|            7f                                 |    .           |                  [0]: "i32" (0x7f) t 0x14-0x14.7 (1)
    |                                               |                |            [2]{}: ft 0x15-0x17.7 (3)
0x10|               60                              |     `          |              tag: 0x60 (valid) 0x15-0x15.7 (1)
    |                                               |                |              rt1{}: 0x16-0x16.7 (1)
0x10|                  00                           |      .         |                n: 0 0x16-0x16.7 (1)
    |                                               |                |                x[0:0]: 0x17-NA (0)
    |                                               |                |              rt2{}: 0x17-0x17.7 (1)
0x10|                     00                        |       .        |                n: 0 0x17-0x17.7 (1)
    |                                               |                |                x[0:0]: 0x18-NA (0)
    |                                               |                |            [3]{}: ft 0x18-0x1b.7 (4)
0x10|                        60                     |        `       |              tag: 0x60 (valid) 0x18-0x18.7 (1)
    |                                               |                |              rt1{}: 0x19-0x1a.7 (2)
0x10|                           01                  |         .      |                n: 1 0x19-0x19.7 (1)
    |                                               |                |                x[0:1]: 0x1a-0x1a.7 (1)
0x10|                              6f               |          o     |                  [0]: "externref" (0x6f) t 0x1a-0x1a.7 (1)
    |                                               |                |              rt2{}: 0x1b-0x1b.7 (1)
0x10|                                 00            |           .    |                n: 0 0x1b-0x1b.7 (1)
    |                                               |                |                x[0:0]: 0x1c-NA (0)
    |                                               |                |            [4]{}: ft 0x1c-0x20.7 (5)
0x10|                                    60         |            `   |              tag: 0x60 (valid) 0x1c-0x1c.7 (1)
    |                                               |                |              rt1{}: 0x1d-0x1e.7 (2)
0x10|                                       01      |             .  |                n: 1 0x1d-0x1d.7 (1)
    |                                               |                |                x[0:1]: 0x1e-0x1e.7 (1)
0x10|                                          7f   |              . |                  [0]: "i32" (0x7f) t 0x1e-0x1e.7 (1)
    |                                               |                |              rt2{}: 0x1f-0x20.7 (2)
0x10|                                             01|               .|                n: 1 0x1f-0x1f.7 (1)
    |                                               |                |                x[0:1]: 0x20-0x20.7 (1)
0x20|7f                                             |.               |                  [0]: "i32" (0x7f) t 0x20-0x20.7 (1)
    |                                               |                |    [1]{}: section 0x21-0x2a.7 (10)
0x20|   03                                          | .              |      id: "function section" (3) 0x21-0x21.7 (1)
0x20|      08                                       |  .             |      size: 8 0x22-0x22.7 (1)
    |                                               |                |      content{}: 0x23-0x2a.7 (8)
    |                                               |                |        x{}: 0x23-0x2a.7 (8)
0x20|         07                                    |   .            |          n: 7 0x23-0x23.7 (1)
    |                                               |                |          x[0:7]: 0x24-0x2a.7 (7)
0x20|            00                                 |    .           |            [0]: 0 x 0x24-0x24.7 (1)
0x20|               01                              |     .          |            [1]: 1 x 0x25-0x25.7 (1)
0x20|                  02                           |      .         |            [2]: 2 x 0x26-0x26.7 (1)
0x20|                     03                        |       .        |            [3]: 3 x 0x27-0x27.7 (1)
0x20|                        02                     |        .       |            [4]: 2 x 0x28-0x28.7 (1)
0x20|                           04                  |         .      |            [5]: 4 x 0x29-0x29.7 (1)
0x20|                              04               |          .     |            [6]: 4 x 0x2a-0x2a.7 (1)
    |                                               |                |    [2]{}: section 0x2b-0x33.7 (9)
0x20|                                 04            |           .    |      id: "table section" (4) 0x2b-0x2b.7 (1)
0x20|                                    07         |            .   |      size: 7 0x2c-0x2c.7 (1)
    |                                               |                |      content{}: 0x2d-0x33.7 (7)
    |                                               |                |        tab{}: 0x2d-0x33.7 (7)
0x20|                                       02      |             .  |          n: 2 0x2d-0x2d.7 (1)
    |                                               |                |          x[0:2]: 0x2e-0x33.7 (6)
    |                                               |                |            [0]{}: tab 0x2e-0x30.7 (3)
0x20|                                          70   |              p |              et: "funcref" (112) 0x2e-0x2e.7 (1)
    |                                               |                |              lim{}: 0x2f-0x30.7 (2)
0x20|                                             00|               .|                tag: 0x0 0x2f-0x2f.7 (1)
0x30|02                                             |.               |                n: 2 0x30-0x30.7 (1)
    |                                               |                |            [1]{}: tab 0x31-0x33.7 (3)
0x30|   6f                                          | o              |              et: "externref" (111) 0x31-0x31.7 (1)
    |                                               |                |              lim{}: 0x32-0x33.7 (2)
0x30|      00                                       |  .             |                tag: 0x0 0x32-0x32.7 (1)
0x30|         02                                    |   .            |                n: 2 0x33-0x33.7 (1)
    |                                               |                |    [3]{}: section 0x34-0x7c.7 (73)
0x30|            07                                 |    .           |      id: "export section" (7) 0x34-0x34.7 (1)
0x30|               47                              |     G          |      size: 71 0x35-0x35.7 (1)
    |                                               |                |      content{}: 0x36-0x7c.7 (71)
    |                                               |                |        ex{}: 0x36-0x7c.7 (71)
0x30|                  06                           |      .         |          n: 6 0x36-0x36.7 (1)
    |                                               |                |          x[0:6]: 0x37-0x7c.7 (70)
    |                                               |                |            [0]{}: ex 0x37-0x40.7 (10)
    |                                               |                |              nm{}: 0x37-0x3e.7 (8)
0x30|                     07                        |       .        |                n: 7 0x37-0x37.7 (1)
0x30|                        66 75 6e 63 72 65 66   |        funcref |                b: "funcref" 0x38-0x3e.7 (7)
    |                                               |                |              d{}: 0x3f-0x40.7 (2)
0x30|                                             00|               .|                tag: "funcidx" (0x0) 0x3f-0x3f.7 (1)
0x40|00                                             |.               |                x: 0 0x40-0x40.7 (1)
    |                                               |                |            [1]{}: ex 0x41-0x4c.7 (12)
    |                                               |                |              nm{}: 0x41-0x4a.7 (10)
0x40|   09                                          | .              |                n: 9 0x41-0x41.7 (1)
0x40|      65 78 74 65 72 6e 72 65 66               |  externref     |                b: "externref" 0x42-0x4a.7 (9)
    |                                               |                |              d{}: 0x4b-0x4c.7 (2)
0x40|                                 00            |           .    |                tag: "funcidx" (0x0) 0x4b-0x4b.7 (1)
0x40|                                    01         |            .   |                x: 1 0x4c-0x4c.7 (1)
    |                                               |                |            [2]{}: ex 0x4d-0x53.7 (7)
    |                                               |                |              nm{}: 0x4d-0x51.7 (5)
0x40|                                       04      |             .  |                n: 4 0x4d-0x4d.7 (1)
0x40|                                          69 6e|              in|                b: "init" 0x4e-0x51.7 (4)
0x50|69 74                                          |it              |
    |                                               |                |              d{}: 0x52-0x53.7 (2)
0x50|      00                                       |  .             |                tag: "funcidx" (0x0) 0x52-0x52.7 (1)
0x50|         03                                    |   .            |                x: 3 0x53-0x53.7 (1)
    |                                               |                |            [3]{}: ex 0x54-0x5c.7 (9)
    |                                               |                |              nm{}: 0x54-0x5a.7 (7)
0x50|            06                                 |    .           |                n: 6 0x54-0x54.7 (1)
0x50|               64 65 69 6e 69 74               |     deinit     |                b: "deinit" 0x55-0x5a.7 (6)
    |                                               |                |              d{}: 0x5b-0x5c.7 (2)
0x50|                                 00            |           .    |                tag: "funcidx" (0x0) 0x5b-0x5b.7 (1)
0x50|                                    04         |            .   |                x: 4 0x5c-0x5c.7 (1)
    |                                               |                |            [4]{}: ex 0x5d-0x6b.7 (15)
    |                                               |                |              nm{}: 0x5d-0x69.7 (13)
0x50|                                       0c      |             .  |                n: 12 0x5d-0x5d.7 (1)
0x50|                                          66 75|              fu|                b: "funcref-elem" 0x5e-0x69.7 (12)
0x60|6e 63 72 65 66 2d 65 6c 65 6d                  |ncref-elem      |
    |                                               |                |              d{}: 0x6a-0x6b.7 (2)
0x60|                              00               |          .     |                tag: "funcidx" (0x0) 0x6a-0x6a.7 (1)
0x60|                                 05            |           .    |                x: 5 0x6b-0x6b.7 (1)
    |                                               |                |            [5]{}: ex 0x6c-0x7c.7 (17)
    |                                               |                |              nm{}: 0x6c-0x7a.7 (15)
0x60|                                    0e         |            .   |                n: 14 0x6c-0x6c.7 (1)
0x60|                                       65 78 74|             ext|                b: "externref-elem" 0x6d-0x7a.7 (14)
0x70|65 72 6e 72 65 66 2d 65 6c 65 6d               |ernref-elem     |
    |                                               |                |              d{}: 0x7b-0x7c.7 (2)
0x70|                                 00            |           .    |                tag: "funcidx" (0x0) 0x7b-0x7b.7 (1)
0x70|                                    06         |            .   |                x: 6 0x7c-0x7c.7 (1)
    |                                               |                |    [4]{}: section 0x7d-0x85.7 (9)
0x70|                                       09      |             .  |      id: "element section" (9) 0x7d-0x7d.7 (1)
0x70|                                          07   |              . |      size: 7 0x7e-0x7e.7 (1)
    |                                               |                |      element{}: 0x7f-0x85.7 (7)
    |                                               |                |        seg{}: 0x7f-0x85.7 (7)
0x70|                                             01|               .|          n: 1 0x7f-0x7f.7 (1)
    |                                               |                |          x[0:1]: 0x80-0x85.7 (6)
    |                                               |                |            [0]{}: seg 0x80-0x85.7 (6)
0x80|00                                             |.               |              tag: 0 0x80-0x80.7 (1)
    |                                               |                |              e[0:2]: 0x81-0x83.7 (3)
    |                                               |                |                [0]{}: in 0x81-0x82.7 (2)
0x80|   41                                          | A              |                  i32.const: 0x41 (valid) 0x81-0x81.7 (1)
0x80|      01                                       |  .             |                  n: 1 0x82-0x82.7 (1)
    |                                               |                |                [1]{}: in 0x83-0x83.7 (1)
0x80|         0b                                    |   .            |                  end: 0xb (valid) 0x83-0x83.7 (1)
    |                                               |                |              y{}: 0x84-0x85.7 (2)
0x80|            01                                 |    .           |                n: 1 0x84-0x84.7 (1)
    |                                               |                |                x[0:1]: 0x85-0x85.7 (1)
0x80|               02                              |     .          |                  [0]: 2 y 0x85-0x85.7 (1)
    |                                               |                |    [5]{}: section 0x86-0xc1.7 (60)
0x80|                  0a                           |      .         |      id: "code section" (10) 0x86-0x86.7 (1)
0x80|                     3a                        |       :        |      size: 58 0x87-0x87.7 (1)
    |                                               |                |      content{}: 0x88-0xc1.7 (58)
    |                                               |                |        code{}: 0x88-0xc1.7 (58)
0x80|                        07                     |        .       |          n: 7 0x88-0x88.7 (1)
    |                                               |                |          x[0:7]: 0x89-0xc1.7 (57)
    |                                               |                |            [0]{}: code 0x89-0x8e.7 (6)
0x80|                           05                  |         .      |              size: 5 0x89-0x89.7 (1)
    |                                               |                |              code{}: 0x8a-0x8e.7 (5)
    |                                               |                |                t{}: 0x8a-0x8a.7 (1)
0x80|                              00               |          .     |                  n: 0 0x8a-0x8a.7 (1)
    |                                               |                |                  x[0:0]: 0x8b-NA (0)
    |                                               |                |                e[0:3]: 0x8b-0x8e.7 (4)
    |                                               |                |                  [0]{}: in 0x8b-0x8c.7 (2)
0x80|                                 20            |                |                    local.get: 0x20 (valid) 0x8b-0x8b.7 (1)
0x80|                                    00         |            .   |                    x: 0 0x8c-0x8c.7 (1)
    |                                               |                |                  [1]{}: in 0x8d-0x8d.7 (1)
0x80|                                       d1      |             .  |                    ref.is_null: 0xd1 (valid) 0x8d-0x8d.7 (1)
    |                                               |                |                  [2]{}: in 0x8e-0x8e.7 (1)
0x80|                                          0b   |              . |                    end: 0xb (valid) 0x8e-0x8e.7 (1)
    |                                               |                |            [1]{}: code 0x8f-0x94.7 (6)
0x80|                                             05|               .|              size: 5 0x8f-0x8f.7 (1)
    |                                               |                |              code{}: 0x90-0x94.7 (5)
    |                                               |                |                t{}: 0x90-0x90.7 (1)
0x90|00                                             |.               |                  n: 0 0x90-0x90.7 (1)
    |                                               |                |                  x[0:0]: 0x91-NA (0)
    |                                               |                |                e[0:3]: 0x91-0x94.7 (4)
    |                                               |                |                  [0]{}: in 0x91-0x92.7 (2)
0x90|   20                                          |                |                    local.get: 0x20 (valid) 0x91-0x91.7 (1)
0x90|      00                                       |  .             |                    x: 0 0x92-0x92.7 (1)
    |                                               |                |                  [1]{}: in 0x93-0x93.7 (1)
0x90|         d1                                    |   .            |                    ref.is_null: 0xd1 (valid) 0x93-0x93.7 (1)
    |                                               |                |                  [2]{}: in 0x94-0x94.7 (1)
0x90|            0b                                 |    .           |                    end: 0xb (valid) 0x94-0x94.7 (1)
    |                                               |                |            [2]{}: code 0x95-0x97.7 (3)
0x90|               02                              |     .          |              size: 2 0x95-0x95.7 (1)
    |                                               |                |              code{}: 0x96-0x97.7 (2)
    |                                               |                |                t{}: 0x96-0x96.7 (1)
0x90|                  00                           |      .         |                  n: 0 0x96-0x96.7 (1)
    |                                               |                |                  x[0:0]: 0x97-NA (0)
    |                                               |                |                e[0:1]: 0x97-0x97.7 (1)
    |                                               |                |                  [0]{}: in 0x97-0x97.7 (1)
0x90|                     0b                        |       .        |                    end: 0xb (valid) 0x97-0x97.7 (1)
    |                                               |                |            [3]{}: code 0x98-0xa0.7 (9)
0x90|                        08                     |        .       |              size: 8 0x98-0x98.7 (1)
    |                                               |                |              code{}: 0x99-0xa0.7 (8)
    |                                               |                |                t{}: 0x99-0x99.7 (1)
0x90|                           00                  |         .      |                  n: 0 0x99-0x99.7 (1)
    |                                               |                |                  x[0:0]: 0x9a-NA (0)
    |                                               |                |                e[0:4]: 0x9a-0xa0.7 (7)
    |                                               |                |                  [0]{}: in 0x9a-0x9b.7 (2)
0x90|                              41               |          A     |                    i32.const: 0x41 (valid) 0x9a-0x9a.7 (1)
0x90|                                 01            |           .    |                    n: 1 0x9b-0x9b.7 (1)
    |                                               |                |                  [1]{}: in 0x9c-0x9d.7 (2)
0x90|                                    20         |                |                    local.get: 0x20 (valid) 0x9c-0x9c.7 (1)
0x90|                                       00      |             .  |                    x: 0 0x9d-0x9d.7 (1)
    |                                               |                |                  [2]{}: in 0x9e-0x9f.7 (2)
0x90|                                          26   |              & |                    table.set: 0x26 (valid) 0x9e-0x9e.7 (1)
0x90|                                             01|               .|                    x: 1 0x9f-0x9f.7 (1)
    |                                               |                |                  [3]{}: in 0xa0-0xa0.7 (1)
0xa0|0b                                             |.               |                    end: 0xb (valid) 0xa0-0xa0.7 (1)
    |                                               |                |            [4]{}: code 0xa1-0xaf.7 (15)
0xa0|   0e                                          | .              |              size: 14 0xa1-0xa1.7 (1)
    |                                               |                |              code{}: 0xa2-0xaf.7 (14)
    |                                               |                |                t{}: 0xa2-0xa2.7 (1)
0xa0|      00                                       |  .             |                  n: 0 0xa2-0xa2.7 (1)
    |                                               |                |                  x[0:0]: 0xa3-NA (0)
    |                                               |                |                e[0:7]: 0xa3-0xaf.7 (13)
    |                                               |                |                  [0]{}: in 0xa3-0xa4.7 (2)
0xa0|         41                                    |   A            |                    i32.const: 0x41 (valid) 0xa3-0xa3.7 (1)
0xa0|            01                                 |    .           |                    n: 1 0xa4-0xa4.7 (1)
    |                                               |                |                  [1]{}: in 0xa5-0xa6.7 (2)
0xa0|               d0                              |     .          |                    ref.null: 0xd0 (valid) 0xa5-0xa5.7 (1)
0xa0|                  70                           |      p         |                    t: "funcref" (112) 0xa6-0xa6.7 (1)
    |                                               |                |                  [2]{}: in 0xa7-0xa8.7 (2)
0xa0|                     26                        |       &        |                    table.set: 0x26 (valid) 0xa7-0xa7.7 (1)
0xa0|                        00                     |        .       |                    x: 0 0xa8-0xa8.7 (1)
    |                                               |                |                  [3]{}: in 0xa9-0xaa.7 (2)
0xa0|                           41                  |         A      |                    i32.const: 0x41 (valid) 0xa9-0xa9.7 (1)
0xa0|                              01               |          .     |                    n: 1 0xaa-0xaa.7 (1)
    |                                               |                |                  [4]{}: in 0xab-0xac.7 (2)
0xa0|                                 d0            |           .    |                    ref.null: 0xd0 (valid) 0xab-0xab.7 (1)
0xa0|                                    6f         |            o   |                    t: "externref" (111) 0xac-0xac.7 (1)
    |                                               |                |                  [5]{}: in 0xad-0xae.7 (2)
0xa0|                                       26      |             &  |                    table.set: 0x26 (valid) 0xad-0xad.7 (1)
0xa0|                                          01   |              . |                    x: 1 0xae-0xae.7 (1)
    |                                               |                |                  [6]{}: in 0xaf-0xaf.7 (1)
0xa0|                                             0b|               .|                    end: 0xb (valid) 0xaf-0xaf.7 (1)
    |                                               |                |            [5]{}: code 0xb0-0xb8.7 (9)
0xb0|08                                             |.               |              size: 8 0xb0-0xb0.7 (1)
    |                                               |                |              code{}: 0xb1-0xb8.7 (8)
    |                                               |                |                t{}: 0xb1-0xb1.7 (1)
0xb0|   00                                          | .              |                  n: 0 0xb1-0xb1.7 (1)
    |                                               |                |                  x[0:0]: 0xb2-NA (0)
    |                                               |                |                e[0:4]: 0xb2-0xb8.7 (7)
    |                                               |                |                  [0]{}: in 0xb2-0xb3.7 (2)
0xb0|      20                                       |                |                    local.get: 0x20 (valid) 0xb2-0xb2.7 (1)
0xb0|         00                                    |   .            |                    x: 0 0xb3-0xb3.7 (1)
    |                                               |                |                  [1]{}: in 0xb4-0xb5.7 (2)
0xb0|            25                                 |    %           |                    table.get: 0x25 (valid) 0xb4-0xb4.7 (1)
0xb0|               00                              |     .          |                    x: 0 0xb5-0xb5.7 (1)
    |                                               |                |                  [2]{}: in 0xb6-0xb7.7 (2)
0xb0|                  10                           |      .         |                    call: 0x10 (valid) 0xb6-0xb6.7 (1)
0xb0|                     00                        |       .        |                    x: 0 0xb7-0xb7.7 (1)
    |                                               |                |                  [3]{}: in 0xb8-0xb8.7 (1)
0xb0|                        0b                     |        .       |                    end: 0xb (valid) 0xb8-0xb8.7 (1)
    |                                               |                |            [6]{}: code 0xb9-0xc1.7 (9)
0xb0|                           08                  |         .      |              size: 8 0xb9-0xb9.7 (1)
    |                                               |                |              code{}: 0xba-0xc1.7 (8)
    |                                               |                |                t{}: 0xba-0xba.7 (1)
0xb0|                              00               |          .     |                  n: 0 0xba-0xba.7 (1)
    |                                               |                |                  x[0:0]: 0xbb-NA (0)
    |                                               |                |                e[0:4]: 0xbb-0xc1.7 (7)
    |                                               |                |                  [0]{}: in 0xbb-0xbc.7 (2)
0xb0|                                 20            |                |                    local.get: 0x20 (valid) 0xbb-0xbb.7 (1)
0xb0|                                    00         |            .   |                    x: 0 0xbc-0xbc.7 (1)
    |                                               |                |                  [1]{}: in 0xbd-0xbe.7 (2)
0xb0|                                       25      |             %  |                    table.get: 0x25 (valid) 0xbd-0xbd.7 (1)
0xb0|                                          01   |              . |                    x: 1 0xbe-0xbe.7 (1)
    |                                               |                |                  [2]{}: in 0xbf-0xc0.7 (2)
0xb0|                                             10|               .|                    call: 0x10 (valid) 0xbf-0xbf.7 (1)
0xc0|01                                             |.               |                    x: 1 0xc0-0xc0.7 (1)
    |                                               |                |                  [3]{}: in 0xc1-0xc1.7 (1)
0xc0|   0b|                                         | .|             |                    end: 0xb (valid) 0xc1-0xc1.7 (1)
