$ fq -d wasm dv ref_func-0.wasm
    |00 01 02 03 04 05 06 07 08 09 0a 0b 0c 0d 0e 0f|0123456789abcdef|.{}: ref_func-0.wasm (wasm) 0x0-0x23 (35)
0x00|00 61 73 6d                                    |.asm            |  magic: raw bits (valid) 0x0-0x4 (4)
0x00|            01 00 00 00                        |    ....        |  version: 1 0x4-0x8 (4)
    |                                               |                |  sections[0:4]: 0x8-0x23 (27)
    |                                               |                |    [0]{}: section 0x8-0x10 (8)
0x00|                        01                     |        .       |      id: "type_section" (1) 0x8-0x9 (1)
0x00|                           06                  |         .      |      size: 6 (valid) 0x9-0xa (1)
    |                                               |                |      content{}: 0xa-0x10 (6)
    |                                               |                |        ft{}: 0xa-0x10 (6)
0x00|                              01               |          .     |          n: 1 (valid) 0xa-0xb (1)
    |                                               |                |          x[0:1]: 0xb-0x10 (5)
    |                                               |                |            [0]{}: ft 0xb-0x10 (5)
0x00|                                 60            |           `    |              tag: 0x60 (valid) 0xb-0xc (1)
    |                                               |                |              rt1{}: 0xc-0xe (2)
0x00|                                    01         |            .   |                n: 1 (valid) 0xc-0xd (1)
    |                                               |                |                x[0:1]: 0xd-0xe (1)
0x00|                                       7f      |             .  |                  [0]: "i32" (0x7f) t 0xd-0xe (1)
    |                                               |                |              rt2{}: 0xe-0x10 (2)
0x00|                                          01   |              . |                n: 1 (valid) 0xe-0xf (1)
    |                                               |                |                x[0:1]: 0xf-0x10 (1)
0x00|                                             7f|               .|                  [0]: "i32" (0x7f) t 0xf-0x10 (1)
    |                                               |                |    [1]{}: section 0x10-0x14 (4)
0x10|03                                             |.               |      id: "function_section" (3) 0x10-0x11 (1)
0x10|   02                                          | .              |      size: 2 (valid) 0x11-0x12 (1)
    |                                               |                |      content{}: 0x12-0x14 (2)
    |                                               |                |        x{}: 0x12-0x14 (2)
0x10|      01                                       |  .             |          n: 1 (valid) 0x12-0x13 (1)
    |                                               |                |          x[0:1]: 0x13-0x14 (1)
0x10|         00                                    |   .            |            [0]: 0 x (valid) 0x13-0x14 (1)
    |                                               |                |    [2]{}: section 0x14-0x1b (7)
0x10|            07                                 |    .           |      id: "export_section" (7) 0x14-0x15 (1)
0x10|               05                              |     .          |      size: 5 (valid) 0x15-0x16 (1)
    |                                               |                |      content{}: 0x16-0x1b (5)
    |                                               |                |        ex{}: 0x16-0x1b (5)
0x10|                  01                           |      .         |          n: 1 (valid) 0x16-0x17 (1)
    |                                               |                |          x[0:1]: 0x17-0x1b (4)
    |                                               |                |            [0]{}: ex 0x17-0x1b (4)
    |                                               |                |              nm{}: 0x17-0x19 (2)
0x10|                     01                        |       .        |                n: 1 (valid) 0x17-0x18 (1)
0x10|                        66                     |        f       |                b: "f" 0x18-0x19 (1)
    |                                               |                |              d{}: 0x19-0x1b (2)
0x10|                           00                  |         .      |                tag: "funcidx" (0x0) 0x19-0x1a (1)
0x10|                              00               |          .     |                x: 0 (valid) 0x1a-0x1b (1)
    |                                               |                |    [3]{}: section 0x1b-0x23 (8)
0x10|                                 0a            |           .    |      id: "code_section" (10) 0x1b-0x1c (1)
0x10|                                    06         |            .   |      size: 6 (valid) 0x1c-0x1d (1)
    |                                               |                |      content{}: 0x1d-0x23 (6)
    |                                               |                |        code{}: 0x1d-0x23 (6)
0x10|                                       01      |             .  |          n: 1 (valid) 0x1d-0x1e (1)
    |                                               |                |          x[0:1]: 0x1e-0x23 (5)
    |                                               |                |            [0]{}: code 0x1e-0x23 (5)
0x10|                                          04   |              . |              size: 4 (valid) 0x1e-0x1f (1)
    |                                               |                |              code{}: 0x1f-0x23 (4)
    |                                               |                |                t{}: 0x1f-0x20 (1)
0x10|                                             00|               .|                  n: 0 (valid) 0x1f-0x20 (1)
    |                                               |                |                  x[0:0]: 0x20-0x20 (0)
    |                                               |                |                e[0:2]: 0x20-0x23 (3)
    |                                               |                |                  [0]{}: in 0x20-0x22 (2)
0x20|20                                             |                |                    opcode: "local.get" (0x20) 0x20-0x21 (1)
0x20|   00                                          | .              |                    x: 0 (valid) 0x21-0x22 (1)
    |                                               |                |                  [1]{}: in 0x22-0x23 (1)
0x20|      0b|                                      |  .|            |                    opcode: "end" (0xb) 0x22-0x23 (1)
