$ fq -d wasm dv ref_null-0.wasm
    |00 01 02 03 04 05 06 07 08 09 0a 0b 0c 0d 0e 0f|0123456789abcdef|.{}: ref_null-0.wasm (wasm) 0x0-0x4b (75)
0x00|00 61 73 6d                                    |.asm            |  magic: raw bits (valid) 0x0-0x4 (4)
0x00|            01 00 00 00                        |    ....        |  version: 1 0x4-0x8 (4)
    |                                               |                |  sections[0:5]: 0x8-0x4b (67)
    |                                               |                |    [0]{}: section 0x8-0x13 (11)
0x00|                        01                     |        .       |      id: "type_section" (1) 0x8-0x9 (1)
0x00|                           09                  |         .      |      size: 9 (valid) 0x9-0xa (1)
    |                                               |                |      content{}: 0xa-0x13 (9)
    |                                               |                |        ft{}: 0xa-0x13 (9)
0x00|                              02               |          .     |          n: 2 (valid) 0xa-0xb (1)
    |                                               |                |          x[0:2]: 0xb-0x13 (8)
    |                                               |                |            [0]{}: ft 0xb-0xf (4)
0x00|                                 60            |           `    |              tag: 0x60 (valid) 0xb-0xc (1)
    |                                               |                |              rt1{}: 0xc-0xd (1)
0x00|                                    00         |            .   |                n: 0 (valid) 0xc-0xd (1)
    |                                               |                |                x[0:0]: 0xd-0xd (0)
    |                                               |                |              rt2{}: 0xd-0xf (2)
0x00|                                       01      |             .  |                n: 1 (valid) 0xd-0xe (1)
    |                                               |                |                x[0:1]: 0xe-0xf (1)
0x00|                                          6f   |              o |                  [0]: "externref" (0x6f) t 0xe-0xf (1)
    |                                               |                |            [1]{}: ft 0xf-0x13 (4)
0x00|                                             60|               `|              tag: 0x60 (valid) 0xf-0x10 (1)
    |                                               |                |              rt1{}: 0x10-0x11 (1)
0x10|00                                             |.               |                n: 0 (valid) 0x10-0x11 (1)
    |                                               |                |                x[0:0]: 0x11-0x11 (0)
    |                                               |                |              rt2{}: 0x11-0x13 (2)
0x10|   01                                          | .              |                n: 1 (valid) 0x11-0x12 (1)
    |                                               |                |                x[0:1]: 0x12-0x13 (1)
0x10|      70                                       |  p             |                  [0]: "funcref" (0x70) t 0x12-0x13 (1)
    |                                               |                |    [1]{}: section 0x13-0x18 (5)
0x10|         03                                    |   .            |      id: "function_section" (3) 0x13-0x14 (1)
0x10|            03                                 |    .           |      size: 3 (valid) 0x14-0x15 (1)
    |                                               |                |      content{}: 0x15-0x18 (3)
    |                                               |                |        x{}: 0x15-0x18 (3)
0x10|               02                              |     .          |          n: 2 (valid) 0x15-0x16 (1)
    |                                               |                |          x[0:2]: 0x16-0x18 (2)
0x10|                  00                           |      .         |            [0]: 0 x (valid) 0x16-0x17 (1)
0x10|                     01                        |       .        |            [1]: 1 x (valid) 0x17-0x18 (1)
    |                                               |                |    [2]{}: section 0x18-0x25 (13)
0x10|                        06                     |        .       |      id: "global_section" (6) 0x18-0x19 (1)
0x10|                           0b                  |         .      |      size: 11 (valid) 0x19-0x1a (1)
    |                                               |                |      content{}: 0x1a-0x25 (11)
    |                                               |                |        glob{}: 0x1a-0x25 (11)
0x10|                              02               |          .     |          n: 2 (valid) 0x1a-0x1b (1)
    |                                               |                |          x[0:2]: 0x1b-0x25 (10)
    |                                               |                |            [0]{}: glob 0x1b-0x20 (5)
    |                                               |                |              gt{}: 0x1b-0x1d (2)
0x10|                                 6f            |           o    |                t: "externref" (0x6f) 0x1b-0x1c (1)
0x10|                                    00         |            .   |                m: "const" (0) 0x1c-0x1d (1)
    |                                               |                |              e[0:2]: 0x1d-0x20 (3)
    |                                               |                |                [0]{}: in 0x1d-0x1f (2)
0x10|                                       d0      |             .  |                  opcode: "ref.null" (0xd0) 0x1d-0x1e (1)
0x10|                                          6f   |              o |                  t: "externref" (111) 0x1e-0x1f (1)
    |                                               |                |                [1]{}: in 0x1f-0x20 (1)
0x10|                                             0b|               .|                  opcode: "end" (0xb) 0x1f-0x20 (1)
    |                                               |                |            [1]{}: glob 0x20-0x25 (5)
    |                                               |                |              gt{}: 0x20-0x22 (2)
0x20|70                                             |p               |                t: "funcref" (0x70) 0x20-0x21 (1)
0x20|   00                                          | .              |                m: "const" (0) 0x21-0x22 (1)
    |                                               |                |              e[0:2]: 0x22-0x25 (3)
    |                                               |                |                [0]{}: in 0x22-0x24 (2)
0x20|      d0                                       |  .             |                  opcode: "ref.null" (0xd0) 0x22-0x23 (1)
0x20|         70                                    |   p            |                  t: "funcref" (112) 0x23-0x24 (1)
    |                                               |                |                [1]{}: in 0x24-0x25 (1)
0x20|            0b                                 |    .           |                  opcode: "end" (0xb) 0x24-0x25 (1)
    |                                               |                |    [3]{}: section 0x25-0x3e (25)
0x20|               07                              |     .          |      id: "export_section" (7) 0x25-0x26 (1)
0x20|                  17                           |      .         |      size: 23 (valid) 0x26-0x27 (1)
    |                                               |                |      content{}: 0x27-0x3e (23)
    |                                               |                |        ex{}: 0x27-0x3e (23)
0x20|                     02                        |       .        |          n: 2 (valid) 0x27-0x28 (1)
    |                                               |                |          x[0:2]: 0x28-0x3e (22)
    |                                               |                |            [0]{}: ex 0x28-0x34 (12)
    |                                               |                |              nm{}: 0x28-0x32 (10)
0x20|                        09                     |        .       |                n: 9 (valid) 0x28-0x29 (1)
0x20|                           65 78 74 65 72 6e 72|         externr|                b: "externref" 0x29-0x32 (9)
0x30|65 66                                          |ef              |
    |                                               |                |              d{}: 0x32-0x34 (2)
0x30|      00                                       |  .             |                tag: "funcidx" (0x0) 0x32-0x33 (1)
0x30|         00                                    |   .            |                x: 0 (valid) 0x33-0x34 (1)
    |                                               |                |            [1]{}: ex 0x34-0x3e (10)
    |                                               |                |              nm{}: 0x34-0x3c (8)
0x30|            07                                 |    .           |                n: 7 (valid) 0x34-0x35 (1)
0x30|               66 75 6e 63 72 65 66            |     funcref    |                b: "funcref" 0x35-0x3c (7)
    |                                               |                |              d{}: 0x3c-0x3e (2)
0x30|                                    00         |            .   |                tag: "funcidx" (0x0) 0x3c-0x3d (1)
0x30|                                       01      |             .  |                x: 1 (valid) 0x3d-0x3e (1)
    |                                               |                |    [4]{}: section 0x3e-0x4b (13)
0x30|                                          0a   |              . |      id: "code_section" (10) 0x3e-0x3f (1)
0x30|                                             0b|               .|      size: 11 (valid) 0x3f-0x40 (1)
    |                                               |                |      content{}: 0x40-0x4b (11)
    |                                               |                |        code{}: 0x40-0x4b (11)
0x40|02                                             |.               |          n: 2 (valid) 0x40-0x41 (1)
    |                                               |                |          x[0:2]: 0x41-0x4b (10)
    |                                               |                |            [0]{}: code 0x41-0x46 (5)
0x40|   04                                          | .              |              size: 4 (valid) 0x41-0x42 (1)
    |                                               |                |              code{}: 0x42-0x46 (4)
    |                                               |                |                t{}: 0x42-0x43 (1)
0x40|      00                                       |  .             |                  n: 0 (valid) 0x42-0x43 (1)
    |                                               |                |                  x[0:0]: 0x43-0x43 (0)
    |                                               |                |                e[0:2]: 0x43-0x46 (3)
    |                                               |                |                  [0]{}: in 0x43-0x45 (2)
0x40|         d0                                    |   .            |                    opcode: "ref.null" (0xd0) 0x43-0x44 (1)
0x40|            6f                                 |    o           |                    t: "externref" (111) 0x44-0x45 (1)
    |                                               |                |                  [1]{}: in 0x45-0x46 (1)
0x40|               0b                              |     .          |                    opcode: "end" (0xb) 0x45-0x46 (1)
    |                                               |                |            [1]{}: code 0x46-0x4b (5)
0x40|                  04                           |      .         |              size: 4 (valid) 0x46-0x47 (1)
    |                                               |                |              code{}: 0x47-0x4b (4)
    |                                               |                |                t{}: 0x47-0x48 (1)
0x40|                     00                        |       .        |                  n: 0 (valid) 0x47-0x48 (1)
    |                                               |                |                  x[0:0]: 0x48-0x48 (0)
    |                                               |                |                e[0:2]: 0x48-0x4b (3)
    |                                               |                |                  [0]{}: in 0x48-0x4a (2)
0x40|                        d0                     |        .       |                    opcode: "ref.null" (0xd0) 0x48-0x49 (1)
0x40|                           70                  |         p      |                    t: "funcref" (112) 0x49-0x4a (1)
    |                                               |                |                  [1]{}: in 0x4a-0x4b (1)
0x40|                              0b|              |          .|    |                    opcode: "end" (0xb) 0x4a-0x4b (1)
