$ fq -d wasm dv ref_is_null-0.wasm
    |00 01 02 03 04 05 06 07 08 09 0a 0b 0c 0d 0e 0f|0123456789abcdef|.{}: ref_is_null-0.wasm (wasm) 0x0-0xc2 (194)
0x00|00 61 73 6d                                    |.asm            |  magic: raw bits (valid) 0x0-0x4 (4)
0x00|            01 00 00 00                        |    ....        |  version: 1 0x4-0x8 (4)
    |                                               |                |  sections[0:6]: 0x8-0xc2 (186)
    |                                               |                |    [0]{}: section 0x8-0x21 (25)
0x00|                        01                     |        .       |      id: "type_section" (1) 0x8-0x9 (1)
0x00|                           17                  |         .      |      size: 23 (valid) 0x9-0xa (1)
    |                                               |                |      content{}: 0xa-0x21 (23)
    |                                               |                |        ft{}: 0xa-0x21 (23)
0x00|                              05               |          .     |          n: 5 (valid) 0xa-0xb (1)
    |                                               |                |          x[0:5]: 0xb-0x21 (22)
    |                                               |                |            [0]{}: ft 0xb-0x10 (5)
0x00|                                 60            |           `    |              tag: 0x60 (valid) 0xb-0xc (1)
    |                                               |                |              rt1{}: 0xc-0xe (2)
0x00|                                    01         |            .   |                n: 1 (valid) 0xc-0xd (1)
    |                                               |                |                x[0:1]: 0xd-0xe (1)
0x00|                                       70      |             p  |                  [0]: "funcref" (0x70) t 0xd-0xe (1)
    |                                               |                |              rt2{}: 0xe-0x10 (2)
0x00|                                          01   |              . |                n: 1 (valid) 0xe-0xf (1)
    |                                               |                |                x[0:1]: 0xf-0x10 (1)
0x00|                                             7f|               .|                  [0]: "i32" (0x7f) t 0xf-0x10 (1)
    |                                               |                |            [1]{}: ft 0x10-0x15 (5)
0x10|60                                             |`               |              tag: 0x60 (valid) 0x10-0x11 (1)
    |                                               |                |              rt1{}: 0x11-0x13 (2)
0x10|   01                                          | .              |                n: 1 (valid) 0x11-0x12 (1)
    |                                               |                |                x[0:1]: 0x12-0x13 (1)
0x10|      6f                                       |  o             |                  [0]: "externref" (0x6f) t 0x12-0x13 (1)
    |                                               |                |              rt2{}: 0x13-0x15 (2)
0x10|         01                                    |   .            |                n: 1 (valid) 0x13-0x14 (1)
    |                                               |                |                x[0:1]: 0x14-0x15 (1)
0x10|            7f                                 |    .           |                  [0]: "i32" (0x7f) t 0x14-0x15 (1)
    |                                               |                |            [2]{}: ft 0x15-0x18 (3)
0x10|               60                              |     `          |              tag: 0x60 (valid) 0x15-0x16 (1)
    |                                               |                |              rt1{}: 0x16-0x17 (1)
0x10|                  00                           |      .         |                n: 0 (valid) 0x16-0x17 (1)
    |                                               |                |                x[0:0]: 0x17-0x17 (0)
    |                                               |                |              rt2{}: 0x17-0x18 (1)
0x10|                     00                        |       .        |                n: 0 (valid) 0x17-0x18 (1)
    |                                               |                |                x[0:0]: 0x18-0x18 (0)
    |                                               |                |            [3]{}: ft 0x18-0x1c (4)
0x10|                        60                     |        `       |              tag: 0x60 (valid) 0x18-0x19 (1)
    |                                               |                |              rt1{}: 0x19-0x1b (2)
0x10|                           01                  |         .      |                n: 1 (valid) 0x19-0x1a (1)
    |                                               |                |                x[0:1]: 0x1a-0x1b (1)
0x10|                              6f               |          o     |                  [0]: "externref" (0x6f) t 0x1a-0x1b (1)
    |                                               |                |              rt2{}: 0x1b-0x1c (1)
0x10|                                 00            |           .    |                n: 0 (valid) 0x1b-0x1c (1)
    |                                               |                |                x[0:0]: 0x1c-0x1c (0)
    |                                               |                |            [4]{}: ft 0x1c-0x21 (5)
0x10|                                    60         |            `   |              tag: 0x60 (valid) 0x1c-0x1d (1)
    |                                               |                |              rt1{}: 0x1d-0x1f (2)
0x10|                                       01      |             .  |                n: 1 (valid) 0x1d-0x1e (1)
    |                                               |                |                x[0:1]: 0x1e-0x1f (1)
0x10|                                          7f   |              . |                  [0]: "i32" (0x7f) t 0x1e-0x1f (1)
    |                                               |                |              rt2{}: 0x1f-0x21 (2)
0x10|                                             01|               .|                n: 1 (valid) 0x1f-0x20 (1)
    |                                               |                |                x[0:1]: 0x20-0x21 (1)
0x20|7f                                             |.               |                  [0]: "i32" (0x7f) t 0x20-0x21 (1)
    |                                               |                |    [1]{}: section 0x21-0x2b (10)
0x20|   03                                          | .              |      id: "function_section" (3) 0x21-0x22 (1)
0x20|      08                                       |  .             |      size: 8 (valid) 0x22-0x23 (1)
    |                                               |                |      content{}: 0x23-0x2b (8)
    |                                               |                |        x{}: 0x23-0x2b (8)
0x20|         07                                    |   .            |          n: 7 (valid) 0x23-0x24 (1)
    |                                               |                |          x[0:7]: 0x24-0x2b (7)
0x20|            00                                 |    .           |            [0]: 0 x (valid) 0x24-0x25 (1)
0x20|               01                              |     .          |            [1]: 1 x (valid) 0x25-0x26 (1)
0x20|                  02                           |      .         |            [2]: 2 x (valid) 0x26-0x27 (1)
0x20|                     03                        |       .        |            [3]: 3 x (valid) 0x27-0x28 (1)
0x20|                        02                     |        .       |            [4]: 2 x (valid) 0x28-0x29 (1)
0x20|                           04                  |         .      |            [5]: 4 x (valid) 0x29-0x2a (1)
0x20|                              04               |          .     |            [6]: 4 x (valid) 0x2a-0x2b (1)
    |                                               |                |    [2]{}: section 0x2b-0x34 (9)
0x20|                                 04            |           .    |      id: "table_section" (4) 0x2b-0x2c (1)
0x20|                                    07         |            .   |      size: 7 (valid) 0x2c-0x2d (1)
    |                                               |                |      content{}: 0x2d-0x34 (7)
    |                                               |                |        tab{}: 0x2d-0x34 (7)
0x20|                                       02      |             .  |          n: 2 (valid) 0x2d-0x2e (1)
    |                                               |                |          x[0:2]: 0x2e-0x34 (6)
    |                                               |                |            [0]{}: tab 0x2e-0x31 (3)
0x20|                                          70   |              p |              et: "funcref" (112) 0x2e-0x2f (1)
    |                                               |                |              lim{}: 0x2f-0x31 (2)
0x20|                                             00|               .|                tag: 0x0 0x2f-0x30 (1)
0x30|02                                             |.               |                n: 2 (valid) 0x30-0x31 (1)
    |                                               |                |            [1]{}: tab 0x31-0x34 (3)
0x30|   6f                                          | o              |              et: "externref" (111) 0x31-0x32 (1)
    |                                               |                |              lim{}: 0x32-0x34 (2)
0x30|      00                                       |  .             |                tag: 0x0 0x32-0x33 (1)
0x30|         02                                    |   .            |                n: 2 (valid) 0x33-0x34 (1)
    |                                               |                |    [3]{}: section 0x34-0x7d (73)
0x30|            07                                 |    .           |      id: "export_section" (7) 0x34-0x35 (1)
0x30|               47                              |     G          |      size: 71 (valid) 0x35-0x36 (1)
    |                                               |                |      content{}: 0x36-0x7d (71)
    |                                               |                |        ex{}: 0x36-0x7d (71)
0x30|                  06                           |      .         |          n: 6 (valid) 0x36-0x37 (1)
    |                                               |                |          x[0:6]: 0x37-0x7d (70)
    |                                               |                |            [0]{}: ex 0x37-0x41 (10)
    |                                               |                |              nm{}: 0x37-0x3f (8)
0x30|                     07                        |       .        |                n: 7 (valid) 0x37-0x38 (1)
0x30|                        66 75 6e 63 72 65 66   |        funcref |                b: "funcref" 0x38-0x3f (7)
    |                                               |                |              d{}: 0x3f-0x41 (2)
0x30|                                             00|               .|                tag: "funcidx" (0x0) 0x3f-0x40 (1)
0x40|00                                             |.               |                x: 0 (valid) 0x40-0x41 (1)
    |                                               |                |            [1]{}: ex 0x41-0x4d (12)
    |                                               |                |              nm{}: 0x41-0x4b (10)
0x40|   09                                          | .              |                n: 9 (valid) 0x41-0x42 (1)
0x40|      65 78 74 65 72 6e 72 65 66               |  externref     |                b: "externref" 0x42-0x4b (9)
    |                                               |                |              d{}: 0x4b-0x4d (2)
0x40|                                 00            |           .    |                tag: "funcidx" (0x0) 0x4b-0x4c (1)
0x40|                                    01         |            .   |                x: 1 (valid) 0x4c-0x4d (1)
    |                                               |                |            [2]{}: ex 0x4d-0x54 (7)
    |                                               |                |              nm{}: 0x4d-0x52 (5)
0x40|                                       04      |             .  |                n: 4 (valid) 0x4d-0x4e (1)
0x40|                                          69 6e|              in|                b: "init" 0x4e-0x52 (4)
0x50|69 74                                          |it              |
    |                                               |                |              d{}: 0x52-0x54 (2)
0x50|      00                                       |  .             |                tag: "funcidx" (0x0) 0x52-0x53 (1)
0x50|         03                                    |   .            |                x: 3 (valid) 0x53-0x54 (1)
    |                                               |                |            [3]{}: ex 0x54-0x5d (9)
    |                                               |                |              nm{}: 0x54-0x5b (7)
0x50|            06                                 |    .           |                n: 6 (valid) 0x54-0x55 (1)
0x50|               64 65 69 6e 69 74               |     deinit     |                b: "deinit" 0x55-0x5b (6)
    |                                               |                |              d{}: 0x5b-0x5d (2)
0x50|                                 00            |           .    |                tag: "funcidx" (0x0) 0x5b-0x5c (1)
0x50|                                    04         |            .   |                x: 4 (valid) 0x5c-0x5d (1)
    |                                               |                |            [4]{}: ex 0x5d-0x6c (15)
    |                                               |                |              nm{}: 0x5d-0x6a (13)
0x50|                                       0c      |             .  |                n: 12 (valid) 0x5d-0x5e (1)
0x50|                                          66 75|              fu|                b: "funcref-elem" 0x5e-0x6a (12)
0x60|6e 63 72 65 66 2d 65 6c 65 6d                  |ncref-elem      |
    |                                               |                |              d{}: 0x6a-0x6c (2)
0x60|                              00               |          .     |                tag: "funcidx" (0x0) 0x6a-0x6b (1)
0x60|                                 05            |           .    |                x: 5 (valid) 0x6b-0x6c (1)
    |                                               |                |            [5]{}: ex 0x6c-0x7d (17)
    |                                               |                |              nm{}: 0x6c-0x7b (15)
0x60|                                    0e         |            .   |                n: 14 (valid) 0x6c-0x6d (1)
0x60|                                       65 78 74|             ext|                b: "externref-elem" 0x6d-0x7b (14)
0x70|65 72 6e 72 65 66 2d 65 6c 65 6d               |ernref-elem     |
    |                                               |                |              d{}: 0x7b-0x7d (2)
0x70|                                 00            |           .    |                tag: "funcidx" (0x0) 0x7b-0x7c (1)
0x70|                                    06         |            .   |                x: 6 (valid) 0x7c-0x7d (1)
    |                                               |                |    [4]{}: section 0x7d-0x86 (9)
0x70|                                       09      |             .  |      id: "element_section" (9) 0x7d-0x7e (1)
0x70|                                          07   |              . |      size: 7 (valid) 0x7e-0x7f (1)
    |                                               |                |      element{}: 0x7f-0x86 (7)
    |                                               |                |        seg{}: 0x7f-0x86 (7)
0x70|                                             01|               .|          n: 1 (valid) 0x7f-0x80 (1)
    |                                               |                |          x[0:1]: 0x80-0x86 (6)
    |                                               |                |            [0]{}: seg 0x80-0x86 (6)
0x80|00                                             |.               |              tag: 0 (valid) 0x80-0x81 (1)
    |                                               |                |              e[0:2]: 0x81-0x84 (3)
    |                                               |                |                [0]{}: in 0x81-0x83 (2)
0x80|   41                                          | A              |                  opcode: "i32.const" (0x41) 0x81-0x82 (1)
0x80|      01                                       |  .             |                  n: 1 (valid) 0x82-0x83 (1)
    |                                               |                |                [1]{}: in 0x83-0x84 (1)
0x80|         0b                                    |   .            |                  opcode: "end" (0xb) 0x83-0x84 (1)
    |                                               |                |              y{}: 0x84-0x86 (2)
0x80|            01                                 |    .           |                n: 1 (valid) 0x84-0x85 (1)
    |                                               |                |                x[0:1]: 0x85-0x86 (1)
0x80|               02                              |     .          |                  [0]: 2 y (valid) 0x85-0x86 (1)
    |                                               |                |    [5]{}: section 0x86-0xc2 (60)
0x80|                  0a                           |      .         |      id: "code_section" (10) 0x86-0x87 (1)
0x80|                     3a                        |       :        |      size: 58 (valid) 0x87-0x88 (1)
    |                                               |                |      content{}: 0x88-0xc2 (58)
    |                                               |                |        code{}: 0x88-0xc2 (58)
0x80|                        07                     |        .       |          n: 7 (valid) 0x88-0x89 (1)
    |                                               |                |          x[0:7]: 0x89-0xc2 (57)
    |                                               |                |            [0]{}: code 0x89-0x8f (6)
0x80|                           05                  |         .      |              size: 5 (valid) 0x89-0x8a (1)
    |                                               |                |              code{}: 0x8a-0x8f (5)
    |                                               |                |                t{}: 0x8a-0x8b (1)
0x80|                              00               |          .     |                  n: 0 (valid) 0x8a-0x8b (1)
    |                                               |                |                  x[0:0]: 0x8b-0x8b (0)
    |                                               |                |                e[0:3]: 0x8b-0x8f (4)
    |                                               |                |                  [0]{}: in 0x8b-0x8d (2)
0x80|                                 20            |                |                    opcode: "local.get" (0x20) 0x8b-0x8c (1)
0x80|                                    00         |            .   |                    x: 0 (valid) 0x8c-0x8d (1)
    |                                               |                |                  [1]{}: in 0x8d-0x8e (1)
0x80|                                       d1      |             .  |                    opcode: "ref.is_null" (0xd1) 0x8d-0x8e (1)
    |                                               |                |                  [2]{}: in 0x8e-0x8f (1)
0x80|                                          0b   |              . |                    opcode: "end" (0xb) 0x8e-0x8f (1)
    |                                               |                |            [1]{}: code 0x8f-0x95 (6)
0x80|                                             05|               .|              size: 5 (valid) 0x8f-0x90 (1)
    |                                               |                |              code{}: 0x90-0x95 (5)
    |                                               |                |                t{}: 0x90-0x91 (1)
0x90|00                                             |.               |                  n: 0 (valid) 0x90-0x91 (1)
    |                                               |                |                  x[0:0]: 0x91-0x91 (0)
    |                                               |                |                e[0:3]: 0x91-0x95 (4)
    |                                               |                |                  [0]{}: in 0x91-0x93 (2)
0x90|   20                                          |                |                    opcode: "local.get" (0x20) 0x91-0x92 (1)
0x90|      00                                       |  .             |                    x: 0 (valid) 0x92-0x93 (1)
    |                                               |                |                  [1]{}: in 0x93-0x94 (1)
0x90|         d1                                    |   .            |                    opcode: "ref.is_null" (0xd1) 0x93-0x94 (1)
    |                                               |                |                  [2]{}: in 0x94-0x95 (1)
0x90|            0b                                 |    .           |                    opcode: "end" (0xb) 0x94-0x95 (1)
    |                                               |                |            [2]{}: code 0x95-0x98 (3)
0x90|               02                              |     .          |              size: 2 (valid) 0x95-0x96 (1)
    |                                               |                |              code{}: 0x96-0x98 (2)
    |                                               |                |                t{}: 0x96-0x97 (1)
0x90|                  00                           |      .         |                  n: 0 (valid) 0x96-0x97 (1)
    |                                               |                |                  x[0:0]: 0x97-0x97 (0)
    |                                               |                |                e[0:1]: 0x97-0x98 (1)
    |                                               |                |                  [0]{}: in 0x97-0x98 (1)
0x90|                     0b                        |       .        |                    opcode: "end" (0xb) 0x97-0x98 (1)
    |                                               |                |            [3]{}: code 0x98-0xa1 (9)
0x90|                        08                     |        .       |              size: 8 (valid) 0x98-0x99 (1)
    |                                               |                |              code{}: 0x99-0xa1 (8)
    |                                               |                |                t{}: 0x99-0x9a (1)
0x90|                           00                  |         .      |                  n: 0 (valid) 0x99-0x9a (1)
    |                                               |                |                  x[0:0]: 0x9a-0x9a (0)
    |                                               |                |                e[0:4]: 0x9a-0xa1 (7)
    |                                               |                |                  [0]{}: in 0x9a-0x9c (2)
0x90|                              41               |          A     |                    opcode: "i32.const" (0x41) 0x9a-0x9b (1)
0x90|                                 01            |           .    |                    n: 1 (valid) 0x9b-0x9c (1)
    |                                               |                |                  [1]{}: in 0x9c-0x9e (2)
0x90|                                    20         |                |                    opcode: "local.get" (0x20) 0x9c-0x9d (1)
0x90|                                       00      |             .  |                    x: 0 (valid) 0x9d-0x9e (1)
    |                                               |                |                  [2]{}: in 0x9e-0xa0 (2)
0x90|                                          26   |              & |                    opcode: "table.set" (0x26) 0x9e-0x9f (1)
0x90|                                             01|               .|                    x: 1 (valid) 0x9f-0xa0 (1)
    |                                               |                |                  [3]{}: in 0xa0-0xa1 (1)
0xa0|0b                                             |.               |                    opcode: "end" (0xb) 0xa0-0xa1 (1)
    |                                               |                |            [4]{}: code 0xa1-0xb0 (15)
0xa0|   0e                                          | .              |              size: 14 (valid) 0xa1-0xa2 (1)
    |                                               |                |              code{}: 0xa2-0xb0 (14)
    |                                               |                |                t{}: 0xa2-0xa3 (1)
0xa0|      00                                       |  .             |                  n: 0 (valid) 0xa2-0xa3 (1)
    |                                               |                |                  x[0:0]: 0xa3-0xa3 (0)
    |                                               |                |                e[0:7]: 0xa3-0xb0 (13)
    |                                               |                |                  [0]{}: in 0xa3-0xa5 (2)
0xa0|         41                                    |   A            |                    opcode: "i32.const" (0x41) 0xa3-0xa4 (1)
0xa0|            01                                 |    .           |                    n: 1 (valid) 0xa4-0xa5 (1)
    |                                               |                |                  [1]{}: in 0xa5-0xa7 (2)
0xa0|               d0                              |     .          |                    opcode: "ref.null" (0xd0) 0xa5-0xa6 (1)
0xa0|                  70                           |      p         |                    t: "funcref" (112) 0xa6-0xa7 (1)
    |                                               |                |                  [2]{}: in 0xa7-0xa9 (2)
0xa0|                     26                        |       &        |                    opcode: "table.set" (0x26) 0xa7-0xa8 (1)
0xa0|                        00                     |        .       |                    x: 0 (valid) 0xa8-0xa9 (1)
    |                                               |                |                  [3]{}: in 0xa9-0xab (2)
0xa0|                           41                  |         A      |                    opcode: "i32.const" (0x41) 0xa9-0xaa (1)
0xa0|                              01               |          .     |                    n: 1 (valid) 0xaa-0xab (1)
    |                                               |                |                  [4]{}: in 0xab-0xad (2)
0xa0|                                 d0            |           .    |                    opcode: "ref.null" (0xd0) 0xab-0xac (1)
0xa0|                                    6f         |            o   |                    t: "externref" (111) 0xac-0xad (1)
    |                                               |                |                  [5]{}: in 0xad-0xaf (2)
0xa0|                                       26      |             &  |                    opcode: "table.set" (0x26) 0xad-0xae (1)
0xa0|                                          01   |              . |                    x: 1 (valid) 0xae-0xaf (1)
    |                                               |                |                  [6]{}: in 0xaf-0xb0 (1)
0xa0|                                             0b|               .|                    opcode: "end" (0xb) 0xaf-0xb0 (1)
    |                                               |                |            [5]{}: code 0xb0-0xb9 (9)
0xb0|08                                             |.               |              size: 8 (valid) 0xb0-0xb1 (1)
    |                                               |                |              code{}: 0xb1-0xb9 (8)
    |                                               |                |                t{}: 0xb1-0xb2 (1)
0xb0|   00                                          | .              |                  n: 0 (valid) 0xb1-0xb2 (1)
    |                                               |                |                  x[0:0]: 0xb2-0xb2 (0)
    |                                               |                |                e[0:4]: 0xb2-0xb9 (7)
    |                                               |                |                  [0]{}: in 0xb2-0xb4 (2)
0xb0|      20                                       |                |                    opcode: "local.get" (0x20) 0xb2-0xb3 (1)
0xb0|         00                                    |   .            |                    x: 0 (valid) 0xb3-0xb4 (1)
    |                                               |                |                  [1]{}: in 0xb4-0xb6 (2)
0xb0|            25                                 |    %           |                    opcode: "table.get" (0x25) 0xb4-0xb5 (1)
0xb0|               00                              |     .          |                    x: 0 (valid) 0xb5-0xb6 (1)
    |                                               |                |                  [2]{}: in 0xb6-0xb8 (2)
0xb0|                  10                           |      .         |                    opcode: "call" (0x10) 0xb6-0xb7 (1)
0xb0|                     00                        |       .        |                    x: 0 (valid) 0xb7-0xb8 (1)
    |                                               |                |                  [3]{}: in 0xb8-0xb9 (1)
0xb0|                        0b                     |        .       |                    opcode: "end" (0xb) 0xb8-0xb9 (1)
    |                                               |                |            [6]{}: code 0xb9-0xc2 (9)
0xb0|                           08                  |         .      |              size: 8 (valid) 0xb9-0xba (1)
    |                                               |                |              code{}: 0xba-0xc2 (8)
    |                                               |                |                t{}: 0xba-0xbb (1)
0xb0|                              00               |          .     |                  n: 0 (valid) 0xba-0xbb (1)
    |                                               |                |                  x[0:0]: 0xbb-0xbb (0)
    |                                               |                |                e[0:4]: 0xbb-0xc2 (7)
    |                                               |                |                  [0]{}: in 0xbb-0xbd (2)
0xb0|                                 20            |                |                    opcode: "local.get" (0x20) 0xbb-0xbc (1)
0xb0|                                    00         |            .   |                    x: 0 (valid) 0xbc-0xbd (1)
    |                                               |                |                  [1]{}: in 0xbd-0xbf (2)
0xb0|                                       25      |             %  |                    opcode: "table.get" (0x25) 0xbd-0xbe (1)
0xb0|                                          01   |              . |                    x: 1 (valid) 0xbe-0xbf (1)
    |                                               |                |                  [2]{}: in 0xbf-0xc1 (2)
0xb0|                                             10|               .|                    opcode: "call" (0x10) 0xbf-0xc0 (1)
0xc0|01                                             |.               |                    x: 1 (valid) 0xc0-0xc1 (1)
    |                                               |                |                  [3]{}: in 0xc1-0xc2 (1)
0xc0|   0b|                                         | .|             |                    opcode: "end" (0xb) 0xc1-0xc2 (1)
