$ fq -d wasm dv ref_func-1.wasm
     |00 01 02 03 04 05 06 07 08 09 0a 0b 0c 0d 0e 0f|0123456789abcdef|.{}: ref_func-1.wasm (wasm) 0x0-0x127 (295)
0x000|00 61 73 6d                                    |.asm            |  magic: raw bits (valid) 0x0-0x4 (4)
0x000|            01 00 00 00                        |    ....        |  version: 1 0x4-0x8 (4)
     |                                               |                |  sections[0:8]: 0x8-0x127 (287)
     |                                               |                |    [0]{}: section 0x8-0x17 (15)
0x000|                        01                     |        .       |      id: "type_section" (1) 0x8-0x9 (1)
0x000|                           0d                  |         .      |      size: 13 (valid) 0x9-0xa (1)
     |                                               |                |      content{}: 0xa-0x17 (13)
     |                                               |                |        ft{}: 0xa-0x17 (13)
0x000|                              03               |          .     |          n: 3 (valid) 0xa-0xb (1)
     |                                               |                |          x[0:3]: 0xb-0x17 (12)
     |                                               |                |            [0]{}: ft 0xb-0x10 (5)
0x000|                                 60            |           `    |              tag: 0x60 (valid) 0xb-0xc (1)
     |                                               |                |              rt1{}: 0xc-0xe (2)
0x000|                                    01         |            .   |                n: 1 (valid) 0xc-0xd (1)
     |                                               |                |                x[0:1]: 0xd-0xe (1)
0x000|                                       7f      |             .  |                  [0]: "i32" (0x7f) t 0xd-0xe (1)
     |                                               |                |              rt2{}: 0xe-0x10 (2)
0x000|                                          01   |              . |                n: 1 (valid) 0xe-0xf (1)
     |                                               |                |                x[0:1]: 0xf-0x10 (1)
0x000|                                             7f|               .|                  [0]: "i32" (0x7f) t 0xf-0x10 (1)
     |                                               |                |            [1]{}: ft 0x10-0x13 (3)
0x010|60                                             |`               |              tag: 0x60 (valid) 0x10-0x11 (1)
     |                                               |                |              rt1{}: 0x11-0x12 (1)
0x010|   00                                          | .              |                n: 0 (valid) 0x11-0x12 (1)
     |                                               |                |                x[0:0]: 0x12-0x12 (0)
     |                                               |                |              rt2{}: 0x12-0x13 (1)
0x010|      00                                       |  .             |                n: 0 (valid) 0x12-0x13 (1)
     |                                               |                |                x[0:0]: 0x13-0x13 (0)
     |                                               |                |            [2]{}: ft 0x13-0x17 (4)
0x010|         60                                    |   `            |              tag: 0x60 (valid) 0x13-0x14 (1)
     |                                               |                |              rt1{}: 0x14-0x15 (1)
0x010|            00                                 |    .           |                n: 0 (valid) 0x14-0x15 (1)
     |                                               |                |                x[0:0]: 0x15-0x15 (0)
     |                                               |                |              rt2{}: 0x15-0x17 (2)
0x010|               01                              |     .          |                n: 1 (valid) 0x15-0x16 (1)
     |                                               |                |                x[0:1]: 0x16-0x17 (1)
0x010|                  7f                           |      .         |                  [0]: "i32" (0x7f) t 0x16-0x17 (1)
     |                                               |                |    [1]{}: section 0x17-0x20 (9)
0x010|                     02                        |       .        |      id: "import_section" (2) 0x17-0x18 (1)
0x010|                        07                     |        .       |      size: 7 (valid) 0x18-0x19 (1)
     |                                               |                |      content{}: 0x19-0x20 (7)
     |                                               |                |        im{}: 0x19-0x20 (7)
0x010|                           01                  |         .      |          n: 1 (valid) 0x19-0x1a (1)
     |                                               |                |          x[0:1]: 0x1a-0x20 (6)
     |                                               |                |            [0]{}: im 0x1a-0x20 (6)
     |                                               |                |              mod{}: 0x1a-0x1c (2)
0x010|                              01               |          .     |                n: 1 (valid) 0x1a-0x1b (1)
0x010|                                 4d            |           M    |                b: "M" 0x1b-0x1c (1)
     |                                               |                |              nm{}: 0x1c-0x1e (2)
0x010|                                    01         |            .   |                n: 1 (valid) 0x1c-0x1d (1)
0x010|                                       66      |             f  |                b: "f" 0x1d-0x1e (1)
     |                                               |                |              d{}: 0x1e-0x20 (2)
0x010|                                          00   |              . |                tag: "func" (0x0) 0x1e-0x1f (1)
0x010|                                             00|               .|                x: 0 (valid) 0x1f-0x20 (1)
     |                                               |                |    [2]{}: section 0x20-0x31 (17)
0x020|03                                             |.               |      id: "function_section" (3) 0x20-0x21 (1)
0x020|   0f                                          | .              |      size: 15 (valid) 0x21-0x22 (1)
     |                                               |                |      content{}: 0x22-0x31 (15)
     |                                               |                |        x{}: 0x22-0x31 (15)
0x020|      0e                                       |  .             |          n: 14 (valid) 0x22-0x23 (1)
     |                                               |                |          x[0:14]: 0x23-0x31 (14)
0x020|         00                                    |   .            |            [0]: 0 x (valid) 0x23-0x24 (1)
0x020|            01                                 |    .           |            [1]: 1 x (valid) 0x24-0x25 (1)
0x020|               01                              |     .          |            [2]: 1 x (valid) 0x25-0x26 (1)
0x020|                  01                           |      .         |            [3]: 1 x (valid) 0x26-0x27 (1)
0x020|                     01                        |       .        |            [4]: 1 x (valid) 0x27-0x28 (1)
0x020|                        01                     |        .       |            [5]: 1 x (valid) 0x28-0x29 (1)
0x020|                           02                  |         .      |            [6]: 2 x (valid) 0x29-0x2a (1)
0x020|                              02               |          .     |            [7]: 2 x (valid) 0x2a-0x2b (1)
0x020|                                 02            |           .    |            [8]: 2 x (valid) 0x2b-0x2c (1)
0x020|                                    01         |            .   |            [9]: 1 x (valid) 0x2c-0x2d (1)
0x020|                                       01      |             .  |            [10]: 1 x (valid) 0x2d-0x2e (1)
0x020|                                          00   |              . |            [11]: 0 x (valid) 0x2e-0x2f (1)
0x020|                                             00|               .|            [12]: 0 x (valid) 0x2f-0x30 (1)
0x030|00                                             |.               |            [13]: 0 x (valid) 0x30-0x31 (1)
     |                                               |                |    [3]{}: section 0x31-0x37 (6)
0x030|   04                                          | .              |      id: "table_section" (4) 0x31-0x32 (1)
0x030|      04                                       |  .             |      size: 4 (valid) 0x32-0x33 (1)
     |                                               |                |      content{}: 0x33-0x37 (4)
     |                                               |                |        tab{}: 0x33-0x37 (4)
0x030|         01                                    |   .            |          n: 1 (valid) 0x33-0x34 (1)
     |                                               |                |          x[0:1]: 0x34-0x37 (3)
     |                                               |                |            [0]{}: tab 0x34-0x37 (3)
0x030|            70                                 |    p           |              et: "funcref" (112) 0x34-0x35 (1)
     |                                               |                |              lim{}: 0x35-0x37 (2)
0x030|               00                              |     .          |                tag: 0x0 0x35-0x36 (1)
0x030|                  01                           |      .         |                n: 1 (valid) 0x36-0x37 (1)
     |                                               |                |    [4]{}: section 0x37-0x53 (28)
0x030|                     06                        |       .        |      id: "global_section" (6) 0x37-0x38 (1)
0x030|                        1a                     |        .       |      size: 26 (valid) 0x38-0x39 (1)
     |                                               |                |      content{}: 0x39-0x53 (26)
     |                                               |                |        glob{}: 0x39-0x53 (26)
0x030|                           05                  |         .      |          n: 5 (valid) 0x39-0x3a (1)
     |                                               |                |          x[0:5]: 0x3a-0x53 (25)
     |                                               |                |            [0]{}: glob 0x3a-0x3f (5)
     |                                               |                |              gt{}: 0x3a-0x3c (2)
0x030|                              70               |          p     |                t: "funcref" (0x70) 0x3a-0x3b (1)
0x030|                                 00            |           .    |                m: "const" (0) 0x3b-0x3c (1)
     |                                               |                |              e[0:2]: 0x3c-0x3f (3)
     |                                               |                |                [0]{}: in 0x3c-0x3e (2)
0x030|                                    d2         |            .   |                  opcode: "ref.func" (0xd2) 0x3c-0x3d (1)
0x030|                                       00      |             .  |                  x: 0 (valid) 0x3d-0x3e (1)
     |                                               |                |                [1]{}: in 0x3e-0x3f (1)
0x030|                                          0b   |              . |                  opcode: "end" (0xb) 0x3e-0x3f (1)
     |                                               |                |            [1]{}: glob 0x3f-0x44 (5)
     |                                               |                |              gt{}: 0x3f-0x41 (2)
0x030|                                             70|               p|                t: "funcref" (0x70) 0x3f-0x40 (1)
0x040|00                                             |.               |                m: "const" (0) 0x40-0x41 (1)
     |                                               |                |              e[0:2]: 0x41-0x44 (3)
     |                                               |                |                [0]{}: in 0x41-0x43 (2)
0x040|   d2                                          | .              |                  opcode: "ref.func" (0xd2) 0x41-0x42 (1)
0x040|      01                                       |  .             |                  x: 1 (valid) 0x42-0x43 (1)
     |                                               |                |                [1]{}: in 0x43-0x44 (1)
0x040|         0b                                    |   .            |                  opcode: "end" (0xb) 0x43-0x44 (1)
     |                                               |                |            [2]{}: glob 0x44-0x49 (5)
     |                                               |                |              gt{}: 0x44-0x46 (2)
0x040|            70                                 |    p           |                t: "funcref" (0x70) 0x44-0x45 (1)
0x040|               01                              |     .          |                m: "var" (1) 0x45-0x46 (1)
     |                                               |                |              e[0:2]: 0x46-0x49 (3)
     |                                               |                |                [0]{}: in 0x46-0x48 (2)
0x040|                  d2                           |      .         |                  opcode: "ref.func" (0xd2) 0x46-0x47 (1)
0x040|                     00                        |       .        |                  x: 0 (valid) 0x47-0x48 (1)
     |                                               |                |                [1]{}: in 0x48-0x49 (1)
0x040|                        0b                     |        .       |                  opcode: "end" (0xb) 0x48-0x49 (1)
     |                                               |                |            [3]{}: glob 0x49-0x4e (5)
     |                                               |                |              gt{}: 0x49-0x4b (2)
0x040|                           70                  |         p      |                t: "funcref" (0x70) 0x49-0x4a (1)
0x040|                              00               |          .     |                m: "const" (0) 0x4a-0x4b (1)
     |                                               |                |              e[0:2]: 0x4b-0x4e (3)
     |                                               |                |                [0]{}: in 0x4b-0x4d (2)
0x040|                                 d2            |           .    |                  opcode: "ref.func" (0xd2) 0x4b-0x4c (1)
0x040|                                    03         |            .   |                  x: 3 (valid) 0x4c-0x4d (1)
     |                                               |                |                [1]{}: in 0x4d-0x4e (1)
0x040|                                       0b      |             .  |                  opcode: "end" (0xb) 0x4d-0x4e (1)
     |                                               |                |            [4]{}: glob 0x4e-0x53 (5)
     |                                               |                |              gt{}: 0x4e-0x50 (2)
0x040|                                          70   |              p |                t: "funcref" (0x70) 0x4e-0x4f (1)
0x040|                                             00|               .|                m: "const" (0) 0x4f-0x50 (1)
     |                                               |                |              e[0:2]: 0x50-0x53 (3)
     |                                               |                |                [0]{}: in 0x50-0x52 (2)
0x050|d2                                             |.               |                  opcode: "ref.func" (0xd2) 0x50-0x51 (1)
0x050|   04                                          | .              |                  x: 4 (valid) 0x51-0x52 (1)
     |                                               |                |                [1]{}: in 0x52-0x53 (1)
0x050|      0b                                       |  .             |                  opcode: "end" (0xb) 0x52-0x53 (1)
     |                                               |                |    [5]{}: section 0x53-0xa5 (82)
0x050|         07                                    |   .            |      id: "export_section" (7) 0x53-0x54 (1)
0x050|            50                                 |    P           |      size: 80 (valid) 0x54-0x55 (1)
     |                                               |                |      content{}: 0x55-0xa5 (80)
     |                                               |                |        ex{}: 0x55-0xa5 (80)
0x050|               08                              |     .          |          n: 8 (valid) 0x55-0x56 (1)
     |                                               |                |          x[0:8]: 0x56-0xa5 (79)
     |                                               |                |            [0]{}: ex 0x56-0x62 (12)
     |                                               |                |              nm{}: 0x56-0x60 (10)
0x050|                  09                           |      .         |                n: 9 (valid) 0x56-0x57 (1)
0x050|                     69 73 5f 6e 75 6c 6c 2d 66|       is_null-f|                b: "is_null-f" 0x57-0x60 (9)
     |                                               |                |              d{}: 0x60-0x62 (2)
0x060|00                                             |.               |                tag: "funcidx" (0x0) 0x60-0x61 (1)
0x060|   07                                          | .              |                x: 7 (valid) 0x61-0x62 (1)
     |                                               |                |            [1]{}: ex 0x62-0x6e (12)
     |                                               |                |              nm{}: 0x62-0x6c (10)
0x060|      09                                       |  .             |                n: 9 (valid) 0x62-0x63 (1)
0x060|         69 73 5f 6e 75 6c 6c 2d 67            |   is_null-g    |                b: "is_null-g" 0x63-0x6c (9)
     |                                               |                |              d{}: 0x6c-0x6e (2)
0x060|                                    00         |            .   |                tag: "funcidx" (0x0) 0x6c-0x6d (1)
0x060|                                       08      |             .  |                x: 8 (valid) 0x6d-0x6e (1)
     |                                               |                |            [2]{}: ex 0x6e-0x7a (12)
     |                                               |                |              nm{}: 0x6e-0x78 (10)
0x060|                                          09   |              . |                n: 9 (valid) 0x6e-0x6f (1)
0x060|                                             69|               i|                b: "is_null-v" 0x6f-0x78 (9)
0x070|73 5f 6e 75 6c 6c 2d 76                        |s_null-v        |
     |                                               |                |              d{}: 0x78-0x7a (2)
0x070|                        00                     |        .       |                tag: "funcidx" (0x0) 0x78-0x79 (1)
0x070|                           09                  |         .      |                x: 9 (valid) 0x79-0x7a (1)
     |                                               |                |            [3]{}: ex 0x7a-0x82 (8)
     |                                               |                |              nm{}: 0x7a-0x80 (6)
0x070|                              05               |          .     |                n: 5 (valid) 0x7a-0x7b (1)
0x070|                                 73 65 74 2d 66|           set-f|                b: "set-f" 0x7b-0x80 (5)
     |                                               |                |              d{}: 0x80-0x82 (2)
0x080|00                                             |.               |                tag: "funcidx" (0x0) 0x80-0x81 (1)
0x080|   0a                                          | .              |                x: 10 (valid) 0x81-0x82 (1)
     |                                               |                |            [4]{}: ex 0x82-0x8a (8)
     |                                               |                |              nm{}: 0x82-0x88 (6)
0x080|      05                                       |  .             |                n: 5 (valid) 0x82-0x83 (1)
0x080|         73 65 74 2d 67                        |   set-g        |                b: "set-g" 0x83-0x88 (5)
     |                                               |                |              d{}: 0x88-0x8a (2)
0x080|                        00                     |        .       |                tag: "funcidx" (0x0) 0x88-0x89 (1)
0x080|                           0b                  |         .      |                x: 11 (valid) 0x89-0x8a (1)
     |                                               |                |            [5]{}: ex 0x8a-0x93 (9)
     |                                               |                |              nm{}: 0x8a-0x91 (7)
0x080|                              06               |          .     |                n: 6 (valid) 0x8a-0x8b (1)
0x080|                                 63 61 6c 6c 2d|           call-|                b: "call-f" 0x8b-0x91 (6)
0x090|66                                             |f               |
     |                                               |                |              d{}: 0x91-0x93 (2)
0x090|   00                                          | .              |                tag: "funcidx" (0x0) 0x91-0x92 (1)
0x090|      0c                                       |  .             |                x: 12 (valid) 0x92-0x93 (1)
     |                                               |                |            [6]{}: ex 0x93-0x9c (9)
     |                                               |                |              nm{}: 0x93-0x9a (7)
0x090|         06                                    |   .            |                n: 6 (valid) 0x93-0x94 (1)
0x090|            63 61 6c 6c 2d 67                  |    call-g      |                b: "call-g" 0x94-0x9a (6)
     |                                               |                |              d{}: 0x9a-0x9c (2)
0x090|                              00               |          .     |                tag: "funcidx" (0x0) 0x9a-0x9b (1)
0x090|                                 0d            |           .    |                x: 13 (valid) 0x9b-0x9c (1)
     |                                               |                |            [7]{}: ex 0x9c-0xa5 (9)
     |                                               |                |              nm{}: 0x9c-0xa3 (7)
0x090|                                    06         |            .   |                n: 6 (valid) 0x9c-0x9d (1)
0x090|                                       63 61 6c|             cal|                b: "call-v" 0x9d-0xa3 (6)
0x0a0|6c 2d 76                                       |l-v             |
     |                                               |                |              d{}: 0xa3-0xa5 (2)
0x0a0|         00                                    |   .            |                tag: "funcidx" (0x0) 0xa3-0xa4 (1)
0x0a0|            0e                                 |    .           |                x: 14 (valid) 0xa4-0xa5 (1)
     |                                               |                |    [6]{}: section 0xa5-0xb7 (18)
0x0a0|               09                              |     .          |      id: "element_section" (9) 0xa5-0xa6 (1)
0x0a0|                  10                           |      .         |      size: 16 (valid) 0xa6-0xa7 (1)
     |                                               |                |      element{}: 0xa7-0xb7 (16)
     |                                               |                |        seg{}: 0xa7-0xb7 (16)
0x0a0|                     03                        |       .        |          n: 3 (valid) 0xa7-0xa8 (1)
     |                                               |                |          x[0:3]: 0xa8-0xb7 (15)
     |                                               |                |            [0]{}: seg 0xa8-0xad (5)
0x0a0|                        03                     |        .       |              tag: 3 (valid) 0xa8-0xa9 (1)
0x0a0|                           00                  |         .      |              et: "funcref" (0) (valid) 0xa9-0xaa (1)
     |                                               |                |              y{}: 0xaa-0xad (3)
0x0a0|                              02               |          .     |                n: 2 (valid) 0xaa-0xab (1)
     |                                               |                |                x[0:2]: 0xab-0xad (2)
0x0a0|                                 03            |           .    |                  [0]: 3 y (valid) 0xab-0xac (1)
0x0a0|                                    05         |            .   |                  [1]: 5 y (valid) 0xac-0xad (1)
     |                                               |                |            [1]{}: seg 0xad-0xb2 (5)
0x0a0|                                       03      |             .  |              tag: 3 (valid) 0xad-0xae (1)
0x0a0|                                          00   |              . |              et: "funcref" (0) (valid) 0xae-0xaf (1)
     |                                               |                |              y{}: 0xaf-0xb2 (3)
0x0a0|                                             02|               .|                n: 2 (valid) 0xaf-0xb0 (1)
     |                                               |                |                x[0:2]: 0xb0-0xb2 (2)
0x0b0|04                                             |.               |                  [0]: 4 y (valid) 0xb0-0xb1 (1)
0x0b0|   06                                          | .              |                  [1]: 6 y (valid) 0xb1-0xb2 (1)
     |                                               |                |            [2]{}: seg 0xb2-0xb7 (5)
0x0b0|      03                                       |  .             |              tag: 3 (valid) 0xb2-0xb3 (1)
0x0b0|         00                                    |   .            |              et: "funcref" (0) (valid) 0xb3-0xb4 (1)
     |                                               |                |              y{}: 0xb4-0xb7 (3)
0x0b0|            02                                 |    .           |                n: 2 (valid) 0xb4-0xb5 (1)
     |                                               |                |                x[0:2]: 0xb5-0xb7 (2)
0x0b0|               00                              |     .          |                  [0]: 0 y (valid) 0xb5-0xb6 (1)
0x0b0|                  01                           |      .         |                  [1]: 1 y (valid) 0xb6-0xb7 (1)
     |                                               |                |    [7]{}: section 0xb7-0x127 (112)
0x0b0|                     0a                        |       .        |      id: "code_section" (10) 0xb7-0xb8 (1)
0x0b0|                        6e                     |        n       |      size: 110 (valid) 0xb8-0xb9 (1)
     |                                               |                |      content{}: 0xb9-0x127 (110)
     |                                               |                |        code{}: 0xb9-0x127 (110)
0x0b0|                           0e                  |         .      |          n: 14 (valid) 0xb9-0xba (1)
     |                                               |                |          x[0:14]: 0xba-0x127 (109)
     |                                               |                |            [0]{}: code 0xba-0xc2 (8)
0x0b0|                              07               |          .     |              size: 7 (valid) 0xba-0xbb (1)
     |                                               |                |              code{}: 0xbb-0xc2 (7)
     |                                               |                |                t{}: 0xbb-0xbc (1)
0x0b0|                                 00            |           .    |                  n: 0 (valid) 0xbb-0xbc (1)
     |                                               |                |                  x[0:0]: 0xbc-0xbc (0)
     |                                               |                |                e[0:4]: 0xbc-0xc2 (6)
     |                                               |                |                  [0]{}: in 0xbc-0xbe (2)
0x0b0|                                    20         |                |                    opcode: "local.get" (0x20) 0xbc-0xbd (1)
0x0b0|                                       00      |             .  |                    x: 0 (valid) 0xbd-0xbe (1)
     |                                               |                |                  [1]{}: in 0xbe-0xc0 (2)
0x0b0|                                          41   |              A |                    opcode: "i32.const" (0x41) 0xbe-0xbf (1)
0x0b0|                                             01|               .|                    n: 1 (valid) 0xbf-0xc0 (1)
     |                                               |                |                  [2]{}: in 0xc0-0xc1 (1)
0x0c0|6a                                             |j               |                    opcode: "i32.add" (0x6a) 0xc0-0xc1 (1)
     |                                               |                |                  [3]{}: in 0xc1-0xc2 (1)
0x0c0|   0b                                          | .              |                    opcode: "end" (0xb) 0xc1-0xc2 (1)
     |                                               |                |            [1]{}: code 0xc2-0xcb (9)
0x0c0|      08                                       |  .             |              size: 8 (valid) 0xc2-0xc3 (1)
     |                                               |                |              code{}: 0xc3-0xcb (8)
     |                                               |                |                t{}: 0xc3-0xc4 (1)
0x0c0|         00                                    |   .            |                  n: 0 (valid) 0xc3-0xc4 (1)
     |                                               |                |                  x[0:0]: 0xc4-0xc4 (0)
     |                                               |                |                e[0:5]: 0xc4-0xcb (7)
     |                                               |                |                  [0]{}: in 0xc4-0xc6 (2)
0x0c0|            d2                                 |    .           |                    opcode: "ref.func" (0xd2) 0xc4-0xc5 (1)
0x0c0|               05                              |     .          |                    x: 5 (valid) 0xc5-0xc6 (1)
     |                                               |                |                  [1]{}: in 0xc6-0xc7 (1)
0x0c0|                  1a                           |      .         |                    opcode: "drop" (0x1a) 0xc6-0xc7 (1)
     |                                               |                |                  [2]{}: in 0xc7-0xc9 (2)
0x0c0|                     d2                        |       .        |                    opcode: "ref.func" (0xd2) 0xc7-0xc8 (1)
0x0c0|                        06                     |        .       |                    x: 6 (valid) 0xc8-0xc9 (1)
     |                                               |                |                  [3]{}: in 0xc9-0xca (1)
0x0c0|                           1a                  |         .      |                    opcode: "drop" (0x1a) 0xc9-0xca (1)
     |                                               |                |                  [4]{}: in 0xca-0xcb (1)
0x0c0|                              0b               |          .     |                    opcode: "end" (0xb) 0xca-0xcb (1)
     |                                               |                |            [2]{}: code 0xcb-0xce (3)
0x0c0|                                 02            |           .    |              size: 2 (valid) 0xcb-0xcc (1)
     |                                               |                |              code{}: 0xcc-0xce (2)
     |                                               |                |                t{}: 0xcc-0xcd (1)
0x0c0|                                    00         |            .   |                  n: 0 (valid) 0xcc-0xcd (1)
     |                                               |                |                  x[0:0]: 0xcd-0xcd (0)
     |                                               |                |                e[0:1]: 0xcd-0xce (1)
     |                                               |                |                  [0]{}: in 0xcd-0xce (1)
0x0c0|                                       0b      |             .  |                    opcode: "end" (0xb) 0xcd-0xce (1)
     |                                               |                |            [3]{}: code 0xce-0xd1 (3)
0x0c0|                                          02   |              . |              size: 2 (valid) 0xce-0xcf (1)
     |                                               |                |              code{}: 0xcf-0xd1 (2)
     |                                               |                |                t{}: 0xcf-0xd0 (1)
0x0c0|                                             00|               .|                  n: 0 (valid) 0xcf-0xd0 (1)
     |                                               |                |                  x[0:0]: 0xd0-0xd0 (0)
     |                                               |                |                e[0:1]: 0xd0-0xd1 (1)
     |                                               |                |                  [0]{}: in 0xd0-0xd1 (1)
0x0d0|0b                                             |.               |                    opcode: "end" (0xb) 0xd0-0xd1 (1)
     |                                               |                |            [4]{}: code 0xd1-0xd4 (3)
0x0d0|   02                                          | .              |              size: 2 (valid) 0xd1-0xd2 (1)
     |                                               |                |              code{}: 0xd2-0xd4 (2)
     |                                               |                |                t{}: 0xd2-0xd3 (1)
0x0d0|      00                                       |  .             |                  n: 0 (valid) 0xd2-0xd3 (1)
     |                                               |                |                  x[0:0]: 0xd3-0xd3 (0)
     |                                               |                |                e[0:1]: 0xd3-0xd4 (1)
     |                                               |                |                  [0]{}: in 0xd3-0xd4 (1)
0x0d0|         0b                                    |   .            |                    opcode: "end" (0xb) 0xd3-0xd4 (1)
     |                                               |                |            [5]{}: code 0xd4-0xd7 (3)
0x0d0|            02                                 |    .           |              size: 2 (valid) 0xd4-0xd5 (1)
     |                                               |                |              code{}: 0xd5-0xd7 (2)
     |                                               |                |                t{}: 0xd5-0xd6 (1)
0x0d0|               00                              |     .          |                  n: 0 (valid) 0xd5-0xd6 (1)
     |                                               |                |                  x[0:0]: 0xd6-0xd6 (0)
     |                                               |                |                e[0:1]: 0xd6-0xd7 (1)
     |                                               |                |                  [0]{}: in 0xd6-0xd7 (1)
0x0d0|                  0b                           |      .         |                    opcode: "end" (0xb) 0xd6-0xd7 (1)
     |                                               |                |            [6]{}: code 0xd7-0xdd (6)
0x0d0|                     05                        |       .        |              size: 5 (valid) 0xd7-0xd8 (1)
     |                                               |                |              code{}: 0xd8-0xdd (5)
     |                                               |                |                t{}: 0xd8-0xd9 (1)
0x0d0|                        00                     |        .       |                  n: 0 (valid) 0xd8-0xd9 (1)
     |                                               |                |                  x[0:0]: 0xd9-0xd9 (0)
     |                                               |                |                e[0:3]: 0xd9-0xdd (4)
     |                                               |                |                  [0]{}: in 0xd9-0xdb (2)
0x0d0|                           d2                  |         .      |                    opcode: "ref.func" (0xd2) 0xd9-0xda (1)
0x0d0|                              00               |          .     |                    x: 0 (valid) 0xda-0xdb (1)
     |                                               |                |                  [1]{}: in 0xdb-0xdc (1)
0x0d0|                                 d1            |           .    |                    opcode: "ref.is_null" (0xd1) 0xdb-0xdc (1)
     |                                               |                |                  [2]{}: in 0xdc-0xdd (1)
0x0d0|                                    0b         |            .   |                    opcode: "end" (0xb) 0xdc-0xdd (1)
     |                                               |                |            [7]{}: code 0xdd-0xe3 (6)
0x0d0|                                       05      |             .  |              size: 5 (valid) 0xdd-0xde (1)
     |                                               |                |              code{}: 0xde-0xe3 (5)
     |                                               |                |                t{}: 0xde-0xdf (1)
0x0d0|                                          00   |              . |                  n: 0 (valid) 0xde-0xdf (1)
     |                                               |                |                  x[0:0]: 0xdf-0xdf (0)
     |                                               |                |                e[0:3]: 0xdf-0xe3 (4)
     |                                               |                |                  [0]{}: in 0xdf-0xe1 (2)
0x0d0|                                             d2|               .|                    opcode: "ref.func" (0xd2) 0xdf-0xe0 (1)
0x0e0|01                                             |.               |                    x: 1 (valid) 0xe0-0xe1 (1)
     |                                               |                |                  [1]{}: in 0xe1-0xe2 (1)
0x0e0|   d1                                          | .              |                    opcode: "ref.is_null" (0xd1) 0xe1-0xe2 (1)
     |                                               |                |                  [2]{}: in 0xe2-0xe3 (1)
0x0e0|      0b                                       |  .             |                    opcode: "end" (0xb) 0xe2-0xe3 (1)
     |                                               |                |            [8]{}: code 0xe3-0xe9 (6)
0x0e0|         05                                    |   .            |              size: 5 (valid) 0xe3-0xe4 (1)
     |                                               |                |              code{}: 0xe4-0xe9 (5)
     |                                               |                |                t{}: 0xe4-0xe5 (1)
0x0e0|            00                                 |    .           |                  n: 0 (valid) 0xe4-0xe5 (1)
     |                                               |                |                  x[0:0]: 0xe5-0xe5 (0)
     |                                               |                |                e[0:3]: 0xe5-0xe9 (4)
     |                                               |                |                  [0]{}: in 0xe5-0xe7 (2)
0x0e0|               23                              |     #          |                    opcode: "global.get" (0x23) 0xe5-0xe6 (1)
0x0e0|                  02                           |      .         |                    x: 2 (valid) 0xe6-0xe7 (1)
     |                                               |                |                  [1]{}: in 0xe7-0xe8 (1)
0x0e0|                     d1                        |       .        |                    opcode: "ref.is_null" (0xd1) 0xe7-0xe8 (1)
     |                                               |                |                  [2]{}: in 0xe8-0xe9 (1)
0x0e0|                        0b                     |        .       |                    opcode: "end" (0xb) 0xe8-0xe9 (1)
     |                                               |                |            [9]{}: code 0xe9-0xf0 (7)
0x0e0|                           06                  |         .      |              size: 6 (valid) 0xe9-0xea (1)
     |                                               |                |              code{}: 0xea-0xf0 (6)
     |                                               |                |                t{}: 0xea-0xeb (1)
0x0e0|                              00               |          .     |                  n: 0 (valid) 0xea-0xeb (1)
     |                                               |                |                  x[0:0]: 0xeb-0xeb (0)
     |                                               |                |                e[0:3]: 0xeb-0xf0 (5)
     |                                               |                |                  [0]{}: in 0xeb-0xed (2)
0x0e0|                                 d2            |           .    |                    opcode: "ref.func" (0xd2) 0xeb-0xec (1)
0x0e0|                                    00         |            .   |                    x: 0 (valid) 0xec-0xed (1)
     |                                               |                |                  [1]{}: in 0xed-0xef (2)
0x0e0|                                       24      |             $  |                    opcode: "global.set" (0x24) 0xed-0xee (1)
0x0e0|                                          02   |              . |                    x: 2 (valid) 0xee-0xef (1)
     |                                               |                |                  [2]{}: in 0xef-0xf0 (1)
0x0e0|                                             0b|               .|                    opcode: "end" (0xb) 0xef-0xf0 (1)
     |                                               |                |            [10]{}: code 0xf0-0xf7 (7)
0x0f0|06                                             |.               |              size: 6 (valid) 0xf0-0xf1 (1)
     |                                               |                |              code{}: 0xf1-0xf7 (6)
     |                                               |                |                t{}: 0xf1-0xf2 (1)
0x0f0|   00                                          | .              |                  n: 0 (valid) 0xf1-0xf2 (1)
     |                                               |                |                  x[0:0]: 0xf2-0xf2 (0)
     |                                               |                |                e[0:3]: 0xf2-0xf7 (5)
     |                                               |                |                  [0]{}: in 0xf2-0xf4 (2)
0x0f0|      d2                                       |  .             |                    opcode: "ref.func" (0xd2) 0xf2-0xf3 (1)
0x0f0|         01                                    |   .            |                    x: 1 (valid) 0xf3-0xf4 (1)
     |                                               |                |                  [1]{}: in 0xf4-0xf6 (2)
0x0f0|            24                                 |    $           |                    opcode: "global.set" (0x24) 0xf4-0xf5 (1)
0x0f0|               02                              |     .          |                    x: 2 (valid) 0xf5-0xf6 (1)
     |                                               |                |                  [2]{}: in 0xf6-0xf7 (1)
0x0f0|                  0b                           |      .         |                    opcode: "end" (0xb) 0xf6-0xf7 (1)
     |                                               |                |            [11]{}: code 0xf7-0x107 (16)
0x0f0|                     0f                        |       .        |              size: 15 (valid) 0xf7-0xf8 (1)
     |                                               |                |              code{}: 0xf8-0x107 (15)
     |                                               |                |                t{}: 0xf8-0xf9 (1)
0x0f0|                        00                     |        .       |                  n: 0 (valid) 0xf8-0xf9 (1)
     |                                               |                |                  x[0:0]: 0xf9-0xf9 (0)
     |                                               |                |                e[0:7]: 0xf9-0x107 (14)
     |                                               |                |                  [0]{}: in 0xf9-0xfb (2)
0x0f0|                           41                  |         A      |                    opcode: "i32.const" (0x41) 0xf9-0xfa (1)
0x0f0|                              00               |          .     |                    n: 0 (valid) 0xfa-0xfb (1)
     |                                               |                |                  [1]{}: in 0xfb-0xfd (2)
0x0f0|                                 d2            |           .    |                    opcode: "ref.func" (0xd2) 0xfb-0xfc (1)
0x0f0|                                    00         |            .   |                    x: 0 (valid) 0xfc-0xfd (1)
     |                                               |                |                  [2]{}: in 0xfd-0xff (2)
0x0f0|                                       26      |             &  |                    opcode: "table.set" (0x26) 0xfd-0xfe (1)
0x0f0|                                          00   |              . |                    x: 0 (valid) 0xfe-0xff (1)
     |                                               |                |                  [3]{}: in 0xff-0x101 (2)
0x0f0|                                             20|                |                    opcode: "local.get" (0x20) 0xff-0x100 (1)
0x100|00                                             |.               |                    x: 0 (valid) 0x100-0x101 (1)
     |                                               |                |                  [4]{}: in 0x101-0x103 (2)
0x100|   41                                          | A              |                    opcode: "i32.const" (0x41) 0x101-0x102 (1)
0x100|      00                                       |  .             |                    n: 0 (valid) 0x102-0x103 (1)
     |                                               |                |                  [5]{}: in 0x103-0x106 (3)
0x100|         11                                    |   .            |                    opcode: "call_indirect" (0x11) 0x103-0x104 (1)
0x100|            00                                 |    .           |                    y: 0 (valid) 0x104-0x105 (1)
0x100|               00                              |     .          |                    x: 0 (valid) 0x105-0x106 (1)
     |                                               |                |                  [6]{}: in 0x106-0x107 (1)
0x100|                  0b                           |      .         |                    opcode: "end" (0xb) 0x106-0x107 (1)
     |                                               |                |            [12]{}: code 0x107-0x117 (16)
0x100|                     0f                        |       .        |              size: 15 (valid) 0x107-0x108 (1)
     |                                               |                |              code{}: 0x108-0x117 (15)
     |                                               |                |                t{}: 0x108-0x109 (1)
0x100|                        00                     |        .       |                  n: 0 (valid) 0x108-0x109 (1)
     |                                               |                |                  x[0:0]: 0x109-0x109 (0)
     |                                               |                |                e[0:7]: 0x109-0x117 (14)
     |                                               |                |                  [0]{}: in 0x109-0x10b (2)
0x100|                           41                  |         A      |                    opcode: "i32.const" (0x41) 0x109-0x10a (1)
0x100|                              00               |          .     |                    n: 0 (valid) 0x10a-0x10b (1)
     |                                               |                |                  [1]{}: in 0x10b-0x10d (2)
0x100|                                 d2            |           .    |                    opcode: "ref.func" (0xd2) 0x10b-0x10c (1)
0x100|                                    01         |            .   |                    x: 1 (valid) 0x10c-0x10d (1)
     |                                               |                |                  [2]{}: in 0x10d-0x10f (2)
0x100|                                       26      |             &  |                    opcode: "table.set" (0x26) 0x10d-0x10e (1)
0x100|                                          00   |              . |                    x: 0 (valid) 0x10e-0x10f (1)
     |                                               |                |                  [3]{}: in 0x10f-0x111 (2)
0x100|                                             20|                |                    opcode: "local.get" (0x20) 0x10f-0x110 (1)
0x110|00                                             |.               |                    x: 0 (valid) 0x110-0x111 (1)
     |                                               |                |                  [4]{}: in 0x111-0x113 (2)
0x110|   41                                          | A              |                    opcode: "i32.const" (0x41) 0x111-0x112 (1)
0x110|      00                                       |  .             |                    n: 0 (valid) 0x112-0x113 (1)
     |                                               |                |                  [5]{}: in 0x113-0x116 (3)
0x110|         11                                    |   .            |                    opcode: "call_indirect" (0x11) 0x113-0x114 (1)
0x110|            00                                 |    .           |                    y: 0 (valid) 0x114-0x115 (1)
0x110|               00                              |     .          |                    x: 0 (valid) 0x115-0x116 (1)
     |                                               |                |                  [6]{}: in 0x116-0x117 (1)
0x110|                  0b                           |      .         |                    opcode: "end" (0xb) 0x116-0x117 (1)
     |                                               |                |            [13]{}: code 0x117-0x127 (16)
0x110|                     0f                        |       .        |              size: 15 (valid) 0x117-0x118 (1)
     |                                               |                |              code{}: 0x118-0x127 (15)
     |                                               |                |                t{}: 0x118-0x119 (1)
0x110|                        00                     |        .       |                  n: 0 (valid) 0x118-0x119 (1)
     |                                               |                |                  x[0:0]: 0x119-0x119 (0)
     |                                               |                |                e[0:7]: 0x119-0x127 (14)
     |                                               |                |                  [0]{}: in 0x119-0x11b (2)
0x110|                           41                  |         A      |                    opcode: "i32.const" (0x41) 0x119-0x11a (1)
0x110|                              00               |          .     |                    n: 0 (valid) 0x11a-0x11b (1)
     |                                               |                |                  [1]{}: in 0x11b-0x11d (2)
0x110|                                 23            |           #    |                    opcode: "global.get" (0x23) 0x11b-0x11c (1)
0x110|                                    02         |            .   |                    x: 2 (valid) 0x11c-0x11d (1)
     |                                               |                |                  [2]{}: in 0x11d-0x11f (2)
0x110|                                       26      |             &  |                    opcode: "table.set" (0x26) 0x11d-0x11e (1)
0x110|                                          00   |              . |                    x: 0 (valid) 0x11e-0x11f (1)
     |                                               |                |                  [3]{}: in 0x11f-0x121 (2)
0x110|                                             20|                |                    opcode: "local.get" (0x20) 0x11f-0x120 (1)
0x120|00                                             |.               |                    x: 0 (valid) 0x120-0x121 (1)
     |                                               |                |                  [4]{}: in 0x121-0x123 (2)
0x120|   41                                          | A              |                    opcode: "i32.const" (0x41) 0x121-0x122 (1)
0x120|      00                                       |  .             |                    n: 0 (valid) 0x122-0x123 (1)
     |                                               |                |                  [5]{}: in 0x123-0x126 (3)
0x120|         11                                    |   .            |                    opcode: "call_indirect" (0x11) 0x123-0x124 (1)
0x120|            00                                 |    .           |                    y: 0 (valid) 0x124-0x125 (1)
0x120|               00                              |     .          |                    x: 0 (valid) 0x125-0x126 (1)
     |                                               |                |                  [6]{}: in 0x126-0x127 (1)
0x120|                  0b|                          |      .|        |                    opcode: "end" (0xb) 0x126-0x127 (1)
