$ fq -d wasm dv return-0.wasm
     |00 01 02 03 04 05 06 07 08 09 0a 0b 0c 0d 0e 0f|0123456789abcdef|.{}: return-0.wasm (wasm) 0x0-0x72e.7 (1839)
0x000|00 61 73 6d                                    |.asm            |  magic: raw bits (valid) 0x0-0x3.7 (4)
0x000|            01 00 00 00                        |    ....        |  version: 1 0x4-0x7.7 (4)
     |                                               |                |  sections[0:8]: 0x8-0x72e.7 (1831)
     |                                               |                |    [0]{}: section 0x8-0x2a.7 (35)
0x000|                        01                     |        .       |      id: "type section" (1) 0x8-0x8.7 (1)
0x000|                           21                  |         !      |      size: 33 0x9-0x9.7 (1)
     |                                               |                |      content{}: 0xa-0x2a.7 (33)
     |                                               |                |        ft{}: 0xa-0x2a.7 (33)
0x000|                              07               |          .     |          n: 7 0xa-0xa.7 (1)
     |                                               |                |          x[0:7]: 0xb-0x2a.7 (32)
     |                                               |                |            [0]{}: ft 0xb-0x11.7 (7)
0x000|                                 60            |           `    |              tag: 0x60 (valid) 0xb-0xb.7 (1)
     |                                               |                |              rt1{}: 0xc-0xf.7 (4)
0x000|                                    03         |            .   |                n: 3 0xc-0xc.7 (1)
     |                                               |                |                x[0:3]: 0xd-0xf.7 (3)
0x000|                                       7f      |             .  |                  [0]: "i32" (0x7f) t 0xd-0xd.7 (1)
0x000|                                          7f   |              . |                  [1]: "i32" (0x7f) t 0xe-0xe.7 (1)
0x000|                                             7f|               .|                  [2]: "i32" (0x7f) t 0xf-0xf.7 (1)
     |                                               |                |              rt2{}: 0x10-0x11.7 (2)
0x010|01                                             |.               |                n: 1 0x10-0x10.7 (1)
     |                                               |                |                x[0:1]: 0x11-0x11.7 (1)
0x010|   7f                                          | .              |                  [0]: "i32" (0x7f) t 0x11-0x11.7 (1)
     |                                               |                |            [1]{}: ft 0x12-0x14.7 (3)
0x010|      60                                       |  `             |              tag: 0x60 (valid) 0x12-0x12.7 (1)
     |                                               |                |              rt1{}: 0x13-0x13.7 (1)
0x010|         00                                    |   .            |                n: 0 0x13-0x13.7 (1)
     |                                               |                |                x[0:0]: 0x14-NA (0)
     |                                               |                |              rt2{}: 0x14-0x14.7 (1)
0x010|            00                                 |    .           |                n: 0 0x14-0x14.7 (1)
     |                                               |                |                x[0:0]: 0x15-NA (0)
     |                                               |                |            [2]{}: ft 0x15-0x18.7 (4)
0x010|               60                              |     `          |              tag: 0x60 (valid) 0x15-0x15.7 (1)
     |                                               |                |              rt1{}: 0x16-0x16.7 (1)
0x010|                  00                           |      .         |                n: 0 0x16-0x16.7 (1)
     |                                               |                |                x[0:0]: 0x17-NA (0)
     |                                               |                |              rt2{}: 0x17-0x18.7 (2)
0x010|                     01                        |       .        |                n: 1 0x17-0x17.7 (1)
     |                                               |                |                x[0:1]: 0x18-0x18.7 (1)
0x010|                        7f                     |        .       |                  [0]: "i32" (0x7f) t 0x18-0x18.7 (1)
     |                                               |                |            [3]{}: ft 0x19-0x1c.7 (4)
0x010|                           60                  |         `      |              tag: 0x60 (valid) 0x19-0x19.7 (1)
     |                                               |                |              rt1{}: 0x1a-0x1a.7 (1)
0x010|                              00               |          .     |                n: 0 0x1a-0x1a.7 (1)
     |                                               |                |                x[0:0]: 0x1b-NA (0)
     |                                               |                |              rt2{}: 0x1b-0x1c.7 (2)
0x010|                                 01            |           .    |                n: 1 0x1b-0x1b.7 (1)
     |                                               |                |                x[0:1]: 0x1c-0x1c.7 (1)
0x010|                                    7e         |            ~   |                  [0]: "i64" (0x7e) t 0x1c-0x1c.7 (1)
     |                                               |                |            [4]{}: ft 0x1d-0x20.7 (4)
0x010|                                       60      |             `  |              tag: 0x60 (valid) 0x1d-0x1d.7 (1)
     |                                               |                |              rt1{}: 0x1e-0x1e.7 (1)
0x010|                                          00   |              . |                n: 0 0x1e-0x1e.7 (1)
     |                                               |                |                x[0:0]: 0x1f-NA (0)
     |                                               |                |              rt2{}: 0x1f-0x20.7 (2)
0x010|                                             01|               .|                n: 1 0x1f-0x1f.7 (1)
     |                                               |                |                x[0:1]: 0x20-0x20.7 (1)
0x020|7d                                             |}               |                  [0]: "f32" (0x7d) t 0x20-0x20.7 (1)
     |                                               |                |            [5]{}: ft 0x21-0x24.7 (4)
0x020|   60                                          | `              |              tag: 0x60 (valid) 0x21-0x21.7 (1)
     |                                               |                |              rt1{}: 0x22-0x22.7 (1)
0x020|      00                                       |  .             |                n: 0 0x22-0x22.7 (1)
     |                                               |                |                x[0:0]: 0x23-NA (0)
     |                                               |                |              rt2{}: 0x23-0x24.7 (2)
0x020|         01                                    |   .            |                n: 1 0x23-0x23.7 (1)
     |                                               |                |                x[0:1]: 0x24-0x24.7 (1)
0x020|            7c                                 |    |           |                  [0]: "f64" (0x7c) t 0x24-0x24.7 (1)
     |                                               |                |            [6]{}: ft 0x25-0x2a.7 (6)
0x020|               60                              |     `          |              tag: 0x60 (valid) 0x25-0x25.7 (1)
     |                                               |                |              rt1{}: 0x26-0x28.7 (3)
0x020|                  02                           |      .         |                n: 2 0x26-0x26.7 (1)
     |                                               |                |                x[0:2]: 0x27-0x28.7 (2)
0x020|                     7f                        |       .        |                  [0]: "i32" (0x7f) t 0x27-0x27.7 (1)
0x020|                        7f                     |        .       |                  [1]: "i32" (0x7f) t 0x28-0x28.7 (1)
     |                                               |                |              rt2{}: 0x29-0x2a.7 (2)
0x020|                           01                  |         .      |                n: 1 0x29-0x29.7 (1)
     |                                               |                |                x[0:1]: 0x2a-0x2a.7 (1)
0x020|                              7f               |          .     |                  [0]: "i32" (0x7f) t 0x2a-0x2a.7 (1)
     |                                               |                |    [1]{}: section 0x2b-0x6a.7 (64)
0x020|                                 03            |           .    |      id: "function section" (3) 0x2b-0x2b.7 (1)
0x020|                                    3e         |            >   |      size: 62 0x2c-0x2c.7 (1)
     |                                               |                |      content{}: 0x2d-0x6a.7 (62)
     |                                               |                |        x{}: 0x2d-0x6a.7 (62)
0x020|                                       3d      |             =  |          n: 61 0x2d-0x2d.7 (1)
     |                                               |                |          x[0:61]: 0x2e-0x6a.7 (61)
0x020|                                          01   |              . |            [0]: 1 x 0x2e-0x2e.7 (1)
0x020|                                             01|               .|            [1]: 1 x 0x2f-0x2f.7 (1)
0x030|01                                             |.               |            [2]: 1 x 0x30-0x30.7 (1)
0x030|   01                                          | .              |            [3]: 1 x 0x31-0x31.7 (1)
0x030|      01                                       |  .             |            [4]: 1 x 0x32-0x32.7 (1)
0x030|         02                                    |   .            |            [5]: 2 x 0x33-0x33.7 (1)
0x030|            03                                 |    .           |            [6]: 3 x 0x34-0x34.7 (1)
0x030|               04                              |     .          |            [7]: 4 x 0x35-0x35.7 (1)
0x030|                  05                           |      .         |            [8]: 5 x 0x36-0x36.7 (1)
0x030|                     01                        |       .        |            [9]: 1 x 0x37-0x37.7 (1)
0x030|                        05                     |        .       |            [10]: 5 x 0x38-0x38.7 (1)
0x030|                           02                  |         .      |            [11]: 2 x 0x39-0x39.7 (1)
0x030|                              02               |          .     |            [12]: 2 x 0x3a-0x3a.7 (1)
0x030|                                 01            |           .    |            [13]: 1 x 0x3b-0x3b.7 (1)
0x030|                                    02         |            .   |            [14]: 2 x 0x3c-0x3c.7 (1)
0x030|                                       01      |             .  |            [15]: 1 x 0x3d-0x3d.7 (1)
0x030|                                          01   |              . |            [16]: 1 x 0x3e-0x3e.7 (1)
0x030|                                             01|               .|            [17]: 1 x 0x3f-0x3f.7 (1)
0x040|02                                             |.               |            [18]: 2 x 0x40-0x40.7 (1)
0x040|   02                                          | .              |            [19]: 2 x 0x41-0x41.7 (1)
0x040|      02                                       |  .             |            [20]: 2 x 0x42-0x42.7 (1)
0x040|         02                                    |   .            |            [21]: 2 x 0x43-0x43.7 (1)
0x040|            02                                 |    .           |            [22]: 2 x 0x44-0x44.7 (1)
0x040|               01                              |     .          |            [23]: 1 x 0x45-0x45.7 (1)
0x040|                  02                           |      .         |            [24]: 2 x 0x46-0x46.7 (1)
0x040|                     02                        |       .        |            [25]: 2 x 0x47-0x47.7 (1)
0x040|                        03                     |        .       |            [26]: 3 x 0x48-0x48.7 (1)
0x040|                           02                  |         .      |            [27]: 2 x 0x49-0x49.7 (1)
0x040|                              02               |          .     |            [28]: 2 x 0x4a-0x4a.7 (1)
0x040|                                 03            |           .    |            [29]: 3 x 0x4b-0x4b.7 (1)
0x040|                                    02         |            .   |            [30]: 2 x 0x4c-0x4c.7 (1)
0x040|                                       06      |             .  |            [31]: 6 x 0x4d-0x4d.7 (1)
0x040|                                          06   |              . |            [32]: 6 x 0x4e-0x4e.7 (1)
0x040|                                             06|               .|            [33]: 6 x 0x4f-0x4f.7 (1)
0x050|06                                             |.               |            [34]: 6 x 0x50-0x50.7 (1)
0x050|   02                                          | .              |            [35]: 2 x 0x51-0x51.7 (1)
0x050|      00                                       |  .             |            [36]: 0 x 0x52-0x52.7 (1)
0x050|         02                                    |   .            |            [37]: 2 x 0x53-0x53.7 (1)
0x050|            02                                 |    .           |            [38]: 2 x 0x54-0x54.7 (1)
0x050|               02                              |     .          |            [39]: 2 x 0x55-0x55.7 (1)
0x050|                  02                           |      .         |            [40]: 2 x 0x56-0x56.7 (1)
0x050|                     02                        |       .        |            [41]: 2 x 0x57-0x57.7 (1)
0x050|                        02                     |        .       |            [42]: 2 x 0x58-0x58.7 (1)
0x050|                           02                  |         .      |            [43]: 2 x 0x59-0x59.7 (1)
0x050|                              02               |          .     |            [44]: 2 x 0x5a-0x5a.7 (1)
0x050|                                 02            |           .    |            [45]: 2 x 0x5b-0x5b.7 (1)
0x050|                                    02         |            .   |            [46]: 2 x 0x5c-0x5c.7 (1)
0x050|                                       04      |             .  |            [47]: 4 x 0x5d-0x5d.7 (1)
0x050|                                          03   |              . |            [48]: 3 x 0x5e-0x5e.7 (1)
0x050|                                             02|               .|            [49]: 2 x 0x5f-0x5f.7 (1)
0x060|02                                             |.               |            [50]: 2 x 0x60-0x60.7 (1)
0x060|   02                                          | .              |            [51]: 2 x 0x61-0x61.7 (1)
0x060|      02                                       |  .             |            [52]: 2 x 0x62-0x62.7 (1)
0x060|         04                                    |   .            |            [53]: 4 x 0x63-0x63.7 (1)
0x060|            02                                 |    .           |            [54]: 2 x 0x64-0x64.7 (1)
0x060|               03                              |     .          |            [55]: 3 x 0x65-0x65.7 (1)
0x060|                  02                           |      .         |            [56]: 2 x 0x66-0x66.7 (1)
0x060|                     02                        |       .        |            [57]: 2 x 0x67-0x67.7 (1)
0x060|                        02                     |        .       |            [58]: 2 x 0x68-0x68.7 (1)
0x060|                           02                  |         .      |            [59]: 2 x 0x69-0x69.7 (1)
0x060|                              02               |          .     |            [60]: 2 x 0x6a-0x6a.7 (1)
     |                                               |                |    [2]{}: section 0x6b-0x71.7 (7)
0x060|                                 04            |           .    |      id: "table section" (4) 0x6b-0x6b.7 (1)
0x060|                                    05         |            .   |      size: 5 0x6c-0x6c.7 (1)
     |                                               |                |      content{}: 0x6d-0x71.7 (5)
     |                                               |                |        tab{}: 0x6d-0x71.7 (5)
0x060|                                       01      |             .  |          n: 1 0x6d-0x6d.7 (1)
     |                                               |                |          x[0:1]: 0x6e-0x71.7 (4)
     |                                               |                |            [0]{}: tab 0x6e-0x71.7 (4)
0x060|                                          70   |              p |              et: "funcref" (112) 0x6e-0x6e.7 (1)
     |                                               |                |              lim{}: 0x6f-0x71.7 (3)
0x060|                                             01|               .|                tag: 0x1 0x6f-0x6f.7 (1)
0x070|01                                             |.               |                n: 1 0x70-0x70.7 (1)
0x070|   01                                          | .              |                m: 1 0x71-0x71.7 (1)
     |                                               |                |    [3]{}: section 0x72-0x76.7 (5)
0x070|      05                                       |  .             |      id: "memory section" (5) 0x72-0x72.7 (1)
0x070|         03                                    |   .            |      size: 3 0x73-0x73.7 (1)
     |                                               |                |      content{}: 0x74-0x76.7 (3)
     |                                               |                |        mem{}: 0x74-0x76.7 (3)
0x070|            01                                 |    .           |          n: 1 0x74-0x74.7 (1)
     |                                               |                |          x[0:1]: 0x75-0x76.7 (2)
     |                                               |                |            [0]{}: mem 0x75-0x76.7 (2)
     |                                               |                |              lim{}: 0x75-0x76.7 (2)
0x070|               00                              |     .          |                tag: 0x0 0x75-0x75.7 (1)
0x070|                  01                           |      .         |                n: 1 0x76-0x76.7 (1)
     |                                               |                |    [4]{}: section 0x77-0x7e.7 (8)
0x070|                     06                        |       .        |      id: "global section" (6) 0x77-0x77.7 (1)
0x070|                        06                     |        .       |      size: 6 0x78-0x78.7 (1)
     |                                               |                |      content{}: 0x79-0x7e.7 (6)
     |                                               |                |        glob{}: 0x79-0x7e.7 (6)
0x070|                           01                  |         .      |          n: 1 0x79-0x79.7 (1)
     |                                               |                |          x[0:1]: 0x7a-0x7e.7 (5)
     |                                               |                |            [0]{}: glob 0x7a-0x7e.7 (5)
     |                                               |                |              gt{}: 0x7a-0x7b.7 (2)
0x070|                              7f               |          .     |                t: "i32" (0x7f) 0x7a-0x7a.7 (1)
0x070|                                 01            |           .    |                m: "var" (1) 0x7b-0x7b.7 (1)
     |                                               |                |              e[0:2]: 0x7c-0x7e.7 (3)
     |                                               |                |                [0]{}: in 0x7c-0x7d.7 (2)
0x070|                                    41         |            A   |                  i32.const: 0x41 (valid) 0x7c-0x7c.7 (1)
0x070|                                       00      |             .  |                  n: 0 0x7d-0x7d.7 (1)
     |                                               |                |                [1]{}: in 0x7e-0x7e.7 (1)
0x070|                                          0b   |              . |                  end: 0xb (valid) 0x7e-0x7e.7 (1)
     |                                               |                |    [5]{}: section 0x7f-0x479.7 (1019)
0x070|                                             07|               .|      id: "export section" (7) 0x7f-0x7f.7 (1)
0x080|f8 07                                          |..              |      size: 1016 0x80-0x81.7 (2)
     |                                               |                |      content{}: 0x82-0x479.7 (1016)
     |                                               |                |        ex{}: 0x82-0x479.7 (1016)
0x080|      3b                                       |  ;             |          n: 59 0x82-0x82.7 (1)
     |                                               |                |          x[0:59]: 0x83-0x479.7 (1015)
     |                                               |                |            [0]{}: ex 0x83-0x8d.7 (11)
     |                                               |                |              nm{}: 0x83-0x8b.7 (9)
0x080|         08                                    |   .            |                n: 8 0x83-0x83.7 (1)
0x080|            74 79 70 65 2d 69 33 32            |    type-i32    |                b: "type-i32" 0x84-0x8b.7 (8)
     |                                               |                |              d{}: 0x8c-0x8d.7 (2)
0x080|                                    00         |            .   |                tag: "funcidx" (0x0) 0x8c-0x8c.7 (1)
0x080|                                       01      |             .  |                x: 1 0x8d-0x8d.7 (1)
     |                                               |                |            [1]{}: ex 0x8e-0x98.7 (11)
     |                                               |                |              nm{}: 0x8e-0x96.7 (9)
0x080|                                          08   |              . |                n: 8 0x8e-0x8e.7 (1)
0x080|                                             74|               t|                b: "type-i64" 0x8f-0x96.7 (8)
0x090|79 70 65 2d 69 36 34                           |ype-i64         |
     |                                               |                |              d{}: 0x97-0x98.7 (2)
0x090|                     00                        |       .        |                tag: "funcidx" (0x0) 0x97-0x97.7 (1)
0x090|                        02                     |        .       |                x: 2 0x98-0x98.7 (1)
     |                                               |                |            [2]{}: ex 0x99-0xa3.7 (11)
     |                                               |                |              nm{}: 0x99-0xa1.7 (9)
0x090|                           08                  |         .      |                n: 8 0x99-0x99.7 (1)
0x090|                              74 79 70 65 2d 66|          type-f|                b: "type-f32" 0x9a-0xa1.7 (8)
0x0a0|33 32                                          |32              |
     |                                               |                |              d{}: 0xa2-0xa3.7 (2)
0x0a0|      00                                       |  .             |                tag: "funcidx" (0x0) 0xa2-0xa2.7 (1)
0x0a0|         03                                    |   .            |                x: 3 0xa3-0xa3.7 (1)
     |                                               |                |            [3]{}: ex 0xa4-0xae.7 (11)
     |                                               |                |              nm{}: 0xa4-0xac.7 (9)
0x0a0|            08                                 |    .           |                n: 8 0xa4-0xa4.7 (1)
0x0a0|               74 79 70 65 2d 66 36 34         |     type-f64   |                b: "type-f64" 0xa5-0xac.7 (8)
     |                                               |                |              d{}: 0xad-0xae.7 (2)
0x0a0|                                       00      |             .  |                tag: "funcidx" (0x0) 0xad-0xad.7 (1)
0x0a0|                                          04   |              . |                x: 4 0xae-0xae.7 (1)
     |                                               |                |            [4]{}: ex 0xaf-0xbf.7 (17)
     |                                               |                |              nm{}: 0xaf-0xbd.7 (15)
0x0a0|                                             0e|               .|                n: 14 0xaf-0xaf.7 (1)
0x0b0|74 79 70 65 2d 69 33 32 2d 76 61 6c 75 65      |type-i32-value  |                b: "type-i32-value" 0xb0-0xbd.7 (14)
     |                                               |                |              d{}: 0xbe-0xbf.7 (2)
0x0b0|                                          00   |              . |                tag: "funcidx" (0x0) 0xbe-0xbe.7 (1)
0x0b0|                                             05|               .|                x: 5 0xbf-0xbf.7 (1)
     |                                               |                |            [5]{}: ex 0xc0-0xd0.7 (17)
     |                                               |                |              nm{}: 0xc0-0xce.7 (15)
0x0c0|0e                                             |.               |                n: 14 0xc0-0xc0.7 (1)
0x0c0|   74 79 70 65 2d 69 36 34 2d 76 61 6c 75 65   | type-i64-value |                b: "type-i64-value" 0xc1-0xce.7 (14)
     |                                               |                |              d{}: 0xcf-0xd0.7 (2)
0x0c0|                                             00|               .|                tag: "funcidx" (0x0) 0xcf-0xcf.7 (1)
0x0d0|06                                             |.               |                x: 6 0xd0-0xd0.7 (1)
     |                                               |                |            [6]{}: ex 0xd1-0xe1.7 (17)
     |                                               |                |              nm{}: 0xd1-0xdf.7 (15)
0x0d0|   0e                                          | .              |                n: 14 0xd1-0xd1.7 (1)
0x0d0|      74 79 70 65 2d 66 33 32 2d 76 61 6c 75 65|  type-f32-value|                b: "type-f32-value" 0xd2-0xdf.7 (14)
     |                                               |                |              d{}: 0xe0-0xe1.7 (2)
0x0e0|00                                             |.               |                tag: "funcidx" (0x0) 0xe0-0xe0.7 (1)
0x0e0|   07                                          | .              |                x: 7 0xe1-0xe1.7 (1)
     |                                               |                |            [7]{}: ex 0xe2-0xf2.7 (17)
     |                                               |                |              nm{}: 0xe2-0xf0.7 (15)
0x0e0|      0e                                       |  .             |                n: 14 0xe2-0xe2.7 (1)
0x0e0|         74 79 70 65 2d 66 36 34 2d 76 61 6c 75|   type-f64-valu|                b: "type-f64-value" 0xe3-0xf0.7 (14)
0x0f0|65                                             |e               |
     |                                               |                |              d{}: 0xf1-0xf2.7 (2)
0x0f0|   00                                          | .              |                tag: "funcidx" (0x0) 0xf1-0xf1.7 (1)
0x0f0|      08                                       |  .             |                x: 8 0xf2-0xf2.7 (1)
     |                                               |                |            [8]{}: ex 0xf3-0xfc.7 (10)
     |                                               |                |              nm{}: 0xf3-0xfa.7 (8)
0x0f0|         07                                    |   .            |                n: 7 0xf3-0xf3.7 (1)
0x0f0|            6e 75 6c 6c 61 72 79               |    nullary     |                b: "nullary" 0xf4-0xfa.7 (7)
     |                                               |                |              d{}: 0xfb-0xfc.7 (2)
0x0f0|                                 00            |           .    |                tag: "funcidx" (0x0) 0xfb-0xfb.7 (1)
0x0f0|                                    09         |            .   |                x: 9 0xfc-0xfc.7 (1)
     |                                               |                |            [9]{}: ex 0xfd-0x104.7 (8)
     |                                               |                |              nm{}: 0xfd-0x102.7 (6)
0x0f0|                                       05      |             .  |                n: 5 0xfd-0xfd.7 (1)
0x0f0|                                          75 6e|              un|                b: "unary" 0xfe-0x102.7 (5)
0x100|61 72 79                                       |ary             |
     |                                               |                |              d{}: 0x103-0x104.7 (2)
0x100|         00                                    |   .            |                tag: "funcidx" (0x0) 0x103-0x103.7 (1)
0x100|            0a                                 |    .           |                x: 10 0x104-0x104.7 (1)
     |                                               |                |            [10]{}: ex 0x105-0x114.7 (16)
     |                                               |                |              nm{}: 0x105-0x112.7 (14)
0x100|               0d                              |     .          |                n: 13 0x105-0x105.7 (1)
0x100|                  61 73 2d 66 75 6e 63 2d 66 69|      as-func-fi|                b: "as-func-first" 0x106-0x112.7 (13)
0x110|72 73 74                                       |rst             |
     |                                               |                |              d{}: 0x113-0x114.7 (2)
0x110|         00                                    |   .            |                tag: "funcidx" (0x0) 0x113-0x113.7 (1)
0x110|            0b                                 |    .           |                x: 11 0x114-0x114.7 (1)
     |                                               |                |            [11]{}: ex 0x115-0x122.7 (14)
     |                                               |                |              nm{}: 0x115-0x120.7 (12)
0x110|               0b                              |     .          |                n: 11 0x115-0x115.7 (1)
0x110|                  61 73 2d 66 75 6e 63 2d 6d 69|      as-func-mi|                b: "as-func-mid" 0x116-0x120.7 (11)
0x120|64                                             |d               |
     |                                               |                |              d{}: 0x121-0x122.7 (2)
0x120|   00                                          | .              |                tag: "funcidx" (0x0) 0x121-0x121.7 (1)
0x120|      0c                                       |  .             |                x: 12 0x122-0x122.7 (1)
     |                                               |                |            [12]{}: ex 0x123-0x131.7 (15)
     |                                               |                |              nm{}: 0x123-0x12f.7 (13)
0x120|         0c                                    |   .            |                n: 12 0x123-0x123.7 (1)
0x120|            61 73 2d 66 75 6e 63 2d 6c 61 73 74|    as-func-last|                b: "as-func-last" 0x124-0x12f.7 (12)
     |                                               |                |              d{}: 0x130-0x131.7 (2)
0x130|00                                             |.               |                tag: "funcidx" (0x0) 0x130-0x130.7 (1)
0x130|   0d                                          | .              |                x: 13 0x131-0x131.7 (1)
     |                                               |                |            [13]{}: ex 0x132-0x141.7 (16)
     |                                               |                |              nm{}: 0x132-0x13f.7 (14)
0x130|      0d                                       |  .             |                n: 13 0x132-0x132.7 (1)
0x130|         61 73 2d 66 75 6e 63 2d 76 61 6c 75 65|   as-func-value|                b: "as-func-value" 0x133-0x13f.7 (13)
     |                                               |                |              d{}: 0x140-0x141.7 (2)
0x140|00                                             |.               |                tag: "funcidx" (0x0) 0x140-0x140.7 (1)
0x140|   0e                                          | .              |                x: 14 0x141-0x141.7 (1)
     |                                               |                |            [14]{}: ex 0x142-0x152.7 (17)
     |                                               |                |              nm{}: 0x142-0x150.7 (15)
0x140|      0e                                       |  .             |                n: 14 0x142-0x142.7 (1)
0x140|         61 73 2d 62 6c 6f 63 6b 2d 66 69 72 73|   as-block-firs|                b: "as-block-first" 0x143-0x150.7 (14)
0x150|74                                             |t               |
     |                                               |                |              d{}: 0x151-0x152.7 (2)
0x150|   00                                          | .              |                tag: "funcidx" (0x0) 0x151-0x151.7 (1)
0x150|      0f                                       |  .             |                x: 15 0x152-0x152.7 (1)
     |                                               |                |            [15]{}: ex 0x153-0x161.7 (15)
     |                                               |                |              nm{}: 0x153-0x15f.7 (13)
0x150|         0c                                    |   .            |                n: 12 0x153-0x153.7 (1)
0x150|            61 73 2d 62 6c 6f 63 6b 2d 6d 69 64|    as-block-mid|                b: "as-block-mid" 0x154-0x15f.7 (12)
     |                                               |                |              d{}: 0x160-0x161.7 (2)
0x160|00                                             |.               |                tag: "funcidx" (0x0) 0x160-0x160.7 (1)
0x160|   10                                          | .              |                x: 16 0x161-0x161.7 (1)
     |                                               |                |            [16]{}: ex 0x162-0x171.7 (16)
     |                                               |                |              nm{}: 0x162-0x16f.7 (14)
0x160|      0d                                       |  .             |                n: 13 0x162-0x162.7 (1)
0x160|         61 73 2d 62 6c 6f 63 6b 2d 6c 61 73 74|   as-block-last|                b: "as-block-last" 0x163-0x16f.7 (13)
     |                                               |                |              d{}: 0x170-0x171.7 (2)
0x170|00                                             |.               |                tag: "funcidx" (0x0) 0x170-0x170.7 (1)
0x170|   11                                          | .              |                x: 17 0x171-0x171.7 (1)
     |                                               |                |            [17]{}: ex 0x172-0x182.7 (17)
     |                                               |                |              nm{}: 0x172-0x180.7 (15)
0x170|      0e                                       |  .             |                n: 14 0x172-0x172.7 (1)
0x170|         61 73 2d 62 6c 6f 63 6b 2d 76 61 6c 75|   as-block-valu|                b: "as-block-value" 0x173-0x180.7 (14)
0x180|65                                             |e               |
     |                                               |                |              d{}: 0x181-0x182.7 (2)
0x180|   00                                          | .              |                tag: "funcidx" (0x0) 0x181-0x181.7 (1)
0x180|      12                                       |  .             |                x: 18 0x182-0x182.7 (1)
     |                                               |                |            [18]{}: ex 0x183-0x192.7 (16)
     |                                               |                |              nm{}: 0x183-0x190.7 (14)
0x180|         0d                                    |   .            |                n: 13 0x183-0x183.7 (1)
0x180|            61 73 2d 6c 6f 6f 70 2d 66 69 72 73|    as-loop-firs|                b: "as-loop-first" 0x184-0x190.7 (13)
0x190|74                                             |t               |
     |                                               |                |              d{}: 0x191-0x192.7 (2)
0x190|   00                                          | .              |                tag: "funcidx" (0x0) 0x191-0x191.7 (1)
0x190|      13                                       |  .             |                x: 19 0x192-0x192.7 (1)
     |                                               |                |            [19]{}: ex 0x193-0x1a0.7 (14)
     |                                               |                |              nm{}: 0x193-0x19e.7 (12)
0x190|         0b                                    |   .            |                n: 11 0x193-0x193.7 (1)
0x190|            61 73 2d 6c 6f 6f 70 2d 6d 69 64   |    as-loop-mid |                b: "as-loop-mid" 0x194-0x19e.7 (11)
     |                                               |                |              d{}: 0x19f-0x1a0.7 (2)
0x190|                                             00|               .|                tag: "funcidx" (0x0) 0x19f-0x19f.7 (1)
0x1a0|14                                             |.               |                x: 20 0x1a0-0x1a0.7 (1)
     |                                               |                |            [20]{}: ex 0x1a1-0x1af.7 (15)
     |                                               |                |              nm{}: 0x1a1-0x1ad.7 (13)
0x1a0|   0c                                          | .              |                n: 12 0x1a1-0x1a1.7 (1)
0x1a0|      61 73 2d 6c 6f 6f 70 2d 6c 61 73 74      |  as-loop-last  |                b: "as-loop-last" 0x1a2-0x1ad.7 (12)
     |                                               |                |              d{}: 0x1ae-0x1af.7 (2)
0x1a0|                                          00   |              . |                tag: "funcidx" (0x0) 0x1ae-0x1ae.7 (1)
0x1a0|                                             15|               .|                x: 21 0x1af-0x1af.7 (1)
     |                                               |                |            [21]{}: ex 0x1b0-0x1bd.7 (14)
     |                                               |                |              nm{}: 0x1b0-0x1bb.7 (12)
0x1b0|0b                                             |.               |                n: 11 0x1b0-0x1b0.7 (1)
0x1b0|   61 73 2d 62 72 2d 76 61 6c 75 65            | as-br-value    |                b: "as-br-value" 0x1b1-0x1bb.7 (11)
     |                                               |                |              d{}: 0x1bc-0x1bd.7 (2)
0x1b0|                                    00         |            .   |                tag: "funcidx" (0x0) 0x1bc-0x1bc.7 (1)
0x1b0|                                       16      |             .  |                x: 22 0x1bd-0x1bd.7 (1)
     |                                               |                |            [22]{}: ex 0x1be-0x1cd.7 (16)
     |                                               |                |              nm{}: 0x1be-0x1cb.7 (14)
0x1b0|                                          0d   |              . |                n: 13 0x1be-0x1be.7 (1)
0x1b0|                                             61|               a|                b: "as-br_if-cond" 0x1bf-0x1cb.7 (13)
0x1c0|73 2d 62 72 5f 69 66 2d 63 6f 6e 64            |s-br_if-cond    |
     |                                               |                |              d{}: 0x1cc-0x1cd.7 (2)
0x1c0|                                    00         |            .   |                tag: "funcidx" (0x0) 0x1cc-0x1cc.7 (1)
0x1c0|                                       17      |             .  |                x: 23 0x1cd-0x1cd.7 (1)
     |                                               |                |            [23]{}: ex 0x1ce-0x1de.7 (17)
     |                                               |                |              nm{}: 0x1ce-0x1dc.7 (15)
0x1c0|                                          0e   |              . |                n: 14 0x1ce-0x1ce.7 (1)
0x1c0|                                             61|               a|                b: "as-br_if-value" 0x1cf-0x1dc.7 (14)
0x1d0|73 2d 62 72 5f 69 66 2d 76 61 6c 75 65         |s-br_if-value   |
     |                                               |                |              d{}: 0x1dd-0x1de.7 (2)
0x1d0|                                       00      |             .  |                tag: "funcidx" (0x0) 0x1dd-0x1dd.7 (1)
0x1d0|                                          18   |              . |                x: 24 0x1de-0x1de.7 (1)
     |                                               |                |            [24]{}: ex 0x1df-0x1f4.7 (22)
     |                                               |                |              nm{}: 0x1df-0x1f2.7 (20)
0x1d0|                                             13|               .|                n: 19 0x1df-0x1df.7 (1)
0x1e0|61 73 2d 62 72 5f 69 66 2d 76 61 6c 75 65 2d 63|as-br_if-value-c|                b: "as-br_if-value-cond" 0x1e0-0x1f2.7 (19)
0x1f0|6f 6e 64                                       |ond             |
     |                                               |                |              d{}: 0x1f3-0x1f4.7 (2)
0x1f0|         00                                    |   .            |                tag: "funcidx" (0x0) 0x1f3-0x1f3.7 (1)
0x1f0|            19                                 |    .           |                x: 25 0x1f4-0x1f4.7 (1)
     |                                               |                |            [25]{}: ex 0x1f5-0x208.7 (20)
     |                                               |                |              nm{}: 0x1f5-0x206.7 (18)
0x1f0|               11                              |     .          |                n: 17 0x1f5-0x1f5.7 (1)
0x1f0|                  61 73 2d 62 72 5f 74 61 62 6c|      as-br_tabl|                b: "as-br_table-index" 0x1f6-0x206.7 (17)
0x200|65 2d 69 6e 64 65 78                           |e-index         |
     |                                               |                |              d{}: 0x207-0x208.7 (2)
0x200|                     00                        |       .        |                tag: "funcidx" (0x0) 0x207-0x207.7 (1)
0x200|                        1a                     |        .       |                x: 26 0x208-0x208.7 (1)
     |                                               |                |            [26]{}: ex 0x209-0x21c.7 (20)
     |                                               |                |              nm{}: 0x209-0x21a.7 (18)
0x200|                           11                  |         .      |                n: 17 0x209-0x209.7 (1)
0x200|                              61 73 2d 62 72 5f|          as-br_|                b: "as-br_table-value" 0x20a-0x21a.7 (17)
0x210|74 61 62 6c 65 2d 76 61 6c 75 65               |table-value     |
     |                                               |                |              d{}: 0x21b-0x21c.7 (2)
0x210|                                 00            |           .    |                tag: "funcidx" (0x0) 0x21b-0x21b.7 (1)
0x210|                                    1b         |            .   |                x: 27 0x21c-0x21c.7 (1)
     |                                               |                |            [27]{}: ex 0x21d-0x236.7 (26)
     |                                               |                |              nm{}: 0x21d-0x234.7 (24)
0x210|                                       17      |             .  |                n: 23 0x21d-0x21d.7 (1)
0x210|                                          61 73|              as|                b: "as-br_table-value-index" 0x21e-0x234.7 (23)
0x220|2d 62 72 5f 74 61 62 6c 65 2d 76 61 6c 75 65 2d|-br_table-value-|
0x230|69 6e 64 65 78                                 |index           |
     |                                               |                |              d{}: 0x235-0x236.7 (2)
0x230|               00                              |     .          |                tag: "funcidx" (0x0) 0x235-0x235.7 (1)
0x230|                  1c                           |      .         |                x: 28 0x236-0x236.7 (1)
     |                                               |                |            [28]{}: ex 0x237-0x248.7 (18)
     |                                               |                |              nm{}: 0x237-0x246.7 (16)
0x230|                     0f                        |       .        |                n: 15 0x237-0x237.7 (1)
0x230|                        61 73 2d 72 65 74 75 72|        as-retur|                b: "as-return-value" 0x238-0x246.7 (15)
0x240|6e 2d 76 61 6c 75 65                           |n-value         |
     |                                               |                |              d{}: 0x247-0x248.7 (2)
0x240|                     00                        |       .        |                tag: "funcidx" (0x0) 0x247-0x247.7 (1)
0x240|                        1d                     |        .       |                x: 29 0x248-0x248.7 (1)
     |                                               |                |            [29]{}: ex 0x249-0x255.7 (13)
     |                                               |                |              nm{}: 0x249-0x253.7 (11)
0x240|                           0a                  |         .      |                n: 10 0x249-0x249.7 (1)
0x240|                              61 73 2d 69 66 2d|          as-if-|                b: "as-if-cond" 0x24a-0x253.7 (10)
0x250|63 6f 6e 64                                    |cond            |
     |                                               |                |              d{}: 0x254-0x255.7 (2)
0x250|            00                                 |    .           |                tag: "funcidx" (0x0) 0x254-0x254.7 (1)
0x250|               1e                              |     .          |                x: 30 0x255-0x255.7 (1)
     |                                               |                |            [30]{}: ex 0x256-0x262.7 (13)
     |                                               |                |              nm{}: 0x256-0x260.7 (11)
0x250|                  0a                           |      .         |                n: 10 0x256-0x256.7 (1)
0x250|                     61 73 2d 69 66 2d 74 68 65|       as-if-the|                b: "as-if-then" 0x257-0x260.7 (10)
0x260|6e                                             |n               |
     |                                               |                |              d{}: 0x261-0x262.7 (2)
0x260|   00                                          | .              |                tag: "funcidx" (0x0) 0x261-0x261.7 (1)
0x260|      1f                                       |  .             |                x: 31 0x262-0x262.7 (1)
     |                                               |                |            [31]{}: ex 0x263-0x26f.7 (13)
     |                                               |                |              nm{}: 0x263-0x26d.7 (11)
0x260|         0a                                    |   .            |                n: 10 0x263-0x263.7 (1)
0x260|            61 73 2d 69 66 2d 65 6c 73 65      |    as-if-else  |                b: "as-if-else" 0x264-0x26d.7 (10)
     |                                               |                |              d{}: 0x26e-0x26f.7 (2)
0x260|                                          00   |              . |                tag: "funcidx" (0x0) 0x26e-0x26e.7 (1)
0x260|                                             20|                |                x: 32 0x26f-0x26f.7 (1)
     |                                               |                |            [32]{}: ex 0x270-0x281.7 (18)
     |                                               |                |              nm{}: 0x270-0x27f.7 (16)
0x270|0f                                             |.               |                n: 15 0x270-0x270.7 (1)
0x270|   61 73 2d 73 65 6c 65 63 74 2d 66 69 72 73 74| as-select-first|                b: "as-select-first" 0x271-0x27f.7 (15)
     |                                               |                |              d{}: 0x280-0x281.7 (2)
0x280|00                                             |.               |                tag: "funcidx" (0x0) 0x280-0x280.7 (1)
0x280|   21                                          | !              |                x: 33 0x281-0x281.7 (1)
     |                                               |                |            [33]{}: ex 0x282-0x294.7 (19)
     |                                               |                |              nm{}: 0x282-0x292.7 (17)
0x280|      10                                       |  .             |                n: 16 0x282-0x282.7 (1)
0x280|         61 73 2d 73 65 6c 65 63 74 2d 73 65 63|   as-select-sec|                b: "as-select-second" 0x283-0x292.7 (16)
0x290|6f 6e 64                                       |ond             |
     |                                               |                |              d{}: 0x293-0x294.7 (2)
0x290|         00                                    |   .            |                tag: "funcidx" (0x0) 0x293-0x293.7 (1)
0x290|            22                                 |    "           |                x: 34 0x294-0x294.7 (1)
     |                                               |                |            [34]{}: ex 0x295-0x2a5.7 (17)
     |                                               |                |              nm{}: 0x295-0x2a3.7 (15)
0x290|               0e                              |     .          |                n: 14 0x295-0x295.7 (1)
0x290|                  61 73 2d 73 65 6c 65 63 74 2d|      as-select-|                b: "as-select-cond" 0x296-0x2a3.7 (14)
0x2a0|63 6f 6e 64                                    |cond            |
     |                                               |                |              d{}: 0x2a4-0x2a5.7 (2)
0x2a0|            00                                 |    .           |                tag: "funcidx" (0x0) 0x2a4-0x2a4.7 (1)
0x2a0|               23                              |     #          |                x: 35 0x2a5-0x2a5.7 (1)
     |                                               |                |            [35]{}: ex 0x2a6-0x2b5.7 (16)
     |                                               |                |              nm{}: 0x2a6-0x2b3.7 (14)
0x2a0|                  0d                           |      .         |                n: 13 0x2a6-0x2a6.7 (1)
0x2a0|                     61 73 2d 63 61 6c 6c 2d 66|       as-call-f|                b: "as-call-first" 0x2a7-0x2b3.7 (13)
0x2b0|69 72 73 74                                    |irst            |
     |                                               |                |              d{}: 0x2b4-0x2b5.7 (2)
0x2b0|            00                                 |    .           |                tag: "funcidx" (0x0) 0x2b4-0x2b4.7 (1)
0x2b0|               25                              |     %          |                x: 37 0x2b5-0x2b5.7 (1)
     |                                               |                |            [36]{}: ex 0x2b6-0x2c3.7 (14)
     |                                               |                |              nm{}: 0x2b6-0x2c1.7 (12)
0x2b0|                  0b                           |      .         |                n: 11 0x2b6-0x2b6.7 (1)
0x2b0|                     61 73 2d 63 61 6c 6c 2d 6d|       as-call-m|                b: "as-call-mid" 0x2b7-0x2c1.7 (11)
0x2c0|69 64                                          |id              |
     |                                               |                |              d{}: 0x2c2-0x2c3.7 (2)
0x2c0|      00                                       |  .             |                tag: "funcidx" (0x0) 0x2c2-0x2c2.7 (1)
0x2c0|         26                                    |   &            |                x: 38 0x2c3-0x2c3.7 (1)
     |                                               |                |            [37]{}: ex 0x2c4-0x2d2.7 (15)
     |                                               |                |              nm{}: 0x2c4-0x2d0.7 (13)
0x2c0|            0c                                 |    .           |                n: 12 0x2c4-0x2c4.7 (1)
0x2c0|               61 73 2d 63 61 6c 6c 2d 6c 61 73|     as-call-las|                b: "as-call-last" 0x2c5-0x2d0.7 (12)
0x2d0|74                                             |t               |
     |                                               |                |              d{}: 0x2d1-0x2d2.7 (2)
0x2d0|   00                                          | .              |                tag: "funcidx" (0x0) 0x2d1-0x2d1.7 (1)
0x2d0|      27                                       |  '             |                x: 39 0x2d2-0x2d2.7 (1)
     |                                               |                |            [38]{}: ex 0x2d3-0x2ea.7 (24)
     |                                               |                |              nm{}: 0x2d3-0x2e8.7 (22)
0x2d0|         15                                    |   .            |                n: 21 0x2d3-0x2d3.7 (1)
0x2d0|            61 73 2d 63 61 6c 6c 5f 69 6e 64 69|    as-call_indi|                b: "as-call_indirect-func" 0x2d4-0x2e8.7 (21)
0x2e0|72 65 63 74 2d 66 75 6e 63                     |rect-func       |
     |                                               |                |              d{}: 0x2e9-0x2ea.7 (2)
0x2e0|                           00                  |         .      |                tag: "funcidx" (0x0) 0x2e9-0x2e9.7 (1)
0x2e0|                              28               |          (     |                x: 40 0x2ea-0x2ea.7 (1)
     |                                               |                |            [39]{}: ex 0x2eb-0x303.7 (25)
     |                                               |                |              nm{}: 0x2eb-0x301.7 (23)
0x2e0|                                 16            |           .    |                n: 22 0x2eb-0x2eb.7 (1)
0x2e0|                                    61 73 2d 63|            as-c|                b: "as-call_indirect-first" 0x2ec-0x301.7 (22)
0x2f0|61 6c 6c 5f 69 6e 64 69 72 65 63 74 2d 66 69 72|all_indirect-fir|
0x300|73 74                                          |st              |
     |                                               |                |              d{}: 0x302-0x303.7 (2)
0x300|      00                                       |  .             |                tag: "funcidx" (0x0) 0x302-0x302.7 (1)
0x300|         29                                    |   )            |                x: 41 0x303-0x303.7 (1)
     |                                               |                |            [40]{}: ex 0x304-0x31a.7 (23)
     |                                               |                |              nm{}: 0x304-0x318.7 (21)
0x300|            14                                 |    .           |                n: 20 0x304-0x304.7 (1)
0x300|               61 73 2d 63 61 6c 6c 5f 69 6e 64|     as-call_ind|                b: "as-call_indirect-mid" 0x305-0x318.7 (20)
0x310|69 72 65 63 74 2d 6d 69 64                     |irect-mid       |
     |                                               |                |              d{}: 0x319-0x31a.7 (2)
0x310|                           00                  |         .      |                tag: "funcidx" (0x0) 0x319-0x319.7 (1)
0x310|                              2a               |          *     |                x: 42 0x31a-0x31a.7 (1)
     |                                               |                |            [41]{}: ex 0x31b-0x332.7 (24)
     |                                               |                |              nm{}: 0x31b-0x330.7 (22)
0x310|                                 15            |           .    |                n: 21 0x31b-0x31b.7 (1)
0x310|                                    61 73 2d 63|            as-c|                b: "as-call_indirect-last" 0x31c-0x330.7 (21)
0x320|61 6c 6c 5f 69 6e 64 69 72 65 63 74 2d 6c 61 73|all_indirect-las|
0x330|74                                             |t               |
     |                                               |                |              d{}: 0x331-0x332.7 (2)
0x330|   00                                          | .              |                tag: "funcidx" (0x0) 0x331-0x331.7 (1)
0x330|      2b                                       |  +             |                x: 43 0x332-0x332.7 (1)
     |                                               |                |            [42]{}: ex 0x333-0x347.7 (21)
     |                                               |                |              nm{}: 0x333-0x345.7 (19)
0x330|         12                                    |   .            |                n: 18 0x333-0x333.7 (1)
0x330|            61 73 2d 6c 6f 63 61 6c 2e 73 65 74|    as-local.set|                b: "as-local.set-value" 0x334-0x345.7 (18)
0x340|2d 76 61 6c 75 65                              |-value          |
     |                                               |                |              d{}: 0x346-0x347.7 (2)
0x340|                  00                           |      .         |                tag: "funcidx" (0x0) 0x346-0x346.7 (1)
0x340|                     2c                        |       ,        |                x: 44 0x347-0x347.7 (1)
     |                                               |                |            [43]{}: ex 0x348-0x35c.7 (21)
     |                                               |                |              nm{}: 0x348-0x35a.7 (19)
0x340|                        12                     |        .       |                n: 18 0x348-0x348.7 (1)
0x340|                           61 73 2d 6c 6f 63 61|         as-loca|                b: "as-local.tee-value" 0x349-0x35a.7 (18)
0x350|6c 2e 74 65 65 2d 76 61 6c 75 65               |l.tee-value     |
     |                                               |                |              d{}: 0x35b-0x35c.7 (2)
0x350|                                 00            |           .    |                tag: "funcidx" (0x0) 0x35b-0x35b.7 (1)
0x350|                                    2d         |            -   |                x: 45 0x35c-0x35c.7 (1)
     |                                               |                |            [44]{}: ex 0x35d-0x372.7 (22)
     |                                               |                |              nm{}: 0x35d-0x370.7 (20)
0x350|                                       13      |             .  |                n: 19 0x35d-0x35d.7 (1)
0x350|                                          61 73|              as|                b: "as-global.set-value" 0x35e-0x370.7 (19)
0x360|2d 67 6c 6f 62 61 6c 2e 73 65 74 2d 76 61 6c 75|-global.set-valu|
0x370|65                                             |e               |
     |                                               |                |              d{}: 0x371-0x372.7 (2)
0x370|   00                                          | .              |                tag: "funcidx" (0x0) 0x371-0x371.7 (1)
0x370|      2e                                       |  .             |                x: 46 0x372-0x372.7 (1)
     |                                               |                |            [45]{}: ex 0x373-0x384.7 (18)
     |                                               |                |              nm{}: 0x373-0x382.7 (16)
0x370|         0f                                    |   .            |                n: 15 0x373-0x373.7 (1)
0x370|            61 73 2d 6c 6f 61 64 2d 61 64 64 72|    as-load-addr|                b: "as-load-address" 0x374-0x382.7 (15)
0x380|65 73 73                                       |ess             |
     |                                               |                |              d{}: 0x383-0x384.7 (2)
0x380|         00                                    |   .            |                tag: "funcidx" (0x0) 0x383-0x383.7 (1)
0x380|            2f                                 |    /           |                x: 47 0x384-0x384.7 (1)
     |                                               |                |            [46]{}: ex 0x385-0x397.7 (19)
     |                                               |                |              nm{}: 0x385-0x395.7 (17)
0x380|               10                              |     .          |                n: 16 0x385-0x385.7 (1)
0x380|                  61 73 2d 6c 6f 61 64 4e 2d 61|      as-loadN-a|                b: "as-loadN-address" 0x386-0x395.7 (16)
0x390|64 64 72 65 73 73                              |ddress          |
     |                                               |                |              d{}: 0x396-0x397.7 (2)
0x390|                  00                           |      .         |                tag: "funcidx" (0x0) 0x396-0x396.7 (1)
0x390|                     30                        |       0        |                x: 48 0x397-0x397.7 (1)
     |                                               |                |            [47]{}: ex 0x398-0x3aa.7 (19)
     |                                               |                |              nm{}: 0x398-0x3a8.7 (17)
0x390|                        10                     |        .       |                n: 16 0x398-0x398.7 (1)
0x390|                           61 73 2d 73 74 6f 72|         as-stor|                b: "as-store-address" 0x399-0x3a8.7 (16)
0x3a0|65 2d 61 64 64 72 65 73 73                     |e-address       |
     |                                               |                |              d{}: 0x3a9-0x3aa.7 (2)
0x3a0|                           00                  |         .      |                tag: "funcidx" (0x0) 0x3a9-0x3a9.7 (1)
0x3a0|                              31               |          1     |                x: 49 0x3aa-0x3aa.7 (1)
     |                                               |                |            [48]{}: ex 0x3ab-0x3bb.7 (17)
     |                                               |                |              nm{}: 0x3ab-0x3b9.7 (15)
0x3a0|                                 0e            |           .    |                n: 14 0x3ab-0x3ab.7 (1)
0x3a0|                                    61 73 2d 73|            as-s|                b: "as-store-value" 0x3ac-0x3b9.7 (14)
0x3b0|74 6f 72 65 2d 76 61 6c 75 65                  |tore-value      |
     |                                               |                |              d{}: 0x3ba-0x3bb.7 (2)
0x3b0|                              00               |          .     |                tag: "funcidx" (0x0) 0x3ba-0x3ba.7 (1)
0x3b0|                                 32            |           2    |                x: 50 0x3bb-0x3bb.7 (1)
     |                                               |                |            [49]{}: ex 0x3bc-0x3cf.7 (20)
     |                                               |                |              nm{}: 0x3bc-0x3cd.7 (18)
0x3b0|                                    11         |            .   |                n: 17 0x3bc-0x3bc.7 (1)
0x3b0|                                       61 73 2d|             as-|                b: "as-storeN-address" 0x3bd-0x3cd.7 (17)
0x3c0|73 74 6f 72 65 4e 2d 61 64 64 72 65 73 73      |storeN-address  |
     |                                               |                |              d{}: 0x3ce-0x3cf.7 (2)
0x3c0|                                          00   |              . |                tag: "funcidx" (0x0) 0x3ce-0x3ce.7 (1)
0x3c0|                                             33|               3|                x: 51 0x3cf-0x3cf.7 (1)
     |                                               |                |            [50]{}: ex 0x3d0-0x3e1.7 (18)
     |                                               |                |              nm{}: 0x3d0-0x3df.7 (16)
0x3d0|0f                                             |.               |                n: 15 0x3d0-0x3d0.7 (1)
0x3d0|   61 73 2d 73 74 6f 72 65 4e 2d 76 61 6c 75 65| as-storeN-value|                b: "as-storeN-value" 0x3d1-0x3df.7 (15)
     |                                               |                |              d{}: 0x3e0-0x3e1.7 (2)
0x3e0|00                                             |.               |                tag: "funcidx" (0x0) 0x3e0-0x3e0.7 (1)
0x3e0|   34                                          | 4              |                x: 52 0x3e1-0x3e1.7 (1)
     |                                               |                |            [51]{}: ex 0x3e2-0x3f4.7 (19)
     |                                               |                |              nm{}: 0x3e2-0x3f2.7 (17)
0x3e0|      10                                       |  .             |                n: 16 0x3e2-0x3e2.7 (1)
0x3e0|         61 73 2d 75 6e 61 72 79 2d 6f 70 65 72|   as-unary-oper|                b: "as-unary-operand" 0x3e3-0x3f2.7 (16)
0x3f0|61 6e 64                                       |and             |
     |                                               |                |              d{}: 0x3f3-0x3f4.7 (2)
0x3f0|         00                                    |   .            |                tag: "funcidx" (0x0) 0x3f3-0x3f3.7 (1)
0x3f0|            35                                 |    5           |                x: 53 0x3f4-0x3f4.7 (1)
     |                                               |                |            [52]{}: ex 0x3f5-0x405.7 (17)
     |                                               |                |              nm{}: 0x3f5-0x403.7 (15)
0x3f0|               0e                              |     .          |                n: 14 0x3f5-0x3f5.7 (1)
0x3f0|                  61 73 2d 62 69 6e 61 72 79 2d|      as-binary-|                b: "as-binary-left" 0x3f6-0x403.7 (14)
0x400|6c 65 66 74                                    |left            |
     |                                               |                |              d{}: 0x404-0x405.7 (2)
0x400|            00                                 |    .           |                tag: "funcidx" (0x0) 0x404-0x404.7 (1)
0x400|               36                              |     6          |                x: 54 0x405-0x405.7 (1)
     |                                               |                |            [53]{}: ex 0x406-0x417.7 (18)
     |                                               |                |              nm{}: 0x406-0x415.7 (16)
0x400|                  0f                           |      .         |                n: 15 0x406-0x406.7 (1)
0x400|                     61 73 2d 62 69 6e 61 72 79|       as-binary|                b: "as-binary-right" 0x407-0x415.7 (15)
0x410|2d 72 69 67 68 74                              |-right          |
     |                                               |                |              d{}: 0x416-0x417.7 (2)
0x410|                  00                           |      .         |                tag: "funcidx" (0x0) 0x416-0x416.7 (1)
0x410|                     37                        |       7        |                x: 55 0x417-0x417.7 (1)
     |                                               |                |            [54]{}: ex 0x418-0x429.7 (18)
     |                                               |                |              nm{}: 0x418-0x427.7 (16)
0x410|                        0f                     |        .       |                n: 15 0x418-0x418.7 (1)
0x410|                           61 73 2d 74 65 73 74|         as-test|                b: "as-test-operand" 0x419-0x427.7 (15)
0x420|2d 6f 70 65 72 61 6e 64                        |-operand        |
     |                                               |                |              d{}: 0x428-0x429.7 (2)
0x420|                        00                     |        .       |                tag: "funcidx" (0x0) 0x428-0x428.7 (1)
0x420|                           38                  |         8      |                x: 56 0x429-0x429.7 (1)
     |                                               |                |            [55]{}: ex 0x42a-0x43b.7 (18)
     |                                               |                |              nm{}: 0x42a-0x439.7 (16)
0x420|                              0f               |          .     |                n: 15 0x42a-0x42a.7 (1)
0x420|                                 61 73 2d 63 6f|           as-co|                b: "as-compare-left" 0x42b-0x439.7 (15)
0x430|6d 70 61 72 65 2d 6c 65 66 74                  |mpare-left      |
     |                                               |                |              d{}: 0x43a-0x43b.7 (2)
0x430|                              00               |          .     |                tag: "funcidx" (0x0) 0x43a-0x43a.7 (1)
0x430|                                 39            |           9    |                x: 57 0x43b-0x43b.7 (1)
     |                                               |                |            [56]{}: ex 0x43c-0x44e.7 (19)
     |                                               |                |              nm{}: 0x43c-0x44c.7 (17)
0x430|                                    10         |            .   |                n: 16 0x43c-0x43c.7 (1)
0x430|                                       61 73 2d|             as-|                b: "as-compare-right" 0x43d-0x44c.7 (16)
0x440|63 6f 6d 70 61 72 65 2d 72 69 67 68 74         |compare-right   |
     |                                               |                |              d{}: 0x44d-0x44e.7 (2)
0x440|                                       00      |             .  |                tag: "funcidx" (0x0) 0x44d-0x44d.7 (1)
0x440|                                          3a   |              : |                x: 58 0x44e-0x44e.7 (1)
     |                                               |                |            [57]{}: ex 0x44f-0x463.7 (21)
     |                                               |                |              nm{}: 0x44f-0x461.7 (19)
0x440|                                             12|               .|                n: 18 0x44f-0x44f.7 (1)
0x450|61 73 2d 63 6f 6e 76 65 72 74 2d 6f 70 65 72 61|as-convert-opera|                b: "as-convert-operand" 0x450-0x461.7 (18)
0x460|6e 64                                          |nd              |
     |                                               |                |              d{}: 0x462-0x463.7 (2)
0x460|      00                                       |  .             |                tag: "funcidx" (0x0) 0x462-0x462.7 (1)
0x460|         3b                                    |   ;            |                x: 59 0x463-0x463.7 (1)
     |                                               |                |            [58]{}: ex 0x464-0x479.7 (22)
     |                                               |                |              nm{}: 0x464-0x477.7 (20)
0x460|            13                                 |    .           |                n: 19 0x464-0x464.7 (1)
0x460|               61 73 2d 6d 65 6d 6f 72 79 2e 67|     as-memory.g|                b: "as-memory.grow-size" 0x465-0x477.7 (19)
0x470|72 6f 77 2d 73 69 7a 65                        |row-size        |
     |                                               |                |              d{}: 0x478-0x479.7 (2)
0x470|                        00                     |        .       |                tag: "funcidx" (0x0) 0x478-0x478.7 (1)
0x470|                           3c                  |         <      |                x: 60 0x479-0x479.7 (1)
     |                                               |                |    [6]{}: section 0x47a-0x482.7 (9)
0x470|                              09               |          .     |      id: "element section" (9) 0x47a-0x47a.7 (1)
0x470|                                 07            |           .    |      size: 7 0x47b-0x47b.7 (1)
     |                                               |                |      element{}: 0x47c-0x482.7 (7)
     |                                               |                |        seg{}: 0x47c-0x482.7 (7)
0x470|                                    01         |            .   |          n: 1 0x47c-0x47c.7 (1)
     |                                               |                |          x[0:1]: 0x47d-0x482.7 (6)
     |                                               |                |            [0]{}: seg 0x47d-0x482.7 (6)
0x470|                                       00      |             .  |              tag: 0 0x47d-0x47d.7 (1)
     |                                               |                |              e[0:2]: 0x47e-0x480.7 (3)
     |                                               |                |                [0]{}: in 0x47e-0x47f.7 (2)
0x470|                                          41   |              A |                  i32.const: 0x41 (valid) 0x47e-0x47e.7 (1)
0x470|                                             00|               .|                  n: 0 0x47f-0x47f.7 (1)
     |                                               |                |                [1]{}: in 0x480-0x480.7 (1)
0x480|0b                                             |.               |                  end: 0xb (valid) 0x480-0x480.7 (1)
     |                                               |                |              y{}: 0x481-0x482.7 (2)
0x480|   01                                          | .              |                n: 1 0x481-0x481.7 (1)
     |                                               |                |                x[0:1]: 0x482-0x482.7 (1)
0x480|      24                                       |  $             |                  [0]: 36 y 0x482-0x482.7 (1)
     |                                               |                |    [7]{}: section 0x483-0x72e.7 (684)
0x480|         0a                                    |   .            |      id: "code section" (10) 0x483-0x483.7 (1)
0x480|            a9 05                              |    ..          |      size: 681 0x484-0x485.7 (2)
     |                                               |                |      content{}: 0x486-0x72e.7 (681)
     |                                               |                |        code{}: 0x486-0x72e.7 (681)
0x480|                  3d                           |      =         |          n: 61 0x486-0x486.7 (1)
     |                                               |                |          x[0:61]: 0x487-0x72e.7 (680)
     |                                               |                |            [0]{}: code 0x487-0x489.7 (3)
0x480|                     02                        |       .        |              size: 2 0x487-0x487.7 (1)
     |                                               |                |              code{}: 0x488-0x489.7 (2)
     |                                               |                |                t{}: 0x488-0x488.7 (1)
0x480|                        00                     |        .       |                  n: 0 0x488-0x488.7 (1)
     |                                               |                |                  x[0:0]: 0x489-NA (0)
     |                                               |                |                e[0:1]: 0x489-0x489.7 (1)
     |                                               |                |                  [0]{}: in 0x489-0x489.7 (1)
0x480|                           0b                  |         .      |                    end: 0xb (valid) 0x489-0x489.7 (1)
     |                                               |                |            [1]{}: code 0x48a-0x48f.7 (6)
0x480|                              05               |          .     |              size: 5 0x48a-0x48a.7 (1)
     |                                               |                |              code{}: 0x48b-0x48f.7 (5)
     |                                               |                |                t{}: 0x48b-0x48b.7 (1)
0x480|                                 00            |           .    |                  n: 0 0x48b-0x48b.7 (1)
     |                                               |                |                  x[0:0]: 0x48c-NA (0)
     |                                               |                |                e[0:4]: 0x48c-0x48f.7 (4)
     |                                               |                |                  [0]{}: in 0x48c-0x48c.7 (1)
0x480|                                    0f         |            .   |                    return: 0xf (valid) 0x48c-0x48c.7 (1)
     |                                               |                |                  [1]{}: in 0x48d-0x48d.7 (1)
0x480|                                       68      |             h  |                    i32.ctz: 0x68 (valid) 0x48d-0x48d.7 (1)
     |                                               |                |                  [2]{}: in 0x48e-0x48e.7 (1)
0x480|                                          1a   |              . |                    drop: 0x1a (valid) 0x48e-0x48e.7 (1)
     |                                               |                |                  [3]{}: in 0x48f-0x48f.7 (1)
0x480|                                             0b|               .|                    end: 0xb (valid) 0x48f-0x48f.7 (1)
     |                                               |                |            [2]{}: code 0x490-0x495.7 (6)
0x490|05                                             |.               |              size: 5 0x490-0x490.7 (1)
     |                                               |                |              code{}: 0x491-0x495.7 (5)
     |                                               |                |                t{}: 0x491-0x491.7 (1)
0x490|   00                                          | .              |                  n: 0 0x491-0x491.7 (1)
     |                                               |                |                  x[0:0]: 0x492-NA (0)
     |                                               |                |                e[0:4]: 0x492-0x495.7 (4)
     |                                               |                |                  [0]{}: in 0x492-0x492.7 (1)
0x490|      0f                                       |  .             |                    return: 0xf (valid) 0x492-0x492.7 (1)
     |                                               |                |                  [1]{}: in 0x493-0x493.7 (1)
0x490|         7a                                    |   z            |                    i64.ctz: 0x7a (valid) 0x493-0x493.7 (1)
     |                                               |                |                  [2]{}: in 0x494-0x494.7 (1)
0x490|            1a                                 |    .           |                    drop: 0x1a (valid) 0x494-0x494.7 (1)
     |                                               |                |                  [3]{}: in 0x495-0x495.7 (1)
0x490|               0b                              |     .          |                    end: 0xb (valid) 0x495-0x495.7 (1)
     |                                               |                |            [3]{}: code 0x496-0x49b.7 (6)
0x490|                  05                           |      .         |              size: 5 0x496-0x496.7 (1)
     |                                               |                |              code{}: 0x497-0x49b.7 (5)
     |                                               |                |                t{}: 0x497-0x497.7 (1)
0x490|                     00                        |       .        |                  n: 0 0x497-0x497.7 (1)
     |                                               |                |                  x[0:0]: 0x498-NA (0)
     |                                               |                |                e[0:4]: 0x498-0x49b.7 (4)
     |                                               |                |                  [0]{}: in 0x498-0x498.7 (1)
0x490|                        0f                     |        .       |                    return: 0xf (valid) 0x498-0x498.7 (1)
     |                                               |                |                  [1]{}: in 0x499-0x499.7 (1)
0x490|                           8c                  |         .      |                    f32.neg: 0x8c (valid) 0x499-0x499.7 (1)
     |                                               |                |                  [2]{}: in 0x49a-0x49a.7 (1)
0x490|                              1a               |          .     |                    drop: 0x1a (valid) 0x49a-0x49a.7 (1)
     |                                               |                |                  [3]{}: in 0x49b-0x49b.7 (1)
0x490|                                 0b            |           .    |                    end: 0xb (valid) 0x49b-0x49b.7 (1)
     |                                               |                |            [4]{}: code 0x49c-0x4a1.7 (6)
0x490|                                    05         |            .   |              size: 5 0x49c-0x49c.7 (1)
     |                                               |                |              code{}: 0x49d-0x4a1.7 (5)
     |                                               |                |                t{}: 0x49d-0x49d.7 (1)
0x490|                                       00      |             .  |                  n: 0 0x49d-0x49d.7 (1)
     |                                               |                |                  x[0:0]: 0x49e-NA (0)
     |                                               |                |                e[0:4]: 0x49e-0x4a1.7 (4)
     |                                               |                |                  [0]{}: in 0x49e-0x49e.7 (1)
0x490|                                          0f   |              . |                    return: 0xf (valid) 0x49e-0x49e.7 (1)
     |                                               |                |                  [1]{}: in 0x49f-0x49f.7 (1)
0x490|                                             9a|               .|                    f64.neg: 0x9a (valid) 0x49f-0x49f.7 (1)
     |                                               |                |                  [2]{}: in 0x4a0-0x4a0.7 (1)
0x4a0|1a                                             |.               |                    drop: 0x1a (valid) 0x4a0-0x4a0.7 (1)
     |                                               |                |                  [3]{}: in 0x4a1-0x4a1.7 (1)
0x4a0|   0b                                          | .              |                    end: 0xb (valid) 0x4a1-0x4a1.7 (1)
     |                                               |                |            [5]{}: code 0x4a2-0x4ab.7 (10)
0x4a0|      09                                       |  .             |              size: 9 0x4a2-0x4a2.7 (1)
     |                                               |                |              code{}: 0x4a3-0x4ab.7 (9)
     |                                               |                |                t{}: 0x4a3-0x4a3.7 (1)
0x4a0|         00                                    |   .            |                  n: 0 0x4a3-0x4a3.7 (1)
     |                                               |                |                  x[0:0]: 0x4a4-NA (0)
     |                                               |                |                e[0:2]: 0x4a4-0x4ab.7 (8)
     |                                               |                |                  [0]{}: in 0x4a4-0x4aa.7 (7)
0x4a0|            02                                 |    .           |                    block: 0x2 (valid) 0x4a4-0x4a4.7 (1)
0x4a0|               7f                              |     .          |                    bt: "i32" (127) 0x4a5-0x4a5.7 (1)
     |                                               |                |                    instructions[0:3]: 0x4a6-0x4a9.7 (4)
     |                                               |                |                      [0]{}: instr 0x4a6-0x4a7.7 (2)
0x4a0|                  41                           |      A         |                        i32.const: 0x41 (valid) 0x4a6-0x4a6.7 (1)
0x4a0|                     01                        |       .        |                        n: 1 0x4a7-0x4a7.7 (1)
     |                                               |                |                      [1]{}: instr 0x4a8-0x4a8.7 (1)
0x4a0|                        0f                     |        .       |                        return: 0xf (valid) 0x4a8-0x4a8.7 (1)
     |                                               |                |                      [2]{}: instr 0x4a9-0x4a9.7 (1)
0x4a0|                           68                  |         h      |                        i32.ctz: 0x68 (valid) 0x4a9-0x4a9.7 (1)
0x4a0|                              0b               |          .     |                    end: 11 (valid) 0x4aa-0x4aa.7 (1)
     |                                               |                |                  [1]{}: in 0x4ab-0x4ab.7 (1)
0x4a0|                                 0b            |           .    |                    end: 0xb (valid) 0x4ab-0x4ab.7 (1)
     |                                               |                |            [6]{}: code 0x4ac-0x4b5.7 (10)
0x4a0|                                    09         |            .   |              size: 9 0x4ac-0x4ac.7 (1)
     |                                               |                |              code{}: 0x4ad-0x4b5.7 (9)
     |                                               |                |                t{}: 0x4ad-0x4ad.7 (1)
0x4a0|                                       00      |             .  |                  n: 0 0x4ad-0x4ad.7 (1)
     |                                               |                |                  x[0:0]: 0x4ae-NA (0)
     |                                               |                |                e[0:2]: 0x4ae-0x4b5.7 (8)
     |                                               |                |                  [0]{}: in 0x4ae-0x4b4.7 (7)
0x4a0|                                          02   |              . |                    block: 0x2 (valid) 0x4ae-0x4ae.7 (1)
0x4a0|                                             7e|               ~|                    bt: "i64" (126) 0x4af-0x4af.7 (1)
     |                                               |                |                    instructions[0:3]: 0x4b0-0x4b3.7 (4)
     |                                               |                |                      [0]{}: instr 0x4b0-0x4b1.7 (2)
0x4b0|42                                             |B               |                        i64.const: 0x42 (valid) 0x4b0-0x4b0.7 (1)
0x4b0|   02                                          | .              |                        n: 2 0x4b1-0x4b1.7 (1)
     |                                               |                |                      [1]{}: instr 0x4b2-0x4b2.7 (1)
0x4b0|      0f                                       |  .             |                        return: 0xf (valid) 0x4b2-0x4b2.7 (1)
     |                                               |                |                      [2]{}: instr 0x4b3-0x4b3.7 (1)
0x4b0|         7a                                    |   z            |                        i64.ctz: 0x7a (valid) 0x4b3-0x4b3.7 (1)
0x4b0|            0b                                 |    .           |                    end: 11 (valid) 0x4b4-0x4b4.7 (1)
     |                                               |                |                  [1]{}: in 0x4b5-0x4b5.7 (1)
0x4b0|               0b                              |     .          |                    end: 0xb (valid) 0x4b5-0x4b5.7 (1)
     |                                               |                |            [7]{}: code 0x4b6-0x4c2.7 (13)
0x4b0|                  0c                           |      .         |              size: 12 0x4b6-0x4b6.7 (1)
     |                                               |                |              code{}: 0x4b7-0x4c2.7 (12)
     |                                               |                |                t{}: 0x4b7-0x4b7.7 (1)
0x4b0|                     00                        |       .        |                  n: 0 0x4b7-0x4b7.7 (1)
     |                                               |                |                  x[0:0]: 0x4b8-NA (0)
     |                                               |                |                e[0:2]: 0x4b8-0x4c2.7 (11)
     |                                               |                |                  [0]{}: in 0x4b8-0x4c1.7 (10)
0x4b0|                        02                     |        .       |                    block: 0x2 (valid) 0x4b8-0x4b8.7 (1)
0x4b0|                           7d                  |         }      |                    bt: "f32" (125) 0x4b9-0x4b9.7 (1)
     |                                               |                |                    instructions[0:3]: 0x4ba-0x4c0.7 (7)
     |                                               |                |                      [0]{}: instr 0x4ba-0x4be.7 (5)
0x4b0|                              43               |          C     |                        f32.const: 0x43 (valid) 0x4ba-0x4ba.7 (1)
0x4b0|                                 00 00 40 40   |           ..@@ |                        z: 3 0x4bb-0x4be.7 (4)
     |                                               |                |                      [1]{}: instr 0x4bf-0x4bf.7 (1)
0x4b0|                                             0f|               .|                        return: 0xf (valid) 0x4bf-0x4bf.7 (1)
     |                                               |                |                      [2]{}: instr 0x4c0-0x4c0.7 (1)
0x4c0|8c                                             |.               |                        f32.neg: 0x8c (valid) 0x4c0-0x4c0.7 (1)
0x4c0|   0b                                          | .              |                    end: 11 (valid) 0x4c1-0x4c1.7 (1)
     |                                               |                |                  [1]{}: in 0x4c2-0x4c2.7 (1)
0x4c0|      0b                                       |  .             |                    end: 0xb (valid) 0x4c2-0x4c2.7 (1)
     |                                               |                |            [8]{}: code 0x4c3-0x4d3.7 (17)
0x4c0|         10                                    |   .            |              size: 16 0x4c3-0x4c3.7 (1)
     |                                               |                |              code{}: 0x4c4-0x4d3.7 (16)
     |                                               |                |                t{}: 0x4c4-0x4c4.7 (1)
0x4c0|            00                                 |    .           |                  n: 0 0x4c4-0x4c4.7 (1)
     |                                               |                |                  x[0:0]: 0x4c5-NA (0)
     |                                               |                |                e[0:2]: 0x4c5-0x4d3.7 (15)
     |                                               |                |                  [0]{}: in 0x4c5-0x4d2.7 (14)
0x4c0|               02                              |     .          |                    block: 0x2 (valid) 0x4c5-0x4c5.7 (1)
0x4c0|                  7c                           |      |         |                    bt: "f64" (124) 0x4c6-0x4c6.7 (1)
     |                                               |                |                    instructions[0:3]: 0x4c7-0x4d1.7 (11)
     |                                               |                |                      [0]{}: instr 0x4c7-0x4cf.7 (9)
0x4c0|                     44                        |       D        |                        f64.const: 0x44 (valid) 0x4c7-0x4c7.7 (1)
0x4c0|                        00 00 00 00 00 00 10 40|        .......@|                        z: 4 0x4c8-0x4cf.7 (8)
     |                                               |                |                      [1]{}: instr 0x4d0-0x4d0.7 (1)
0x4d0|0f                                             |.               |                        return: 0xf (valid) 0x4d0-0x4d0.7 (1)
     |                                               |                |                      [2]{}: instr 0x4d1-0x4d1.7 (1)
0x4d0|   9a                                          | .              |                        f64.neg: 0x9a (valid) 0x4d1-0x4d1.7 (1)
0x4d0|      0b                                       |  .             |                    end: 11 (valid) 0x4d2-0x4d2.7 (1)
     |                                               |                |                  [1]{}: in 0x4d3-0x4d3.7 (1)
0x4d0|         0b                                    |   .            |                    end: 0xb (valid) 0x4d3-0x4d3.7 (1)
     |                                               |                |            [9]{}: code 0x4d4-0x4d7.7 (4)
0x4d0|            03                                 |    .           |              size: 3 0x4d4-0x4d4.7 (1)
     |                                               |                |              code{}: 0x4d5-0x4d7.7 (3)
     |                                               |                |                t{}: 0x4d5-0x4d5.7 (1)
0x4d0|               00                              |     .          |                  n: 0 0x4d5-0x4d5.7 (1)
     |                                               |                |                  x[0:0]: 0x4d6-NA (0)
     |                                               |                |                e[0:2]: 0x4d6-0x4d7.7 (2)
     |                                               |                |                  [0]{}: in 0x4d6-0x4d6.7 (1)
0x4d0|                  0f                           |      .         |                    return: 0xf (valid) 0x4d6-0x4d6.7 (1)
     |                                               |                |                  [1]{}: in 0x4d7-0x4d7.7 (1)
0x4d0|                     0b                        |       .        |                    end: 0xb (valid) 0x4d7-0x4d7.7 (1)
     |                                               |                |            [10]{}: code 0x4d8-0x4e4.7 (13)
0x4d0|                        0c                     |        .       |              size: 12 0x4d8-0x4d8.7 (1)
     |                                               |                |              code{}: 0x4d9-0x4e4.7 (12)
     |                                               |                |                t{}: 0x4d9-0x4d9.7 (1)
0x4d0|                           00                  |         .      |                  n: 0 0x4d9-0x4d9.7 (1)
     |                                               |                |                  x[0:0]: 0x4da-NA (0)
     |                                               |                |                e[0:3]: 0x4da-0x4e4.7 (11)
     |                                               |                |                  [0]{}: in 0x4da-0x4e2.7 (9)
0x4d0|                              44               |          D     |                    f64.const: 0x44 (valid) 0x4da-0x4da.7 (1)
0x4d0|                                 00 00 00 00 00|           .....|                    z: 3 0x4db-0x4e2.7 (8)
0x4e0|00 08 40                                       |..@             |
     |                                               |                |                  [1]{}: in 0x4e3-0x4e3.7 (1)
0x4e0|         0f                                    |   .            |                    return: 0xf (valid) 0x4e3-0x4e3.7 (1)
     |                                               |                |                  [2]{}: in 0x4e4-0x4e4.7 (1)
0x4e0|            0b                                 |    .           |                    end: 0xb (valid) 0x4e4-0x4e4.7 (1)
     |                                               |                |            [11]{}: code 0x4e5-0x4ec.7 (8)
0x4e0|               07                              |     .          |              size: 7 0x4e5-0x4e5.7 (1)
     |                                               |                |              code{}: 0x4e6-0x4ec.7 (7)
     |                                               |                |                t{}: 0x4e6-0x4e6.7 (1)
0x4e0|                  00                           |      .         |                  n: 0 0x4e6-0x4e6.7 (1)
     |                                               |                |                  x[0:0]: 0x4e7-NA (0)
     |                                               |                |                e[0:4]: 0x4e7-0x4ec.7 (6)
     |                                               |                |                  [0]{}: in 0x4e7-0x4e8.7 (2)
0x4e0|                     41                        |       A        |                    i32.const: 0x41 (valid) 0x4e7-0x4e7.7 (1)
0x4e0|                        01                     |        .       |                    n: 1 0x4e8-0x4e8.7 (1)
     |                                               |                |                  [1]{}: in 0x4e9-0x4e9.7 (1)
0x4e0|                           0f                  |         .      |                    return: 0xf (valid) 0x4e9-0x4e9.7 (1)
     |                                               |                |                  [2]{}: in 0x4ea-0x4eb.7 (2)
0x4e0|                              41               |          A     |                    i32.const: 0x41 (valid) 0x4ea-0x4ea.7 (1)
0x4e0|                                 02            |           .    |                    n: 2 0x4eb-0x4eb.7 (1)
     |                                               |                |                  [3]{}: in 0x4ec-0x4ec.7 (1)
0x4e0|                                    0b         |            .   |                    end: 0xb (valid) 0x4ec-0x4ec.7 (1)
     |                                               |                |            [12]{}: code 0x4ed-0x4f6.7 (10)
0x4e0|                                       09      |             .  |              size: 9 0x4ed-0x4ed.7 (1)
     |                                               |                |              code{}: 0x4ee-0x4f6.7 (9)
     |                                               |                |                t{}: 0x4ee-0x4ee.7 (1)
0x4e0|                                          00   |              . |                  n: 0 0x4ee-0x4ee.7 (1)
     |                                               |                |                  x[0:0]: 0x4ef-NA (0)
     |                                               |                |                e[0:5]: 0x4ef-0x4f6.7 (8)
     |                                               |                |                  [0]{}: in 0x4ef-0x4f0.7 (2)
0x4e0|                                             10|               .|                    call: 0x10 (valid) 0x4ef-0x4ef.7 (1)
0x4f0|00                                             |.               |                    x: 0 0x4f0-0x4f0.7 (1)
     |                                               |                |                  [1]{}: in 0x4f1-0x4f2.7 (2)
0x4f0|   41                                          | A              |                    i32.const: 0x41 (valid) 0x4f1-0x4f1.7 (1)
0x4f0|      02                                       |  .             |                    n: 2 0x4f2-0x4f2.7 (1)
     |                                               |                |                  [2]{}: in 0x4f3-0x4f3.7 (1)
0x4f0|         0f                                    |   .            |                    return: 0xf (valid) 0x4f3-0x4f3.7 (1)
     |                                               |                |                  [3]{}: in 0x4f4-0x4f5.7 (2)
0x4f0|            41                                 |    A           |                    i32.const: 0x41 (valid) 0x4f4-0x4f4.7 (1)
0x4f0|               03                              |     .          |                    n: 3 0x4f5-0x4f5.7 (1)
     |                                               |                |                  [4]{}: in 0x4f6-0x4f6.7 (1)
0x4f0|                  0b                           |      .         |                    end: 0xb (valid) 0x4f6-0x4f6.7 (1)
     |                                               |                |            [13]{}: code 0x4f7-0x4fd.7 (7)
0x4f0|                     06                        |       .        |              size: 6 0x4f7-0x4f7.7 (1)
     |                                               |                |              code{}: 0x4f8-0x4fd.7 (6)
     |                                               |                |                t{}: 0x4f8-0x4f8.7 (1)
0x4f0|                        00                     |        .       |                  n: 0 0x4f8-0x4f8.7 (1)
     |                                               |                |                  x[0:0]: 0x4f9-NA (0)
     |                                               |                |                e[0:4]: 0x4f9-0x4fd.7 (5)
     |                                               |                |                  [0]{}: in 0x4f9-0x4f9.7 (1)
0x4f0|                           01                  |         .      |                    nop: 0x1 (valid) 0x4f9-0x4f9.7 (1)
     |                                               |                |                  [1]{}: in 0x4fa-0x4fb.7 (2)
0x4f0|                              10               |          .     |                    call: 0x10 (valid) 0x4fa-0x4fa.7 (1)
0x4f0|                                 00            |           .    |                    x: 0 0x4fb-0x4fb.7 (1)
     |                                               |                |                  [2]{}: in 0x4fc-0x4fc.7 (1)
0x4f0|                                    0f         |            .   |                    return: 0xf (valid) 0x4fc-0x4fc.7 (1)
     |                                               |                |                  [3]{}: in 0x4fd-0x4fd.7 (1)
0x4f0|                                       0b      |             .  |                    end: 0xb (valid) 0x4fd-0x4fd.7 (1)
     |                                               |                |            [14]{}: code 0x4fe-0x506.7 (9)
0x4f0|                                          08   |              . |              size: 8 0x4fe-0x4fe.7 (1)
     |                                               |                |              code{}: 0x4ff-0x506.7 (8)
     |                                               |                |                t{}: 0x4ff-0x4ff.7 (1)
0x4f0|                                             00|               .|                  n: 0 0x4ff-0x4ff.7 (1)
     |                                               |                |                  x[0:0]: 0x500-NA (0)
     |                                               |                |                e[0:5]: 0x500-0x506.7 (7)
     |                                               |                |                  [0]{}: in 0x500-0x500.7 (1)
0x500|01                                             |.               |                    nop: 0x1 (valid) 0x500-0x500.7 (1)
     |                                               |                |                  [1]{}: in 0x501-0x502.7 (2)
0x500|   10                                          | .              |                    call: 0x10 (valid) 0x501-0x501.7 (1)
0x500|      00                                       |  .             |                    x: 0 0x502-0x502.7 (1)
     |                                               |                |                  [2]{}: in 0x503-0x504.7 (2)
0x500|         41                                    |   A            |                    i32.const: 0x41 (valid) 0x503-0x503.7 (1)
0x500|            03                                 |    .           |                    n: 3 0x504-0x504.7 (1)
     |                                               |                |                  [3]{}: in 0x505-0x505.7 (1)
0x500|               0f                              |     .          |                    return: 0xf (valid) 0x505-0x505.7 (1)
     |                                               |                |                  [4]{}: in 0x506-0x506.7 (1)
0x500|                  0b                           |      .         |                    end: 0xb (valid) 0x506-0x506.7 (1)
     |                                               |                |            [15]{}: code 0x507-0x50f.7 (9)
0x500|                     08                        |       .        |              size: 8 0x507-0x507.7 (1)
     |                                               |                |              code{}: 0x508-0x50f.7 (8)
     |                                               |                |                t{}: 0x508-0x508.7 (1)
0x500|                        00                     |        .       |                  n: 0 0x508-0x508.7 (1)
     |                                               |                |                  x[0:0]: 0x509-NA (0)
     |                                               |                |                e[0:2]: 0x509-0x50f.7 (7)
     |                                               |                |                  [0]{}: in 0x509-0x50e.7 (6)
0x500|                           02                  |         .      |                    block: 0x2 (valid) 0x509-0x509.7 (1)
0x500|                              40               |          @     |                    bt: "ε" (64) 0x50a-0x50a.7 (1)
     |                                               |                |                    instructions[0:2]: 0x50b-0x50d.7 (3)
     |                                               |                |                      [0]{}: instr 0x50b-0x50b.7 (1)
0x500|                                 0f            |           .    |                        return: 0xf (valid) 0x50b-0x50b.7 (1)
     |                                               |                |                      [1]{}: instr 0x50c-0x50d.7 (2)
0x500|                                    10         |            .   |                        call: 0x10 (valid) 0x50c-0x50c.7 (1)
0x500|                                       00      |             .  |                        x: 0 0x50d-0x50d.7 (1)
0x500|                                          0b   |              . |                    end: 11 (valid) 0x50e-0x50e.7 (1)
     |                                               |                |                  [1]{}: in 0x50f-0x50f.7 (1)
0x500|                                             0b|               .|                    end: 0xb (valid) 0x50f-0x50f.7 (1)
     |                                               |                |            [16]{}: code 0x510-0x51a.7 (11)
0x510|0a                                             |.               |              size: 10 0x510-0x510.7 (1)
     |                                               |                |              code{}: 0x511-0x51a.7 (10)
     |                                               |                |                t{}: 0x511-0x511.7 (1)
0x510|   00                                          | .              |                  n: 0 0x511-0x511.7 (1)
     |                                               |                |                  x[0:0]: 0x512-NA (0)
     |                                               |                |                e[0:2]: 0x512-0x51a.7 (9)
     |                                               |                |                  [0]{}: in 0x512-0x519.7 (8)
0x510|      02                                       |  .             |                    block: 0x2 (valid) 0x512-0x512.7 (1)
0x510|         40                                    |   @            |                    bt: "ε" (64) 0x513-0x513.7 (1)
     |                                               |                |                    instructions[0:3]: 0x514-0x518.7 (5)
     |                                               |                |                      [0]{}: instr 0x514-0x515.7 (2)
0x510|            10                                 |    .           |                        call: 0x10 (valid) 0x514-0x514.7 (1)
0x510|               00                              |     .          |                        x: 0 0x515-0x515.7 (1)
     |                                               |                |                      [1]{}: instr 0x516-0x516.7 (1)
0x510|                  0f                           |      .         |                        return: 0xf (valid) 0x516-0x516.7 (1)
     |                                               |                |                      [2]{}: instr 0x517-0x518.7 (2)
0x510|                     10                        |       .        |                        call: 0x10 (valid) 0x517-0x517.7 (1)
0x510|                        00                     |        .       |                        x: 0 0x518-0x518.7 (1)
0x510|                           0b                  |         .      |                    end: 11 (valid) 0x519-0x519.7 (1)
     |                                               |                |                  [1]{}: in 0x51a-0x51a.7 (1)
0x510|                              0b               |          .     |                    end: 0xb (valid) 0x51a-0x51a.7 (1)
     |                                               |                |            [17]{}: code 0x51b-0x524.7 (10)
0x510|                                 09            |           .    |              size: 9 0x51b-0x51b.7 (1)
     |                                               |                |              code{}: 0x51c-0x524.7 (9)
     |                                               |                |                t{}: 0x51c-0x51c.7 (1)
0x510|                                    00         |            .   |                  n: 0 0x51c-0x51c.7 (1)
     |                                               |                |                  x[0:0]: 0x51d-NA (0)
     |                                               |                |                e[0:2]: 0x51d-0x524.7 (8)
     |                                               |                |                  [0]{}: in 0x51d-0x523.7 (7)
0x510|                                       02      |             .  |                    block: 0x2 (valid) 0x51d-0x51d.7 (1)
0x510|                                          40   |              @ |                    bt: "ε" (64) 0x51e-0x51e.7 (1)
     |                                               |                |                    instructions[0:3]: 0x51f-0x522.7 (4)
     |                                               |                |                      [0]{}: instr 0x51f-0x51f.7 (1)
0x510|                                             01|               .|                        nop: 0x1 (valid) 0x51f-0x51f.7 (1)
     |                                               |                |                      [1]{}: instr 0x520-0x521.7 (2)
0x520|10                                             |.               |                        call: 0x10 (valid) 0x520-0x520.7 (1)
0x520|   00                                          | .              |                        x: 0 0x521-0x521.7 (1)
     |                                               |                |                      [2]{}: instr 0x522-0x522.7 (1)
0x520|      0f                                       |  .             |                        return: 0xf (valid) 0x522-0x522.7 (1)
0x520|         0b                                    |   .            |                    end: 11 (valid) 0x523-0x523.7 (1)
     |                                               |                |                  [1]{}: in 0x524-0x524.7 (1)
0x520|            0b                                 |    .           |                    end: 0xb (valid) 0x524-0x524.7 (1)
     |                                               |                |            [18]{}: code 0x525-0x530.7 (12)
0x520|               0b                              |     .          |              size: 11 0x525-0x525.7 (1)
     |                                               |                |              code{}: 0x526-0x530.7 (11)
     |                                               |                |                t{}: 0x526-0x526.7 (1)
0x520|                  00                           |      .         |                  n: 0 0x526-0x526.7 (1)
     |                                               |                |                  x[0:0]: 0x527-NA (0)
     |                                               |                |                e[0:2]: 0x527-0x530.7 (10)
     |                                               |                |                  [0]{}: in 0x527-0x52f.7 (9)
0x520|                     02                        |       .        |                    block: 0x2 (valid) 0x527-0x527.7 (1)
0x520|                        7f                     |        .       |                    bt: "i32" (127) 0x528-0x528.7 (1)
     |                                               |                |                    instructions[0:4]: 0x529-0x52e.7 (6)
     |                                               |                |                      [0]{}: instr 0x529-0x529.7 (1)
0x520|                           01                  |         .      |                        nop: 0x1 (valid) 0x529-0x529.7 (1)
     |                                               |                |                      [1]{}: instr 0x52a-0x52b.7 (2)
0x520|                              10               |          .     |                        call: 0x10 (valid) 0x52a-0x52a.7 (1)
0x520|                                 00            |           .    |                        x: 0 0x52b-0x52b.7 (1)
     |                                               |                |                      [2]{}: instr 0x52c-0x52d.7 (2)
0x520|                                    41         |            A   |                        i32.const: 0x41 (valid) 0x52c-0x52c.7 (1)
0x520|                                       02      |             .  |                        n: 2 0x52d-0x52d.7 (1)
     |                                               |                |                      [3]{}: instr 0x52e-0x52e.7 (1)
0x520|                                          0f   |              . |                        return: 0xf (valid) 0x52e-0x52e.7 (1)
0x520|                                             0b|               .|                    end: 11 (valid) 0x52f-0x52f.7 (1)
     |                                               |                |                  [1]{}: in 0x530-0x530.7 (1)
0x530|0b                                             |.               |                    end: 0xb (valid) 0x530-0x530.7 (1)
     |                                               |                |            [19]{}: code 0x531-0x53b.7 (11)
0x530|   0a                                          | .              |              size: 10 0x531-0x531.7 (1)
     |                                               |                |              code{}: 0x532-0x53b.7 (10)
     |                                               |                |                t{}: 0x532-0x532.7 (1)
0x530|      00                                       |  .             |                  n: 0 0x532-0x532.7 (1)
     |                                               |                |                  x[0:0]: 0x533-NA (0)
     |                                               |                |                e[0:2]: 0x533-0x53b.7 (9)
     |                                               |                |                  [0]{}: in 0x533-0x53a.7 (8)
0x530|         03                                    |   .            |                    loop: 0x3 (valid) 0x533-0x533.7 (1)
0x530|            7f                                 |    .           |                    bt: "i32" (127) 0x534-0x534.7 (1)
     |                                               |                |                    instructions[0:3]: 0x535-0x539.7 (5)
     |                                               |                |                      [0]{}: instr 0x535-0x536.7 (2)
0x530|               41                              |     A          |                        i32.const: 0x41 (valid) 0x535-0x535.7 (1)
0x530|                  03                           |      .         |                        n: 3 0x536-0x536.7 (1)
     |                                               |                |                      [1]{}: instr 0x537-0x537.7 (1)
0x530|                     0f                        |       .        |                        return: 0xf (valid) 0x537-0x537.7 (1)
     |                                               |                |                      [2]{}: instr 0x538-0x539.7 (2)
0x530|                        41                     |        A       |                        i32.const: 0x41 (valid) 0x538-0x538.7 (1)
0x530|                           02                  |         .      |                        n: 2 0x539-0x539.7 (1)
0x530|                              0b               |          .     |                    end: 11 (valid) 0x53a-0x53a.7 (1)
     |                                               |                |                  [1]{}: in 0x53b-0x53b.7 (1)
0x530|                                 0b            |           .    |                    end: 0xb (valid) 0x53b-0x53b.7 (1)
     |                                               |                |            [20]{}: code 0x53c-0x548.7 (13)
0x530|                                    0c         |            .   |              size: 12 0x53c-0x53c.7 (1)
     |                                               |                |              code{}: 0x53d-0x548.7 (12)
     |                                               |                |                t{}: 0x53d-0x53d.7 (1)
0x530|                                       00      |             .  |                  n: 0 0x53d-0x53d.7 (1)
     |                                               |                |                  x[0:0]: 0x53e-NA (0)
     |                                               |                |                e[0:2]: 0x53e-0x548.7 (11)
     |                                               |                |                  [0]{}: in 0x53e-0x547.7 (10)
0x530|                                          03   |              . |                    loop: 0x3 (valid) 0x53e-0x53e.7 (1)
0x530|                                             7f|               .|                    bt: "i32" (127) 0x53f-0x53f.7 (1)
     |                                               |                |                    instructions[0:4]: 0x540-0x546.7 (7)
     |                                               |                |                      [0]{}: instr 0x540-0x541.7 (2)
0x540|10                                             |.               |                        call: 0x10 (valid) 0x540-0x540.7 (1)
0x540|   00                                          | .              |                        x: 0 0x541-0x541.7 (1)
     |                                               |                |                      [1]{}: instr 0x542-0x543.7 (2)
0x540|      41                                       |  A             |                        i32.const: 0x41 (valid) 0x542-0x542.7 (1)
0x540|         04                                    |   .            |                        n: 4 0x543-0x543.7 (1)
     |                                               |                |                      [2]{}: instr 0x544-0x544.7 (1)
0x540|            0f                                 |    .           |                        return: 0xf (valid) 0x544-0x544.7 (1)
     |                                               |                |                      [3]{}: instr 0x545-0x546.7 (2)
0x540|               41                              |     A          |                        i32.const: 0x41 (valid) 0x545-0x545.7 (1)
0x540|                  02                           |      .         |                        n: 2 0x546-0x546.7 (1)
0x540|                     0b                        |       .        |                    end: 11 (valid) 0x547-0x547.7 (1)
     |                                               |                |                  [1]{}: in 0x548-0x548.7 (1)
0x540|                        0b                     |        .       |                    end: 0xb (valid) 0x548-0x548.7 (1)
     |                                               |                |            [21]{}: code 0x549-0x554.7 (12)
0x540|                           0b                  |         .      |              size: 11 0x549-0x549.7 (1)
     |                                               |                |              code{}: 0x54a-0x554.7 (11)
     |                                               |                |                t{}: 0x54a-0x54a.7 (1)
0x540|                              00               |          .     |                  n: 0 0x54a-0x54a.7 (1)
     |                                               |                |                  x[0:0]: 0x54b-NA (0)
     |                                               |                |                e[0:2]: 0x54b-0x554.7 (10)
     |                                               |                |                  [0]{}: in 0x54b-0x553.7 (9)
0x540|                                 03            |           .    |                    loop: 0x3 (valid) 0x54b-0x54b.7 (1)
0x540|                                    7f         |            .   |                    bt: "i32" (127) 0x54c-0x54c.7 (1)
     |                                               |                |                    instructions[0:4]: 0x54d-0x552.7 (6)
     |                                               |                |                      [0]{}: instr 0x54d-0x54d.7 (1)
0x540|                                       01      |             .  |                        nop: 0x1 (valid) 0x54d-0x54d.7 (1)
     |                                               |                |                      [1]{}: instr 0x54e-0x54f.7 (2)
0x540|                                          10   |              . |                        call: 0x10 (valid) 0x54e-0x54e.7 (1)
0x540|                                             00|               .|                        x: 0 0x54f-0x54f.7 (1)
     |                                               |                |                      [2]{}: instr 0x550-0x551.7 (2)
0x550|41                                             |A               |                        i32.const: 0x41 (valid) 0x550-0x550.7 (1)
0x550|   05                                          | .              |                        n: 5 0x551-0x551.7 (1)
     |                                               |                |                      [3]{}: instr 0x552-0x552.7 (1)
0x550|      0f                                       |  .             |                        return: 0xf (valid) 0x552-0x552.7 (1)
0x550|         0b                                    |   .            |                    end: 11 (valid) 0x553-0x553.7 (1)
     |                                               |                |                  [1]{}: in 0x554-0x554.7 (1)
0x550|            0b                                 |    .           |                    end: 0xb (valid) 0x554-0x554.7 (1)
     |                                               |                |            [22]{}: code 0x555-0x55f.7 (11)
0x550|               0a                              |     .          |              size: 10 0x555-0x555.7 (1)
     |                                               |                |              code{}: 0x556-0x55f.7 (10)
     |                                               |                |                t{}: 0x556-0x556.7 (1)
0x550|                  00                           |      .         |                  n: 0 0x556-0x556.7 (1)
     |                                               |                |                  x[0:0]: 0x557-NA (0)
     |                                               |                |                e[0:2]: 0x557-0x55f.7 (9)
     |                                               |                |                  [0]{}: in 0x557-0x55e.7 (8)
0x550|                     02                        |       .        |                    block: 0x2 (valid) 0x557-0x557.7 (1)
0x550|                        7f                     |        .       |                    bt: "i32" (127) 0x558-0x558.7 (1)
     |                                               |                |                    instructions[0:3]: 0x559-0x55d.7 (5)
     |                                               |                |                      [0]{}: instr 0x559-0x55a.7 (2)
0x550|                           41                  |         A      |                        i32.const: 0x41 (valid) 0x559-0x559.7 (1)
0x550|                              09               |          .     |                        n: 9 0x55a-0x55a.7 (1)
     |                                               |                |                      [1]{}: instr 0x55b-0x55b.7 (1)
0x550|                                 0f            |           .    |                        return: 0xf (valid) 0x55b-0x55b.7 (1)
     |                                               |                |                      [2]{}: instr 0x55c-0x55d.7 (2)
0x550|                                    0c         |            .   |                        br: 0xc (valid) 0x55c-0x55c.7 (1)
0x550|                                       00      |             .  |                        l: 0 0x55d-0x55d.7 (1)
0x550|                                          0b   |              . |                    end: 11 (valid) 0x55e-0x55e.7 (1)
     |                                               |                |                  [1]{}: in 0x55f-0x55f.7 (1)
0x550|                                             0b|               .|                    end: 0xb (valid) 0x55f-0x55f.7 (1)
     |                                               |                |            [23]{}: code 0x560-0x568.7 (9)
0x560|08                                             |.               |              size: 8 0x560-0x560.7 (1)
     |                                               |                |              code{}: 0x561-0x568.7 (8)
     |                                               |                |                t{}: 0x561-0x561.7 (1)
0x560|   00                                          | .              |                  n: 0 0x561-0x561.7 (1)
     |                                               |                |                  x[0:0]: 0x562-NA (0)
     |                                               |                |                e[0:2]: 0x562-0x568.7 (7)
     |                                               |                |                  [0]{}: in 0x562-0x567.7 (6)
0x560|      02                                       |  .             |                    block: 0x2 (valid) 0x562-0x562.7 (1)
0x560|         40                                    |   @            |                    bt: "ε" (64) 0x563-0x563.7 (1)
     |                                               |                |                    instructions[0:2]: 0x564-0x566.7 (3)
     |                                               |                |                      [0]{}: instr 0x564-0x564.7 (1)
0x560|            0f                                 |    .           |                        return: 0xf (valid) 0x564-0x564.7 (1)
     |                                               |                |                      [1]{}: instr 0x565-0x566.7 (2)
0x560|               0d                              |     .          |                        br_if: 0xd (valid) 0x565-0x565.7 (1)
0x560|                  00                           |      .         |                        l: 0 0x566-0x566.7 (1)
0x560|                     0b                        |       .        |                    end: 11 (valid) 0x567-0x567.7 (1)
     |                                               |                |                  [1]{}: in 0x568-0x568.7 (1)
0x560|                        0b                     |        .       |                    end: 0xb (valid) 0x568-0x568.7 (1)
     |                                               |                |            [24]{}: code 0x569-0x578.7 (16)
0x560|                           0f                  |         .      |              size: 15 0x569-0x569.7 (1)
     |                                               |                |              code{}: 0x56a-0x578.7 (15)
     |                                               |                |                t{}: 0x56a-0x56a.7 (1)
0x560|                              00               |          .     |                  n: 0 0x56a-0x56a.7 (1)
     |                                               |                |                  x[0:0]: 0x56b-NA (0)
     |                                               |                |                e[0:2]: 0x56b-0x578.7 (14)
     |                                               |                |                  [0]{}: in 0x56b-0x577.7 (13)
0x560|                                 02            |           .    |                    block: 0x2 (valid) 0x56b-0x56b.7 (1)
0x560|                                    7f         |            .   |                    bt: "i32" (127) 0x56c-0x56c.7 (1)
     |                                               |                |                    instructions[0:6]: 0x56d-0x576.7 (10)
     |                                               |                |                      [0]{}: instr 0x56d-0x56e.7 (2)
0x560|                                       41      |             A  |                        i32.const: 0x41 (valid) 0x56d-0x56d.7 (1)
0x560|                                          08   |              . |                        n: 8 0x56e-0x56e.7 (1)
     |                                               |                |                      [1]{}: instr 0x56f-0x56f.7 (1)
0x560|                                             0f|               .|                        return: 0xf (valid) 0x56f-0x56f.7 (1)
     |                                               |                |                      [2]{}: instr 0x570-0x571.7 (2)
0x570|41                                             |A               |                        i32.const: 0x41 (valid) 0x570-0x570.7 (1)
0x570|   01                                          | .              |                        n: 1 0x571-0x571.7 (1)
     |                                               |                |                      [3]{}: instr 0x572-0x573.7 (2)
0x570|      0d                                       |  .             |                        br_if: 0xd (valid) 0x572-0x572.7 (1)
0x570|         00                                    |   .            |                        l: 0 0x573-0x573.7 (1)
     |                                               |                |                      [4]{}: instr 0x574-0x574.7 (1)
0x570|            1a                                 |    .           |                        drop: 0x1a (valid) 0x574-0x574.7 (1)
     |                                               |                |                      [5]{}: instr 0x575-0x576.7 (2)
0x570|               41                              |     A          |                        i32.const: 0x41 (valid) 0x575-0x575.7 (1)
0x570|                  07                           |      .         |                        n: 7 0x576-0x576.7 (1)
0x570|                     0b                        |       .        |                    end: 11 (valid) 0x577-0x577.7 (1)
     |                                               |                |                  [1]{}: in 0x578-0x578.7 (1)
0x570|                        0b                     |        .       |                    end: 0xb (valid) 0x578-0x578.7 (1)
     |                                               |                |            [25]{}: code 0x579-0x588.7 (16)
0x570|                           0f                  |         .      |              size: 15 0x579-0x579.7 (1)
     |                                               |                |              code{}: 0x57a-0x588.7 (15)
     |                                               |                |                t{}: 0x57a-0x57a.7 (1)
0x570|                              00               |          .     |                  n: 0 0x57a-0x57a.7 (1)
     |                                               |                |                  x[0:0]: 0x57b-NA (0)
     |                                               |                |                e[0:2]: 0x57b-0x588.7 (14)
     |                                               |                |                  [0]{}: in 0x57b-0x587.7 (13)
0x570|                                 02            |           .    |                    block: 0x2 (valid) 0x57b-0x57b.7 (1)
0x570|                                    7f         |            .   |                    bt: "i32" (127) 0x57c-0x57c.7 (1)
     |                                               |                |                    instructions[0:6]: 0x57d-0x586.7 (10)
     |                                               |                |                      [0]{}: instr 0x57d-0x57e.7 (2)
0x570|                                       41      |             A  |                        i32.const: 0x41 (valid) 0x57d-0x57d.7 (1)
0x570|                                          06   |              . |                        n: 6 0x57e-0x57e.7 (1)
     |                                               |                |                      [1]{}: instr 0x57f-0x580.7 (2)
0x570|                                             41|               A|                        i32.const: 0x41 (valid) 0x57f-0x57f.7 (1)
0x580|09                                             |.               |                        n: 9 0x580-0x580.7 (1)
     |                                               |                |                      [2]{}: instr 0x581-0x581.7 (1)
0x580|   0f                                          | .              |                        return: 0xf (valid) 0x581-0x581.7 (1)
     |                                               |                |                      [3]{}: instr 0x582-0x583.7 (2)
0x580|      0d                                       |  .             |                        br_if: 0xd (valid) 0x582-0x582.7 (1)
0x580|         00                                    |   .            |                        l: 0 0x583-0x583.7 (1)
     |                                               |                |                      [4]{}: instr 0x584-0x584.7 (1)
0x580|            1a                                 |    .           |                        drop: 0x1a (valid) 0x584-0x584.7 (1)
     |                                               |                |                      [5]{}: instr 0x585-0x586.7 (2)
0x580|               41                              |     A          |                        i32.const: 0x41 (valid) 0x585-0x585.7 (1)
0x580|                  07                           |      .         |                        n: 7 0x586-0x586.7 (1)
0x580|                     0b                        |       .        |                    end: 11 (valid) 0x587-0x587.7 (1)
     |                                               |                |                  [1]{}: in 0x588-0x588.7 (1)
0x580|                        0b                     |        .       |                    end: 0xb (valid) 0x588-0x588.7 (1)
     |                                               |                |            [26]{}: code 0x589-0x598.7 (16)
0x580|                           0f                  |         .      |              size: 15 0x589-0x589.7 (1)
     |                                               |                |              code{}: 0x58a-0x598.7 (15)
     |                                               |                |                t{}: 0x58a-0x58a.7 (1)
0x580|                              00               |          .     |                  n: 0 0x58a-0x58a.7 (1)
     |                                               |                |                  x[0:0]: 0x58b-NA (0)
     |                                               |                |                e[0:3]: 0x58b-0x598.7 (14)
     |                                               |                |                  [0]{}: in 0x58b-0x595.7 (11)
0x580|                                 02            |           .    |                    block: 0x2 (valid) 0x58b-0x58b.7 (1)
0x580|                                    40         |            @   |                    bt: "ε" (64) 0x58c-0x58c.7 (1)
     |                                               |                |                    instructions[0:3]: 0x58d-0x594.7 (8)
     |                                               |                |                      [0]{}: instr 0x58d-0x58e.7 (2)
0x580|                                       42      |             B  |                        i64.const: 0x42 (valid) 0x58d-0x58d.7 (1)
0x580|                                          09   |              . |                        n: 9 0x58e-0x58e.7 (1)
     |                                               |                |                      [1]{}: instr 0x58f-0x58f.7 (1)
0x580|                                             0f|               .|                        return: 0xf (valid) 0x58f-0x58f.7 (1)
     |                                               |                |                      [2]{}: instr 0x590-0x594.7 (5)
0x590|0e                                             |.               |                        br_table: 0xe (valid) 0x590-0x590.7 (1)
     |                                               |                |                        l{}: 0x591-0x593.7 (3)
0x590|   02                                          | .              |                          n: 2 0x591-0x591.7 (1)
     |                                               |                |                          x[0:2]: 0x592-0x593.7 (2)
0x590|      00                                       |  .             |                            [0]: 0 l 0x592-0x592.7 (1)
0x590|         00                                    |   .            |                            [1]: 0 l 0x593-0x593.7 (1)
0x590|            00                                 |    .           |                        lN: 0 0x594-0x594.7 (1)
0x590|               0b                              |     .          |                    end: 11 (valid) 0x595-0x595.7 (1)
     |                                               |                |                  [1]{}: in 0x596-0x597.7 (2)
0x590|                  42                           |      B         |                    i64.const: 0x42 (valid) 0x596-0x596.7 (1)
0x590|                     7f                        |       .        |                    n: -1 0x597-0x597.7 (1)
     |                                               |                |                  [2]{}: in 0x598-0x598.7 (1)
0x590|                        0b                     |        .       |                    end: 0xb (valid) 0x598-0x598.7 (1)
     |                                               |                |            [27]{}: code 0x599-0x5aa.7 (18)
0x590|                           11                  |         .      |              size: 17 0x599-0x599.7 (1)
     |                                               |                |              code{}: 0x59a-0x5aa.7 (17)
     |                                               |                |                t{}: 0x59a-0x59a.7 (1)
0x590|                              00               |          .     |                  n: 0 0x59a-0x59a.7 (1)
     |                                               |                |                  x[0:0]: 0x59b-NA (0)
     |                                               |                |                e[0:2]: 0x59b-0x5aa.7 (16)
     |                                               |                |                  [0]{}: in 0x59b-0x5a9.7 (15)
0x590|                                 02            |           .    |                    block: 0x2 (valid) 0x59b-0x59b.7 (1)
0x590|                                    7f         |            .   |                    bt: "i32" (127) 0x59c-0x59c.7 (1)
     |                                               |                |                    instructions[0:5]: 0x59d-0x5a8.7 (12)
     |                                               |                |                      [0]{}: instr 0x59d-0x59e.7 (2)
0x590|                                       41      |             A  |                        i32.const: 0x41 (valid) 0x59d-0x59d.7 (1)
0x590|                                          0a   |              . |                        n: 10 0x59e-0x59e.7 (1)
     |                                               |                |                      [1]{}: instr 0x59f-0x59f.7 (1)
0x590|                                             0f|               .|                        return: 0xf (valid) 0x59f-0x59f.7 (1)
     |                                               |                |                      [2]{}: instr 0x5a0-0x5a1.7 (2)
0x5a0|41                                             |A               |                        i32.const: 0x41 (valid) 0x5a0-0x5a0.7 (1)
0x5a0|   01                                          | .              |                        n: 1 0x5a1-0x5a1.7 (1)
     |                                               |                |                      [3]{}: instr 0x5a2-0x5a6.7 (5)
0x5a0|      0e                                       |  .             |                        br_table: 0xe (valid) 0x5a2-0x5a2.7 (1)
     |                                               |                |                        l{}: 0x5a3-0x5a5.7 (3)
0x5a0|         02                                    |   .            |                          n: 2 0x5a3-0x5a3.7 (1)
     |                                               |                |                          x[0:2]: 0x5a4-0x5a5.7 (2)
0x5a0|            00                                 |    .           |                            [0]: 0 l 0x5a4-0x5a4.7 (1)
0x5a0|               00                              |     .          |                            [1]: 0 l 0x5a5-0x5a5.7 (1)
0x5a0|                  00                           |      .         |                        lN: 0 0x5a6-0x5a6.7 (1)
     |                                               |                |                      [4]{}: instr 0x5a7-0x5a8.7 (2)
0x5a0|                     41                        |       A        |                        i32.const: 0x41 (valid) 0x5a7-0x5a7.7 (1)
0x5a0|                        07                     |        .       |                        n: 7 0x5a8-0x5a8.7 (1)
0x5a0|                           0b                  |         .      |                    end: 11 (valid) 0x5a9-0x5a9.7 (1)
     |                                               |                |                  [1]{}: in 0x5aa-0x5aa.7 (1)
0x5a0|                              0b               |          .     |                    end: 0xb (valid) 0x5aa-0x5aa.7 (1)
     |                                               |                |            [28]{}: code 0x5ab-0x5bb.7 (17)
0x5a0|                                 10            |           .    |              size: 16 0x5ab-0x5ab.7 (1)
     |                                               |                |              code{}: 0x5ac-0x5bb.7 (16)
     |                                               |                |                t{}: 0x5ac-0x5ac.7 (1)
0x5a0|                                    00         |            .   |                  n: 0 0x5ac-0x5ac.7 (1)
     |                                               |                |                  x[0:0]: 0x5ad-NA (0)
     |                                               |                |                e[0:2]: 0x5ad-0x5bb.7 (15)
     |                                               |                |                  [0]{}: in 0x5ad-0x5ba.7 (14)
0x5a0|                                       02      |             .  |                    block: 0x2 (valid) 0x5ad-0x5ad.7 (1)
0x5a0|                                          7f   |              . |                    bt: "i32" (127) 0x5ae-0x5ae.7 (1)
     |                                               |                |                    instructions[0:5]: 0x5af-0x5b9.7 (11)
     |                                               |                |                      [0]{}: instr 0x5af-0x5b0.7 (2)
0x5a0|                                             41|               A|                        i32.const: 0x41 (valid) 0x5af-0x5af.7 (1)
0x5b0|06                                             |.               |                        n: 6 0x5b0-0x5b0.7 (1)
     |                                               |                |                      [1]{}: instr 0x5b1-0x5b2.7 (2)
0x5b0|   41                                          | A              |                        i32.const: 0x41 (valid) 0x5b1-0x5b1.7 (1)
0x5b0|      0b                                       |  .             |                        n: 11 0x5b2-0x5b2.7 (1)
     |                                               |                |                      [2]{}: instr 0x5b3-0x5b3.7 (1)
0x5b0|         0f                                    |   .            |                        return: 0xf (valid) 0x5b3-0x5b3.7 (1)
     |                                               |                |                      [3]{}: instr 0x5b4-0x5b7.7 (4)
0x5b0|            0e                                 |    .           |                        br_table: 0xe (valid) 0x5b4-0x5b4.7 (1)
     |                                               |                |                        l{}: 0x5b5-0x5b6.7 (2)
0x5b0|               01                              |     .          |                          n: 1 0x5b5-0x5b5.7 (1)
     |                                               |                |                          x[0:1]: 0x5b6-0x5b6.7 (1)
0x5b0|                  00                           |      .         |                            [0]: 0 l 0x5b6-0x5b6.7 (1)
0x5b0|                     00                        |       .        |                        lN: 0 0x5b7-0x5b7.7 (1)
     |                                               |                |                      [4]{}: instr 0x5b8-0x5b9.7 (2)
0x5b0|                        41                     |        A       |                        i32.const: 0x41 (valid) 0x5b8-0x5b8.7 (1)
0x5b0|                           07                  |         .      |                        n: 7 0x5b9-0x5b9.7 (1)
0x5b0|                              0b               |          .     |                    end: 11 (valid) 0x5ba-0x5ba.7 (1)
     |                                               |                |                  [1]{}: in 0x5bb-0x5bb.7 (1)
0x5b0|                                 0b            |           .    |                    end: 0xb (valid) 0x5bb-0x5bb.7 (1)
     |                                               |                |            [29]{}: code 0x5bc-0x5c2.7 (7)
0x5b0|                                    06         |            .   |              size: 6 0x5bc-0x5bc.7 (1)
     |                                               |                |              code{}: 0x5bd-0x5c2.7 (6)
     |                                               |                |                t{}: 0x5bd-0x5bd.7 (1)
0x5b0|                                       00      |             .  |                  n: 0 0x5bd-0x5bd.7 (1)
     |                                               |                |                  x[0:0]: 0x5be-NA (0)
     |                                               |                |                e[0:4]: 0x5be-0x5c2.7 (5)
     |                                               |                |                  [0]{}: in 0x5be-0x5bf.7 (2)
0x5b0|                                          42   |              B |                    i64.const: 0x42 (valid) 0x5be-0x5be.7 (1)
0x5b0|                                             07|               .|                    n: 7 0x5bf-0x5bf.7 (1)
     |                                               |                |                  [1]{}: in 0x5c0-0x5c0.7 (1)
0x5c0|0f                                             |.               |                    return: 0xf (valid) 0x5c0-0x5c0.7 (1)
     |                                               |                |                  [2]{}: in 0x5c1-0x5c1.7 (1)
0x5c0|   0f                                          | .              |                    return: 0xf (valid) 0x5c1-0x5c1.7 (1)
     |                                               |                |                  [3]{}: in 0x5c2-0x5c2.7 (1)
0x5c0|      0b                                       |  .             |                    end: 0xb (valid) 0x5c2-0x5c2.7 (1)
     |                                               |                |            [30]{}: code 0x5c3-0x5d0.7 (14)
0x5c0|         0d                                    |   .            |              size: 13 0x5c3-0x5c3.7 (1)
     |                                               |                |              code{}: 0x5c4-0x5d0.7 (13)
     |                                               |                |                t{}: 0x5c4-0x5c4.7 (1)
0x5c0|            00                                 |    .           |                  n: 0 0x5c4-0x5c4.7 (1)
     |                                               |                |                  x[0:0]: 0x5c5-NA (0)
     |                                               |                |                e[0:4]: 0x5c5-0x5d0.7 (12)
     |                                               |                |                  [0]{}: in 0x5c5-0x5c6.7 (2)
0x5c0|               41                              |     A          |                    i32.const: 0x41 (valid) 0x5c5-0x5c5.7 (1)
0x5c0|                  02                           |      .         |                    n: 2 0x5c6-0x5c6.7 (1)
     |                                               |                |                  [1]{}: in 0x5c7-0x5c7.7 (1)
0x5c0|                     0f                        |       .        |                    return: 0xf (valid) 0x5c7-0x5c7.7 (1)
     |                                               |                |                  [2]{}: in 0x5c8-0x5cf.7 (8)
0x5c0|                        04                     |        .       |                    if: 0x4 (valid) 0x5c8-0x5c8.7 (1)
0x5c0|                           7f                  |         .      |                    bt: "i32" (127) 0x5c9-0x5c9.7 (1)
     |                                               |                |                    in1[0:1]: 0x5ca-0x5cb.7 (2)
     |                                               |                |                      [0]{}: instr 0x5ca-0x5cb.7 (2)
0x5c0|                              41               |          A     |                        i32.const: 0x41 (valid) 0x5ca-0x5ca.7 (1)
0x5c0|                                 00            |           .    |                        n: 0 0x5cb-0x5cb.7 (1)
0x5c0|                                    05         |            .   |                    else: 0x5 (valid) 0x5cc-0x5cc.7 (1)
     |                                               |                |                    in2[0:1]: 0x5cd-0x5ce.7 (2)
     |                                               |                |                      [0]{}: instr 0x5cd-0x5ce.7 (2)
0x5c0|                                       41      |             A  |                        i32.const: 0x41 (valid) 0x5cd-0x5cd.7 (1)
0x5c0|                                          01   |              . |                        n: 1 0x5ce-0x5ce.7 (1)
0x5c0|                                             0b|               .|                    end: 11 (valid) 0x5cf-0x5cf.7 (1)
     |                                               |                |                  [3]{}: in 0x5d0-0x5d0.7 (1)
0x5d0|0b                                             |.               |                    end: 0xb (valid) 0x5d0-0x5d0.7 (1)
     |                                               |                |            [31]{}: code 0x5d1-0x5de.7 (14)
0x5d0|   0d                                          | .              |              size: 13 0x5d1-0x5d1.7 (1)
     |                                               |                |              code{}: 0x5d2-0x5de.7 (13)
     |                                               |                |                t{}: 0x5d2-0x5d2.7 (1)
0x5d0|      00                                       |  .             |                  n: 0 0x5d2-0x5d2.7 (1)
     |                                               |                |                  x[0:0]: 0x5d3-NA (0)
     |                                               |                |                e[0:3]: 0x5d3-0x5de.7 (12)
     |                                               |                |                  [0]{}: in 0x5d3-0x5d4.7 (2)
0x5d0|         20                                    |                |                    local.get: 0x20 (valid) 0x5d3-0x5d3.7 (1)
0x5d0|            00                                 |    .           |                    x: 0 0x5d4-0x5d4.7 (1)
     |                                               |                |                  [1]{}: in 0x5d5-0x5dd.7 (9)
0x5d0|               04                              |     .          |                    if: 0x4 (valid) 0x5d5-0x5d5.7 (1)
0x5d0|                  7f                           |      .         |                    bt: "i32" (127) 0x5d6-0x5d6.7 (1)
     |                                               |                |                    in1[0:2]: 0x5d7-0x5d9.7 (3)
     |                                               |                |                      [0]{}: instr 0x5d7-0x5d8.7 (2)
0x5d0|                     41                        |       A        |                        i32.const: 0x41 (valid) 0x5d7-0x5d7.7 (1)
0x5d0|                        03                     |        .       |                        n: 3 0x5d8-0x5d8.7 (1)
     |                                               |                |                      [1]{}: instr 0x5d9-0x5d9.7 (1)
0x5d0|                           0f                  |         .      |                        return: 0xf (valid) 0x5d9-0x5d9.7 (1)
0x5d0|                              05               |          .     |                    else: 0x5 (valid) 0x5da-0x5da.7 (1)
     |                                               |                |                    in2[0:1]: 0x5db-0x5dc.7 (2)
     |                                               |                |                      [0]{}: instr 0x5db-0x5dc.7 (2)
0x5d0|                                 20            |                |                        local.get: 0x20 (valid) 0x5db-0x5db.7 (1)
0x5d0|                                    01         |            .   |                        x: 1 0x5dc-0x5dc.7 (1)
0x5d0|                                       0b      |             .  |                    end: 11 (valid) 0x5dd-0x5dd.7 (1)
     |                                               |                |                  [2]{}: in 0x5de-0x5de.7 (1)
0x5d0|                                          0b   |              . |                    end: 0xb (valid) 0x5de-0x5de.7 (1)
     |                                               |                |            [32]{}: code 0x5df-0x5ec.7 (14)
0x5d0|                                             0d|               .|              size: 13 0x5df-0x5df.7 (1)
     |                                               |                |              code{}: 0x5e0-0x5ec.7 (13)
     |                                               |                |                t{}: 0x5e0-0x5e0.7 (1)
0x5e0|00                                             |.               |                  n: 0 0x5e0-0x5e0.7 (1)
     |                                               |                |                  x[0:0]: 0x5e1-NA (0)
     |                                               |                |                e[0:3]: 0x5e1-0x5ec.7 (12)
     |                                               |                |                  [0]{}: in 0x5e1-0x5e2.7 (2)
0x5e0|   20                                          |                |                    local.get: 0x20 (valid) 0x5e1-0x5e1.7 (1)
0x5e0|      00                                       |  .             |                    x: 0 0x5e2-0x5e2.7 (1)
     |                                               |                |                  [1]{}: in 0x5e3-0x5eb.7 (9)
0x5e0|         04                                    |   .            |                    if: 0x4 (valid) 0x5e3-0x5e3.7 (1)
0x5e0|            7f                                 |    .           |                    bt: "i32" (127) 0x5e4-0x5e4.7 (1)
     |                                               |                |                    in1[0:1]: 0x5e5-0x5e6.7 (2)
     |                                               |                |                      [0]{}: instr 0x5e5-0x5e6.7 (2)
0x5e0|               20                              |                |                        local.get: 0x20 (valid) 0x5e5-0x5e5.7 (1)
0x5e0|                  01                           |      .         |                        x: 1 0x5e6-0x5e6.7 (1)
0x5e0|                     05                        |       .        |                    else: 0x5 (valid) 0x5e7-0x5e7.7 (1)
     |                                               |                |                    in2[0:2]: 0x5e8-0x5ea.7 (3)
     |                                               |                |                      [0]{}: instr 0x5e8-0x5e9.7 (2)
0x5e0|                        41                     |        A       |                        i32.const: 0x41 (valid) 0x5e8-0x5e8.7 (1)
0x5e0|                           04                  |         .      |                        n: 4 0x5e9-0x5e9.7 (1)
     |                                               |                |                      [1]{}: instr 0x5ea-0x5ea.7 (1)
0x5e0|                              0f               |          .     |                        return: 0xf (valid) 0x5ea-0x5ea.7 (1)
0x5e0|                                 0b            |           .    |                    end: 11 (valid) 0x5eb-0x5eb.7 (1)
     |                                               |                |                  [2]{}: in 0x5ec-0x5ec.7 (1)
0x5e0|                                    0b         |            .   |                    end: 0xb (valid) 0x5ec-0x5ec.7 (1)
     |                                               |                |            [33]{}: code 0x5ed-0x5f7.7 (11)
0x5e0|                                       0a      |             .  |              size: 10 0x5ed-0x5ed.7 (1)
     |                                               |                |              code{}: 0x5ee-0x5f7.7 (10)
     |                                               |                |                t{}: 0x5ee-0x5ee.7 (1)
0x5e0|                                          00   |              . |                  n: 0 0x5ee-0x5ee.7 (1)
     |                                               |                |                  x[0:0]: 0x5ef-NA (0)
     |                                               |                |                e[0:6]: 0x5ef-0x5f7.7 (9)
     |                                               |                |                  [0]{}: in 0x5ef-0x5f0.7 (2)
0x5e0|                                             41|               A|                    i32.const: 0x41 (valid) 0x5ef-0x5ef.7 (1)
0x5f0|05                                             |.               |                    n: 5 0x5f0-0x5f0.7 (1)
     |                                               |                |                  [1]{}: in 0x5f1-0x5f1.7 (1)
0x5f0|   0f                                          | .              |                    return: 0xf (valid) 0x5f1-0x5f1.7 (1)
     |                                               |                |                  [2]{}: in 0x5f2-0x5f3.7 (2)
0x5f0|      20                                       |                |                    local.get: 0x20 (valid) 0x5f2-0x5f2.7 (1)
0x5f0|         00                                    |   .            |                    x: 0 0x5f3-0x5f3.7 (1)
     |                                               |                |                  [3]{}: in 0x5f4-0x5f5.7 (2)
0x5f0|            20                                 |                |                    local.get: 0x20 (valid) 0x5f4-0x5f4.7 (1)
0x5f0|               01                              |     .          |                    x: 1 0x5f5-0x5f5.7 (1)
     |                                               |                |                  [4]{}: in 0x5f6-0x5f6.7 (1)
0x5f0|                  1b                           |      .         |                    select: 0x1b (valid) 0x5f6-0x5f6.7 (1)
     |                                               |                |                  [5]{}: in 0x5f7-0x5f7.7 (1)
0x5f0|                     0b                        |       .        |                    end: 0xb (valid) 0x5f7-0x5f7.7 (1)
     |                                               |                |            [34]{}: code 0x5f8-0x602.7 (11)
0x5f0|                        0a                     |        .       |              size: 10 0x5f8-0x5f8.7 (1)
     |                                               |                |              code{}: 0x5f9-0x602.7 (10)
     |                                               |                |                t{}: 0x5f9-0x5f9.7 (1)
0x5f0|                           00                  |         .      |                  n: 0 0x5f9-0x5f9.7 (1)
     |                                               |                |                  x[0:0]: 0x5fa-NA (0)
     |                                               |                |                e[0:6]: 0x5fa-0x602.7 (9)
     |                                               |                |                  [0]{}: in 0x5fa-0x5fb.7 (2)
0x5f0|                              20               |                |                    local.get: 0x20 (valid) 0x5fa-0x5fa.7 (1)
0x5f0|                                 00            |           .    |                    x: 0 0x5fb-0x5fb.7 (1)
     |                                               |                |                  [1]{}: in 0x5fc-0x5fd.7 (2)
0x5f0|                                    41         |            A   |                    i32.const: 0x41 (valid) 0x5fc-0x5fc.7 (1)
0x5f0|                                       06      |             .  |                    n: 6 0x5fd-0x5fd.7 (1)
     |                                               |                |                  [2]{}: in 0x5fe-0x5fe.7 (1)
0x5f0|                                          0f   |              . |                    return: 0xf (valid) 0x5fe-0x5fe.7 (1)
     |                                               |                |                  [3]{}: in 0x5ff-0x600.7 (2)
0x5f0|                                             20|                |                    local.get: 0x20 (valid) 0x5ff-0x5ff.7 (1)
0x600|01                                             |.               |                    x: 1 0x600-0x600.7 (1)
     |                                               |                |                  [4]{}: in 0x601-0x601.7 (1)
0x600|   1b                                          | .              |                    select: 0x1b (valid) 0x601-0x601.7 (1)
     |                                               |                |                  [5]{}: in 0x602-0x602.7 (1)
0x600|      0b                                       |  .             |                    end: 0xb (valid) 0x602-0x602.7 (1)
     |                                               |                |            [35]{}: code 0x603-0x60d.7 (11)
0x600|         0a                                    |   .            |              size: 10 0x603-0x603.7 (1)
     |                                               |                |              code{}: 0x604-0x60d.7 (10)
     |                                               |                |                t{}: 0x604-0x604.7 (1)
0x600|            00                                 |    .           |                  n: 0 0x604-0x604.7 (1)
     |                                               |                |                  x[0:0]: 0x605-NA (0)
     |                                               |                |                e[0:6]: 0x605-0x60d.7 (9)
     |                                               |                |                  [0]{}: in 0x605-0x606.7 (2)
0x600|               41                              |     A          |                    i32.const: 0x41 (valid) 0x605-0x605.7 (1)
0x600|                  00                           |      .         |                    n: 0 0x606-0x606.7 (1)
     |                                               |                |                  [1]{}: in 0x607-0x608.7 (2)
0x600|                     41                        |       A        |                    i32.const: 0x41 (valid) 0x607-0x607.7 (1)
0x600|                        01                     |        .       |                    n: 1 0x608-0x608.7 (1)
     |                                               |                |                  [2]{}: in 0x609-0x60a.7 (2)
0x600|                           41                  |         A      |                    i32.const: 0x41 (valid) 0x609-0x609.7 (1)
0x600|                              07               |          .     |                    n: 7 0x60a-0x60a.7 (1)
     |                                               |                |                  [3]{}: in 0x60b-0x60b.7 (1)
0x600|                                 0f            |           .    |                    return: 0xf (valid) 0x60b-0x60b.7 (1)
     |                                               |                |                  [4]{}: in 0x60c-0x60c.7 (1)
0x600|                                    1b         |            .   |                    select: 0x1b (valid) 0x60c-0x60c.7 (1)
     |                                               |                |                  [5]{}: in 0x60d-0x60d.7 (1)
0x600|                                       0b      |             .  |                    end: 0xb (valid) 0x60d-0x60d.7 (1)
     |                                               |                |            [36]{}: code 0x60e-0x612.7 (5)
0x600|                                          04   |              . |              size: 4 0x60e-0x60e.7 (1)
     |                                               |                |              code{}: 0x60f-0x612.7 (4)
     |                                               |                |                t{}: 0x60f-0x60f.7 (1)
0x600|                                             00|               .|                  n: 0 0x60f-0x60f.7 (1)
     |                                               |                |                  x[0:0]: 0x610-NA (0)
     |                                               |                |                e[0:2]: 0x610-0x612.7 (3)
     |                                               |                |                  [0]{}: in 0x610-0x611.7 (2)
0x610|41                                             |A               |                    i32.const: 0x41 (valid) 0x610-0x610.7 (1)
0x610|   7f                                          | .              |                    n: -1 0x611-0x611.7 (1)
     |                                               |                |                  [1]{}: in 0x612-0x612.7 (1)
0x610|      0b                                       |  .             |                    end: 0xb (valid) 0x612-0x612.7 (1)
     |                                               |                |            [37]{}: code 0x613-0x61e.7 (12)
0x610|         0b                                    |   .            |              size: 11 0x613-0x613.7 (1)
     |                                               |                |              code{}: 0x614-0x61e.7 (11)
     |                                               |                |                t{}: 0x614-0x614.7 (1)
0x610|            00                                 |    .           |                  n: 0 0x614-0x614.7 (1)
     |                                               |                |                  x[0:0]: 0x615-NA (0)
     |                                               |                |                e[0:6]: 0x615-0x61e.7 (10)
     |                                               |                |                  [0]{}: in 0x615-0x616.7 (2)
0x610|               41                              |     A          |                    i32.const: 0x41 (valid) 0x615-0x615.7 (1)
0x610|                  0c                           |      .         |                    n: 12 0x616-0x616.7 (1)
     |                                               |                |                  [1]{}: in 0x617-0x617.7 (1)
0x610|                     0f                        |       .        |                    return: 0xf (valid) 0x617-0x617.7 (1)
     |                                               |                |                  [2]{}: in 0x618-0x619.7 (2)
0x610|                        41                     |        A       |                    i32.const: 0x41 (valid) 0x618-0x618.7 (1)
0x610|                           02                  |         .      |                    n: 2 0x619-0x619.7 (1)
     |                                               |                |                  [3]{}: in 0x61a-0x61b.7 (2)
0x610|                              41               |          A     |                    i32.const: 0x41 (valid) 0x61a-0x61a.7 (1)
0x610|                                 03            |           .    |                    n: 3 0x61b-0x61b.7 (1)
     |                                               |                |                  [4]{}: in 0x61c-0x61d.7 (2)
0x610|                                    10         |            .   |                    call: 0x10 (valid) 0x61c-0x61c.7 (1)
0x610|                                       24      |             $  |                    x: 36 0x61d-0x61d.7 (1)
     |                                               |                |                  [5]{}: in 0x61e-0x61e.7 (1)
0x610|                                          0b   |              . |                    end: 0xb (valid) 0x61e-0x61e.7 (1)
     |                                               |                |            [38]{}: code 0x61f-0x62a.7 (12)
0x610|                                             0b|               .|              size: 11 0x61f-0x61f.7 (1)
     |                                               |                |              code{}: 0x620-0x62a.7 (11)
     |                                               |                |                t{}: 0x620-0x620.7 (1)
0x620|00                                             |.               |                  n: 0 0x620-0x620.7 (1)
     |                                               |                |                  x[0:0]: 0x621-NA (0)
     |                                               |                |                e[0:6]: 0x621-0x62a.7 (10)
     |                                               |                |                  [0]{}: in 0x621-0x622.7 (2)
0x620|   41                                          | A              |                    i32.const: 0x41 (valid) 0x621-0x621.7 (1)
0x620|      01                                       |  .             |                    n: 1 0x622-0x622.7 (1)
     |                                               |                |                  [1]{}: in 0x623-0x624.7 (2)
0x620|         41                                    |   A            |                    i32.const: 0x41 (valid) 0x623-0x623.7 (1)
0x620|            0d                                 |    .           |                    n: 13 0x624-0x624.7 (1)
     |                                               |                |                  [2]{}: in 0x625-0x625.7 (1)
0x620|               0f                              |     .          |                    return: 0xf (valid) 0x625-0x625.7 (1)
     |                                               |                |                  [3]{}: in 0x626-0x627.7 (2)
0x620|                  41                           |      A         |                    i32.const: 0x41 (valid) 0x626-0x626.7 (1)
0x620|                     03                        |       .        |                    n: 3 0x627-0x627.7 (1)
     |                                               |                |                  [4]{}: in 0x628-0x629.7 (2)
0x620|                        10                     |        .       |                    call: 0x10 (valid) 0x628-0x628.7 (1)
0x620|                           24                  |         $      |                    x: 36 0x629-0x629.7 (1)
     |                                               |                |                  [5]{}: in 0x62a-0x62a.7 (1)
0x620|                              0b               |          .     |                    end: 0xb (valid) 0x62a-0x62a.7 (1)
     |                                               |                |            [39]{}: code 0x62b-0x636.7 (12)
0x620|                                 0b            |           .    |              size: 11 0x62b-0x62b.7 (1)
     |                                               |                |              code{}: 0x62c-0x636.7 (11)
     |                                               |                |                t{}: 0x62c-0x62c.7 (1)
0x620|                                    00         |            .   |                  n: 0 0x62c-0x62c.7 (1)
     |                                               |                |                  x[0:0]: 0x62d-NA (0)
     |                                               |                |                e[0:6]: 0x62d-0x636.7 (10)
     |                                               |                |                  [0]{}: in 0x62d-0x62e.7 (2)
0x620|                                       41      |             A  |                    i32.const: 0x41 (valid) 0x62d-0x62d.7 (1)
0x620|                                          01   |              . |                    n: 1 0x62e-0x62e.7 (1)
     |                                               |                |                  [1]{}: in 0x62f-0x630.7 (2)
0x620|                                             41|               A|                    i32.const: 0x41 (valid) 0x62f-0x62f.7 (1)
0x630|02                                             |.               |                    n: 2 0x630-0x630.7 (1)
     |                                               |                |                  [2]{}: in 0x631-0x632.7 (2)
0x630|   41                                          | A              |                    i32.const: 0x41 (valid) 0x631-0x631.7 (1)
0x630|      0e                                       |  .             |                    n: 14 0x632-0x632.7 (1)
     |                                               |                |                  [3]{}: in 0x633-0x633.7 (1)
0x630|         0f                                    |   .            |                    return: 0xf (valid) 0x633-0x633.7 (1)
     |                                               |                |                  [4]{}: in 0x634-0x635.7 (2)
0x630|            10                                 |    .           |                    call: 0x10 (valid) 0x634-0x634.7 (1)
0x630|               24                              |     $          |                    x: 36 0x635-0x635.7 (1)
     |                                               |                |                  [5]{}: in 0x636-0x636.7 (1)
0x630|                  0b                           |      .         |                    end: 0xb (valid) 0x636-0x636.7 (1)
     |                                               |                |            [40]{}: code 0x637-0x645.7 (15)
0x630|                     0e                        |       .        |              size: 14 0x637-0x637.7 (1)
     |                                               |                |              code{}: 0x638-0x645.7 (14)
     |                                               |                |                t{}: 0x638-0x638.7 (1)
0x630|                        00                     |        .       |                  n: 0 0x638-0x638.7 (1)
     |                                               |                |                  x[0:0]: 0x639-NA (0)
     |                                               |                |                e[0:7]: 0x639-0x645.7 (13)
     |                                               |                |                  [0]{}: in 0x639-0x63a.7 (2)
0x630|                           41                  |         A      |                    i32.const: 0x41 (valid) 0x639-0x639.7 (1)
0x630|                              14               |          .     |                    n: 20 0x63a-0x63a.7 (1)
     |                                               |                |                  [1]{}: in 0x63b-0x63b.7 (1)
0x630|                                 0f            |           .    |                    return: 0xf (valid) 0x63b-0x63b.7 (1)
     |                                               |                |                  [2]{}: in 0x63c-0x63d.7 (2)
0x630|                                    41         |            A   |                    i32.const: 0x41 (valid) 0x63c-0x63c.7 (1)
0x630|                                       01      |             .  |                    n: 1 0x63d-0x63d.7 (1)
     |                                               |                |                  [3]{}: in 0x63e-0x63f.7 (2)
0x630|                                          41   |              A |                    i32.const: 0x41 (valid) 0x63e-0x63e.7 (1)
0x630|                                             02|               .|                    n: 2 0x63f-0x63f.7 (1)
     |                                               |                |                  [4]{}: in 0x640-0x641.7 (2)
0x640|41                                             |A               |                    i32.const: 0x41 (valid) 0x640-0x640.7 (1)
0x640|   03                                          | .              |                    n: 3 0x641-0x641.7 (1)
     |                                               |                |                  [5]{}: in 0x642-0x644.7 (3)
0x640|      11                                       |  .             |                    call: 0x11 (valid) 0x642-0x642.7 (1)
0x640|         00                                    |   .            |                    y: 0 0x643-0x643.7 (1)
0x640|            00                                 |    .           |                    x: 0 0x644-0x644.7 (1)
     |                                               |                |                  [6]{}: in 0x645-0x645.7 (1)
0x640|               0b                              |     .          |                    end: 0xb (valid) 0x645-0x645.7 (1)
     |                                               |                |            [41]{}: code 0x646-0x654.7 (15)
0x640|                  0e                           |      .         |              size: 14 0x646-0x646.7 (1)
     |                                               |                |              code{}: 0x647-0x654.7 (14)
     |                                               |                |                t{}: 0x647-0x647.7 (1)
0x640|                     00                        |       .        |                  n: 0 0x647-0x647.7 (1)
     |                                               |                |                  x[0:0]: 0x648-NA (0)
     |                                               |                |                e[0:7]: 0x648-0x654.7 (13)
     |                                               |                |                  [0]{}: in 0x648-0x649.7 (2)
0x640|                        41                     |        A       |                    i32.const: 0x41 (valid) 0x648-0x648.7 (1)
0x640|                           00                  |         .      |                    n: 0 0x649-0x649.7 (1)
     |                                               |                |                  [1]{}: in 0x64a-0x64b.7 (2)
0x640|                              41               |          A     |                    i32.const: 0x41 (valid) 0x64a-0x64a.7 (1)
0x640|                                 15            |           .    |                    n: 21 0x64b-0x64b.7 (1)
     |                                               |                |                  [2]{}: in 0x64c-0x64c.7 (1)
0x640|                                    0f         |            .   |                    return: 0xf (valid) 0x64c-0x64c.7 (1)
     |                                               |                |                  [3]{}: in 0x64d-0x64e.7 (2)
0x640|                                       41      |             A  |                    i32.const: 0x41 (valid) 0x64d-0x64d.7 (1)
0x640|                                          02   |              . |                    n: 2 0x64e-0x64e.7 (1)
     |                                               |                |                  [4]{}: in 0x64f-0x650.7 (2)
0x640|                                             41|               A|                    i32.const: 0x41 (valid) 0x64f-0x64f.7 (1)
0x650|03                                             |.               |                    n: 3 0x650-0x650.7 (1)
     |                                               |                |                  [5]{}: in 0x651-0x653.7 (3)
0x650|   11                                          | .              |                    call: 0x11 (valid) 0x651-0x651.7 (1)
0x650|      00                                       |  .             |                    y: 0 0x652-0x652.7 (1)
0x650|         00                                    |   .            |                    x: 0 0x653-0x653.7 (1)
     |                                               |                |                  [6]{}: in 0x654-0x654.7 (1)
0x650|            0b                                 |    .           |                    end: 0xb (valid) 0x654-0x654.7 (1)
     |                                               |                |            [42]{}: code 0x655-0x663.7 (15)
0x650|               0e                              |     .          |              size: 14 0x655-0x655.7 (1)
     |                                               |                |              code{}: 0x656-0x663.7 (14)
     |                                               |                |                t{}: 0x656-0x656.7 (1)
0x650|                  00                           |      .         |                  n: 0 0x656-0x656.7 (1)
     |                                               |                |                  x[0:0]: 0x657-NA (0)
     |                                               |                |                e[0:7]: 0x657-0x663.7 (13)
     |                                               |                |                  [0]{}: in 0x657-0x658.7 (2)
0x650|                     41                        |       A        |                    i32.const: 0x41 (valid) 0x657-0x657.7 (1)
0x650|                        00                     |        .       |                    n: 0 0x658-0x658.7 (1)
     |                                               |                |                  [1]{}: in 0x659-0x65a.7 (2)
0x650|                           41                  |         A      |                    i32.const: 0x41 (valid) 0x659-0x659.7 (1)
0x650|                              01               |          .     |                    n: 1 0x65a-0x65a.7 (1)
     |                                               |                |                  [2]{}: in 0x65b-0x65c.7 (2)
0x650|                                 41            |           A    |                    i32.const: 0x41 (valid) 0x65b-0x65b.7 (1)
0x650|                                    16         |            .   |                    n: 22 0x65c-0x65c.7 (1)
     |                                               |                |                  [3]{}: in 0x65d-0x65d.7 (1)
0x650|                                       0f      |             .  |                    return: 0xf (valid) 0x65d-0x65d.7 (1)
     |                                               |                |                  [4]{}: in 0x65e-0x65f.7 (2)
0x650|                                          41   |              A |                    i32.const: 0x41 (valid) 0x65e-0x65e.7 (1)
0x650|                                             03|               .|                    n: 3 0x65f-0x65f.7 (1)
     |                                               |                |                  [5]{}: in 0x660-0x662.7 (3)
0x660|11                                             |.               |                    call: 0x11 (valid) 0x660-0x660.7 (1)
0x660|   00                                          | .              |                    y: 0 0x661-0x661.7 (1)
0x660|      00                                       |  .             |                    x: 0 0x662-0x662.7 (1)
     |                                               |                |                  [6]{}: in 0x663-0x663.7 (1)
0x660|         0b                                    |   .            |                    end: 0xb (valid) 0x663-0x663.7 (1)
     |                                               |                |            [43]{}: code 0x664-0x672.7 (15)
0x660|            0e                                 |    .           |              size: 14 0x664-0x664.7 (1)
     |                                               |                |              code{}: 0x665-0x672.7 (14)
     |                                               |                |                t{}: 0x665-0x665.7 (1)
0x660|               00                              |     .          |                  n: 0 0x665-0x665.7 (1)
     |                                               |                |                  x[0:0]: 0x666-NA (0)
     |                                               |                |                e[0:7]: 0x666-0x672.7 (13)
     |                                               |                |                  [0]{}: in 0x666-0x667.7 (2)
0x660|                  41                           |      A         |                    i32.const: 0x41 (valid) 0x666-0x666.7 (1)
0x660|                     00                        |       .        |                    n: 0 0x667-0x667.7 (1)
     |                                               |                |                  [1]{}: in 0x668-0x669.7 (2)
0x660|                        41                     |        A       |                    i32.const: 0x41 (valid) 0x668-0x668.7 (1)
0x660|                           01                  |         .      |                    n: 1 0x669-0x669.7 (1)
     |                                               |                |                  [2]{}: in 0x66a-0x66b.7 (2)
0x660|                              41               |          A     |                    i32.const: 0x41 (valid) 0x66a-0x66a.7 (1)
0x660|                                 02            |           .    |                    n: 2 0x66b-0x66b.7 (1)
     |                                               |                |                  [3]{}: in 0x66c-0x66d.7 (2)
0x660|                                    41         |            A   |                    i32.const: 0x41 (valid) 0x66c-0x66c.7 (1)
0x660|                                       17      |             .  |                    n: 23 0x66d-0x66d.7 (1)
     |                                               |                |                  [4]{}: in 0x66e-0x66e.7 (1)
0x660|                                          0f   |              . |                    return: 0xf (valid) 0x66e-0x66e.7 (1)
     |                                               |                |                  [5]{}: in 0x66f-0x671.7 (3)
0x660|                                             11|               .|                    call: 0x11 (valid) 0x66f-0x66f.7 (1)
0x670|00                                             |.               |                    y: 0 0x670-0x670.7 (1)
0x670|   00                                          | .              |                    x: 0 0x671-0x671.7 (1)
     |                                               |                |                  [6]{}: in 0x672-0x672.7 (1)
0x670|      0b                                       |  .             |                    end: 0xb (valid) 0x672-0x672.7 (1)
     |                                               |                |            [44]{}: code 0x673-0x67e.7 (12)
0x670|         0b                                    |   .            |              size: 11 0x673-0x673.7 (1)
     |                                               |                |              code{}: 0x674-0x67e.7 (11)
     |                                               |                |                t{}: 0x674-0x676.7 (3)
0x670|            01                                 |    .           |                  n: 1 0x674-0x674.7 (1)
     |                                               |                |                  x[0:1]: 0x675-0x676.7 (2)
     |                                               |                |                    [0]{}: t 0x675-0x676.7 (2)
0x670|               01                              |     .          |                      n: 1 0x675-0x675.7 (1)
0x670|                  7d                           |      }         |                      t: "f32" (0x7d) 0x676-0x676.7 (1)
     |                                               |                |                e[0:5]: 0x677-0x67e.7 (8)
     |                                               |                |                  [0]{}: in 0x677-0x678.7 (2)
0x670|                     41                        |       A        |                    i32.const: 0x41 (valid) 0x677-0x677.7 (1)
0x670|                        11                     |        .       |                    n: 17 0x678-0x678.7 (1)
     |                                               |                |                  [1]{}: in 0x679-0x679.7 (1)
0x670|                           0f                  |         .      |                    return: 0xf (valid) 0x679-0x679.7 (1)
     |                                               |                |                  [2]{}: in 0x67a-0x67b.7 (2)
0x670|                              21               |          !     |                    local.set: 0x21 (valid) 0x67a-0x67a.7 (1)
0x670|                                 00            |           .    |                    x: 0 0x67b-0x67b.7 (1)
     |                                               |                |                  [3]{}: in 0x67c-0x67d.7 (2)
0x670|                                    41         |            A   |                    i32.const: 0x41 (valid) 0x67c-0x67c.7 (1)
0x670|                                       7f      |             .  |                    n: -1 0x67d-0x67d.7 (1)
     |                                               |                |                  [4]{}: in 0x67e-0x67e.7 (1)
0x670|                                          0b   |              . |                    end: 0xb (valid) 0x67e-0x67e.7 (1)
     |                                               |                |            [45]{}: code 0x67f-0x688.7 (10)
0x670|                                             09|               .|              size: 9 0x67f-0x67f.7 (1)
     |                                               |                |              code{}: 0x680-0x688.7 (9)
     |                                               |                |                t{}: 0x680-0x682.7 (3)
0x680|01                                             |.               |                  n: 1 0x680-0x680.7 (1)
     |                                               |                |                  x[0:1]: 0x681-0x682.7 (2)
     |                                               |                |                    [0]{}: t 0x681-0x682.7 (2)
0x680|   01                                          | .              |                      n: 1 0x681-0x681.7 (1)
0x680|      7f                                       |  .             |                      t: "i32" (0x7f) 0x682-0x682.7 (1)
     |                                               |                |                e[0:4]: 0x683-0x688.7 (6)
     |                                               |                |                  [0]{}: in 0x683-0x684.7 (2)
0x680|         41                                    |   A            |                    i32.const: 0x41 (valid) 0x683-0x683.7 (1)
0x680|            01                                 |    .           |                    n: 1 0x684-0x684.7 (1)
     |                                               |                |                  [1]{}: in 0x685-0x685.7 (1)
0x680|               0f                              |     .          |                    return: 0xf (valid) 0x685-0x685.7 (1)
     |                                               |                |                  [2]{}: in 0x686-0x687.7 (2)
0x680|                  22                           |      "         |                    local.tee: 0x22 (valid) 0x686-0x686.7 (1)
0x680|                     00                        |       .        |                    x: 0 0x687-0x687.7 (1)
     |                                               |                |                  [3]{}: in 0x688-0x688.7 (1)
0x680|                        0b                     |        .       |                    end: 0xb (valid) 0x688-0x688.7 (1)
     |                                               |                |            [46]{}: code 0x689-0x690.7 (8)
0x680|                           07                  |         .      |              size: 7 0x689-0x689.7 (1)
     |                                               |                |              code{}: 0x68a-0x690.7 (7)
     |                                               |                |                t{}: 0x68a-0x68a.7 (1)
0x680|                              00               |          .     |                  n: 0 0x68a-0x68a.7 (1)
     |                                               |                |                  x[0:0]: 0x68b-NA (0)
     |                                               |                |                e[0:4]: 0x68b-0x690.7 (6)
     |                                               |                |                  [0]{}: in 0x68b-0x68c.7 (2)
0x680|                                 41            |           A    |                    i32.const: 0x41 (valid) 0x68b-0x68b.7 (1)
0x680|                                    01         |            .   |                    n: 1 0x68c-0x68c.7 (1)
     |                                               |                |                  [1]{}: in 0x68d-0x68d.7 (1)
0x680|                                       0f      |             .  |                    return: 0xf (valid) 0x68d-0x68d.7 (1)
     |                                               |                |                  [2]{}: in 0x68e-0x68f.7 (2)
0x680|                                          24   |              $ |                    global.set: 0x24 (valid) 0x68e-0x68e.7 (1)
0x680|                                             00|               .|                    x: 0 0x68f-0x68f.7 (1)
     |                                               |                |                  [3]{}: in 0x690-0x690.7 (1)
0x690|0b                                             |.               |                    end: 0xb (valid) 0x690-0x690.7 (1)
     |                                               |                |            [47]{}: code 0x691-0x69c.7 (12)
0x690|   0b                                          | .              |              size: 11 0x691-0x691.7 (1)
     |                                               |                |              code{}: 0x692-0x69c.7 (11)
     |                                               |                |                t{}: 0x692-0x692.7 (1)
0x690|      00                                       |  .             |                  n: 0 0x692-0x692.7 (1)
     |                                               |                |                  x[0:0]: 0x693-NA (0)
     |                                               |                |                e[0:4]: 0x693-0x69c.7 (10)
     |                                               |                |                  [0]{}: in 0x693-0x697.7 (5)
0x690|         43                                    |   C            |                    f32.const: 0x43 (valid) 0x693-0x693.7 (1)
0x690|            9a 99 d9 3f                        |    ...?        |                    z: 1.7000000476837158 0x694-0x697.7 (4)
     |                                               |                |                  [1]{}: in 0x698-0x698.7 (1)
0x690|                        0f                     |        .       |                    return: 0xf (valid) 0x698-0x698.7 (1)
     |                                               |                |                  [2]{}: in 0x699-0x69b.7 (3)
0x690|                           2a                  |         *      |                    f32.load: 0x2a (valid) 0x699-0x699.7 (1)
     |                                               |                |                    m{}: 0x69a-0x69b.7 (2)
0x690|                              02               |          .     |                      a: 2 0x69a-0x69a.7 (1)
0x690|                                 00            |           .    |                      o: 0 0x69b-0x69b.7 (1)
     |                                               |                |                  [3]{}: in 0x69c-0x69c.7 (1)
0x690|                                    0b         |            .   |                    end: 0xb (valid) 0x69c-0x69c.7 (1)
     |                                               |                |            [48]{}: code 0x69d-0x6a5.7 (9)
0x690|                                       08      |             .  |              size: 8 0x69d-0x69d.7 (1)
     |                                               |                |              code{}: 0x69e-0x6a5.7 (8)
     |                                               |                |                t{}: 0x69e-0x69e.7 (1)
0x690|                                          00   |              . |                  n: 0 0x69e-0x69e.7 (1)
     |                                               |                |                  x[0:0]: 0x69f-NA (0)
     |                                               |                |                e[0:4]: 0x69f-0x6a5.7 (7)
     |                                               |                |                  [0]{}: in 0x69f-0x6a0.7 (2)
0x690|                                             42|               B|                    i64.const: 0x42 (valid) 0x69f-0x69f.7 (1)
0x6a0|1e                                             |.               |                    n: 30 0x6a0-0x6a0.7 (1)
     |                                               |                |                  [1]{}: in 0x6a1-0x6a1.7 (1)
0x6a0|   0f                                          | .              |                    return: 0xf (valid) 0x6a1-0x6a1.7 (1)
     |                                               |                |                  [2]{}: in 0x6a2-0x6a4.7 (3)
0x6a0|      30                                       |  0             |                    i64.load8_s: 0x30 (valid) 0x6a2-0x6a2.7 (1)
     |                                               |                |                    m{}: 0x6a3-0x6a4.7 (2)
0x6a0|         00                                    |   .            |                      a: 0 0x6a3-0x6a3.7 (1)
0x6a0|            00                                 |    .           |                      o: 0 0x6a4-0x6a4.7 (1)
     |                                               |                |                  [3]{}: in 0x6a5-0x6a5.7 (1)
0x6a0|               0b                              |     .          |                    end: 0xb (valid) 0x6a5-0x6a5.7 (1)
     |                                               |                |            [49]{}: code 0x6a6-0x6b9.7 (20)
0x6a0|                  13                           |      .         |              size: 19 0x6a6-0x6a6.7 (1)
     |                                               |                |              code{}: 0x6a7-0x6b9.7 (19)
     |                                               |                |                t{}: 0x6a7-0x6a7.7 (1)
0x6a0|                     00                        |       .        |                  n: 0 0x6a7-0x6a7.7 (1)
     |                                               |                |                  x[0:0]: 0x6a8-NA (0)
     |                                               |                |                e[0:6]: 0x6a8-0x6b9.7 (18)
     |                                               |                |                  [0]{}: in 0x6a8-0x6a9.7 (2)
0x6a0|                        41                     |        A       |                    i32.const: 0x41 (valid) 0x6a8-0x6a8.7 (1)
0x6a0|                           1e                  |         .      |                    n: 30 0x6a9-0x6a9.7 (1)
     |                                               |                |                  [1]{}: in 0x6aa-0x6aa.7 (1)
0x6a0|                              0f               |          .     |                    return: 0xf (valid) 0x6aa-0x6aa.7 (1)
     |                                               |                |                  [2]{}: in 0x6ab-0x6b3.7 (9)
0x6a0|                                 44            |           D    |                    f64.const: 0x44 (valid) 0x6ab-0x6ab.7 (1)
0x6a0|                                    00 00 00 00|            ....|                    z: 7 0x6ac-0x6b3.7 (8)
0x6b0|00 00 1c 40                                    |...@            |
     |                                               |                |                  [3]{}: in 0x6b4-0x6b6.7 (3)
0x6b0|            39                                 |    9           |                    f64.store: 0x39 (valid) 0x6b4-0x6b4.7 (1)
     |                                               |                |                    m{}: 0x6b5-0x6b6.7 (2)
0x6b0|               03                              |     .          |                      a: 3 0x6b5-0x6b5.7 (1)
0x6b0|                  00                           |      .         |                      o: 0 0x6b6-0x6b6.7 (1)
     |                                               |                |                  [4]{}: in 0x6b7-0x6b8.7 (2)
0x6b0|                     41                        |       A        |                    i32.const: 0x41 (valid) 0x6b7-0x6b7.7 (1)
0x6b0|                        7f                     |        .       |                    n: -1 0x6b8-0x6b8.7 (1)
     |                                               |                |                  [5]{}: in 0x6b9-0x6b9.7 (1)
0x6b0|                           0b                  |         .      |                    end: 0xb (valid) 0x6b9-0x6b9.7 (1)
     |                                               |                |            [50]{}: code 0x6ba-0x6c6.7 (13)
0x6b0|                              0c               |          .     |              size: 12 0x6ba-0x6ba.7 (1)
     |                                               |                |              code{}: 0x6bb-0x6c6.7 (12)
     |                                               |                |                t{}: 0x6bb-0x6bb.7 (1)
0x6b0|                                 00            |           .    |                  n: 0 0x6bb-0x6bb.7 (1)
     |                                               |                |                  x[0:0]: 0x6bc-NA (0)
     |                                               |                |                e[0:6]: 0x6bc-0x6c6.7 (11)
     |                                               |                |                  [0]{}: in 0x6bc-0x6bd.7 (2)
0x6b0|                                    41         |            A   |                    i32.const: 0x41 (valid) 0x6bc-0x6bc.7 (1)
0x6b0|                                       02      |             .  |                    n: 2 0x6bd-0x6bd.7 (1)
     |                                               |                |                  [1]{}: in 0x6be-0x6bf.7 (2)
0x6b0|                                          41   |              A |                    i32.const: 0x41 (valid) 0x6be-0x6be.7 (1)
0x6b0|                                             1f|               .|                    n: 31 0x6bf-0x6bf.7 (1)
     |                                               |                |                  [2]{}: in 0x6c0-0x6c0.7 (1)
0x6c0|0f                                             |.               |                    return: 0xf (valid) 0x6c0-0x6c0.7 (1)
     |                                               |                |                  [3]{}: in 0x6c1-0x6c3.7 (3)
0x6c0|   37                                          | 7              |                    i64.store: 0x37 (valid) 0x6c1-0x6c1.7 (1)
     |                                               |                |                    m{}: 0x6c2-0x6c3.7 (2)
0x6c0|      03                                       |  .             |                      a: 3 0x6c2-0x6c2.7 (1)
0x6c0|         00                                    |   .            |                      o: 0 0x6c3-0x6c3.7 (1)
     |                                               |                |                  [4]{}: in 0x6c4-0x6c5.7 (2)
0x6c0|            41                                 |    A           |                    i32.const: 0x41 (valid) 0x6c4-0x6c4.7 (1)
0x6c0|               7f                              |     .          |                    n: -1 0x6c5-0x6c5.7 (1)
     |                                               |                |                  [5]{}: in 0x6c6-0x6c6.7 (1)
0x6c0|                  0b                           |      .         |                    end: 0xb (valid) 0x6c6-0x6c6.7 (1)
     |                                               |                |            [51]{}: code 0x6c7-0x6d3.7 (13)
0x6c0|                     0c                        |       .        |              size: 12 0x6c7-0x6c7.7 (1)
     |                                               |                |              code{}: 0x6c8-0x6d3.7 (12)
     |                                               |                |                t{}: 0x6c8-0x6c8.7 (1)
0x6c0|                        00                     |        .       |                  n: 0 0x6c8-0x6c8.7 (1)
     |                                               |                |                  x[0:0]: 0x6c9-NA (0)
     |                                               |                |                e[0:6]: 0x6c9-0x6d3.7 (11)
     |                                               |                |                  [0]{}: in 0x6c9-0x6ca.7 (2)
0x6c0|                           41                  |         A      |                    i32.const: 0x41 (valid) 0x6c9-0x6c9.7 (1)
0x6c0|                              20               |                |                    n: 32 0x6ca-0x6ca.7 (1)
     |                                               |                |                  [1]{}: in 0x6cb-0x6cb.7 (1)
0x6c0|                                 0f            |           .    |                    return: 0xf (valid) 0x6cb-0x6cb.7 (1)
     |                                               |                |                  [2]{}: in 0x6cc-0x6cd.7 (2)
0x6c0|                                    41         |            A   |                    i32.const: 0x41 (valid) 0x6cc-0x6cc.7 (1)
0x6c0|                                       07      |             .  |                    n: 7 0x6cd-0x6cd.7 (1)
     |                                               |                |                  [3]{}: in 0x6ce-0x6d0.7 (3)
0x6c0|                                          3a   |              : |                    i32.store8: 0x3a (valid) 0x6ce-0x6ce.7 (1)
     |                                               |                |                    m{}: 0x6cf-0x6d0.7 (2)
0x6c0|                                             00|               .|                      a: 0 0x6cf-0x6cf.7 (1)
0x6d0|00                                             |.               |                      o: 0 0x6d0-0x6d0.7 (1)
     |                                               |                |                  [4]{}: in 0x6d1-0x6d2.7 (2)
0x6d0|   41                                          | A              |                    i32.const: 0x41 (valid) 0x6d1-0x6d1.7 (1)
0x6d0|      7f                                       |  .             |                    n: -1 0x6d2-0x6d2.7 (1)
     |                                               |                |                  [5]{}: in 0x6d3-0x6d3.7 (1)
0x6d0|         0b                                    |   .            |                    end: 0xb (valid) 0x6d3-0x6d3.7 (1)
     |                                               |                |            [52]{}: code 0x6d4-0x6e0.7 (13)
0x6d0|            0c                                 |    .           |              size: 12 0x6d4-0x6d4.7 (1)
     |                                               |                |              code{}: 0x6d5-0x6e0.7 (12)
     |                                               |                |                t{}: 0x6d5-0x6d5.7 (1)
0x6d0|               00                              |     .          |                  n: 0 0x6d5-0x6d5.7 (1)
     |                                               |                |                  x[0:0]: 0x6d6-NA (0)
     |                                               |                |                e[0:6]: 0x6d6-0x6e0.7 (11)
     |                                               |                |                  [0]{}: in 0x6d6-0x6d7.7 (2)
0x6d0|                  41                           |      A         |                    i32.const: 0x41 (valid) 0x6d6-0x6d6.7 (1)
0x6d0|                     02                        |       .        |                    n: 2 0x6d7-0x6d7.7 (1)
     |                                               |                |                  [1]{}: in 0x6d8-0x6d9.7 (2)
0x6d0|                        41                     |        A       |                    i32.const: 0x41 (valid) 0x6d8-0x6d8.7 (1)
0x6d0|                           21                  |         !      |                    n: 33 0x6d9-0x6d9.7 (1)
     |                                               |                |                  [2]{}: in 0x6da-0x6da.7 (1)
0x6d0|                              0f               |          .     |                    return: 0xf (valid) 0x6da-0x6da.7 (1)
     |                                               |                |                  [3]{}: in 0x6db-0x6dd.7 (3)
0x6d0|                                 3d            |           =    |                    i64.store16: 0x3d (valid) 0x6db-0x6db.7 (1)
     |                                               |                |                    m{}: 0x6dc-0x6dd.7 (2)
0x6d0|                                    01         |            .   |                      a: 1 0x6dc-0x6dc.7 (1)
0x6d0|                                       00      |             .  |                      o: 0 0x6dd-0x6dd.7 (1)
     |                                               |                |                  [4]{}: in 0x6de-0x6df.7 (2)
0x6d0|                                          41   |              A |                    i32.const: 0x41 (valid) 0x6de-0x6de.7 (1)
0x6d0|                                             7f|               .|                    n: -1 0x6df-0x6df.7 (1)
     |                                               |                |                  [5]{}: in 0x6e0-0x6e0.7 (1)
0x6e0|0b                                             |.               |                    end: 0xb (valid) 0x6e0-0x6e0.7 (1)
     |                                               |                |            [53]{}: code 0x6e1-0x6ea.7 (10)
0x6e0|   09                                          | .              |              size: 9 0x6e1-0x6e1.7 (1)
     |                                               |                |              code{}: 0x6e2-0x6ea.7 (9)
     |                                               |                |                t{}: 0x6e2-0x6e2.7 (1)
0x6e0|      00                                       |  .             |                  n: 0 0x6e2-0x6e2.7 (1)
     |                                               |                |                  x[0:0]: 0x6e3-NA (0)
     |                                               |                |                e[0:4]: 0x6e3-0x6ea.7 (8)
     |                                               |                |                  [0]{}: in 0x6e3-0x6e7.7 (5)
0x6e0|         43                                    |   C            |                    f32.const: 0x43 (valid) 0x6e3-0x6e3.7 (1)
0x6e0|            9a 99 59 40                        |    ..Y@        |                    z: 3.4000000953674316 0x6e4-0x6e7.7 (4)
     |                                               |                |                  [1]{}: in 0x6e8-0x6e8.7 (1)
0x6e0|                        0f                     |        .       |                    return: 0xf (valid) 0x6e8-0x6e8.7 (1)
     |                                               |                |                  [2]{}: in 0x6e9-0x6e9.7 (1)
0x6e0|                           8c                  |         .      |                    f32.neg: 0x8c (valid) 0x6e9-0x6e9.7 (1)
     |                                               |                |                  [3]{}: in 0x6ea-0x6ea.7 (1)
0x6e0|                              0b               |          .     |                    end: 0xb (valid) 0x6ea-0x6ea.7 (1)
     |                                               |                |            [54]{}: code 0x6eb-0x6f3.7 (9)
0x6e0|                                 08            |           .    |              size: 8 0x6eb-0x6eb.7 (1)
     |                                               |                |              code{}: 0x6ec-0x6f3.7 (8)
     |                                               |                |                t{}: 0x6ec-0x6ec.7 (1)
0x6e0|                                    00         |            .   |                  n: 0 0x6ec-0x6ec.7 (1)
     |                                               |                |                  x[0:0]: 0x6ed-NA (0)
     |                                               |                |                e[0:5]: 0x6ed-0x6f3.7 (7)
     |                                               |                |                  [0]{}: in 0x6ed-0x6ee.7 (2)
0x6e0|                                       41      |             A  |                    i32.const: 0x41 (valid) 0x6ed-0x6ed.7 (1)
0x6e0|                                          03   |              . |                    n: 3 0x6ee-0x6ee.7 (1)
     |                                               |                |                  [1]{}: in 0x6ef-0x6ef.7 (1)
0x6e0|                                             0f|               .|                    return: 0xf (valid) 0x6ef-0x6ef.7 (1)
     |                                               |                |                  [2]{}: in 0x6f0-0x6f1.7 (2)
0x6f0|41                                             |A               |                    i32.const: 0x41 (valid) 0x6f0-0x6f0.7 (1)
0x6f0|   0a                                          | .              |                    n: 10 0x6f1-0x6f1.7 (1)
     |                                               |                |                  [3]{}: in 0x6f2-0x6f2.7 (1)
0x6f0|      6a                                       |  j             |                    i32.add: 0x6a (valid) 0x6f2-0x6f2.7 (1)
     |                                               |                |                  [4]{}: in 0x6f3-0x6f3.7 (1)
0x6f0|         0b                                    |   .            |                    end: 0xb (valid) 0x6f3-0x6f3.7 (1)
     |                                               |                |            [55]{}: code 0x6f4-0x6fc.7 (9)
0x6f0|            08                                 |    .           |              size: 8 0x6f4-0x6f4.7 (1)
     |                                               |                |              code{}: 0x6f5-0x6fc.7 (8)
     |                                               |                |                t{}: 0x6f5-0x6f5.7 (1)
0x6f0|               00                              |     .          |                  n: 0 0x6f5-0x6f5.7 (1)
     |                                               |                |                  x[0:0]: 0x6f6-NA (0)
     |                                               |                |                e[0:5]: 0x6f6-0x6fc.7 (7)
     |                                               |                |                  [0]{}: in 0x6f6-0x6f7.7 (2)
0x6f0|                  42                           |      B         |                    i64.const: 0x42 (valid) 0x6f6-0x6f6.7 (1)
0x6f0|                     0a                        |       .        |                    n: 10 0x6f7-0x6f7.7 (1)
     |                                               |                |                  [1]{}: in 0x6f8-0x6f9.7 (2)
0x6f0|                        42                     |        B       |                    i64.const: 0x42 (valid) 0x6f8-0x6f8.7 (1)
0x6f0|                           2d                  |         -      |                    n: 45 0x6f9-0x6f9.7 (1)
     |                                               |                |                  [2]{}: in 0x6fa-0x6fa.7 (1)
0x6f0|                              0f               |          .     |                    return: 0xf (valid) 0x6fa-0x6fa.7 (1)
     |                                               |                |                  [3]{}: in 0x6fb-0x6fb.7 (1)
0x6f0|                                 7d            |           }    |                    i64.sub: 0x7d (valid) 0x6fb-0x6fb.7 (1)
     |                                               |                |                  [4]{}: in 0x6fc-0x6fc.7 (1)
0x6f0|                                    0b         |            .   |                    end: 0xb (valid) 0x6fc-0x6fc.7 (1)
     |                                               |                |            [56]{}: code 0x6fd-0x703.7 (7)
0x6f0|                                       06      |             .  |              size: 6 0x6fd-0x6fd.7 (1)
     |                                               |                |              code{}: 0x6fe-0x703.7 (6)
     |                                               |                |                t{}: 0x6fe-0x6fe.7 (1)
0x6f0|                                          00   |              . |                  n: 0 0x6fe-0x6fe.7 (1)
     |                                               |                |                  x[0:0]: 0x6ff-NA (0)
     |                                               |                |                e[0:4]: 0x6ff-0x703.7 (5)
     |                                               |                |                  [0]{}: in 0x6ff-0x700.7 (2)
0x6f0|                                             41|               A|                    i32.const: 0x41 (valid) 0x6ff-0x6ff.7 (1)
0x700|2c                                             |,               |                    n: 44 0x700-0x700.7 (1)
     |                                               |                |                  [1]{}: in 0x701-0x701.7 (1)
0x700|   0f                                          | .              |                    return: 0xf (valid) 0x701-0x701.7 (1)
     |                                               |                |                  [2]{}: in 0x702-0x702.7 (1)
0x700|      45                                       |  E             |                    i32.eqz: 0x45 (valid) 0x702-0x702.7 (1)
     |                                               |                |                  [3]{}: in 0x703-0x703.7 (1)
0x700|         0b                                    |   .            |                    end: 0xb (valid) 0x703-0x703.7 (1)
     |                                               |                |            [57]{}: code 0x704-0x713.7 (16)
0x700|            0f                                 |    .           |              size: 15 0x704-0x704.7 (1)
     |                                               |                |              code{}: 0x705-0x713.7 (15)
     |                                               |                |                t{}: 0x705-0x705.7 (1)
0x700|               00                              |     .          |                  n: 0 0x705-0x705.7 (1)
     |                                               |                |                  x[0:0]: 0x706-NA (0)
     |                                               |                |                e[0:5]: 0x706-0x713.7 (14)
     |                                               |                |                  [0]{}: in 0x706-0x707.7 (2)
0x700|                  41                           |      A         |                    i32.const: 0x41 (valid) 0x706-0x706.7 (1)
0x700|                     2b                        |       +        |                    n: 43 0x707-0x707.7 (1)
     |                                               |                |                  [1]{}: in 0x708-0x708.7 (1)
0x700|                        0f                     |        .       |                    return: 0xf (valid) 0x708-0x708.7 (1)
     |                                               |                |                  [2]{}: in 0x709-0x711.7 (9)
0x700|                           44                  |         D      |                    f64.const: 0x44 (valid) 0x709-0x709.7 (1)
0x700|                              00 00 00 00 00 00|          ......|                    z: 10 0x70a-0x711.7 (8)
0x710|24 40                                          |$@              |
     |                                               |                |                  [3]{}: in 0x712-0x712.7 (1)
0x710|      65                                       |  e             |                    f64.le: 0x65 (valid) 0x712-0x712.7 (1)
     |                                               |                |                  [4]{}: in 0x713-0x713.7 (1)
0x710|         0b                                    |   .            |                    end: 0xb (valid) 0x713-0x713.7 (1)
     |                                               |                |            [58]{}: code 0x714-0x71f.7 (12)
0x710|            0b                                 |    .           |              size: 11 0x714-0x714.7 (1)
     |                                               |                |              code{}: 0x715-0x71f.7 (11)
     |                                               |                |                t{}: 0x715-0x715.7 (1)
0x710|               00                              |     .          |                  n: 0 0x715-0x715.7 (1)
     |                                               |                |                  x[0:0]: 0x716-NA (0)
     |                                               |                |                e[0:5]: 0x716-0x71f.7 (10)
     |                                               |                |                  [0]{}: in 0x716-0x71a.7 (5)
0x710|                  43                           |      C         |                    f32.const: 0x43 (valid) 0x716-0x716.7 (1)
0x710|                     00 00 20 41               |       .. A     |                    z: 10 0x717-0x71a.7 (4)
     |                                               |                |                  [1]{}: in 0x71b-0x71c.7 (2)
0x710|                                 41            |           A    |                    i32.const: 0x41 (valid) 0x71b-0x71b.7 (1)
0x710|                                    2a         |            *   |                    n: 42 0x71c-0x71c.7 (1)
     |                                               |                |                  [2]{}: in 0x71d-0x71d.7 (1)
0x710|                                       0f      |             .  |                    return: 0xf (valid) 0x71d-0x71d.7 (1)
     |                                               |                |                  [3]{}: in 0x71e-0x71e.7 (1)
0x710|                                          5c   |              \ |                    f32.ne: 0x5c (valid) 0x71e-0x71e.7 (1)
     |                                               |                |                  [4]{}: in 0x71f-0x71f.7 (1)
0x710|                                             0b|               .|                    end: 0xb (valid) 0x71f-0x71f.7 (1)
     |                                               |                |            [59]{}: code 0x720-0x726.7 (7)
0x720|06                                             |.               |              size: 6 0x720-0x720.7 (1)
     |                                               |                |              code{}: 0x721-0x726.7 (6)
     |                                               |                |                t{}: 0x721-0x721.7 (1)
0x720|   00                                          | .              |                  n: 0 0x721-0x721.7 (1)
     |                                               |                |                  x[0:0]: 0x722-NA (0)
     |                                               |                |                e[0:4]: 0x722-0x726.7 (5)
     |                                               |                |                  [0]{}: in 0x722-0x723.7 (2)
0x720|      41                                       |  A             |                    i32.const: 0x41 (valid) 0x722-0x722.7 (1)
0x720|         29                                    |   )            |                    n: 41 0x723-0x723.7 (1)
     |                                               |                |                  [1]{}: in 0x724-0x724.7 (1)
0x720|            0f                                 |    .           |                    return: 0xf (valid) 0x724-0x724.7 (1)
     |                                               |                |                  [2]{}: in 0x725-0x725.7 (1)
0x720|               a7                              |     .          |                    i32.wrap_i64: 0xa7 (valid) 0x725-0x725.7 (1)
     |                                               |                |                  [3]{}: in 0x726-0x726.7 (1)
0x720|                  0b                           |      .         |                    end: 0xb (valid) 0x726-0x726.7 (1)
     |                                               |                |            [60]{}: code 0x727-0x72e.7 (8)
0x720|                     07                        |       .        |              size: 7 0x727-0x727.7 (1)
     |                                               |                |              code{}: 0x728-0x72e.7 (7)
     |                                               |                |                t{}: 0x728-0x728.7 (1)
0x720|                        00                     |        .       |                  n: 0 0x728-0x728.7 (1)
     |                                               |                |                  x[0:0]: 0x729-NA (0)
     |                                               |                |                e[0:4]: 0x729-0x72e.7 (6)
     |                                               |                |                  [0]{}: in 0x729-0x72a.7 (2)
0x720|                           41                  |         A      |                    i32.const: 0x41 (valid) 0x729-0x729.7 (1)
0x720|                              28               |          (     |                    n: 40 0x72a-0x72a.7 (1)
     |                                               |                |                  [1]{}: in 0x72b-0x72b.7 (1)
0x720|                                 0f            |           .    |                    return: 0xf (valid) 0x72b-0x72b.7 (1)
     |                                               |                |                  [2]{}: in 0x72c-0x72d.7 (2)
0x720|                                    40         |            @   |                    memory.grow: 0x40 (valid) 0x72c-0x72c.7 (1)
0x720|                                       00      |             .  |                    reserved: 0x0 (valid) 0x72d-0x72d.7 (1)
     |                                               |                |                  [3]{}: in 0x72e-0x72e.7 (1)
0x720|                                          0b|  |              .||                    end: 0xb (valid) 0x72e-0x72e.7 (1)
