$ fq -d wasm dv return-0.wasm
     |00 01 02 03 04 05 06 07 08 09 0a 0b 0c 0d 0e 0f|0123456789abcdef|.{}: return-0.wasm (wasm) 0x0-0x72f (1839)
0x000|00 61 73 6d                                    |.asm            |  magic: raw bits (valid) 0x0-0x4 (4)
0x000|            01 00 00 00                        |    ....        |  version: 1 0x4-0x8 (4)
     |                                               |                |  sections[0:8]: 0x8-0x72f (1831)
     |                                               |                |    [0]{}: section 0x8-0x2b (35)
0x000|                        01                     |        .       |      id: "type_section" (1) 0x8-0x9 (1)
0x000|                           21                  |         !      |      size: 33 (valid) 0x9-0xa (1)
     |                                               |                |      content{}: 0xa-0x2b (33)
     |                                               |                |        ft{}: 0xa-0x2b (33)
0x000|                              07               |          .     |          n: 7 (valid) 0xa-0xb (1)
     |                                               |                |          x[0:7]: 0xb-0x2b (32)
     |                                               |                |            [0]{}: ft 0xb-0x12 (7)
0x000|                                 60            |           `    |              tag: 0x60 (valid) 0xb-0xc (1)
     |                                               |                |              rt1{}: 0xc-0x10 (4)
0x000|                                    03         |            .   |                n: 3 (valid) 0xc-0xd (1)
     |                                               |                |                x[0:3]: 0xd-0x10 (3)
0x000|                                       7f      |             .  |                  [0]: "i32" (0x7f) t 0xd-0xe (1)
0x000|                                          7f   |              . |                  [1]: "i32" (0x7f) t 0xe-0xf (1)
0x000|                                             7f|               .|                  [2]: "i32" (0x7f) t 0xf-0x10 (1)
     |                                               |                |              rt2{}: 0x10-0x12 (2)
0x010|01                                             |.               |                n: 1 (valid) 0x10-0x11 (1)
     |                                               |                |                x[0:1]: 0x11-0x12 (1)
0x010|   7f                                          | .              |                  [0]: "i32" (0x7f) t 0x11-0x12 (1)
     |                                               |                |            [1]{}: ft 0x12-0x15 (3)
0x010|      60                                       |  `             |              tag: 0x60 (valid) 0x12-0x13 (1)
     |                                               |                |              rt1{}: 0x13-0x14 (1)
0x010|         00                                    |   .            |                n: 0 (valid) 0x13-0x14 (1)
     |                                               |                |                x[0:0]: 0x14-0x14 (0)
     |                                               |                |              rt2{}: 0x14-0x15 (1)
0x010|            00                                 |    .           |                n: 0 (valid) 0x14-0x15 (1)
     |                                               |                |                x[0:0]: 0x15-0x15 (0)
     |                                               |                |            [2]{}: ft 0x15-0x19 (4)
0x010|               60                              |     `          |              tag: 0x60 (valid) 0x15-0x16 (1)
     |                                               |                |              rt1{}: 0x16-0x17 (1)
0x010|                  00                           |      .         |                n: 0 (valid) 0x16-0x17 (1)
     |                                               |                |                x[0:0]: 0x17-0x17 (0)
     |                                               |                |              rt2{}: 0x17-0x19 (2)
0x010|                     01                        |       .        |                n: 1 (valid) 0x17-0x18 (1)
     |                                               |                |                x[0:1]: 0x18-0x19 (1)
0x010|                        7f                     |        .       |                  [0]: "i32" (0x7f) t 0x18-0x19 (1)
     |                                               |                |            [3]{}: ft 0x19-0x1d (4)
0x010|                           60                  |         `      |              tag: 0x60 (valid) 0x19-0x1a (1)
     |                                               |                |              rt1{}: 0x1a-0x1b (1)
0x010|                              00               |          .     |                n: 0 (valid) 0x1a-0x1b (1)
     |                                               |                |                x[0:0]: 0x1b-0x1b (0)
     |                                               |                |              rt2{}: 0x1b-0x1d (2)
0x010|                                 01            |           .    |                n: 1 (valid) 0x1b-0x1c (1)
     |                                               |                |                x[0:1]: 0x1c-0x1d (1)
0x010|                                    7e         |            ~   |                  [0]: "i64" (0x7e) t 0x1c-0x1d (1)
     |                                               |                |            [4]{}: ft 0x1d-0x21 (4)
0x010|                                       60      |             `  |              tag: 0x60 (valid) 0x1d-0x1e (1)
     |                                               |                |              rt1{}: 0x1e-0x1f (1)
0x010|                                          00   |              . |                n: 0 (valid) 0x1e-0x1f (1)
     |                                               |                |                x[0:0]: 0x1f-0x1f (0)
     |                                               |                |              rt2{}: 0x1f-0x21 (2)
0x010|                                             01|               .|                n: 1 (valid) 0x1f-0x20 (1)
     |                                               |                |                x[0:1]: 0x20-0x21 (1)
0x020|7d                                             |}               |                  [0]: "f32" (0x7d) t 0x20-0x21 (1)
     |                                               |                |            [5]{}: ft 0x21-0x25 (4)
0x020|   60                                          | `              |              tag: 0x60 (valid) 0x21-0x22 (1)
     |                                               |                |              rt1{}: 0x22-0x23 (1)
0x020|      00                                       |  .             |                n: 0 (valid) 0x22-0x23 (1)
     |                                               |                |                x[0:0]: 0x23-0x23 (0)
     |                                               |                |              rt2{}: 0x23-0x25 (2)
0x020|         01                                    |   .            |                n: 1 (valid) 0x23-0x24 (1)
     |                                               |                |                x[0:1]: 0x24-0x25 (1)
0x020|            7c                                 |    |           |                  [0]: "f64" (0x7c) t 0x24-0x25 (1)
     |                                               |                |            [6]{}: ft 0x25-0x2b (6)
0x020|               60                              |     `          |              tag: 0x60 (valid) 0x25-0x26 (1)
     |                                               |                |              rt1{}: 0x26-0x29 (3)
0x020|                  02                           |      .         |                n: 2 (valid) 0x26-0x27 (1)
     |                                               |                |                x[0:2]: 0x27-0x29 (2)
0x020|                     7f                        |       .        |                  [0]: "i32" (0x7f) t 0x27-0x28 (1)
0x020|                        7f                     |        .       |                  [1]: "i32" (0x7f) t 0x28-0x29 (1)
     |                                               |                |              rt2{}: 0x29-0x2b (2)
0x020|                           01                  |         .      |                n: 1 (valid) 0x29-0x2a (1)
     |                                               |                |                x[0:1]: 0x2a-0x2b (1)
0x020|                              7f               |          .     |                  [0]: "i32" (0x7f) t 0x2a-0x2b (1)
     |                                               |                |    [1]{}: section 0x2b-0x6b (64)
0x020|                                 03            |           .    |      id: "function_section" (3) 0x2b-0x2c (1)
0x020|                                    3e         |            >   |      size: 62 (valid) 0x2c-0x2d (1)
     |                                               |                |      content{}: 0x2d-0x6b (62)
     |                                               |                |        x{}: 0x2d-0x6b (62)
0x020|                                       3d      |             =  |          n: 61 (valid) 0x2d-0x2e (1)
     |                                               |                |          x[0:61]: 0x2e-0x6b (61)
0x020|                                          01   |              . |            [0]: 1 x (valid) 0x2e-0x2f (1)
0x020|                                             01|               .|            [1]: 1 x (valid) 0x2f-0x30 (1)
0x030|01                                             |.               |            [2]: 1 x (valid) 0x30-0x31 (1)
0x030|   01                                          | .              |            [3]: 1 x (valid) 0x31-0x32 (1)
0x030|      01                                       |  .             |            [4]: 1 x (valid) 0x32-0x33 (1)
0x030|         02                                    |   .            |            [5]: 2 x (valid) 0x33-0x34 (1)
0x030|            03                                 |    .           |            [6]: 3 x (valid) 0x34-0x35 (1)
0x030|               04                              |     .          |            [7]: 4 x (valid) 0x35-0x36 (1)
0x030|                  05                           |      .         |            [8]: 5 x (valid) 0x36-0x37 (1)
0x030|                     01                        |       .        |            [9]: 1 x (valid) 0x37-0x38 (1)
0x030|                        05                     |        .       |            [10]: 5 x (valid) 0x38-0x39 (1)
0x030|                           02                  |         .      |            [11]: 2 x (valid) 0x39-0x3a (1)
0x030|                              02               |          .     |            [12]: 2 x (valid) 0x3a-0x3b (1)
0x030|                                 01            |           .    |            [13]: 1 x (valid) 0x3b-0x3c (1)
0x030|                                    02         |            .   |            [14]: 2 x (valid) 0x3c-0x3d (1)
0x030|                                       01      |             .  |            [15]: 1 x (valid) 0x3d-0x3e (1)
0x030|                                          01   |              . |            [16]: 1 x (valid) 0x3e-0x3f (1)
0x030|                                             01|               .|            [17]: 1 x (valid) 0x3f-0x40 (1)
0x040|02                                             |.               |            [18]: 2 x (valid) 0x40-0x41 (1)
0x040|   02                                          | .              |            [19]: 2 x (valid) 0x41-0x42 (1)
0x040|      02                                       |  .             |            [20]: 2 x (valid) 0x42-0x43 (1)
0x040|         02                                    |   .            |            [21]: 2 x (valid) 0x43-0x44 (1)
0x040|            02                                 |    .           |            [22]: 2 x (valid) 0x44-0x45 (1)
0x040|               01                              |     .          |            [23]: 1 x (valid) 0x45-0x46 (1)
0x040|                  02                           |      .         |            [24]: 2 x (valid) 0x46-0x47 (1)
0x040|                     02                        |       .        |            [25]: 2 x (valid) 0x47-0x48 (1)
0x040|                        03                     |        .       |            [26]: 3 x (valid) 0x48-0x49 (1)
0x040|                           02                  |         .      |            [27]: 2 x (valid) 0x49-0x4a (1)
0x040|                              02               |          .     |            [28]: 2 x (valid) 0x4a-0x4b (1)
0x040|                                 03            |           .    |            [29]: 3 x (valid) 0x4b-0x4c (1)
0x040|                                    02         |            .   |            [30]: 2 x (valid) 0x4c-0x4d (1)
0x040|                                       06      |             .  |            [31]: 6 x (valid) 0x4d-0x4e (1)
0x040|                                          06   |              . |            [32]: 6 x (valid) 0x4e-0x4f (1)
0x040|                                             06|               .|            [33]: 6 x (valid) 0x4f-0x50 (1)
0x050|06                                             |.               |            [34]: 6 x (valid) 0x50-0x51 (1)
0x050|   02                                          | .              |            [35]: 2 x (valid) 0x51-0x52 (1)
0x050|      00                                       |  .             |            [36]: 0 x (valid) 0x52-0x53 (1)
0x050|         02                                    |   .            |            [37]: 2 x (valid) 0x53-0x54 (1)
0x050|            02                                 |    .           |            [38]: 2 x (valid) 0x54-0x55 (1)
0x050|               02                              |     .          |            [39]: 2 x (valid) 0x55-0x56 (1)
0x050|                  02                           |      .         |            [40]: 2 x (valid) 0x56-0x57 (1)
0x050|                     02                        |       .        |            [41]: 2 x (valid) 0x57-0x58 (1)
0x050|                        02                     |        .       |            [42]: 2 x (valid) 0x58-0x59 (1)
0x050|                           02                  |         .      |            [43]: 2 x (valid) 0x59-0x5a (1)
0x050|                              02               |          .     |            [44]: 2 x (valid) 0x5a-0x5b (1)
0x050|                                 02            |           .    |            [45]: 2 x (valid) 0x5b-0x5c (1)
0x050|                                    02         |            .   |            [46]: 2 x (valid) 0x5c-0x5d (1)
0x050|                                       04      |             .  |            [47]: 4 x (valid) 0x5d-0x5e (1)
0x050|                                          03   |              . |            [48]: 3 x (valid) 0x5e-0x5f (1)
0x050|                                             02|               .|            [49]: 2 x (valid) 0x5f-0x60 (1)
0x060|02                                             |.               |            [50]: 2 x (valid) 0x60-0x61 (1)
0x060|   02                                          | .              |            [51]: 2 x (valid) 0x61-0x62 (1)
0x060|      02                                       |  .             |            [52]: 2 x (valid) 0x62-0x63 (1)
0x060|         04                                    |   .            |            [53]: 4 x (valid) 0x63-0x64 (1)
0x060|            02                                 |    .           |            [54]: 2 x (valid) 0x64-0x65 (1)
0x060|               03                              |     .          |            [55]: 3 x (valid) 0x65-0x66 (1)
0x060|                  02                           |      .         |            [56]: 2 x (valid) 0x66-0x67 (1)
0x060|                     02                        |       .        |            [57]: 2 x (valid) 0x67-0x68 (1)
0x060|                        02                     |        .       |            [58]: 2 x (valid) 0x68-0x69 (1)
0x060|                           02                  |         .      |            [59]: 2 x (valid) 0x69-0x6a (1)
0x060|                              02               |          .     |            [60]: 2 x (valid) 0x6a-0x6b (1)
     |                                               |                |    [2]{}: section 0x6b-0x72 (7)
0x060|                                 04            |           .    |      id: "table_section" (4) 0x6b-0x6c (1)
0x060|                                    05         |            .   |      size: 5 (valid) 0x6c-0x6d (1)
     |                                               |                |      content{}: 0x6d-0x72 (5)
     |                                               |                |        tab{}: 0x6d-0x72 (5)
0x060|                                       01      |             .  |          n: 1 (valid) 0x6d-0x6e (1)
     |                                               |                |          x[0:1]: 0x6e-0x72 (4)
     |                                               |                |            [0]{}: tab 0x6e-0x72 (4)
0x060|                                          70   |              p |              et: "funcref" (112) 0x6e-0x6f (1)
     |                                               |                |              lim{}: 0x6f-0x72 (3)
0x060|                                             01|               .|                tag: 0x1 0x6f-0x70 (1)
0x070|01                                             |.               |                n: 1 (valid) 0x70-0x71 (1)
0x070|   01                                          | .              |                m: 1 (valid) 0x71-0x72 (1)
     |                                               |                |    [3]{}: section 0x72-0x77 (5)
0x070|      05                                       |  .             |      id: "memory_section" (5) 0x72-0x73 (1)
0x070|         03                                    |   .            |      size: 3 (valid) 0x73-0x74 (1)
     |                                               |                |      content{}: 0x74-0x77 (3)
     |                                               |                |        mem{}: 0x74-0x77 (3)
0x070|            01                                 |    .           |          n: 1 (valid) 0x74-0x75 (1)
     |                                               |                |          x[0:1]: 0x75-0x77 (2)
     |                                               |                |            [0]{}: mem 0x75-0x77 (2)
     |                                               |                |              lim{}: 0x75-0x77 (2)
0x070|               00                              |     .          |                tag: 0x0 0x75-0x76 (1)
0x070|                  01                           |      .         |                n: 1 (valid) 0x76-0x77 (1)
     |                                               |                |    [4]{}: section 0x77-0x7f (8)
0x070|                     06                        |       .        |      id: "global_section" (6) 0x77-0x78 (1)
0x070|                        06                     |        .       |      size: 6 (valid) 0x78-0x79 (1)
     |                                               |                |      content{}: 0x79-0x7f (6)
     |                                               |                |        glob{}: 0x79-0x7f (6)
0x070|                           01                  |         .      |          n: 1 (valid) 0x79-0x7a (1)
     |                                               |                |          x[0:1]: 0x7a-0x7f (5)
     |                                               |                |            [0]{}: glob 0x7a-0x7f (5)
     |                                               |                |              gt{}: 0x7a-0x7c (2)
0x070|                              7f               |          .     |                t: "i32" (0x7f) 0x7a-0x7b (1)
0x070|                                 01            |           .    |                m: "var" (1) 0x7b-0x7c (1)
     |                                               |                |              e[0:2]: 0x7c-0x7f (3)
     |                                               |                |                [0]{}: in 0x7c-0x7e (2)
0x070|                                    41         |            A   |                  opcode: "i32.const" (0x41) 0x7c-0x7d (1)
0x070|                                       00      |             .  |                  n: 0 (valid) 0x7d-0x7e (1)
     |                                               |                |                [1]{}: in 0x7e-0x7f (1)
0x070|                                          0b   |              . |                  opcode: "end" (0xb) 0x7e-0x7f (1)
     |                                               |                |    [5]{}: section 0x7f-0x47a (1019)
0x070|                                             07|               .|      id: "export_section" (7) 0x7f-0x80 (1)
0x080|f8 07                                          |..              |      size: 1016 (valid) 0x80-0x82 (2)
     |                                               |                |      content{}: 0x82-0x47a (1016)
     |                                               |                |        ex{}: 0x82-0x47a (1016)
0x080|      3b                                       |  ;             |          n: 59 (valid) 0x82-0x83 (1)
     |                                               |                |          x[0:59]: 0x83-0x47a (1015)
     |                                               |                |            [0]{}: ex 0x83-0x8e (11)
     |                                               |                |              nm{}: 0x83-0x8c (9)
0x080|         08                                    |   .            |                n: 8 (valid) 0x83-0x84 (1)
0x080|            74 79 70 65 2d 69 33 32            |    type-i32    |                b: "type-i32" 0x84-0x8c (8)
     |                                               |                |              d{}: 0x8c-0x8e (2)
0x080|                                    00         |            .   |                tag: "funcidx" (0x0) 0x8c-0x8d (1)
0x080|                                       01      |             .  |                x: 1 (valid) 0x8d-0x8e (1)
     |                                               |                |            [1]{}: ex 0x8e-0x99 (11)
     |                                               |                |              nm{}: 0x8e-0x97 (9)
0x080|                                          08   |              . |                n: 8 (valid) 0x8e-0x8f (1)
0x080|                                             74|               t|                b: "type-i64" 0x8f-0x97 (8)
0x090|79 70 65 2d 69 36 34                           |ype-i64         |
     |                                               |                |              d{}: 0x97-0x99 (2)
0x090|                     00                        |       .        |                tag: "funcidx" (0x0) 0x97-0x98 (1)
0x090|                        02                     |        .       |                x: 2 (valid) 0x98-0x99 (1)
     |                                               |                |            [2]{}: ex 0x99-0xa4 (11)
     |                                               |                |              nm{}: 0x99-0xa2 (9)
0x090|                           08                  |         .      |                n: 8 (valid) 0x99-0x9a (1)
0x090|                              74 79 70 65 2d 66|          type-f|                b: "type-f32" 0x9a-0xa2 (8)
0x0a0|33 32                                          |32              |
     |                                               |                |              d{}: 0xa2-0xa4 (2)
0x0a0|      00                                       |  .             |                tag: "funcidx" (0x0) 0xa2-0xa3 (1)
0x0a0|         03                                    |   .            |                x: 3 (valid) 0xa3-0xa4 (1)
     |                                               |                |            [3]{}: ex 0xa4-0xaf (11)
     |                                               |                |              nm{}: 0xa4-0xad (9)
0x0a0|            08                                 |    .           |                n: 8 (valid) 0xa4-0xa5 (1)
0x0a0|               74 79 70 65 2d 66 36 34         |     type-f64   |                b: "type-f64" 0xa5-0xad (8)
     |                                               |                |              d{}: 0xad-0xaf (2)
0x0a0|                                       00      |             .  |                tag: "funcidx" (0x0) 0xad-0xae (1)
0x0a0|                                          04   |              . |                x: 4 (valid) 0xae-0xaf (1)
     |                                               |                |            [4]{}: ex 0xaf-0xc0 (17)
     |                                               |                |              nm{}: 0xaf-0xbe (15)
0x0a0|                                             0e|               .|                n: 14 (valid) 0xaf-0xb0 (1)
0x0b0|74 79 70 65 2d 69 33 32 2d 76 61 6c 75 65      |type-i32-value  |                b: "type-i32-value" 0xb0-0xbe (14)
     |                                               |                |              d{}: 0xbe-0xc0 (2)
0x0b0|                                          00   |              . |                tag: "funcidx" (0x0) 0xbe-0xbf (1)
0x0b0|                                             05|               .|                x: 5 (valid) 0xbf-0xc0 (1)
     |                                               |                |            [5]{}: ex 0xc0-0xd1 (17)
     |                                               |                |              nm{}: 0xc0-0xcf (15)
0x0c0|0e                                             |.               |                n: 14 (valid) 0xc0-0xc1 (1)
0x0c0|   74 79 70 65 2d 69 36 34 2d 76 61 6c 75 65   | type-i64-value |                b: "type-i64-value" 0xc1-0xcf (14)
     |                                               |                |              d{}: 0xcf-0xd1 (2)
0x0c0|                                             00|               .|                tag: "funcidx" (0x0) 0xcf-0xd0 (1)
0x0d0|06                                             |.               |                x: 6 (valid) 0xd0-0xd1 (1)
     |                                               |                |            [6]{}: ex 0xd1-0xe2 (17)
     |                                               |                |              nm{}: 0xd1-0xe0 (15)
0x0d0|   0e                                          | .              |                n: 14 (valid) 0xd1-0xd2 (1)
0x0d0|      74 79 70 65 2d 66 33 32 2d 76 61 6c 75 65|  type-f32-value|                b: "type-f32-value" 0xd2-0xe0 (14)
     |                                               |                |              d{}: 0xe0-0xe2 (2)
0x0e0|00                                             |.               |                tag: "funcidx" (0x0) 0xe0-0xe1 (1)
0x0e0|   07                                          | .              |                x: 7 (valid) 0xe1-0xe2 (1)
     |                                               |                |            [7]{}: ex 0xe2-0xf3 (17)
     |                                               |                |              nm{}: 0xe2-0xf1 (15)
0x0e0|      0e                                       |  .             |                n: 14 (valid) 0xe2-0xe3 (1)
0x0e0|         74 79 70 65 2d 66 36 34 2d 76 61 6c 75|   type-f64-valu|                b: "type-f64-value" 0xe3-0xf1 (14)
0x0f0|65                                             |e               |
     |                                               |                |              d{}: 0xf1-0xf3 (2)
0x0f0|   00                                          | .              |                tag: "funcidx" (0x0) 0xf1-0xf2 (1)
0x0f0|      08                                       |  .             |                x: 8 (valid) 0xf2-0xf3 (1)
     |                                               |                |            [8]{}: ex 0xf3-0xfd (10)
     |                                               |                |              nm{}: 0xf3-0xfb (8)
0x0f0|         07                                    |   .            |                n: 7 (valid) 0xf3-0xf4 (1)
0x0f0|            6e 75 6c 6c 61 72 79               |    nullary     |                b: "nullary" 0xf4-0xfb (7)
     |                                               |                |              d{}: 0xfb-0xfd (2)
0x0f0|                                 00            |           .    |                tag: "funcidx" (0x0) 0xfb-0xfc (1)
0x0f0|                                    09         |            .   |                x: 9 (valid) 0xfc-0xfd (1)
     |                                               |                |            [9]{}: ex 0xfd-0x105 (8)
     |                                               |                |              nm{}: 0xfd-0x103 (6)
0x0f0|                                       05      |             .  |                n: 5 (valid) 0xfd-0xfe (1)
0x0f0|                                          75 6e|              un|                b: "unary" 0xfe-0x103 (5)
0x100|61 72 79                                       |ary             |
     |                                               |                |              d{}: 0x103-0x105 (2)
0x100|         00                                    |   .            |                tag: "funcidx" (0x0) 0x103-0x104 (1)
0x100|            0a                                 |    .           |                x: 10 (valid) 0x104-0x105 (1)
     |                                               |                |            [10]{}: ex 0x105-0x115 (16)
     |                                               |                |              nm{}: 0x105-0x113 (14)
0x100|               0d                              |     .          |                n: 13 (valid) 0x105-0x106 (1)
0x100|                  61 73 2d 66 75 6e 63 2d 66 69|      as-func-fi|                b: "as-func-first" 0x106-0x113 (13)
0x110|72 73 74                                       |rst             |
     |                                               |                |              d{}: 0x113-0x115 (2)
0x110|         00                                    |   .            |                tag: "funcidx" (0x0) 0x113-0x114 (1)
0x110|            0b                                 |    .           |                x: 11 (valid) 0x114-0x115 (1)
     |                                               |                |            [11]{}: ex 0x115-0x123 (14)
     |                                               |                |              nm{}: 0x115-0x121 (12)
0x110|               0b                              |     .          |                n: 11 (valid) 0x115-0x116 (1)
0x110|                  61 73 2d 66 75 6e 63 2d 6d 69|      as-func-mi|                b: "as-func-mid" 0x116-0x121 (11)
0x120|64                                             |d               |
     |                                               |                |              d{}: 0x121-0x123 (2)
0x120|   00                                          | .              |                tag: "funcidx" (0x0) 0x121-0x122 (1)
0x120|      0c                                       |  .             |                x: 12 (valid) 0x122-0x123 (1)
     |                                               |                |            [12]{}: ex 0x123-0x132 (15)
     |                                               |                |              nm{}: 0x123-0x130 (13)
0x120|         0c                                    |   .            |                n: 12 (valid) 0x123-0x124 (1)
0x120|            61 73 2d 66 75 6e 63 2d 6c 61 73 74|    as-func-last|                b: "as-func-last" 0x124-0x130 (12)
     |                                               |                |              d{}: 0x130-0x132 (2)
0x130|00                                             |.               |                tag: "funcidx" (0x0) 0x130-0x131 (1)
0x130|   0d                                          | .              |                x: 13 (valid) 0x131-0x132 (1)
     |                                               |                |            [13]{}: ex 0x132-0x142 (16)
     |                                               |                |              nm{}: 0x132-0x140 (14)
0x130|      0d                                       |  .             |                n: 13 (valid) 0x132-0x133 (1)
0x130|         61 73 2d 66 75 6e 63 2d 76 61 6c 75 65|   as-func-value|                b: "as-func-value" 0x133-0x140 (13)
     |                                               |                |              d{}: 0x140-0x142 (2)
0x140|00                                             |.               |                tag: "funcidx" (0x0) 0x140-0x141 (1)
0x140|   0e                                          | .              |                x: 14 (valid) 0x141-0x142 (1)
     |                                               |                |            [14]{}: ex 0x142-0x153 (17)
     |                                               |                |              nm{}: 0x142-0x151 (15)
0x140|      0e                                       |  .             |                n: 14 (valid) 0x142-0x143 (1)
0x140|         61 73 2d 62 6c 6f 63 6b 2d 66 69 72 73|   as-block-firs|                b: "as-block-first" 0x143-0x151 (14)
0x150|74                                             |t               |
     |                                               |                |              d{}: 0x151-0x153 (2)
0x150|   00                                          | .              |                tag: "funcidx" (0x0) 0x151-0x152 (1)
0x150|      0f                                       |  .             |                x: 15 (valid) 0x152-0x153 (1)
     |                                               |                |            [15]{}: ex 0x153-0x162 (15)
     |                                               |                |              nm{}: 0x153-0x160 (13)
0x150|         0c                                    |   .            |                n: 12 (valid) 0x153-0x154 (1)
0x150|            61 73 2d 62 6c 6f 63 6b 2d 6d 69 64|    as-block-mid|                b: "as-block-mid" 0x154-0x160 (12)
     |                                               |                |              d{}: 0x160-0x162 (2)
0x160|00                                             |.               |                tag: "funcidx" (0x0) 0x160-0x161 (1)
0x160|   10                                          | .              |                x: 16 (valid) 0x161-0x162 (1)
     |                                               |                |            [16]{}: ex 0x162-0x172 (16)
     |                                               |                |              nm{}: 0x162-0x170 (14)
0x160|      0d                                       |  .             |                n: 13 (valid) 0x162-0x163 (1)
0x160|         61 73 2d 62 6c 6f 63 6b 2d 6c 61 73 74|   as-block-last|                b: "as-block-last" 0x163-0x170 (13)
     |                                               |                |              d{}: 0x170-0x172 (2)
0x170|00                                             |.               |                tag: "funcidx" (0x0) 0x170-0x171 (1)
0x170|   11                                          | .              |                x: 17 (valid) 0x171-0x172 (1)
     |                                               |                |            [17]{}: ex 0x172-0x183 (17)
     |                                               |                |              nm{}: 0x172-0x181 (15)
0x170|      0e                                       |  .             |                n: 14 (valid) 0x172-0x173 (1)
0x170|         61 73 2d 62 6c 6f 63 6b 2d 76 61 6c 75|   as-block-valu|                b: "as-block-value" 0x173-0x181 (14)
0x180|65                                             |e               |
     |                                               |                |              d{}: 0x181-0x183 (2)
0x180|   00                                          | .              |                tag: "funcidx" (0x0) 0x181-0x182 (1)
0x180|      12                                       |  .             |                x: 18 (valid) 0x182-0x183 (1)
     |                                               |                |            [18]{}: ex 0x183-0x193 (16)
     |                                               |                |              nm{}: 0x183-0x191 (14)
0x180|         0d                                    |   .            |                n: 13 (valid) 0x183-0x184 (1)
0x180|            61 73 2d 6c 6f 6f 70 2d 66 69 72 73|    as-loop-firs|                b: "as-loop-first" 0x184-0x191 (13)
0x190|74                                             |t               |
     |                                               |                |              d{}: 0x191-0x193 (2)
0x190|   00                                          | .              |                tag: "funcidx" (0x0) 0x191-0x192 (1)
0x190|      13                                       |  .             |                x: 19 (valid) 0x192-0x193 (1)
     |                                               |                |            [19]{}: ex 0x193-0x1a1 (14)
     |                                               |                |              nm{}: 0x193-0x19f (12)
0x190|         0b                                    |   .            |                n: 11 (valid) 0x193-0x194 (1)
0x190|            61 73 2d 6c 6f 6f 70 2d 6d 69 64   |    as-loop-mid |                b: "as-loop-mid" 0x194-0x19f (11)
     |                                               |                |              d{}: 0x19f-0x1a1 (2)
0x190|                                             00|               .|                tag: "funcidx" (0x0) 0x19f-0x1a0 (1)
0x1a0|14                                             |.               |                x: 20 (valid) 0x1a0-0x1a1 (1)
     |                                               |                |            [20]{}: ex 0x1a1-0x1b0 (15)
     |                                               |                |              nm{}: 0x1a1-0x1ae (13)
0x1a0|   0c                                          | .              |                n: 12 (valid) 0x1a1-0x1a2 (1)
0x1a0|      61 73 2d 6c 6f 6f 70 2d 6c 61 73 74      |  as-loop-last  |                b: "as-loop-last" 0x1a2-0x1ae (12)
     |                                               |                |              d{}: 0x1ae-0x1b0 (2)
0x1a0|                                          00   |              . |                tag: "funcidx" (0x0) 0x1ae-0x1af (1)
0x1a0|                                             15|               .|                x: 21 (valid) 0x1af-0x1b0 (1)
     |                                               |                |            [21]{}: ex 0x1b0-0x1be (14)
     |                                               |                |              nm{}: 0x1b0-0x1bc (12)
0x1b0|0b                                             |.               |                n: 11 (valid) 0x1b0-0x1b1 (1)
0x1b0|   61 73 2d 62 72 2d 76 61 6c 75 65            | as-br-value    |                b: "as-br-value" 0x1b1-0x1bc (11)
     |                                               |                |              d{}: 0x1bc-0x1be (2)
0x1b0|                                    00         |            .   |                tag: "funcidx" (0x0) 0x1bc-0x1bd (1)
0x1b0|                                       16      |             .  |                x: 22 (valid) 0x1bd-0x1be (1)
     |                                               |                |            [22]{}: ex 0x1be-0x1ce (16)
     |                                               |                |              nm{}: 0x1be-0x1cc (14)
0x1b0|                                          0d   |              . |                n: 13 (valid) 0x1be-0x1bf (1)
0x1b0|                                             61|               a|                b: "as-br_if-cond" 0x1bf-0x1cc (13)
0x1c0|73 2d 62 72 5f 69 66 2d 63 6f 6e 64            |s-br_if-cond    |
     |                                               |                |              d{}: 0x1cc-0x1ce (2)
0x1c0|                                    00         |            .   |                tag: "funcidx" (0x0) 0x1cc-0x1cd (1)
0x1c0|                                       17      |             .  |                x: 23 (valid) 0x1cd-0x1ce (1)
     |                                               |                |            [23]{}: ex 0x1ce-0x1df (17)
     |                                               |                |              nm{}: 0x1ce-0x1dd (15)
0x1c0|                                          0e   |              . |                n: 14 (valid) 0x1ce-0x1cf (1)
0x1c0|                                             61|               a|                b: "as-br_if-value" 0x1cf-0x1dd (14)
0x1d0|73 2d 62 72 5f 69 66 2d 76 61 6c 75 65         |s-br_if-value   |
     |                                               |                |              d{}: 0x1dd-0x1df (2)
0x1d0|                                       00      |             .  |                tag: "funcidx" (0x0) 0x1dd-0x1de (1)
0x1d0|                                          18   |              . |                x: 24 (valid) 0x1de-0x1df (1)
     |                                               |                |            [24]{}: ex 0x1df-0x1f5 (22)
     |                                               |                |              nm{}: 0x1df-0x1f3 (20)
0x1d0|                                             13|               .|                n: 19 (valid) 0x1df-0x1e0 (1)
0x1e0|61 73 2d 62 72 5f 69 66 2d 76 61 6c 75 65 2d 63|as-br_if-value-c|                b: "as-br_if-value-cond" 0x1e0-0x1f3 (19)
0x1f0|6f 6e 64                                       |ond             |
     |                                               |                |              d{}: 0x1f3-0x1f5 (2)
0x1f0|         00                                    |   .            |                tag: "funcidx" (0x0) 0x1f3-0x1f4 (1)
0x1f0|            19                                 |    .           |                x: 25 (valid) 0x1f4-0x1f5 (1)
     |                                               |                |            [25]{}: ex 0x1f5-0x209 (20)
     |                                               |                |              nm{}: 0x1f5-0x207 (18)
0x1f0|               11                              |     .          |                n: 17 (valid) 0x1f5-0x1f6 (1)
0x1f0|                  61 73 2d 62 72 5f 74 61 62 6c|      as-br_tabl|                b: "as-br_table-index" 0x1f6-0x207 (17)
0x200|65 2d 69 6e 64 65 78                           |e-index         |
     |                                               |                |              d{}: 0x207-0x209 (2)
0x200|                     00                        |       .        |                tag: "funcidx" (0x0) 0x207-0x208 (1)
0x200|                        1a                     |        .       |                x: 26 (valid) 0x208-0x209 (1)
     |                                               |                |            [26]{}: ex 0x209-0x21d (20)
     |                                               |                |              nm{}: 0x209-0x21b (18)
0x200|                           11                  |         .      |                n: 17 (valid) 0x209-0x20a (1)
0x200|                              61 73 2d 62 72 5f|          as-br_|                b: "as-br_table-value" 0x20a-0x21b (17)
0x210|74 61 62 6c 65 2d 76 61 6c 75 65               |table-value     |
     |                                               |                |              d{}: 0x21b-0x21d (2)
0x210|                                 00            |           .    |                tag: "funcidx" (0x0) 0x21b-0x21c (1)
0x210|                                    1b         |            .   |                x: 27 (valid) 0x21c-0x21d (1)
     |                                               |                |            [27]{}: ex 0x21d-0x237 (26)
     |                                               |                |              nm{}: 0x21d-0x235 (24)
0x210|                                       17      |             .  |                n: 23 (valid) 0x21d-0x21e (1)
0x210|                                          61 73|              as|                b: "as-br_table-value-index" 0x21e-0x235 (23)
0x220|2d 62 72 5f 74 61 62 6c 65 2d 76 61 6c 75 65 2d|-br_table-value-|
0x230|69 6e 64 65 78                                 |index           |
     |                                               |                |              d{}: 0x235-0x237 (2)
0x230|               00                              |     .          |                tag: "funcidx" (0x0) 0x235-0x236 (1)
0x230|                  1c                           |      .         |                x: 28 (valid) 0x236-0x237 (1)
     |                                               |                |            [28]{}: ex 0x237-0x249 (18)
     |                                               |                |              nm{}: 0x237-0x247 (16)
0x230|                     0f                        |       .        |                n: 15 (valid) 0x237-0x238 (1)
0x230|                        61 73 2d 72 65 74 75 72|        as-retur|                b: "as-return-value" 0x238-0x247 (15)
0x240|6e 2d 76 61 6c 75 65                           |n-value         |
     |                                               |                |              d{}: 0x247-0x249 (2)
0x240|                     00                        |       .        |                tag: "funcidx" (0x0) 0x247-0x248 (1)
0x240|                        1d                     |        .       |                x: 29 (valid) 0x248-0x249 (1)
     |                                               |                |            [29]{}: ex 0x249-0x256 (13)
     |                                               |                |              nm{}: 0x249-0x254 (11)
0x240|                           0a                  |         .      |                n: 10 (valid) 0x249-0x24a (1)
0x240|                              61 73 2d 69 66 2d|          as-if-|                b: "as-if-cond" 0x24a-0x254 (10)
0x250|63 6f 6e 64                                    |cond            |
     |                                               |                |              d{}: 0x254-0x256 (2)
0x250|            00                                 |    .           |                tag: "funcidx" (0x0) 0x254-0x255 (1)
0x250|               1e                              |     .          |                x: 30 (valid) 0x255-0x256 (1)
     |                                               |                |            [30]{}: ex 0x256-0x263 (13)
     |                                               |                |              nm{}: 0x256-0x261 (11)
0x250|                  0a                           |      .         |                n: 10 (valid) 0x256-0x257 (1)
0x250|                     61 73 2d 69 66 2d 74 68 65|       as-if-the|                b: "as-if-then" 0x257-0x261 (10)
0x260|6e                                             |n               |
     |                                               |                |              d{}: 0x261-0x263 (2)
0x260|   00                                          | .              |                tag: "funcidx" (0x0) 0x261-0x262 (1)
0x260|      1f                                       |  .             |                x: 31 (valid) 0x262-0x263 (1)
     |                                               |                |            [31]{}: ex 0x263-0x270 (13)
     |                                               |                |              nm{}: 0x263-0x26e (11)
0x260|         0a                                    |   .            |                n: 10 (valid) 0x263-0x264 (1)
0x260|            61 73 2d 69 66 2d 65 6c 73 65      |    as-if-else  |                b: "as-if-else" 0x264-0x26e (10)
     |                                               |                |              d{}: 0x26e-0x270 (2)
0x260|                                          00   |              . |                tag: "funcidx" (0x0) 0x26e-0x26f (1)
0x260|                                             20|                |                x: 32 (valid) 0x26f-0x270 (1)
     |                                               |                |            [32]{}: ex 0x270-0x282 (18)
     |                                               |                |              nm{}: 0x270-0x280 (16)
0x270|0f                                             |.               |                n: 15 (valid) 0x270-0x271 (1)
0x270|   61 73 2d 73 65 6c 65 63 74 2d 66 69 72 73 74| as-select-first|                b: "as-select-first" 0x271-0x280 (15)
     |                                               |                |              d{}: 0x280-0x282 (2)
0x280|00                                             |.               |                tag: "funcidx" (0x0) 0x280-0x281 (1)
0x280|   21                                          | !              |                x: 33 (valid) 0x281-0x282 (1)
     |                                               |                |            [33]{}: ex 0x282-0x295 (19)
     |                                               |                |              nm{}: 0x282-0x293 (17)
0x280|      10                                       |  .             |                n: 16 (valid) 0x282-0x283 (1)
0x280|         61 73 2d 73 65 6c 65 63 74 2d 73 65 63|   as-select-sec|                b: "as-select-second" 0x283-0x293 (16)
0x290|6f 6e 64                                       |ond             |
     |                                               |                |              d{}: 0x293-0x295 (2)
0x290|         00                                    |   .            |                tag: "funcidx" (0x0) 0x293-0x294 (1)
0x290|            22                                 |    "           |                x: 34 (valid) 0x294-0x295 (1)
     |                                               |                |            [34]{}: ex 0x295-0x2a6 (17)
     |                                               |                |              nm{}: 0x295-0x2a4 (15)
0x290|               0e                              |     .          |                n: 14 (valid) 0x295-0x296 (1)
0x290|                  61 73 2d 73 65 6c 65 63 74 2d|      as-select-|                b: "as-select-cond" 0x296-0x2a4 (14)
0x2a0|63 6f 6e 64                                    |cond            |
     |                                               |                |              d{}: 0x2a4-0x2a6 (2)
0x2a0|            00                                 |    .           |                tag: "funcidx" (0x0) 0x2a4-0x2a5 (1)
0x2a0|               23                              |     #          |                x: 35 (valid) 0x2a5-0x2a6 (1)
     |                                               |                |            [35]{}: ex 0x2a6-0x2b6 (16)
     |                                               |                |              nm{}: 0x2a6-0x2b4 (14)
0x2a0|                  0d                           |      .         |                n: 13 (valid) 0x2a6-0x2a7 (1)
0x2a0|                     61 73 2d 63 61 6c 6c 2d 66|       as-call-f|                b: "as-call-first" 0x2a7-0x2b4 (13)
0x2b0|69 72 73 74                                    |irst            |
     |                                               |                |              d{}: 0x2b4-0x2b6 (2)
0x2b0|            00                                 |    .           |                tag: "funcidx" (0x0) 0x2b4-0x2b5 (1)
0x2b0|               25                              |     %          |                x: 37 (valid) 0x2b5-0x2b6 (1)
     |                                               |                |            [36]{}: ex 0x2b6-0x2c4 (14)
     |                                               |                |              nm{}: 0x2b6-0x2c2 (12)
0x2b0|                  0b                           |      .         |                n: 11 (valid) 0x2b6-0x2b7 (1)
0x2b0|                     61 73 2d 63 61 6c 6c 2d 6d|       as-call-m|                b: "as-call-mid" 0x2b7-0x2c2 (11)
0x2c0|69 64                                          |id              |
     |                                               |                |              d{}: 0x2c2-0x2c4 (2)
0x2c0|      00                                       |  .             |                tag: "funcidx" (0x0) 0x2c2-0x2c3 (1)
0x2c0|         26                                    |   &            |                x: 38 (valid) 0x2c3-0x2c4 (1)
     |                                               |                |            [37]{}: ex 0x2c4-0x2d3 (15)
     |                                               |                |              nm{}: 0x2c4-0x2d1 (13)
0x2c0|            0c                                 |    .           |                n: 12 (valid) 0x2c4-0x2c5 (1)
0x2c0|               61 73 2d 63 61 6c 6c 2d 6c 61 73|     as-call-las|                b: "as-call-last" 0x2c5-0x2d1 (12)
0x2d0|74                                             |t               |
     |                                               |                |              d{}: 0x2d1-0x2d3 (2)
0x2d0|   00                                          | .              |                tag: "funcidx" (0x0) 0x2d1-0x2d2 (1)
0x2d0|      27                                       |  '             |                x: 39 (valid) 0x2d2-0x2d3 (1)
     |                                               |                |            [38]{}: ex 0x2d3-0x2eb (24)
     |                                               |                |              nm{}: 0x2d3-0x2e9 (22)
0x2d0|         15                                    |   .            |                n: 21 (valid) 0x2d3-0x2d4 (1)
0x2d0|            61 73 2d 63 61 6c 6c 5f 69 6e 64 69|    as-call_indi|                b: "as-call_indirect-func" 0x2d4-0x2e9 (21)
0x2e0|72 65 63 74 2d 66 75 6e 63                     |rect-func       |
     |                                               |                |              d{}: 0x2e9-0x2eb (2)
0x2e0|                           00                  |         .      |                tag: "funcidx" (0x0) 0x2e9-0x2ea (1)
0x2e0|                              28               |          (     |                x: 40 (valid) 0x2ea-0x2eb (1)
     |                                               |                |            [39]{}: ex 0x2eb-0x304 (25)
     |                                               |                |              nm{}: 0x2eb-0x302 (23)
0x2e0|                                 16            |           .    |                n: 22 (valid) 0x2eb-0x2ec (1)
0x2e0|                                    61 73 2d 63|            as-c|                b: "as-call_indirect-first" 0x2ec-0x302 (22)
0x2f0|61 6c 6c 5f 69 6e 64 69 72 65 63 74 2d 66 69 72|all_indirect-fir|
0x300|73 74                                          |st              |
     |                                               |                |              d{}: 0x302-0x304 (2)
0x300|      00                                       |  .             |                tag: "funcidx" (0x0) 0x302-0x303 (1)
0x300|         29                                    |   )            |                x: 41 (valid) 0x303-0x304 (1)
     |                                               |                |            [40]{}: ex 0x304-0x31b (23)
     |                                               |                |              nm{}: 0x304-0x319 (21)
0x300|            14                                 |    .           |                n: 20 (valid) 0x304-0x305 (1)
0x300|               61 73 2d 63 61 6c 6c 5f 69 6e 64|     as-call_ind|                b: "as-call_indirect-mid" 0x305-0x319 (20)
0x310|69 72 65 63 74 2d 6d 69 64                     |irect-mid       |
     |                                               |                |              d{}: 0x319-0x31b (2)
0x310|                           00                  |         .      |                tag: "funcidx" (0x0) 0x319-0x31a (1)
0x310|                              2a               |          *     |                x: 42 (valid) 0x31a-0x31b (1)
     |                                               |                |            [41]{}: ex 0x31b-0x333 (24)
     |                                               |                |              nm{}: 0x31b-0x331 (22)
0x310|                                 15            |           .    |                n: 21 (valid) 0x31b-0x31c (1)
0x310|                                    61 73 2d 63|            as-c|                b: "as-call_indirect-last" 0x31c-0x331 (21)
0x320|61 6c 6c 5f 69 6e 64 69 72 65 63 74 2d 6c 61 73|all_indirect-las|
0x330|74                                             |t               |
     |                                               |                |              d{}: 0x331-0x333 (2)
0x330|   00                                          | .              |                tag: "funcidx" (0x0) 0x331-0x332 (1)
0x330|      2b                                       |  +             |                x: 43 (valid) 0x332-0x333 (1)
     |                                               |                |            [42]{}: ex 0x333-0x348 (21)
     |                                               |                |              nm{}: 0x333-0x346 (19)
0x330|         12                                    |   .            |                n: 18 (valid) 0x333-0x334 (1)
0x330|            61 73 2d 6c 6f 63 61 6c 2e 73 65 74|    as-local.set|                b: "as-local.set-value" 0x334-0x346 (18)
0x340|2d 76 61 6c 75 65                              |-value          |
     |                                               |                |              d{}: 0x346-0x348 (2)
0x340|                  00                           |      .         |                tag: "funcidx" (0x0) 0x346-0x347 (1)
0x340|                     2c                        |       ,        |                x: 44 (valid) 0x347-0x348 (1)
     |                                               |                |            [43]{}: ex 0x348-0x35d (21)
     |                                               |                |              nm{}: 0x348-0x35b (19)
0x340|                        12                     |        .       |                n: 18 (valid) 0x348-0x349 (1)
0x340|                           61 73 2d 6c 6f 63 61|         as-loca|                b: "as-local.tee-value" 0x349-0x35b (18)
0x350|6c 2e 74 65 65 2d 76 61 6c 75 65               |l.tee-value     |
     |                                               |                |              d{}: 0x35b-0x35d (2)
0x350|                                 00            |           .    |                tag: "funcidx" (0x0) 0x35b-0x35c (1)
0x350|                                    2d         |            -   |                x: 45 (valid) 0x35c-0x35d (1)
     |                                               |                |            [44]{}: ex 0x35d-0x373 (22)
     |                                               |                |              nm{}: 0x35d-0x371 (20)
0x350|                                       13      |             .  |                n: 19 (valid) 0x35d-0x35e (1)
0x350|                                          61 73|              as|                b: "as-global.set-value" 0x35e-0x371 (19)
0x360|2d 67 6c 6f 62 61 6c 2e 73 65 74 2d 76 61 6c 75|-global.set-valu|
0x370|65                                             |e               |
     |                                               |                |              d{}: 0x371-0x373 (2)
0x370|   00                                          | .              |                tag: "funcidx" (0x0) 0x371-0x372 (1)
0x370|      2e                                       |  .             |                x: 46 (valid) 0x372-0x373 (1)
     |                                               |                |            [45]{}: ex 0x373-0x385 (18)
     |                                               |                |              nm{}: 0x373-0x383 (16)
0x370|         0f                                    |   .            |                n: 15 (valid) 0x373-0x374 (1)
0x370|            61 73 2d 6c 6f 61 64 2d 61 64 64 72|    as-load-addr|                b: "as-load-address" 0x374-0x383 (15)
0x380|65 73 73                                       |ess             |
     |                                               |                |              d{}: 0x383-0x385 (2)
0x380|         00                                    |   .            |                tag: "funcidx" (0x0) 0x383-0x384 (1)
0x380|            2f                                 |    /           |                x: 47 (valid) 0x384-0x385 (1)
     |                                               |                |            [46]{}: ex 0x385-0x398 (19)
     |                                               |                |              nm{}: 0x385-0x396 (17)
0x380|               10                              |     .          |                n: 16 (valid) 0x385-0x386 (1)
0x380|                  61 73 2d 6c 6f 61 64 4e 2d 61|      as-loadN-a|                b: "as-loadN-address" 0x386-0x396 (16)
0x390|64 64 72 65 73 73                              |ddress          |
     |                                               |                |              d{}: 0x396-0x398 (2)
0x390|                  00                           |      .         |                tag: "funcidx" (0x0) 0x396-0x397 (1)
0x390|                     30                        |       0        |                x: 48 (valid) 0x397-0x398 (1)
     |                                               |                |            [47]{}: ex 0x398-0x3ab (19)
     |                                               |                |              nm{}: 0x398-0x3a9 (17)
0x390|                        10                     |        .       |                n: 16 (valid) 0x398-0x399 (1)
0x390|                           61 73 2d 73 74 6f 72|         as-stor|                b: "as-store-address" 0x399-0x3a9 (16)
0x3a0|65 2d 61 64 64 72 65 73 73                     |e-address       |
     |                                               |                |              d{}: 0x3a9-0x3ab (2)
0x3a0|                           00                  |         .      |                tag: "funcidx" (0x0) 0x3a9-0x3aa (1)
0x3a0|                              31               |          1     |                x: 49 (valid) 0x3aa-0x3ab (1)
     |                                               |                |            [48]{}: ex 0x3ab-0x3bc (17)
     |                                               |                |              nm{}: 0x3ab-0x3ba (15)
0x3a0|                                 0e            |           .    |                n: 14 (valid) 0x3ab-0x3ac (1)
0x3a0|                                    61 73 2d 73|            as-s|                b: "as-store-value" 0x3ac-0x3ba (14)
0x3b0|74 6f 72 65 2d 76 61 6c 75 65                  |tore-value      |
     |                                               |                |              d{}: 0x3ba-0x3bc (2)
0x3b0|                              00               |          .     |                tag: "funcidx" (0x0) 0x3ba-0x3bb (1)
0x3b0|                                 32            |           2    |                x: 50 (valid) 0x3bb-0x3bc (1)
     |                                               |                |            [49]{}: ex 0x3bc-0x3d0 (20)
     |                                               |                |              nm{}: 0x3bc-0x3ce (18)
0x3b0|                                    11         |            .   |                n: 17 (valid) 0x3bc-0x3bd (1)
0x3b0|                                       61 73 2d|             as-|                b: "as-storeN-address" 0x3bd-0x3ce (17)
0x3c0|73 74 6f 72 65 4e 2d 61 64 64 72 65 73 73      |storeN-address  |
     |                                               |                |              d{}: 0x3ce-0x3d0 (2)
0x3c0|                                          00   |              . |                tag: "funcidx" (0x0) 0x3ce-0x3cf (1)
0x3c0|                                             33|               3|                x: 51 (valid) 0x3cf-0x3d0 (1)
     |                                               |                |            [50]{}: ex 0x3d0-0x3e2 (18)
     |                                               |                |              nm{}: 0x3d0-0x3e0 (16)
0x3d0|0f                                             |.               |                n: 15 (valid) 0x3d0-0x3d1 (1)
0x3d0|   61 73 2d 73 74 6f 72 65 4e 2d 76 61 6c 75 65| as-storeN-value|                b: "as-storeN-value" 0x3d1-0x3e0 (15)
     |                                               |                |              d{}: 0x3e0-0x3e2 (2)
0x3e0|00                                             |.               |                tag: "funcidx" (0x0) 0x3e0-0x3e1 (1)
0x3e0|   34                                          | 4              |                x: 52 (valid) 0x3e1-0x3e2 (1)
     |                                               |                |            [51]{}: ex 0x3e2-0x3f5 (19)
     |                                               |                |              nm{}: 0x3e2-0x3f3 (17)
0x3e0|      10                                       |  .             |                n: 16 (valid) 0x3e2-0x3e3 (1)
0x3e0|         61 73 2d 75 6e 61 72 79 2d 6f 70 65 72|   as-unary-oper|                b: "as-unary-operand" 0x3e3-0x3f3 (16)
0x3f0|61 6e 64                                       |and             |
     |                                               |                |              d{}: 0x3f3-0x3f5 (2)
0x3f0|         00                                    |   .            |                tag: "funcidx" (0x0) 0x3f3-0x3f4 (1)
0x3f0|            35                                 |    5           |                x: 53 (valid) 0x3f4-0x3f5 (1)
     |                                               |                |            [52]{}: ex 0x3f5-0x406 (17)
     |                                               |                |              nm{}: 0x3f5-0x404 (15)
0x3f0|               0e                              |     .          |                n: 14 (valid) 0x3f5-0x3f6 (1)
0x3f0|                  61 73 2d 62 69 6e 61 72 79 2d|      as-binary-|                b: "as-binary-left" 0x3f6-0x404 (14)
0x400|6c 65 66 74                                    |left            |
     |                                               |                |              d{}: 0x404-0x406 (2)
0x400|            00                                 |    .           |                tag: "funcidx" (0x0) 0x404-0x405 (1)
0x400|               36                              |     6          |                x: 54 (valid) 0x405-0x406 (1)
     |                                               |                |            [53]{}: ex 0x406-0x418 (18)
     |                                               |                |              nm{}: 0x406-0x416 (16)
0x400|                  0f                           |      .         |                n: 15 (valid) 0x406-0x407 (1)
0x400|                     61 73 2d 62 69 6e 61 72 79|       as-binary|                b: "as-binary-right" 0x407-0x416 (15)
0x410|2d 72 69 67 68 74                              |-right          |
     |                                               |                |              d{}: 0x416-0x418 (2)
0x410|                  00                           |      .         |                tag: "funcidx" (0x0) 0x416-0x417 (1)
0x410|                     37                        |       7        |                x: 55 (valid) 0x417-0x418 (1)
     |                                               |                |            [54]{}: ex 0x418-0x42a (18)
     |                                               |                |              nm{}: 0x418-0x428 (16)
0x410|                        0f                     |        .       |                n: 15 (valid) 0x418-0x419 (1)
0x410|                           61 73 2d 74 65 73 74|         as-test|                b: "as-test-operand" 0x419-0x428 (15)
0x420|2d 6f 70 65 72 61 6e 64                        |-operand        |
     |                                               |                |              d{}: 0x428-0x42a (2)
0x420|                        00                     |        .       |                tag: "funcidx" (0x0) 0x428-0x429 (1)
0x420|                           38                  |         8      |                x: 56 (valid) 0x429-0x42a (1)
     |                                               |                |            [55]{}: ex 0x42a-0x43c (18)
     |                                               |                |              nm{}: 0x42a-0x43a (16)
0x420|                              0f               |          .     |                n: 15 (valid) 0x42a-0x42b (1)
0x420|                                 61 73 2d 63 6f|           as-co|                b: "as-compare-left" 0x42b-0x43a (15)
0x430|6d 70 61 72 65 2d 6c 65 66 74                  |mpare-left      |
     |                                               |                |              d{}: 0x43a-0x43c (2)
0x430|                              00               |          .     |                tag: "funcidx" (0x0) 0x43a-0x43b (1)
0x430|                                 39            |           9    |                x: 57 (valid) 0x43b-0x43c (1)
     |                                               |                |            [56]{}: ex 0x43c-0x44f (19)
     |                                               |                |              nm{}: 0x43c-0x44d (17)
0x430|                                    10         |            .   |                n: 16 (valid) 0x43c-0x43d (1)
0x430|                                       61 73 2d|             as-|                b: "as-compare-right" 0x43d-0x44d (16)
0x440|63 6f 6d 70 61 72 65 2d 72 69 67 68 74         |compare-right   |
     |                                               |                |              d{}: 0x44d-0x44f (2)
0x440|                                       00      |             .  |                tag: "funcidx" (0x0) 0x44d-0x44e (1)
0x440|                                          3a   |              : |                x: 58 (valid) 0x44e-0x44f (1)
     |                                               |                |            [57]{}: ex 0x44f-0x464 (21)
     |                                               |                |              nm{}: 0x44f-0x462 (19)
0x440|                                             12|               .|                n: 18 (valid) 0x44f-0x450 (1)
0x450|61 73 2d 63 6f 6e 76 65 72 74 2d 6f 70 65 72 61|as-convert-opera|                b: "as-convert-operand" 0x450-0x462 (18)
0x460|6e 64                                          |nd              |
     |                                               |                |              d{}: 0x462-0x464 (2)
0x460|      00                                       |  .             |                tag: "funcidx" (0x0) 0x462-0x463 (1)
0x460|         3b                                    |   ;            |                x: 59 (valid) 0x463-0x464 (1)
     |                                               |                |            [58]{}: ex 0x464-0x47a (22)
     |                                               |                |              nm{}: 0x464-0x478 (20)
0x460|            13                                 |    .           |                n: 19 (valid) 0x464-0x465 (1)
0x460|               61 73 2d 6d 65 6d 6f 72 79 2e 67|     as-memory.g|                b: "as-memory.grow-size" 0x465-0x478 (19)
0x470|72 6f 77 2d 73 69 7a 65                        |row-size        |
     |                                               |                |              d{}: 0x478-0x47a (2)
0x470|                        00                     |        .       |                tag: "funcidx" (0x0) 0x478-0x479 (1)
0x470|                           3c                  |         <      |                x: 60 (valid) 0x479-0x47a (1)
     |                                               |                |    [6]{}: section 0x47a-0x483 (9)
0x470|                              09               |          .     |      id: "element_section" (9) 0x47a-0x47b (1)
0x470|                                 07            |           .    |      size: 7 (valid) 0x47b-0x47c (1)
     |                                               |                |      element{}: 0x47c-0x483 (7)
     |                                               |                |        seg{}: 0x47c-0x483 (7)
0x470|                                    01         |            .   |          n: 1 (valid) 0x47c-0x47d (1)
     |                                               |                |          x[0:1]: 0x47d-0x483 (6)
     |                                               |                |            [0]{}: seg 0x47d-0x483 (6)
0x470|                                       00      |             .  |              tag: 0 (valid) 0x47d-0x47e (1)
     |                                               |                |              e[0:2]: 0x47e-0x481 (3)
     |                                               |                |                [0]{}: in 0x47e-0x480 (2)
0x470|                                          41   |              A |                  opcode: "i32.const" (0x41) 0x47e-0x47f (1)
0x470|                                             00|               .|                  n: 0 (valid) 0x47f-0x480 (1)
     |                                               |                |                [1]{}: in 0x480-0x481 (1)
0x480|0b                                             |.               |                  opcode: "end" (0xb) 0x480-0x481 (1)
     |                                               |                |              y{}: 0x481-0x483 (2)
0x480|   01                                          | .              |                n: 1 (valid) 0x481-0x482 (1)
     |                                               |                |                x[0:1]: 0x482-0x483 (1)
0x480|      24                                       |  $             |                  [0]: 36 y (valid) 0x482-0x483 (1)
     |                                               |                |    [7]{}: section 0x483-0x72f (684)
0x480|         0a                                    |   .            |      id: "code_section" (10) 0x483-0x484 (1)
0x480|            a9 05                              |    ..          |      size: 681 (valid) 0x484-0x486 (2)
     |                                               |                |      content{}: 0x486-0x72f (681)
     |                                               |                |        code{}: 0x486-0x72f (681)
0x480|                  3d                           |      =         |          n: 61 (valid) 0x486-0x487 (1)
     |                                               |                |          x[0:61]: 0x487-0x72f (680)
     |                                               |                |            [0]{}: code 0x487-0x48a (3)
0x480|                     02                        |       .        |              size: 2 (valid) 0x487-0x488 (1)
     |                                               |                |              code{}: 0x488-0x48a (2)
     |                                               |                |                t{}: 0x488-0x489 (1)
0x480|                        00                     |        .       |                  n: 0 (valid) 0x488-0x489 (1)
     |                                               |                |                  x[0:0]: 0x489-0x489 (0)
     |                                               |                |                e[0:1]: 0x489-0x48a (1)
     |                                               |                |                  [0]{}: in 0x489-0x48a (1)
0x480|                           0b                  |         .      |                    opcode: "end" (0xb) 0x489-0x48a (1)
     |                                               |                |            [1]{}: code 0x48a-0x490 (6)
0x480|                              05               |          .     |              size: 5 (valid) 0x48a-0x48b (1)
     |                                               |                |              code{}: 0x48b-0x490 (5)
     |                                               |                |                t{}: 0x48b-0x48c (1)
0x480|                                 00            |           .    |                  n: 0 (valid) 0x48b-0x48c (1)
     |                                               |                |                  x[0:0]: 0x48c-0x48c (0)
     |                                               |                |                e[0:4]: 0x48c-0x490 (4)
     |                                               |                |                  [0]{}: in 0x48c-0x48d (1)
0x480|                                    0f         |            .   |                    opcode: "return" (0xf) 0x48c-0x48d (1)
     |                                               |                |                  [1]{}: in 0x48d-0x48e (1)
0x480|                                       68      |             h  |                    opcode: "i32.ctz" (0x68) 0x48d-0x48e (1)
     |                                               |                |                  [2]{}: in 0x48e-0x48f (1)
0x480|                                          1a   |              . |                    opcode: "drop" (0x1a) 0x48e-0x48f (1)
     |                                               |                |                  [3]{}: in 0x48f-0x490 (1)
0x480|                                             0b|               .|                    opcode: "end" (0xb) 0x48f-0x490 (1)
     |                                               |                |            [2]{}: code 0x490-0x496 (6)
0x490|05                                             |.               |              size: 5 (valid) 0x490-0x491 (1)
     |                                               |                |              code{}: 0x491-0x496 (5)
     |                                               |                |                t{}: 0x491-0x492 (1)
0x490|   00                                          | .              |                  n: 0 (valid) 0x491-0x492 (1)
     |                                               |                |                  x[0:0]: 0x492-0x492 (0)
     |                                               |                |                e[0:4]: 0x492-0x496 (4)
     |                                               |                |                  [0]{}: in 0x492-0x493 (1)
0x490|      0f                                       |  .             |                    opcode: "return" (0xf) 0x492-0x493 (1)
     |                                               |                |                  [1]{}: in 0x493-0x494 (1)
0x490|         7a                                    |   z            |                    opcode: "i64.ctz" (0x7a) 0x493-0x494 (1)
     |                                               |                |                  [2]{}: in 0x494-0x495 (1)
0x490|            1a                                 |    .           |                    opcode: "drop" (0x1a) 0x494-0x495 (1)
     |                                               |                |                  [3]{}: in 0x495-0x496 (1)
0x490|               0b                              |     .          |                    opcode: "end" (0xb) 0x495-0x496 (1)
     |                                               |                |            [3]{}: code 0x496-0x49c (6)
0x490|                  05                           |      .         |              size: 5 (valid) 0x496-0x497 (1)
     |                                               |                |              code{}: 0x497-0x49c (5)
     |                                               |                |                t{}: 0x497-0x498 (1)
0x490|                     00                        |       .        |                  n: 0 (valid) 0x497-0x498 (1)
     |                                               |                |                  x[0:0]: 0x498-0x498 (0)
     |                                               |                |                e[0:4]: 0x498-0x49c (4)
     |                                               |                |                  [0]{}: in 0x498-0x499 (1)
0x490|                        0f                     |        .       |                    opcode: "return" (0xf) 0x498-0x499 (1)
     |                                               |                |                  [1]{}: in 0x499-0x49a (1)
0x490|                           8c                  |         .      |                    opcode: "f32.neg" (0x8c) 0x499-0x49a (1)
     |                                               |                |                  [2]{}: in 0x49a-0x49b (1)
0x490|                              1a               |          .     |                    opcode: "drop" (0x1a) 0x49a-0x49b (1)
     |                                               |                |                  [3]{}: in 0x49b-0x49c (1)
0x490|                                 0b            |           .    |                    opcode: "end" (0xb) 0x49b-0x49c (1)
     |                                               |                |            [4]{}: code 0x49c-0x4a2 (6)
0x490|                                    05         |            .   |              size: 5 (valid) 0x49c-0x49d (1)
     |                                               |                |              code{}: 0x49d-0x4a2 (5)
     |                                               |                |                t{}: 0x49d-0x49e (1)
0x490|                                       00      |             .  |                  n: 0 (valid) 0x49d-0x49e (1)
     |                                               |                |                  x[0:0]: 0x49e-0x49e (0)
     |                                               |                |                e[0:4]: 0x49e-0x4a2 (4)
     |                                               |                |                  [0]{}: in 0x49e-0x49f (1)
0x490|                                          0f   |              . |                    opcode: "return" (0xf) 0x49e-0x49f (1)
     |                                               |                |                  [1]{}: in 0x49f-0x4a0 (1)
0x490|                                             9a|               .|                    opcode: "f64.neg" (0x9a) 0x49f-0x4a0 (1)
     |                                               |                |                  [2]{}: in 0x4a0-0x4a1 (1)
0x4a0|1a                                             |.               |                    opcode: "drop" (0x1a) 0x4a0-0x4a1 (1)
     |                                               |                |                  [3]{}: in 0x4a1-0x4a2 (1)
0x4a0|   0b                                          | .              |                    opcode: "end" (0xb) 0x4a1-0x4a2 (1)
     |                                               |                |            [5]{}: code 0x4a2-0x4ac (10)
0x4a0|      09                                       |  .             |              size: 9 (valid) 0x4a2-0x4a3 (1)
     |                                               |                |              code{}: 0x4a3-0x4ac (9)
     |                                               |                |                t{}: 0x4a3-0x4a4 (1)
0x4a0|         00                                    |   .            |                  n: 0 (valid) 0x4a3-0x4a4 (1)
     |                                               |                |                  x[0:0]: 0x4a4-0x4a4 (0)
     |                                               |                |                e[0:2]: 0x4a4-0x4ac (8)
     |                                               |                |                  [0]{}: in 0x4a4-0x4ab (7)
0x4a0|            02                                 |    .           |                    opcode: "block" (0x2) 0x4a4-0x4a5 (1)
0x4a0|               7f                              |     .          |                    bt: "i32" (127) 0x4a5-0x4a6 (1)
     |                                               |                |                    instructions[0:3]: 0x4a6-0x4aa (4)
     |                                               |                |                      [0]{}: instr 0x4a6-0x4a8 (2)
0x4a0|                  41                           |      A         |                        opcode: "i32.const" (0x41) 0x4a6-0x4a7 (1)
0x4a0|                     01                        |       .        |                        n: 1 (valid) 0x4a7-0x4a8 (1)
     |                                               |                |                      [1]{}: instr 0x4a8-0x4a9 (1)
0x4a0|                        0f                     |        .       |                        opcode: "return" (0xf) 0x4a8-0x4a9 (1)
     |                                               |                |                      [2]{}: instr 0x4a9-0x4aa (1)
0x4a0|                           68                  |         h      |                        opcode: "i32.ctz" (0x68) 0x4a9-0x4aa (1)
0x4a0|                              0b               |          .     |                    end: 0xb (valid) 0x4aa-0x4ab (1)
     |                                               |                |                  [1]{}: in 0x4ab-0x4ac (1)
0x4a0|                                 0b            |           .    |                    opcode: "end" (0xb) 0x4ab-0x4ac (1)
     |                                               |                |            [6]{}: code 0x4ac-0x4b6 (10)
0x4a0|                                    09         |            .   |              size: 9 (valid) 0x4ac-0x4ad (1)
     |                                               |                |              code{}: 0x4ad-0x4b6 (9)
     |                                               |                |                t{}: 0x4ad-0x4ae (1)
0x4a0|                                       00      |             .  |                  n: 0 (valid) 0x4ad-0x4ae (1)
     |                                               |                |                  x[0:0]: 0x4ae-0x4ae (0)
     |                                               |                |                e[0:2]: 0x4ae-0x4b6 (8)
     |                                               |                |                  [0]{}: in 0x4ae-0x4b5 (7)
0x4a0|                                          02   |              . |                    opcode: "block" (0x2) 0x4ae-0x4af (1)
0x4a0|                                             7e|               ~|                    bt: "i64" (126) 0x4af-0x4b0 (1)
     |                                               |                |                    instructions[0:3]: 0x4b0-0x4b4 (4)
     |                                               |                |                      [0]{}: instr 0x4b0-0x4b2 (2)
0x4b0|42                                             |B               |                        opcode: "i64.const" (0x42) 0x4b0-0x4b1 (1)
0x4b0|   02                                          | .              |                        n: 2 0x4b1-0x4b2 (1)
     |                                               |                |                      [1]{}: instr 0x4b2-0x4b3 (1)
0x4b0|      0f                                       |  .             |                        opcode: "return" (0xf) 0x4b2-0x4b3 (1)
     |                                               |                |                      [2]{}: instr 0x4b3-0x4b4 (1)
0x4b0|         7a                                    |   z            |                        opcode: "i64.ctz" (0x7a) 0x4b3-0x4b4 (1)
0x4b0|            0b                                 |    .           |                    end: 0xb (valid) 0x4b4-0x4b5 (1)
     |                                               |                |                  [1]{}: in 0x4b5-0x4b6 (1)
0x4b0|               0b                              |     .          |                    opcode: "end" (0xb) 0x4b5-0x4b6 (1)
     |                                               |                |            [7]{}: code 0x4b6-0x4c3 (13)
0x4b0|                  0c                           |      .         |              size: 12 (valid) 0x4b6-0x4b7 (1)
     |                                               |                |              code{}: 0x4b7-0x4c3 (12)
     |                                               |                |                t{}: 0x4b7-0x4b8 (1)
0x4b0|                     00                        |       .        |                  n: 0 (valid) 0x4b7-0x4b8 (1)
     |                                               |                |                  x[0:0]: 0x4b8-0x4b8 (0)
     |                                               |                |                e[0:2]: 0x4b8-0x4c3 (11)
     |                                               |                |                  [0]{}: in 0x4b8-0x4c2 (10)
0x4b0|                        02                     |        .       |                    opcode: "block" (0x2) 0x4b8-0x4b9 (1)
0x4b0|                           7d                  |         }      |                    bt: "f32" (125) 0x4b9-0x4ba (1)
     |                                               |                |                    instructions[0:3]: 0x4ba-0x4c1 (7)
     |                                               |                |                      [0]{}: instr 0x4ba-0x4bf (5)
0x4b0|                              43               |          C     |                        opcode: "f32.const" (0x43) 0x4ba-0x4bb (1)
0x4b0|                                 00 00 40 40   |           ..@@ |                        z: 3 0x4bb-0x4bf (4)
     |                                               |                |                      [1]{}: instr 0x4bf-0x4c0 (1)
0x4b0|                                             0f|               .|                        opcode: "return" (0xf) 0x4bf-0x4c0 (1)
     |                                               |                |                      [2]{}: instr 0x4c0-0x4c1 (1)
0x4c0|8c                                             |.               |                        opcode: "f32.neg" (0x8c) 0x4c0-0x4c1 (1)
0x4c0|   0b                                          | .              |                    end: 0xb (valid) 0x4c1-0x4c2 (1)
     |                                               |                |                  [1]{}: in 0x4c2-0x4c3 (1)
0x4c0|      0b                                       |  .             |                    opcode: "end" (0xb) 0x4c2-0x4c3 (1)
     |                                               |                |            [8]{}: code 0x4c3-0x4d4 (17)
0x4c0|         10                                    |   .            |              size: 16 (valid) 0x4c3-0x4c4 (1)
     |                                               |                |              code{}: 0x4c4-0x4d4 (16)
     |                                               |                |                t{}: 0x4c4-0x4c5 (1)
0x4c0|            00                                 |    .           |                  n: 0 (valid) 0x4c4-0x4c5 (1)
     |                                               |                |                  x[0:0]: 0x4c5-0x4c5 (0)
     |                                               |                |                e[0:2]: 0x4c5-0x4d4 (15)
     |                                               |                |                  [0]{}: in 0x4c5-0x4d3 (14)
0x4c0|               02                              |     .          |                    opcode: "block" (0x2) 0x4c5-0x4c6 (1)
0x4c0|                  7c                           |      |         |                    bt: "f64" (124) 0x4c6-0x4c7 (1)
     |                                               |                |                    instructions[0:3]: 0x4c7-0x4d2 (11)
     |                                               |                |                      [0]{}: instr 0x4c7-0x4d0 (9)
0x4c0|                     44                        |       D        |                        opcode: "f64.const" (0x44) 0x4c7-0x4c8 (1)
0x4c0|                        00 00 00 00 00 00 10 40|        .......@|                        z: 4 0x4c8-0x4d0 (8)
     |                                               |                |                      [1]{}: instr 0x4d0-0x4d1 (1)
0x4d0|0f                                             |.               |                        opcode: "return" (0xf) 0x4d0-0x4d1 (1)
     |                                               |                |                      [2]{}: instr 0x4d1-0x4d2 (1)
0x4d0|   9a                                          | .              |                        opcode: "f64.neg" (0x9a) 0x4d1-0x4d2 (1)
0x4d0|      0b                                       |  .             |                    end: 0xb (valid) 0x4d2-0x4d3 (1)
     |                                               |                |                  [1]{}: in 0x4d3-0x4d4 (1)
0x4d0|         0b                                    |   .            |                    opcode: "end" (0xb) 0x4d3-0x4d4 (1)
     |                                               |                |            [9]{}: code 0x4d4-0x4d8 (4)
0x4d0|            03                                 |    .           |              size: 3 (valid) 0x4d4-0x4d5 (1)
     |                                               |                |              code{}: 0x4d5-0x4d8 (3)
     |                                               |                |                t{}: 0x4d5-0x4d6 (1)
0x4d0|               00                              |     .          |                  n: 0 (valid) 0x4d5-0x4d6 (1)
     |                                               |                |                  x[0:0]: 0x4d6-0x4d6 (0)
     |                                               |                |                e[0:2]: 0x4d6-0x4d8 (2)
     |                                               |                |                  [0]{}: in 0x4d6-0x4d7 (1)
0x4d0|                  0f                           |      .         |                    opcode: "return" (0xf) 0x4d6-0x4d7 (1)
     |                                               |                |                  [1]{}: in 0x4d7-0x4d8 (1)
0x4d0|                     0b                        |       .        |                    opcode: "end" (0xb) 0x4d7-0x4d8 (1)
     |                                               |                |            [10]{}: code 0x4d8-0x4e5 (13)
0x4d0|                        0c                     |        .       |              size: 12 (valid) 0x4d8-0x4d9 (1)
     |                                               |                |              code{}: 0x4d9-0x4e5 (12)
     |                                               |                |                t{}: 0x4d9-0x4da (1)
0x4d0|                           00                  |         .      |                  n: 0 (valid) 0x4d9-0x4da (1)
     |                                               |                |                  x[0:0]: 0x4da-0x4da (0)
     |                                               |                |                e[0:3]: 0x4da-0x4e5 (11)
     |                                               |                |                  [0]{}: in 0x4da-0x4e3 (9)
0x4d0|                              44               |          D     |                    opcode: "f64.const" (0x44) 0x4da-0x4db (1)
0x4d0|                                 00 00 00 00 00|           .....|                    z: 3 0x4db-0x4e3 (8)
0x4e0|00 08 40                                       |..@             |
     |                                               |                |                  [1]{}: in 0x4e3-0x4e4 (1)
0x4e0|         0f                                    |   .            |                    opcode: "return" (0xf) 0x4e3-0x4e4 (1)
     |                                               |                |                  [2]{}: in 0x4e4-0x4e5 (1)
0x4e0|            0b                                 |    .           |                    opcode: "end" (0xb) 0x4e4-0x4e5 (1)
     |                                               |                |            [11]{}: code 0x4e5-0x4ed (8)
0x4e0|               07                              |     .          |              size: 7 (valid) 0x4e5-0x4e6 (1)
     |                                               |                |              code{}: 0x4e6-0x4ed (7)
     |                                               |                |                t{}: 0x4e6-0x4e7 (1)
0x4e0|                  00                           |      .         |                  n: 0 (valid) 0x4e6-0x4e7 (1)
     |                                               |                |                  x[0:0]: 0x4e7-0x4e7 (0)
     |                                               |                |                e[0:4]: 0x4e7-0x4ed (6)
     |                                               |                |                  [0]{}: in 0x4e7-0x4e9 (2)
0x4e0|                     41                        |       A        |                    opcode: "i32.const" (0x41) 0x4e7-0x4e8 (1)
0x4e0|                        01                     |        .       |                    n: 1 (valid) 0x4e8-0x4e9 (1)
     |                                               |                |                  [1]{}: in 0x4e9-0x4ea (1)
0x4e0|                           0f                  |         .      |                    opcode: "return" (0xf) 0x4e9-0x4ea (1)
     |                                               |                |                  [2]{}: in 0x4ea-0x4ec (2)
0x4e0|                              41               |          A     |                    opcode: "i32.const" (0x41) 0x4ea-0x4eb (1)
0x4e0|                                 02            |           .    |                    n: 2 (valid) 0x4eb-0x4ec (1)
     |                                               |                |                  [3]{}: in 0x4ec-0x4ed (1)
0x4e0|                                    0b         |            .   |                    opcode: "end" (0xb) 0x4ec-0x4ed (1)
     |                                               |                |            [12]{}: code 0x4ed-0x4f7 (10)
0x4e0|                                       09      |             .  |              size: 9 (valid) 0x4ed-0x4ee (1)
     |                                               |                |              code{}: 0x4ee-0x4f7 (9)
     |                                               |                |                t{}: 0x4ee-0x4ef (1)
0x4e0|                                          00   |              . |                  n: 0 (valid) 0x4ee-0x4ef (1)
     |                                               |                |                  x[0:0]: 0x4ef-0x4ef (0)
     |                                               |                |                e[0:5]: 0x4ef-0x4f7 (8)
     |                                               |                |                  [0]{}: in 0x4ef-0x4f1 (2)
0x4e0|                                             10|               .|                    opcode: "call" (0x10) 0x4ef-0x4f0 (1)
0x4f0|00                                             |.               |                    x: 0 (valid) 0x4f0-0x4f1 (1)
     |                                               |                |                  [1]{}: in 0x4f1-0x4f3 (2)
0x4f0|   41                                          | A              |                    opcode: "i32.const" (0x41) 0x4f1-0x4f2 (1)
0x4f0|      02                                       |  .             |                    n: 2 (valid) 0x4f2-0x4f3 (1)
     |                                               |                |                  [2]{}: in 0x4f3-0x4f4 (1)
0x4f0|         0f                                    |   .            |                    opcode: "return" (0xf) 0x4f3-0x4f4 (1)
     |                                               |                |                  [3]{}: in 0x4f4-0x4f6 (2)
0x4f0|            41                                 |    A           |                    opcode: "i32.const" (0x41) 0x4f4-0x4f5 (1)
0x4f0|               03                              |     .          |                    n: 3 (valid) 0x4f5-0x4f6 (1)
     |                                               |                |                  [4]{}: in 0x4f6-0x4f7 (1)
0x4f0|                  0b                           |      .         |                    opcode: "end" (0xb) 0x4f6-0x4f7 (1)
     |                                               |                |            [13]{}: code 0x4f7-0x4fe (7)
0x4f0|                     06                        |       .        |              size: 6 (valid) 0x4f7-0x4f8 (1)
     |                                               |                |              code{}: 0x4f8-0x4fe (6)
     |                                               |                |                t{}: 0x4f8-0x4f9 (1)
0x4f0|                        00                     |        .       |                  n: 0 (valid) 0x4f8-0x4f9 (1)
     |                                               |                |                  x[0:0]: 0x4f9-0x4f9 (0)
     |                                               |                |                e[0:4]: 0x4f9-0x4fe (5)
     |                                               |                |                  [0]{}: in 0x4f9-0x4fa (1)
0x4f0|                           01                  |         .      |                    opcode: "nop" (0x1) 0x4f9-0x4fa (1)
     |                                               |                |                  [1]{}: in 0x4fa-0x4fc (2)
0x4f0|                              10               |          .     |                    opcode: "call" (0x10) 0x4fa-0x4fb (1)
0x4f0|                                 00            |           .    |                    x: 0 (valid) 0x4fb-0x4fc (1)
     |                                               |                |                  [2]{}: in 0x4fc-0x4fd (1)
0x4f0|                                    0f         |            .   |                    opcode: "return" (0xf) 0x4fc-0x4fd (1)
     |                                               |                |                  [3]{}: in 0x4fd-0x4fe (1)
0x4f0|                                       0b      |             .  |                    opcode: "end" (0xb) 0x4fd-0x4fe (1)
     |                                               |                |            [14]{}: code 0x4fe-0x507 (9)
0x4f0|                                          08   |              . |              size: 8 (valid) 0x4fe-0x4ff (1)
     |                                               |                |              code{}: 0x4ff-0x507 (8)
     |                                               |                |                t{}: 0x4ff-0x500 (1)
0x4f0|                                             00|               .|                  n: 0 (valid) 0x4ff-0x500 (1)
     |                                               |                |                  x[0:0]: 0x500-0x500 (0)
     |                                               |                |                e[0:5]: 0x500-0x507 (7)
     |                                               |                |                  [0]{}: in 0x500-0x501 (1)
0x500|01                                             |.               |                    opcode: "nop" (0x1) 0x500-0x501 (1)
     |                                               |                |                  [1]{}: in 0x501-0x503 (2)
0x500|   10                                          | .              |                    opcode: "call" (0x10) 0x501-0x502 (1)
0x500|      00                                       |  .             |                    x: 0 (valid) 0x502-0x503 (1)
     |                                               |                |                  [2]{}: in 0x503-0x505 (2)
0x500|         41                                    |   A            |                    opcode: "i32.const" (0x41) 0x503-0x504 (1)
0x500|            03                                 |    .           |                    n: 3 (valid) 0x504-0x505 (1)
     |                                               |                |                  [3]{}: in 0x505-0x506 (1)
0x500|               0f                              |     .          |                    opcode: "return" (0xf) 0x505-0x506 (1)
     |                                               |                |                  [4]{}: in 0x506-0x507 (1)
0x500|                  0b                           |      .         |                    opcode: "end" (0xb) 0x506-0x507 (1)
     |                                               |                |            [15]{}: code 0x507-0x510 (9)
0x500|                     08                        |       .        |              size: 8 (valid) 0x507-0x508 (1)
     |                                               |                |              code{}: 0x508-0x510 (8)
     |                                               |                |                t{}: 0x508-0x509 (1)
0x500|                        00                     |        .       |                  n: 0 (valid) 0x508-0x509 (1)
     |                                               |                |                  x[0:0]: 0x509-0x509 (0)
     |                                               |                |                e[0:2]: 0x509-0x510 (7)
     |                                               |                |                  [0]{}: in 0x509-0x50f (6)
0x500|                           02                  |         .      |                    opcode: "block" (0x2) 0x509-0x50a (1)
0x500|                              40               |          @     |                    bt: "ε" (64) 0x50a-0x50b (1)
     |                                               |                |                    instructions[0:2]: 0x50b-0x50e (3)
     |                                               |                |                      [0]{}: instr 0x50b-0x50c (1)
0x500|                                 0f            |           .    |                        opcode: "return" (0xf) 0x50b-0x50c (1)
     |                                               |                |                      [1]{}: instr 0x50c-0x50e (2)
0x500|                                    10         |            .   |                        opcode: "call" (0x10) 0x50c-0x50d (1)
0x500|                                       00      |             .  |                        x: 0 (valid) 0x50d-0x50e (1)
0x500|                                          0b   |              . |                    end: 0xb (valid) 0x50e-0x50f (1)
     |                                               |                |                  [1]{}: in 0x50f-0x510 (1)
0x500|                                             0b|               .|                    opcode: "end" (0xb) 0x50f-0x510 (1)
     |                                               |                |            [16]{}: code 0x510-0x51b (11)
0x510|0a                                             |.               |              size: 10 (valid) 0x510-0x511 (1)
     |                                               |                |              code{}: 0x511-0x51b (10)
     |                                               |                |                t{}: 0x511-0x512 (1)
0x510|   00                                          | .              |                  n: 0 (valid) 0x511-0x512 (1)
     |                                               |                |                  x[0:0]: 0x512-0x512 (0)
     |                                               |                |                e[0:2]: 0x512-0x51b (9)
     |                                               |                |                  [0]{}: in 0x512-0x51a (8)
0x510|      02                                       |  .             |                    opcode: "block" (0x2) 0x512-0x513 (1)
0x510|         40                                    |   @            |                    bt: "ε" (64) 0x513-0x514 (1)
     |                                               |                |                    instructions[0:3]: 0x514-0x519 (5)
     |                                               |                |                      [0]{}: instr 0x514-0x516 (2)
0x510|            10                                 |    .           |                        opcode: "call" (0x10) 0x514-0x515 (1)
0x510|               00                              |     .          |                        x: 0 (valid) 0x515-0x516 (1)
     |                                               |                |                      [1]{}: instr 0x516-0x517 (1)
0x510|                  0f                           |      .         |                        opcode: "return" (0xf) 0x516-0x517 (1)
     |                                               |                |                      [2]{}: instr 0x517-0x519 (2)
0x510|                     10                        |       .        |                        opcode: "call" (0x10) 0x517-0x518 (1)
0x510|                        00                     |        .       |                        x: 0 (valid) 0x518-0x519 (1)
0x510|                           0b                  |         .      |                    end: 0xb (valid) 0x519-0x51a (1)
     |                                               |                |                  [1]{}: in 0x51a-0x51b (1)
0x510|                              0b               |          .     |                    opcode: "end" (0xb) 0x51a-0x51b (1)
     |                                               |                |            [17]{}: code 0x51b-0x525 (10)
0x510|                                 09            |           .    |              size: 9 (valid) 0x51b-0x51c (1)
     |                                               |                |              code{}: 0x51c-0x525 (9)
     |                                               |                |                t{}: 0x51c-0x51d (1)
0x510|                                    00         |            .   |                  n: 0 (valid) 0x51c-0x51d (1)
     |                                               |                |                  x[0:0]: 0x51d-0x51d (0)
     |                                               |                |                e[0:2]: 0x51d-0x525 (8)
     |                                               |                |                  [0]{}: in 0x51d-0x524 (7)
0x510|                                       02      |             .  |                    opcode: "block" (0x2) 0x51d-0x51e (1)
0x510|                                          40   |              @ |                    bt: "ε" (64) 0x51e-0x51f (1)
     |                                               |                |                    instructions[0:3]: 0x51f-0x523 (4)
     |                                               |                |                      [0]{}: instr 0x51f-0x520 (1)
0x510|                                             01|               .|                        opcode: "nop" (0x1) 0x51f-0x520 (1)
     |                                               |                |                      [1]{}: instr 0x520-0x522 (2)
0x520|10                                             |.               |                        opcode: "call" (0x10) 0x520-0x521 (1)
0x520|   00                                          | .              |                        x: 0 (valid) 0x521-0x522 (1)
     |                                               |                |                      [2]{}: instr 0x522-0x523 (1)
0x520|      0f                                       |  .             |                        opcode: "return" (0xf) 0x522-0x523 (1)
0x520|         0b                                    |   .            |                    end: 0xb (valid) 0x523-0x524 (1)
     |                                               |                |                  [1]{}: in 0x524-0x525 (1)
0x520|            0b                                 |    .           |                    opcode: "end" (0xb) 0x524-0x525 (1)
     |                                               |                |            [18]{}: code 0x525-0x531 (12)
0x520|               0b                              |     .          |              size: 11 (valid) 0x525-0x526 (1)
     |                                               |                |              code{}: 0x526-0x531 (11)
     |                                               |                |                t{}: 0x526-0x527 (1)
0x520|                  00                           |      .         |                  n: 0 (valid) 0x526-0x527 (1)
     |                                               |                |                  x[0:0]: 0x527-0x527 (0)
     |                                               |                |                e[0:2]: 0x527-0x531 (10)
     |                                               |                |                  [0]{}: in 0x527-0x530 (9)
0x520|                     02                        |       .        |                    opcode: "block" (0x2) 0x527-0x528 (1)
0x520|                        7f                     |        .       |                    bt: "i32" (127) 0x528-0x529 (1)
     |                                               |                |                    instructions[0:4]: 0x529-0x52f (6)
     |                                               |                |                      [0]{}: instr 0x529-0x52a (1)
0x520|                           01                  |         .      |                        opcode: "nop" (0x1) 0x529-0x52a (1)
     |                                               |                |                      [1]{}: instr 0x52a-0x52c (2)
0x520|                              10               |          .     |                        opcode: "call" (0x10) 0x52a-0x52b (1)
0x520|                                 00            |           .    |                        x: 0 (valid) 0x52b-0x52c (1)
     |                                               |                |                      [2]{}: instr 0x52c-0x52e (2)
0x520|                                    41         |            A   |                        opcode: "i32.const" (0x41) 0x52c-0x52d (1)
0x520|                                       02      |             .  |                        n: 2 (valid) 0x52d-0x52e (1)
     |                                               |                |                      [3]{}: instr 0x52e-0x52f (1)
0x520|                                          0f   |              . |                        opcode: "return" (0xf) 0x52e-0x52f (1)
0x520|                                             0b|               .|                    end: 0xb (valid) 0x52f-0x530 (1)
     |                                               |                |                  [1]{}: in 0x530-0x531 (1)
0x530|0b                                             |.               |                    opcode: "end" (0xb) 0x530-0x531 (1)
     |                                               |                |            [19]{}: code 0x531-0x53c (11)
0x530|   0a                                          | .              |              size: 10 (valid) 0x531-0x532 (1)
     |                                               |                |              code{}: 0x532-0x53c (10)
     |                                               |                |                t{}: 0x532-0x533 (1)
0x530|      00                                       |  .             |                  n: 0 (valid) 0x532-0x533 (1)
     |                                               |                |                  x[0:0]: 0x533-0x533 (0)
     |                                               |                |                e[0:2]: 0x533-0x53c (9)
     |                                               |                |                  [0]{}: in 0x533-0x53b (8)
0x530|         03                                    |   .            |                    opcode: "loop" (0x3) 0x533-0x534 (1)
0x530|            7f                                 |    .           |                    bt: "i32" (127) 0x534-0x535 (1)
     |                                               |                |                    instructions[0:3]: 0x535-0x53a (5)
     |                                               |                |                      [0]{}: instr 0x535-0x537 (2)
0x530|               41                              |     A          |                        opcode: "i32.const" (0x41) 0x535-0x536 (1)
0x530|                  03                           |      .         |                        n: 3 (valid) 0x536-0x537 (1)
     |                                               |                |                      [1]{}: instr 0x537-0x538 (1)
0x530|                     0f                        |       .        |                        opcode: "return" (0xf) 0x537-0x538 (1)
     |                                               |                |                      [2]{}: instr 0x538-0x53a (2)
0x530|                        41                     |        A       |                        opcode: "i32.const" (0x41) 0x538-0x539 (1)
0x530|                           02                  |         .      |                        n: 2 (valid) 0x539-0x53a (1)
0x530|                              0b               |          .     |                    end: 0xb (valid) 0x53a-0x53b (1)
     |                                               |                |                  [1]{}: in 0x53b-0x53c (1)
0x530|                                 0b            |           .    |                    opcode: "end" (0xb) 0x53b-0x53c (1)
     |                                               |                |            [20]{}: code 0x53c-0x549 (13)
0x530|                                    0c         |            .   |              size: 12 (valid) 0x53c-0x53d (1)
     |                                               |                |              code{}: 0x53d-0x549 (12)
     |                                               |                |                t{}: 0x53d-0x53e (1)
0x530|                                       00      |             .  |                  n: 0 (valid) 0x53d-0x53e (1)
     |                                               |                |                  x[0:0]: 0x53e-0x53e (0)
     |                                               |                |                e[0:2]: 0x53e-0x549 (11)
     |                                               |                |                  [0]{}: in 0x53e-0x548 (10)
0x530|                                          03   |              . |                    opcode: "loop" (0x3) 0x53e-0x53f (1)
0x530|                                             7f|               .|                    bt: "i32" (127) 0x53f-0x540 (1)
     |                                               |                |                    instructions[0:4]: 0x540-0x547 (7)
     |                                               |                |                      [0]{}: instr 0x540-0x542 (2)
0x540|10                                             |.               |                        opcode: "call" (0x10) 0x540-0x541 (1)
0x540|   00                                          | .              |                        x: 0 (valid) 0x541-0x542 (1)
     |                                               |                |                      [1]{}: instr 0x542-0x544 (2)
0x540|      41                                       |  A             |                        opcode: "i32.const" (0x41) 0x542-0x543 (1)
0x540|         04                                    |   .            |                        n: 4 (valid) 0x543-0x544 (1)
     |                                               |                |                      [2]{}: instr 0x544-0x545 (1)
0x540|            0f                                 |    .           |                        opcode: "return" (0xf) 0x544-0x545 (1)
     |                                               |                |                      [3]{}: instr 0x545-0x547 (2)
0x540|               41                              |     A          |                        opcode: "i32.const" (0x41) 0x545-0x546 (1)
0x540|                  02                           |      .         |                        n: 2 (valid) 0x546-0x547 (1)
0x540|                     0b                        |       .        |                    end: 0xb (valid) 0x547-0x548 (1)
     |                                               |                |                  [1]{}: in 0x548-0x549 (1)
0x540|                        0b                     |        .       |                    opcode: "end" (0xb) 0x548-0x549 (1)
     |                                               |                |            [21]{}: code 0x549-0x555 (12)
0x540|                           0b                  |         .      |              size: 11 (valid) 0x549-0x54a (1)
     |                                               |                |              code{}: 0x54a-0x555 (11)
     |                                               |                |                t{}: 0x54a-0x54b (1)
0x540|                              00               |          .     |                  n: 0 (valid) 0x54a-0x54b (1)
     |                                               |                |                  x[0:0]: 0x54b-0x54b (0)
     |                                               |                |                e[0:2]: 0x54b-0x555 (10)
     |                                               |                |                  [0]{}: in 0x54b-0x554 (9)
0x540|                                 03            |           .    |                    opcode: "loop" (0x3) 0x54b-0x54c (1)
0x540|                                    7f         |            .   |                    bt: "i32" (127) 0x54c-0x54d (1)
     |                                               |                |                    instructions[0:4]: 0x54d-0x553 (6)
     |                                               |                |                      [0]{}: instr 0x54d-0x54e (1)
0x540|                                       01      |             .  |                        opcode: "nop" (0x1) 0x54d-0x54e (1)
     |                                               |                |                      [1]{}: instr 0x54e-0x550 (2)
0x540|                                          10   |              . |                        opcode: "call" (0x10) 0x54e-0x54f (1)
0x540|                                             00|               .|                        x: 0 (valid) 0x54f-0x550 (1)
     |                                               |                |                      [2]{}: instr 0x550-0x552 (2)
0x550|41                                             |A               |                        opcode: "i32.const" (0x41) 0x550-0x551 (1)
0x550|   05                                          | .              |                        n: 5 (valid) 0x551-0x552 (1)
     |                                               |                |                      [3]{}: instr 0x552-0x553 (1)
0x550|      0f                                       |  .             |                        opcode: "return" (0xf) 0x552-0x553 (1)
0x550|         0b                                    |   .            |                    end: 0xb (valid) 0x553-0x554 (1)
     |                                               |                |                  [1]{}: in 0x554-0x555 (1)
0x550|            0b                                 |    .           |                    opcode: "end" (0xb) 0x554-0x555 (1)
     |                                               |                |            [22]{}: code 0x555-0x560 (11)
0x550|               0a                              |     .          |              size: 10 (valid) 0x555-0x556 (1)
     |                                               |                |              code{}: 0x556-0x560 (10)
     |                                               |                |                t{}: 0x556-0x557 (1)
0x550|                  00                           |      .         |                  n: 0 (valid) 0x556-0x557 (1)
     |                                               |                |                  x[0:0]: 0x557-0x557 (0)
     |                                               |                |                e[0:2]: 0x557-0x560 (9)
     |                                               |                |                  [0]{}: in 0x557-0x55f (8)
0x550|                     02                        |       .        |                    opcode: "block" (0x2) 0x557-0x558 (1)
0x550|                        7f                     |        .       |                    bt: "i32" (127) 0x558-0x559 (1)
     |                                               |                |                    instructions[0:3]: 0x559-0x55e (5)
     |                                               |                |                      [0]{}: instr 0x559-0x55b (2)
0x550|                           41                  |         A      |                        opcode: "i32.const" (0x41) 0x559-0x55a (1)
0x550|                              09               |          .     |                        n: 9 (valid) 0x55a-0x55b (1)
     |                                               |                |                      [1]{}: instr 0x55b-0x55c (1)
0x550|                                 0f            |           .    |                        opcode: "return" (0xf) 0x55b-0x55c (1)
     |                                               |                |                      [2]{}: instr 0x55c-0x55e (2)
0x550|                                    0c         |            .   |                        opcode: "br" (0xc) 0x55c-0x55d (1)
0x550|                                       00      |             .  |                        l: 0 (valid) 0x55d-0x55e (1)
0x550|                                          0b   |              . |                    end: 0xb (valid) 0x55e-0x55f (1)
     |                                               |                |                  [1]{}: in 0x55f-0x560 (1)
0x550|                                             0b|               .|                    opcode: "end" (0xb) 0x55f-0x560 (1)
     |                                               |                |            [23]{}: code 0x560-0x569 (9)
0x560|08                                             |.               |              size: 8 (valid) 0x560-0x561 (1)
     |                                               |                |              code{}: 0x561-0x569 (8)
     |                                               |                |                t{}: 0x561-0x562 (1)
0x560|   00                                          | .              |                  n: 0 (valid) 0x561-0x562 (1)
     |                                               |                |                  x[0:0]: 0x562-0x562 (0)
     |                                               |                |                e[0:2]: 0x562-0x569 (7)
     |                                               |                |                  [0]{}: in 0x562-0x568 (6)
0x560|      02                                       |  .             |                    opcode: "block" (0x2) 0x562-0x563 (1)
0x560|         40                                    |   @            |                    bt: "ε" (64) 0x563-0x564 (1)
     |                                               |                |                    instructions[0:2]: 0x564-0x567 (3)
     |                                               |                |                      [0]{}: instr 0x564-0x565 (1)
0x560|            0f                                 |    .           |                        opcode: "return" (0xf) 0x564-0x565 (1)
     |                                               |                |                      [1]{}: instr 0x565-0x567 (2)
0x560|               0d                              |     .          |                        opcode: "br_if" (0xd) 0x565-0x566 (1)
0x560|                  00                           |      .         |                        l: 0 (valid) 0x566-0x567 (1)
0x560|                     0b                        |       .        |                    end: 0xb (valid) 0x567-0x568 (1)
     |                                               |                |                  [1]{}: in 0x568-0x569 (1)
0x560|                        0b                     |        .       |                    opcode: "end" (0xb) 0x568-0x569 (1)
     |                                               |                |            [24]{}: code 0x569-0x579 (16)
0x560|                           0f                  |         .      |              size: 15 (valid) 0x569-0x56a (1)
     |                                               |                |              code{}: 0x56a-0x579 (15)
     |                                               |                |                t{}: 0x56a-0x56b (1)
0x560|                              00               |          .     |                  n: 0 (valid) 0x56a-0x56b (1)
     |                                               |                |                  x[0:0]: 0x56b-0x56b (0)
     |                                               |                |                e[0:2]: 0x56b-0x579 (14)
     |                                               |                |                  [0]{}: in 0x56b-0x578 (13)
0x560|                                 02            |           .    |                    opcode: "block" (0x2) 0x56b-0x56c (1)
0x560|                                    7f         |            .   |                    bt: "i32" (127) 0x56c-0x56d (1)
     |                                               |                |                    instructions[0:6]: 0x56d-0x577 (10)
     |                                               |                |                      [0]{}: instr 0x56d-0x56f (2)
0x560|                                       41      |             A  |                        opcode: "i32.const" (0x41) 0x56d-0x56e (1)
0x560|                                          08   |              . |                        n: 8 (valid) 0x56e-0x56f (1)
     |                                               |                |                      [1]{}: instr 0x56f-0x570 (1)
0x560|                                             0f|               .|                        opcode: "return" (0xf) 0x56f-0x570 (1)
     |                                               |                |                      [2]{}: instr 0x570-0x572 (2)
0x570|41                                             |A               |                        opcode: "i32.const" (0x41) 0x570-0x571 (1)
0x570|   01                                          | .              |                        n: 1 (valid) 0x571-0x572 (1)
     |                                               |                |                      [3]{}: instr 0x572-0x574 (2)
0x570|      0d                                       |  .             |                        opcode: "br_if" (0xd) 0x572-0x573 (1)
0x570|         00                                    |   .            |                        l: 0 (valid) 0x573-0x574 (1)
     |                                               |                |                      [4]{}: instr 0x574-0x575 (1)
0x570|            1a                                 |    .           |                        opcode: "drop" (0x1a) 0x574-0x575 (1)
     |                                               |                |                      [5]{}: instr 0x575-0x577 (2)
0x570|               41                              |     A          |                        opcode: "i32.const" (0x41) 0x575-0x576 (1)
0x570|                  07                           |      .         |                        n: 7 (valid) 0x576-0x577 (1)
0x570|                     0b                        |       .        |                    end: 0xb (valid) 0x577-0x578 (1)
     |                                               |                |                  [1]{}: in 0x578-0x579 (1)
0x570|                        0b                     |        .       |                    opcode: "end" (0xb) 0x578-0x579 (1)
     |                                               |                |            [25]{}: code 0x579-0x589 (16)
0x570|                           0f                  |         .      |              size: 15 (valid) 0x579-0x57a (1)
     |                                               |                |              code{}: 0x57a-0x589 (15)
     |                                               |                |                t{}: 0x57a-0x57b (1)
0x570|                              00               |          .     |                  n: 0 (valid) 0x57a-0x57b (1)
     |                                               |                |                  x[0:0]: 0x57b-0x57b (0)
     |                                               |                |                e[0:2]: 0x57b-0x589 (14)
     |                                               |                |                  [0]{}: in 0x57b-0x588 (13)
0x570|                                 02            |           .    |                    opcode: "block" (0x2) 0x57b-0x57c (1)
0x570|                                    7f         |            .   |                    bt: "i32" (127) 0x57c-0x57d (1)
     |                                               |                |                    instructions[0:6]: 0x57d-0x587 (10)
     |                                               |                |                      [0]{}: instr 0x57d-0x57f (2)
0x570|                                       41      |             A  |                        opcode: "i32.const" (0x41) 0x57d-0x57e (1)
0x570|                                          06   |              . |                        n: 6 (valid) 0x57e-0x57f (1)
     |                                               |                |                      [1]{}: instr 0x57f-0x581 (2)
0x570|                                             41|               A|                        opcode: "i32.const" (0x41) 0x57f-0x580 (1)
0x580|09                                             |.               |                        n: 9 (valid) 0x580-0x581 (1)
     |                                               |                |                      [2]{}: instr 0x581-0x582 (1)
0x580|   0f                                          | .              |                        opcode: "return" (0xf) 0x581-0x582 (1)
     |                                               |                |                      [3]{}: instr 0x582-0x584 (2)
0x580|      0d                                       |  .             |                        opcode: "br_if" (0xd) 0x582-0x583 (1)
0x580|         00                                    |   .            |                        l: 0 (valid) 0x583-0x584 (1)
     |                                               |                |                      [4]{}: instr 0x584-0x585 (1)
0x580|            1a                                 |    .           |                        opcode: "drop" (0x1a) 0x584-0x585 (1)
     |                                               |                |                      [5]{}: instr 0x585-0x587 (2)
0x580|               41                              |     A          |                        opcode: "i32.const" (0x41) 0x585-0x586 (1)
0x580|                  07                           |      .         |                        n: 7 (valid) 0x586-0x587 (1)
0x580|                     0b                        |       .        |                    end: 0xb (valid) 0x587-0x588 (1)
     |                                               |                |                  [1]{}: in 0x588-0x589 (1)
0x580|                        0b                     |        .       |                    opcode: "end" (0xb) 0x588-0x589 (1)
     |                                               |                |            [26]{}: code 0x589-0x599 (16)
0x580|                           0f                  |         .      |              size: 15 (valid) 0x589-0x58a (1)
     |                                               |                |              code{}: 0x58a-0x599 (15)
     |                                               |                |                t{}: 0x58a-0x58b (1)
0x580|                              00               |          .     |                  n: 0 (valid) 0x58a-0x58b (1)
     |                                               |                |                  x[0:0]: 0x58b-0x58b (0)
     |                                               |                |                e[0:3]: 0x58b-0x599 (14)
     |                                               |                |                  [0]{}: in 0x58b-0x596 (11)
0x580|                                 02            |           .    |                    opcode: "block" (0x2) 0x58b-0x58c (1)
0x580|                                    40         |            @   |                    bt: "ε" (64) 0x58c-0x58d (1)
     |                                               |                |                    instructions[0:3]: 0x58d-0x595 (8)
     |                                               |                |                      [0]{}: instr 0x58d-0x58f (2)
0x580|                                       42      |             B  |                        opcode: "i64.const" (0x42) 0x58d-0x58e (1)
0x580|                                          09   |              . |                        n: 9 0x58e-0x58f (1)
     |                                               |                |                      [1]{}: instr 0x58f-0x590 (1)
0x580|                                             0f|               .|                        opcode: "return" (0xf) 0x58f-0x590 (1)
     |                                               |                |                      [2]{}: instr 0x590-0x595 (5)
0x590|0e                                             |.               |                        opcode: "br_table" (0xe) 0x590-0x591 (1)
     |                                               |                |                        l{}: 0x591-0x594 (3)
0x590|   02                                          | .              |                          n: 2 (valid) 0x591-0x592 (1)
     |                                               |                |                          x[0:2]: 0x592-0x594 (2)
0x590|      00                                       |  .             |                            [0]: 0 l (valid) 0x592-0x593 (1)
0x590|         00                                    |   .            |                            [1]: 0 l (valid) 0x593-0x594 (1)
0x590|            00                                 |    .           |                        lN: 0 (valid) 0x594-0x595 (1)
0x590|               0b                              |     .          |                    end: 0xb (valid) 0x595-0x596 (1)
     |                                               |                |                  [1]{}: in 0x596-0x598 (2)
0x590|                  42                           |      B         |                    opcode: "i64.const" (0x42) 0x596-0x597 (1)
0x590|                     7f                        |       .        |                    n: -1 0x597-0x598 (1)
     |                                               |                |                  [2]{}: in 0x598-0x599 (1)
0x590|                        0b                     |        .       |                    opcode: "end" (0xb) 0x598-0x599 (1)
     |                                               |                |            [27]{}: code 0x599-0x5ab (18)
0x590|                           11                  |         .      |              size: 17 (valid) 0x599-0x59a (1)
     |                                               |                |              code{}: 0x59a-0x5ab (17)
     |                                               |                |                t{}: 0x59a-0x59b (1)
0x590|                              00               |          .     |                  n: 0 (valid) 0x59a-0x59b (1)
     |                                               |                |                  x[0:0]: 0x59b-0x59b (0)
     |                                               |                |                e[0:2]: 0x59b-0x5ab (16)
     |                                               |                |                  [0]{}: in 0x59b-0x5aa (15)
0x590|                                 02            |           .    |                    opcode: "block" (0x2) 0x59b-0x59c (1)
0x590|                                    7f         |            .   |                    bt: "i32" (127) 0x59c-0x59d (1)
     |                                               |                |                    instructions[0:5]: 0x59d-0x5a9 (12)
     |                                               |                |                      [0]{}: instr 0x59d-0x59f (2)
0x590|                                       41      |             A  |                        opcode: "i32.const" (0x41) 0x59d-0x59e (1)
0x590|                                          0a   |              . |                        n: 10 (valid) 0x59e-0x59f (1)
     |                                               |                |                      [1]{}: instr 0x59f-0x5a0 (1)
0x590|                                             0f|               .|                        opcode: "return" (0xf) 0x59f-0x5a0 (1)
     |                                               |                |                      [2]{}: instr 0x5a0-0x5a2 (2)
0x5a0|41                                             |A               |                        opcode: "i32.const" (0x41) 0x5a0-0x5a1 (1)
0x5a0|   01                                          | .              |                        n: 1 (valid) 0x5a1-0x5a2 (1)
     |                                               |                |                      [3]{}: instr 0x5a2-0x5a7 (5)
0x5a0|      0e                                       |  .             |                        opcode: "br_table" (0xe) 0x5a2-0x5a3 (1)
     |                                               |                |                        l{}: 0x5a3-0x5a6 (3)
0x5a0|         02                                    |   .            |                          n: 2 (valid) 0x5a3-0x5a4 (1)
     |                                               |                |                          x[0:2]: 0x5a4-0x5a6 (2)
0x5a0|            00                                 |    .           |                            [0]: 0 l (valid) 0x5a4-0x5a5 (1)
0x5a0|               00                              |     .          |                            [1]: 0 l (valid) 0x5a5-0x5a6 (1)
0x5a0|                  00                           |      .         |                        lN: 0 (valid) 0x5a6-0x5a7 (1)
     |                                               |                |                      [4]{}: instr 0x5a7-0x5a9 (2)
0x5a0|                     41                        |       A        |                        opcode: "i32.const" (0x41) 0x5a7-0x5a8 (1)
0x5a0|                        07                     |        .       |                        n: 7 (valid) 0x5a8-0x5a9 (1)
0x5a0|                           0b                  |         .      |                    end: 0xb (valid) 0x5a9-0x5aa (1)
     |                                               |                |                  [1]{}: in 0x5aa-0x5ab (1)
0x5a0|                              0b               |          .     |                    opcode: "end" (0xb) 0x5aa-0x5ab (1)
     |                                               |                |            [28]{}: code 0x5ab-0x5bc (17)
0x5a0|                                 10            |           .    |              size: 16 (valid) 0x5ab-0x5ac (1)
     |                                               |                |              code{}: 0x5ac-0x5bc (16)
     |                                               |                |                t{}: 0x5ac-0x5ad (1)
0x5a0|                                    00         |            .   |                  n: 0 (valid) 0x5ac-0x5ad (1)
     |                                               |                |                  x[0:0]: 0x5ad-0x5ad (0)
     |                                               |                |                e[0:2]: 0x5ad-0x5bc (15)
     |                                               |                |                  [0]{}: in 0x5ad-0x5bb (14)
0x5a0|                                       02      |             .  |                    opcode: "block" (0x2) 0x5ad-0x5ae (1)
0x5a0|                                          7f   |              . |                    bt: "i32" (127) 0x5ae-0x5af (1)
     |                                               |                |                    instructions[0:5]: 0x5af-0x5ba (11)
     |                                               |                |                      [0]{}: instr 0x5af-0x5b1 (2)
0x5a0|                                             41|               A|                        opcode: "i32.const" (0x41) 0x5af-0x5b0 (1)
0x5b0|06                                             |.               |                        n: 6 (valid) 0x5b0-0x5b1 (1)
     |                                               |                |                      [1]{}: instr 0x5b1-0x5b3 (2)
0x5b0|   41                                          | A              |                        opcode: "i32.const" (0x41) 0x5b1-0x5b2 (1)
0x5b0|      0b                                       |  .             |                        n: 11 (valid) 0x5b2-0x5b3 (1)
     |                                               |                |                      [2]{}: instr 0x5b3-0x5b4 (1)
0x5b0|         0f                                    |   .            |                        opcode: "return" (0xf) 0x5b3-0x5b4 (1)
     |                                               |                |                      [3]{}: instr 0x5b4-0x5b8 (4)
0x5b0|            0e                                 |    .           |                        opcode: "br_table" (0xe) 0x5b4-0x5b5 (1)
     |                                               |                |                        l{}: 0x5b5-0x5b7 (2)
0x5b0|               01                              |     .          |                          n: 1 (valid) 0x5b5-0x5b6 (1)
     |                                               |                |                          x[0:1]: 0x5b6-0x5b7 (1)
0x5b0|                  00                           |      .         |                            [0]: 0 l (valid) 0x5b6-0x5b7 (1)
0x5b0|                     00                        |       .        |                        lN: 0 (valid) 0x5b7-0x5b8 (1)
     |                                               |                |                      [4]{}: instr 0x5b8-0x5ba (2)
0x5b0|                        41                     |        A       |                        opcode: "i32.const" (0x41) 0x5b8-0x5b9 (1)
0x5b0|                           07                  |         .      |                        n: 7 (valid) 0x5b9-0x5ba (1)
0x5b0|                              0b               |          .     |                    end: 0xb (valid) 0x5ba-0x5bb (1)
     |                                               |                |                  [1]{}: in 0x5bb-0x5bc (1)
0x5b0|                                 0b            |           .    |                    opcode: "end" (0xb) 0x5bb-0x5bc (1)
     |                                               |                |            [29]{}: code 0x5bc-0x5c3 (7)
0x5b0|                                    06         |            .   |              size: 6 (valid) 0x5bc-0x5bd (1)
     |                                               |                |              code{}: 0x5bd-0x5c3 (6)
     |                                               |                |                t{}: 0x5bd-0x5be (1)
0x5b0|                                       00      |             .  |                  n: 0 (valid) 0x5bd-0x5be (1)
     |                                               |                |                  x[0:0]: 0x5be-0x5be (0)
     |                                               |                |                e[0:4]: 0x5be-0x5c3 (5)
     |                                               |                |                  [0]{}: in 0x5be-0x5c0 (2)
0x5b0|                                          42   |              B |                    opcode: "i64.const" (0x42) 0x5be-0x5bf (1)
0x5b0|                                             07|               .|                    n: 7 0x5bf-0x5c0 (1)
     |                                               |                |                  [1]{}: in 0x5c0-0x5c1 (1)
0x5c0|0f                                             |.               |                    opcode: "return" (0xf) 0x5c0-0x5c1 (1)
     |                                               |                |                  [2]{}: in 0x5c1-0x5c2 (1)
0x5c0|   0f                                          | .              |                    opcode: "return" (0xf) 0x5c1-0x5c2 (1)
     |                                               |                |                  [3]{}: in 0x5c2-0x5c3 (1)
0x5c0|      0b                                       |  .             |                    opcode: "end" (0xb) 0x5c2-0x5c3 (1)
     |                                               |                |            [30]{}: code 0x5c3-0x5d1 (14)
0x5c0|         0d                                    |   .            |              size: 13 (valid) 0x5c3-0x5c4 (1)
     |                                               |                |              code{}: 0x5c4-0x5d1 (13)
     |                                               |                |                t{}: 0x5c4-0x5c5 (1)
0x5c0|            00                                 |    .           |                  n: 0 (valid) 0x5c4-0x5c5 (1)
     |                                               |                |                  x[0:0]: 0x5c5-0x5c5 (0)
     |                                               |                |                e[0:4]: 0x5c5-0x5d1 (12)
     |                                               |                |                  [0]{}: in 0x5c5-0x5c7 (2)
0x5c0|               41                              |     A          |                    opcode: "i32.const" (0x41) 0x5c5-0x5c6 (1)
0x5c0|                  02                           |      .         |                    n: 2 (valid) 0x5c6-0x5c7 (1)
     |                                               |                |                  [1]{}: in 0x5c7-0x5c8 (1)
0x5c0|                     0f                        |       .        |                    opcode: "return" (0xf) 0x5c7-0x5c8 (1)
     |                                               |                |                  [2]{}: in 0x5c8-0x5d0 (8)
0x5c0|                        04                     |        .       |                    opcode: "if" (0x4) 0x5c8-0x5c9 (1)
0x5c0|                           7f                  |         .      |                    bt: "i32" (127) 0x5c9-0x5ca (1)
     |                                               |                |                    in1[0:1]: 0x5ca-0x5cc (2)
     |                                               |                |                      [0]{}: instr 0x5ca-0x5cc (2)
0x5c0|                              41               |          A     |                        opcode: "i32.const" (0x41) 0x5ca-0x5cb (1)
0x5c0|                                 00            |           .    |                        n: 0 (valid) 0x5cb-0x5cc (1)
0x5c0|                                    05         |            .   |                    else: 0x5 (valid) 0x5cc-0x5cd (1)
     |                                               |                |                    in2[0:1]: 0x5cd-0x5cf (2)
     |                                               |                |                      [0]{}: instr 0x5cd-0x5cf (2)
0x5c0|                                       41      |             A  |                        opcode: "i32.const" (0x41) 0x5cd-0x5ce (1)
0x5c0|                                          01   |              . |                        n: 1 (valid) 0x5ce-0x5cf (1)
0x5c0|                                             0b|               .|                    end: 0xb (valid) 0x5cf-0x5d0 (1)
     |                                               |                |                  [3]{}: in 0x5d0-0x5d1 (1)
0x5d0|0b                                             |.               |                    opcode: "end" (0xb) 0x5d0-0x5d1 (1)
     |                                               |                |            [31]{}: code 0x5d1-0x5df (14)
0x5d0|   0d                                          | .              |              size: 13 (valid) 0x5d1-0x5d2 (1)
     |                                               |                |              code{}: 0x5d2-0x5df (13)
     |                                               |                |                t{}: 0x5d2-0x5d3 (1)
0x5d0|      00                                       |  .             |                  n: 0 (valid) 0x5d2-0x5d3 (1)
     |                                               |                |                  x[0:0]: 0x5d3-0x5d3 (0)
     |                                               |                |                e[0:3]: 0x5d3-0x5df (12)
     |                                               |                |                  [0]{}: in 0x5d3-0x5d5 (2)
0x5d0|         20                                    |                |                    opcode: "local.get" (0x20) 0x5d3-0x5d4 (1)
0x5d0|            00                                 |    .           |                    x: 0 (valid) 0x5d4-0x5d5 (1)
     |                                               |                |                  [1]{}: in 0x5d5-0x5de (9)
0x5d0|               04                              |     .          |                    opcode: "if" (0x4) 0x5d5-0x5d6 (1)
0x5d0|                  7f                           |      .         |                    bt: "i32" (127) 0x5d6-0x5d7 (1)
     |                                               |                |                    in1[0:2]: 0x5d7-0x5da (3)
     |                                               |                |                      [0]{}: instr 0x5d7-0x5d9 (2)
0x5d0|                     41                        |       A        |                        opcode: "i32.const" (0x41) 0x5d7-0x5d8 (1)
0x5d0|                        03                     |        .       |                        n: 3 (valid) 0x5d8-0x5d9 (1)
     |                                               |                |                      [1]{}: instr 0x5d9-0x5da (1)
0x5d0|                           0f                  |         .      |                        opcode: "return" (0xf) 0x5d9-0x5da (1)
0x5d0|                              05               |          .     |                    else: 0x5 (valid) 0x5da-0x5db (1)
     |                                               |                |                    in2[0:1]: 0x5db-0x5dd (2)
     |                                               |                |                      [0]{}: instr 0x5db-0x5dd (2)
0x5d0|                                 20            |                |                        opcode: "local.get" (0x20) 0x5db-0x5dc (1)
0x5d0|                                    01         |            .   |                        x: 1 (valid) 0x5dc-0x5dd (1)
0x5d0|                                       0b      |             .  |                    end: 0xb (valid) 0x5dd-0x5de (1)
     |                                               |                |                  [2]{}: in 0x5de-0x5df (1)
0x5d0|                                          0b   |              . |                    opcode: "end" (0xb) 0x5de-0x5df (1)
     |                                               |                |            [32]{}: code 0x5df-0x5ed (14)
0x5d0|                                             0d|               .|              size: 13 (valid) 0x5df-0x5e0 (1)
     |                                               |                |              code{}: 0x5e0-0x5ed (13)
     |                                               |                |                t{}: 0x5e0-0x5e1 (1)
0x5e0|00                                             |.               |                  n: 0 (valid) 0x5e0-0x5e1 (1)
     |                                               |                |                  x[0:0]: 0x5e1-0x5e1 (0)
     |                                               |                |                e[0:3]: 0x5e1-0x5ed (12)
     |                                               |                |                  [0]{}: in 0x5e1-0x5e3 (2)
0x5e0|   20                                          |                |                    opcode: "local.get" (0x20) 0x5e1-0x5e2 (1)
0x5e0|      00                                       |  .             |                    x: 0 (valid) 0x5e2-0x5e3 (1)
     |                                               |                |                  [1]{}: in 0x5e3-0x5ec (9)
0x5e0|         04                                    |   .            |                    opcode: "if" (0x4) 0x5e3-0x5e4 (1)
0x5e0|            7f                                 |    .           |                    bt: "i32" (127) 0x5e4-0x5e5 (1)
     |                                               |                |                    in1[0:1]: 0x5e5-0x5e7 (2)
     |                                               |                |                      [0]{}: instr 0x5e5-0x5e7 (2)
0x5e0|               20                              |                |                        opcode: "local.get" (0x20) 0x5e5-0x5e6 (1)
0x5e0|                  01                           |      .         |                        x: 1 (valid) 0x5e6-0x5e7 (1)
0x5e0|                     05                        |       .        |                    else: 0x5 (valid) 0x5e7-0x5e8 (1)
     |                                               |                |                    in2[0:2]: 0x5e8-0x5eb (3)
     |                                               |                |                      [0]{}: instr 0x5e8-0x5ea (2)
0x5e0|                        41                     |        A       |                        opcode: "i32.const" (0x41) 0x5e8-0x5e9 (1)
0x5e0|                           04                  |         .      |                        n: 4 (valid) 0x5e9-0x5ea (1)
     |                                               |                |                      [1]{}: instr 0x5ea-0x5eb (1)
0x5e0|                              0f               |          .     |                        opcode: "return" (0xf) 0x5ea-0x5eb (1)
0x5e0|                                 0b            |           .    |                    end: 0xb (valid) 0x5eb-0x5ec (1)
     |                                               |                |                  [2]{}: in 0x5ec-0x5ed (1)
0x5e0|                                    0b         |            .   |                    opcode: "end" (0xb) 0x5ec-0x5ed (1)
     |                                               |                |            [33]{}: code 0x5ed-0x5f8 (11)
0x5e0|                                       0a      |             .  |              size: 10 (valid) 0x5ed-0x5ee (1)
     |                                               |                |              code{}: 0x5ee-0x5f8 (10)
     |                                               |                |                t{}: 0x5ee-0x5ef (1)
0x5e0|                                          00   |              . |                  n: 0 (valid) 0x5ee-0x5ef (1)
     |                                               |                |                  x[0:0]: 0x5ef-0x5ef (0)
     |                                               |                |                e[0:6]: 0x5ef-0x5f8 (9)
     |                                               |                |                  [0]{}: in 0x5ef-0x5f1 (2)
0x5e0|                                             41|               A|                    opcode: "i32.const" (0x41) 0x5ef-0x5f0 (1)
0x5f0|05                                             |.               |                    n: 5 (valid) 0x5f0-0x5f1 (1)
     |                                               |                |                  [1]{}: in 0x5f1-0x5f2 (1)
0x5f0|   0f                                          | .              |                    opcode: "return" (0xf) 0x5f1-0x5f2 (1)
     |                                               |                |                  [2]{}: in 0x5f2-0x5f4 (2)
0x5f0|      20                                       |                |                    opcode: "local.get" (0x20) 0x5f2-0x5f3 (1)
0x5f0|         00                                    |   .            |                    x: 0 (valid) 0x5f3-0x5f4 (1)
     |                                               |                |                  [3]{}: in 0x5f4-0x5f6 (2)
0x5f0|            20                                 |                |                    opcode: "local.get" (0x20) 0x5f4-0x5f5 (1)
0x5f0|               01                              |     .          |                    x: 1 (valid) 0x5f5-0x5f6 (1)
     |                                               |                |                  [4]{}: in 0x5f6-0x5f7 (1)
0x5f0|                  1b                           |      .         |                    opcode: "select" (0x1b) 0x5f6-0x5f7 (1)
     |                                               |                |                  [5]{}: in 0x5f7-0x5f8 (1)
0x5f0|                     0b                        |       .        |                    opcode: "end" (0xb) 0x5f7-0x5f8 (1)
     |                                               |                |            [34]{}: code 0x5f8-0x603 (11)
0x5f0|                        0a                     |        .       |              size: 10 (valid) 0x5f8-0x5f9 (1)
     |                                               |                |              code{}: 0x5f9-0x603 (10)
     |                                               |                |                t{}: 0x5f9-0x5fa (1)
0x5f0|                           00                  |         .      |                  n: 0 (valid) 0x5f9-0x5fa (1)
     |                                               |                |                  x[0:0]: 0x5fa-0x5fa (0)
     |                                               |                |                e[0:6]: 0x5fa-0x603 (9)
     |                                               |                |                  [0]{}: in 0x5fa-0x5fc (2)
0x5f0|                              20               |                |                    opcode: "local.get" (0x20) 0x5fa-0x5fb (1)
0x5f0|                                 00            |           .    |                    x: 0 (valid) 0x5fb-0x5fc (1)
     |                                               |                |                  [1]{}: in 0x5fc-0x5fe (2)
0x5f0|                                    41         |            A   |                    opcode: "i32.const" (0x41) 0x5fc-0x5fd (1)
0x5f0|                                       06      |             .  |                    n: 6 (valid) 0x5fd-0x5fe (1)
     |                                               |                |                  [2]{}: in 0x5fe-0x5ff (1)
0x5f0|                                          0f   |              . |                    opcode: "return" (0xf) 0x5fe-0x5ff (1)
     |                                               |                |                  [3]{}: in 0x5ff-0x601 (2)
0x5f0|                                             20|                |                    opcode: "local.get" (0x20) 0x5ff-0x600 (1)
0x600|01                                             |.               |                    x: 1 (valid) 0x600-0x601 (1)
     |                                               |                |                  [4]{}: in 0x601-0x602 (1)
0x600|   1b                                          | .              |                    opcode: "select" (0x1b) 0x601-0x602 (1)
     |                                               |                |                  [5]{}: in 0x602-0x603 (1)
0x600|      0b                                       |  .             |                    opcode: "end" (0xb) 0x602-0x603 (1)
     |                                               |                |            [35]{}: code 0x603-0x60e (11)
0x600|         0a                                    |   .            |              size: 10 (valid) 0x603-0x604 (1)
     |                                               |                |              code{}: 0x604-0x60e (10)
     |                                               |                |                t{}: 0x604-0x605 (1)
0x600|            00                                 |    .           |                  n: 0 (valid) 0x604-0x605 (1)
     |                                               |                |                  x[0:0]: 0x605-0x605 (0)
     |                                               |                |                e[0:6]: 0x605-0x60e (9)
     |                                               |                |                  [0]{}: in 0x605-0x607 (2)
0x600|               41                              |     A          |                    opcode: "i32.const" (0x41) 0x605-0x606 (1)
0x600|                  00                           |      .         |                    n: 0 (valid) 0x606-0x607 (1)
     |                                               |                |                  [1]{}: in 0x607-0x609 (2)
0x600|                     41                        |       A        |                    opcode: "i32.const" (0x41) 0x607-0x608 (1)
0x600|                        01                     |        .       |                    n: 1 (valid) 0x608-0x609 (1)
     |                                               |                |                  [2]{}: in 0x609-0x60b (2)
0x600|                           41                  |         A      |                    opcode: "i32.const" (0x41) 0x609-0x60a (1)
0x600|                              07               |          .     |                    n: 7 (valid) 0x60a-0x60b (1)
     |                                               |                |                  [3]{}: in 0x60b-0x60c (1)
0x600|                                 0f            |           .    |                    opcode: "return" (0xf) 0x60b-0x60c (1)
     |                                               |                |                  [4]{}: in 0x60c-0x60d (1)
0x600|                                    1b         |            .   |                    opcode: "select" (0x1b) 0x60c-0x60d (1)
     |                                               |                |                  [5]{}: in 0x60d-0x60e (1)
0x600|                                       0b      |             .  |                    opcode: "end" (0xb) 0x60d-0x60e (1)
     |                                               |                |            [36]{}: code 0x60e-0x613 (5)
0x600|                                          04   |              . |              size: 4 (valid) 0x60e-0x60f (1)
     |                                               |                |              code{}: 0x60f-0x613 (4)
     |                                               |                |                t{}: 0x60f-0x610 (1)
0x600|                                             00|               .|                  n: 0 (valid) 0x60f-0x610 (1)
     |                                               |                |                  x[0:0]: 0x610-0x610 (0)
     |                                               |                |                e[0:2]: 0x610-0x613 (3)
     |                                               |                |                  [0]{}: in 0x610-0x612 (2)
0x610|41                                             |A               |                    opcode: "i32.const" (0x41) 0x610-0x611 (1)
0x610|   7f                                          | .              |                    n: -1 (valid) 0x611-0x612 (1)
     |                                               |                |                  [1]{}: in 0x612-0x613 (1)
0x610|      0b                                       |  .             |                    opcode: "end" (0xb) 0x612-0x613 (1)
     |                                               |                |            [37]{}: code 0x613-0x61f (12)
0x610|         0b                                    |   .            |              size: 11 (valid) 0x613-0x614 (1)
     |                                               |                |              code{}: 0x614-0x61f (11)
     |                                               |                |                t{}: 0x614-0x615 (1)
0x610|            00                                 |    .           |                  n: 0 (valid) 0x614-0x615 (1)
     |                                               |                |                  x[0:0]: 0x615-0x615 (0)
     |                                               |                |                e[0:6]: 0x615-0x61f (10)
     |                                               |                |                  [0]{}: in 0x615-0x617 (2)
0x610|               41                              |     A          |                    opcode: "i32.const" (0x41) 0x615-0x616 (1)
0x610|                  0c                           |      .         |                    n: 12 (valid) 0x616-0x617 (1)
     |                                               |                |                  [1]{}: in 0x617-0x618 (1)
0x610|                     0f                        |       .        |                    opcode: "return" (0xf) 0x617-0x618 (1)
     |                                               |                |                  [2]{}: in 0x618-0x61a (2)
0x610|                        41                     |        A       |                    opcode: "i32.const" (0x41) 0x618-0x619 (1)
0x610|                           02                  |         .      |                    n: 2 (valid) 0x619-0x61a (1)
     |                                               |                |                  [3]{}: in 0x61a-0x61c (2)
0x610|                              41               |          A     |                    opcode: "i32.const" (0x41) 0x61a-0x61b (1)
0x610|                                 03            |           .    |                    n: 3 (valid) 0x61b-0x61c (1)
     |                                               |                |                  [4]{}: in 0x61c-0x61e (2)
0x610|                                    10         |            .   |                    opcode: "call" (0x10) 0x61c-0x61d (1)
0x610|                                       24      |             $  |                    x: 36 (valid) 0x61d-0x61e (1)
     |                                               |                |                  [5]{}: in 0x61e-0x61f (1)
0x610|                                          0b   |              . |                    opcode: "end" (0xb) 0x61e-0x61f (1)
     |                                               |                |            [38]{}: code 0x61f-0x62b (12)
0x610|                                             0b|               .|              size: 11 (valid) 0x61f-0x620 (1)
     |                                               |                |              code{}: 0x620-0x62b (11)
     |                                               |                |                t{}: 0x620-0x621 (1)
0x620|00                                             |.               |                  n: 0 (valid) 0x620-0x621 (1)
     |                                               |                |                  x[0:0]: 0x621-0x621 (0)
     |                                               |                |                e[0:6]: 0x621-0x62b (10)
     |                                               |                |                  [0]{}: in 0x621-0x623 (2)
0x620|   41                                          | A              |                    opcode: "i32.const" (0x41) 0x621-0x622 (1)
0x620|      01                                       |  .             |                    n: 1 (valid) 0x622-0x623 (1)
     |                                               |                |                  [1]{}: in 0x623-0x625 (2)
0x620|         41                                    |   A            |                    opcode: "i32.const" (0x41) 0x623-0x624 (1)
0x620|            0d                                 |    .           |                    n: 13 (valid) 0x624-0x625 (1)
     |                                               |                |                  [2]{}: in 0x625-0x626 (1)
0x620|               0f                              |     .          |                    opcode: "return" (0xf) 0x625-0x626 (1)
     |                                               |                |                  [3]{}: in 0x626-0x628 (2)
0x620|                  41                           |      A         |                    opcode: "i32.const" (0x41) 0x626-0x627 (1)
0x620|                     03                        |       .        |                    n: 3 (valid) 0x627-0x628 (1)
     |                                               |                |                  [4]{}: in 0x628-0x62a (2)
0x620|                        10                     |        .       |                    opcode: "call" (0x10) 0x628-0x629 (1)
0x620|                           24                  |         $      |                    x: 36 (valid) 0x629-0x62a (1)
     |                                               |                |                  [5]{}: in 0x62a-0x62b (1)
0x620|                              0b               |          .     |                    opcode: "end" (0xb) 0x62a-0x62b (1)
     |                                               |                |            [39]{}: code 0x62b-0x637 (12)
0x620|                                 0b            |           .    |              size: 11 (valid) 0x62b-0x62c (1)
     |                                               |                |              code{}: 0x62c-0x637 (11)
     |                                               |                |                t{}: 0x62c-0x62d (1)
0x620|                                    00         |            .   |                  n: 0 (valid) 0x62c-0x62d (1)
     |                                               |                |                  x[0:0]: 0x62d-0x62d (0)
     |                                               |                |                e[0:6]: 0x62d-0x637 (10)
     |                                               |                |                  [0]{}: in 0x62d-0x62f (2)
0x620|                                       41      |             A  |                    opcode: "i32.const" (0x41) 0x62d-0x62e (1)
0x620|                                          01   |              . |                    n: 1 (valid) 0x62e-0x62f (1)
     |                                               |                |                  [1]{}: in 0x62f-0x631 (2)
0x620|                                             41|               A|                    opcode: "i32.const" (0x41) 0x62f-0x630 (1)
0x630|02                                             |.               |                    n: 2 (valid) 0x630-0x631 (1)
     |                                               |                |                  [2]{}: in 0x631-0x633 (2)
0x630|   41                                          | A              |                    opcode: "i32.const" (0x41) 0x631-0x632 (1)
0x630|      0e                                       |  .             |                    n: 14 (valid) 0x632-0x633 (1)
     |                                               |                |                  [3]{}: in 0x633-0x634 (1)
0x630|         0f                                    |   .            |                    opcode: "return" (0xf) 0x633-0x634 (1)
     |                                               |                |                  [4]{}: in 0x634-0x636 (2)
0x630|            10                                 |    .           |                    opcode: "call" (0x10) 0x634-0x635 (1)
0x630|               24                              |     $          |                    x: 36 (valid) 0x635-0x636 (1)
     |                                               |                |                  [5]{}: in 0x636-0x637 (1)
0x630|                  0b                           |      .         |                    opcode: "end" (0xb) 0x636-0x637 (1)
     |                                               |                |            [40]{}: code 0x637-0x646 (15)
0x630|                     0e                        |       .        |              size: 14 (valid) 0x637-0x638 (1)
     |                                               |                |              code{}: 0x638-0x646 (14)
     |                                               |                |                t{}: 0x638-0x639 (1)
0x630|                        00                     |        .       |                  n: 0 (valid) 0x638-0x639 (1)
     |                                               |                |                  x[0:0]: 0x639-0x639 (0)
     |                                               |                |                e[0:7]: 0x639-0x646 (13)
     |                                               |                |                  [0]{}: in 0x639-0x63b (2)
0x630|                           41                  |         A      |                    opcode: "i32.const" (0x41) 0x639-0x63a (1)
0x630|                              14               |          .     |                    n: 20 (valid) 0x63a-0x63b (1)
     |                                               |                |                  [1]{}: in 0x63b-0x63c (1)
0x630|                                 0f            |           .    |                    opcode: "return" (0xf) 0x63b-0x63c (1)
     |                                               |                |                  [2]{}: in 0x63c-0x63e (2)
0x630|                                    41         |            A   |                    opcode: "i32.const" (0x41) 0x63c-0x63d (1)
0x630|                                       01      |             .  |                    n: 1 (valid) 0x63d-0x63e (1)
     |                                               |                |                  [3]{}: in 0x63e-0x640 (2)
0x630|                                          41   |              A |                    opcode: "i32.const" (0x41) 0x63e-0x63f (1)
0x630|                                             02|               .|                    n: 2 (valid) 0x63f-0x640 (1)
     |                                               |                |                  [4]{}: in 0x640-0x642 (2)
0x640|41                                             |A               |                    opcode: "i32.const" (0x41) 0x640-0x641 (1)
0x640|   03                                          | .              |                    n: 3 (valid) 0x641-0x642 (1)
     |                                               |                |                  [5]{}: in 0x642-0x645 (3)
0x640|      11                                       |  .             |                    opcode: "call_indirect" (0x11) 0x642-0x643 (1)
0x640|         00                                    |   .            |                    y: 0 (valid) 0x643-0x644 (1)
0x640|            00                                 |    .           |                    x: 0 (valid) 0x644-0x645 (1)
     |                                               |                |                  [6]{}: in 0x645-0x646 (1)
0x640|               0b                              |     .          |                    opcode: "end" (0xb) 0x645-0x646 (1)
     |                                               |                |            [41]{}: code 0x646-0x655 (15)
0x640|                  0e                           |      .         |              size: 14 (valid) 0x646-0x647 (1)
     |                                               |                |              code{}: 0x647-0x655 (14)
     |                                               |                |                t{}: 0x647-0x648 (1)
0x640|                     00                        |       .        |                  n: 0 (valid) 0x647-0x648 (1)
     |                                               |                |                  x[0:0]: 0x648-0x648 (0)
     |                                               |                |                e[0:7]: 0x648-0x655 (13)
     |                                               |                |                  [0]{}: in 0x648-0x64a (2)
0x640|                        41                     |        A       |                    opcode: "i32.const" (0x41) 0x648-0x649 (1)
0x640|                           00                  |         .      |                    n: 0 (valid) 0x649-0x64a (1)
     |                                               |                |                  [1]{}: in 0x64a-0x64c (2)
0x640|                              41               |          A     |                    opcode: "i32.const" (0x41) 0x64a-0x64b (1)
0x640|                                 15            |           .    |                    n: 21 (valid) 0x64b-0x64c (1)
     |                                               |                |                  [2]{}: in 0x64c-0x64d (1)
0x640|                                    0f         |            .   |                    opcode: "return" (0xf) 0x64c-0x64d (1)
     |                                               |                |                  [3]{}: in 0x64d-0x64f (2)
0x640|                                       41      |             A  |                    opcode: "i32.const" (0x41) 0x64d-0x64e (1)
0x640|                                          02   |              . |                    n: 2 (valid) 0x64e-0x64f (1)
     |                                               |                |                  [4]{}: in 0x64f-0x651 (2)
0x640|                                             41|               A|                    opcode: "i32.const" (0x41) 0x64f-0x650 (1)
0x650|03                                             |.               |                    n: 3 (valid) 0x650-0x651 (1)
     |                                               |                |                  [5]{}: in 0x651-0x654 (3)
0x650|   11                                          | .              |                    opcode: "call_indirect" (0x11) 0x651-0x652 (1)
0x650|      00                                       |  .             |                    y: 0 (valid) 0x652-0x653 (1)
0x650|         00                                    |   .            |                    x: 0 (valid) 0x653-0x654 (1)
     |                                               |                |                  [6]{}: in 0x654-0x655 (1)
0x650|            0b                                 |    .           |                    opcode: "end" (0xb) 0x654-0x655 (1)
     |                                               |                |            [42]{}: code 0x655-0x664 (15)
0x650|               0e                              |     .          |              size: 14 (valid) 0x655-0x656 (1)
     |                                               |                |              code{}: 0x656-0x664 (14)
     |                                               |                |                t{}: 0x656-0x657 (1)
0x650|                  00                           |      .         |                  n: 0 (valid) 0x656-0x657 (1)
     |                                               |                |                  x[0:0]: 0x657-0x657 (0)
     |                                               |                |                e[0:7]: 0x657-0x664 (13)
     |                                               |                |                  [0]{}: in 0x657-0x659 (2)
0x650|                     41                        |       A        |                    opcode: "i32.const" (0x41) 0x657-0x658 (1)
0x650|                        00                     |        .       |                    n: 0 (valid) 0x658-0x659 (1)
     |                                               |                |                  [1]{}: in 0x659-0x65b (2)
0x650|                           41                  |         A      |                    opcode: "i32.const" (0x41) 0x659-0x65a (1)
0x650|                              01               |          .     |                    n: 1 (valid) 0x65a-0x65b (1)
     |                                               |                |                  [2]{}: in 0x65b-0x65d (2)
0x650|                                 41            |           A    |                    opcode: "i32.const" (0x41) 0x65b-0x65c (1)
0x650|                                    16         |            .   |                    n: 22 (valid) 0x65c-0x65d (1)
     |                                               |                |                  [3]{}: in 0x65d-0x65e (1)
0x650|                                       0f      |             .  |                    opcode: "return" (0xf) 0x65d-0x65e (1)
     |                                               |                |                  [4]{}: in 0x65e-0x660 (2)
0x650|                                          41   |              A |                    opcode: "i32.const" (0x41) 0x65e-0x65f (1)
0x650|                                             03|               .|                    n: 3 (valid) 0x65f-0x660 (1)
     |                                               |                |                  [5]{}: in 0x660-0x663 (3)
0x660|11                                             |.               |                    opcode: "call_indirect" (0x11) 0x660-0x661 (1)
0x660|   00                                          | .              |                    y: 0 (valid) 0x661-0x662 (1)
0x660|      00                                       |  .             |                    x: 0 (valid) 0x662-0x663 (1)
     |                                               |                |                  [6]{}: in 0x663-0x664 (1)
0x660|         0b                                    |   .            |                    opcode: "end" (0xb) 0x663-0x664 (1)
     |                                               |                |            [43]{}: code 0x664-0x673 (15)
0x660|            0e                                 |    .           |              size: 14 (valid) 0x664-0x665 (1)
     |                                               |                |              code{}: 0x665-0x673 (14)
     |                                               |                |                t{}: 0x665-0x666 (1)
0x660|               00                              |     .          |                  n: 0 (valid) 0x665-0x666 (1)
     |                                               |                |                  x[0:0]: 0x666-0x666 (0)
     |                                               |                |                e[0:7]: 0x666-0x673 (13)
     |                                               |                |                  [0]{}: in 0x666-0x668 (2)
0x660|                  41                           |      A         |                    opcode: "i32.const" (0x41) 0x666-0x667 (1)
0x660|                     00                        |       .        |                    n: 0 (valid) 0x667-0x668 (1)
     |                                               |                |                  [1]{}: in 0x668-0x66a (2)
0x660|                        41                     |        A       |                    opcode: "i32.const" (0x41) 0x668-0x669 (1)
0x660|                           01                  |         .      |                    n: 1 (valid) 0x669-0x66a (1)
     |                                               |                |                  [2]{}: in 0x66a-0x66c (2)
0x660|                              41               |          A     |                    opcode: "i32.const" (0x41) 0x66a-0x66b (1)
0x660|                                 02            |           .    |                    n: 2 (valid) 0x66b-0x66c (1)
     |                                               |                |                  [3]{}: in 0x66c-0x66e (2)
0x660|                                    41         |            A   |                    opcode: "i32.const" (0x41) 0x66c-0x66d (1)
0x660|                                       17      |             .  |                    n: 23 (valid) 0x66d-0x66e (1)
     |                                               |                |                  [4]{}: in 0x66e-0x66f (1)
0x660|                                          0f   |              . |                    opcode: "return" (0xf) 0x66e-0x66f (1)
     |                                               |                |                  [5]{}: in 0x66f-0x672 (3)
0x660|                                             11|               .|                    opcode: "call_indirect" (0x11) 0x66f-0x670 (1)
0x670|00                                             |.               |                    y: 0 (valid) 0x670-0x671 (1)
0x670|   00                                          | .              |                    x: 0 (valid) 0x671-0x672 (1)
     |                                               |                |                  [6]{}: in 0x672-0x673 (1)
0x670|      0b                                       |  .             |                    opcode: "end" (0xb) 0x672-0x673 (1)
     |                                               |                |            [44]{}: code 0x673-0x67f (12)
0x670|         0b                                    |   .            |              size: 11 (valid) 0x673-0x674 (1)
     |                                               |                |              code{}: 0x674-0x67f (11)
     |                                               |                |                t{}: 0x674-0x677 (3)
0x670|            01                                 |    .           |                  n: 1 (valid) 0x674-0x675 (1)
     |                                               |                |                  x[0:1]: 0x675-0x677 (2)
     |                                               |                |                    [0]{}: t 0x675-0x677 (2)
0x670|               01                              |     .          |                      n: 1 (valid) 0x675-0x676 (1)
0x670|                  7d                           |      }         |                      t: "f32" (0x7d) 0x676-0x677 (1)
     |                                               |                |                e[0:5]: 0x677-0x67f (8)
     |                                               |                |                  [0]{}: in 0x677-0x679 (2)
0x670|                     41                        |       A        |                    opcode: "i32.const" (0x41) 0x677-0x678 (1)
0x670|                        11                     |        .       |                    n: 17 (valid) 0x678-0x679 (1)
     |                                               |                |                  [1]{}: in 0x679-0x67a (1)
0x670|                           0f                  |         .      |                    opcode: "return" (0xf) 0x679-0x67a (1)
     |                                               |                |                  [2]{}: in 0x67a-0x67c (2)
0x670|                              21               |          !     |                    opcode: "local.set" (0x21) 0x67a-0x67b (1)
0x670|                                 00            |           .    |                    x: 0 (valid) 0x67b-0x67c (1)
     |                                               |                |                  [3]{}: in 0x67c-0x67e (2)
0x670|                                    41         |            A   |                    opcode: "i32.const" (0x41) 0x67c-0x67d (1)
0x670|                                       7f      |             .  |                    n: -1 (valid) 0x67d-0x67e (1)
     |                                               |                |                  [4]{}: in 0x67e-0x67f (1)
0x670|                                          0b   |              . |                    opcode: "end" (0xb) 0x67e-0x67f (1)
     |                                               |                |            [45]{}: code 0x67f-0x689 (10)
0x670|                                             09|               .|              size: 9 (valid) 0x67f-0x680 (1)
     |                                               |                |              code{}: 0x680-0x689 (9)
     |                                               |                |                t{}: 0x680-0x683 (3)
0x680|01                                             |.               |                  n: 1 (valid) 0x680-0x681 (1)
     |                                               |                |                  x[0:1]: 0x681-0x683 (2)
     |                                               |                |                    [0]{}: t 0x681-0x683 (2)
0x680|   01                                          | .              |                      n: 1 (valid) 0x681-0x682 (1)
0x680|      7f                                       |  .             |                      t: "i32" (0x7f) 0x682-0x683 (1)
     |                                               |                |                e[0:4]: 0x683-0x689 (6)
     |                                               |                |                  [0]{}: in 0x683-0x685 (2)
0x680|         41                                    |   A            |                    opcode: "i32.const" (0x41) 0x683-0x684 (1)
0x680|            01                                 |    .           |                    n: 1 (valid) 0x684-0x685 (1)
     |                                               |                |                  [1]{}: in 0x685-0x686 (1)
0x680|               0f                              |     .          |                    opcode: "return" (0xf) 0x685-0x686 (1)
     |                                               |                |                  [2]{}: in 0x686-0x688 (2)
0x680|                  22                           |      "         |                    opcode: "local.tee" (0x22) 0x686-0x687 (1)
0x680|                     00                        |       .        |                    x: 0 (valid) 0x687-0x688 (1)
     |                                               |                |                  [3]{}: in 0x688-0x689 (1)
0x680|                        0b                     |        .       |                    opcode: "end" (0xb) 0x688-0x689 (1)
     |                                               |                |            [46]{}: code 0x689-0x691 (8)
0x680|                           07                  |         .      |              size: 7 (valid) 0x689-0x68a (1)
     |                                               |                |              code{}: 0x68a-0x691 (7)
     |                                               |                |                t{}: 0x68a-0x68b (1)
0x680|                              00               |          .     |                  n: 0 (valid) 0x68a-0x68b (1)
     |                                               |                |                  x[0:0]: 0x68b-0x68b (0)
     |                                               |                |                e[0:4]: 0x68b-0x691 (6)
     |                                               |                |                  [0]{}: in 0x68b-0x68d (2)
0x680|                                 41            |           A    |                    opcode: "i32.const" (0x41) 0x68b-0x68c (1)
0x680|                                    01         |            .   |                    n: 1 (valid) 0x68c-0x68d (1)
     |                                               |                |                  [1]{}: in 0x68d-0x68e (1)
0x680|                                       0f      |             .  |                    opcode: "return" (0xf) 0x68d-0x68e (1)
     |                                               |                |                  [2]{}: in 0x68e-0x690 (2)
0x680|                                          24   |              $ |                    opcode: "global.set" (0x24) 0x68e-0x68f (1)
0x680|                                             00|               .|                    x: 0 (valid) 0x68f-0x690 (1)
     |                                               |                |                  [3]{}: in 0x690-0x691 (1)
0x690|0b                                             |.               |                    opcode: "end" (0xb) 0x690-0x691 (1)
     |                                               |                |            [47]{}: code 0x691-0x69d (12)
0x690|   0b                                          | .              |              size: 11 (valid) 0x691-0x692 (1)
     |                                               |                |              code{}: 0x692-0x69d (11)
     |                                               |                |                t{}: 0x692-0x693 (1)
0x690|      00                                       |  .             |                  n: 0 (valid) 0x692-0x693 (1)
     |                                               |                |                  x[0:0]: 0x693-0x693 (0)
     |                                               |                |                e[0:4]: 0x693-0x69d (10)
     |                                               |                |                  [0]{}: in 0x693-0x698 (5)
0x690|         43                                    |   C            |                    opcode: "f32.const" (0x43) 0x693-0x694 (1)
0x690|            9a 99 d9 3f                        |    ...?        |                    z: 1.7000000476837158 0x694-0x698 (4)
     |                                               |                |                  [1]{}: in 0x698-0x699 (1)
0x690|                        0f                     |        .       |                    opcode: "return" (0xf) 0x698-0x699 (1)
     |                                               |                |                  [2]{}: in 0x699-0x69c (3)
0x690|                           2a                  |         *      |                    opcode: "f32.load" (0x2a) 0x699-0x69a (1)
     |                                               |                |                    m{}: 0x69a-0x69c (2)
0x690|                              02               |          .     |                      a: 2 (valid) 0x69a-0x69b (1)
0x690|                                 00            |           .    |                      o: 0 (valid) 0x69b-0x69c (1)
     |                                               |                |                  [3]{}: in 0x69c-0x69d (1)
0x690|                                    0b         |            .   |                    opcode: "end" (0xb) 0x69c-0x69d (1)
     |                                               |                |            [48]{}: code 0x69d-0x6a6 (9)
0x690|                                       08      |             .  |              size: 8 (valid) 0x69d-0x69e (1)
     |                                               |                |              code{}: 0x69e-0x6a6 (8)
     |                                               |                |                t{}: 0x69e-0x69f (1)
0x690|                                          00   |              . |                  n: 0 (valid) 0x69e-0x69f (1)
     |                                               |                |                  x[0:0]: 0x69f-0x69f (0)
     |                                               |                |                e[0:4]: 0x69f-0x6a6 (7)
     |                                               |                |                  [0]{}: in 0x69f-0x6a1 (2)
0x690|                                             42|               B|                    opcode: "i64.const" (0x42) 0x69f-0x6a0 (1)
0x6a0|1e                                             |.               |                    n: 30 0x6a0-0x6a1 (1)
     |                                               |                |                  [1]{}: in 0x6a1-0x6a2 (1)
0x6a0|   0f                                          | .              |                    opcode: "return" (0xf) 0x6a1-0x6a2 (1)
     |                                               |                |                  [2]{}: in 0x6a2-0x6a5 (3)
0x6a0|      30                                       |  0             |                    opcode: "i64.load8_s" (0x30) 0x6a2-0x6a3 (1)
     |                                               |                |                    m{}: 0x6a3-0x6a5 (2)
0x6a0|         00                                    |   .            |                      a: 0 (valid) 0x6a3-0x6a4 (1)
0x6a0|            00                                 |    .           |                      o: 0 (valid) 0x6a4-0x6a5 (1)
     |                                               |                |                  [3]{}: in 0x6a5-0x6a6 (1)
0x6a0|               0b                              |     .          |                    opcode: "end" (0xb) 0x6a5-0x6a6 (1)
     |                                               |                |            [49]{}: code 0x6a6-0x6ba (20)
0x6a0|                  13                           |      .         |              size: 19 (valid) 0x6a6-0x6a7 (1)
     |                                               |                |              code{}: 0x6a7-0x6ba (19)
     |                                               |                |                t{}: 0x6a7-0x6a8 (1)
0x6a0|                     00                        |       .        |                  n: 0 (valid) 0x6a7-0x6a8 (1)
     |                                               |                |                  x[0:0]: 0x6a8-0x6a8 (0)
     |                                               |                |                e[0:6]: 0x6a8-0x6ba (18)
     |                                               |                |                  [0]{}: in 0x6a8-0x6aa (2)
0x6a0|                        41                     |        A       |                    opcode: "i32.const" (0x41) 0x6a8-0x6a9 (1)
0x6a0|                           1e                  |         .      |                    n: 30 (valid) 0x6a9-0x6aa (1)
     |                                               |                |                  [1]{}: in 0x6aa-0x6ab (1)
0x6a0|                              0f               |          .     |                    opcode: "return" (0xf) 0x6aa-0x6ab (1)
     |                                               |                |                  [2]{}: in 0x6ab-0x6b4 (9)
0x6a0|                                 44            |           D    |                    opcode: "f64.const" (0x44) 0x6ab-0x6ac (1)
0x6a0|                                    00 00 00 00|            ....|                    z: 7 0x6ac-0x6b4 (8)
0x6b0|00 00 1c 40                                    |...@            |
     |                                               |                |                  [3]{}: in 0x6b4-0x6b7 (3)
0x6b0|            39                                 |    9           |                    opcode: "f64.store" (0x39) 0x6b4-0x6b5 (1)
     |                                               |                |                    m{}: 0x6b5-0x6b7 (2)
0x6b0|               03                              |     .          |                      a: 3 (valid) 0x6b5-0x6b6 (1)
0x6b0|                  00                           |      .         |                      o: 0 (valid) 0x6b6-0x6b7 (1)
     |                                               |                |                  [4]{}: in 0x6b7-0x6b9 (2)
0x6b0|                     41                        |       A        |                    opcode: "i32.const" (0x41) 0x6b7-0x6b8 (1)
0x6b0|                        7f                     |        .       |                    n: -1 (valid) 0x6b8-0x6b9 (1)
     |                                               |                |                  [5]{}: in 0x6b9-0x6ba (1)
0x6b0|                           0b                  |         .      |                    opcode: "end" (0xb) 0x6b9-0x6ba (1)
     |                                               |                |            [50]{}: code 0x6ba-0x6c7 (13)
0x6b0|                              0c               |          .     |              size: 12 (valid) 0x6ba-0x6bb (1)
     |                                               |                |              code{}: 0x6bb-0x6c7 (12)
     |                                               |                |                t{}: 0x6bb-0x6bc (1)
0x6b0|                                 00            |           .    |                  n: 0 (valid) 0x6bb-0x6bc (1)
     |                                               |                |                  x[0:0]: 0x6bc-0x6bc (0)
     |                                               |                |                e[0:6]: 0x6bc-0x6c7 (11)
     |                                               |                |                  [0]{}: in 0x6bc-0x6be (2)
0x6b0|                                    41         |            A   |                    opcode: "i32.const" (0x41) 0x6bc-0x6bd (1)
0x6b0|                                       02      |             .  |                    n: 2 (valid) 0x6bd-0x6be (1)
     |                                               |                |                  [1]{}: in 0x6be-0x6c0 (2)
0x6b0|                                          41   |              A |                    opcode: "i32.const" (0x41) 0x6be-0x6bf (1)
0x6b0|                                             1f|               .|                    n: 31 (valid) 0x6bf-0x6c0 (1)
     |                                               |                |                  [2]{}: in 0x6c0-0x6c1 (1)
0x6c0|0f                                             |.               |                    opcode: "return" (0xf) 0x6c0-0x6c1 (1)
     |                                               |                |                  [3]{}: in 0x6c1-0x6c4 (3)
0x6c0|   37                                          | 7              |                    opcode: "i64.store" (0x37) 0x6c1-0x6c2 (1)
     |                                               |                |                    m{}: 0x6c2-0x6c4 (2)
0x6c0|      03                                       |  .             |                      a: 3 (valid) 0x6c2-0x6c3 (1)
0x6c0|         00                                    |   .            |                      o: 0 (valid) 0x6c3-0x6c4 (1)
     |                                               |                |                  [4]{}: in 0x6c4-0x6c6 (2)
0x6c0|            41                                 |    A           |                    opcode: "i32.const" (0x41) 0x6c4-0x6c5 (1)
0x6c0|               7f                              |     .          |                    n: -1 (valid) 0x6c5-0x6c6 (1)
     |                                               |                |                  [5]{}: in 0x6c6-0x6c7 (1)
0x6c0|                  0b                           |      .         |                    opcode: "end" (0xb) 0x6c6-0x6c7 (1)
     |                                               |                |            [51]{}: code 0x6c7-0x6d4 (13)
0x6c0|                     0c                        |       .        |              size: 12 (valid) 0x6c7-0x6c8 (1)
     |                                               |                |              code{}: 0x6c8-0x6d4 (12)
     |                                               |                |                t{}: 0x6c8-0x6c9 (1)
0x6c0|                        00                     |        .       |                  n: 0 (valid) 0x6c8-0x6c9 (1)
     |                                               |                |                  x[0:0]: 0x6c9-0x6c9 (0)
     |                                               |                |                e[0:6]: 0x6c9-0x6d4 (11)
     |                                               |                |                  [0]{}: in 0x6c9-0x6cb (2)
0x6c0|                           41                  |         A      |                    opcode: "i32.const" (0x41) 0x6c9-0x6ca (1)
0x6c0|                              20               |                |                    n: 32 (valid) 0x6ca-0x6cb (1)
     |                                               |                |                  [1]{}: in 0x6cb-0x6cc (1)
0x6c0|                                 0f            |           .    |                    opcode: "return" (0xf) 0x6cb-0x6cc (1)
     |                                               |                |                  [2]{}: in 0x6cc-0x6ce (2)
0x6c0|                                    41         |            A   |                    opcode: "i32.const" (0x41) 0x6cc-0x6cd (1)
0x6c0|                                       07      |             .  |                    n: 7 (valid) 0x6cd-0x6ce (1)
     |                                               |                |                  [3]{}: in 0x6ce-0x6d1 (3)
0x6c0|                                          3a   |              : |                    opcode: "i32.store8" (0x3a) 0x6ce-0x6cf (1)
     |                                               |                |                    m{}: 0x6cf-0x6d1 (2)
0x6c0|                                             00|               .|                      a: 0 (valid) 0x6cf-0x6d0 (1)
0x6d0|00                                             |.               |                      o: 0 (valid) 0x6d0-0x6d1 (1)
     |                                               |                |                  [4]{}: in 0x6d1-0x6d3 (2)
0x6d0|   41                                          | A              |                    opcode: "i32.const" (0x41) 0x6d1-0x6d2 (1)
0x6d0|      7f                                       |  .             |                    n: -1 (valid) 0x6d2-0x6d3 (1)
     |                                               |                |                  [5]{}: in 0x6d3-0x6d4 (1)
0x6d0|         0b                                    |   .            |                    opcode: "end" (0xb) 0x6d3-0x6d4 (1)
     |                                               |                |            [52]{}: code 0x6d4-0x6e1 (13)
0x6d0|            0c                                 |    .           |              size: 12 (valid) 0x6d4-0x6d5 (1)
     |                                               |                |              code{}: 0x6d5-0x6e1 (12)
     |                                               |                |                t{}: 0x6d5-0x6d6 (1)
0x6d0|               00                              |     .          |                  n: 0 (valid) 0x6d5-0x6d6 (1)
     |                                               |                |                  x[0:0]: 0x6d6-0x6d6 (0)
     |                                               |                |                e[0:6]: 0x6d6-0x6e1 (11)
     |                                               |                |                  [0]{}: in 0x6d6-0x6d8 (2)
0x6d0|                  41                           |      A         |                    opcode: "i32.const" (0x41) 0x6d6-0x6d7 (1)
0x6d0|                     02                        |       .        |                    n: 2 (valid) 0x6d7-0x6d8 (1)
     |                                               |                |                  [1]{}: in 0x6d8-0x6da (2)
0x6d0|                        41                     |        A       |                    opcode: "i32.const" (0x41) 0x6d8-0x6d9 (1)
0x6d0|                           21                  |         !      |                    n: 33 (valid) 0x6d9-0x6da (1)
     |                                               |                |                  [2]{}: in 0x6da-0x6db (1)
0x6d0|                              0f               |          .     |                    opcode: "return" (0xf) 0x6da-0x6db (1)
     |                                               |                |                  [3]{}: in 0x6db-0x6de (3)
0x6d0|                                 3d            |           =    |                    opcode: "i64.store16" (0x3d) 0x6db-0x6dc (1)
     |                                               |                |                    m{}: 0x6dc-0x6de (2)
0x6d0|                                    01         |            .   |                      a: 1 (valid) 0x6dc-0x6dd (1)
0x6d0|                                       00      |             .  |                      o: 0 (valid) 0x6dd-0x6de (1)
     |                                               |                |                  [4]{}: in 0x6de-0x6e0 (2)
0x6d0|                                          41   |              A |                    opcode: "i32.const" (0x41) 0x6de-0x6df (1)
0x6d0|                                             7f|               .|                    n: -1 (valid) 0x6df-0x6e0 (1)
     |                                               |                |                  [5]{}: in 0x6e0-0x6e1 (1)
0x6e0|0b                                             |.               |                    opcode: "end" (0xb) 0x6e0-0x6e1 (1)
     |                                               |                |            [53]{}: code 0x6e1-0x6eb (10)
0x6e0|   09                                          | .              |              size: 9 (valid) 0x6e1-0x6e2 (1)
     |                                               |                |              code{}: 0x6e2-0x6eb (9)
     |                                               |                |                t{}: 0x6e2-0x6e3 (1)
0x6e0|      00                                       |  .             |                  n: 0 (valid) 0x6e2-0x6e3 (1)
     |                                               |                |                  x[0:0]: 0x6e3-0x6e3 (0)
     |                                               |                |                e[0:4]: 0x6e3-0x6eb (8)
     |                                               |                |                  [0]{}: in 0x6e3-0x6e8 (5)
0x6e0|         43                                    |   C            |                    opcode: "f32.const" (0x43) 0x6e3-0x6e4 (1)
0x6e0|            9a 99 59 40                        |    ..Y@        |                    z: 3.4000000953674316 0x6e4-0x6e8 (4)
     |                                               |                |                  [1]{}: in 0x6e8-0x6e9 (1)
0x6e0|                        0f                     |        .       |                    opcode: "return" (0xf) 0x6e8-0x6e9 (1)
     |                                               |                |                  [2]{}: in 0x6e9-0x6ea (1)
0x6e0|                           8c                  |         .      |                    opcode: "f32.neg" (0x8c) 0x6e9-0x6ea (1)
     |                                               |                |                  [3]{}: in 0x6ea-0x6eb (1)
0x6e0|                              0b               |          .     |                    opcode: "end" (0xb) 0x6ea-0x6eb (1)
     |                                               |                |            [54]{}: code 0x6eb-0x6f4 (9)
0x6e0|                                 08            |           .    |              size: 8 (valid) 0x6eb-0x6ec (1)
     |                                               |                |              code{}: 0x6ec-0x6f4 (8)
     |                                               |                |                t{}: 0x6ec-0x6ed (1)
0x6e0|                                    00         |            .   |                  n: 0 (valid) 0x6ec-0x6ed (1)
     |                                               |                |                  x[0:0]: 0x6ed-0x6ed (0)
     |                                               |                |                e[0:5]: 0x6ed-0x6f4 (7)
     |                                               |                |                  [0]{}: in 0x6ed-0x6ef (2)
0x6e0|                                       41      |             A  |                    opcode: "i32.const" (0x41) 0x6ed-0x6ee (1)
0x6e0|                                          03   |              . |                    n: 3 (valid) 0x6ee-0x6ef (1)
     |                                               |                |                  [1]{}: in 0x6ef-0x6f0 (1)
0x6e0|                                             0f|               .|                    opcode: "return" (0xf) 0x6ef-0x6f0 (1)
     |                                               |                |                  [2]{}: in 0x6f0-0x6f2 (2)
0x6f0|41                                             |A               |                    opcode: "i32.const" (0x41) 0x6f0-0x6f1 (1)
0x6f0|   0a                                          | .              |                    n: 10 (valid) 0x6f1-0x6f2 (1)
     |                                               |                |                  [3]{}: in 0x6f2-0x6f3 (1)
0x6f0|      6a                                       |  j             |                    opcode: "i32.add" (0x6a) 0x6f2-0x6f3 (1)
     |                                               |                |                  [4]{}: in 0x6f3-0x6f4 (1)
0x6f0|         0b                                    |   .            |                    opcode: "end" (0xb) 0x6f3-0x6f4 (1)
     |                                               |                |            [55]{}: code 0x6f4-0x6fd (9)
0x6f0|            08                                 |    .           |              size: 8 (valid) 0x6f4-0x6f5 (1)
     |                                               |                |              code{}: 0x6f5-0x6fd (8)
     |                                               |                |                t{}: 0x6f5-0x6f6 (1)
0x6f0|               00                              |     .          |                  n: 0 (valid) 0x6f5-0x6f6 (1)
     |                                               |                |                  x[0:0]: 0x6f6-0x6f6 (0)
     |                                               |                |                e[0:5]: 0x6f6-0x6fd (7)
     |                                               |                |                  [0]{}: in 0x6f6-0x6f8 (2)
0x6f0|                  42                           |      B         |                    opcode: "i64.const" (0x42) 0x6f6-0x6f7 (1)
0x6f0|                     0a                        |       .        |                    n: 10 0x6f7-0x6f8 (1)
     |                                               |                |                  [1]{}: in 0x6f8-0x6fa (2)
0x6f0|                        42                     |        B       |                    opcode: "i64.const" (0x42) 0x6f8-0x6f9 (1)
0x6f0|                           2d                  |         -      |                    n: 45 0x6f9-0x6fa (1)
     |                                               |                |                  [2]{}: in 0x6fa-0x6fb (1)
0x6f0|                              0f               |          .     |                    opcode: "return" (0xf) 0x6fa-0x6fb (1)
     |                                               |                |                  [3]{}: in 0x6fb-0x6fc (1)
0x6f0|                                 7d            |           }    |                    opcode: "i64.sub" (0x7d) 0x6fb-0x6fc (1)
     |                                               |                |                  [4]{}: in 0x6fc-0x6fd (1)
0x6f0|                                    0b         |            .   |                    opcode: "end" (0xb) 0x6fc-0x6fd (1)
     |                                               |                |            [56]{}: code 0x6fd-0x704 (7)
0x6f0|                                       06      |             .  |              size: 6 (valid) 0x6fd-0x6fe (1)
     |                                               |                |              code{}: 0x6fe-0x704 (6)
     |                                               |                |                t{}: 0x6fe-0x6ff (1)
0x6f0|                                          00   |              . |                  n: 0 (valid) 0x6fe-0x6ff (1)
     |                                               |                |                  x[0:0]: 0x6ff-0x6ff (0)
     |                                               |                |                e[0:4]: 0x6ff-0x704 (5)
     |                                               |                |                  [0]{}: in 0x6ff-0x701 (2)
0x6f0|                                             41|               A|                    opcode: "i32.const" (0x41) 0x6ff-0x700 (1)
0x700|2c                                             |,               |                    n: 44 (valid) 0x700-0x701 (1)
     |                                               |                |                  [1]{}: in 0x701-0x702 (1)
0x700|   0f                                          | .              |                    opcode: "return" (0xf) 0x701-0x702 (1)
     |                                               |                |                  [2]{}: in 0x702-0x703 (1)
0x700|      45                                       |  E             |                    opcode: "32.eqz" (0x45) 0x702-0x703 (1)
     |                                               |                |                  [3]{}: in 0x703-0x704 (1)
0x700|         0b                                    |   .            |                    opcode: "end" (0xb) 0x703-0x704 (1)
     |                                               |                |            [57]{}: code 0x704-0x714 (16)
0x700|            0f                                 |    .           |              size: 15 (valid) 0x704-0x705 (1)
     |                                               |                |              code{}: 0x705-0x714 (15)
     |                                               |                |                t{}: 0x705-0x706 (1)
0x700|               00                              |     .          |                  n: 0 (valid) 0x705-0x706 (1)
     |                                               |                |                  x[0:0]: 0x706-0x706 (0)
     |                                               |                |                e[0:5]: 0x706-0x714 (14)
     |                                               |                |                  [0]{}: in 0x706-0x708 (2)
0x700|                  41                           |      A         |                    opcode: "i32.const" (0x41) 0x706-0x707 (1)
0x700|                     2b                        |       +        |                    n: 43 (valid) 0x707-0x708 (1)
     |                                               |                |                  [1]{}: in 0x708-0x709 (1)
0x700|                        0f                     |        .       |                    opcode: "return" (0xf) 0x708-0x709 (1)
     |                                               |                |                  [2]{}: in 0x709-0x712 (9)
0x700|                           44                  |         D      |                    opcode: "f64.const" (0x44) 0x709-0x70a (1)
0x700|                              00 00 00 00 00 00|          ......|                    z: 10 0x70a-0x712 (8)
0x710|24 40                                          |$@              |
     |                                               |                |                  [3]{}: in 0x712-0x713 (1)
0x710|      65                                       |  e             |                    opcode: "f64.le" (0x65) 0x712-0x713 (1)
     |                                               |                |                  [4]{}: in 0x713-0x714 (1)
0x710|         0b                                    |   .            |                    opcode: "end" (0xb) 0x713-0x714 (1)
     |                                               |                |            [58]{}: code 0x714-0x720 (12)
0x710|            0b                                 |    .           |              size: 11 (valid) 0x714-0x715 (1)
     |                                               |                |              code{}: 0x715-0x720 (11)
     |                                               |                |                t{}: 0x715-0x716 (1)
0x710|               00                              |     .          |                  n: 0 (valid) 0x715-0x716 (1)
     |                                               |                |                  x[0:0]: 0x716-0x716 (0)
     |                                               |                |                e[0:5]: 0x716-0x720 (10)
     |                                               |                |                  [0]{}: in 0x716-0x71b (5)
0x710|                  43                           |      C         |                    opcode: "f32.const" (0x43) 0x716-0x717 (1)
0x710|                     00 00 20 41               |       .. A     |                    z: 10 0x717-0x71b (4)
     |                                               |                |                  [1]{}: in 0x71b-0x71d (2)
0x710|                                 41            |           A    |                    opcode: "i32.const" (0x41) 0x71b-0x71c (1)
0x710|                                    2a         |            *   |                    n: 42 (valid) 0x71c-0x71d (1)
     |                                               |                |                  [2]{}: in 0x71d-0x71e (1)
0x710|                                       0f      |             .  |                    opcode: "return" (0xf) 0x71d-0x71e (1)
     |                                               |                |                  [3]{}: in 0x71e-0x71f (1)
0x710|                                          5c   |              \ |                    opcode: "f32.ne" (0x5c) 0x71e-0x71f (1)
     |                                               |                |                  [4]{}: in 0x71f-0x720 (1)
0x710|                                             0b|               .|                    opcode: "end" (0xb) 0x71f-0x720 (1)
     |                                               |                |            [59]{}: code 0x720-0x727 (7)
0x720|06                                             |.               |              size: 6 (valid) 0x720-0x721 (1)
     |                                               |                |              code{}: 0x721-0x727 (6)
     |                                               |                |                t{}: 0x721-0x722 (1)
0x720|   00                                          | .              |                  n: 0 (valid) 0x721-0x722 (1)
     |                                               |                |                  x[0:0]: 0x722-0x722 (0)
     |                                               |                |                e[0:4]: 0x722-0x727 (5)
     |                                               |                |                  [0]{}: in 0x722-0x724 (2)
0x720|      41                                       |  A             |                    opcode: "i32.const" (0x41) 0x722-0x723 (1)
0x720|         29                                    |   )            |                    n: 41 (valid) 0x723-0x724 (1)
     |                                               |                |                  [1]{}: in 0x724-0x725 (1)
0x720|            0f                                 |    .           |                    opcode: "return" (0xf) 0x724-0x725 (1)
     |                                               |                |                  [2]{}: in 0x725-0x726 (1)
0x720|               a7                              |     .          |                    opcode: "i32.wrap_i64" (0xa7) 0x725-0x726 (1)
     |                                               |                |                  [3]{}: in 0x726-0x727 (1)
0x720|                  0b                           |      .         |                    opcode: "end" (0xb) 0x726-0x727 (1)
     |                                               |                |            [60]{}: code 0x727-0x72f (8)
0x720|                     07                        |       .        |              size: 7 (valid) 0x727-0x728 (1)
     |                                               |                |              code{}: 0x728-0x72f (7)
     |                                               |                |                t{}: 0x728-0x729 (1)
0x720|                        00                     |        .       |                  n: 0 (valid) 0x728-0x729 (1)
     |                                               |                |                  x[0:0]: 0x729-0x729 (0)
     |                                               |                |                e[0:4]: 0x729-0x72f (6)
     |                                               |                |                  [0]{}: in 0x729-0x72b (2)
0x720|                           41                  |         A      |                    opcode: "i32.const" (0x41) 0x729-0x72a (1)
0x720|                              28               |          (     |                    n: 40 (valid) 0x72a-0x72b (1)
     |                                               |                |                  [1]{}: in 0x72b-0x72c (1)
0x720|                                 0f            |           .    |                    opcode: "return" (0xf) 0x72b-0x72c (1)
     |                                               |                |                  [2]{}: in 0x72c-0x72e (2)
0x720|                                    40         |            @   |                    opcode: "memory.grow" (0x40) 0x72c-0x72d (1)
0x720|                                       00      |             .  |                    reserved: 0x0 (valid) 0x72d-0x72e (1)
     |                                               |                |                  [3]{}: in 0x72e-0x72f (1)
0x720|                                          0b|  |              .||                    opcode: "end" (0xb) 0x72e-0x72f (1)
