$ fq -d wasm dv select-0.wasm
     |00 01 02 03 04 05 06 07 08 09 0a 0b 0c 0d 0e 0f|0123456789abcdef|.{}: select-0.wasm (wasm) 0x0-0x617 (1559)
0x000|00 61 73 6d                                    |.asm            |  magic: raw bits (valid) 0x0-0x4 (4)
0x000|            01 00 00 00                        |    ....        |  version: 1 0x4-0x8 (4)
     |                                               |                |  sections[0:8]: 0x8-0x617 (1551)
     |                                               |                |    [0]{}: section 0x8-0x47 (63)
0x000|                        01                     |        .       |      id: "type_section" (1) 0x8-0x9 (1)
0x000|                           3d                  |         =      |      size: 61 (valid) 0x9-0xa (1)
     |                                               |                |      content{}: 0xa-0x47 (61)
     |                                               |                |        ft{}: 0xa-0x47 (61)
0x000|                              0a               |          .     |          n: 10 (valid) 0xa-0xb (1)
     |                                               |                |          x[0:10]: 0xb-0x47 (60)
     |                                               |                |            [0]{}: ft 0xb-0x11 (6)
0x000|                                 60            |           `    |              tag: 0x60 (valid) 0xb-0xc (1)
     |                                               |                |              rt1{}: 0xc-0xf (3)
0x000|                                    02         |            .   |                n: 2 (valid) 0xc-0xd (1)
     |                                               |                |                x[0:2]: 0xd-0xf (2)
0x000|                                       7f      |             .  |                  [0]: "i32" (0x7f) t 0xd-0xe (1)
0x000|                                          7f   |              . |                  [1]: "i32" (0x7f) t 0xe-0xf (1)
     |                                               |                |              rt2{}: 0xf-0x11 (2)
0x000|                                             01|               .|                n: 1 (valid) 0xf-0x10 (1)
     |                                               |                |                x[0:1]: 0x10-0x11 (1)
0x010|7f                                             |.               |                  [0]: "i32" (0x7f) t 0x10-0x11 (1)
     |                                               |                |            [1]{}: ft 0x11-0x14 (3)
0x010|   60                                          | `              |              tag: 0x60 (valid) 0x11-0x12 (1)
     |                                               |                |              rt1{}: 0x12-0x13 (1)
0x010|      00                                       |  .             |                n: 0 (valid) 0x12-0x13 (1)
     |                                               |                |                x[0:0]: 0x13-0x13 (0)
     |                                               |                |              rt2{}: 0x13-0x14 (1)
0x010|         00                                    |   .            |                n: 0 (valid) 0x13-0x14 (1)
     |                                               |                |                x[0:0]: 0x14-0x14 (0)
     |                                               |                |            [2]{}: ft 0x14-0x1b (7)
0x010|            60                                 |    `           |              tag: 0x60 (valid) 0x14-0x15 (1)
     |                                               |                |              rt1{}: 0x15-0x19 (4)
0x010|               03                              |     .          |                n: 3 (valid) 0x15-0x16 (1)
     |                                               |                |                x[0:3]: 0x16-0x19 (3)
0x010|                  7f                           |      .         |                  [0]: "i32" (0x7f) t 0x16-0x17 (1)
0x010|                     7f                        |       .        |                  [1]: "i32" (0x7f) t 0x17-0x18 (1)
0x010|                        7f                     |        .       |                  [2]: "i32" (0x7f) t 0x18-0x19 (1)
     |                                               |                |              rt2{}: 0x19-0x1b (2)
0x010|                           01                  |         .      |                n: 1 (valid) 0x19-0x1a (1)
     |                                               |                |                x[0:1]: 0x1a-0x1b (1)
0x010|                              7f               |          .     |                  [0]: "i32" (0x7f) t 0x1a-0x1b (1)
     |                                               |                |            [3]{}: ft 0x1b-0x22 (7)
0x010|                                 60            |           `    |              tag: 0x60 (valid) 0x1b-0x1c (1)
     |                                               |                |              rt1{}: 0x1c-0x20 (4)
0x010|                                    03         |            .   |                n: 3 (valid) 0x1c-0x1d (1)
     |                                               |                |                x[0:3]: 0x1d-0x20 (3)
0x010|                                       7e      |             ~  |                  [0]: "i64" (0x7e) t 0x1d-0x1e (1)
0x010|                                          7e   |              ~ |                  [1]: "i64" (0x7e) t 0x1e-0x1f (1)
0x010|                                             7f|               .|                  [2]: "i32" (0x7f) t 0x1f-0x20 (1)
     |                                               |                |              rt2{}: 0x20-0x22 (2)
0x020|01                                             |.               |                n: 1 (valid) 0x20-0x21 (1)
     |                                               |                |                x[0:1]: 0x21-0x22 (1)
0x020|   7e                                          | ~              |                  [0]: "i64" (0x7e) t 0x21-0x22 (1)
     |                                               |                |            [4]{}: ft 0x22-0x29 (7)
0x020|      60                                       |  `             |              tag: 0x60 (valid) 0x22-0x23 (1)
     |                                               |                |              rt1{}: 0x23-0x27 (4)
0x020|         03                                    |   .            |                n: 3 (valid) 0x23-0x24 (1)
     |                                               |                |                x[0:3]: 0x24-0x27 (3)
0x020|            7d                                 |    }           |                  [0]: "f32" (0x7d) t 0x24-0x25 (1)
0x020|               7d                              |     }          |                  [1]: "f32" (0x7d) t 0x25-0x26 (1)
0x020|                  7f                           |      .         |                  [2]: "i32" (0x7f) t 0x26-0x27 (1)
     |                                               |                |              rt2{}: 0x27-0x29 (2)
0x020|                     01                        |       .        |                n: 1 (valid) 0x27-0x28 (1)
     |                                               |                |                x[0:1]: 0x28-0x29 (1)
0x020|                        7d                     |        }       |                  [0]: "f32" (0x7d) t 0x28-0x29 (1)
     |                                               |                |            [5]{}: ft 0x29-0x30 (7)
0x020|                           60                  |         `      |              tag: 0x60 (valid) 0x29-0x2a (1)
     |                                               |                |              rt1{}: 0x2a-0x2e (4)
0x020|                              03               |          .     |                n: 3 (valid) 0x2a-0x2b (1)
     |                                               |                |                x[0:3]: 0x2b-0x2e (3)
0x020|                                 7c            |           |    |                  [0]: "f64" (0x7c) t 0x2b-0x2c (1)
0x020|                                    7c         |            |   |                  [1]: "f64" (0x7c) t 0x2c-0x2d (1)
0x020|                                       7f      |             .  |                  [2]: "i32" (0x7f) t 0x2d-0x2e (1)
     |                                               |                |              rt2{}: 0x2e-0x30 (2)
0x020|                                          01   |              . |                n: 1 (valid) 0x2e-0x2f (1)
     |                                               |                |                x[0:1]: 0x2f-0x30 (1)
0x020|                                             7c|               ||                  [0]: "f64" (0x7c) t 0x2f-0x30 (1)
     |                                               |                |            [6]{}: ft 0x30-0x37 (7)
0x030|60                                             |`               |              tag: 0x60 (valid) 0x30-0x31 (1)
     |                                               |                |              rt1{}: 0x31-0x35 (4)
0x030|   03                                          | .              |                n: 3 (valid) 0x31-0x32 (1)
     |                                               |                |                x[0:3]: 0x32-0x35 (3)
0x030|      70                                       |  p             |                  [0]: "funcref" (0x70) t 0x32-0x33 (1)
0x030|         70                                    |   p            |                  [1]: "funcref" (0x70) t 0x33-0x34 (1)
0x030|            7f                                 |    .           |                  [2]: "i32" (0x7f) t 0x34-0x35 (1)
     |                                               |                |              rt2{}: 0x35-0x37 (2)
0x030|               01                              |     .          |                n: 1 (valid) 0x35-0x36 (1)
     |                                               |                |                x[0:1]: 0x36-0x37 (1)
0x030|                  70                           |      p         |                  [0]: "funcref" (0x70) t 0x36-0x37 (1)
     |                                               |                |            [7]{}: ft 0x37-0x3e (7)
0x030|                     60                        |       `        |              tag: 0x60 (valid) 0x37-0x38 (1)
     |                                               |                |              rt1{}: 0x38-0x3c (4)
0x030|                        03                     |        .       |                n: 3 (valid) 0x38-0x39 (1)
     |                                               |                |                x[0:3]: 0x39-0x3c (3)
0x030|                           6f                  |         o      |                  [0]: "externref" (0x6f) t 0x39-0x3a (1)
0x030|                              6f               |          o     |                  [1]: "externref" (0x6f) t 0x3a-0x3b (1)
0x030|                                 7f            |           .    |                  [2]: "i32" (0x7f) t 0x3b-0x3c (1)
     |                                               |                |              rt2{}: 0x3c-0x3e (2)
0x030|                                    01         |            .   |                n: 1 (valid) 0x3c-0x3d (1)
     |                                               |                |                x[0:1]: 0x3d-0x3e (1)
0x030|                                       6f      |             o  |                  [0]: "externref" (0x6f) t 0x3d-0x3e (1)
     |                                               |                |            [8]{}: ft 0x3e-0x43 (5)
0x030|                                          60   |              ` |              tag: 0x60 (valid) 0x3e-0x3f (1)
     |                                               |                |              rt1{}: 0x3f-0x41 (2)
0x030|                                             01|               .|                n: 1 (valid) 0x3f-0x40 (1)
     |                                               |                |                x[0:1]: 0x40-0x41 (1)
0x040|7f                                             |.               |                  [0]: "i32" (0x7f) t 0x40-0x41 (1)
     |                                               |                |              rt2{}: 0x41-0x43 (2)
0x040|   01                                          | .              |                n: 1 (valid) 0x41-0x42 (1)
     |                                               |                |                x[0:1]: 0x42-0x43 (1)
0x040|      7f                                       |  .             |                  [0]: "i32" (0x7f) t 0x42-0x43 (1)
     |                                               |                |            [9]{}: ft 0x43-0x47 (4)
0x040|         60                                    |   `            |              tag: 0x60 (valid) 0x43-0x44 (1)
     |                                               |                |              rt1{}: 0x44-0x46 (2)
0x040|            01                                 |    .           |                n: 1 (valid) 0x44-0x45 (1)
     |                                               |                |                x[0:1]: 0x45-0x46 (1)
0x040|               7f                              |     .          |                  [0]: "i32" (0x7f) t 0x45-0x46 (1)
     |                                               |                |              rt2{}: 0x46-0x47 (1)
0x040|                  00                           |      .         |                n: 0 (valid) 0x46-0x47 (1)
     |                                               |                |                x[0:0]: 0x47-0x47 (0)
     |                                               |                |    [1]{}: section 0x47-0x78 (49)
0x040|                     03                        |       .        |      id: "function_section" (3) 0x47-0x48 (1)
0x040|                        2f                     |        /       |      size: 47 (valid) 0x48-0x49 (1)
     |                                               |                |      content{}: 0x49-0x78 (47)
     |                                               |                |        x{}: 0x49-0x78 (47)
0x040|                           2e                  |         .      |          n: 46 (valid) 0x49-0x4a (1)
     |                                               |                |          x[0:46]: 0x4a-0x78 (46)
0x040|                              01               |          .     |            [0]: 1 x (valid) 0x4a-0x4b (1)
0x040|                                 02            |           .    |            [1]: 2 x (valid) 0x4b-0x4c (1)
0x040|                                    03         |            .   |            [2]: 3 x (valid) 0x4c-0x4d (1)
0x040|                                       04      |             .  |            [3]: 4 x (valid) 0x4d-0x4e (1)
0x040|                                          05   |              . |            [4]: 5 x (valid) 0x4e-0x4f (1)
0x040|                                             02|               .|            [5]: 2 x (valid) 0x4f-0x50 (1)
0x050|03                                             |.               |            [6]: 3 x (valid) 0x50-0x51 (1)
0x050|   04                                          | .              |            [7]: 4 x (valid) 0x51-0x52 (1)
0x050|      05                                       |  .             |            [8]: 5 x (valid) 0x52-0x53 (1)
0x050|         06                                    |   .            |            [9]: 6 x (valid) 0x53-0x54 (1)
0x050|            07                                 |    .           |            [10]: 7 x (valid) 0x54-0x55 (1)
0x050|               08                              |     .          |            [11]: 8 x (valid) 0x55-0x56 (1)
0x050|                  08                           |      .         |            [12]: 8 x (valid) 0x56-0x57 (1)
0x050|                     08                        |       .        |            [13]: 8 x (valid) 0x57-0x58 (1)
0x050|                        08                     |        .       |            [14]: 8 x (valid) 0x58-0x59 (1)
0x050|                           08                  |         .      |            [15]: 8 x (valid) 0x59-0x5a (1)
0x050|                              08               |          .     |            [16]: 8 x (valid) 0x5a-0x5b (1)
0x050|                                 09            |           .    |            [17]: 9 x (valid) 0x5b-0x5c (1)
0x050|                                    08         |            .   |            [18]: 8 x (valid) 0x5c-0x5d (1)
0x050|                                       08      |             .  |            [19]: 8 x (valid) 0x5d-0x5e (1)
0x050|                                          08   |              . |            [20]: 8 x (valid) 0x5e-0x5f (1)
0x050|                                             08|               .|            [21]: 8 x (valid) 0x5f-0x60 (1)
0x060|08                                             |.               |            [22]: 8 x (valid) 0x60-0x61 (1)
0x060|   08                                          | .              |            [23]: 8 x (valid) 0x61-0x62 (1)
0x060|      00                                       |  .             |            [24]: 0 x (valid) 0x62-0x63 (1)
0x060|         08                                    |   .            |            [25]: 8 x (valid) 0x63-0x64 (1)
0x060|            08                                 |    .           |            [26]: 8 x (valid) 0x64-0x65 (1)
0x060|               08                              |     .          |            [27]: 8 x (valid) 0x65-0x66 (1)
0x060|                  09                           |      .         |            [28]: 9 x (valid) 0x66-0x67 (1)
0x060|                     09                        |       .        |            [29]: 9 x (valid) 0x67-0x68 (1)
0x060|                        08                     |        .       |            [30]: 8 x (valid) 0x68-0x69 (1)
0x060|                           08                  |         .      |            [31]: 8 x (valid) 0x69-0x6a (1)
0x060|                              08               |          .     |            [32]: 8 x (valid) 0x6a-0x6b (1)
0x060|                                 08            |           .    |            [33]: 8 x (valid) 0x6b-0x6c (1)
0x060|                                    09         |            .   |            [34]: 9 x (valid) 0x6c-0x6d (1)
0x060|                                       08      |             .  |            [35]: 8 x (valid) 0x6d-0x6e (1)
0x060|                                          08   |              . |            [36]: 8 x (valid) 0x6e-0x6f (1)
0x060|                                             08|               .|            [37]: 8 x (valid) 0x6f-0x70 (1)
0x070|08                                             |.               |            [38]: 8 x (valid) 0x70-0x71 (1)
0x070|   08                                          | .              |            [39]: 8 x (valid) 0x71-0x72 (1)
0x070|      08                                       |  .             |            [40]: 8 x (valid) 0x72-0x73 (1)
0x070|         08                                    |   .            |            [41]: 8 x (valid) 0x73-0x74 (1)
0x070|            08                                 |    .           |            [42]: 8 x (valid) 0x74-0x75 (1)
0x070|               08                              |     .          |            [43]: 8 x (valid) 0x75-0x76 (1)
0x070|                  08                           |      .         |            [44]: 8 x (valid) 0x76-0x77 (1)
0x070|                     08                        |       .        |            [45]: 8 x (valid) 0x77-0x78 (1)
     |                                               |                |    [2]{}: section 0x78-0x83 (11)
0x070|                        04                     |        .       |      id: "table_section" (4) 0x78-0x79 (1)
0x070|                           09                  |         .      |      size: 9 (valid) 0x79-0x7a (1)
     |                                               |                |      content{}: 0x7a-0x83 (9)
     |                                               |                |        tab{}: 0x7a-0x83 (9)
0x070|                              02               |          .     |          n: 2 (valid) 0x7a-0x7b (1)
     |                                               |                |          x[0:2]: 0x7b-0x83 (8)
     |                                               |                |            [0]{}: tab 0x7b-0x7f (4)
0x070|                                 70            |           p    |              et: "funcref" (112) 0x7b-0x7c (1)
     |                                               |                |              lim{}: 0x7c-0x7f (3)
0x070|                                    01         |            .   |                tag: 0x1 0x7c-0x7d (1)
0x070|                                       01      |             .  |                n: 1 (valid) 0x7d-0x7e (1)
0x070|                                          01   |              . |                m: 1 (valid) 0x7e-0x7f (1)
     |                                               |                |            [1]{}: tab 0x7f-0x83 (4)
0x070|                                             70|               p|              et: "funcref" (112) 0x7f-0x80 (1)
     |                                               |                |              lim{}: 0x80-0x83 (3)
0x080|01                                             |.               |                tag: 0x1 0x80-0x81 (1)
0x080|   01                                          | .              |                n: 1 (valid) 0x81-0x82 (1)
0x080|      01                                       |  .             |                m: 1 (valid) 0x82-0x83 (1)
     |                                               |                |    [3]{}: section 0x83-0x88 (5)
0x080|         05                                    |   .            |      id: "memory_section" (5) 0x83-0x84 (1)
0x080|            03                                 |    .           |      size: 3 (valid) 0x84-0x85 (1)
     |                                               |                |      content{}: 0x85-0x88 (3)
     |                                               |                |        mem{}: 0x85-0x88 (3)
0x080|               01                              |     .          |          n: 1 (valid) 0x85-0x86 (1)
     |                                               |                |          x[0:1]: 0x86-0x88 (2)
     |                                               |                |            [0]{}: mem 0x86-0x88 (2)
     |                                               |                |              lim{}: 0x86-0x88 (2)
0x080|                  00                           |      .         |                tag: 0x0 0x86-0x87 (1)
0x080|                     01                        |       .        |                n: 1 (valid) 0x87-0x88 (1)
     |                                               |                |    [4]{}: section 0x88-0x90 (8)
0x080|                        06                     |        .       |      id: "global_section" (6) 0x88-0x89 (1)
0x080|                           06                  |         .      |      size: 6 (valid) 0x89-0x8a (1)
     |                                               |                |      content{}: 0x8a-0x90 (6)
     |                                               |                |        glob{}: 0x8a-0x90 (6)
0x080|                              01               |          .     |          n: 1 (valid) 0x8a-0x8b (1)
     |                                               |                |          x[0:1]: 0x8b-0x90 (5)
     |                                               |                |            [0]{}: glob 0x8b-0x90 (5)
     |                                               |                |              gt{}: 0x8b-0x8d (2)
0x080|                                 7f            |           .    |                t: "i32" (0x7f) 0x8b-0x8c (1)
0x080|                                    01         |            .   |                m: "var" (1) 0x8c-0x8d (1)
     |                                               |                |              e[0:2]: 0x8d-0x90 (3)
     |                                               |                |                [0]{}: in 0x8d-0x8f (2)
0x080|                                       41      |             A  |                  opcode: "i32.const" (0x41) 0x8d-0x8e (1)
0x080|                                          0a   |              . |                  n: 10 (valid) 0x8e-0x8f (1)
     |                                               |                |                [1]{}: in 0x8f-0x90 (1)
0x080|                                             0b|               .|                  opcode: "end" (0xb) 0x8f-0x90 (1)
     |                                               |                |    [5]{}: section 0x90-0x383 (755)
0x090|07                                             |.               |      id: "export_section" (7) 0x90-0x91 (1)
0x090|   f0 05                                       | ..             |      size: 752 (valid) 0x91-0x93 (2)
     |                                               |                |      content{}: 0x93-0x383 (752)
     |                                               |                |        ex{}: 0x93-0x383 (752)
0x090|         2b                                    |   +            |          n: 43 (valid) 0x93-0x94 (1)
     |                                               |                |          x[0:43]: 0x94-0x383 (751)
     |                                               |                |            [0]{}: ex 0x94-0xa1 (13)
     |                                               |                |              nm{}: 0x94-0x9f (11)
0x090|            0a                                 |    .           |                n: 10 (valid) 0x94-0x95 (1)
0x090|               73 65 6c 65 63 74 2d 69 33 32   |     select-i32 |                b: "select-i32" 0x95-0x9f (10)
     |                                               |                |              d{}: 0x9f-0xa1 (2)
0x090|                                             00|               .|                tag: "funcidx" (0x0) 0x9f-0xa0 (1)
0x0a0|01                                             |.               |                x: 1 (valid) 0xa0-0xa1 (1)
     |                                               |                |            [1]{}: ex 0xa1-0xae (13)
     |                                               |                |              nm{}: 0xa1-0xac (11)
0x0a0|   0a                                          | .              |                n: 10 (valid) 0xa1-0xa2 (1)
0x0a0|      73 65 6c 65 63 74 2d 69 36 34            |  select-i64    |                b: "select-i64" 0xa2-0xac (10)
     |                                               |                |              d{}: 0xac-0xae (2)
0x0a0|                                    00         |            .   |                tag: "funcidx" (0x0) 0xac-0xad (1)
0x0a0|                                       02      |             .  |                x: 2 (valid) 0xad-0xae (1)
     |                                               |                |            [2]{}: ex 0xae-0xbb (13)
     |                                               |                |              nm{}: 0xae-0xb9 (11)
0x0a0|                                          0a   |              . |                n: 10 (valid) 0xae-0xaf (1)
0x0a0|                                             73|               s|                b: "select-f32" 0xaf-0xb9 (10)
0x0b0|65 6c 65 63 74 2d 66 33 32                     |elect-f32       |
     |                                               |                |              d{}: 0xb9-0xbb (2)
0x0b0|                           00                  |         .      |                tag: "funcidx" (0x0) 0xb9-0xba (1)
0x0b0|                              03               |          .     |                x: 3 (valid) 0xba-0xbb (1)
     |                                               |                |            [3]{}: ex 0xbb-0xc8 (13)
     |                                               |                |              nm{}: 0xbb-0xc6 (11)
0x0b0|                                 0a            |           .    |                n: 10 (valid) 0xbb-0xbc (1)
0x0b0|                                    73 65 6c 65|            sele|                b: "select-f64" 0xbc-0xc6 (10)
0x0c0|63 74 2d 66 36 34                              |ct-f64          |
     |                                               |                |              d{}: 0xc6-0xc8 (2)
0x0c0|                  00                           |      .         |                tag: "funcidx" (0x0) 0xc6-0xc7 (1)
0x0c0|                     04                        |       .        |                x: 4 (valid) 0xc7-0xc8 (1)
     |                                               |                |            [4]{}: ex 0xc8-0xd7 (15)
     |                                               |                |              nm{}: 0xc8-0xd5 (13)
0x0c0|                        0c                     |        .       |                n: 12 (valid) 0xc8-0xc9 (1)
0x0c0|                           73 65 6c 65 63 74 2d|         select-|                b: "select-i32-t" 0xc9-0xd5 (12)
0x0d0|69 33 32 2d 74                                 |i32-t           |
     |                                               |                |              d{}: 0xd5-0xd7 (2)
0x0d0|               00                              |     .          |                tag: "funcidx" (0x0) 0xd5-0xd6 (1)
0x0d0|                  05                           |      .         |                x: 5 (valid) 0xd6-0xd7 (1)
     |                                               |                |            [5]{}: ex 0xd7-0xe6 (15)
     |                                               |                |              nm{}: 0xd7-0xe4 (13)
0x0d0|                     0c                        |       .        |                n: 12 (valid) 0xd7-0xd8 (1)
0x0d0|                        73 65 6c 65 63 74 2d 69|        select-i|                b: "select-i64-t" 0xd8-0xe4 (12)
0x0e0|36 34 2d 74                                    |64-t            |
     |                                               |                |              d{}: 0xe4-0xe6 (2)
0x0e0|            00                                 |    .           |                tag: "funcidx" (0x0) 0xe4-0xe5 (1)
0x0e0|               06                              |     .          |                x: 6 (valid) 0xe5-0xe6 (1)
     |                                               |                |            [6]{}: ex 0xe6-0xf5 (15)
     |                                               |                |              nm{}: 0xe6-0xf3 (13)
0x0e0|                  0c                           |      .         |                n: 12 (valid) 0xe6-0xe7 (1)
0x0e0|                     73 65 6c 65 63 74 2d 66 33|       select-f3|                b: "select-f32-t" 0xe7-0xf3 (12)
0x0f0|32 2d 74                                       |2-t             |
     |                                               |                |              d{}: 0xf3-0xf5 (2)
0x0f0|         00                                    |   .            |                tag: "funcidx" (0x0) 0xf3-0xf4 (1)
0x0f0|            07                                 |    .           |                x: 7 (valid) 0xf4-0xf5 (1)
     |                                               |                |            [7]{}: ex 0xf5-0x104 (15)
     |                                               |                |              nm{}: 0xf5-0x102 (13)
0x0f0|               0c                              |     .          |                n: 12 (valid) 0xf5-0xf6 (1)
0x0f0|                  73 65 6c 65 63 74 2d 66 36 34|      select-f64|                b: "select-f64-t" 0xf6-0x102 (12)
0x100|2d 74                                          |-t              |
     |                                               |                |              d{}: 0x102-0x104 (2)
0x100|      00                                       |  .             |                tag: "funcidx" (0x0) 0x102-0x103 (1)
0x100|         08                                    |   .            |                x: 8 (valid) 0x103-0x104 (1)
     |                                               |                |            [8]{}: ex 0x104-0x115 (17)
     |                                               |                |              nm{}: 0x104-0x113 (15)
0x100|            0e                                 |    .           |                n: 14 (valid) 0x104-0x105 (1)
0x100|               73 65 6c 65 63 74 2d 66 75 6e 63|     select-func|                b: "select-funcref" 0x105-0x113 (14)
0x110|72 65 66                                       |ref             |
     |                                               |                |              d{}: 0x113-0x115 (2)
0x110|         00                                    |   .            |                tag: "funcidx" (0x0) 0x113-0x114 (1)
0x110|            09                                 |    .           |                x: 9 (valid) 0x114-0x115 (1)
     |                                               |                |            [9]{}: ex 0x115-0x128 (19)
     |                                               |                |              nm{}: 0x115-0x126 (17)
0x110|               10                              |     .          |                n: 16 (valid) 0x115-0x116 (1)
0x110|                  73 65 6c 65 63 74 2d 65 78 74|      select-ext|                b: "select-externref" 0x116-0x126 (16)
0x120|65 72 6e 72 65 66                              |ernref          |
     |                                               |                |              d{}: 0x126-0x128 (2)
0x120|                  00                           |      .         |                tag: "funcidx" (0x0) 0x126-0x127 (1)
0x120|                     0a                        |       .        |                x: 10 (valid) 0x127-0x128 (1)
     |                                               |                |            [10]{}: ex 0x128-0x13a (18)
     |                                               |                |              nm{}: 0x128-0x138 (16)
0x120|                        0f                     |        .       |                n: 15 (valid) 0x128-0x129 (1)
0x120|                           61 73 2d 73 65 6c 65|         as-sele|                b: "as-select-first" 0x129-0x138 (15)
0x130|63 74 2d 66 69 72 73 74                        |ct-first        |
     |                                               |                |              d{}: 0x138-0x13a (2)
0x130|                        00                     |        .       |                tag: "funcidx" (0x0) 0x138-0x139 (1)
0x130|                           0b                  |         .      |                x: 11 (valid) 0x139-0x13a (1)
     |                                               |                |            [11]{}: ex 0x13a-0x14a (16)
     |                                               |                |              nm{}: 0x13a-0x148 (14)
0x130|                              0d               |          .     |                n: 13 (valid) 0x13a-0x13b (1)
0x130|                                 61 73 2d 73 65|           as-se|                b: "as-select-mid" 0x13b-0x148 (13)
0x140|6c 65 63 74 2d 6d 69 64                        |lect-mid        |
     |                                               |                |              d{}: 0x148-0x14a (2)
0x140|                        00                     |        .       |                tag: "funcidx" (0x0) 0x148-0x149 (1)
0x140|                           0c                  |         .      |                x: 12 (valid) 0x149-0x14a (1)
     |                                               |                |            [12]{}: ex 0x14a-0x15b (17)
     |                                               |                |              nm{}: 0x14a-0x159 (15)
0x140|                              0e               |          .     |                n: 14 (valid) 0x14a-0x14b (1)
0x140|                                 61 73 2d 73 65|           as-se|                b: "as-select-last" 0x14b-0x159 (14)
0x150|6c 65 63 74 2d 6c 61 73 74                     |lect-last       |
     |                                               |                |              d{}: 0x159-0x15b (2)
0x150|                           00                  |         .      |                tag: "funcidx" (0x0) 0x159-0x15a (1)
0x150|                              0d               |          .     |                x: 13 (valid) 0x15a-0x15b (1)
     |                                               |                |            [13]{}: ex 0x15b-0x16b (16)
     |                                               |                |              nm{}: 0x15b-0x169 (14)
0x150|                                 0d            |           .    |                n: 13 (valid) 0x15b-0x15c (1)
0x150|                                    61 73 2d 6c|            as-l|                b: "as-loop-first" 0x15c-0x169 (13)
0x160|6f 6f 70 2d 66 69 72 73 74                     |oop-first       |
     |                                               |                |              d{}: 0x169-0x16b (2)
0x160|                           00                  |         .      |                tag: "funcidx" (0x0) 0x169-0x16a (1)
0x160|                              0e               |          .     |                x: 14 (valid) 0x16a-0x16b (1)
     |                                               |                |            [14]{}: ex 0x16b-0x179 (14)
     |                                               |                |              nm{}: 0x16b-0x177 (12)
0x160|                                 0b            |           .    |                n: 11 (valid) 0x16b-0x16c (1)
0x160|                                    61 73 2d 6c|            as-l|                b: "as-loop-mid" 0x16c-0x177 (11)
0x170|6f 6f 70 2d 6d 69 64                           |oop-mid         |
     |                                               |                |              d{}: 0x177-0x179 (2)
0x170|                     00                        |       .        |                tag: "funcidx" (0x0) 0x177-0x178 (1)
0x170|                        0f                     |        .       |                x: 15 (valid) 0x178-0x179 (1)
     |                                               |                |            [15]{}: ex 0x179-0x188 (15)
     |                                               |                |              nm{}: 0x179-0x186 (13)
0x170|                           0c                  |         .      |                n: 12 (valid) 0x179-0x17a (1)
0x170|                              61 73 2d 6c 6f 6f|          as-loo|                b: "as-loop-last" 0x17a-0x186 (12)
0x180|70 2d 6c 61 73 74                              |p-last          |
     |                                               |                |              d{}: 0x186-0x188 (2)
0x180|                  00                           |      .         |                tag: "funcidx" (0x0) 0x186-0x187 (1)
0x180|                     10                        |       .        |                x: 16 (valid) 0x187-0x188 (1)
     |                                               |                |            [16]{}: ex 0x188-0x19a (18)
     |                                               |                |              nm{}: 0x188-0x198 (16)
0x180|                        0f                     |        .       |                n: 15 (valid) 0x188-0x189 (1)
0x180|                           61 73 2d 69 66 2d 63|         as-if-c|                b: "as-if-condition" 0x189-0x198 (15)
0x190|6f 6e 64 69 74 69 6f 6e                        |ondition        |
     |                                               |                |              d{}: 0x198-0x19a (2)
0x190|                        00                     |        .       |                tag: "funcidx" (0x0) 0x198-0x199 (1)
0x190|                           11                  |         .      |                x: 17 (valid) 0x199-0x19a (1)
     |                                               |                |            [17]{}: ex 0x19a-0x1a7 (13)
     |                                               |                |              nm{}: 0x19a-0x1a5 (11)
0x190|                              0a               |          .     |                n: 10 (valid) 0x19a-0x19b (1)
0x190|                                 61 73 2d 69 66|           as-if|                b: "as-if-then" 0x19b-0x1a5 (10)
0x1a0|2d 74 68 65 6e                                 |-then           |
     |                                               |                |              d{}: 0x1a5-0x1a7 (2)
0x1a0|               00                              |     .          |                tag: "funcidx" (0x0) 0x1a5-0x1a6 (1)
0x1a0|                  12                           |      .         |                x: 18 (valid) 0x1a6-0x1a7 (1)
     |                                               |                |            [18]{}: ex 0x1a7-0x1b4 (13)
     |                                               |                |              nm{}: 0x1a7-0x1b2 (11)
0x1a0|                     0a                        |       .        |                n: 10 (valid) 0x1a7-0x1a8 (1)
0x1a0|                        61 73 2d 69 66 2d 65 6c|        as-if-el|                b: "as-if-else" 0x1a8-0x1b2 (10)
0x1b0|73 65                                          |se              |
     |                                               |                |              d{}: 0x1b2-0x1b4 (2)
0x1b0|      00                                       |  .             |                tag: "funcidx" (0x0) 0x1b2-0x1b3 (1)
0x1b0|         13                                    |   .            |                x: 19 (valid) 0x1b3-0x1b4 (1)
     |                                               |                |            [19]{}: ex 0x1b4-0x1c5 (17)
     |                                               |                |              nm{}: 0x1b4-0x1c3 (15)
0x1b0|            0e                                 |    .           |                n: 14 (valid) 0x1b4-0x1b5 (1)
0x1b0|               61 73 2d 62 72 5f 69 66 2d 66 69|     as-br_if-fi|                b: "as-br_if-first" 0x1b5-0x1c3 (14)
0x1c0|72 73 74                                       |rst             |
     |                                               |                |              d{}: 0x1c3-0x1c5 (2)
0x1c0|         00                                    |   .            |                tag: "funcidx" (0x0) 0x1c3-0x1c4 (1)
0x1c0|            14                                 |    .           |                x: 20 (valid) 0x1c4-0x1c5 (1)
     |                                               |                |            [20]{}: ex 0x1c5-0x1d5 (16)
     |                                               |                |              nm{}: 0x1c5-0x1d3 (14)
0x1c0|               0d                              |     .          |                n: 13 (valid) 0x1c5-0x1c6 (1)
0x1c0|                  61 73 2d 62 72 5f 69 66 2d 6c|      as-br_if-l|                b: "as-br_if-last" 0x1c6-0x1d3 (13)
0x1d0|61 73 74                                       |ast             |
     |                                               |                |              d{}: 0x1d3-0x1d5 (2)
0x1d0|         00                                    |   .            |                tag: "funcidx" (0x0) 0x1d3-0x1d4 (1)
0x1d0|            15                                 |    .           |                x: 21 (valid) 0x1d4-0x1d5 (1)
     |                                               |                |            [21]{}: ex 0x1d5-0x1e9 (20)
     |                                               |                |              nm{}: 0x1d5-0x1e7 (18)
0x1d0|               11                              |     .          |                n: 17 (valid) 0x1d5-0x1d6 (1)
0x1d0|                  61 73 2d 62 72 5f 74 61 62 6c|      as-br_tabl|                b: "as-br_table-first" 0x1d6-0x1e7 (17)
0x1e0|65 2d 66 69 72 73 74                           |e-first         |
     |                                               |                |              d{}: 0x1e7-0x1e9 (2)
0x1e0|                     00                        |       .        |                tag: "funcidx" (0x0) 0x1e7-0x1e8 (1)
0x1e0|                        16                     |        .       |                x: 22 (valid) 0x1e8-0x1e9 (1)
     |                                               |                |            [22]{}: ex 0x1e9-0x1fc (19)
     |                                               |                |              nm{}: 0x1e9-0x1fa (17)
0x1e0|                           10                  |         .      |                n: 16 (valid) 0x1e9-0x1ea (1)
0x1e0|                              61 73 2d 62 72 5f|          as-br_|                b: "as-br_table-last" 0x1ea-0x1fa (16)
0x1f0|74 61 62 6c 65 2d 6c 61 73 74                  |table-last      |
     |                                               |                |              d{}: 0x1fa-0x1fc (2)
0x1f0|                              00               |          .     |                tag: "funcidx" (0x0) 0x1fa-0x1fb (1)
0x1f0|                                 17            |           .    |                x: 23 (valid) 0x1fb-0x1fc (1)
     |                                               |                |            [23]{}: ex 0x1fc-0x215 (25)
     |                                               |                |              nm{}: 0x1fc-0x213 (23)
0x1f0|                                    16         |            .   |                n: 22 (valid) 0x1fc-0x1fd (1)
0x1f0|                                       61 73 2d|             as-|                b: "as-call_indirect-first" 0x1fd-0x213 (22)
0x200|63 61 6c 6c 5f 69 6e 64 69 72 65 63 74 2d 66 69|call_indirect-fi|
0x210|72 73 74                                       |rst             |
     |                                               |                |              d{}: 0x213-0x215 (2)
0x210|         00                                    |   .            |                tag: "funcidx" (0x0) 0x213-0x214 (1)
0x210|            19                                 |    .           |                x: 25 (valid) 0x214-0x215 (1)
     |                                               |                |            [24]{}: ex 0x215-0x22c (23)
     |                                               |                |              nm{}: 0x215-0x22a (21)
0x210|               14                              |     .          |                n: 20 (valid) 0x215-0x216 (1)
0x210|                  61 73 2d 63 61 6c 6c 5f 69 6e|      as-call_in|                b: "as-call_indirect-mid" 0x216-0x22a (20)
0x220|64 69 72 65 63 74 2d 6d 69 64                  |direct-mid      |
     |                                               |                |              d{}: 0x22a-0x22c (2)
0x220|                              00               |          .     |                tag: "funcidx" (0x0) 0x22a-0x22b (1)
0x220|                                 1a            |           .    |                x: 26 (valid) 0x22b-0x22c (1)
     |                                               |                |            [25]{}: ex 0x22c-0x244 (24)
     |                                               |                |              nm{}: 0x22c-0x242 (22)
0x220|                                    15         |            .   |                n: 21 (valid) 0x22c-0x22d (1)
0x220|                                       61 73 2d|             as-|                b: "as-call_indirect-last" 0x22d-0x242 (21)
0x230|63 61 6c 6c 5f 69 6e 64 69 72 65 63 74 2d 6c 61|call_indirect-la|
0x240|73 74                                          |st              |
     |                                               |                |              d{}: 0x242-0x244 (2)
0x240|      00                                       |  .             |                tag: "funcidx" (0x0) 0x242-0x243 (1)
0x240|         1b                                    |   .            |                x: 27 (valid) 0x243-0x244 (1)
     |                                               |                |            [26]{}: ex 0x244-0x255 (17)
     |                                               |                |              nm{}: 0x244-0x253 (15)
0x240|            0e                                 |    .           |                n: 14 (valid) 0x244-0x245 (1)
0x240|               61 73 2d 73 74 6f 72 65 2d 66 69|     as-store-fi|                b: "as-store-first" 0x245-0x253 (14)
0x250|72 73 74                                       |rst             |
     |                                               |                |              d{}: 0x253-0x255 (2)
0x250|         00                                    |   .            |                tag: "funcidx" (0x0) 0x253-0x254 (1)
0x250|            1c                                 |    .           |                x: 28 (valid) 0x254-0x255 (1)
     |                                               |                |            [27]{}: ex 0x255-0x265 (16)
     |                                               |                |              nm{}: 0x255-0x263 (14)
0x250|               0d                              |     .          |                n: 13 (valid) 0x255-0x256 (1)
0x250|                  61 73 2d 73 74 6f 72 65 2d 6c|      as-store-l|                b: "as-store-last" 0x256-0x263 (13)
0x260|61 73 74                                       |ast             |
     |                                               |                |              d{}: 0x263-0x265 (2)
0x260|         00                                    |   .            |                tag: "funcidx" (0x0) 0x263-0x264 (1)
0x260|            1d                                 |    .           |                x: 29 (valid) 0x264-0x265 (1)
     |                                               |                |            [28]{}: ex 0x265-0x27c (23)
     |                                               |                |              nm{}: 0x265-0x27a (21)
0x260|               14                              |     .          |                n: 20 (valid) 0x265-0x266 (1)
0x260|                  61 73 2d 6d 65 6d 6f 72 79 2e|      as-memory.|                b: "as-memory.grow-value" 0x266-0x27a (20)
0x270|67 72 6f 77 2d 76 61 6c 75 65                  |grow-value      |
     |                                               |                |              d{}: 0x27a-0x27c (2)
0x270|                              00               |          .     |                tag: "funcidx" (0x0) 0x27a-0x27b (1)
0x270|                                 1e            |           .    |                x: 30 (valid) 0x27b-0x27c (1)
     |                                               |                |            [29]{}: ex 0x27c-0x28c (16)
     |                                               |                |              nm{}: 0x27c-0x28a (14)
0x270|                                    0d         |            .   |                n: 13 (valid) 0x27c-0x27d (1)
0x270|                                       61 73 2d|             as-|                b: "as-call-value" 0x27d-0x28a (13)
0x280|63 61 6c 6c 2d 76 61 6c 75 65                  |call-value      |
     |                                               |                |              d{}: 0x28a-0x28c (2)
0x280|                              00               |          .     |                tag: "funcidx" (0x0) 0x28a-0x28b (1)
0x280|                                 20            |                |                x: 32 (valid) 0x28b-0x28c (1)
     |                                               |                |            [30]{}: ex 0x28c-0x29e (18)
     |                                               |                |              nm{}: 0x28c-0x29c (16)
0x280|                                    0f         |            .   |                n: 15 (valid) 0x28c-0x28d (1)
0x280|                                       61 73 2d|             as-|                b: "as-return-value" 0x28d-0x29c (15)
0x290|72 65 74 75 72 6e 2d 76 61 6c 75 65            |return-value    |
     |                                               |                |              d{}: 0x29c-0x29e (2)
0x290|                                    00         |            .   |                tag: "funcidx" (0x0) 0x29c-0x29d (1)
0x290|                                       21      |             !  |                x: 33 (valid) 0x29d-0x29e (1)
     |                                               |                |            [31]{}: ex 0x29e-0x2b0 (18)
     |                                               |                |              nm{}: 0x29e-0x2ae (16)
0x290|                                          0f   |              . |                n: 15 (valid) 0x29e-0x29f (1)
0x290|                                             61|               a|                b: "as-drop-operand" 0x29f-0x2ae (15)
0x2a0|73 2d 64 72 6f 70 2d 6f 70 65 72 61 6e 64      |s-drop-operand  |
     |                                               |                |              d{}: 0x2ae-0x2b0 (2)
0x2a0|                                          00   |              . |                tag: "funcidx" (0x0) 0x2ae-0x2af (1)
0x2a0|                                             22|               "|                x: 34 (valid) 0x2af-0x2b0 (1)
     |                                               |                |            [32]{}: ex 0x2b0-0x2be (14)
     |                                               |                |              nm{}: 0x2b0-0x2bc (12)
0x2b0|0b                                             |.               |                n: 11 (valid) 0x2b0-0x2b1 (1)
0x2b0|   61 73 2d 62 72 2d 76 61 6c 75 65            | as-br-value    |                b: "as-br-value" 0x2b1-0x2bc (11)
     |                                               |                |              d{}: 0x2bc-0x2be (2)
0x2b0|                                    00         |            .   |                tag: "funcidx" (0x0) 0x2bc-0x2bd (1)
0x2b0|                                       23      |             #  |                x: 35 (valid) 0x2bd-0x2be (1)
     |                                               |                |            [33]{}: ex 0x2be-0x2d3 (21)
     |                                               |                |              nm{}: 0x2be-0x2d1 (19)
0x2b0|                                          12   |              . |                n: 18 (valid) 0x2be-0x2bf (1)
0x2b0|                                             61|               a|                b: "as-local.set-value" 0x2bf-0x2d1 (18)
0x2c0|73 2d 6c 6f 63 61 6c 2e 73 65 74 2d 76 61 6c 75|s-local.set-valu|
0x2d0|65                                             |e               |
     |                                               |                |              d{}: 0x2d1-0x2d3 (2)
0x2d0|   00                                          | .              |                tag: "funcidx" (0x0) 0x2d1-0x2d2 (1)
0x2d0|      24                                       |  $             |                x: 36 (valid) 0x2d2-0x2d3 (1)
     |                                               |                |            [34]{}: ex 0x2d3-0x2e8 (21)
     |                                               |                |              nm{}: 0x2d3-0x2e6 (19)
0x2d0|         12                                    |   .            |                n: 18 (valid) 0x2d3-0x2d4 (1)
0x2d0|            61 73 2d 6c 6f 63 61 6c 2e 74 65 65|    as-local.tee|                b: "as-local.tee-value" 0x2d4-0x2e6 (18)
0x2e0|2d 76 61 6c 75 65                              |-value          |
     |                                               |                |              d{}: 0x2e6-0x2e8 (2)
0x2e0|                  00                           |      .         |                tag: "funcidx" (0x0) 0x2e6-0x2e7 (1)
0x2e0|                     25                        |       %        |                x: 37 (valid) 0x2e7-0x2e8 (1)
     |                                               |                |            [35]{}: ex 0x2e8-0x2fe (22)
     |                                               |                |              nm{}: 0x2e8-0x2fc (20)
0x2e0|                        13                     |        .       |                n: 19 (valid) 0x2e8-0x2e9 (1)
0x2e0|                           61 73 2d 67 6c 6f 62|         as-glob|                b: "as-global.set-value" 0x2e9-0x2fc (19)
0x2f0|61 6c 2e 73 65 74 2d 76 61 6c 75 65            |al.set-value    |
     |                                               |                |              d{}: 0x2fc-0x2fe (2)
0x2f0|                                    00         |            .   |                tag: "funcidx" (0x0) 0x2fc-0x2fd (1)
0x2f0|                                       26      |             &  |                x: 38 (valid) 0x2fd-0x2fe (1)
     |                                               |                |            [36]{}: ex 0x2fe-0x310 (18)
     |                                               |                |              nm{}: 0x2fe-0x30e (16)
0x2f0|                                          0f   |              . |                n: 15 (valid) 0x2fe-0x2ff (1)
0x2f0|                                             61|               a|                b: "as-load-operand" 0x2ff-0x30e (15)
0x300|73 2d 6c 6f 61 64 2d 6f 70 65 72 61 6e 64      |s-load-operand  |
     |                                               |                |              d{}: 0x30e-0x310 (2)
0x300|                                          00   |              . |                tag: "funcidx" (0x0) 0x30e-0x30f (1)
0x300|                                             27|               '|                x: 39 (valid) 0x30f-0x310 (1)
     |                                               |                |            [37]{}: ex 0x310-0x323 (19)
     |                                               |                |              nm{}: 0x310-0x321 (17)
0x310|10                                             |.               |                n: 16 (valid) 0x310-0x311 (1)
0x310|   61 73 2d 75 6e 61 72 79 2d 6f 70 65 72 61 6e| as-unary-operan|                b: "as-unary-operand" 0x311-0x321 (16)
0x320|64                                             |d               |
     |                                               |                |              d{}: 0x321-0x323 (2)
0x320|   00                                          | .              |                tag: "funcidx" (0x0) 0x321-0x322 (1)
0x320|      28                                       |  (             |                x: 40 (valid) 0x322-0x323 (1)
     |                                               |                |            [38]{}: ex 0x323-0x337 (20)
     |                                               |                |              nm{}: 0x323-0x335 (18)
0x320|         11                                    |   .            |                n: 17 (valid) 0x323-0x324 (1)
0x320|            61 73 2d 62 69 6e 61 72 79 2d 6f 70|    as-binary-op|                b: "as-binary-operand" 0x324-0x335 (17)
0x330|65 72 61 6e 64                                 |erand           |
     |                                               |                |              d{}: 0x335-0x337 (2)
0x330|               00                              |     .          |                tag: "funcidx" (0x0) 0x335-0x336 (1)
0x330|                  29                           |      )         |                x: 41 (valid) 0x336-0x337 (1)
     |                                               |                |            [39]{}: ex 0x337-0x349 (18)
     |                                               |                |              nm{}: 0x337-0x347 (16)
0x330|                     0f                        |       .        |                n: 15 (valid) 0x337-0x338 (1)
0x330|                        61 73 2d 74 65 73 74 2d|        as-test-|                b: "as-test-operand" 0x338-0x347 (15)
0x340|6f 70 65 72 61 6e 64                           |operand         |
     |                                               |                |              d{}: 0x347-0x349 (2)
0x340|                     00                        |       .        |                tag: "funcidx" (0x0) 0x347-0x348 (1)
0x340|                        2a                     |        *       |                x: 42 (valid) 0x348-0x349 (1)
     |                                               |                |            [40]{}: ex 0x349-0x35b (18)
     |                                               |                |              nm{}: 0x349-0x359 (16)
0x340|                           0f                  |         .      |                n: 15 (valid) 0x349-0x34a (1)
0x340|                              61 73 2d 63 6f 6d|          as-com|                b: "as-compare-left" 0x34a-0x359 (15)
0x350|70 61 72 65 2d 6c 65 66 74                     |pare-left       |
     |                                               |                |              d{}: 0x359-0x35b (2)
0x350|                           00                  |         .      |                tag: "funcidx" (0x0) 0x359-0x35a (1)
0x350|                              2b               |          +     |                x: 43 (valid) 0x35a-0x35b (1)
     |                                               |                |            [41]{}: ex 0x35b-0x36e (19)
     |                                               |                |              nm{}: 0x35b-0x36c (17)
0x350|                                 10            |           .    |                n: 16 (valid) 0x35b-0x35c (1)
0x350|                                    61 73 2d 63|            as-c|                b: "as-compare-right" 0x35c-0x36c (16)
0x360|6f 6d 70 61 72 65 2d 72 69 67 68 74            |ompare-right    |
     |                                               |                |              d{}: 0x36c-0x36e (2)
0x360|                                    00         |            .   |                tag: "funcidx" (0x0) 0x36c-0x36d (1)
0x360|                                       2c      |             ,  |                x: 44 (valid) 0x36d-0x36e (1)
     |                                               |                |            [42]{}: ex 0x36e-0x383 (21)
     |                                               |                |              nm{}: 0x36e-0x381 (19)
0x360|                                          12   |              . |                n: 18 (valid) 0x36e-0x36f (1)
0x360|                                             61|               a|                b: "as-convert-operand" 0x36f-0x381 (18)
0x370|73 2d 63 6f 6e 76 65 72 74 2d 6f 70 65 72 61 6e|s-convert-operan|
0x380|64                                             |d               |
     |                                               |                |              d{}: 0x381-0x383 (2)
0x380|   00                                          | .              |                tag: "funcidx" (0x0) 0x381-0x382 (1)
0x380|      2d                                       |  -             |                x: 45 (valid) 0x382-0x383 (1)
     |                                               |                |    [6]{}: section 0x383-0x394 (17)
0x380|         09                                    |   .            |      id: "element_section" (9) 0x383-0x384 (1)
0x380|            0f                                 |    .           |      size: 15 (valid) 0x384-0x385 (1)
     |                                               |                |      element{}: 0x385-0x394 (15)
     |                                               |                |        seg{}: 0x385-0x394 (15)
0x380|               02                              |     .          |          n: 2 (valid) 0x385-0x386 (1)
     |                                               |                |          x[0:2]: 0x386-0x394 (14)
     |                                               |                |            [0]{}: seg 0x386-0x38c (6)
0x380|                  00                           |      .         |              tag: 0 (valid) 0x386-0x387 (1)
     |                                               |                |              e[0:2]: 0x387-0x38a (3)
     |                                               |                |                [0]{}: in 0x387-0x389 (2)
0x380|                     41                        |       A        |                  opcode: "i32.const" (0x41) 0x387-0x388 (1)
0x380|                        00                     |        .       |                  n: 0 (valid) 0x388-0x389 (1)
     |                                               |                |                [1]{}: in 0x389-0x38a (1)
0x380|                           0b                  |         .      |                  opcode: "end" (0xb) 0x389-0x38a (1)
     |                                               |                |              y{}: 0x38a-0x38c (2)
0x380|                              01               |          .     |                n: 1 (valid) 0x38a-0x38b (1)
     |                                               |                |                x[0:1]: 0x38b-0x38c (1)
0x380|                                 00            |           .    |                  [0]: 0 y (valid) 0x38b-0x38c (1)
     |                                               |                |            [1]{}: seg 0x38c-0x394 (8)
0x380|                                    02         |            .   |              tag: 2 (valid) 0x38c-0x38d (1)
0x380|                                       01      |             .  |              x: 1 (valid) 0x38d-0x38e (1)
     |                                               |                |              e[0:2]: 0x38e-0x391 (3)
     |                                               |                |                [0]{}: in 0x38e-0x390 (2)
0x380|                                          41   |              A |                  opcode: "i32.const" (0x41) 0x38e-0x38f (1)
0x380|                                             00|               .|                  n: 0 (valid) 0x38f-0x390 (1)
     |                                               |                |                [1]{}: in 0x390-0x391 (1)
0x390|0b                                             |.               |                  opcode: "end" (0xb) 0x390-0x391 (1)
0x390|   00                                          | .              |              et: "funcref" (0) (valid) 0x391-0x392 (1)
     |                                               |                |              y{}: 0x392-0x394 (2)
0x390|      01                                       |  .             |                n: 1 (valid) 0x392-0x393 (1)
     |                                               |                |                x[0:1]: 0x393-0x394 (1)
0x390|         18                                    |   .            |                  [0]: 24 y (valid) 0x393-0x394 (1)
     |                                               |                |    [7]{}: section 0x394-0x617 (643)
0x390|            0a                                 |    .           |      id: "code_section" (10) 0x394-0x395 (1)
0x390|               80 05                           |     ..         |      size: 640 (valid) 0x395-0x397 (2)
     |                                               |                |      content{}: 0x397-0x617 (640)
     |                                               |                |        code{}: 0x397-0x617 (640)
0x390|                     2e                        |       .        |          n: 46 (valid) 0x397-0x398 (1)
     |                                               |                |          x[0:46]: 0x398-0x617 (639)
     |                                               |                |            [0]{}: code 0x398-0x39b (3)
0x390|                        02                     |        .       |              size: 2 (valid) 0x398-0x399 (1)
     |                                               |                |              code{}: 0x399-0x39b (2)
     |                                               |                |                t{}: 0x399-0x39a (1)
0x390|                           00                  |         .      |                  n: 0 (valid) 0x399-0x39a (1)
     |                                               |                |                  x[0:0]: 0x39a-0x39a (0)
     |                                               |                |                e[0:1]: 0x39a-0x39b (1)
     |                                               |                |                  [0]{}: in 0x39a-0x39b (1)
0x390|                              0b               |          .     |                    opcode: "end" (0xb) 0x39a-0x39b (1)
     |                                               |                |            [1]{}: code 0x39b-0x3a5 (10)
0x390|                                 09            |           .    |              size: 9 (valid) 0x39b-0x39c (1)
     |                                               |                |              code{}: 0x39c-0x3a5 (9)
     |                                               |                |                t{}: 0x39c-0x39d (1)
0x390|                                    00         |            .   |                  n: 0 (valid) 0x39c-0x39d (1)
     |                                               |                |                  x[0:0]: 0x39d-0x39d (0)
     |                                               |                |                e[0:5]: 0x39d-0x3a5 (8)
     |                                               |                |                  [0]{}: in 0x39d-0x39f (2)
0x390|                                       20      |                |                    opcode: "local.get" (0x20) 0x39d-0x39e (1)
0x390|                                          00   |              . |                    x: 0 (valid) 0x39e-0x39f (1)
     |                                               |                |                  [1]{}: in 0x39f-0x3a1 (2)
0x390|                                             20|                |                    opcode: "local.get" (0x20) 0x39f-0x3a0 (1)
0x3a0|01                                             |.               |                    x: 1 (valid) 0x3a0-0x3a1 (1)
     |                                               |                |                  [2]{}: in 0x3a1-0x3a3 (2)
0x3a0|   20                                          |                |                    opcode: "local.get" (0x20) 0x3a1-0x3a2 (1)
0x3a0|      02                                       |  .             |                    x: 2 (valid) 0x3a2-0x3a3 (1)
     |                                               |                |                  [3]{}: in 0x3a3-0x3a4 (1)
0x3a0|         1b                                    |   .            |                    opcode: "select" (0x1b) 0x3a3-0x3a4 (1)
     |                                               |                |                  [4]{}: in 0x3a4-0x3a5 (1)
0x3a0|            0b                                 |    .           |                    opcode: "end" (0xb) 0x3a4-0x3a5 (1)
     |                                               |                |            [2]{}: code 0x3a5-0x3af (10)
0x3a0|               09                              |     .          |              size: 9 (valid) 0x3a5-0x3a6 (1)
     |                                               |                |              code{}: 0x3a6-0x3af (9)
     |                                               |                |                t{}: 0x3a6-0x3a7 (1)
0x3a0|                  00                           |      .         |                  n: 0 (valid) 0x3a6-0x3a7 (1)
     |                                               |                |                  x[0:0]: 0x3a7-0x3a7 (0)
     |                                               |                |                e[0:5]: 0x3a7-0x3af (8)
     |                                               |                |                  [0]{}: in 0x3a7-0x3a9 (2)
0x3a0|                     20                        |                |                    opcode: "local.get" (0x20) 0x3a7-0x3a8 (1)
0x3a0|                        00                     |        .       |                    x: 0 (valid) 0x3a8-0x3a9 (1)
     |                                               |                |                  [1]{}: in 0x3a9-0x3ab (2)
0x3a0|                           20                  |                |                    opcode: "local.get" (0x20) 0x3a9-0x3aa (1)
0x3a0|                              01               |          .     |                    x: 1 (valid) 0x3aa-0x3ab (1)
     |                                               |                |                  [2]{}: in 0x3ab-0x3ad (2)
0x3a0|                                 20            |                |                    opcode: "local.get" (0x20) 0x3ab-0x3ac (1)
0x3a0|                                    02         |            .   |                    x: 2 (valid) 0x3ac-0x3ad (1)
     |                                               |                |                  [3]{}: in 0x3ad-0x3ae (1)
0x3a0|                                       1b      |             .  |                    opcode: "select" (0x1b) 0x3ad-0x3ae (1)
     |                                               |                |                  [4]{}: in 0x3ae-0x3af (1)
0x3a0|                                          0b   |              . |                    opcode: "end" (0xb) 0x3ae-0x3af (1)
     |                                               |                |            [3]{}: code 0x3af-0x3b9 (10)
0x3a0|                                             09|               .|              size: 9 (valid) 0x3af-0x3b0 (1)
     |                                               |                |              code{}: 0x3b0-0x3b9 (9)
     |                                               |                |                t{}: 0x3b0-0x3b1 (1)
0x3b0|00                                             |.               |                  n: 0 (valid) 0x3b0-0x3b1 (1)
     |                                               |                |                  x[0:0]: 0x3b1-0x3b1 (0)
     |                                               |                |                e[0:5]: 0x3b1-0x3b9 (8)
     |                                               |                |                  [0]{}: in 0x3b1-0x3b3 (2)
0x3b0|   20                                          |                |                    opcode: "local.get" (0x20) 0x3b1-0x3b2 (1)
0x3b0|      00                                       |  .             |                    x: 0 (valid) 0x3b2-0x3b3 (1)
     |                                               |                |                  [1]{}: in 0x3b3-0x3b5 (2)
0x3b0|         20                                    |                |                    opcode: "local.get" (0x20) 0x3b3-0x3b4 (1)
0x3b0|            01                                 |    .           |                    x: 1 (valid) 0x3b4-0x3b5 (1)
     |                                               |                |                  [2]{}: in 0x3b5-0x3b7 (2)
0x3b0|               20                              |                |                    opcode: "local.get" (0x20) 0x3b5-0x3b6 (1)
0x3b0|                  02                           |      .         |                    x: 2 (valid) 0x3b6-0x3b7 (1)
     |                                               |                |                  [3]{}: in 0x3b7-0x3b8 (1)
0x3b0|                     1b                        |       .        |                    opcode: "select" (0x1b) 0x3b7-0x3b8 (1)
     |                                               |                |                  [4]{}: in 0x3b8-0x3b9 (1)
0x3b0|                        0b                     |        .       |                    opcode: "end" (0xb) 0x3b8-0x3b9 (1)
     |                                               |                |            [4]{}: code 0x3b9-0x3c3 (10)
0x3b0|                           09                  |         .      |              size: 9 (valid) 0x3b9-0x3ba (1)
     |                                               |                |              code{}: 0x3ba-0x3c3 (9)
     |                                               |                |                t{}: 0x3ba-0x3bb (1)
0x3b0|                              00               |          .     |                  n: 0 (valid) 0x3ba-0x3bb (1)
     |                                               |                |                  x[0:0]: 0x3bb-0x3bb (0)
     |                                               |                |                e[0:5]: 0x3bb-0x3c3 (8)
     |                                               |                |                  [0]{}: in 0x3bb-0x3bd (2)
0x3b0|                                 20            |                |                    opcode: "local.get" (0x20) 0x3bb-0x3bc (1)
0x3b0|                                    00         |            .   |                    x: 0 (valid) 0x3bc-0x3bd (1)
     |                                               |                |                  [1]{}: in 0x3bd-0x3bf (2)
0x3b0|                                       20      |                |                    opcode: "local.get" (0x20) 0x3bd-0x3be (1)
0x3b0|                                          01   |              . |                    x: 1 (valid) 0x3be-0x3bf (1)
     |                                               |                |                  [2]{}: in 0x3bf-0x3c1 (2)
0x3b0|                                             20|                |                    opcode: "local.get" (0x20) 0x3bf-0x3c0 (1)
0x3c0|02                                             |.               |                    x: 2 (valid) 0x3c0-0x3c1 (1)
     |                                               |                |                  [3]{}: in 0x3c1-0x3c2 (1)
0x3c0|   1b                                          | .              |                    opcode: "select" (0x1b) 0x3c1-0x3c2 (1)
     |                                               |                |                  [4]{}: in 0x3c2-0x3c3 (1)
0x3c0|      0b                                       |  .             |                    opcode: "end" (0xb) 0x3c2-0x3c3 (1)
     |                                               |                |            [5]{}: code 0x3c3-0x3cf (12)
0x3c0|         0b                                    |   .            |              size: 11 (valid) 0x3c3-0x3c4 (1)
     |                                               |                |              code{}: 0x3c4-0x3cf (11)
     |                                               |                |                t{}: 0x3c4-0x3c5 (1)
0x3c0|            00                                 |    .           |                  n: 0 (valid) 0x3c4-0x3c5 (1)
     |                                               |                |                  x[0:0]: 0x3c5-0x3c5 (0)
     |                                               |                |                e[0:5]: 0x3c5-0x3cf (10)
     |                                               |                |                  [0]{}: in 0x3c5-0x3c7 (2)
0x3c0|               20                              |                |                    opcode: "local.get" (0x20) 0x3c5-0x3c6 (1)
0x3c0|                  00                           |      .         |                    x: 0 (valid) 0x3c6-0x3c7 (1)
     |                                               |                |                  [1]{}: in 0x3c7-0x3c9 (2)
0x3c0|                     20                        |                |                    opcode: "local.get" (0x20) 0x3c7-0x3c8 (1)
0x3c0|                        01                     |        .       |                    x: 1 (valid) 0x3c8-0x3c9 (1)
     |                                               |                |                  [2]{}: in 0x3c9-0x3cb (2)
0x3c0|                           20                  |                |                    opcode: "local.get" (0x20) 0x3c9-0x3ca (1)
0x3c0|                              02               |          .     |                    x: 2 (valid) 0x3ca-0x3cb (1)
     |                                               |                |                  [3]{}: in 0x3cb-0x3ce (3)
0x3c0|                                 1c            |           .    |                    opcode: "select" (0x1c) 0x3cb-0x3cc (1)
     |                                               |                |                    t{}: 0x3cc-0x3ce (2)
0x3c0|                                    01         |            .   |                      n: 1 (valid) 0x3cc-0x3cd (1)
     |                                               |                |                      x[0:1]: 0x3cd-0x3ce (1)
0x3c0|                                       7f      |             .  |                        [0]: "i32" (0x7f) t 0x3cd-0x3ce (1)
     |                                               |                |                  [4]{}: in 0x3ce-0x3cf (1)
0x3c0|                                          0b   |              . |                    opcode: "end" (0xb) 0x3ce-0x3cf (1)
     |                                               |                |            [6]{}: code 0x3cf-0x3db (12)
0x3c0|                                             0b|               .|              size: 11 (valid) 0x3cf-0x3d0 (1)
     |                                               |                |              code{}: 0x3d0-0x3db (11)
     |                                               |                |                t{}: 0x3d0-0x3d1 (1)
0x3d0|00                                             |.               |                  n: 0 (valid) 0x3d0-0x3d1 (1)
     |                                               |                |                  x[0:0]: 0x3d1-0x3d1 (0)
     |                                               |                |                e[0:5]: 0x3d1-0x3db (10)
     |                                               |                |                  [0]{}: in 0x3d1-0x3d3 (2)
0x3d0|   20                                          |                |                    opcode: "local.get" (0x20) 0x3d1-0x3d2 (1)
0x3d0|      00                                       |  .             |                    x: 0 (valid) 0x3d2-0x3d3 (1)
     |                                               |                |                  [1]{}: in 0x3d3-0x3d5 (2)
0x3d0|         20                                    |                |                    opcode: "local.get" (0x20) 0x3d3-0x3d4 (1)
0x3d0|            01                                 |    .           |                    x: 1 (valid) 0x3d4-0x3d5 (1)
     |                                               |                |                  [2]{}: in 0x3d5-0x3d7 (2)
0x3d0|               20                              |                |                    opcode: "local.get" (0x20) 0x3d5-0x3d6 (1)
0x3d0|                  02                           |      .         |                    x: 2 (valid) 0x3d6-0x3d7 (1)
     |                                               |                |                  [3]{}: in 0x3d7-0x3da (3)
0x3d0|                     1c                        |       .        |                    opcode: "select" (0x1c) 0x3d7-0x3d8 (1)
     |                                               |                |                    t{}: 0x3d8-0x3da (2)
0x3d0|                        01                     |        .       |                      n: 1 (valid) 0x3d8-0x3d9 (1)
     |                                               |                |                      x[0:1]: 0x3d9-0x3da (1)
0x3d0|                           7e                  |         ~      |                        [0]: "i64" (0x7e) t 0x3d9-0x3da (1)
     |                                               |                |                  [4]{}: in 0x3da-0x3db (1)
0x3d0|                              0b               |          .     |                    opcode: "end" (0xb) 0x3da-0x3db (1)
     |                                               |                |            [7]{}: code 0x3db-0x3e7 (12)
0x3d0|                                 0b            |           .    |              size: 11 (valid) 0x3db-0x3dc (1)
     |                                               |                |              code{}: 0x3dc-0x3e7 (11)
     |                                               |                |                t{}: 0x3dc-0x3dd (1)
0x3d0|                                    00         |            .   |                  n: 0 (valid) 0x3dc-0x3dd (1)
     |                                               |                |                  x[0:0]: 0x3dd-0x3dd (0)
     |                                               |                |                e[0:5]: 0x3dd-0x3e7 (10)
     |                                               |                |                  [0]{}: in 0x3dd-0x3df (2)
0x3d0|                                       20      |                |                    opcode: "local.get" (0x20) 0x3dd-0x3de (1)
0x3d0|                                          00   |              . |                    x: 0 (valid) 0x3de-0x3df (1)
     |                                               |                |                  [1]{}: in 0x3df-0x3e1 (2)
0x3d0|                                             20|                |                    opcode: "local.get" (0x20) 0x3df-0x3e0 (1)
0x3e0|01                                             |.               |                    x: 1 (valid) 0x3e0-0x3e1 (1)
     |                                               |                |                  [2]{}: in 0x3e1-0x3e3 (2)
0x3e0|   20                                          |                |                    opcode: "local.get" (0x20) 0x3e1-0x3e2 (1)
0x3e0|      02                                       |  .             |                    x: 2 (valid) 0x3e2-0x3e3 (1)
     |                                               |                |                  [3]{}: in 0x3e3-0x3e6 (3)
0x3e0|         1c                                    |   .            |                    opcode: "select" (0x1c) 0x3e3-0x3e4 (1)
     |                                               |                |                    t{}: 0x3e4-0x3e6 (2)
0x3e0|            01                                 |    .           |                      n: 1 (valid) 0x3e4-0x3e5 (1)
     |                                               |                |                      x[0:1]: 0x3e5-0x3e6 (1)
0x3e0|               7d                              |     }          |                        [0]: "f32" (0x7d) t 0x3e5-0x3e6 (1)
     |                                               |                |                  [4]{}: in 0x3e6-0x3e7 (1)
0x3e0|                  0b                           |      .         |                    opcode: "end" (0xb) 0x3e6-0x3e7 (1)
     |                                               |                |            [8]{}: code 0x3e7-0x3f3 (12)
0x3e0|                     0b                        |       .        |              size: 11 (valid) 0x3e7-0x3e8 (1)
     |                                               |                |              code{}: 0x3e8-0x3f3 (11)
     |                                               |                |                t{}: 0x3e8-0x3e9 (1)
0x3e0|                        00                     |        .       |                  n: 0 (valid) 0x3e8-0x3e9 (1)
     |                                               |                |                  x[0:0]: 0x3e9-0x3e9 (0)
     |                                               |                |                e[0:5]: 0x3e9-0x3f3 (10)
     |                                               |                |                  [0]{}: in 0x3e9-0x3eb (2)
0x3e0|                           20                  |                |                    opcode: "local.get" (0x20) 0x3e9-0x3ea (1)
0x3e0|                              00               |          .     |                    x: 0 (valid) 0x3ea-0x3eb (1)
     |                                               |                |                  [1]{}: in 0x3eb-0x3ed (2)
0x3e0|                                 20            |                |                    opcode: "local.get" (0x20) 0x3eb-0x3ec (1)
0x3e0|                                    01         |            .   |                    x: 1 (valid) 0x3ec-0x3ed (1)
     |                                               |                |                  [2]{}: in 0x3ed-0x3ef (2)
0x3e0|                                       20      |                |                    opcode: "local.get" (0x20) 0x3ed-0x3ee (1)
0x3e0|                                          02   |              . |                    x: 2 (valid) 0x3ee-0x3ef (1)
     |                                               |                |                  [3]{}: in 0x3ef-0x3f2 (3)
0x3e0|                                             1c|               .|                    opcode: "select" (0x1c) 0x3ef-0x3f0 (1)
     |                                               |                |                    t{}: 0x3f0-0x3f2 (2)
0x3f0|01                                             |.               |                      n: 1 (valid) 0x3f0-0x3f1 (1)
     |                                               |                |                      x[0:1]: 0x3f1-0x3f2 (1)
0x3f0|   7c                                          | |              |                        [0]: "f64" (0x7c) t 0x3f1-0x3f2 (1)
     |                                               |                |                  [4]{}: in 0x3f2-0x3f3 (1)
0x3f0|      0b                                       |  .             |                    opcode: "end" (0xb) 0x3f2-0x3f3 (1)
     |                                               |                |            [9]{}: code 0x3f3-0x3ff (12)
0x3f0|         0b                                    |   .            |              size: 11 (valid) 0x3f3-0x3f4 (1)
     |                                               |                |              code{}: 0x3f4-0x3ff (11)
     |                                               |                |                t{}: 0x3f4-0x3f5 (1)
0x3f0|            00                                 |    .           |                  n: 0 (valid) 0x3f4-0x3f5 (1)
     |                                               |                |                  x[0:0]: 0x3f5-0x3f5 (0)
     |                                               |                |                e[0:5]: 0x3f5-0x3ff (10)
     |                                               |                |                  [0]{}: in 0x3f5-0x3f7 (2)
0x3f0|               20                              |                |                    opcode: "local.get" (0x20) 0x3f5-0x3f6 (1)
0x3f0|                  00                           |      .         |                    x: 0 (valid) 0x3f6-0x3f7 (1)
     |                                               |                |                  [1]{}: in 0x3f7-0x3f9 (2)
0x3f0|                     20                        |                |                    opcode: "local.get" (0x20) 0x3f7-0x3f8 (1)
0x3f0|                        01                     |        .       |                    x: 1 (valid) 0x3f8-0x3f9 (1)
     |                                               |                |                  [2]{}: in 0x3f9-0x3fb (2)
0x3f0|                           20                  |                |                    opcode: "local.get" (0x20) 0x3f9-0x3fa (1)
0x3f0|                              02               |          .     |                    x: 2 (valid) 0x3fa-0x3fb (1)
     |                                               |                |                  [3]{}: in 0x3fb-0x3fe (3)
0x3f0|                                 1c            |           .    |                    opcode: "select" (0x1c) 0x3fb-0x3fc (1)
     |                                               |                |                    t{}: 0x3fc-0x3fe (2)
0x3f0|                                    01         |            .   |                      n: 1 (valid) 0x3fc-0x3fd (1)
     |                                               |                |                      x[0:1]: 0x3fd-0x3fe (1)
0x3f0|                                       70      |             p  |                        [0]: "funcref" (0x70) t 0x3fd-0x3fe (1)
     |                                               |                |                  [4]{}: in 0x3fe-0x3ff (1)
0x3f0|                                          0b   |              . |                    opcode: "end" (0xb) 0x3fe-0x3ff (1)
     |                                               |                |            [10]{}: code 0x3ff-0x40b (12)
0x3f0|                                             0b|               .|              size: 11 (valid) 0x3ff-0x400 (1)
     |                                               |                |              code{}: 0x400-0x40b (11)
     |                                               |                |                t{}: 0x400-0x401 (1)
0x400|00                                             |.               |                  n: 0 (valid) 0x400-0x401 (1)
     |                                               |                |                  x[0:0]: 0x401-0x401 (0)
     |                                               |                |                e[0:5]: 0x401-0x40b (10)
     |                                               |                |                  [0]{}: in 0x401-0x403 (2)
0x400|   20                                          |                |                    opcode: "local.get" (0x20) 0x401-0x402 (1)
0x400|      00                                       |  .             |                    x: 0 (valid) 0x402-0x403 (1)
     |                                               |                |                  [1]{}: in 0x403-0x405 (2)
0x400|         20                                    |                |                    opcode: "local.get" (0x20) 0x403-0x404 (1)
0x400|            01                                 |    .           |                    x: 1 (valid) 0x404-0x405 (1)
     |                                               |                |                  [2]{}: in 0x405-0x407 (2)
0x400|               20                              |                |                    opcode: "local.get" (0x20) 0x405-0x406 (1)
0x400|                  02                           |      .         |                    x: 2 (valid) 0x406-0x407 (1)
     |                                               |                |                  [3]{}: in 0x407-0x40a (3)
0x400|                     1c                        |       .        |                    opcode: "select" (0x1c) 0x407-0x408 (1)
     |                                               |                |                    t{}: 0x408-0x40a (2)
0x400|                        01                     |        .       |                      n: 1 (valid) 0x408-0x409 (1)
     |                                               |                |                      x[0:1]: 0x409-0x40a (1)
0x400|                           6f                  |         o      |                        [0]: "externref" (0x6f) t 0x409-0x40a (1)
     |                                               |                |                  [4]{}: in 0x40a-0x40b (1)
0x400|                              0b               |          .     |                    opcode: "end" (0xb) 0x40a-0x40b (1)
     |                                               |                |            [11]{}: code 0x40b-0x41a (15)
0x400|                                 0e            |           .    |              size: 14 (valid) 0x40b-0x40c (1)
     |                                               |                |              code{}: 0x40c-0x41a (14)
     |                                               |                |                t{}: 0x40c-0x40d (1)
0x400|                                    00         |            .   |                  n: 0 (valid) 0x40c-0x40d (1)
     |                                               |                |                  x[0:0]: 0x40d-0x40d (0)
     |                                               |                |                e[0:8]: 0x40d-0x41a (13)
     |                                               |                |                  [0]{}: in 0x40d-0x40f (2)
0x400|                                       41      |             A  |                    opcode: "i32.const" (0x41) 0x40d-0x40e (1)
0x400|                                          00   |              . |                    n: 0 (valid) 0x40e-0x40f (1)
     |                                               |                |                  [1]{}: in 0x40f-0x411 (2)
0x400|                                             41|               A|                    opcode: "i32.const" (0x41) 0x40f-0x410 (1)
0x410|01                                             |.               |                    n: 1 (valid) 0x410-0x411 (1)
     |                                               |                |                  [2]{}: in 0x411-0x413 (2)
0x410|   20                                          |                |                    opcode: "local.get" (0x20) 0x411-0x412 (1)
0x410|      00                                       |  .             |                    x: 0 (valid) 0x412-0x413 (1)
     |                                               |                |                  [3]{}: in 0x413-0x414 (1)
0x410|         1b                                    |   .            |                    opcode: "select" (0x1b) 0x413-0x414 (1)
     |                                               |                |                  [4]{}: in 0x414-0x416 (2)
0x410|            41                                 |    A           |                    opcode: "i32.const" (0x41) 0x414-0x415 (1)
0x410|               02                              |     .          |                    n: 2 (valid) 0x415-0x416 (1)
     |                                               |                |                  [5]{}: in 0x416-0x418 (2)
0x410|                  41                           |      A         |                    opcode: "i32.const" (0x41) 0x416-0x417 (1)
0x410|                     03                        |       .        |                    n: 3 (valid) 0x417-0x418 (1)
     |                                               |                |                  [6]{}: in 0x418-0x419 (1)
0x410|                        1b                     |        .       |                    opcode: "select" (0x1b) 0x418-0x419 (1)
     |                                               |                |                  [7]{}: in 0x419-0x41a (1)
0x410|                           0b                  |         .      |                    opcode: "end" (0xb) 0x419-0x41a (1)
     |                                               |                |            [12]{}: code 0x41a-0x429 (15)
0x410|                              0e               |          .     |              size: 14 (valid) 0x41a-0x41b (1)
     |                                               |                |              code{}: 0x41b-0x429 (14)
     |                                               |                |                t{}: 0x41b-0x41c (1)
0x410|                                 00            |           .    |                  n: 0 (valid) 0x41b-0x41c (1)
     |                                               |                |                  x[0:0]: 0x41c-0x41c (0)
     |                                               |                |                e[0:8]: 0x41c-0x429 (13)
     |                                               |                |                  [0]{}: in 0x41c-0x41e (2)
0x410|                                    41         |            A   |                    opcode: "i32.const" (0x41) 0x41c-0x41d (1)
0x410|                                       02      |             .  |                    n: 2 (valid) 0x41d-0x41e (1)
     |                                               |                |                  [1]{}: in 0x41e-0x420 (2)
0x410|                                          41   |              A |                    opcode: "i32.const" (0x41) 0x41e-0x41f (1)
0x410|                                             00|               .|                    n: 0 (valid) 0x41f-0x420 (1)
     |                                               |                |                  [2]{}: in 0x420-0x422 (2)
0x420|41                                             |A               |                    opcode: "i32.const" (0x41) 0x420-0x421 (1)
0x420|   01                                          | .              |                    n: 1 (valid) 0x421-0x422 (1)
     |                                               |                |                  [3]{}: in 0x422-0x424 (2)
0x420|      20                                       |                |                    opcode: "local.get" (0x20) 0x422-0x423 (1)
0x420|         00                                    |   .            |                    x: 0 (valid) 0x423-0x424 (1)
     |                                               |                |                  [4]{}: in 0x424-0x425 (1)
0x420|            1b                                 |    .           |                    opcode: "select" (0x1b) 0x424-0x425 (1)
     |                                               |                |                  [5]{}: in 0x425-0x427 (2)
0x420|               41                              |     A          |                    opcode: "i32.const" (0x41) 0x425-0x426 (1)
0x420|                  03                           |      .         |                    n: 3 (valid) 0x426-0x427 (1)
     |                                               |                |                  [6]{}: in 0x427-0x428 (1)
0x420|                     1b                        |       .        |                    opcode: "select" (0x1b) 0x427-0x428 (1)
     |                                               |                |                  [7]{}: in 0x428-0x429 (1)
0x420|                        0b                     |        .       |                    opcode: "end" (0xb) 0x428-0x429 (1)
     |                                               |                |            [13]{}: code 0x429-0x438 (15)
0x420|                           0e                  |         .      |              size: 14 (valid) 0x429-0x42a (1)
     |                                               |                |              code{}: 0x42a-0x438 (14)
     |                                               |                |                t{}: 0x42a-0x42b (1)
0x420|                              00               |          .     |                  n: 0 (valid) 0x42a-0x42b (1)
     |                                               |                |                  x[0:0]: 0x42b-0x42b (0)
     |                                               |                |                e[0:8]: 0x42b-0x438 (13)
     |                                               |                |                  [0]{}: in 0x42b-0x42d (2)
0x420|                                 41            |           A    |                    opcode: "i32.const" (0x41) 0x42b-0x42c (1)
0x420|                                    02         |            .   |                    n: 2 (valid) 0x42c-0x42d (1)
     |                                               |                |                  [1]{}: in 0x42d-0x42f (2)
0x420|                                       41      |             A  |                    opcode: "i32.const" (0x41) 0x42d-0x42e (1)
0x420|                                          03   |              . |                    n: 3 (valid) 0x42e-0x42f (1)
     |                                               |                |                  [2]{}: in 0x42f-0x431 (2)
0x420|                                             41|               A|                    opcode: "i32.const" (0x41) 0x42f-0x430 (1)
0x430|00                                             |.               |                    n: 0 (valid) 0x430-0x431 (1)
     |                                               |                |                  [3]{}: in 0x431-0x433 (2)
0x430|   41                                          | A              |                    opcode: "i32.const" (0x41) 0x431-0x432 (1)
0x430|      01                                       |  .             |                    n: 1 (valid) 0x432-0x433 (1)
     |                                               |                |                  [4]{}: in 0x433-0x435 (2)
0x430|         20                                    |                |                    opcode: "local.get" (0x20) 0x433-0x434 (1)
0x430|            00                                 |    .           |                    x: 0 (valid) 0x434-0x435 (1)
     |                                               |                |                  [5]{}: in 0x435-0x436 (1)
0x430|               1b                              |     .          |                    opcode: "select" (0x1b) 0x435-0x436 (1)
     |                                               |                |                  [6]{}: in 0x436-0x437 (1)
0x430|                  1b                           |      .         |                    opcode: "select" (0x1b) 0x436-0x437 (1)
     |                                               |                |                  [7]{}: in 0x437-0x438 (1)
0x430|                     0b                        |       .        |                    opcode: "end" (0xb) 0x437-0x438 (1)
     |                                               |                |            [14]{}: code 0x438-0x449 (17)
0x430|                        10                     |        .       |              size: 16 (valid) 0x438-0x439 (1)
     |                                               |                |              code{}: 0x439-0x449 (16)
     |                                               |                |                t{}: 0x439-0x43a (1)
0x430|                           00                  |         .      |                  n: 0 (valid) 0x439-0x43a (1)
     |                                               |                |                  x[0:0]: 0x43a-0x43a (0)
     |                                               |                |                e[0:2]: 0x43a-0x449 (15)
     |                                               |                |                  [0]{}: in 0x43a-0x448 (14)
0x430|                              03               |          .     |                    opcode: "loop" (0x3) 0x43a-0x43b (1)
0x430|                                 7f            |           .    |                    bt: "i32" (127) 0x43b-0x43c (1)
     |                                               |                |                    instructions[0:6]: 0x43c-0x447 (11)
     |                                               |                |                      [0]{}: instr 0x43c-0x43e (2)
0x430|                                    41         |            A   |                        opcode: "i32.const" (0x41) 0x43c-0x43d (1)
0x430|                                       02      |             .  |                        n: 2 (valid) 0x43d-0x43e (1)
     |                                               |                |                      [1]{}: instr 0x43e-0x440 (2)
0x430|                                          41   |              A |                        opcode: "i32.const" (0x41) 0x43e-0x43f (1)
0x430|                                             03|               .|                        n: 3 (valid) 0x43f-0x440 (1)
     |                                               |                |                      [2]{}: instr 0x440-0x442 (2)
0x440|20                                             |                |                        opcode: "local.get" (0x20) 0x440-0x441 (1)
0x440|   00                                          | .              |                        x: 0 (valid) 0x441-0x442 (1)
     |                                               |                |                      [3]{}: instr 0x442-0x443 (1)
0x440|      1b                                       |  .             |                        opcode: "select" (0x1b) 0x442-0x443 (1)
     |                                               |                |                      [4]{}: instr 0x443-0x445 (2)
0x440|         10                                    |   .            |                        opcode: "call" (0x10) 0x443-0x444 (1)
0x440|            00                                 |    .           |                        x: 0 (valid) 0x444-0x445 (1)
     |                                               |                |                      [5]{}: instr 0x445-0x447 (2)
0x440|               10                              |     .          |                        opcode: "call" (0x10) 0x445-0x446 (1)
0x440|                  00                           |      .         |                        x: 0 (valid) 0x446-0x447 (1)
0x440|                     0b                        |       .        |                    end: 0xb (valid) 0x447-0x448 (1)
     |                                               |                |                  [1]{}: in 0x448-0x449 (1)
0x440|                        0b                     |        .       |                    opcode: "end" (0xb) 0x448-0x449 (1)
     |                                               |                |            [15]{}: code 0x449-0x45a (17)
0x440|                           10                  |         .      |              size: 16 (valid) 0x449-0x44a (1)
     |                                               |                |              code{}: 0x44a-0x45a (16)
     |                                               |                |                t{}: 0x44a-0x44b (1)
0x440|                              00               |          .     |                  n: 0 (valid) 0x44a-0x44b (1)
     |                                               |                |                  x[0:0]: 0x44b-0x44b (0)
     |                                               |                |                e[0:2]: 0x44b-0x45a (15)
     |                                               |                |                  [0]{}: in 0x44b-0x459 (14)
0x440|                                 03            |           .    |                    opcode: "loop" (0x3) 0x44b-0x44c (1)
0x440|                                    7f         |            .   |                    bt: "i32" (127) 0x44c-0x44d (1)
     |                                               |                |                    instructions[0:6]: 0x44d-0x458 (11)
     |                                               |                |                      [0]{}: instr 0x44d-0x44f (2)
0x440|                                       10      |             .  |                        opcode: "call" (0x10) 0x44d-0x44e (1)
0x440|                                          00   |              . |                        x: 0 (valid) 0x44e-0x44f (1)
     |                                               |                |                      [1]{}: instr 0x44f-0x451 (2)
0x440|                                             41|               A|                        opcode: "i32.const" (0x41) 0x44f-0x450 (1)
0x450|02                                             |.               |                        n: 2 (valid) 0x450-0x451 (1)
     |                                               |                |                      [2]{}: instr 0x451-0x453 (2)
0x450|   41                                          | A              |                        opcode: "i32.const" (0x41) 0x451-0x452 (1)
0x450|      03                                       |  .             |                        n: 3 (valid) 0x452-0x453 (1)
     |                                               |                |                      [3]{}: instr 0x453-0x455 (2)
0x450|         20                                    |                |                        opcode: "local.get" (0x20) 0x453-0x454 (1)
0x450|            00                                 |    .           |                        x: 0 (valid) 0x454-0x455 (1)
     |                                               |                |                      [4]{}: instr 0x455-0x456 (1)
0x450|               1b                              |     .          |                        opcode: "select" (0x1b) 0x455-0x456 (1)
     |                                               |                |                      [5]{}: instr 0x456-0x458 (2)
0x450|                  10                           |      .         |                        opcode: "call" (0x10) 0x456-0x457 (1)
0x450|                     00                        |       .        |                        x: 0 (valid) 0x457-0x458 (1)
0x450|                        0b                     |        .       |                    end: 0xb (valid) 0x458-0x459 (1)
     |                                               |                |                  [1]{}: in 0x459-0x45a (1)
0x450|                           0b                  |         .      |                    opcode: "end" (0xb) 0x459-0x45a (1)
     |                                               |                |            [16]{}: code 0x45a-0x46b (17)
0x450|                              10               |          .     |              size: 16 (valid) 0x45a-0x45b (1)
     |                                               |                |              code{}: 0x45b-0x46b (16)
     |                                               |                |                t{}: 0x45b-0x45c (1)
0x450|                                 00            |           .    |                  n: 0 (valid) 0x45b-0x45c (1)
     |                                               |                |                  x[0:0]: 0x45c-0x45c (0)
     |                                               |                |                e[0:2]: 0x45c-0x46b (15)
     |                                               |                |                  [0]{}: in 0x45c-0x46a (14)
0x450|                                    03         |            .   |                    opcode: "loop" (0x3) 0x45c-0x45d (1)
0x450|                                       7f      |             .  |                    bt: "i32" (127) 0x45d-0x45e (1)
     |                                               |                |                    instructions[0:6]: 0x45e-0x469 (11)
     |                                               |                |                      [0]{}: instr 0x45e-0x460 (2)
0x450|                                          10   |              . |                        opcode: "call" (0x10) 0x45e-0x45f (1)
0x450|                                             00|               .|                        x: 0 (valid) 0x45f-0x460 (1)
     |                                               |                |                      [1]{}: instr 0x460-0x462 (2)
0x460|10                                             |.               |                        opcode: "call" (0x10) 0x460-0x461 (1)
0x460|   00                                          | .              |                        x: 0 (valid) 0x461-0x462 (1)
     |                                               |                |                      [2]{}: instr 0x462-0x464 (2)
0x460|      41                                       |  A             |                        opcode: "i32.const" (0x41) 0x462-0x463 (1)
0x460|         02                                    |   .            |                        n: 2 (valid) 0x463-0x464 (1)
     |                                               |                |                      [3]{}: instr 0x464-0x466 (2)
0x460|            41                                 |    A           |                        opcode: "i32.const" (0x41) 0x464-0x465 (1)
0x460|               03                              |     .          |                        n: 3 (valid) 0x465-0x466 (1)
     |                                               |                |                      [4]{}: instr 0x466-0x468 (2)
0x460|                  20                           |                |                        opcode: "local.get" (0x20) 0x466-0x467 (1)
0x460|                     00                        |       .        |                        x: 0 (valid) 0x467-0x468 (1)
     |                                               |                |                      [5]{}: instr 0x468-0x469 (1)
0x460|                        1b                     |        .       |                        opcode: "select" (0x1b) 0x468-0x469 (1)
0x460|                           0b                  |         .      |                    end: 0xb (valid) 0x469-0x46a (1)
     |                                               |                |                  [1]{}: in 0x46a-0x46b (1)
0x460|                              0b               |          .     |                    opcode: "end" (0xb) 0x46a-0x46b (1)
     |                                               |                |            [17]{}: code 0x46b-0x47a (15)
0x460|                                 0e            |           .    |              size: 14 (valid) 0x46b-0x46c (1)
     |                                               |                |              code{}: 0x46c-0x47a (14)
     |                                               |                |                t{}: 0x46c-0x46d (1)
0x460|                                    00         |            .   |                  n: 0 (valid) 0x46c-0x46d (1)
     |                                               |                |                  x[0:0]: 0x46d-0x46d (0)
     |                                               |                |                e[0:6]: 0x46d-0x47a (13)
     |                                               |                |                  [0]{}: in 0x46d-0x46f (2)
0x460|                                       41      |             A  |                    opcode: "i32.const" (0x41) 0x46d-0x46e (1)
0x460|                                          02   |              . |                    n: 2 (valid) 0x46e-0x46f (1)
     |                                               |                |                  [1]{}: in 0x46f-0x471 (2)
0x460|                                             41|               A|                    opcode: "i32.const" (0x41) 0x46f-0x470 (1)
0x470|03                                             |.               |                    n: 3 (valid) 0x470-0x471 (1)
     |                                               |                |                  [2]{}: in 0x471-0x473 (2)
0x470|   20                                          |                |                    opcode: "local.get" (0x20) 0x471-0x472 (1)
0x470|      00                                       |  .             |                    x: 0 (valid) 0x472-0x473 (1)
     |                                               |                |                  [3]{}: in 0x473-0x474 (1)
0x470|         1b                                    |   .            |                    opcode: "select" (0x1b) 0x473-0x474 (1)
     |                                               |                |                  [4]{}: in 0x474-0x479 (5)
0x470|            04                                 |    .           |                    opcode: "if" (0x4) 0x474-0x475 (1)
0x470|               40                              |     @          |                    bt: "ε" (64) 0x475-0x476 (1)
     |                                               |                |                    in1[0:1]: 0x476-0x478 (2)
     |                                               |                |                      [0]{}: instr 0x476-0x478 (2)
0x470|                  10                           |      .         |                        opcode: "call" (0x10) 0x476-0x477 (1)
0x470|                     00                        |       .        |                        x: 0 (valid) 0x477-0x478 (1)
0x470|                        0b                     |        .       |                    end: 0xb (valid) 0x478-0x479 (1)
     |                                               |                |                  [5]{}: in 0x479-0x47a (1)
0x470|                           0b                  |         .      |                    opcode: "end" (0xb) 0x479-0x47a (1)
     |                                               |                |            [18]{}: code 0x47a-0x48c (18)
0x470|                              11               |          .     |              size: 17 (valid) 0x47a-0x47b (1)
     |                                               |                |              code{}: 0x47b-0x48c (17)
     |                                               |                |                t{}: 0x47b-0x47c (1)
0x470|                                 00            |           .    |                  n: 0 (valid) 0x47b-0x47c (1)
     |                                               |                |                  x[0:0]: 0x47c-0x47c (0)
     |                                               |                |                e[0:3]: 0x47c-0x48c (16)
     |                                               |                |                  [0]{}: in 0x47c-0x47e (2)
0x470|                                    41         |            A   |                    opcode: "i32.const" (0x41) 0x47c-0x47d (1)
0x470|                                       01      |             .  |                    n: 1 (valid) 0x47d-0x47e (1)
     |                                               |                |                  [1]{}: in 0x47e-0x48b (13)
0x470|                                          04   |              . |                    opcode: "if" (0x4) 0x47e-0x47f (1)
0x470|                                             7f|               .|                    bt: "i32" (127) 0x47f-0x480 (1)
     |                                               |                |                    in1[0:4]: 0x480-0x487 (7)
     |                                               |                |                      [0]{}: instr 0x480-0x482 (2)
0x480|41                                             |A               |                        opcode: "i32.const" (0x41) 0x480-0x481 (1)
0x480|   02                                          | .              |                        n: 2 (valid) 0x481-0x482 (1)
     |                                               |                |                      [1]{}: instr 0x482-0x484 (2)
0x480|      41                                       |  A             |                        opcode: "i32.const" (0x41) 0x482-0x483 (1)
0x480|         03                                    |   .            |                        n: 3 (valid) 0x483-0x484 (1)
     |                                               |                |                      [2]{}: instr 0x484-0x486 (2)
0x480|            20                                 |                |                        opcode: "local.get" (0x20) 0x484-0x485 (1)
0x480|               00                              |     .          |                        x: 0 (valid) 0x485-0x486 (1)
     |                                               |                |                      [3]{}: instr 0x486-0x487 (1)
0x480|                  1b                           |      .         |                        opcode: "select" (0x1b) 0x486-0x487 (1)
0x480|                     05                        |       .        |                    else: 0x5 (valid) 0x487-0x488 (1)
     |                                               |                |                    in2[0:1]: 0x488-0x48a (2)
     |                                               |                |                      [0]{}: instr 0x488-0x48a (2)
0x480|                        41                     |        A       |                        opcode: "i32.const" (0x41) 0x488-0x489 (1)
0x480|                           04                  |         .      |                        n: 4 (valid) 0x489-0x48a (1)
0x480|                              0b               |          .     |                    end: 0xb (valid) 0x48a-0x48b (1)
     |                                               |                |                  [2]{}: in 0x48b-0x48c (1)
0x480|                                 0b            |           .    |                    opcode: "end" (0xb) 0x48b-0x48c (1)
     |                                               |                |            [19]{}: code 0x48c-0x49e (18)
0x480|                                    11         |            .   |              size: 17 (valid) 0x48c-0x48d (1)
     |                                               |                |              code{}: 0x48d-0x49e (17)
     |                                               |                |                t{}: 0x48d-0x48e (1)
0x480|                                       00      |             .  |                  n: 0 (valid) 0x48d-0x48e (1)
     |                                               |                |                  x[0:0]: 0x48e-0x48e (0)
     |                                               |                |                e[0:3]: 0x48e-0x49e (16)
     |                                               |                |                  [0]{}: in 0x48e-0x490 (2)
0x480|                                          41   |              A |                    opcode: "i32.const" (0x41) 0x48e-0x48f (1)
0x480|                                             00|               .|                    n: 0 (valid) 0x48f-0x490 (1)
     |                                               |                |                  [1]{}: in 0x490-0x49d (13)
0x490|04                                             |.               |                    opcode: "if" (0x4) 0x490-0x491 (1)
0x490|   7f                                          | .              |                    bt: "i32" (127) 0x491-0x492 (1)
     |                                               |                |                    in1[0:1]: 0x492-0x494 (2)
     |                                               |                |                      [0]{}: instr 0x492-0x494 (2)
0x490|      41                                       |  A             |                        opcode: "i32.const" (0x41) 0x492-0x493 (1)
0x490|         02                                    |   .            |                        n: 2 (valid) 0x493-0x494 (1)
0x490|            05                                 |    .           |                    else: 0x5 (valid) 0x494-0x495 (1)
     |                                               |                |                    in2[0:4]: 0x495-0x49c (7)
     |                                               |                |                      [0]{}: instr 0x495-0x497 (2)
0x490|               41                              |     A          |                        opcode: "i32.const" (0x41) 0x495-0x496 (1)
0x490|                  02                           |      .         |                        n: 2 (valid) 0x496-0x497 (1)
     |                                               |                |                      [1]{}: instr 0x497-0x499 (2)
0x490|                     41                        |       A        |                        opcode: "i32.const" (0x41) 0x497-0x498 (1)
0x490|                        03                     |        .       |                        n: 3 (valid) 0x498-0x499 (1)
     |                                               |                |                      [2]{}: instr 0x499-0x49b (2)
0x490|                           20                  |                |                        opcode: "local.get" (0x20) 0x499-0x49a (1)
0x490|                              00               |          .     |                        x: 0 (valid) 0x49a-0x49b (1)
     |                                               |                |                      [3]{}: instr 0x49b-0x49c (1)
0x490|                                 1b            |           .    |                        opcode: "select" (0x1b) 0x49b-0x49c (1)
0x490|                                    0b         |            .   |                    end: 0xb (valid) 0x49c-0x49d (1)
     |                                               |                |                  [2]{}: in 0x49d-0x49e (1)
0x490|                                       0b      |             .  |                    opcode: "end" (0xb) 0x49d-0x49e (1)
     |                                               |                |            [20]{}: code 0x49e-0x4af (17)
0x490|                                          10   |              . |              size: 16 (valid) 0x49e-0x49f (1)
     |                                               |                |              code{}: 0x49f-0x4af (16)
     |                                               |                |                t{}: 0x49f-0x4a0 (1)
0x490|                                             00|               .|                  n: 0 (valid) 0x49f-0x4a0 (1)
     |                                               |                |                  x[0:0]: 0x4a0-0x4a0 (0)
     |                                               |                |                e[0:2]: 0x4a0-0x4af (15)
     |                                               |                |                  [0]{}: in 0x4a0-0x4ae (14)
0x4a0|02                                             |.               |                    opcode: "block" (0x2) 0x4a0-0x4a1 (1)
0x4a0|   7f                                          | .              |                    bt: "i32" (127) 0x4a1-0x4a2 (1)
     |                                               |                |                    instructions[0:6]: 0x4a2-0x4ad (11)
     |                                               |                |                      [0]{}: instr 0x4a2-0x4a4 (2)
0x4a0|      41                                       |  A             |                        opcode: "i32.const" (0x41) 0x4a2-0x4a3 (1)
0x4a0|         02                                    |   .            |                        n: 2 (valid) 0x4a3-0x4a4 (1)
     |                                               |                |                      [1]{}: instr 0x4a4-0x4a6 (2)
0x4a0|            41                                 |    A           |                        opcode: "i32.const" (0x41) 0x4a4-0x4a5 (1)
0x4a0|               03                              |     .          |                        n: 3 (valid) 0x4a5-0x4a6 (1)
     |                                               |                |                      [2]{}: instr 0x4a6-0x4a8 (2)
0x4a0|                  20                           |                |                        opcode: "local.get" (0x20) 0x4a6-0x4a7 (1)
0x4a0|                     00                        |       .        |                        x: 0 (valid) 0x4a7-0x4a8 (1)
     |                                               |                |                      [3]{}: instr 0x4a8-0x4a9 (1)
0x4a0|                        1b                     |        .       |                        opcode: "select" (0x1b) 0x4a8-0x4a9 (1)
     |                                               |                |                      [4]{}: instr 0x4a9-0x4ab (2)
0x4a0|                           41                  |         A      |                        opcode: "i32.const" (0x41) 0x4a9-0x4aa (1)
0x4a0|                              04               |          .     |                        n: 4 (valid) 0x4aa-0x4ab (1)
     |                                               |                |                      [5]{}: instr 0x4ab-0x4ad (2)
0x4a0|                                 0d            |           .    |                        opcode: "br_if" (0xd) 0x4ab-0x4ac (1)
0x4a0|                                    00         |            .   |                        l: 0 (valid) 0x4ac-0x4ad (1)
0x4a0|                                       0b      |             .  |                    end: 0xb (valid) 0x4ad-0x4ae (1)
     |                                               |                |                  [1]{}: in 0x4ae-0x4af (1)
0x4a0|                                          0b   |              . |                    opcode: "end" (0xb) 0x4ae-0x4af (1)
     |                                               |                |            [21]{}: code 0x4af-0x4c0 (17)
0x4a0|                                             10|               .|              size: 16 (valid) 0x4af-0x4b0 (1)
     |                                               |                |              code{}: 0x4b0-0x4c0 (16)
     |                                               |                |                t{}: 0x4b0-0x4b1 (1)
0x4b0|00                                             |.               |                  n: 0 (valid) 0x4b0-0x4b1 (1)
     |                                               |                |                  x[0:0]: 0x4b1-0x4b1 (0)
     |                                               |                |                e[0:2]: 0x4b1-0x4c0 (15)
     |                                               |                |                  [0]{}: in 0x4b1-0x4bf (14)
0x4b0|   02                                          | .              |                    opcode: "block" (0x2) 0x4b1-0x4b2 (1)
0x4b0|      7f                                       |  .             |                    bt: "i32" (127) 0x4b2-0x4b3 (1)
     |                                               |                |                    instructions[0:6]: 0x4b3-0x4be (11)
     |                                               |                |                      [0]{}: instr 0x4b3-0x4b5 (2)
0x4b0|         41                                    |   A            |                        opcode: "i32.const" (0x41) 0x4b3-0x4b4 (1)
0x4b0|            02                                 |    .           |                        n: 2 (valid) 0x4b4-0x4b5 (1)
     |                                               |                |                      [1]{}: instr 0x4b5-0x4b7 (2)
0x4b0|               41                              |     A          |                        opcode: "i32.const" (0x41) 0x4b5-0x4b6 (1)
0x4b0|                  02                           |      .         |                        n: 2 (valid) 0x4b6-0x4b7 (1)
     |                                               |                |                      [2]{}: instr 0x4b7-0x4b9 (2)
0x4b0|                     41                        |       A        |                        opcode: "i32.const" (0x41) 0x4b7-0x4b8 (1)
0x4b0|                        03                     |        .       |                        n: 3 (valid) 0x4b8-0x4b9 (1)
     |                                               |                |                      [3]{}: instr 0x4b9-0x4bb (2)
0x4b0|                           20                  |                |                        opcode: "local.get" (0x20) 0x4b9-0x4ba (1)
0x4b0|                              00               |          .     |                        x: 0 (valid) 0x4ba-0x4bb (1)
     |                                               |                |                      [4]{}: instr 0x4bb-0x4bc (1)
0x4b0|                                 1b            |           .    |                        opcode: "select" (0x1b) 0x4bb-0x4bc (1)
     |                                               |                |                      [5]{}: instr 0x4bc-0x4be (2)
0x4b0|                                    0d         |            .   |                        opcode: "br_if" (0xd) 0x4bc-0x4bd (1)
0x4b0|                                       00      |             .  |                        l: 0 (valid) 0x4bd-0x4be (1)
0x4b0|                                          0b   |              . |                    end: 0xb (valid) 0x4be-0x4bf (1)
     |                                               |                |                  [1]{}: in 0x4bf-0x4c0 (1)
0x4b0|                                             0b|               .|                    opcode: "end" (0xb) 0x4bf-0x4c0 (1)
     |                                               |                |            [22]{}: code 0x4c0-0x4d3 (19)
0x4c0|12                                             |.               |              size: 18 (valid) 0x4c0-0x4c1 (1)
     |                                               |                |              code{}: 0x4c1-0x4d3 (18)
     |                                               |                |                t{}: 0x4c1-0x4c2 (1)
0x4c0|   00                                          | .              |                  n: 0 (valid) 0x4c1-0x4c2 (1)
     |                                               |                |                  x[0:0]: 0x4c2-0x4c2 (0)
     |                                               |                |                e[0:2]: 0x4c2-0x4d3 (17)
     |                                               |                |                  [0]{}: in 0x4c2-0x4d2 (16)
0x4c0|      02                                       |  .             |                    opcode: "block" (0x2) 0x4c2-0x4c3 (1)
0x4c0|         7f                                    |   .            |                    bt: "i32" (127) 0x4c3-0x4c4 (1)
     |                                               |                |                    instructions[0:6]: 0x4c4-0x4d1 (13)
     |                                               |                |                      [0]{}: instr 0x4c4-0x4c6 (2)
0x4c0|            41                                 |    A           |                        opcode: "i32.const" (0x41) 0x4c4-0x4c5 (1)
0x4c0|               02                              |     .          |                        n: 2 (valid) 0x4c5-0x4c6 (1)
     |                                               |                |                      [1]{}: instr 0x4c6-0x4c8 (2)
0x4c0|                  41                           |      A         |                        opcode: "i32.const" (0x41) 0x4c6-0x4c7 (1)
0x4c0|                     03                        |       .        |                        n: 3 (valid) 0x4c7-0x4c8 (1)
     |                                               |                |                      [2]{}: instr 0x4c8-0x4ca (2)
0x4c0|                        20                     |                |                        opcode: "local.get" (0x20) 0x4c8-0x4c9 (1)
0x4c0|                           00                  |         .      |                        x: 0 (valid) 0x4c9-0x4ca (1)
     |                                               |                |                      [3]{}: instr 0x4ca-0x4cb (1)
0x4c0|                              1b               |          .     |                        opcode: "select" (0x1b) 0x4ca-0x4cb (1)
     |                                               |                |                      [4]{}: instr 0x4cb-0x4cd (2)
0x4c0|                                 41            |           A    |                        opcode: "i32.const" (0x41) 0x4cb-0x4cc (1)
0x4c0|                                    02         |            .   |                        n: 2 (valid) 0x4cc-0x4cd (1)
     |                                               |                |                      [5]{}: instr 0x4cd-0x4d1 (4)
0x4c0|                                       0e      |             .  |                        opcode: "br_table" (0xe) 0x4cd-0x4ce (1)
     |                                               |                |                        l{}: 0x4ce-0x4d0 (2)
0x4c0|                                          01   |              . |                          n: 1 (valid) 0x4ce-0x4cf (1)
     |                                               |                |                          x[0:1]: 0x4cf-0x4d0 (1)
0x4c0|                                             00|               .|                            [0]: 0 l (valid) 0x4cf-0x4d0 (1)
0x4d0|00                                             |.               |                        lN: 0 (valid) 0x4d0-0x4d1 (1)
0x4d0|   0b                                          | .              |                    end: 0xb (valid) 0x4d1-0x4d2 (1)
     |                                               |                |                  [1]{}: in 0x4d2-0x4d3 (1)
0x4d0|      0b                                       |  .             |                    opcode: "end" (0xb) 0x4d2-0x4d3 (1)
     |                                               |                |            [23]{}: code 0x4d3-0x4e6 (19)
0x4d0|         12                                    |   .            |              size: 18 (valid) 0x4d3-0x4d4 (1)
     |                                               |                |              code{}: 0x4d4-0x4e6 (18)
     |                                               |                |                t{}: 0x4d4-0x4d5 (1)
0x4d0|            00                                 |    .           |                  n: 0 (valid) 0x4d4-0x4d5 (1)
     |                                               |                |                  x[0:0]: 0x4d5-0x4d5 (0)
     |                                               |                |                e[0:2]: 0x4d5-0x4e6 (17)
     |                                               |                |                  [0]{}: in 0x4d5-0x4e5 (16)
0x4d0|               02                              |     .          |                    opcode: "block" (0x2) 0x4d5-0x4d6 (1)
0x4d0|                  7f                           |      .         |                    bt: "i32" (127) 0x4d6-0x4d7 (1)
     |                                               |                |                    instructions[0:6]: 0x4d7-0x4e4 (13)
     |                                               |                |                      [0]{}: instr 0x4d7-0x4d9 (2)
0x4d0|                     41                        |       A        |                        opcode: "i32.const" (0x41) 0x4d7-0x4d8 (1)
0x4d0|                        02                     |        .       |                        n: 2 (valid) 0x4d8-0x4d9 (1)
     |                                               |                |                      [1]{}: instr 0x4d9-0x4db (2)
0x4d0|                           41                  |         A      |                        opcode: "i32.const" (0x41) 0x4d9-0x4da (1)
0x4d0|                              02               |          .     |                        n: 2 (valid) 0x4da-0x4db (1)
     |                                               |                |                      [2]{}: instr 0x4db-0x4dd (2)
0x4d0|                                 41            |           A    |                        opcode: "i32.const" (0x41) 0x4db-0x4dc (1)
0x4d0|                                    03         |            .   |                        n: 3 (valid) 0x4dc-0x4dd (1)
     |                                               |                |                      [3]{}: instr 0x4dd-0x4df (2)
0x4d0|                                       20      |                |                        opcode: "local.get" (0x20) 0x4dd-0x4de (1)
0x4d0|                                          00   |              . |                        x: 0 (valid) 0x4de-0x4df (1)
     |                                               |                |                      [4]{}: instr 0x4df-0x4e0 (1)
0x4d0|                                             1b|               .|                        opcode: "select" (0x1b) 0x4df-0x4e0 (1)
     |                                               |                |                      [5]{}: instr 0x4e0-0x4e4 (4)
0x4e0|0e                                             |.               |                        opcode: "br_table" (0xe) 0x4e0-0x4e1 (1)
     |                                               |                |                        l{}: 0x4e1-0x4e3 (2)
0x4e0|   01                                          | .              |                          n: 1 (valid) 0x4e1-0x4e2 (1)
     |                                               |                |                          x[0:1]: 0x4e2-0x4e3 (1)
0x4e0|      00                                       |  .             |                            [0]: 0 l (valid) 0x4e2-0x4e3 (1)
0x4e0|         00                                    |   .            |                        lN: 0 (valid) 0x4e3-0x4e4 (1)
0x4e0|            0b                                 |    .           |                    end: 0xb (valid) 0x4e4-0x4e5 (1)
     |                                               |                |                  [1]{}: in 0x4e5-0x4e6 (1)
0x4e0|               0b                              |     .          |                    opcode: "end" (0xb) 0x4e5-0x4e6 (1)
     |                                               |                |            [24]{}: code 0x4e6-0x4eb (5)
0x4e0|                  04                           |      .         |              size: 4 (valid) 0x4e6-0x4e7 (1)
     |                                               |                |              code{}: 0x4e7-0x4eb (4)
     |                                               |                |                t{}: 0x4e7-0x4e8 (1)
0x4e0|                     00                        |       .        |                  n: 0 (valid) 0x4e7-0x4e8 (1)
     |                                               |                |                  x[0:0]: 0x4e8-0x4e8 (0)
     |                                               |                |                e[0:2]: 0x4e8-0x4eb (3)
     |                                               |                |                  [0]{}: in 0x4e8-0x4ea (2)
0x4e0|                        20                     |                |                    opcode: "local.get" (0x20) 0x4e8-0x4e9 (1)
0x4e0|                           00                  |         .      |                    x: 0 (valid) 0x4e9-0x4ea (1)
     |                                               |                |                  [1]{}: in 0x4ea-0x4eb (1)
0x4e0|                              0b               |          .     |                    opcode: "end" (0xb) 0x4ea-0x4eb (1)
     |                                               |                |            [25]{}: code 0x4eb-0x4ff (20)
0x4e0|                                 13            |           .    |              size: 19 (valid) 0x4eb-0x4ec (1)
     |                                               |                |              code{}: 0x4ec-0x4ff (19)
     |                                               |                |                t{}: 0x4ec-0x4ed (1)
0x4e0|                                    00         |            .   |                  n: 0 (valid) 0x4ec-0x4ed (1)
     |                                               |                |                  x[0:0]: 0x4ed-0x4ed (0)
     |                                               |                |                e[0:2]: 0x4ed-0x4ff (18)
     |                                               |                |                  [0]{}: in 0x4ed-0x4fe (17)
0x4e0|                                       02      |             .  |                    opcode: "block" (0x2) 0x4ed-0x4ee (1)
0x4e0|                                          7f   |              . |                    bt: "i32" (127) 0x4ee-0x4ef (1)
     |                                               |                |                    instructions[0:7]: 0x4ef-0x4fd (14)
     |                                               |                |                      [0]{}: instr 0x4ef-0x4f1 (2)
0x4e0|                                             41|               A|                        opcode: "i32.const" (0x41) 0x4ef-0x4f0 (1)
0x4f0|02                                             |.               |                        n: 2 (valid) 0x4f0-0x4f1 (1)
     |                                               |                |                      [1]{}: instr 0x4f1-0x4f3 (2)
0x4f0|   41                                          | A              |                        opcode: "i32.const" (0x41) 0x4f1-0x4f2 (1)
0x4f0|      03                                       |  .             |                        n: 3 (valid) 0x4f2-0x4f3 (1)
     |                                               |                |                      [2]{}: instr 0x4f3-0x4f5 (2)
0x4f0|         20                                    |                |                        opcode: "local.get" (0x20) 0x4f3-0x4f4 (1)
0x4f0|            00                                 |    .           |                        x: 0 (valid) 0x4f4-0x4f5 (1)
     |                                               |                |                      [3]{}: instr 0x4f5-0x4f6 (1)
0x4f0|               1b                              |     .          |                        opcode: "select" (0x1b) 0x4f5-0x4f6 (1)
     |                                               |                |                      [4]{}: instr 0x4f6-0x4f8 (2)
0x4f0|                  41                           |      A         |                        opcode: "i32.const" (0x41) 0x4f6-0x4f7 (1)
0x4f0|                     01                        |       .        |                        n: 1 (valid) 0x4f7-0x4f8 (1)
     |                                               |                |                      [5]{}: instr 0x4f8-0x4fa (2)
0x4f0|                        41                     |        A       |                        opcode: "i32.const" (0x41) 0x4f8-0x4f9 (1)
0x4f0|                           00                  |         .      |                        n: 0 (valid) 0x4f9-0x4fa (1)
     |                                               |                |                      [6]{}: instr 0x4fa-0x4fd (3)
0x4f0|                              11               |          .     |                        opcode: "call_indirect" (0x11) 0x4fa-0x4fb (1)
0x4f0|                                 00            |           .    |                        y: 0 (valid) 0x4fb-0x4fc (1)
0x4f0|                                    01         |            .   |                        x: 1 (valid) 0x4fc-0x4fd (1)
0x4f0|                                       0b      |             .  |                    end: 0xb (valid) 0x4fd-0x4fe (1)
     |                                               |                |                  [1]{}: in 0x4fe-0x4ff (1)
0x4f0|                                          0b   |              . |                    opcode: "end" (0xb) 0x4fe-0x4ff (1)
     |                                               |                |            [26]{}: code 0x4ff-0x513 (20)
0x4f0|                                             13|               .|              size: 19 (valid) 0x4ff-0x500 (1)
     |                                               |                |              code{}: 0x500-0x513 (19)
     |                                               |                |                t{}: 0x500-0x501 (1)
0x500|00                                             |.               |                  n: 0 (valid) 0x500-0x501 (1)
     |                                               |                |                  x[0:0]: 0x501-0x501 (0)
     |                                               |                |                e[0:2]: 0x501-0x513 (18)
     |                                               |                |                  [0]{}: in 0x501-0x512 (17)
0x500|   02                                          | .              |                    opcode: "block" (0x2) 0x501-0x502 (1)
0x500|      7f                                       |  .             |                    bt: "i32" (127) 0x502-0x503 (1)
     |                                               |                |                    instructions[0:7]: 0x503-0x511 (14)
     |                                               |                |                      [0]{}: instr 0x503-0x505 (2)
0x500|         41                                    |   A            |                        opcode: "i32.const" (0x41) 0x503-0x504 (1)
0x500|            01                                 |    .           |                        n: 1 (valid) 0x504-0x505 (1)
     |                                               |                |                      [1]{}: instr 0x505-0x507 (2)
0x500|               41                              |     A          |                        opcode: "i32.const" (0x41) 0x505-0x506 (1)
0x500|                  02                           |      .         |                        n: 2 (valid) 0x506-0x507 (1)
     |                                               |                |                      [2]{}: instr 0x507-0x509 (2)
0x500|                     41                        |       A        |                        opcode: "i32.const" (0x41) 0x507-0x508 (1)
0x500|                        03                     |        .       |                        n: 3 (valid) 0x508-0x509 (1)
     |                                               |                |                      [3]{}: instr 0x509-0x50b (2)
0x500|                           20                  |                |                        opcode: "local.get" (0x20) 0x509-0x50a (1)
0x500|                              00               |          .     |                        x: 0 (valid) 0x50a-0x50b (1)
     |                                               |                |                      [4]{}: instr 0x50b-0x50c (1)
0x500|                                 1b            |           .    |                        opcode: "select" (0x1b) 0x50b-0x50c (1)
     |                                               |                |                      [5]{}: instr 0x50c-0x50e (2)
0x500|                                    41         |            A   |                        opcode: "i32.const" (0x41) 0x50c-0x50d (1)
0x500|                                       00      |             .  |                        n: 0 (valid) 0x50d-0x50e (1)
     |                                               |                |                      [6]{}: instr 0x50e-0x511 (3)
0x500|                                          11   |              . |                        opcode: "call_indirect" (0x11) 0x50e-0x50f (1)
0x500|                                             00|               .|                        y: 0 (valid) 0x50f-0x510 (1)
0x510|01                                             |.               |                        x: 1 (valid) 0x510-0x511 (1)
0x510|   0b                                          | .              |                    end: 0xb (valid) 0x511-0x512 (1)
     |                                               |                |                  [1]{}: in 0x512-0x513 (1)
0x510|      0b                                       |  .             |                    opcode: "end" (0xb) 0x512-0x513 (1)
     |                                               |                |            [27]{}: code 0x513-0x527 (20)
0x510|         13                                    |   .            |              size: 19 (valid) 0x513-0x514 (1)
     |                                               |                |              code{}: 0x514-0x527 (19)
     |                                               |                |                t{}: 0x514-0x515 (1)
0x510|            00                                 |    .           |                  n: 0 (valid) 0x514-0x515 (1)
     |                                               |                |                  x[0:0]: 0x515-0x515 (0)
     |                                               |                |                e[0:2]: 0x515-0x527 (18)
     |                                               |                |                  [0]{}: in 0x515-0x526 (17)
0x510|               02                              |     .          |                    opcode: "block" (0x2) 0x515-0x516 (1)
0x510|                  7f                           |      .         |                    bt: "i32" (127) 0x516-0x517 (1)
     |                                               |                |                    instructions[0:7]: 0x517-0x525 (14)
     |                                               |                |                      [0]{}: instr 0x517-0x519 (2)
0x510|                     41                        |       A        |                        opcode: "i32.const" (0x41) 0x517-0x518 (1)
0x510|                        01                     |        .       |                        n: 1 (valid) 0x518-0x519 (1)
     |                                               |                |                      [1]{}: instr 0x519-0x51b (2)
0x510|                           41                  |         A      |                        opcode: "i32.const" (0x41) 0x519-0x51a (1)
0x510|                              04               |          .     |                        n: 4 (valid) 0x51a-0x51b (1)
     |                                               |                |                      [2]{}: instr 0x51b-0x51d (2)
0x510|                                 41            |           A    |                        opcode: "i32.const" (0x41) 0x51b-0x51c (1)
0x510|                                    02         |            .   |                        n: 2 (valid) 0x51c-0x51d (1)
     |                                               |                |                      [3]{}: instr 0x51d-0x51f (2)
0x510|                                       41      |             A  |                        opcode: "i32.const" (0x41) 0x51d-0x51e (1)
0x510|                                          03   |              . |                        n: 3 (valid) 0x51e-0x51f (1)
     |                                               |                |                      [4]{}: instr 0x51f-0x521 (2)
0x510|                                             20|                |                        opcode: "local.get" (0x20) 0x51f-0x520 (1)
0x520|00                                             |.               |                        x: 0 (valid) 0x520-0x521 (1)
     |                                               |                |                      [5]{}: instr 0x521-0x522 (1)
0x520|   1b                                          | .              |                        opcode: "select" (0x1b) 0x521-0x522 (1)
     |                                               |                |                      [6]{}: instr 0x522-0x525 (3)
0x520|      11                                       |  .             |                        opcode: "call_indirect" (0x11) 0x522-0x523 (1)
0x520|         00                                    |   .            |                        y: 0 (valid) 0x523-0x524 (1)
0x520|            01                                 |    .           |                        x: 1 (valid) 0x524-0x525 (1)
0x520|               0b                              |     .          |                    end: 0xb (valid) 0x525-0x526 (1)
     |                                               |                |                  [1]{}: in 0x526-0x527 (1)
0x520|                  0b                           |      .         |                    opcode: "end" (0xb) 0x526-0x527 (1)
     |                                               |                |            [28]{}: code 0x527-0x536 (15)
0x520|                     0e                        |       .        |              size: 14 (valid) 0x527-0x528 (1)
     |                                               |                |              code{}: 0x528-0x536 (14)
     |                                               |                |                t{}: 0x528-0x529 (1)
0x520|                        00                     |        .       |                  n: 0 (valid) 0x528-0x529 (1)
     |                                               |                |                  x[0:0]: 0x529-0x529 (0)
     |                                               |                |                e[0:7]: 0x529-0x536 (13)
     |                                               |                |                  [0]{}: in 0x529-0x52b (2)
0x520|                           41                  |         A      |                    opcode: "i32.const" (0x41) 0x529-0x52a (1)
0x520|                              00               |          .     |                    n: 0 (valid) 0x52a-0x52b (1)
     |                                               |                |                  [1]{}: in 0x52b-0x52d (2)
0x520|                                 41            |           A    |                    opcode: "i32.const" (0x41) 0x52b-0x52c (1)
0x520|                                    04         |            .   |                    n: 4 (valid) 0x52c-0x52d (1)
     |                                               |                |                  [2]{}: in 0x52d-0x52f (2)
0x520|                                       20      |                |                    opcode: "local.get" (0x20) 0x52d-0x52e (1)
0x520|                                          00   |              . |                    x: 0 (valid) 0x52e-0x52f (1)
     |                                               |                |                  [3]{}: in 0x52f-0x530 (1)
0x520|                                             1b|               .|                    opcode: "select" (0x1b) 0x52f-0x530 (1)
     |                                               |                |                  [4]{}: in 0x530-0x532 (2)
0x530|41                                             |A               |                    opcode: "i32.const" (0x41) 0x530-0x531 (1)
0x530|   01                                          | .              |                    n: 1 (valid) 0x531-0x532 (1)
     |                                               |                |                  [5]{}: in 0x532-0x535 (3)
0x530|      36                                       |  6             |                    opcode: "i32.store" (0x36) 0x532-0x533 (1)
     |                                               |                |                    m{}: 0x533-0x535 (2)
0x530|         02                                    |   .            |                      a: 2 (valid) 0x533-0x534 (1)
0x530|            00                                 |    .           |                      o: 0 (valid) 0x534-0x535 (1)
     |                                               |                |                  [6]{}: in 0x535-0x536 (1)
0x530|               0b                              |     .          |                    opcode: "end" (0xb) 0x535-0x536 (1)
     |                                               |                |            [29]{}: code 0x536-0x545 (15)
0x530|                  0e                           |      .         |              size: 14 (valid) 0x536-0x537 (1)
     |                                               |                |              code{}: 0x537-0x545 (14)
     |                                               |                |                t{}: 0x537-0x538 (1)
0x530|                     00                        |       .        |                  n: 0 (valid) 0x537-0x538 (1)
     |                                               |                |                  x[0:0]: 0x538-0x538 (0)
     |                                               |                |                e[0:7]: 0x538-0x545 (13)
     |                                               |                |                  [0]{}: in 0x538-0x53a (2)
0x530|                        41                     |        A       |                    opcode: "i32.const" (0x41) 0x538-0x539 (1)
0x530|                           08                  |         .      |                    n: 8 (valid) 0x539-0x53a (1)
     |                                               |                |                  [1]{}: in 0x53a-0x53c (2)
0x530|                              41               |          A     |                    opcode: "i32.const" (0x41) 0x53a-0x53b (1)
0x530|                                 01            |           .    |                    n: 1 (valid) 0x53b-0x53c (1)
     |                                               |                |                  [2]{}: in 0x53c-0x53e (2)
0x530|                                    41         |            A   |                    opcode: "i32.const" (0x41) 0x53c-0x53d (1)
0x530|                                       02      |             .  |                    n: 2 (valid) 0x53d-0x53e (1)
     |                                               |                |                  [3]{}: in 0x53e-0x540 (2)
0x530|                                          20   |                |                    opcode: "local.get" (0x20) 0x53e-0x53f (1)
0x530|                                             00|               .|                    x: 0 (valid) 0x53f-0x540 (1)
     |                                               |                |                  [4]{}: in 0x540-0x541 (1)
0x540|1b                                             |.               |                    opcode: "select" (0x1b) 0x540-0x541 (1)
     |                                               |                |                  [5]{}: in 0x541-0x544 (3)
0x540|   36                                          | 6              |                    opcode: "i32.store" (0x36) 0x541-0x542 (1)
     |                                               |                |                    m{}: 0x542-0x544 (2)
0x540|      02                                       |  .             |                      a: 2 (valid) 0x542-0x543 (1)
0x540|         00                                    |   .            |                      o: 0 (valid) 0x543-0x544 (1)
     |                                               |                |                  [6]{}: in 0x544-0x545 (1)
0x540|            0b                                 |    .           |                    opcode: "end" (0xb) 0x544-0x545 (1)
     |                                               |                |            [30]{}: code 0x545-0x551 (12)
0x540|               0b                              |     .          |              size: 11 (valid) 0x545-0x546 (1)
     |                                               |                |              code{}: 0x546-0x551 (11)
     |                                               |                |                t{}: 0x546-0x547 (1)
0x540|                  00                           |      .         |                  n: 0 (valid) 0x546-0x547 (1)
     |                                               |                |                  x[0:0]: 0x547-0x547 (0)
     |                                               |                |                e[0:6]: 0x547-0x551 (10)
     |                                               |                |                  [0]{}: in 0x547-0x549 (2)
0x540|                     41                        |       A        |                    opcode: "i32.const" (0x41) 0x547-0x548 (1)
0x540|                        01                     |        .       |                    n: 1 (valid) 0x548-0x549 (1)
     |                                               |                |                  [1]{}: in 0x549-0x54b (2)
0x540|                           41                  |         A      |                    opcode: "i32.const" (0x41) 0x549-0x54a (1)
0x540|                              02               |          .     |                    n: 2 (valid) 0x54a-0x54b (1)
     |                                               |                |                  [2]{}: in 0x54b-0x54d (2)
0x540|                                 20            |                |                    opcode: "local.get" (0x20) 0x54b-0x54c (1)
0x540|                                    00         |            .   |                    x: 0 (valid) 0x54c-0x54d (1)
     |                                               |                |                  [3]{}: in 0x54d-0x54e (1)
0x540|                                       1b      |             .  |                    opcode: "select" (0x1b) 0x54d-0x54e (1)
     |                                               |                |                  [4]{}: in 0x54e-0x550 (2)
0x540|                                          40   |              @ |                    opcode: "memory.grow" (0x40) 0x54e-0x54f (1)
0x540|                                             00|               .|                    reserved: 0x0 (valid) 0x54f-0x550 (1)
     |                                               |                |                  [5]{}: in 0x550-0x551 (1)
0x550|0b                                             |.               |                    opcode: "end" (0xb) 0x550-0x551 (1)
     |                                               |                |            [31]{}: code 0x551-0x556 (5)
0x550|   04                                          | .              |              size: 4 (valid) 0x551-0x552 (1)
     |                                               |                |              code{}: 0x552-0x556 (4)
     |                                               |                |                t{}: 0x552-0x553 (1)
0x550|      00                                       |  .             |                  n: 0 (valid) 0x552-0x553 (1)
     |                                               |                |                  x[0:0]: 0x553-0x553 (0)
     |                                               |                |                e[0:2]: 0x553-0x556 (3)
     |                                               |                |                  [0]{}: in 0x553-0x555 (2)
0x550|         20                                    |                |                    opcode: "local.get" (0x20) 0x553-0x554 (1)
0x550|            00                                 |    .           |                    x: 0 (valid) 0x554-0x555 (1)
     |                                               |                |                  [1]{}: in 0x555-0x556 (1)
0x550|               0b                              |     .          |                    opcode: "end" (0xb) 0x555-0x556 (1)
     |                                               |                |            [32]{}: code 0x556-0x562 (12)
0x550|                  0b                           |      .         |              size: 11 (valid) 0x556-0x557 (1)
     |                                               |                |              code{}: 0x557-0x562 (11)
     |                                               |                |                t{}: 0x557-0x558 (1)
0x550|                     00                        |       .        |                  n: 0 (valid) 0x557-0x558 (1)
     |                                               |                |                  x[0:0]: 0x558-0x558 (0)
     |                                               |                |                e[0:6]: 0x558-0x562 (10)
     |                                               |                |                  [0]{}: in 0x558-0x55a (2)
0x550|                        41                     |        A       |                    opcode: "i32.const" (0x41) 0x558-0x559 (1)
0x550|                           01                  |         .      |                    n: 1 (valid) 0x559-0x55a (1)
     |                                               |                |                  [1]{}: in 0x55a-0x55c (2)
0x550|                              41               |          A     |                    opcode: "i32.const" (0x41) 0x55a-0x55b (1)
0x550|                                 02            |           .    |                    n: 2 (valid) 0x55b-0x55c (1)
     |                                               |                |                  [2]{}: in 0x55c-0x55e (2)
0x550|                                    20         |                |                    opcode: "local.get" (0x20) 0x55c-0x55d (1)
0x550|                                       00      |             .  |                    x: 0 (valid) 0x55d-0x55e (1)
     |                                               |                |                  [3]{}: in 0x55e-0x55f (1)
0x550|                                          1b   |              . |                    opcode: "select" (0x1b) 0x55e-0x55f (1)
     |                                               |                |                  [4]{}: in 0x55f-0x561 (2)
0x550|                                             10|               .|                    opcode: "call" (0x10) 0x55f-0x560 (1)
0x560|1f                                             |.               |                    x: 31 (valid) 0x560-0x561 (1)
     |                                               |                |                  [5]{}: in 0x561-0x562 (1)
0x560|   0b                                          | .              |                    opcode: "end" (0xb) 0x561-0x562 (1)
     |                                               |                |            [33]{}: code 0x562-0x56d (11)
0x560|      0a                                       |  .             |              size: 10 (valid) 0x562-0x563 (1)
     |                                               |                |              code{}: 0x563-0x56d (10)
     |                                               |                |                t{}: 0x563-0x564 (1)
0x560|         00                                    |   .            |                  n: 0 (valid) 0x563-0x564 (1)
     |                                               |                |                  x[0:0]: 0x564-0x564 (0)
     |                                               |                |                e[0:6]: 0x564-0x56d (9)
     |                                               |                |                  [0]{}: in 0x564-0x566 (2)
0x560|            41                                 |    A           |                    opcode: "i32.const" (0x41) 0x564-0x565 (1)
0x560|               01                              |     .          |                    n: 1 (valid) 0x565-0x566 (1)
     |                                               |                |                  [1]{}: in 0x566-0x568 (2)
0x560|                  41                           |      A         |                    opcode: "i32.const" (0x41) 0x566-0x567 (1)
0x560|                     02                        |       .        |                    n: 2 (valid) 0x567-0x568 (1)
     |                                               |                |                  [2]{}: in 0x568-0x56a (2)
0x560|                        20                     |                |                    opcode: "local.get" (0x20) 0x568-0x569 (1)
0x560|                           00                  |         .      |                    x: 0 (valid) 0x569-0x56a (1)
     |                                               |                |                  [3]{}: in 0x56a-0x56b (1)
0x560|                              1b               |          .     |                    opcode: "select" (0x1b) 0x56a-0x56b (1)
     |                                               |                |                  [4]{}: in 0x56b-0x56c (1)
0x560|                                 0f            |           .    |                    opcode: "return" (0xf) 0x56b-0x56c (1)
     |                                               |                |                  [5]{}: in 0x56c-0x56d (1)
0x560|                                    0b         |            .   |                    opcode: "end" (0xb) 0x56c-0x56d (1)
     |                                               |                |            [34]{}: code 0x56d-0x578 (11)
0x560|                                       0a      |             .  |              size: 10 (valid) 0x56d-0x56e (1)
     |                                               |                |              code{}: 0x56e-0x578 (10)
     |                                               |                |                t{}: 0x56e-0x56f (1)
0x560|                                          00   |              . |                  n: 0 (valid) 0x56e-0x56f (1)
     |                                               |                |                  x[0:0]: 0x56f-0x56f (0)
     |                                               |                |                e[0:6]: 0x56f-0x578 (9)
     |                                               |                |                  [0]{}: in 0x56f-0x571 (2)
0x560|                                             41|               A|                    opcode: "i32.const" (0x41) 0x56f-0x570 (1)
0x570|01                                             |.               |                    n: 1 (valid) 0x570-0x571 (1)
     |                                               |                |                  [1]{}: in 0x571-0x573 (2)
0x570|   41                                          | A              |                    opcode: "i32.const" (0x41) 0x571-0x572 (1)
0x570|      02                                       |  .             |                    n: 2 (valid) 0x572-0x573 (1)
     |                                               |                |                  [2]{}: in 0x573-0x575 (2)
0x570|         20                                    |                |                    opcode: "local.get" (0x20) 0x573-0x574 (1)
0x570|            00                                 |    .           |                    x: 0 (valid) 0x574-0x575 (1)
     |                                               |                |                  [3]{}: in 0x575-0x576 (1)
0x570|               1b                              |     .          |                    opcode: "select" (0x1b) 0x575-0x576 (1)
     |                                               |                |                  [4]{}: in 0x576-0x577 (1)
0x570|                  1a                           |      .         |                    opcode: "drop" (0x1a) 0x576-0x577 (1)
     |                                               |                |                  [5]{}: in 0x577-0x578 (1)
0x570|                     0b                        |       .        |                    opcode: "end" (0xb) 0x577-0x578 (1)
     |                                               |                |            [35]{}: code 0x578-0x587 (15)
0x570|                        0e                     |        .       |              size: 14 (valid) 0x578-0x579 (1)
     |                                               |                |              code{}: 0x579-0x587 (14)
     |                                               |                |                t{}: 0x579-0x57a (1)
0x570|                           00                  |         .      |                  n: 0 (valid) 0x579-0x57a (1)
     |                                               |                |                  x[0:0]: 0x57a-0x57a (0)
     |                                               |                |                e[0:2]: 0x57a-0x587 (13)
     |                                               |                |                  [0]{}: in 0x57a-0x586 (12)
0x570|                              02               |          .     |                    opcode: "block" (0x2) 0x57a-0x57b (1)
0x570|                                 7f            |           .    |                    bt: "i32" (127) 0x57b-0x57c (1)
     |                                               |                |                    instructions[0:5]: 0x57c-0x585 (9)
     |                                               |                |                      [0]{}: instr 0x57c-0x57e (2)
0x570|                                    41         |            A   |                        opcode: "i32.const" (0x41) 0x57c-0x57d (1)
0x570|                                       01      |             .  |                        n: 1 (valid) 0x57d-0x57e (1)
     |                                               |                |                      [1]{}: instr 0x57e-0x580 (2)
0x570|                                          41   |              A |                        opcode: "i32.const" (0x41) 0x57e-0x57f (1)
0x570|                                             02|               .|                        n: 2 (valid) 0x57f-0x580 (1)
     |                                               |                |                      [2]{}: instr 0x580-0x582 (2)
0x580|20                                             |                |                        opcode: "local.get" (0x20) 0x580-0x581 (1)
0x580|   00                                          | .              |                        x: 0 (valid) 0x581-0x582 (1)
     |                                               |                |                      [3]{}: instr 0x582-0x583 (1)
0x580|      1b                                       |  .             |                        opcode: "select" (0x1b) 0x582-0x583 (1)
     |                                               |                |                      [4]{}: instr 0x583-0x585 (2)
0x580|         0c                                    |   .            |                        opcode: "br" (0xc) 0x583-0x584 (1)
0x580|            00                                 |    .           |                        l: 0 (valid) 0x584-0x585 (1)
0x580|               0b                              |     .          |                    end: 0xb (valid) 0x585-0x586 (1)
     |                                               |                |                  [1]{}: in 0x586-0x587 (1)
0x580|                  0b                           |      .         |                    opcode: "end" (0xb) 0x586-0x587 (1)
     |                                               |                |            [36]{}: code 0x587-0x597 (16)
0x580|                     0f                        |       .        |              size: 15 (valid) 0x587-0x588 (1)
     |                                               |                |              code{}: 0x588-0x597 (15)
     |                                               |                |                t{}: 0x588-0x58b (3)
0x580|                        01                     |        .       |                  n: 1 (valid) 0x588-0x589 (1)
     |                                               |                |                  x[0:1]: 0x589-0x58b (2)
     |                                               |                |                    [0]{}: t 0x589-0x58b (2)
0x580|                           01                  |         .      |                      n: 1 (valid) 0x589-0x58a (1)
0x580|                              7f               |          .     |                      t: "i32" (0x7f) 0x58a-0x58b (1)
     |                                               |                |                e[0:7]: 0x58b-0x597 (12)
     |                                               |                |                  [0]{}: in 0x58b-0x58d (2)
0x580|                                 41            |           A    |                    opcode: "i32.const" (0x41) 0x58b-0x58c (1)
0x580|                                    01         |            .   |                    n: 1 (valid) 0x58c-0x58d (1)
     |                                               |                |                  [1]{}: in 0x58d-0x58f (2)
0x580|                                       41      |             A  |                    opcode: "i32.const" (0x41) 0x58d-0x58e (1)
0x580|                                          02   |              . |                    n: 2 (valid) 0x58e-0x58f (1)
     |                                               |                |                  [2]{}: in 0x58f-0x591 (2)
0x580|                                             20|                |                    opcode: "local.get" (0x20) 0x58f-0x590 (1)
0x590|00                                             |.               |                    x: 0 (valid) 0x590-0x591 (1)
     |                                               |                |                  [3]{}: in 0x591-0x592 (1)
0x590|   1b                                          | .              |                    opcode: "select" (0x1b) 0x591-0x592 (1)
     |                                               |                |                  [4]{}: in 0x592-0x594 (2)
0x590|      21                                       |  !             |                    opcode: "local.set" (0x21) 0x592-0x593 (1)
0x590|         00                                    |   .            |                    x: 0 (valid) 0x593-0x594 (1)
     |                                               |                |                  [5]{}: in 0x594-0x596 (2)
0x590|            20                                 |                |                    opcode: "local.get" (0x20) 0x594-0x595 (1)
0x590|               00                              |     .          |                    x: 0 (valid) 0x595-0x596 (1)
     |                                               |                |                  [6]{}: in 0x596-0x597 (1)
0x590|                  0b                           |      .         |                    opcode: "end" (0xb) 0x596-0x597 (1)
     |                                               |                |            [37]{}: code 0x597-0x5a3 (12)
0x590|                     0b                        |       .        |              size: 11 (valid) 0x597-0x598 (1)
     |                                               |                |              code{}: 0x598-0x5a3 (11)
     |                                               |                |                t{}: 0x598-0x599 (1)
0x590|                        00                     |        .       |                  n: 0 (valid) 0x598-0x599 (1)
     |                                               |                |                  x[0:0]: 0x599-0x599 (0)
     |                                               |                |                e[0:6]: 0x599-0x5a3 (10)
     |                                               |                |                  [0]{}: in 0x599-0x59b (2)
0x590|                           41                  |         A      |                    opcode: "i32.const" (0x41) 0x599-0x59a (1)
0x590|                              01               |          .     |                    n: 1 (valid) 0x59a-0x59b (1)
     |                                               |                |                  [1]{}: in 0x59b-0x59d (2)
0x590|                                 41            |           A    |                    opcode: "i32.const" (0x41) 0x59b-0x59c (1)
0x590|                                    02         |            .   |                    n: 2 (valid) 0x59c-0x59d (1)
     |                                               |                |                  [2]{}: in 0x59d-0x59f (2)
0x590|                                       20      |                |                    opcode: "local.get" (0x20) 0x59d-0x59e (1)
0x590|                                          00   |              . |                    x: 0 (valid) 0x59e-0x59f (1)
     |                                               |                |                  [3]{}: in 0x59f-0x5a0 (1)
0x590|                                             1b|               .|                    opcode: "select" (0x1b) 0x59f-0x5a0 (1)
     |                                               |                |                  [4]{}: in 0x5a0-0x5a2 (2)
0x5a0|22                                             |"               |                    opcode: "local.tee" (0x22) 0x5a0-0x5a1 (1)
0x5a0|   00                                          | .              |                    x: 0 (valid) 0x5a1-0x5a2 (1)
     |                                               |                |                  [5]{}: in 0x5a2-0x5a3 (1)
0x5a0|      0b                                       |  .             |                    opcode: "end" (0xb) 0x5a2-0x5a3 (1)
     |                                               |                |            [38]{}: code 0x5a3-0x5b1 (14)
0x5a0|         0d                                    |   .            |              size: 13 (valid) 0x5a3-0x5a4 (1)
     |                                               |                |              code{}: 0x5a4-0x5b1 (13)
     |                                               |                |                t{}: 0x5a4-0x5a5 (1)
0x5a0|            00                                 |    .           |                  n: 0 (valid) 0x5a4-0x5a5 (1)
     |                                               |                |                  x[0:0]: 0x5a5-0x5a5 (0)
     |                                               |                |                e[0:7]: 0x5a5-0x5b1 (12)
     |                                               |                |                  [0]{}: in 0x5a5-0x5a7 (2)
0x5a0|               41                              |     A          |                    opcode: "i32.const" (0x41) 0x5a5-0x5a6 (1)
0x5a0|                  01                           |      .         |                    n: 1 (valid) 0x5a6-0x5a7 (1)
     |                                               |                |                  [1]{}: in 0x5a7-0x5a9 (2)
0x5a0|                     41                        |       A        |                    opcode: "i32.const" (0x41) 0x5a7-0x5a8 (1)
0x5a0|                        02                     |        .       |                    n: 2 (valid) 0x5a8-0x5a9 (1)
     |                                               |                |                  [2]{}: in 0x5a9-0x5ab (2)
0x5a0|                           20                  |                |                    opcode: "local.get" (0x20) 0x5a9-0x5aa (1)
0x5a0|                              00               |          .     |                    x: 0 (valid) 0x5aa-0x5ab (1)
     |                                               |                |                  [3]{}: in 0x5ab-0x5ac (1)
0x5a0|                                 1b            |           .    |                    opcode: "select" (0x1b) 0x5ab-0x5ac (1)
     |                                               |                |                  [4]{}: in 0x5ac-0x5ae (2)
0x5a0|                                    24         |            $   |                    opcode: "global.set" (0x24) 0x5ac-0x5ad (1)
0x5a0|                                       00      |             .  |                    x: 0 (valid) 0x5ad-0x5ae (1)
     |                                               |                |                  [5]{}: in 0x5ae-0x5b0 (2)
0x5a0|                                          23   |              # |                    opcode: "global.get" (0x23) 0x5ae-0x5af (1)
0x5a0|                                             00|               .|                    x: 0 (valid) 0x5af-0x5b0 (1)
     |                                               |                |                  [6]{}: in 0x5b0-0x5b1 (1)
0x5b0|0b                                             |.               |                    opcode: "end" (0xb) 0x5b0-0x5b1 (1)
     |                                               |                |            [39]{}: code 0x5b1-0x5be (13)
0x5b0|   0c                                          | .              |              size: 12 (valid) 0x5b1-0x5b2 (1)
     |                                               |                |              code{}: 0x5b2-0x5be (12)
     |                                               |                |                t{}: 0x5b2-0x5b3 (1)
0x5b0|      00                                       |  .             |                  n: 0 (valid) 0x5b2-0x5b3 (1)
     |                                               |                |                  x[0:0]: 0x5b3-0x5b3 (0)
     |                                               |                |                e[0:6]: 0x5b3-0x5be (11)
     |                                               |                |                  [0]{}: in 0x5b3-0x5b5 (2)
0x5b0|         41                                    |   A            |                    opcode: "i32.const" (0x41) 0x5b3-0x5b4 (1)
0x5b0|            00                                 |    .           |                    n: 0 (valid) 0x5b4-0x5b5 (1)
     |                                               |                |                  [1]{}: in 0x5b5-0x5b7 (2)
0x5b0|               41                              |     A          |                    opcode: "i32.const" (0x41) 0x5b5-0x5b6 (1)
0x5b0|                  04                           |      .         |                    n: 4 (valid) 0x5b6-0x5b7 (1)
     |                                               |                |                  [2]{}: in 0x5b7-0x5b9 (2)
0x5b0|                     20                        |                |                    opcode: "local.get" (0x20) 0x5b7-0x5b8 (1)
0x5b0|                        00                     |        .       |                    x: 0 (valid) 0x5b8-0x5b9 (1)
     |                                               |                |                  [3]{}: in 0x5b9-0x5ba (1)
0x5b0|                           1b                  |         .      |                    opcode: "select" (0x1b) 0x5b9-0x5ba (1)
     |                                               |                |                  [4]{}: in 0x5ba-0x5bd (3)
0x5b0|                              28               |          (     |                    opcode: "i32.load" (0x28) 0x5ba-0x5bb (1)
     |                                               |                |                    m{}: 0x5bb-0x5bd (2)
0x5b0|                                 02            |           .    |                      a: 2 (valid) 0x5bb-0x5bc (1)
0x5b0|                                    00         |            .   |                      o: 0 (valid) 0x5bc-0x5bd (1)
     |                                               |                |                  [5]{}: in 0x5bd-0x5be (1)
0x5b0|                                       0b      |             .  |                    opcode: "end" (0xb) 0x5bd-0x5be (1)
     |                                               |                |            [40]{}: code 0x5be-0x5c9 (11)
0x5b0|                                          0a   |              . |              size: 10 (valid) 0x5be-0x5bf (1)
     |                                               |                |              code{}: 0x5bf-0x5c9 (10)
     |                                               |                |                t{}: 0x5bf-0x5c0 (1)
0x5b0|                                             00|               .|                  n: 0 (valid) 0x5bf-0x5c0 (1)
     |                                               |                |                  x[0:0]: 0x5c0-0x5c0 (0)
     |                                               |                |                e[0:6]: 0x5c0-0x5c9 (9)
     |                                               |                |                  [0]{}: in 0x5c0-0x5c2 (2)
0x5c0|41                                             |A               |                    opcode: "i32.const" (0x41) 0x5c0-0x5c1 (1)
0x5c0|   00                                          | .              |                    n: 0 (valid) 0x5c1-0x5c2 (1)
     |                                               |                |                  [1]{}: in 0x5c2-0x5c4 (2)
0x5c0|      41                                       |  A             |                    opcode: "i32.const" (0x41) 0x5c2-0x5c3 (1)
0x5c0|         01                                    |   .            |                    n: 1 (valid) 0x5c3-0x5c4 (1)
     |                                               |                |                  [2]{}: in 0x5c4-0x5c6 (2)
0x5c0|            20                                 |                |                    opcode: "local.get" (0x20) 0x5c4-0x5c5 (1)
0x5c0|               00                              |     .          |                    x: 0 (valid) 0x5c5-0x5c6 (1)
     |                                               |                |                  [3]{}: in 0x5c6-0x5c7 (1)
0x5c0|                  1b                           |      .         |                    opcode: "select" (0x1b) 0x5c6-0x5c7 (1)
     |                                               |                |                  [4]{}: in 0x5c7-0x5c8 (1)
0x5c0|                     45                        |       E        |                    opcode: "32.eqz" (0x45) 0x5c7-0x5c8 (1)
     |                                               |                |                  [5]{}: in 0x5c8-0x5c9 (1)
0x5c0|                        0b                     |        .       |                    opcode: "end" (0xb) 0x5c8-0x5c9 (1)
     |                                               |                |            [41]{}: code 0x5c9-0x5db (18)
0x5c0|                           11                  |         .      |              size: 17 (valid) 0x5c9-0x5ca (1)
     |                                               |                |              code{}: 0x5ca-0x5db (17)
     |                                               |                |                t{}: 0x5ca-0x5cb (1)
0x5c0|                              00               |          .     |                  n: 0 (valid) 0x5ca-0x5cb (1)
     |                                               |                |                  x[0:0]: 0x5cb-0x5cb (0)
     |                                               |                |                e[0:10]: 0x5cb-0x5db (16)
     |                                               |                |                  [0]{}: in 0x5cb-0x5cd (2)
0x5c0|                                 41            |           A    |                    opcode: "i32.const" (0x41) 0x5cb-0x5cc (1)
0x5c0|                                    01         |            .   |                    n: 1 (valid) 0x5cc-0x5cd (1)
     |                                               |                |                  [1]{}: in 0x5cd-0x5cf (2)
0x5c0|                                       41      |             A  |                    opcode: "i32.const" (0x41) 0x5cd-0x5ce (1)
0x5c0|                                          02   |              . |                    n: 2 (valid) 0x5ce-0x5cf (1)
     |                                               |                |                  [2]{}: in 0x5cf-0x5d1 (2)
0x5c0|                                             20|                |                    opcode: "local.get" (0x20) 0x5cf-0x5d0 (1)
0x5d0|00                                             |.               |                    x: 0 (valid) 0x5d0-0x5d1 (1)
     |                                               |                |                  [3]{}: in 0x5d1-0x5d2 (1)
0x5d0|   1b                                          | .              |                    opcode: "select" (0x1b) 0x5d1-0x5d2 (1)
     |                                               |                |                  [4]{}: in 0x5d2-0x5d4 (2)
0x5d0|      41                                       |  A             |                    opcode: "i32.const" (0x41) 0x5d2-0x5d3 (1)
0x5d0|         01                                    |   .            |                    n: 1 (valid) 0x5d3-0x5d4 (1)
     |                                               |                |                  [5]{}: in 0x5d4-0x5d6 (2)
0x5d0|            41                                 |    A           |                    opcode: "i32.const" (0x41) 0x5d4-0x5d5 (1)
0x5d0|               02                              |     .          |                    n: 2 (valid) 0x5d5-0x5d6 (1)
     |                                               |                |                  [6]{}: in 0x5d6-0x5d8 (2)
0x5d0|                  20                           |                |                    opcode: "local.get" (0x20) 0x5d6-0x5d7 (1)
0x5d0|                     00                        |       .        |                    x: 0 (valid) 0x5d7-0x5d8 (1)
     |                                               |                |                  [7]{}: in 0x5d8-0x5d9 (1)
0x5d0|                        1b                     |        .       |                    opcode: "select" (0x1b) 0x5d8-0x5d9 (1)
     |                                               |                |                  [8]{}: in 0x5d9-0x5da (1)
0x5d0|                           6c                  |         l      |                    opcode: "i32.mul" (0x6c) 0x5d9-0x5da (1)
     |                                               |                |                  [9]{}: in 0x5da-0x5db (1)
0x5d0|                              0b               |          .     |                    opcode: "end" (0xb) 0x5da-0x5db (1)
     |                                               |                |            [42]{}: code 0x5db-0x5e9 (14)
0x5d0|                                 0d            |           .    |              size: 13 (valid) 0x5db-0x5dc (1)
     |                                               |                |              code{}: 0x5dc-0x5e9 (13)
     |                                               |                |                t{}: 0x5dc-0x5dd (1)
0x5d0|                                    00         |            .   |                  n: 0 (valid) 0x5dc-0x5dd (1)
     |                                               |                |                  x[0:0]: 0x5dd-0x5dd (0)
     |                                               |                |                e[0:2]: 0x5dd-0x5e9 (12)
     |                                               |                |                  [0]{}: in 0x5dd-0x5e8 (11)
0x5d0|                                       02      |             .  |                    opcode: "block" (0x2) 0x5dd-0x5de (1)
0x5d0|                                          7f   |              . |                    bt: "i32" (127) 0x5de-0x5df (1)
     |                                               |                |                    instructions[0:5]: 0x5df-0x5e7 (8)
     |                                               |                |                      [0]{}: instr 0x5df-0x5e1 (2)
0x5d0|                                             41|               A|                        opcode: "i32.const" (0x41) 0x5df-0x5e0 (1)
0x5e0|00                                             |.               |                        n: 0 (valid) 0x5e0-0x5e1 (1)
     |                                               |                |                      [1]{}: instr 0x5e1-0x5e3 (2)
0x5e0|   41                                          | A              |                        opcode: "i32.const" (0x41) 0x5e1-0x5e2 (1)
0x5e0|      01                                       |  .             |                        n: 1 (valid) 0x5e2-0x5e3 (1)
     |                                               |                |                      [2]{}: instr 0x5e3-0x5e5 (2)
0x5e0|         20                                    |                |                        opcode: "local.get" (0x20) 0x5e3-0x5e4 (1)
0x5e0|            00                                 |    .           |                        x: 0 (valid) 0x5e4-0x5e5 (1)
     |                                               |                |                      [3]{}: instr 0x5e5-0x5e6 (1)
0x5e0|               1b                              |     .          |                        opcode: "select" (0x1b) 0x5e5-0x5e6 (1)
     |                                               |                |                      [4]{}: instr 0x5e6-0x5e7 (1)
0x5e0|                  45                           |      E         |                        opcode: "32.eqz" (0x45) 0x5e6-0x5e7 (1)
0x5e0|                     0b                        |       .        |                    end: 0xb (valid) 0x5e7-0x5e8 (1)
     |                                               |                |                  [1]{}: in 0x5e8-0x5e9 (1)
0x5e0|                        0b                     |        .       |                    opcode: "end" (0xb) 0x5e8-0x5e9 (1)
     |                                               |                |            [43]{}: code 0x5e9-0x5f9 (16)
0x5e0|                           0f                  |         .      |              size: 15 (valid) 0x5e9-0x5ea (1)
     |                                               |                |              code{}: 0x5ea-0x5f9 (15)
     |                                               |                |                t{}: 0x5ea-0x5eb (1)
0x5e0|                              00               |          .     |                  n: 0 (valid) 0x5ea-0x5eb (1)
     |                                               |                |                  x[0:0]: 0x5eb-0x5eb (0)
     |                                               |                |                e[0:2]: 0x5eb-0x5f9 (14)
     |                                               |                |                  [0]{}: in 0x5eb-0x5f8 (13)
0x5e0|                                 02            |           .    |                    opcode: "block" (0x2) 0x5eb-0x5ec (1)
0x5e0|                                    7f         |            .   |                    bt: "i32" (127) 0x5ec-0x5ed (1)
     |                                               |                |                    instructions[0:6]: 0x5ed-0x5f7 (10)
     |                                               |                |                      [0]{}: instr 0x5ed-0x5ef (2)
0x5e0|                                       41      |             A  |                        opcode: "i32.const" (0x41) 0x5ed-0x5ee (1)
0x5e0|                                          01   |              . |                        n: 1 (valid) 0x5ee-0x5ef (1)
     |                                               |                |                      [1]{}: instr 0x5ef-0x5f1 (2)
0x5e0|                                             41|               A|                        opcode: "i32.const" (0x41) 0x5ef-0x5f0 (1)
0x5f0|02                                             |.               |                        n: 2 (valid) 0x5f0-0x5f1 (1)
     |                                               |                |                      [2]{}: instr 0x5f1-0x5f3 (2)
0x5f0|   20                                          |                |                        opcode: "local.get" (0x20) 0x5f1-0x5f2 (1)
0x5f0|      00                                       |  .             |                        x: 0 (valid) 0x5f2-0x5f3 (1)
     |                                               |                |                      [3]{}: instr 0x5f3-0x5f4 (1)
0x5f0|         1b                                    |   .            |                        opcode: "select" (0x1b) 0x5f3-0x5f4 (1)
     |                                               |                |                      [4]{}: instr 0x5f4-0x5f6 (2)
0x5f0|            41                                 |    A           |                        opcode: "i32.const" (0x41) 0x5f4-0x5f5 (1)
0x5f0|               01                              |     .          |                        n: 1 (valid) 0x5f5-0x5f6 (1)
     |                                               |                |                      [5]{}: instr 0x5f6-0x5f7 (1)
0x5f0|                  4c                           |      L         |                        opcode: "i32.le_s" (0x4c) 0x5f6-0x5f7 (1)
0x5f0|                     0b                        |       .        |                    end: 0xb (valid) 0x5f7-0x5f8 (1)
     |                                               |                |                  [1]{}: in 0x5f8-0x5f9 (1)
0x5f0|                        0b                     |        .       |                    opcode: "end" (0xb) 0x5f8-0x5f9 (1)
     |                                               |                |            [44]{}: code 0x5f9-0x609 (16)
0x5f0|                           0f                  |         .      |              size: 15 (valid) 0x5f9-0x5fa (1)
     |                                               |                |              code{}: 0x5fa-0x609 (15)
     |                                               |                |                t{}: 0x5fa-0x5fb (1)
0x5f0|                              00               |          .     |                  n: 0 (valid) 0x5fa-0x5fb (1)
     |                                               |                |                  x[0:0]: 0x5fb-0x5fb (0)
     |                                               |                |                e[0:2]: 0x5fb-0x609 (14)
     |                                               |                |                  [0]{}: in 0x5fb-0x608 (13)
0x5f0|                                 02            |           .    |                    opcode: "block" (0x2) 0x5fb-0x5fc (1)
0x5f0|                                    7f         |            .   |                    bt: "i32" (127) 0x5fc-0x5fd (1)
     |                                               |                |                    instructions[0:6]: 0x5fd-0x607 (10)
     |                                               |                |                      [0]{}: instr 0x5fd-0x5ff (2)
0x5f0|                                       41      |             A  |                        opcode: "i32.const" (0x41) 0x5fd-0x5fe (1)
0x5f0|                                          01   |              . |                        n: 1 (valid) 0x5fe-0x5ff (1)
     |                                               |                |                      [1]{}: instr 0x5ff-0x601 (2)
0x5f0|                                             41|               A|                        opcode: "i32.const" (0x41) 0x5ff-0x600 (1)
0x600|00                                             |.               |                        n: 0 (valid) 0x600-0x601 (1)
     |                                               |                |                      [2]{}: instr 0x601-0x603 (2)
0x600|   41                                          | A              |                        opcode: "i32.const" (0x41) 0x601-0x602 (1)
0x600|      01                                       |  .             |                        n: 1 (valid) 0x602-0x603 (1)
     |                                               |                |                      [3]{}: instr 0x603-0x605 (2)
0x600|         20                                    |                |                        opcode: "local.get" (0x20) 0x603-0x604 (1)
0x600|            00                                 |    .           |                        x: 0 (valid) 0x604-0x605 (1)
     |                                               |                |                      [4]{}: instr 0x605-0x606 (1)
0x600|               1b                              |     .          |                        opcode: "select" (0x1b) 0x605-0x606 (1)
     |                                               |                |                      [5]{}: instr 0x606-0x607 (1)
0x600|                  47                           |      G         |                        opcode: "i32.ne" (0x47) 0x606-0x607 (1)
0x600|                     0b                        |       .        |                    end: 0xb (valid) 0x607-0x608 (1)
     |                                               |                |                  [1]{}: in 0x608-0x609 (1)
0x600|                        0b                     |        .       |                    opcode: "end" (0xb) 0x608-0x609 (1)
     |                                               |                |            [45]{}: code 0x609-0x617 (14)
0x600|                           0d                  |         .      |              size: 13 (valid) 0x609-0x60a (1)
     |                                               |                |              code{}: 0x60a-0x617 (13)
     |                                               |                |                t{}: 0x60a-0x60b (1)
0x600|                              00               |          .     |                  n: 0 (valid) 0x60a-0x60b (1)
     |                                               |                |                  x[0:0]: 0x60b-0x60b (0)
     |                                               |                |                e[0:2]: 0x60b-0x617 (12)
     |                                               |                |                  [0]{}: in 0x60b-0x616 (11)
0x600|                                 02            |           .    |                    opcode: "block" (0x2) 0x60b-0x60c (1)
0x600|                                    7f         |            .   |                    bt: "i32" (127) 0x60c-0x60d (1)
     |                                               |                |                    instructions[0:5]: 0x60d-0x615 (8)
     |                                               |                |                      [0]{}: instr 0x60d-0x60f (2)
0x600|                                       42      |             B  |                        opcode: "i64.const" (0x42) 0x60d-0x60e (1)
0x600|                                          01   |              . |                        n: 1 0x60e-0x60f (1)
     |                                               |                |                      [1]{}: instr 0x60f-0x611 (2)
0x600|                                             42|               B|                        opcode: "i64.const" (0x42) 0x60f-0x610 (1)
0x610|00                                             |.               |                        n: 0 0x610-0x611 (1)
     |                                               |                |                      [2]{}: instr 0x611-0x613 (2)
0x610|   20                                          |                |                        opcode: "local.get" (0x20) 0x611-0x612 (1)
0x610|      00                                       |  .             |                        x: 0 (valid) 0x612-0x613 (1)
     |                                               |                |                      [3]{}: instr 0x613-0x614 (1)
0x610|         1b                                    |   .            |                        opcode: "select" (0x1b) 0x613-0x614 (1)
     |                                               |                |                      [4]{}: instr 0x614-0x615 (1)
0x610|            a7                                 |    .           |                        opcode: "i32.wrap_i64" (0xa7) 0x614-0x615 (1)
0x610|               0b                              |     .          |                    end: 0xb (valid) 0x615-0x616 (1)
     |                                               |                |                  [1]{}: in 0x616-0x617 (1)
0x610|                  0b|                          |      .|        |                    opcode: "end" (0xb) 0x616-0x617 (1)
