$ fq -d wasm dv simd_load_zero-0.wasm
     |00 01 02 03 04 05 06 07 08 09 0a 0b 0c 0d 0e 0f|0123456789abcdef|.{}: simd_load_zero-0.wasm (wasm) 0x0-0x2a7.7 (680)
0x000|00 61 73 6d                                    |.asm            |  magic: raw bits (valid) 0x0-0x3.7 (4)
0x000|            01 00 00 00                        |    ....        |  version: 1 0x4-0x7.7 (4)
     |                                               |                |  sections[0:6]: 0x8-0x2a7.7 (672)
     |                                               |                |    [0]{}: section 0x8-0x13.7 (12)
0x000|                        01                     |        .       |      id: "type section" (1) 0x8-0x8.7 (1)
0x000|                           0a                  |         .      |      size: 10 0x9-0x9.7 (1)
     |                                               |                |      content{}: 0xa-0x13.7 (10)
     |                                               |                |        ft{}: 0xa-0x13.7 (10)
0x000|                              02               |          .     |          n: 2 0xa-0xa.7 (1)
     |                                               |                |          x[0:2]: 0xb-0x13.7 (9)
     |                                               |                |            [0]{}: ft 0xb-0xf.7 (5)
0x000|                                 60            |           `    |              tag: 0x60 (valid) 0xb-0xb.7 (1)
     |                                               |                |              rt1{}: 0xc-0xd.7 (2)
0x000|                                    01         |            .   |                n: 1 0xc-0xc.7 (1)
     |                                               |                |                x[0:1]: 0xd-0xd.7 (1)
0x000|                                       7f      |             .  |                  [0]: "i32" (0x7f) t 0xd-0xd.7 (1)
     |                                               |                |              rt2{}: 0xe-0xf.7 (2)
0x000|                                          01   |              . |                n: 1 0xe-0xe.7 (1)
     |                                               |                |                x[0:1]: 0xf-0xf.7 (1)
0x000|                                             7b|               {|                  [0]: "v128" (0x7b) t 0xf-0xf.7 (1)
     |                                               |                |            [1]{}: ft 0x10-0x13.7 (4)
0x010|60                                             |`               |              tag: 0x60 (valid) 0x10-0x10.7 (1)
     |                                               |                |              rt1{}: 0x11-0x11.7 (1)
0x010|   00                                          | .              |                n: 0 0x11-0x11.7 (1)
     |                                               |                |                x[0:0]: 0x12-NA (0)
     |                                               |                |              rt2{}: 0x12-0x13.7 (2)
0x010|      01                                       |  .             |                n: 1 0x12-0x12.7 (1)
     |                                               |                |                x[0:1]: 0x13-0x13.7 (1)
0x010|         7b                                    |   {            |                  [0]: "v128" (0x7b) t 0x13-0x13.7 (1)
     |                                               |                |    [1]{}: section 0x14-0x25.7 (18)
0x010|            03                                 |    .           |      id: "function section" (3) 0x14-0x14.7 (1)
0x010|               10                              |     .          |      size: 16 0x15-0x15.7 (1)
     |                                               |                |      content{}: 0x16-0x25.7 (16)
     |                                               |                |        x{}: 0x16-0x25.7 (16)
0x010|                  0f                           |      .         |          n: 15 0x16-0x16.7 (1)
     |                                               |                |          x[0:15]: 0x17-0x25.7 (15)
0x010|                     00                        |       .        |            [0]: 0 x 0x17-0x17.7 (1)
0x010|                        00                     |        .       |            [1]: 0 x 0x18-0x18.7 (1)
0x010|                           01                  |         .      |            [2]: 1 x 0x19-0x19.7 (1)
0x010|                              01               |          .     |            [3]: 1 x 0x1a-0x1a.7 (1)
0x010|                                 00            |           .    |            [4]: 0 x 0x1b-0x1b.7 (1)
0x010|                                    00         |            .   |            [5]: 0 x 0x1c-0x1c.7 (1)
0x010|                                       00      |             .  |            [6]: 0 x 0x1d-0x1d.7 (1)
0x010|                                          00   |              . |            [7]: 0 x 0x1e-0x1e.7 (1)
0x010|                                             00|               .|            [8]: 0 x 0x1f-0x1f.7 (1)
0x020|00                                             |.               |            [9]: 0 x 0x20-0x20.7 (1)
0x020|   00                                          | .              |            [10]: 0 x 0x21-0x21.7 (1)
0x020|      00                                       |  .             |            [11]: 0 x 0x22-0x22.7 (1)
0x020|         00                                    |   .            |            [12]: 0 x 0x23-0x23.7 (1)
0x020|            00                                 |    .           |            [13]: 0 x 0x24-0x24.7 (1)
0x020|               00                              |     .          |            [14]: 0 x 0x25-0x25.7 (1)
     |                                               |                |    [2]{}: section 0x26-0x2a.7 (5)
0x020|                  05                           |      .         |      id: "memory section" (5) 0x26-0x26.7 (1)
0x020|                     03                        |       .        |      size: 3 0x27-0x27.7 (1)
     |                                               |                |      content{}: 0x28-0x2a.7 (3)
     |                                               |                |        mem{}: 0x28-0x2a.7 (3)
0x020|                        01                     |        .       |          n: 1 0x28-0x28.7 (1)
     |                                               |                |          x[0:1]: 0x29-0x2a.7 (2)
     |                                               |                |            [0]{}: mem 0x29-0x2a.7 (2)
     |                                               |                |              lim{}: 0x29-0x2a.7 (2)
0x020|                           00                  |         .      |                tag: 0x0 0x29-0x29.7 (1)
0x020|                              01               |          .     |                n: 1 0x2a-0x2a.7 (1)
     |                                               |                |    [3]{}: section 0x2b-0x1e3.7 (441)
0x020|                                 07            |           .    |      id: "export section" (7) 0x2b-0x2b.7 (1)
0x020|                                    b6 03      |            ..  |      size: 438 0x2c-0x2d.7 (2)
     |                                               |                |      content{}: 0x2e-0x1e3.7 (438)
     |                                               |                |        ex{}: 0x2e-0x1e3.7 (438)
0x020|                                          0f   |              . |          n: 15 0x2e-0x2e.7 (1)
     |                                               |                |          x[0:15]: 0x2f-0x1e3.7 (437)
     |                                               |                |            [0]{}: ex 0x2f-0x41.7 (19)
     |                                               |                |              nm{}: 0x2f-0x3f.7 (17)
0x020|                                             10|               .|                n: 16 0x2f-0x2f.7 (1)
0x030|76 31 32 38 2e 6c 6f 61 64 33 32 5f 7a 65 72 6f|v128.load32_zero|                b: "v128.load32_zero" 0x30-0x3f.7 (16)
     |                                               |                |              d{}: 0x40-0x41.7 (2)
0x040|00                                             |.               |                tag: "funcidx" (0x0) 0x40-0x40.7 (1)
0x040|   00                                          | .              |                x: 0 0x41-0x41.7 (1)
     |                                               |                |            [1]{}: ex 0x42-0x54.7 (19)
     |                                               |                |              nm{}: 0x42-0x52.7 (17)
0x040|      10                                       |  .             |                n: 16 0x42-0x42.7 (1)
0x040|         76 31 32 38 2e 6c 6f 61 64 36 34 5f 7a|   v128.load64_z|                b: "v128.load64_zero" 0x43-0x52.7 (16)
0x050|65 72 6f                                       |ero             |
     |                                               |                |              d{}: 0x53-0x54.7 (2)
0x050|         00                                    |   .            |                tag: "funcidx" (0x0) 0x53-0x53.7 (1)
0x050|            01                                 |    .           |                x: 1 0x54-0x54.7 (1)
     |                                               |                |            [2]{}: ex 0x55-0x6e.7 (26)
     |                                               |                |              nm{}: 0x55-0x6c.7 (24)
0x050|               17                              |     .          |                n: 23 0x55-0x55.7 (1)
0x050|                  76 31 32 38 2e 6c 6f 61 64 33|      v128.load3|                b: "v128.load32_zero_const0" 0x56-0x6c.7 (23)
0x060|32 5f 7a 65 72 6f 5f 63 6f 6e 73 74 30         |2_zero_const0   |
     |                                               |                |              d{}: 0x6d-0x6e.7 (2)
0x060|                                       00      |             .  |                tag: "funcidx" (0x0) 0x6d-0x6d.7 (1)
0x060|                                          02   |              . |                x: 2 0x6e-0x6e.7 (1)
     |                                               |                |            [3]{}: ex 0x6f-0x88.7 (26)
     |                                               |                |              nm{}: 0x6f-0x86.7 (24)
0x060|                                             17|               .|                n: 23 0x6f-0x6f.7 (1)
0x070|76 31 32 38 2e 6c 6f 61 64 36 34 5f 7a 65 72 6f|v128.load64_zero|                b: "v128.load64_zero_const8" 0x70-0x86.7 (23)
0x080|5f 63 6f 6e 73 74 38                           |_const8         |
     |                                               |                |              d{}: 0x87-0x88.7 (2)
0x080|                     00                        |       .        |                tag: "funcidx" (0x0) 0x87-0x87.7 (1)
0x080|                        03                     |        .       |                x: 3 0x88-0x88.7 (1)
     |                                               |                |            [4]{}: ex 0x89-0xa3.7 (27)
     |                                               |                |              nm{}: 0x89-0xa1.7 (25)
0x080|                           18                  |         .      |                n: 24 0x89-0x89.7 (1)
0x080|                              76 31 32 38 2e 6c|          v128.l|                b: "v128.load32_zero_offset0" 0x8a-0xa1.7 (24)
0x090|6f 61 64 33 32 5f 7a 65 72 6f 5f 6f 66 66 73 65|oad32_zero_offse|
0x0a0|74 30                                          |t0              |
     |                                               |                |              d{}: 0xa2-0xa3.7 (2)
0x0a0|      00                                       |  .             |                tag: "funcidx" (0x0) 0xa2-0xa2.7 (1)
0x0a0|         04                                    |   .            |                x: 4 0xa3-0xa3.7 (1)
     |                                               |                |            [5]{}: ex 0xa4-0xbd.7 (26)
     |                                               |                |              nm{}: 0xa4-0xbb.7 (24)
0x0a0|            17                                 |    .           |                n: 23 0xa4-0xa4.7 (1)
0x0a0|               76 31 32 38 2e 6c 6f 61 64 33 32|     v128.load32|                b: "v128.load32_zero_align1" 0xa5-0xbb.7 (23)
0x0b0|5f 7a 65 72 6f 5f 61 6c 69 67 6e 31            |_zero_align1    |
     |                                               |                |              d{}: 0xbc-0xbd.7 (2)
0x0b0|                                    00         |            .   |                tag: "funcidx" (0x0) 0xbc-0xbc.7 (1)
0x0b0|                                       05      |             .  |                x: 5 0xbd-0xbd.7 (1)
     |                                               |                |            [6]{}: ex 0xbe-0xdf.7 (34)
     |                                               |                |              nm{}: 0xbe-0xdd.7 (32)
0x0b0|                                          1f   |              . |                n: 31 0xbe-0xbe.7 (1)
0x0b0|                                             76|               v|                b: "v128.load32_zero_offset0_align1" 0xbf-0xdd.7 (31)
0x0c0|31 32 38 2e 6c 6f 61 64 33 32 5f 7a 65 72 6f 5f|128.load32_zero_|
0x0d0|6f 66 66 73 65 74 30 5f 61 6c 69 67 6e 31      |offset0_align1  |
     |                                               |                |              d{}: 0xde-0xdf.7 (2)
0x0d0|                                          00   |              . |                tag: "funcidx" (0x0) 0xde-0xde.7 (1)
0x0d0|                                             06|               .|                x: 6 0xdf-0xdf.7 (1)
     |                                               |                |            [7]{}: ex 0xe0-0x101.7 (34)
     |                                               |                |              nm{}: 0xe0-0xff.7 (32)
0x0e0|1f                                             |.               |                n: 31 0xe0-0xe0.7 (1)
0x0e0|   76 31 32 38 2e 6c 6f 61 64 33 32 5f 7a 65 72| v128.load32_zer|                b: "v128.load32_zero_offset1_align1" 0xe1-0xff.7 (31)
0x0f0|6f 5f 6f 66 66 73 65 74 31 5f 61 6c 69 67 6e 31|o_offset1_align1|
     |                                               |                |              d{}: 0x100-0x101.7 (2)
0x100|00                                             |.               |                tag: "funcidx" (0x0) 0x100-0x100.7 (1)
0x100|   07                                          | .              |                x: 7 0x101-0x101.7 (1)
     |                                               |                |            [8]{}: ex 0x102-0x124.7 (35)
     |                                               |                |              nm{}: 0x102-0x122.7 (33)
0x100|      20                                       |                |                n: 32 0x102-0x102.7 (1)
0x100|         76 31 32 38 2e 6c 6f 61 64 33 32 5f 7a|   v128.load32_z|                b: "v128.load32_zero_offset10_align4" 0x103-0x122.7 (32)
0x110|65 72 6f 5f 6f 66 66 73 65 74 31 30 5f 61 6c 69|ero_offset10_ali|
0x120|67 6e 34                                       |gn4             |
     |                                               |                |              d{}: 0x123-0x124.7 (2)
0x120|         00                                    |   .            |                tag: "funcidx" (0x0) 0x123-0x123.7 (1)
0x120|            08                                 |    .           |                x: 8 0x124-0x124.7 (1)
     |                                               |                |            [9]{}: ex 0x125-0x13f.7 (27)
     |                                               |                |              nm{}: 0x125-0x13d.7 (25)
0x120|               18                              |     .          |                n: 24 0x125-0x125.7 (1)
0x120|                  76 31 32 38 2e 6c 6f 61 64 36|      v128.load6|                b: "v128.load64_zero_offset0" 0x126-0x13d.7 (24)
0x130|34 5f 7a 65 72 6f 5f 6f 66 66 73 65 74 30      |4_zero_offset0  |
     |                                               |                |              d{}: 0x13e-0x13f.7 (2)
0x130|                                          00   |              . |                tag: "funcidx" (0x0) 0x13e-0x13e.7 (1)
0x130|                                             09|               .|                x: 9 0x13f-0x13f.7 (1)
     |                                               |                |            [10]{}: ex 0x140-0x159.7 (26)
     |                                               |                |              nm{}: 0x140-0x157.7 (24)
0x140|17                                             |.               |                n: 23 0x140-0x140.7 (1)
0x140|   76 31 32 38 2e 6c 6f 61 64 36 34 5f 7a 65 72| v128.load64_zer|                b: "v128.load64_zero_align1" 0x141-0x157.7 (23)
0x150|6f 5f 61 6c 69 67 6e 31                        |o_align1        |
     |                                               |                |              d{}: 0x158-0x159.7 (2)
0x150|                        00                     |        .       |                tag: "funcidx" (0x0) 0x158-0x158.7 (1)
0x150|                           0a                  |         .      |                x: 10 0x159-0x159.7 (1)
     |                                               |                |            [11]{}: ex 0x15a-0x17b.7 (34)
     |                                               |                |              nm{}: 0x15a-0x179.7 (32)
0x150|                              1f               |          .     |                n: 31 0x15a-0x15a.7 (1)
0x150|                                 76 31 32 38 2e|           v128.|                b: "v128.load64_zero_offset0_align1" 0x15b-0x179.7 (31)
0x160|6c 6f 61 64 36 34 5f 7a 65 72 6f 5f 6f 66 66 73|load64_zero_offs|
0x170|65 74 30 5f 61 6c 69 67 6e 31                  |et0_align1      |
     |                                               |                |              d{}: 0x17a-0x17b.7 (2)
0x170|                              00               |          .     |                tag: "funcidx" (0x0) 0x17a-0x17a.7 (1)
0x170|                                 0b            |           .    |                x: 11 0x17b-0x17b.7 (1)
     |                                               |                |            [12]{}: ex 0x17c-0x19d.7 (34)
     |                                               |                |              nm{}: 0x17c-0x19b.7 (32)
0x170|                                    1f         |            .   |                n: 31 0x17c-0x17c.7 (1)
0x170|                                       76 31 32|             v12|                b: "v128.load64_zero_offset1_align1" 0x17d-0x19b.7 (31)
0x180|38 2e 6c 6f 61 64 36 34 5f 7a 65 72 6f 5f 6f 66|8.load64_zero_of|
0x190|66 73 65 74 31 5f 61 6c 69 67 6e 31            |fset1_align1    |
     |                                               |                |              d{}: 0x19c-0x19d.7 (2)
0x190|                                    00         |            .   |                tag: "funcidx" (0x0) 0x19c-0x19c.7 (1)
0x190|                                       0c      |             .  |                x: 12 0x19d-0x19d.7 (1)
     |                                               |                |            [13]{}: ex 0x19e-0x1c0.7 (35)
     |                                               |                |              nm{}: 0x19e-0x1be.7 (33)
0x190|                                          20   |                |                n: 32 0x19e-0x19e.7 (1)
0x190|                                             76|               v|                b: "v128.load64_zero_offset10_align4" 0x19f-0x1be.7 (32)
0x1a0|31 32 38 2e 6c 6f 61 64 36 34 5f 7a 65 72 6f 5f|128.load64_zero_|
0x1b0|6f 66 66 73 65 74 31 30 5f 61 6c 69 67 6e 34   |offset10_align4 |
     |                                               |                |              d{}: 0x1bf-0x1c0.7 (2)
0x1b0|                                             00|               .|                tag: "funcidx" (0x0) 0x1bf-0x1bf.7 (1)
0x1c0|0d                                             |.               |                x: 13 0x1c0-0x1c0.7 (1)
     |                                               |                |            [14]{}: ex 0x1c1-0x1e3.7 (35)
     |                                               |                |              nm{}: 0x1c1-0x1e1.7 (33)
0x1c0|   20                                          |                |                n: 32 0x1c1-0x1c1.7 (1)
0x1c0|      76 31 32 38 2e 6c 6f 61 64 36 34 5f 7a 65|  v128.load64_ze|                b: "v128.load64_zero_offset20_align8" 0x1c2-0x1e1.7 (32)
0x1d0|72 6f 5f 6f 66 66 73 65 74 32 30 5f 61 6c 69 67|ro_offset20_alig|
0x1e0|6e 38                                          |n8              |
     |                                               |                |              d{}: 0x1e2-0x1e3.7 (2)
0x1e0|      00                                       |  .             |                tag: "funcidx" (0x0) 0x1e2-0x1e2.7 (1)
0x1e0|         0e                                    |   .            |                x: 14 0x1e3-0x1e3.7 (1)
     |                                               |                |    [4]{}: section 0x1e4-0x26e.7 (139)
0x1e0|            0a                                 |    .           |      id: "code section" (10) 0x1e4-0x1e4.7 (1)
0x1e0|               88 01                           |     ..         |      size: 136 0x1e5-0x1e6.7 (2)
     |                                               |                |      content{}: 0x1e7-0x26e.7 (136)
     |                                               |                |        code{}: 0x1e7-0x26e.7 (136)
0x1e0|                     0f                        |       .        |          n: 15 0x1e7-0x1e7.7 (1)
     |                                               |                |          x[0:15]: 0x1e8-0x26e.7 (135)
     |                                               |                |            [0]{}: code 0x1e8-0x1f0.7 (9)
0x1e0|                        08                     |        .       |              size: 8 0x1e8-0x1e8.7 (1)
     |                                               |                |              code{}: 0x1e9-0x1f0.7 (8)
     |                                               |                |                t{}: 0x1e9-0x1e9.7 (1)
0x1e0|                           00                  |         .      |                  n: 0 0x1e9-0x1e9.7 (1)
     |                                               |                |                  x[0:0]: 0x1ea-NA (0)
     |                                               |                |                e[0:3]: 0x1ea-0x1f0.7 (7)
     |                                               |                |                  [0]{}: in 0x1ea-0x1eb.7 (2)
0x1e0|                              20               |                |                    local.get: 0x20 (valid) 0x1ea-0x1ea.7 (1)
0x1e0|                                 00            |           .    |                    x: 0 0x1eb-0x1eb.7 (1)
     |                                               |                |                  [1]{}: in 0x1ec-0x1ef.7 (4)
0x1e0|                                    fd         |            .   |                    prefix: 0xfd (valid) 0x1ec-0x1ec.7 (1)
0x1e0|                                       5c      |             \  |                    v128.load32_zero: 92 (valid) 0x1ed-0x1ed.7 (1)
     |                                               |                |                    m{}: 0x1ee-0x1ef.7 (2)
0x1e0|                                          02   |              . |                      a: 2 0x1ee-0x1ee.7 (1)
0x1e0|                                             00|               .|                      o: 0 0x1ef-0x1ef.7 (1)
     |                                               |                |                  [2]{}: in 0x1f0-0x1f0.7 (1)
0x1f0|0b                                             |.               |                    end: 0xb (valid) 0x1f0-0x1f0.7 (1)
     |                                               |                |            [1]{}: code 0x1f1-0x1f9.7 (9)
0x1f0|   08                                          | .              |              size: 8 0x1f1-0x1f1.7 (1)
     |                                               |                |              code{}: 0x1f2-0x1f9.7 (8)
     |                                               |                |                t{}: 0x1f2-0x1f2.7 (1)
0x1f0|      00                                       |  .             |                  n: 0 0x1f2-0x1f2.7 (1)
     |                                               |                |                  x[0:0]: 0x1f3-NA (0)
     |                                               |                |                e[0:3]: 0x1f3-0x1f9.7 (7)
     |                                               |                |                  [0]{}: in 0x1f3-0x1f4.7 (2)
0x1f0|         20                                    |                |                    local.get: 0x20 (valid) 0x1f3-0x1f3.7 (1)
0x1f0|            00                                 |    .           |                    x: 0 0x1f4-0x1f4.7 (1)
     |                                               |                |                  [1]{}: in 0x1f5-0x1f8.7 (4)
0x1f0|               fd                              |     .          |                    prefix: 0xfd (valid) 0x1f5-0x1f5.7 (1)
0x1f0|                  5d                           |      ]         |                    v128.load64_zero: 93 (valid) 0x1f6-0x1f6.7 (1)
     |                                               |                |                    m{}: 0x1f7-0x1f8.7 (2)
0x1f0|                     03                        |       .        |                      a: 3 0x1f7-0x1f7.7 (1)
0x1f0|                        00                     |        .       |                      o: 0 0x1f8-0x1f8.7 (1)
     |                                               |                |                  [2]{}: in 0x1f9-0x1f9.7 (1)
0x1f0|                           0b                  |         .      |                    end: 0xb (valid) 0x1f9-0x1f9.7 (1)
     |                                               |                |            [2]{}: code 0x1fa-0x202.7 (9)
0x1f0|                              08               |          .     |              size: 8 0x1fa-0x1fa.7 (1)
     |                                               |                |              code{}: 0x1fb-0x202.7 (8)
     |                                               |                |                t{}: 0x1fb-0x1fb.7 (1)
0x1f0|                                 00            |           .    |                  n: 0 0x1fb-0x1fb.7 (1)
     |                                               |                |                  x[0:0]: 0x1fc-NA (0)
     |                                               |                |                e[0:3]: 0x1fc-0x202.7 (7)
     |                                               |                |                  [0]{}: in 0x1fc-0x1fd.7 (2)
0x1f0|                                    41         |            A   |                    i32.const: 0x41 (valid) 0x1fc-0x1fc.7 (1)
0x1f0|                                       00      |             .  |                    n: 0 0x1fd-0x1fd.7 (1)
     |                                               |                |                  [1]{}: in 0x1fe-0x201.7 (4)
0x1f0|                                          fd   |              . |                    prefix: 0xfd (valid) 0x1fe-0x1fe.7 (1)
0x1f0|                                             5c|               \|                    v128.load32_zero: 92 (valid) 0x1ff-0x1ff.7 (1)
     |                                               |                |                    m{}: 0x200-0x201.7 (2)
0x200|02                                             |.               |                      a: 2 0x200-0x200.7 (1)
0x200|   00                                          | .              |                      o: 0 0x201-0x201.7 (1)
     |                                               |                |                  [2]{}: in 0x202-0x202.7 (1)
0x200|      0b                                       |  .             |                    end: 0xb (valid) 0x202-0x202.7 (1)
     |                                               |                |            [3]{}: code 0x203-0x20b.7 (9)
0x200|         08                                    |   .            |              size: 8 0x203-0x203.7 (1)
     |                                               |                |              code{}: 0x204-0x20b.7 (8)
     |                                               |                |                t{}: 0x204-0x204.7 (1)
0x200|            00                                 |    .           |                  n: 0 0x204-0x204.7 (1)
     |                                               |                |                  x[0:0]: 0x205-NA (0)
     |                                               |                |                e[0:3]: 0x205-0x20b.7 (7)
     |                                               |                |                  [0]{}: in 0x205-0x206.7 (2)
0x200|               41                              |     A          |                    i32.const: 0x41 (valid) 0x205-0x205.7 (1)
0x200|                  08                           |      .         |                    n: 8 0x206-0x206.7 (1)
     |                                               |                |                  [1]{}: in 0x207-0x20a.7 (4)
0x200|                     fd                        |       .        |                    prefix: 0xfd (valid) 0x207-0x207.7 (1)
0x200|                        5d                     |        ]       |                    v128.load64_zero: 93 (valid) 0x208-0x208.7 (1)
     |                                               |                |                    m{}: 0x209-0x20a.7 (2)
0x200|                           03                  |         .      |                      a: 3 0x209-0x209.7 (1)
0x200|                              00               |          .     |                      o: 0 0x20a-0x20a.7 (1)
     |                                               |                |                  [2]{}: in 0x20b-0x20b.7 (1)
0x200|                                 0b            |           .    |                    end: 0xb (valid) 0x20b-0x20b.7 (1)
     |                                               |                |            [4]{}: code 0x20c-0x214.7 (9)
0x200|                                    08         |            .   |              size: 8 0x20c-0x20c.7 (1)
     |                                               |                |              code{}: 0x20d-0x214.7 (8)
     |                                               |                |                t{}: 0x20d-0x20d.7 (1)
0x200|                                       00      |             .  |                  n: 0 0x20d-0x20d.7 (1)
     |                                               |                |                  x[0:0]: 0x20e-NA (0)
     |                                               |                |                e[0:3]: 0x20e-0x214.7 (7)
     |                                               |                |                  [0]{}: in 0x20e-0x20f.7 (2)
0x200|                                          20   |                |                    local.get: 0x20 (valid) 0x20e-0x20e.7 (1)
0x200|                                             00|               .|                    x: 0 0x20f-0x20f.7 (1)
     |                                               |                |                  [1]{}: in 0x210-0x213.7 (4)
0x210|fd                                             |.               |                    prefix: 0xfd (valid) 0x210-0x210.7 (1)
0x210|   5c                                          | \              |                    v128.load32_zero: 92 (valid) 0x211-0x211.7 (1)
     |                                               |                |                    m{}: 0x212-0x213.7 (2)
0x210|      02                                       |  .             |                      a: 2 0x212-0x212.7 (1)
0x210|         00                                    |   .            |                      o: 0 0x213-0x213.7 (1)
     |                                               |                |                  [2]{}: in 0x214-0x214.7 (1)
0x210|            0b                                 |    .           |                    end: 0xb (valid) 0x214-0x214.7 (1)
     |                                               |                |            [5]{}: code 0x215-0x21d.7 (9)
0x210|               08                              |     .          |              size: 8 0x215-0x215.7 (1)
     |                                               |                |              code{}: 0x216-0x21d.7 (8)
     |                                               |                |                t{}: 0x216-0x216.7 (1)
0x210|                  00                           |      .         |                  n: 0 0x216-0x216.7 (1)
     |                                               |                |                  x[0:0]: 0x217-NA (0)
     |                                               |                |                e[0:3]: 0x217-0x21d.7 (7)
     |                                               |                |                  [0]{}: in 0x217-0x218.7 (2)
0x210|                     20                        |                |                    local.get: 0x20 (valid) 0x217-0x217.7 (1)
0x210|                        00                     |        .       |                    x: 0 0x218-0x218.7 (1)
     |                                               |                |                  [1]{}: in 0x219-0x21c.7 (4)
0x210|                           fd                  |         .      |                    prefix: 0xfd (valid) 0x219-0x219.7 (1)
0x210|                              5c               |          \     |                    v128.load32_zero: 92 (valid) 0x21a-0x21a.7 (1)
     |                                               |                |                    m{}: 0x21b-0x21c.7 (2)
0x210|                                 00            |           .    |                      a: 0 0x21b-0x21b.7 (1)
0x210|                                    00         |            .   |                      o: 0 0x21c-0x21c.7 (1)
     |                                               |                |                  [2]{}: in 0x21d-0x21d.7 (1)
0x210|                                       0b      |             .  |                    end: 0xb (valid) 0x21d-0x21d.7 (1)
     |                                               |                |            [6]{}: code 0x21e-0x226.7 (9)
0x210|                                          08   |              . |              size: 8 0x21e-0x21e.7 (1)
     |                                               |                |              code{}: 0x21f-0x226.7 (8)
     |                                               |                |                t{}: 0x21f-0x21f.7 (1)
0x210|                                             00|               .|                  n: 0 0x21f-0x21f.7 (1)
     |                                               |                |                  x[0:0]: 0x220-NA (0)
     |                                               |                |                e[0:3]: 0x220-0x226.7 (7)
     |                                               |                |                  [0]{}: in 0x220-0x221.7 (2)
0x220|20                                             |                |                    local.get: 0x20 (valid) 0x220-0x220.7 (1)
0x220|   00                                          | .              |                    x: 0 0x221-0x221.7 (1)
     |                                               |                |                  [1]{}: in 0x222-0x225.7 (4)
0x220|      fd                                       |  .             |                    prefix: 0xfd (valid) 0x222-0x222.7 (1)
0x220|         5c                                    |   \            |                    v128.load32_zero: 92 (valid) 0x223-0x223.7 (1)
     |                                               |                |                    m{}: 0x224-0x225.7 (2)
0x220|            00                                 |    .           |                      a: 0 0x224-0x224.7 (1)
0x220|               00                              |     .          |                      o: 0 0x225-0x225.7 (1)
     |                                               |                |                  [2]{}: in 0x226-0x226.7 (1)
0x220|                  0b                           |      .         |                    end: 0xb (valid) 0x226-0x226.7 (1)
     |                                               |                |            [7]{}: code 0x227-0x22f.7 (9)
0x220|                     08                        |       .        |              size: 8 0x227-0x227.7 (1)
     |                                               |                |              code{}: 0x228-0x22f.7 (8)
     |                                               |                |                t{}: 0x228-0x228.7 (1)
0x220|                        00                     |        .       |                  n: 0 0x228-0x228.7 (1)
     |                                               |                |                  x[0:0]: 0x229-NA (0)
     |                                               |                |                e[0:3]: 0x229-0x22f.7 (7)
     |                                               |                |                  [0]{}: in 0x229-0x22a.7 (2)
0x220|                           20                  |                |                    local.get: 0x20 (valid) 0x229-0x229.7 (1)
0x220|                              00               |          .     |                    x: 0 0x22a-0x22a.7 (1)
     |                                               |                |                  [1]{}: in 0x22b-0x22e.7 (4)
0x220|                                 fd            |           .    |                    prefix: 0xfd (valid) 0x22b-0x22b.7 (1)
0x220|                                    5c         |            \   |                    v128.load32_zero: 92 (valid) 0x22c-0x22c.7 (1)
     |                                               |                |                    m{}: 0x22d-0x22e.7 (2)
0x220|                                       00      |             .  |                      a: 0 0x22d-0x22d.7 (1)
0x220|                                          01   |              . |                      o: 1 0x22e-0x22e.7 (1)
     |                                               |                |                  [2]{}: in 0x22f-0x22f.7 (1)
0x220|                                             0b|               .|                    end: 0xb (valid) 0x22f-0x22f.7 (1)
     |                                               |                |            [8]{}: code 0x230-0x238.7 (9)
0x230|08                                             |.               |              size: 8 0x230-0x230.7 (1)
     |                                               |                |              code{}: 0x231-0x238.7 (8)
     |                                               |                |                t{}: 0x231-0x231.7 (1)
0x230|   00                                          | .              |                  n: 0 0x231-0x231.7 (1)
     |                                               |                |                  x[0:0]: 0x232-NA (0)
     |                                               |                |                e[0:3]: 0x232-0x238.7 (7)
     |                                               |                |                  [0]{}: in 0x232-0x233.7 (2)
0x230|      20                                       |                |                    local.get: 0x20 (valid) 0x232-0x232.7 (1)
0x230|         00                                    |   .            |                    x: 0 0x233-0x233.7 (1)
     |                                               |                |                  [1]{}: in 0x234-0x237.7 (4)
0x230|            fd                                 |    .           |                    prefix: 0xfd (valid) 0x234-0x234.7 (1)
0x230|               5c                              |     \          |                    v128.load32_zero: 92 (valid) 0x235-0x235.7 (1)
     |                                               |                |                    m{}: 0x236-0x237.7 (2)
0x230|                  02                           |      .         |                      a: 2 0x236-0x236.7 (1)
0x230|                     0a                        |       .        |                      o: 10 0x237-0x237.7 (1)
     |                                               |                |                  [2]{}: in 0x238-0x238.7 (1)
0x230|                        0b                     |        .       |                    end: 0xb (valid) 0x238-0x238.7 (1)
     |                                               |                |            [9]{}: code 0x239-0x241.7 (9)
0x230|                           08                  |         .      |              size: 8 0x239-0x239.7 (1)
     |                                               |                |              code{}: 0x23a-0x241.7 (8)
     |                                               |                |                t{}: 0x23a-0x23a.7 (1)
0x230|                              00               |          .     |                  n: 0 0x23a-0x23a.7 (1)
     |                                               |                |                  x[0:0]: 0x23b-NA (0)
     |                                               |                |                e[0:3]: 0x23b-0x241.7 (7)
     |                                               |                |                  [0]{}: in 0x23b-0x23c.7 (2)
0x230|                                 20            |                |                    local.get: 0x20 (valid) 0x23b-0x23b.7 (1)
0x230|                                    00         |            .   |                    x: 0 0x23c-0x23c.7 (1)
     |                                               |                |                  [1]{}: in 0x23d-0x240.7 (4)
0x230|                                       fd      |             .  |                    prefix: 0xfd (valid) 0x23d-0x23d.7 (1)
0x230|                                          5d   |              ] |                    v128.load64_zero: 93 (valid) 0x23e-0x23e.7 (1)
     |                                               |                |                    m{}: 0x23f-0x240.7 (2)
0x230|                                             03|               .|                      a: 3 0x23f-0x23f.7 (1)
0x240|00                                             |.               |                      o: 0 0x240-0x240.7 (1)
     |                                               |                |                  [2]{}: in 0x241-0x241.7 (1)
0x240|   0b                                          | .              |                    end: 0xb (valid) 0x241-0x241.7 (1)
     |                                               |                |            [10]{}: code 0x242-0x24a.7 (9)
0x240|      08                                       |  .             |              size: 8 0x242-0x242.7 (1)
     |                                               |                |              code{}: 0x243-0x24a.7 (8)
     |                                               |                |                t{}: 0x243-0x243.7 (1)
0x240|         00                                    |   .            |                  n: 0 0x243-0x243.7 (1)
     |                                               |                |                  x[0:0]: 0x244-NA (0)
     |                                               |                |                e[0:3]: 0x244-0x24a.7 (7)
     |                                               |                |                  [0]{}: in 0x244-0x245.7 (2)
0x240|            20                                 |                |                    local.get: 0x20 (valid) 0x244-0x244.7 (1)
0x240|               00                              |     .          |                    x: 0 0x245-0x245.7 (1)
     |                                               |                |                  [1]{}: in 0x246-0x249.7 (4)
0x240|                  fd                           |      .         |                    prefix: 0xfd (valid) 0x246-0x246.7 (1)
0x240|                     5d                        |       ]        |                    v128.load64_zero: 93 (valid) 0x247-0x247.7 (1)
     |                                               |                |                    m{}: 0x248-0x249.7 (2)
0x240|                        00                     |        .       |                      a: 0 0x248-0x248.7 (1)
0x240|                           00                  |         .      |                      o: 0 0x249-0x249.7 (1)
     |                                               |                |                  [2]{}: in 0x24a-0x24a.7 (1)
0x240|                              0b               |          .     |                    end: 0xb (valid) 0x24a-0x24a.7 (1)
     |                                               |                |            [11]{}: code 0x24b-0x253.7 (9)
0x240|                                 08            |           .    |              size: 8 0x24b-0x24b.7 (1)
     |                                               |                |              code{}: 0x24c-0x253.7 (8)
     |                                               |                |                t{}: 0x24c-0x24c.7 (1)
0x240|                                    00         |            .   |                  n: 0 0x24c-0x24c.7 (1)
     |                                               |                |                  x[0:0]: 0x24d-NA (0)
     |                                               |                |                e[0:3]: 0x24d-0x253.7 (7)
     |                                               |                |                  [0]{}: in 0x24d-0x24e.7 (2)
0x240|                                       20      |                |                    local.get: 0x20 (valid) 0x24d-0x24d.7 (1)
0x240|                                          00   |              . |                    x: 0 0x24e-0x24e.7 (1)
     |                                               |                |                  [1]{}: in 0x24f-0x252.7 (4)
0x240|                                             fd|               .|                    prefix: 0xfd (valid) 0x24f-0x24f.7 (1)
0x250|5d                                             |]               |                    v128.load64_zero: 93 (valid) 0x250-0x250.7 (1)
     |                                               |                |                    m{}: 0x251-0x252.7 (2)
0x250|   00                                          | .              |                      a: 0 0x251-0x251.7 (1)
0x250|      00                                       |  .             |                      o: 0 0x252-0x252.7 (1)
     |                                               |                |                  [2]{}: in 0x253-0x253.7 (1)
0x250|         0b                                    |   .            |                    end: 0xb (valid) 0x253-0x253.7 (1)
     |                                               |                |            [12]{}: code 0x254-0x25c.7 (9)
0x250|            08                                 |    .           |              size: 8 0x254-0x254.7 (1)
     |                                               |                |              code{}: 0x255-0x25c.7 (8)
     |                                               |                |                t{}: 0x255-0x255.7 (1)
0x250|               00                              |     .          |                  n: 0 0x255-0x255.7 (1)
     |                                               |                |                  x[0:0]: 0x256-NA (0)
     |                                               |                |                e[0:3]: 0x256-0x25c.7 (7)
     |                                               |                |                  [0]{}: in 0x256-0x257.7 (2)
0x250|                  20                           |                |                    local.get: 0x20 (valid) 0x256-0x256.7 (1)
0x250|                     00                        |       .        |                    x: 0 0x257-0x257.7 (1)
     |                                               |                |                  [1]{}: in 0x258-0x25b.7 (4)
0x250|                        fd                     |        .       |                    prefix: 0xfd (valid) 0x258-0x258.7 (1)
0x250|                           5d                  |         ]      |                    v128.load64_zero: 93 (valid) 0x259-0x259.7 (1)
     |                                               |                |                    m{}: 0x25a-0x25b.7 (2)
0x250|                              00               |          .     |                      a: 0 0x25a-0x25a.7 (1)
0x250|                                 01            |           .    |                      o: 1 0x25b-0x25b.7 (1)
     |                                               |                |                  [2]{}: in 0x25c-0x25c.7 (1)
0x250|                                    0b         |            .   |                    end: 0xb (valid) 0x25c-0x25c.7 (1)
     |                                               |                |            [13]{}: code 0x25d-0x265.7 (9)
0x250|                                       08      |             .  |              size: 8 0x25d-0x25d.7 (1)
     |                                               |                |              code{}: 0x25e-0x265.7 (8)
     |                                               |                |                t{}: 0x25e-0x25e.7 (1)
0x250|                                          00   |              . |                  n: 0 0x25e-0x25e.7 (1)
     |                                               |                |                  x[0:0]: 0x25f-NA (0)
     |                                               |                |                e[0:3]: 0x25f-0x265.7 (7)
     |                                               |                |                  [0]{}: in 0x25f-0x260.7 (2)
0x250|                                             20|                |                    local.get: 0x20 (valid) 0x25f-0x25f.7 (1)
0x260|00                                             |.               |                    x: 0 0x260-0x260.7 (1)
     |                                               |                |                  [1]{}: in 0x261-0x264.7 (4)
0x260|   fd                                          | .              |                    prefix: 0xfd (valid) 0x261-0x261.7 (1)
0x260|      5d                                       |  ]             |                    v128.load64_zero: 93 (valid) 0x262-0x262.7 (1)
     |                                               |                |                    m{}: 0x263-0x264.7 (2)
0x260|         02                                    |   .            |                      a: 2 0x263-0x263.7 (1)
0x260|            0a                                 |    .           |                      o: 10 0x264-0x264.7 (1)
     |                                               |                |                  [2]{}: in 0x265-0x265.7 (1)
0x260|               0b                              |     .          |                    end: 0xb (valid) 0x265-0x265.7 (1)
     |                                               |                |            [14]{}: code 0x266-0x26e.7 (9)
0x260|                  08                           |      .         |              size: 8 0x266-0x266.7 (1)
     |                                               |                |              code{}: 0x267-0x26e.7 (8)
     |                                               |                |                t{}: 0x267-0x267.7 (1)
0x260|                     00                        |       .        |                  n: 0 0x267-0x267.7 (1)
     |                                               |                |                  x[0:0]: 0x268-NA (0)
     |                                               |                |                e[0:3]: 0x268-0x26e.7 (7)
     |                                               |                |                  [0]{}: in 0x268-0x269.7 (2)
0x260|                        20                     |                |                    local.get: 0x20 (valid) 0x268-0x268.7 (1)
0x260|                           00                  |         .      |                    x: 0 0x269-0x269.7 (1)
     |                                               |                |                  [1]{}: in 0x26a-0x26d.7 (4)
0x260|                              fd               |          .     |                    prefix: 0xfd (valid) 0x26a-0x26a.7 (1)
0x260|                                 5d            |           ]    |                    v128.load64_zero: 93 (valid) 0x26b-0x26b.7 (1)
     |                                               |                |                    m{}: 0x26c-0x26d.7 (2)
0x260|                                    03         |            .   |                      a: 3 0x26c-0x26c.7 (1)
0x260|                                       14      |             .  |                      o: 20 0x26d-0x26d.7 (1)
     |                                               |                |                  [2]{}: in 0x26e-0x26e.7 (1)
0x260|                                          0b   |              . |                    end: 0xb (valid) 0x26e-0x26e.7 (1)
     |                                               |                |    [5]{}: section 0x26f-0x2a7.7 (57)
0x260|                                             0b|               .|      id: "data section" (11) 0x26f-0x26f.7 (1)
0x270|37                                             |7               |      size: 55 0x270-0x270.7 (1)
     |                                               |                |      content{}: 0x271-0x2a7.7 (55)
     |                                               |                |        seg{}: 0x271-0x2a7.7 (55)
0x270|   02                                          | .              |          n: 2 0x271-0x271.7 (1)
     |                                               |                |          x[0:2]: 0x272-0x2a7.7 (54)
     |                                               |                |            [0]{}: seg 0x272-0x290.7 (31)
0x270|      00                                       |  .             |              tag: 0 0x272-0x272.7 (1)
     |                                               |                |              e[0:2]: 0x273-0x275.7 (3)
     |                                               |                |                [0]{}: in 0x273-0x274.7 (2)
0x270|         41                                    |   A            |                  i32.const: 0x41 (valid) 0x273-0x273.7 (1)
0x270|            00                                 |    .           |                  n: 0 0x274-0x274.7 (1)
     |                                               |                |                [1]{}: in 0x275-0x275.7 (1)
0x270|               0b                              |     .          |                  end: 0xb (valid) 0x275-0x275.7 (1)
     |                                               |                |              b{}: 0x276-0x290.7 (27)
0x270|                  1a                           |      .         |                n: 26 0x276-0x276.7 (1)
0x270|                     00 01 02 03 04 05 06 07 08|       .........|                x: raw bits 0x277-0x290.7 (26)
0x280|09 0a 0b 0c 0d 0e 0f 80 81 82 83 84 85 86 87 88|................|
0x290|89                                             |.               |
     |                                               |                |            [1]{}: seg 0x291-0x2a7.7 (23)
0x290|   00                                          | .              |              tag: 0 0x291-0x291.7 (1)
     |                                               |                |              e[0:2]: 0x292-0x296.7 (5)
     |                                               |                |                [0]{}: in 0x292-0x295.7 (4)
0x290|      41                                       |  A             |                  i32.const: 0x41 (valid) 0x292-0x292.7 (1)
0x290|         f0 ff 03                              |   ...          |                  n: 65520 0x293-0x295.7 (3)
     |                                               |                |                [1]{}: in 0x296-0x296.7 (1)
0x290|                  0b                           |      .         |                  end: 0xb (valid) 0x296-0x296.7 (1)
     |                                               |                |              b{}: 0x297-0x2a7.7 (17)
0x290|                     10                        |       .        |                n: 16 0x297-0x297.7 (1)
0x290|                        0a 0b 0c 0d 0e 0f 80 81|        ........|                x: raw bits 0x298-0x2a7.7 (16)
0x2a0|82 83 84 85 86 87 88 89|                       |........|       |
