$ fq -d wasm dv simd_store64_lane-0.wasm
     |00 01 02 03 04 05 06 07 08 09 0a 0b 0c 0d 0e 0f|0123456789abcdef|.{}: simd_store64_lane-0.wasm (wasm) 0x0-0x318 (792)
0x000|00 61 73 6d                                    |.asm            |  magic: raw bits (valid) 0x0-0x4 (4)
0x000|            01 00 00 00                        |    ....        |  version: 1 0x4-0x8 (4)
     |                                               |                |  sections[0:6]: 0x8-0x318 (784)
     |                                               |                |    [0]{}: section 0x8-0x16 (14)
0x000|                        01                     |        .       |      id: "type_section" (1) 0x8-0x9 (1)
0x000|                           0c                  |         .      |      size: 12 (valid) 0x9-0xa (1)
     |                                               |                |      content{}: 0xa-0x16 (12)
     |                                               |                |        ft{}: 0xa-0x16 (12)
0x000|                              02               |          .     |          n: 2 (valid) 0xa-0xb (1)
     |                                               |                |          x[0:2]: 0xb-0x16 (11)
     |                                               |                |            [0]{}: ft 0xb-0x11 (6)
0x000|                                 60            |           `    |              tag: 0x60 (valid) 0xb-0xc (1)
     |                                               |                |              rt1{}: 0xc-0xf (3)
0x000|                                    02         |            .   |                n: 2 (valid) 0xc-0xd (1)
     |                                               |                |                x[0:2]: 0xd-0xf (2)
0x000|                                       7f      |             .  |                  [0]: "i32" (0x7f) t 0xd-0xe (1)
0x000|                                          7b   |              { |                  [1]: "v128" (0x7b) t 0xe-0xf (1)
     |                                               |                |              rt2{}: 0xf-0x11 (2)
0x000|                                             01|               .|                n: 1 (valid) 0xf-0x10 (1)
     |                                               |                |                x[0:1]: 0x10-0x11 (1)
0x010|7e                                             |~               |                  [0]: "i64" (0x7e) t 0x10-0x11 (1)
     |                                               |                |            [1]{}: ft 0x11-0x16 (5)
0x010|   60                                          | `              |              tag: 0x60 (valid) 0x11-0x12 (1)
     |                                               |                |              rt1{}: 0x12-0x14 (2)
0x010|      01                                       |  .             |                n: 1 (valid) 0x12-0x13 (1)
     |                                               |                |                x[0:1]: 0x13-0x14 (1)
0x010|         7b                                    |   {            |                  [0]: "v128" (0x7b) t 0x13-0x14 (1)
     |                                               |                |              rt2{}: 0x14-0x16 (2)
0x010|            01                                 |    .           |                n: 1 (valid) 0x14-0x15 (1)
     |                                               |                |                x[0:1]: 0x15-0x16 (1)
0x010|               7e                              |     ~          |                  [0]: "i64" (0x7e) t 0x15-0x16 (1)
     |                                               |                |    [1]{}: section 0x16-0x25 (15)
0x010|                  03                           |      .         |      id: "function_section" (3) 0x16-0x17 (1)
0x010|                     0d                        |       .        |      size: 13 (valid) 0x17-0x18 (1)
     |                                               |                |      content{}: 0x18-0x25 (13)
     |                                               |                |        x{}: 0x18-0x25 (13)
0x010|                        0c                     |        .       |          n: 12 (valid) 0x18-0x19 (1)
     |                                               |                |          x[0:12]: 0x19-0x25 (12)
0x010|                           00                  |         .      |            [0]: 0 x (valid) 0x19-0x1a (1)
0x010|                              00               |          .     |            [1]: 0 x (valid) 0x1a-0x1b (1)
0x010|                                 01            |           .    |            [2]: 1 x (valid) 0x1b-0x1c (1)
0x010|                                    01         |            .   |            [3]: 1 x (valid) 0x1c-0x1d (1)
0x010|                                       00      |             .  |            [4]: 0 x (valid) 0x1d-0x1e (1)
0x010|                                          00   |              . |            [5]: 0 x (valid) 0x1e-0x1f (1)
0x010|                                             00|               .|            [6]: 0 x (valid) 0x1f-0x20 (1)
0x020|00                                             |.               |            [7]: 0 x (valid) 0x20-0x21 (1)
0x020|   00                                          | .              |            [8]: 0 x (valid) 0x21-0x22 (1)
0x020|      00                                       |  .             |            [9]: 0 x (valid) 0x22-0x23 (1)
0x020|         00                                    |   .            |            [10]: 0 x (valid) 0x23-0x24 (1)
0x020|            00                                 |    .           |            [11]: 0 x (valid) 0x24-0x25 (1)
     |                                               |                |    [2]{}: section 0x25-0x2a (5)
0x020|               05                              |     .          |      id: "memory_section" (5) 0x25-0x26 (1)
0x020|                  03                           |      .         |      size: 3 (valid) 0x26-0x27 (1)
     |                                               |                |      content{}: 0x27-0x2a (3)
     |                                               |                |        mem{}: 0x27-0x2a (3)
0x020|                     01                        |       .        |          n: 1 (valid) 0x27-0x28 (1)
     |                                               |                |          x[0:1]: 0x28-0x2a (2)
     |                                               |                |            [0]{}: mem 0x28-0x2a (2)
     |                                               |                |              lim{}: 0x28-0x2a (2)
0x020|                        00                     |        .       |                tag: 0x0 0x28-0x29 (1)
0x020|                           01                  |         .      |                n: 1 (valid) 0x29-0x2a (1)
     |                                               |                |    [3]{}: section 0x2a-0x42 (24)
0x020|                              06               |          .     |      id: "global_section" (6) 0x2a-0x2b (1)
0x020|                                 16            |           .    |      size: 22 (valid) 0x2b-0x2c (1)
     |                                               |                |      content{}: 0x2c-0x42 (22)
     |                                               |                |        glob{}: 0x2c-0x42 (22)
0x020|                                    01         |            .   |          n: 1 (valid) 0x2c-0x2d (1)
     |                                               |                |          x[0:1]: 0x2d-0x42 (21)
     |                                               |                |            [0]{}: glob 0x2d-0x42 (21)
     |                                               |                |              gt{}: 0x2d-0x2f (2)
0x020|                                       7b      |             {  |                t: "v128" (0x7b) 0x2d-0x2e (1)
0x020|                                          01   |              . |                m: "var" (1) 0x2e-0x2f (1)
     |                                               |                |              e[0:2]: 0x2f-0x42 (19)
     |                                               |                |                [0]{}: in 0x2f-0x41 (18)
0x020|                                             fd|               .|                  opcode: "vector" (0xfd) 0x2f-0x30 (1)
0x030|0c                                             |.               |                  v_opcode: "v128.const" (12) 0x30-0x31 (1)
0x030|   00 00 00 00 00 00 00 00 00 00 00 00 00 00 00| ...............|                  bytes: raw bits 0x31-0x41 (16)
0x040|00                                             |.               |
     |                                               |                |                [1]{}: in 0x41-0x42 (1)
0x040|   0b                                          | .              |                  opcode: "end" (0xb) 0x41-0x42 (1)
     |                                               |                |    [4]{}: section 0x42-0x1a0 (350)
0x040|      07                                       |  .             |      id: "export_section" (7) 0x42-0x43 (1)
0x040|         db 02                                 |   ..           |      size: 347 (valid) 0x43-0x45 (2)
     |                                               |                |      content{}: 0x45-0x1a0 (347)
     |                                               |                |        ex{}: 0x45-0x1a0 (347)
0x040|               0c                              |     .          |          n: 12 (valid) 0x45-0x46 (1)
     |                                               |                |          x[0:12]: 0x46-0x1a0 (346)
     |                                               |                |            [0]{}: ex 0x46-0x5c (22)
     |                                               |                |              nm{}: 0x46-0x5a (20)
0x040|                  13                           |      .         |                n: 19 (valid) 0x46-0x47 (1)
0x040|                     76 31 32 38 2e 73 74 6f 72|       v128.stor|                b: "v128.store64_lane_0" 0x47-0x5a (19)
0x050|65 36 34 5f 6c 61 6e 65 5f 30                  |e64_lane_0      |
     |                                               |                |              d{}: 0x5a-0x5c (2)
0x050|                              00               |          .     |                tag: "funcidx" (0x0) 0x5a-0x5b (1)
0x050|                                 00            |           .    |                x: 0 (valid) 0x5b-0x5c (1)
     |                                               |                |            [1]{}: ex 0x5c-0x72 (22)
     |                                               |                |              nm{}: 0x5c-0x70 (20)
0x050|                                    13         |            .   |                n: 19 (valid) 0x5c-0x5d (1)
0x050|                                       76 31 32|             v12|                b: "v128.store64_lane_1" 0x5d-0x70 (19)
0x060|38 2e 73 74 6f 72 65 36 34 5f 6c 61 6e 65 5f 31|8.store64_lane_1|
     |                                               |                |              d{}: 0x70-0x72 (2)
0x070|00                                             |.               |                tag: "funcidx" (0x0) 0x70-0x71 (1)
0x070|   01                                          | .              |                x: 1 (valid) 0x71-0x72 (1)
     |                                               |                |            [2]{}: ex 0x72-0x91 (31)
     |                                               |                |              nm{}: 0x72-0x8f (29)
0x070|      1c                                       |  .             |                n: 28 (valid) 0x72-0x73 (1)
0x070|         76 31 32 38 2e 73 74 6f 72 65 36 34 5f|   v128.store64_|                b: "v128.store64_lane_0_offset_0" 0x73-0x8f (28)
0x080|6c 61 6e 65 5f 30 5f 6f 66 66 73 65 74 5f 30   |lane_0_offset_0 |
     |                                               |                |              d{}: 0x8f-0x91 (2)
0x080|                                             00|               .|                tag: "funcidx" (0x0) 0x8f-0x90 (1)
0x090|02                                             |.               |                x: 2 (valid) 0x90-0x91 (1)
     |                                               |                |            [3]{}: ex 0x91-0xb0 (31)
     |                                               |                |              nm{}: 0x91-0xae (29)
0x090|   1c                                          | .              |                n: 28 (valid) 0x91-0x92 (1)
0x090|      76 31 32 38 2e 73 74 6f 72 65 36 34 5f 6c|  v128.store64_l|                b: "v128.store64_lane_1_offset_1" 0x92-0xae (28)
0x0a0|61 6e 65 5f 31 5f 6f 66 66 73 65 74 5f 31      |ane_1_offset_1  |
     |                                               |                |              d{}: 0xae-0xb0 (2)
0x0a0|                                          00   |              . |                tag: "funcidx" (0x0) 0xae-0xaf (1)
0x0a0|                                             03|               .|                x: 3 (valid) 0xaf-0xb0 (1)
     |                                               |                |            [4]{}: ex 0xb0-0xce (30)
     |                                               |                |              nm{}: 0xb0-0xcc (28)
0x0b0|1b                                             |.               |                n: 27 (valid) 0xb0-0xb1 (1)
0x0b0|   76 31 32 38 2e 73 74 6f 72 65 36 34 5f 6c 61| v128.store64_la|                b: "v128.store64_lane_0_align_1" 0xb1-0xcc (27)
0x0c0|6e 65 5f 30 5f 61 6c 69 67 6e 5f 31            |ne_0_align_1    |
     |                                               |                |              d{}: 0xcc-0xce (2)
0x0c0|                                    00         |            .   |                tag: "funcidx" (0x0) 0xcc-0xcd (1)
0x0c0|                                       04      |             .  |                x: 4 (valid) 0xcd-0xce (1)
     |                                               |                |            [5]{}: ex 0xce-0xec (30)
     |                                               |                |              nm{}: 0xce-0xea (28)
0x0c0|                                          1b   |              . |                n: 27 (valid) 0xce-0xcf (1)
0x0c0|                                             76|               v|                b: "v128.store64_lane_0_align_2" 0xcf-0xea (27)
0x0d0|31 32 38 2e 73 74 6f 72 65 36 34 5f 6c 61 6e 65|128.store64_lane|
0x0e0|5f 30 5f 61 6c 69 67 6e 5f 32                  |_0_align_2      |
     |                                               |                |              d{}: 0xea-0xec (2)
0x0e0|                              00               |          .     |                tag: "funcidx" (0x0) 0xea-0xeb (1)
0x0e0|                                 05            |           .    |                x: 5 (valid) 0xeb-0xec (1)
     |                                               |                |            [6]{}: ex 0xec-0x10a (30)
     |                                               |                |              nm{}: 0xec-0x108 (28)
0x0e0|                                    1b         |            .   |                n: 27 (valid) 0xec-0xed (1)
0x0e0|                                       76 31 32|             v12|                b: "v128.store64_lane_0_align_4" 0xed-0x108 (27)
0x0f0|38 2e 73 74 6f 72 65 36 34 5f 6c 61 6e 65 5f 30|8.store64_lane_0|
0x100|5f 61 6c 69 67 6e 5f 34                        |_align_4        |
     |                                               |                |              d{}: 0x108-0x10a (2)
0x100|                        00                     |        .       |                tag: "funcidx" (0x0) 0x108-0x109 (1)
0x100|                           06                  |         .      |                x: 6 (valid) 0x109-0x10a (1)
     |                                               |                |            [7]{}: ex 0x10a-0x128 (30)
     |                                               |                |              nm{}: 0x10a-0x126 (28)
0x100|                              1b               |          .     |                n: 27 (valid) 0x10a-0x10b (1)
0x100|                                 76 31 32 38 2e|           v128.|                b: "v128.store64_lane_0_align_8" 0x10b-0x126 (27)
0x110|73 74 6f 72 65 36 34 5f 6c 61 6e 65 5f 30 5f 61|store64_lane_0_a|
0x120|6c 69 67 6e 5f 38                              |lign_8          |
     |                                               |                |              d{}: 0x126-0x128 (2)
0x120|                  00                           |      .         |                tag: "funcidx" (0x0) 0x126-0x127 (1)
0x120|                     07                        |       .        |                x: 7 (valid) 0x127-0x128 (1)
     |                                               |                |            [8]{}: ex 0x128-0x146 (30)
     |                                               |                |              nm{}: 0x128-0x144 (28)
0x120|                        1b                     |        .       |                n: 27 (valid) 0x128-0x129 (1)
0x120|                           76 31 32 38 2e 73 74|         v128.st|                b: "v128.store64_lane_1_align_1" 0x129-0x144 (27)
0x130|6f 72 65 36 34 5f 6c 61 6e 65 5f 31 5f 61 6c 69|ore64_lane_1_ali|
0x140|67 6e 5f 31                                    |gn_1            |
     |                                               |                |              d{}: 0x144-0x146 (2)
0x140|            00                                 |    .           |                tag: "funcidx" (0x0) 0x144-0x145 (1)
0x140|               08                              |     .          |                x: 8 (valid) 0x145-0x146 (1)
     |                                               |                |            [9]{}: ex 0x146-0x164 (30)
     |                                               |                |              nm{}: 0x146-0x162 (28)
0x140|                  1b                           |      .         |                n: 27 (valid) 0x146-0x147 (1)
0x140|                     76 31 32 38 2e 73 74 6f 72|       v128.stor|                b: "v128.store64_lane_1_align_2" 0x147-0x162 (27)
0x150|65 36 34 5f 6c 61 6e 65 5f 31 5f 61 6c 69 67 6e|e64_lane_1_align|
0x160|5f 32                                          |_2              |
     |                                               |                |              d{}: 0x162-0x164 (2)
0x160|      00                                       |  .             |                tag: "funcidx" (0x0) 0x162-0x163 (1)
0x160|         09                                    |   .            |                x: 9 (valid) 0x163-0x164 (1)
     |                                               |                |            [10]{}: ex 0x164-0x182 (30)
     |                                               |                |              nm{}: 0x164-0x180 (28)
0x160|            1b                                 |    .           |                n: 27 (valid) 0x164-0x165 (1)
0x160|               76 31 32 38 2e 73 74 6f 72 65 36|     v128.store6|                b: "v128.store64_lane_1_align_4" 0x165-0x180 (27)
0x170|34 5f 6c 61 6e 65 5f 31 5f 61 6c 69 67 6e 5f 34|4_lane_1_align_4|
     |                                               |                |              d{}: 0x180-0x182 (2)
0x180|00                                             |.               |                tag: "funcidx" (0x0) 0x180-0x181 (1)
0x180|   0a                                          | .              |                x: 10 (valid) 0x181-0x182 (1)
     |                                               |                |            [11]{}: ex 0x182-0x1a0 (30)
     |                                               |                |              nm{}: 0x182-0x19e (28)
0x180|      1b                                       |  .             |                n: 27 (valid) 0x182-0x183 (1)
0x180|         76 31 32 38 2e 73 74 6f 72 65 36 34 5f|   v128.store64_|                b: "v128.store64_lane_1_align_8" 0x183-0x19e (27)
0x190|6c 61 6e 65 5f 31 5f 61 6c 69 67 6e 5f 38      |lane_1_align_8  |
     |                                               |                |              d{}: 0x19e-0x1a0 (2)
0x190|                                          00   |              . |                tag: "funcidx" (0x0) 0x19e-0x19f (1)
0x190|                                             0b|               .|                x: 11 (valid) 0x19f-0x1a0 (1)
     |                                               |                |    [5]{}: section 0x1a0-0x318 (376)
0x1a0|0a                                             |.               |      id: "code_section" (10) 0x1a0-0x1a1 (1)
0x1a0|   f5 02                                       | ..             |      size: 373 (valid) 0x1a1-0x1a3 (2)
     |                                               |                |      content{}: 0x1a3-0x318 (373)
     |                                               |                |        code{}: 0x1a3-0x318 (373)
0x1a0|         0c                                    |   .            |          n: 12 (valid) 0x1a3-0x1a4 (1)
     |                                               |                |          x[0:12]: 0x1a4-0x318 (372)
     |                                               |                |            [0]{}: code 0x1a4-0x1c3 (31)
0x1a0|            1e                                 |    .           |              size: 30 (valid) 0x1a4-0x1a5 (1)
     |                                               |                |              code{}: 0x1a5-0x1c3 (30)
     |                                               |                |                t{}: 0x1a5-0x1a8 (3)
0x1a0|               01                              |     .          |                  n: 1 (valid) 0x1a5-0x1a6 (1)
     |                                               |                |                  x[0:1]: 0x1a6-0x1a8 (2)
     |                                               |                |                    [0]{}: t 0x1a6-0x1a8 (2)
0x1a0|                  01                           |      .         |                      n: 1 (valid) 0x1a6-0x1a7 (1)
0x1a0|                     7e                        |       ~        |                      t: "i64" (0x7e) 0x1a7-0x1a8 (1)
     |                                               |                |                e[0:11]: 0x1a8-0x1c3 (27)
     |                                               |                |                  [0]{}: in 0x1a8-0x1aa (2)
0x1a0|                        20                     |                |                    opcode: "local.get" (0x20) 0x1a8-0x1a9 (1)
0x1a0|                           00                  |         .      |                    x: 0 (valid) 0x1a9-0x1aa (1)
     |                                               |                |                  [1]{}: in 0x1aa-0x1ac (2)
0x1a0|                              20               |                |                    opcode: "local.get" (0x20) 0x1aa-0x1ab (1)
0x1a0|                                 01            |           .    |                    x: 1 (valid) 0x1ab-0x1ac (1)
     |                                               |                |                  [2]{}: in 0x1ac-0x1b1 (5)
0x1a0|                                    fd         |            .   |                    opcode: "vector" (0xfd) 0x1ac-0x1ad (1)
0x1a0|                                       5b      |             [  |                    v_opcode: "v128.store64_lane" (91) 0x1ad-0x1ae (1)
     |                                               |                |                    m{}: 0x1ae-0x1b0 (2)
0x1a0|                                          03   |              . |                      a: 3 (valid) 0x1ae-0x1af (1)
0x1a0|                                             00|               .|                      o: 0 (valid) 0x1af-0x1b0 (1)
0x1b0|00                                             |.               |                    l: 0 0x1b0-0x1b1 (1)
     |                                               |                |                  [3]{}: in 0x1b1-0x1b3 (2)
0x1b0|   20                                          |                |                    opcode: "local.get" (0x20) 0x1b1-0x1b2 (1)
0x1b0|      00                                       |  .             |                    x: 0 (valid) 0x1b2-0x1b3 (1)
     |                                               |                |                  [4]{}: in 0x1b3-0x1b6 (3)
0x1b0|         29                                    |   )            |                    opcode: "i64.load" (0x29) 0x1b3-0x1b4 (1)
     |                                               |                |                    m{}: 0x1b4-0x1b6 (2)
0x1b0|            03                                 |    .           |                      a: 3 (valid) 0x1b4-0x1b5 (1)
0x1b0|               00                              |     .          |                      o: 0 (valid) 0x1b5-0x1b6 (1)
     |                                               |                |                  [5]{}: in 0x1b6-0x1b8 (2)
0x1b0|                  21                           |      !         |                    opcode: "local.set" (0x21) 0x1b6-0x1b7 (1)
0x1b0|                     02                        |       .        |                    x: 2 (valid) 0x1b7-0x1b8 (1)
     |                                               |                |                  [6]{}: in 0x1b8-0x1ba (2)
0x1b0|                        20                     |                |                    opcode: "local.get" (0x20) 0x1b8-0x1b9 (1)
0x1b0|                           00                  |         .      |                    x: 0 (valid) 0x1b9-0x1ba (1)
     |                                               |                |                  [7]{}: in 0x1ba-0x1bc (2)
0x1b0|                              23               |          #     |                    opcode: "global.get" (0x23) 0x1ba-0x1bb (1)
0x1b0|                                 00            |           .    |                    x: 0 (valid) 0x1bb-0x1bc (1)
     |                                               |                |                  [8]{}: in 0x1bc-0x1c0 (4)
0x1b0|                                    fd         |            .   |                    opcode: "vector" (0xfd) 0x1bc-0x1bd (1)
0x1b0|                                       0b      |             .  |                    v_opcode: "v128.store" (11) 0x1bd-0x1be (1)
     |                                               |                |                    m{}: 0x1be-0x1c0 (2)
0x1b0|                                          04   |              . |                      a: 4 (valid) 0x1be-0x1bf (1)
0x1b0|                                             00|               .|                      o: 0 (valid) 0x1bf-0x1c0 (1)
     |                                               |                |                  [9]{}: in 0x1c0-0x1c2 (2)
0x1c0|20                                             |                |                    opcode: "local.get" (0x20) 0x1c0-0x1c1 (1)
0x1c0|   02                                          | .              |                    x: 2 (valid) 0x1c1-0x1c2 (1)
     |                                               |                |                  [10]{}: in 0x1c2-0x1c3 (1)
0x1c0|      0b                                       |  .             |                    opcode: "end" (0xb) 0x1c2-0x1c3 (1)
     |                                               |                |            [1]{}: code 0x1c3-0x1e2 (31)
0x1c0|         1e                                    |   .            |              size: 30 (valid) 0x1c3-0x1c4 (1)
     |                                               |                |              code{}: 0x1c4-0x1e2 (30)
     |                                               |                |                t{}: 0x1c4-0x1c7 (3)
0x1c0|            01                                 |    .           |                  n: 1 (valid) 0x1c4-0x1c5 (1)
     |                                               |                |                  x[0:1]: 0x1c5-0x1c7 (2)
     |                                               |                |                    [0]{}: t 0x1c5-0x1c7 (2)
0x1c0|               01                              |     .          |                      n: 1 (valid) 0x1c5-0x1c6 (1)
0x1c0|                  7e                           |      ~         |                      t: "i64" (0x7e) 0x1c6-0x1c7 (1)
     |                                               |                |                e[0:11]: 0x1c7-0x1e2 (27)
     |                                               |                |                  [0]{}: in 0x1c7-0x1c9 (2)
0x1c0|                     20                        |                |                    opcode: "local.get" (0x20) 0x1c7-0x1c8 (1)
0x1c0|                        00                     |        .       |                    x: 0 (valid) 0x1c8-0x1c9 (1)
     |                                               |                |                  [1]{}: in 0x1c9-0x1cb (2)
0x1c0|                           20                  |                |                    opcode: "local.get" (0x20) 0x1c9-0x1ca (1)
0x1c0|                              01               |          .     |                    x: 1 (valid) 0x1ca-0x1cb (1)
     |                                               |                |                  [2]{}: in 0x1cb-0x1d0 (5)
0x1c0|                                 fd            |           .    |                    opcode: "vector" (0xfd) 0x1cb-0x1cc (1)
0x1c0|                                    5b         |            [   |                    v_opcode: "v128.store64_lane" (91) 0x1cc-0x1cd (1)
     |                                               |                |                    m{}: 0x1cd-0x1cf (2)
0x1c0|                                       03      |             .  |                      a: 3 (valid) 0x1cd-0x1ce (1)
0x1c0|                                          00   |              . |                      o: 0 (valid) 0x1ce-0x1cf (1)
0x1c0|                                             01|               .|                    l: 1 0x1cf-0x1d0 (1)
     |                                               |                |                  [3]{}: in 0x1d0-0x1d2 (2)
0x1d0|20                                             |                |                    opcode: "local.get" (0x20) 0x1d0-0x1d1 (1)
0x1d0|   00                                          | .              |                    x: 0 (valid) 0x1d1-0x1d2 (1)
     |                                               |                |                  [4]{}: in 0x1d2-0x1d5 (3)
0x1d0|      29                                       |  )             |                    opcode: "i64.load" (0x29) 0x1d2-0x1d3 (1)
     |                                               |                |                    m{}: 0x1d3-0x1d5 (2)
0x1d0|         03                                    |   .            |                      a: 3 (valid) 0x1d3-0x1d4 (1)
0x1d0|            00                                 |    .           |                      o: 0 (valid) 0x1d4-0x1d5 (1)
     |                                               |                |                  [5]{}: in 0x1d5-0x1d7 (2)
0x1d0|               21                              |     !          |                    opcode: "local.set" (0x21) 0x1d5-0x1d6 (1)
0x1d0|                  02                           |      .         |                    x: 2 (valid) 0x1d6-0x1d7 (1)
     |                                               |                |                  [6]{}: in 0x1d7-0x1d9 (2)
0x1d0|                     20                        |                |                    opcode: "local.get" (0x20) 0x1d7-0x1d8 (1)
0x1d0|                        00                     |        .       |                    x: 0 (valid) 0x1d8-0x1d9 (1)
     |                                               |                |                  [7]{}: in 0x1d9-0x1db (2)
0x1d0|                           23                  |         #      |                    opcode: "global.get" (0x23) 0x1d9-0x1da (1)
0x1d0|                              00               |          .     |                    x: 0 (valid) 0x1da-0x1db (1)
     |                                               |                |                  [8]{}: in 0x1db-0x1df (4)
0x1d0|                                 fd            |           .    |                    opcode: "vector" (0xfd) 0x1db-0x1dc (1)
0x1d0|                                    0b         |            .   |                    v_opcode: "v128.store" (11) 0x1dc-0x1dd (1)
     |                                               |                |                    m{}: 0x1dd-0x1df (2)
0x1d0|                                       04      |             .  |                      a: 4 (valid) 0x1dd-0x1de (1)
0x1d0|                                          00   |              . |                      o: 0 (valid) 0x1de-0x1df (1)
     |                                               |                |                  [9]{}: in 0x1df-0x1e1 (2)
0x1d0|                                             20|                |                    opcode: "local.get" (0x20) 0x1df-0x1e0 (1)
0x1e0|02                                             |.               |                    x: 2 (valid) 0x1e0-0x1e1 (1)
     |                                               |                |                  [10]{}: in 0x1e1-0x1e2 (1)
0x1e0|   0b                                          | .              |                    opcode: "end" (0xb) 0x1e1-0x1e2 (1)
     |                                               |                |            [2]{}: code 0x1e2-0x201 (31)
0x1e0|      1e                                       |  .             |              size: 30 (valid) 0x1e2-0x1e3 (1)
     |                                               |                |              code{}: 0x1e3-0x201 (30)
     |                                               |                |                t{}: 0x1e3-0x1e6 (3)
0x1e0|         01                                    |   .            |                  n: 1 (valid) 0x1e3-0x1e4 (1)
     |                                               |                |                  x[0:1]: 0x1e4-0x1e6 (2)
     |                                               |                |                    [0]{}: t 0x1e4-0x1e6 (2)
0x1e0|            01                                 |    .           |                      n: 1 (valid) 0x1e4-0x1e5 (1)
0x1e0|               7e                              |     ~          |                      t: "i64" (0x7e) 0x1e5-0x1e6 (1)
     |                                               |                |                e[0:11]: 0x1e6-0x201 (27)
     |                                               |                |                  [0]{}: in 0x1e6-0x1e8 (2)
0x1e0|                  41                           |      A         |                    opcode: "i32.const" (0x41) 0x1e6-0x1e7 (1)
0x1e0|                     00                        |       .        |                    n: 0 (valid) 0x1e7-0x1e8 (1)
     |                                               |                |                  [1]{}: in 0x1e8-0x1ea (2)
0x1e0|                        20                     |                |                    opcode: "local.get" (0x20) 0x1e8-0x1e9 (1)
0x1e0|                           00                  |         .      |                    x: 0 (valid) 0x1e9-0x1ea (1)
     |                                               |                |                  [2]{}: in 0x1ea-0x1ef (5)
0x1e0|                              fd               |          .     |                    opcode: "vector" (0xfd) 0x1ea-0x1eb (1)
0x1e0|                                 5b            |           [    |                    v_opcode: "v128.store64_lane" (91) 0x1eb-0x1ec (1)
     |                                               |                |                    m{}: 0x1ec-0x1ee (2)
0x1e0|                                    03         |            .   |                      a: 3 (valid) 0x1ec-0x1ed (1)
0x1e0|                                       00      |             .  |                      o: 0 (valid) 0x1ed-0x1ee (1)
0x1e0|                                          00   |              . |                    l: 0 0x1ee-0x1ef (1)
     |                                               |                |                  [3]{}: in 0x1ef-0x1f1 (2)
0x1e0|                                             41|               A|                    opcode: "i32.const" (0x41) 0x1ef-0x1f0 (1)
0x1f0|00                                             |.               |                    n: 0 (valid) 0x1f0-0x1f1 (1)
     |                                               |                |                  [4]{}: in 0x1f1-0x1f4 (3)
0x1f0|   29                                          | )              |                    opcode: "i64.load" (0x29) 0x1f1-0x1f2 (1)
     |                                               |                |                    m{}: 0x1f2-0x1f4 (2)
0x1f0|      03                                       |  .             |                      a: 3 (valid) 0x1f2-0x1f3 (1)
0x1f0|         00                                    |   .            |                      o: 0 (valid) 0x1f3-0x1f4 (1)
     |                                               |                |                  [5]{}: in 0x1f4-0x1f6 (2)
0x1f0|            21                                 |    !           |                    opcode: "local.set" (0x21) 0x1f4-0x1f5 (1)
0x1f0|               01                              |     .          |                    x: 1 (valid) 0x1f5-0x1f6 (1)
     |                                               |                |                  [6]{}: in 0x1f6-0x1f8 (2)
0x1f0|                  41                           |      A         |                    opcode: "i32.const" (0x41) 0x1f6-0x1f7 (1)
0x1f0|                     00                        |       .        |                    n: 0 (valid) 0x1f7-0x1f8 (1)
     |                                               |                |                  [7]{}: in 0x1f8-0x1fa (2)
0x1f0|                        23                     |        #       |                    opcode: "global.get" (0x23) 0x1f8-0x1f9 (1)
0x1f0|                           00                  |         .      |                    x: 0 (valid) 0x1f9-0x1fa (1)
     |                                               |                |                  [8]{}: in 0x1fa-0x1fe (4)
0x1f0|                              fd               |          .     |                    opcode: "vector" (0xfd) 0x1fa-0x1fb (1)
0x1f0|                                 0b            |           .    |                    v_opcode: "v128.store" (11) 0x1fb-0x1fc (1)
     |                                               |                |                    m{}: 0x1fc-0x1fe (2)
0x1f0|                                    04         |            .   |                      a: 4 (valid) 0x1fc-0x1fd (1)
0x1f0|                                       00      |             .  |                      o: 0 (valid) 0x1fd-0x1fe (1)
     |                                               |                |                  [9]{}: in 0x1fe-0x200 (2)
0x1f0|                                          20   |                |                    opcode: "local.get" (0x20) 0x1fe-0x1ff (1)
0x1f0|                                             01|               .|                    x: 1 (valid) 0x1ff-0x200 (1)
     |                                               |                |                  [10]{}: in 0x200-0x201 (1)
0x200|0b                                             |.               |                    opcode: "end" (0xb) 0x200-0x201 (1)
     |                                               |                |            [3]{}: code 0x201-0x220 (31)
0x200|   1e                                          | .              |              size: 30 (valid) 0x201-0x202 (1)
     |                                               |                |              code{}: 0x202-0x220 (30)
     |                                               |                |                t{}: 0x202-0x205 (3)
0x200|      01                                       |  .             |                  n: 1 (valid) 0x202-0x203 (1)
     |                                               |                |                  x[0:1]: 0x203-0x205 (2)
     |                                               |                |                    [0]{}: t 0x203-0x205 (2)
0x200|         01                                    |   .            |                      n: 1 (valid) 0x203-0x204 (1)
0x200|            7e                                 |    ~           |                      t: "i64" (0x7e) 0x204-0x205 (1)
     |                                               |                |                e[0:11]: 0x205-0x220 (27)
     |                                               |                |                  [0]{}: in 0x205-0x207 (2)
0x200|               41                              |     A          |                    opcode: "i32.const" (0x41) 0x205-0x206 (1)
0x200|                  00                           |      .         |                    n: 0 (valid) 0x206-0x207 (1)
     |                                               |                |                  [1]{}: in 0x207-0x209 (2)
0x200|                     20                        |                |                    opcode: "local.get" (0x20) 0x207-0x208 (1)
0x200|                        00                     |        .       |                    x: 0 (valid) 0x208-0x209 (1)
     |                                               |                |                  [2]{}: in 0x209-0x20e (5)
0x200|                           fd                  |         .      |                    opcode: "vector" (0xfd) 0x209-0x20a (1)
0x200|                              5b               |          [     |                    v_opcode: "v128.store64_lane" (91) 0x20a-0x20b (1)
     |                                               |                |                    m{}: 0x20b-0x20d (2)
0x200|                                 03            |           .    |                      a: 3 (valid) 0x20b-0x20c (1)
0x200|                                    01         |            .   |                      o: 1 (valid) 0x20c-0x20d (1)
0x200|                                       01      |             .  |                    l: 1 0x20d-0x20e (1)
     |                                               |                |                  [3]{}: in 0x20e-0x210 (2)
0x200|                                          41   |              A |                    opcode: "i32.const" (0x41) 0x20e-0x20f (1)
0x200|                                             00|               .|                    n: 0 (valid) 0x20f-0x210 (1)
     |                                               |                |                  [4]{}: in 0x210-0x213 (3)
0x210|29                                             |)               |                    opcode: "i64.load" (0x29) 0x210-0x211 (1)
     |                                               |                |                    m{}: 0x211-0x213 (2)
0x210|   03                                          | .              |                      a: 3 (valid) 0x211-0x212 (1)
0x210|      01                                       |  .             |                      o: 1 (valid) 0x212-0x213 (1)
     |                                               |                |                  [5]{}: in 0x213-0x215 (2)
0x210|         21                                    |   !            |                    opcode: "local.set" (0x21) 0x213-0x214 (1)
0x210|            01                                 |    .           |                    x: 1 (valid) 0x214-0x215 (1)
     |                                               |                |                  [6]{}: in 0x215-0x217 (2)
0x210|               41                              |     A          |                    opcode: "i32.const" (0x41) 0x215-0x216 (1)
0x210|                  00                           |      .         |                    n: 0 (valid) 0x216-0x217 (1)
     |                                               |                |                  [7]{}: in 0x217-0x219 (2)
0x210|                     23                        |       #        |                    opcode: "global.get" (0x23) 0x217-0x218 (1)
0x210|                        00                     |        .       |                    x: 0 (valid) 0x218-0x219 (1)
     |                                               |                |                  [8]{}: in 0x219-0x21d (4)
0x210|                           fd                  |         .      |                    opcode: "vector" (0xfd) 0x219-0x21a (1)
0x210|                              0b               |          .     |                    v_opcode: "v128.store" (11) 0x21a-0x21b (1)
     |                                               |                |                    m{}: 0x21b-0x21d (2)
0x210|                                 04            |           .    |                      a: 4 (valid) 0x21b-0x21c (1)
0x210|                                    01         |            .   |                      o: 1 (valid) 0x21c-0x21d (1)
     |                                               |                |                  [9]{}: in 0x21d-0x21f (2)
0x210|                                       20      |                |                    opcode: "local.get" (0x20) 0x21d-0x21e (1)
0x210|                                          01   |              . |                    x: 1 (valid) 0x21e-0x21f (1)
     |                                               |                |                  [10]{}: in 0x21f-0x220 (1)
0x210|                                             0b|               .|                    opcode: "end" (0xb) 0x21f-0x220 (1)
     |                                               |                |            [4]{}: code 0x220-0x23f (31)
0x220|1e                                             |.               |              size: 30 (valid) 0x220-0x221 (1)
     |                                               |                |              code{}: 0x221-0x23f (30)
     |                                               |                |                t{}: 0x221-0x224 (3)
0x220|   01                                          | .              |                  n: 1 (valid) 0x221-0x222 (1)
     |                                               |                |                  x[0:1]: 0x222-0x224 (2)
     |                                               |                |                    [0]{}: t 0x222-0x224 (2)
0x220|      01                                       |  .             |                      n: 1 (valid) 0x222-0x223 (1)
0x220|         7e                                    |   ~            |                      t: "i64" (0x7e) 0x223-0x224 (1)
     |                                               |                |                e[0:11]: 0x224-0x23f (27)
     |                                               |                |                  [0]{}: in 0x224-0x226 (2)
0x220|            20                                 |                |                    opcode: "local.get" (0x20) 0x224-0x225 (1)
0x220|               00                              |     .          |                    x: 0 (valid) 0x225-0x226 (1)
     |                                               |                |                  [1]{}: in 0x226-0x228 (2)
0x220|                  20                           |                |                    opcode: "local.get" (0x20) 0x226-0x227 (1)
0x220|                     01                        |       .        |                    x: 1 (valid) 0x227-0x228 (1)
     |                                               |                |                  [2]{}: in 0x228-0x22d (5)
0x220|                        fd                     |        .       |                    opcode: "vector" (0xfd) 0x228-0x229 (1)
0x220|                           5b                  |         [      |                    v_opcode: "v128.store64_lane" (91) 0x229-0x22a (1)
     |                                               |                |                    m{}: 0x22a-0x22c (2)
0x220|                              00               |          .     |                      a: 0 (valid) 0x22a-0x22b (1)
0x220|                                 00            |           .    |                      o: 0 (valid) 0x22b-0x22c (1)
0x220|                                    00         |            .   |                    l: 0 0x22c-0x22d (1)
     |                                               |                |                  [3]{}: in 0x22d-0x22f (2)
0x220|                                       20      |                |                    opcode: "local.get" (0x20) 0x22d-0x22e (1)
0x220|                                          00   |              . |                    x: 0 (valid) 0x22e-0x22f (1)
     |                                               |                |                  [4]{}: in 0x22f-0x232 (3)
0x220|                                             29|               )|                    opcode: "i64.load" (0x29) 0x22f-0x230 (1)
     |                                               |                |                    m{}: 0x230-0x232 (2)
0x230|03                                             |.               |                      a: 3 (valid) 0x230-0x231 (1)
0x230|   00                                          | .              |                      o: 0 (valid) 0x231-0x232 (1)
     |                                               |                |                  [5]{}: in 0x232-0x234 (2)
0x230|      21                                       |  !             |                    opcode: "local.set" (0x21) 0x232-0x233 (1)
0x230|         02                                    |   .            |                    x: 2 (valid) 0x233-0x234 (1)
     |                                               |                |                  [6]{}: in 0x234-0x236 (2)
0x230|            41                                 |    A           |                    opcode: "i32.const" (0x41) 0x234-0x235 (1)
0x230|               00                              |     .          |                    n: 0 (valid) 0x235-0x236 (1)
     |                                               |                |                  [7]{}: in 0x236-0x238 (2)
0x230|                  23                           |      #         |                    opcode: "global.get" (0x23) 0x236-0x237 (1)
0x230|                     00                        |       .        |                    x: 0 (valid) 0x237-0x238 (1)
     |                                               |                |                  [8]{}: in 0x238-0x23c (4)
0x230|                        fd                     |        .       |                    opcode: "vector" (0xfd) 0x238-0x239 (1)
0x230|                           0b                  |         .      |                    v_opcode: "v128.store" (11) 0x239-0x23a (1)
     |                                               |                |                    m{}: 0x23a-0x23c (2)
0x230|                              04               |          .     |                      a: 4 (valid) 0x23a-0x23b (1)
0x230|                                 00            |           .    |                      o: 0 (valid) 0x23b-0x23c (1)
     |                                               |                |                  [9]{}: in 0x23c-0x23e (2)
0x230|                                    20         |                |                    opcode: "local.get" (0x20) 0x23c-0x23d (1)
0x230|                                       02      |             .  |                    x: 2 (valid) 0x23d-0x23e (1)
     |                                               |                |                  [10]{}: in 0x23e-0x23f (1)
0x230|                                          0b   |              . |                    opcode: "end" (0xb) 0x23e-0x23f (1)
     |                                               |                |            [5]{}: code 0x23f-0x25e (31)
0x230|                                             1e|               .|              size: 30 (valid) 0x23f-0x240 (1)
     |                                               |                |              code{}: 0x240-0x25e (30)
     |                                               |                |                t{}: 0x240-0x243 (3)
0x240|01                                             |.               |                  n: 1 (valid) 0x240-0x241 (1)
     |                                               |                |                  x[0:1]: 0x241-0x243 (2)
     |                                               |                |                    [0]{}: t 0x241-0x243 (2)
0x240|   01                                          | .              |                      n: 1 (valid) 0x241-0x242 (1)
0x240|      7e                                       |  ~             |                      t: "i64" (0x7e) 0x242-0x243 (1)
     |                                               |                |                e[0:11]: 0x243-0x25e (27)
     |                                               |                |                  [0]{}: in 0x243-0x245 (2)
0x240|         20                                    |                |                    opcode: "local.get" (0x20) 0x243-0x244 (1)
0x240|            00                                 |    .           |                    x: 0 (valid) 0x244-0x245 (1)
     |                                               |                |                  [1]{}: in 0x245-0x247 (2)
0x240|               20                              |                |                    opcode: "local.get" (0x20) 0x245-0x246 (1)
0x240|                  01                           |      .         |                    x: 1 (valid) 0x246-0x247 (1)
     |                                               |                |                  [2]{}: in 0x247-0x24c (5)
0x240|                     fd                        |       .        |                    opcode: "vector" (0xfd) 0x247-0x248 (1)
0x240|                        5b                     |        [       |                    v_opcode: "v128.store64_lane" (91) 0x248-0x249 (1)
     |                                               |                |                    m{}: 0x249-0x24b (2)
0x240|                           01                  |         .      |                      a: 1 (valid) 0x249-0x24a (1)
0x240|                              00               |          .     |                      o: 0 (valid) 0x24a-0x24b (1)
0x240|                                 00            |           .    |                    l: 0 0x24b-0x24c (1)
     |                                               |                |                  [3]{}: in 0x24c-0x24e (2)
0x240|                                    20         |                |                    opcode: "local.get" (0x20) 0x24c-0x24d (1)
0x240|                                       00      |             .  |                    x: 0 (valid) 0x24d-0x24e (1)
     |                                               |                |                  [4]{}: in 0x24e-0x251 (3)
0x240|                                          29   |              ) |                    opcode: "i64.load" (0x29) 0x24e-0x24f (1)
     |                                               |                |                    m{}: 0x24f-0x251 (2)
0x240|                                             03|               .|                      a: 3 (valid) 0x24f-0x250 (1)
0x250|00                                             |.               |                      o: 0 (valid) 0x250-0x251 (1)
     |                                               |                |                  [5]{}: in 0x251-0x253 (2)
0x250|   21                                          | !              |                    opcode: "local.set" (0x21) 0x251-0x252 (1)
0x250|      02                                       |  .             |                    x: 2 (valid) 0x252-0x253 (1)
     |                                               |                |                  [6]{}: in 0x253-0x255 (2)
0x250|         41                                    |   A            |                    opcode: "i32.const" (0x41) 0x253-0x254 (1)
0x250|            00                                 |    .           |                    n: 0 (valid) 0x254-0x255 (1)
     |                                               |                |                  [7]{}: in 0x255-0x257 (2)
0x250|               23                              |     #          |                    opcode: "global.get" (0x23) 0x255-0x256 (1)
0x250|                  00                           |      .         |                    x: 0 (valid) 0x256-0x257 (1)
     |                                               |                |                  [8]{}: in 0x257-0x25b (4)
0x250|                     fd                        |       .        |                    opcode: "vector" (0xfd) 0x257-0x258 (1)
0x250|                        0b                     |        .       |                    v_opcode: "v128.store" (11) 0x258-0x259 (1)
     |                                               |                |                    m{}: 0x259-0x25b (2)
0x250|                           04                  |         .      |                      a: 4 (valid) 0x259-0x25a (1)
0x250|                              00               |          .     |                      o: 0 (valid) 0x25a-0x25b (1)
     |                                               |                |                  [9]{}: in 0x25b-0x25d (2)
0x250|                                 20            |                |                    opcode: "local.get" (0x20) 0x25b-0x25c (1)
0x250|                                    02         |            .   |                    x: 2 (valid) 0x25c-0x25d (1)
     |                                               |                |                  [10]{}: in 0x25d-0x25e (1)
0x250|                                       0b      |             .  |                    opcode: "end" (0xb) 0x25d-0x25e (1)
     |                                               |                |            [6]{}: code 0x25e-0x27d (31)
0x250|                                          1e   |              . |              size: 30 (valid) 0x25e-0x25f (1)
     |                                               |                |              code{}: 0x25f-0x27d (30)
     |                                               |                |                t{}: 0x25f-0x262 (3)
0x250|                                             01|               .|                  n: 1 (valid) 0x25f-0x260 (1)
     |                                               |                |                  x[0:1]: 0x260-0x262 (2)
     |                                               |                |                    [0]{}: t 0x260-0x262 (2)
0x260|01                                             |.               |                      n: 1 (valid) 0x260-0x261 (1)
0x260|   7e                                          | ~              |                      t: "i64" (0x7e) 0x261-0x262 (1)
     |                                               |                |                e[0:11]: 0x262-0x27d (27)
     |                                               |                |                  [0]{}: in 0x262-0x264 (2)
0x260|      20                                       |                |                    opcode: "local.get" (0x20) 0x262-0x263 (1)
0x260|         00                                    |   .            |                    x: 0 (valid) 0x263-0x264 (1)
     |                                               |                |                  [1]{}: in 0x264-0x266 (2)
0x260|            20                                 |                |                    opcode: "local.get" (0x20) 0x264-0x265 (1)
0x260|               01                              |     .          |                    x: 1 (valid) 0x265-0x266 (1)
     |                                               |                |                  [2]{}: in 0x266-0x26b (5)
0x260|                  fd                           |      .         |                    opcode: "vector" (0xfd) 0x266-0x267 (1)
0x260|                     5b                        |       [        |                    v_opcode: "v128.store64_lane" (91) 0x267-0x268 (1)
     |                                               |                |                    m{}: 0x268-0x26a (2)
0x260|                        02                     |        .       |                      a: 2 (valid) 0x268-0x269 (1)
0x260|                           00                  |         .      |                      o: 0 (valid) 0x269-0x26a (1)
0x260|                              00               |          .     |                    l: 0 0x26a-0x26b (1)
     |                                               |                |                  [3]{}: in 0x26b-0x26d (2)
0x260|                                 20            |                |                    opcode: "local.get" (0x20) 0x26b-0x26c (1)
0x260|                                    00         |            .   |                    x: 0 (valid) 0x26c-0x26d (1)
     |                                               |                |                  [4]{}: in 0x26d-0x270 (3)
0x260|                                       29      |             )  |                    opcode: "i64.load" (0x29) 0x26d-0x26e (1)
     |                                               |                |                    m{}: 0x26e-0x270 (2)
0x260|                                          03   |              . |                      a: 3 (valid) 0x26e-0x26f (1)
0x260|                                             00|               .|                      o: 0 (valid) 0x26f-0x270 (1)
     |                                               |                |                  [5]{}: in 0x270-0x272 (2)
0x270|21                                             |!               |                    opcode: "local.set" (0x21) 0x270-0x271 (1)
0x270|   02                                          | .              |                    x: 2 (valid) 0x271-0x272 (1)
     |                                               |                |                  [6]{}: in 0x272-0x274 (2)
0x270|      41                                       |  A             |                    opcode: "i32.const" (0x41) 0x272-0x273 (1)
0x270|         00                                    |   .            |                    n: 0 (valid) 0x273-0x274 (1)
     |                                               |                |                  [7]{}: in 0x274-0x276 (2)
0x270|            23                                 |    #           |                    opcode: "global.get" (0x23) 0x274-0x275 (1)
0x270|               00                              |     .          |                    x: 0 (valid) 0x275-0x276 (1)
     |                                               |                |                  [8]{}: in 0x276-0x27a (4)
0x270|                  fd                           |      .         |                    opcode: "vector" (0xfd) 0x276-0x277 (1)
0x270|                     0b                        |       .        |                    v_opcode: "v128.store" (11) 0x277-0x278 (1)
     |                                               |                |                    m{}: 0x278-0x27a (2)
0x270|                        04                     |        .       |                      a: 4 (valid) 0x278-0x279 (1)
0x270|                           00                  |         .      |                      o: 0 (valid) 0x279-0x27a (1)
     |                                               |                |                  [9]{}: in 0x27a-0x27c (2)
0x270|                              20               |                |                    opcode: "local.get" (0x20) 0x27a-0x27b (1)
0x270|                                 02            |           .    |                    x: 2 (valid) 0x27b-0x27c (1)
     |                                               |                |                  [10]{}: in 0x27c-0x27d (1)
0x270|                                    0b         |            .   |                    opcode: "end" (0xb) 0x27c-0x27d (1)
     |                                               |                |            [7]{}: code 0x27d-0x29c (31)
0x270|                                       1e      |             .  |              size: 30 (valid) 0x27d-0x27e (1)
     |                                               |                |              code{}: 0x27e-0x29c (30)
     |                                               |                |                t{}: 0x27e-0x281 (3)
0x270|                                          01   |              . |                  n: 1 (valid) 0x27e-0x27f (1)
     |                                               |                |                  x[0:1]: 0x27f-0x281 (2)
     |                                               |                |                    [0]{}: t 0x27f-0x281 (2)
0x270|                                             01|               .|                      n: 1 (valid) 0x27f-0x280 (1)
0x280|7e                                             |~               |                      t: "i64" (0x7e) 0x280-0x281 (1)
     |                                               |                |                e[0:11]: 0x281-0x29c (27)
     |                                               |                |                  [0]{}: in 0x281-0x283 (2)
0x280|   20                                          |                |                    opcode: "local.get" (0x20) 0x281-0x282 (1)
0x280|      00                                       |  .             |                    x: 0 (valid) 0x282-0x283 (1)
     |                                               |                |                  [1]{}: in 0x283-0x285 (2)
0x280|         20                                    |                |                    opcode: "local.get" (0x20) 0x283-0x284 (1)
0x280|            01                                 |    .           |                    x: 1 (valid) 0x284-0x285 (1)
     |                                               |                |                  [2]{}: in 0x285-0x28a (5)
0x280|               fd                              |     .          |                    opcode: "vector" (0xfd) 0x285-0x286 (1)
0x280|                  5b                           |      [         |                    v_opcode: "v128.store64_lane" (91) 0x286-0x287 (1)
     |                                               |                |                    m{}: 0x287-0x289 (2)
0x280|                     03                        |       .        |                      a: 3 (valid) 0x287-0x288 (1)
0x280|                        00                     |        .       |                      o: 0 (valid) 0x288-0x289 (1)
0x280|                           00                  |         .      |                    l: 0 0x289-0x28a (1)
     |                                               |                |                  [3]{}: in 0x28a-0x28c (2)
0x280|                              20               |                |                    opcode: "local.get" (0x20) 0x28a-0x28b (1)
0x280|                                 00            |           .    |                    x: 0 (valid) 0x28b-0x28c (1)
     |                                               |                |                  [4]{}: in 0x28c-0x28f (3)
0x280|                                    29         |            )   |                    opcode: "i64.load" (0x29) 0x28c-0x28d (1)
     |                                               |                |                    m{}: 0x28d-0x28f (2)
0x280|                                       03      |             .  |                      a: 3 (valid) 0x28d-0x28e (1)
0x280|                                          00   |              . |                      o: 0 (valid) 0x28e-0x28f (1)
     |                                               |                |                  [5]{}: in 0x28f-0x291 (2)
0x280|                                             21|               !|                    opcode: "local.set" (0x21) 0x28f-0x290 (1)
0x290|02                                             |.               |                    x: 2 (valid) 0x290-0x291 (1)
     |                                               |                |                  [6]{}: in 0x291-0x293 (2)
0x290|   41                                          | A              |                    opcode: "i32.const" (0x41) 0x291-0x292 (1)
0x290|      00                                       |  .             |                    n: 0 (valid) 0x292-0x293 (1)
     |                                               |                |                  [7]{}: in 0x293-0x295 (2)
0x290|         23                                    |   #            |                    opcode: "global.get" (0x23) 0x293-0x294 (1)
0x290|            00                                 |    .           |                    x: 0 (valid) 0x294-0x295 (1)
     |                                               |                |                  [8]{}: in 0x295-0x299 (4)
0x290|               fd                              |     .          |                    opcode: "vector" (0xfd) 0x295-0x296 (1)
0x290|                  0b                           |      .         |                    v_opcode: "v128.store" (11) 0x296-0x297 (1)
     |                                               |                |                    m{}: 0x297-0x299 (2)
0x290|                     04                        |       .        |                      a: 4 (valid) 0x297-0x298 (1)
0x290|                        00                     |        .       |                      o: 0 (valid) 0x298-0x299 (1)
     |                                               |                |                  [9]{}: in 0x299-0x29b (2)
0x290|                           20                  |                |                    opcode: "local.get" (0x20) 0x299-0x29a (1)
0x290|                              02               |          .     |                    x: 2 (valid) 0x29a-0x29b (1)
     |                                               |                |                  [10]{}: in 0x29b-0x29c (1)
0x290|                                 0b            |           .    |                    opcode: "end" (0xb) 0x29b-0x29c (1)
     |                                               |                |            [8]{}: code 0x29c-0x2bb (31)
0x290|                                    1e         |            .   |              size: 30 (valid) 0x29c-0x29d (1)
     |                                               |                |              code{}: 0x29d-0x2bb (30)
     |                                               |                |                t{}: 0x29d-0x2a0 (3)
0x290|                                       01      |             .  |                  n: 1 (valid) 0x29d-0x29e (1)
     |                                               |                |                  x[0:1]: 0x29e-0x2a0 (2)
     |                                               |                |                    [0]{}: t 0x29e-0x2a0 (2)
0x290|                                          01   |              . |                      n: 1 (valid) 0x29e-0x29f (1)
0x290|                                             7e|               ~|                      t: "i64" (0x7e) 0x29f-0x2a0 (1)
     |                                               |                |                e[0:11]: 0x2a0-0x2bb (27)
     |                                               |                |                  [0]{}: in 0x2a0-0x2a2 (2)
0x2a0|20                                             |                |                    opcode: "local.get" (0x20) 0x2a0-0x2a1 (1)
0x2a0|   00                                          | .              |                    x: 0 (valid) 0x2a1-0x2a2 (1)
     |                                               |                |                  [1]{}: in 0x2a2-0x2a4 (2)
0x2a0|      20                                       |                |                    opcode: "local.get" (0x20) 0x2a2-0x2a3 (1)
0x2a0|         01                                    |   .            |                    x: 1 (valid) 0x2a3-0x2a4 (1)
     |                                               |                |                  [2]{}: in 0x2a4-0x2a9 (5)
0x2a0|            fd                                 |    .           |                    opcode: "vector" (0xfd) 0x2a4-0x2a5 (1)
0x2a0|               5b                              |     [          |                    v_opcode: "v128.store64_lane" (91) 0x2a5-0x2a6 (1)
     |                                               |                |                    m{}: 0x2a6-0x2a8 (2)
0x2a0|                  00                           |      .         |                      a: 0 (valid) 0x2a6-0x2a7 (1)
0x2a0|                     00                        |       .        |                      o: 0 (valid) 0x2a7-0x2a8 (1)
0x2a0|                        01                     |        .       |                    l: 1 0x2a8-0x2a9 (1)
     |                                               |                |                  [3]{}: in 0x2a9-0x2ab (2)
0x2a0|                           20                  |                |                    opcode: "local.get" (0x20) 0x2a9-0x2aa (1)
0x2a0|                              00               |          .     |                    x: 0 (valid) 0x2aa-0x2ab (1)
     |                                               |                |                  [4]{}: in 0x2ab-0x2ae (3)
0x2a0|                                 29            |           )    |                    opcode: "i64.load" (0x29) 0x2ab-0x2ac (1)
     |                                               |                |                    m{}: 0x2ac-0x2ae (2)
0x2a0|                                    03         |            .   |                      a: 3 (valid) 0x2ac-0x2ad (1)
0x2a0|                                       00      |             .  |                      o: 0 (valid) 0x2ad-0x2ae (1)
     |                                               |                |                  [5]{}: in 0x2ae-0x2b0 (2)
0x2a0|                                          21   |              ! |                    opcode: "local.set" (0x21) 0x2ae-0x2af (1)
0x2a0|                                             02|               .|                    x: 2 (valid) 0x2af-0x2b0 (1)
     |                                               |                |                  [6]{}: in 0x2b0-0x2b2 (2)
0x2b0|41                                             |A               |                    opcode: "i32.const" (0x41) 0x2b0-0x2b1 (1)
0x2b0|   00                                          | .              |                    n: 0 (valid) 0x2b1-0x2b2 (1)
     |                                               |                |                  [7]{}: in 0x2b2-0x2b4 (2)
0x2b0|      23                                       |  #             |                    opcode: "global.get" (0x23) 0x2b2-0x2b3 (1)
0x2b0|         00                                    |   .            |                    x: 0 (valid) 0x2b3-0x2b4 (1)
     |                                               |                |                  [8]{}: in 0x2b4-0x2b8 (4)
0x2b0|            fd                                 |    .           |                    opcode: "vector" (0xfd) 0x2b4-0x2b5 (1)
0x2b0|               0b                              |     .          |                    v_opcode: "v128.store" (11) 0x2b5-0x2b6 (1)
     |                                               |                |                    m{}: 0x2b6-0x2b8 (2)
0x2b0|                  04                           |      .         |                      a: 4 (valid) 0x2b6-0x2b7 (1)
0x2b0|                     01                        |       .        |                      o: 1 (valid) 0x2b7-0x2b8 (1)
     |                                               |                |                  [9]{}: in 0x2b8-0x2ba (2)
0x2b0|                        20                     |                |                    opcode: "local.get" (0x20) 0x2b8-0x2b9 (1)
0x2b0|                           02                  |         .      |                    x: 2 (valid) 0x2b9-0x2ba (1)
     |                                               |                |                  [10]{}: in 0x2ba-0x2bb (1)
0x2b0|                              0b               |          .     |                    opcode: "end" (0xb) 0x2ba-0x2bb (1)
     |                                               |                |            [9]{}: code 0x2bb-0x2da (31)
0x2b0|                                 1e            |           .    |              size: 30 (valid) 0x2bb-0x2bc (1)
     |                                               |                |              code{}: 0x2bc-0x2da (30)
     |                                               |                |                t{}: 0x2bc-0x2bf (3)
0x2b0|                                    01         |            .   |                  n: 1 (valid) 0x2bc-0x2bd (1)
     |                                               |                |                  x[0:1]: 0x2bd-0x2bf (2)
     |                                               |                |                    [0]{}: t 0x2bd-0x2bf (2)
0x2b0|                                       01      |             .  |                      n: 1 (valid) 0x2bd-0x2be (1)
0x2b0|                                          7e   |              ~ |                      t: "i64" (0x7e) 0x2be-0x2bf (1)
     |                                               |                |                e[0:11]: 0x2bf-0x2da (27)
     |                                               |                |                  [0]{}: in 0x2bf-0x2c1 (2)
0x2b0|                                             20|                |                    opcode: "local.get" (0x20) 0x2bf-0x2c0 (1)
0x2c0|00                                             |.               |                    x: 0 (valid) 0x2c0-0x2c1 (1)
     |                                               |                |                  [1]{}: in 0x2c1-0x2c3 (2)
0x2c0|   20                                          |                |                    opcode: "local.get" (0x20) 0x2c1-0x2c2 (1)
0x2c0|      01                                       |  .             |                    x: 1 (valid) 0x2c2-0x2c3 (1)
     |                                               |                |                  [2]{}: in 0x2c3-0x2c8 (5)
0x2c0|         fd                                    |   .            |                    opcode: "vector" (0xfd) 0x2c3-0x2c4 (1)
0x2c0|            5b                                 |    [           |                    v_opcode: "v128.store64_lane" (91) 0x2c4-0x2c5 (1)
     |                                               |                |                    m{}: 0x2c5-0x2c7 (2)
0x2c0|               01                              |     .          |                      a: 1 (valid) 0x2c5-0x2c6 (1)
0x2c0|                  00                           |      .         |                      o: 0 (valid) 0x2c6-0x2c7 (1)
0x2c0|                     01                        |       .        |                    l: 1 0x2c7-0x2c8 (1)
     |                                               |                |                  [3]{}: in 0x2c8-0x2ca (2)
0x2c0|                        20                     |                |                    opcode: "local.get" (0x20) 0x2c8-0x2c9 (1)
0x2c0|                           00                  |         .      |                    x: 0 (valid) 0x2c9-0x2ca (1)
     |                                               |                |                  [4]{}: in 0x2ca-0x2cd (3)
0x2c0|                              29               |          )     |                    opcode: "i64.load" (0x29) 0x2ca-0x2cb (1)
     |                                               |                |                    m{}: 0x2cb-0x2cd (2)
0x2c0|                                 03            |           .    |                      a: 3 (valid) 0x2cb-0x2cc (1)
0x2c0|                                    00         |            .   |                      o: 0 (valid) 0x2cc-0x2cd (1)
     |                                               |                |                  [5]{}: in 0x2cd-0x2cf (2)
0x2c0|                                       21      |             !  |                    opcode: "local.set" (0x21) 0x2cd-0x2ce (1)
0x2c0|                                          02   |              . |                    x: 2 (valid) 0x2ce-0x2cf (1)
     |                                               |                |                  [6]{}: in 0x2cf-0x2d1 (2)
0x2c0|                                             41|               A|                    opcode: "i32.const" (0x41) 0x2cf-0x2d0 (1)
0x2d0|00                                             |.               |                    n: 0 (valid) 0x2d0-0x2d1 (1)
     |                                               |                |                  [7]{}: in 0x2d1-0x2d3 (2)
0x2d0|   23                                          | #              |                    opcode: "global.get" (0x23) 0x2d1-0x2d2 (1)
0x2d0|      00                                       |  .             |                    x: 0 (valid) 0x2d2-0x2d3 (1)
     |                                               |                |                  [8]{}: in 0x2d3-0x2d7 (4)
0x2d0|         fd                                    |   .            |                    opcode: "vector" (0xfd) 0x2d3-0x2d4 (1)
0x2d0|            0b                                 |    .           |                    v_opcode: "v128.store" (11) 0x2d4-0x2d5 (1)
     |                                               |                |                    m{}: 0x2d5-0x2d7 (2)
0x2d0|               04                              |     .          |                      a: 4 (valid) 0x2d5-0x2d6 (1)
0x2d0|                  01                           |      .         |                      o: 1 (valid) 0x2d6-0x2d7 (1)
     |                                               |                |                  [9]{}: in 0x2d7-0x2d9 (2)
0x2d0|                     20                        |                |                    opcode: "local.get" (0x20) 0x2d7-0x2d8 (1)
0x2d0|                        02                     |        .       |                    x: 2 (valid) 0x2d8-0x2d9 (1)
     |                                               |                |                  [10]{}: in 0x2d9-0x2da (1)
0x2d0|                           0b                  |         .      |                    opcode: "end" (0xb) 0x2d9-0x2da (1)
     |                                               |                |            [10]{}: code 0x2da-0x2f9 (31)
0x2d0|                              1e               |          .     |              size: 30 (valid) 0x2da-0x2db (1)
     |                                               |                |              code{}: 0x2db-0x2f9 (30)
     |                                               |                |                t{}: 0x2db-0x2de (3)
0x2d0|                                 01            |           .    |                  n: 1 (valid) 0x2db-0x2dc (1)
     |                                               |                |                  x[0:1]: 0x2dc-0x2de (2)
     |                                               |                |                    [0]{}: t 0x2dc-0x2de (2)
0x2d0|                                    01         |            .   |                      n: 1 (valid) 0x2dc-0x2dd (1)
0x2d0|                                       7e      |             ~  |                      t: "i64" (0x7e) 0x2dd-0x2de (1)
     |                                               |                |                e[0:11]: 0x2de-0x2f9 (27)
     |                                               |                |                  [0]{}: in 0x2de-0x2e0 (2)
0x2d0|                                          20   |                |                    opcode: "local.get" (0x20) 0x2de-0x2df (1)
0x2d0|                                             00|               .|                    x: 0 (valid) 0x2df-0x2e0 (1)
     |                                               |                |                  [1]{}: in 0x2e0-0x2e2 (2)
0x2e0|20                                             |                |                    opcode: "local.get" (0x20) 0x2e0-0x2e1 (1)
0x2e0|   01                                          | .              |                    x: 1 (valid) 0x2e1-0x2e2 (1)
     |                                               |                |                  [2]{}: in 0x2e2-0x2e7 (5)
0x2e0|      fd                                       |  .             |                    opcode: "vector" (0xfd) 0x2e2-0x2e3 (1)
0x2e0|         5b                                    |   [            |                    v_opcode: "v128.store64_lane" (91) 0x2e3-0x2e4 (1)
     |                                               |                |                    m{}: 0x2e4-0x2e6 (2)
0x2e0|            02                                 |    .           |                      a: 2 (valid) 0x2e4-0x2e5 (1)
0x2e0|               00                              |     .          |                      o: 0 (valid) 0x2e5-0x2e6 (1)
0x2e0|                  01                           |      .         |                    l: 1 0x2e6-0x2e7 (1)
     |                                               |                |                  [3]{}: in 0x2e7-0x2e9 (2)
0x2e0|                     20                        |                |                    opcode: "local.get" (0x20) 0x2e7-0x2e8 (1)
0x2e0|                        00                     |        .       |                    x: 0 (valid) 0x2e8-0x2e9 (1)
     |                                               |                |                  [4]{}: in 0x2e9-0x2ec (3)
0x2e0|                           29                  |         )      |                    opcode: "i64.load" (0x29) 0x2e9-0x2ea (1)
     |                                               |                |                    m{}: 0x2ea-0x2ec (2)
0x2e0|                              03               |          .     |                      a: 3 (valid) 0x2ea-0x2eb (1)
0x2e0|                                 00            |           .    |                      o: 0 (valid) 0x2eb-0x2ec (1)
     |                                               |                |                  [5]{}: in 0x2ec-0x2ee (2)
0x2e0|                                    21         |            !   |                    opcode: "local.set" (0x21) 0x2ec-0x2ed (1)
0x2e0|                                       02      |             .  |                    x: 2 (valid) 0x2ed-0x2ee (1)
     |                                               |                |                  [6]{}: in 0x2ee-0x2f0 (2)
0x2e0|                                          41   |              A |                    opcode: "i32.const" (0x41) 0x2ee-0x2ef (1)
0x2e0|                                             00|               .|                    n: 0 (valid) 0x2ef-0x2f0 (1)
     |                                               |                |                  [7]{}: in 0x2f0-0x2f2 (2)
0x2f0|23                                             |#               |                    opcode: "global.get" (0x23) 0x2f0-0x2f1 (1)
0x2f0|   00                                          | .              |                    x: 0 (valid) 0x2f1-0x2f2 (1)
     |                                               |                |                  [8]{}: in 0x2f2-0x2f6 (4)
0x2f0|      fd                                       |  .             |                    opcode: "vector" (0xfd) 0x2f2-0x2f3 (1)
0x2f0|         0b                                    |   .            |                    v_opcode: "v128.store" (11) 0x2f3-0x2f4 (1)
     |                                               |                |                    m{}: 0x2f4-0x2f6 (2)
0x2f0|            04                                 |    .           |                      a: 4 (valid) 0x2f4-0x2f5 (1)
0x2f0|               01                              |     .          |                      o: 1 (valid) 0x2f5-0x2f6 (1)
     |                                               |                |                  [9]{}: in 0x2f6-0x2f8 (2)
0x2f0|                  20                           |                |                    opcode: "local.get" (0x20) 0x2f6-0x2f7 (1)
0x2f0|                     02                        |       .        |                    x: 2 (valid) 0x2f7-0x2f8 (1)
     |                                               |                |                  [10]{}: in 0x2f8-0x2f9 (1)
0x2f0|                        0b                     |        .       |                    opcode: "end" (0xb) 0x2f8-0x2f9 (1)
     |                                               |                |            [11]{}: code 0x2f9-0x318 (31)
0x2f0|                           1e                  |         .      |              size: 30 (valid) 0x2f9-0x2fa (1)
     |                                               |                |              code{}: 0x2fa-0x318 (30)
     |                                               |                |                t{}: 0x2fa-0x2fd (3)
0x2f0|                              01               |          .     |                  n: 1 (valid) 0x2fa-0x2fb (1)
     |                                               |                |                  x[0:1]: 0x2fb-0x2fd (2)
     |                                               |                |                    [0]{}: t 0x2fb-0x2fd (2)
0x2f0|                                 01            |           .    |                      n: 1 (valid) 0x2fb-0x2fc (1)
0x2f0|                                    7e         |            ~   |                      t: "i64" (0x7e) 0x2fc-0x2fd (1)
     |                                               |                |                e[0:11]: 0x2fd-0x318 (27)
     |                                               |                |                  [0]{}: in 0x2fd-0x2ff (2)
0x2f0|                                       20      |                |                    opcode: "local.get" (0x20) 0x2fd-0x2fe (1)
0x2f0|                                          00   |              . |                    x: 0 (valid) 0x2fe-0x2ff (1)
     |                                               |                |                  [1]{}: in 0x2ff-0x301 (2)
0x2f0|                                             20|                |                    opcode: "local.get" (0x20) 0x2ff-0x300 (1)
0x300|01                                             |.               |                    x: 1 (valid) 0x300-0x301 (1)
     |                                               |                |                  [2]{}: in 0x301-0x306 (5)
0x300|   fd                                          | .              |                    opcode: "vector" (0xfd) 0x301-0x302 (1)
0x300|      5b                                       |  [             |                    v_opcode: "v128.store64_lane" (91) 0x302-0x303 (1)
     |                                               |                |                    m{}: 0x303-0x305 (2)
0x300|         03                                    |   .            |                      a: 3 (valid) 0x303-0x304 (1)
0x300|            00                                 |    .           |                      o: 0 (valid) 0x304-0x305 (1)
0x300|               01                              |     .          |                    l: 1 0x305-0x306 (1)
     |                                               |                |                  [3]{}: in 0x306-0x308 (2)
0x300|                  20                           |                |                    opcode: "local.get" (0x20) 0x306-0x307 (1)
0x300|                     00                        |       .        |                    x: 0 (valid) 0x307-0x308 (1)
     |                                               |                |                  [4]{}: in 0x308-0x30b (3)
0x300|                        29                     |        )       |                    opcode: "i64.load" (0x29) 0x308-0x309 (1)
     |                                               |                |                    m{}: 0x309-0x30b (2)
0x300|                           03                  |         .      |                      a: 3 (valid) 0x309-0x30a (1)
0x300|                              00               |          .     |                      o: 0 (valid) 0x30a-0x30b (1)
     |                                               |                |                  [5]{}: in 0x30b-0x30d (2)
0x300|                                 21            |           !    |                    opcode: "local.set" (0x21) 0x30b-0x30c (1)
0x300|                                    02         |            .   |                    x: 2 (valid) 0x30c-0x30d (1)
     |                                               |                |                  [6]{}: in 0x30d-0x30f (2)
0x300|                                       41      |             A  |                    opcode: "i32.const" (0x41) 0x30d-0x30e (1)
0x300|                                          00   |              . |                    n: 0 (valid) 0x30e-0x30f (1)
     |                                               |                |                  [7]{}: in 0x30f-0x311 (2)
0x300|                                             23|               #|                    opcode: "global.get" (0x23) 0x30f-0x310 (1)
0x310|00                                             |.               |                    x: 0 (valid) 0x310-0x311 (1)
     |                                               |                |                  [8]{}: in 0x311-0x315 (4)
0x310|   fd                                          | .              |                    opcode: "vector" (0xfd) 0x311-0x312 (1)
0x310|      0b                                       |  .             |                    v_opcode: "v128.store" (11) 0x312-0x313 (1)
     |                                               |                |                    m{}: 0x313-0x315 (2)
0x310|         04                                    |   .            |                      a: 4 (valid) 0x313-0x314 (1)
0x310|            01                                 |    .           |                      o: 1 (valid) 0x314-0x315 (1)
     |                                               |                |                  [9]{}: in 0x315-0x317 (2)
0x310|               20                              |                |                    opcode: "local.get" (0x20) 0x315-0x316 (1)
0x310|                  02                           |      .         |                    x: 2 (valid) 0x316-0x317 (1)
     |                                               |                |                  [10]{}: in 0x317-0x318 (1)
0x310|                     0b|                       |       .|       |                    opcode: "end" (0xb) 0x317-0x318 (1)
