$ fq -d wasm dv simd_f64x2_arith-0.wasm
    |00 01 02 03 04 05 06 07 08 09 0a 0b 0c 0d 0e 0f|0123456789abcdef|.{}: simd_f64x2_arith-0.wasm (wasm) 0x0-0xa5.7 (166)
0x00|00 61 73 6d                                    |.asm            |  magic: raw bits (valid) 0x0-0x3.7 (4)
0x00|            01 00 00 00                        |    ....        |  version: 1 0x4-0x7.7 (4)
    |                                               |                |  sections[0:4]: 0x8-0xa5.7 (158)
    |                                               |                |    [0]{}: section 0x8-0x15.7 (14)
0x00|                        01                     |        .       |      id: "type section" (1) 0x8-0x8.7 (1)
0x00|                           0c                  |         .      |      size: 12 0x9-0x9.7 (1)
    |                                               |                |      content{}: 0xa-0x15.7 (12)
    |                                               |                |        ft{}: 0xa-0x15.7 (12)
0x00|                              02               |          .     |          n: 2 0xa-0xa.7 (1)
    |                                               |                |          x[0:2]: 0xb-0x15.7 (11)
    |                                               |                |            [0]{}: ft 0xb-0x10.7 (6)
0x00|                                 60            |           `    |              tag: 0x60 (valid) 0xb-0xb.7 (1)
    |                                               |                |              rt1{}: 0xc-0xe.7 (3)
0x00|                                    02         |            .   |                n: 2 0xc-0xc.7 (1)
    |                                               |                |                x[0:2]: 0xd-0xe.7 (2)
0x00|                                       7b      |             {  |                  [0]: "v128" (0x7b) t 0xd-0xd.7 (1)
0x00|                                          7b   |              { |                  [1]: "v128" (0x7b) t 0xe-0xe.7 (1)
    |                                               |                |              rt2{}: 0xf-0x10.7 (2)
0x00|                                             01|               .|                n: 1 0xf-0xf.7 (1)
    |                                               |                |                x[0:1]: 0x10-0x10.7 (1)
0x10|7b                                             |{               |                  [0]: "v128" (0x7b) t 0x10-0x10.7 (1)
    |                                               |                |            [1]{}: ft 0x11-0x15.7 (5)
0x10|   60                                          | `              |              tag: 0x60 (valid) 0x11-0x11.7 (1)
    |                                               |                |              rt1{}: 0x12-0x13.7 (2)
0x10|      01                                       |  .             |                n: 1 0x12-0x12.7 (1)
    |                                               |                |                x[0:1]: 0x13-0x13.7 (1)
0x10|         7b                                    |   {            |                  [0]: "v128" (0x7b) t 0x13-0x13.7 (1)
    |                                               |                |              rt2{}: 0x14-0x15.7 (2)
0x10|            01                                 |    .           |                n: 1 0x14-0x14.7 (1)
    |                                               |                |                x[0:1]: 0x15-0x15.7 (1)
0x10|               7b                              |     {          |                  [0]: "v128" (0x7b) t 0x15-0x15.7 (1)
    |                                               |                |    [1]{}: section 0x16-0x1e.7 (9)
0x10|                  03                           |      .         |      id: "function section" (3) 0x16-0x16.7 (1)
0x10|                     07                        |       .        |      size: 7 0x17-0x17.7 (1)
    |                                               |                |      content{}: 0x18-0x1e.7 (7)
    |                                               |                |        x{}: 0x18-0x1e.7 (7)
0x10|                        06                     |        .       |          n: 6 0x18-0x18.7 (1)
    |                                               |                |          x[0:6]: 0x19-0x1e.7 (6)
0x10|                           00                  |         .      |            [0]: 0 x 0x19-0x19.7 (1)
0x10|                              00               |          .     |            [1]: 0 x 0x1a-0x1a.7 (1)
0x10|                                 00            |           .    |            [2]: 0 x 0x1b-0x1b.7 (1)
0x10|                                    00         |            .   |            [3]: 0 x 0x1c-0x1c.7 (1)
0x10|                                       01      |             .  |            [4]: 1 x 0x1d-0x1d.7 (1)
0x10|                                          01   |              . |            [5]: 1 x 0x1e-0x1e.7 (1)
    |                                               |                |    [2]{}: section 0x1f-0x6a.7 (76)
0x10|                                             07|               .|      id: "export section" (7) 0x1f-0x1f.7 (1)
0x20|4a                                             |J               |      size: 74 0x20-0x20.7 (1)
    |                                               |                |      content{}: 0x21-0x6a.7 (74)
    |                                               |                |        ex{}: 0x21-0x6a.7 (74)
0x20|   06                                          | .              |          n: 6 0x21-0x21.7 (1)
    |                                               |                |          x[0:6]: 0x22-0x6a.7 (73)
    |                                               |                |            [0]{}: ex 0x22-0x2d.7 (12)
    |                                               |                |              nm{}: 0x22-0x2b.7 (10)
0x20|      09                                       |  .             |                n: 9 0x22-0x22.7 (1)
0x20|         66 36 34 78 32 2e 61 64 64            |   f64x2.add    |                b: "f64x2.add" 0x23-0x2b.7 (9)
    |                                               |                |              d{}: 0x2c-0x2d.7 (2)
0x20|                                    00         |            .   |                tag: "funcidx" (0x0) 0x2c-0x2c.7 (1)
0x20|                                       00      |             .  |                x: 0 0x2d-0x2d.7 (1)
    |                                               |                |            [1]{}: ex 0x2e-0x39.7 (12)
    |                                               |                |              nm{}: 0x2e-0x37.7 (10)
0x20|                                          09   |              . |                n: 9 0x2e-0x2e.7 (1)
0x20|                                             66|               f|                b: "f64x2.sub" 0x2f-0x37.7 (9)
0x30|36 34 78 32 2e 73 75 62                        |64x2.sub        |
    |                                               |                |              d{}: 0x38-0x39.7 (2)
0x30|                        00                     |        .       |                tag: "funcidx" (0x0) 0x38-0x38.7 (1)
0x30|                           01                  |         .      |                x: 1 0x39-0x39.7 (1)
    |                                               |                |            [2]{}: ex 0x3a-0x45.7 (12)
    |                                               |                |              nm{}: 0x3a-0x43.7 (10)
0x30|                              09               |          .     |                n: 9 0x3a-0x3a.7 (1)
0x30|                                 66 36 34 78 32|           f64x2|                b: "f64x2.mul" 0x3b-0x43.7 (9)
0x40|2e 6d 75 6c                                    |.mul            |
    |                                               |                |              d{}: 0x44-0x45.7 (2)
0x40|            00                                 |    .           |                tag: "funcidx" (0x0) 0x44-0x44.7 (1)
0x40|               02                              |     .          |                x: 2 0x45-0x45.7 (1)
    |                                               |                |            [3]{}: ex 0x46-0x51.7 (12)
    |                                               |                |              nm{}: 0x46-0x4f.7 (10)
0x40|                  09                           |      .         |                n: 9 0x46-0x46.7 (1)
0x40|                     66 36 34 78 32 2e 64 69 76|       f64x2.div|                b: "f64x2.div" 0x47-0x4f.7 (9)
    |                                               |                |              d{}: 0x50-0x51.7 (2)
0x50|00                                             |.               |                tag: "funcidx" (0x0) 0x50-0x50.7 (1)
0x50|   03                                          | .              |                x: 3 0x51-0x51.7 (1)
    |                                               |                |            [4]{}: ex 0x52-0x5d.7 (12)
    |                                               |                |              nm{}: 0x52-0x5b.7 (10)
0x50|      09                                       |  .             |                n: 9 0x52-0x52.7 (1)
0x50|         66 36 34 78 32 2e 6e 65 67            |   f64x2.neg    |                b: "f64x2.neg" 0x53-0x5b.7 (9)
    |                                               |                |              d{}: 0x5c-0x5d.7 (2)
0x50|                                    00         |            .   |                tag: "funcidx" (0x0) 0x5c-0x5c.7 (1)
0x50|                                       04      |             .  |                x: 4 0x5d-0x5d.7 (1)
    |                                               |                |            [5]{}: ex 0x5e-0x6a.7 (13)
    |                                               |                |              nm{}: 0x5e-0x68.7 (11)
0x50|                                          0a   |              . |                n: 10 0x5e-0x5e.7 (1)
0x50|                                             66|               f|                b: "f64x2.sqrt" 0x5f-0x68.7 (10)
0x60|36 34 78 32 2e 73 71 72 74                     |64x2.sqrt       |
    |                                               |                |              d{}: 0x69-0x6a.7 (2)
0x60|                           00                  |         .      |                tag: "funcidx" (0x0) 0x69-0x69.7 (1)
0x60|                              05               |          .     |                x: 5 0x6a-0x6a.7 (1)
    |                                               |                |    [3]{}: section 0x6b-0xa5.7 (59)
0x60|                                 0a            |           .    |      id: "code section" (10) 0x6b-0x6b.7 (1)
0x60|                                    39         |            9   |      size: 57 0x6c-0x6c.7 (1)
    |                                               |                |      content{}: 0x6d-0xa5.7 (57)
    |                                               |                |        code{}: 0x6d-0xa5.7 (57)
0x60|                                       06      |             .  |          n: 6 0x6d-0x6d.7 (1)
    |                                               |                |          x[0:6]: 0x6e-0xa5.7 (56)
    |                                               |                |            [0]{}: code 0x6e-0x77.7 (10)
0x60|                                          09   |              . |              size: 9 0x6e-0x6e.7 (1)
    |                                               |                |              code{}: 0x6f-0x77.7 (9)
    |                                               |                |                t{}: 0x6f-0x6f.7 (1)
0x60|                                             00|               .|                  n: 0 0x6f-0x6f.7 (1)
    |                                               |                |                  x[0:0]: 0x70-NA (0)
    |                                               |                |                e[0:4]: 0x70-0x77.7 (8)
    |                                               |                |                  [0]{}: in 0x70-0x71.7 (2)
0x70|20                                             |                |                    local.get: 0x20 (valid) 0x70-0x70.7 (1)
0x70|   00                                          | .              |                    x: 0 0x71-0x71.7 (1)
    |                                               |                |                  [1]{}: in 0x72-0x73.7 (2)
0x70|      20                                       |                |                    local.get: 0x20 (valid) 0x72-0x72.7 (1)
0x70|         01                                    |   .            |                    x: 1 0x73-0x73.7 (1)
    |                                               |                |                  [2]{}: in 0x74-0x76.7 (3)
0x70|            fd                                 |    .           |                    prefix: 0xfd (valid) 0x74-0x74.7 (1)
0x70|               f0 01                           |     ..         |                    f64x2.add: 240 (valid) 0x75-0x76.7 (2)
    |                                               |                |                  [3]{}: in 0x77-0x77.7 (1)
0x70|                     0b                        |       .        |                    end: 0xb (valid) 0x77-0x77.7 (1)
    |                                               |                |            [1]{}: code 0x78-0x81.7 (10)
0x70|                        09                     |        .       |              size: 9 0x78-0x78.7 (1)
    |                                               |                |              code{}: 0x79-0x81.7 (9)
    |                                               |                |                t{}: 0x79-0x79.7 (1)
0x70|                           00                  |         .      |                  n: 0 0x79-0x79.7 (1)
    |                                               |                |                  x[0:0]: 0x7a-NA (0)
    |                                               |                |                e[0:4]: 0x7a-0x81.7 (8)
    |                                               |                |                  [0]{}: in 0x7a-0x7b.7 (2)
0x70|                              20               |                |                    local.get: 0x20 (valid) 0x7a-0x7a.7 (1)
0x70|                                 00            |           .    |                    x: 0 0x7b-0x7b.7 (1)
    |                                               |                |                  [1]{}: in 0x7c-0x7d.7 (2)
0x70|                                    20         |                |                    local.get: 0x20 (valid) 0x7c-0x7c.7 (1)
0x70|                                       01      |             .  |                    x: 1 0x7d-0x7d.7 (1)
    |                                               |                |                  [2]{}: in 0x7e-0x80.7 (3)
0x70|                                          fd   |              . |                    prefix: 0xfd (valid) 0x7e-0x7e.7 (1)
0x70|                                             f1|               .|                    f64x2.sub: 241 (valid) 0x7f-0x80.7 (2)
0x80|01                                             |.               |
    |                                               |                |                  [3]{}: in 0x81-0x81.7 (1)
0x80|   0b                                          | .              |                    end: 0xb (valid) 0x81-0x81.7 (1)
    |                                               |                |            [2]{}: code 0x82-0x8b.7 (10)
0x80|      09                                       |  .             |              size: 9 0x82-0x82.7 (1)
    |                                               |                |              code{}: 0x83-0x8b.7 (9)
    |                                               |                |                t{}: 0x83-0x83.7 (1)
0x80|         00                                    |   .            |                  n: 0 0x83-0x83.7 (1)
    |                                               |                |                  x[0:0]: 0x84-NA (0)
    |                                               |                |                e[0:4]: 0x84-0x8b.7 (8)
    |                                               |                |                  [0]{}: in 0x84-0x85.7 (2)
0x80|            20                                 |                |                    local.get: 0x20 (valid) 0x84-0x84.7 (1)
0x80|               00                              |     .          |                    x: 0 0x85-0x85.7 (1)
    |                                               |                |                  [1]{}: in 0x86-0x87.7 (2)
0x80|                  20                           |                |                    local.get: 0x20 (valid) 0x86-0x86.7 (1)
0x80|                     01                        |       .        |                    x: 1 0x87-0x87.7 (1)
    |                                               |                |                  [2]{}: in 0x88-0x8a.7 (3)
0x80|                        fd                     |        .       |                    prefix: 0xfd (valid) 0x88-0x88.7 (1)
0x80|                           f2 01               |         ..     |                    f64x2.mul: 242 (valid) 0x89-0x8a.7 (2)
    |                                               |                |                  [3]{}: in 0x8b-0x8b.7 (1)
0x80|                                 0b            |           .    |                    end: 0xb (valid) 0x8b-0x8b.7 (1)
    |                                               |                |            [3]{}: code 0x8c-0x95.7 (10)
0x80|                                    09         |            .   |              size: 9 0x8c-0x8c.7 (1)
    |                                               |                |              code{}: 0x8d-0x95.7 (9)
    |                                               |                |                t{}: 0x8d-0x8d.7 (1)
0x80|                                       00      |             .  |                  n: 0 0x8d-0x8d.7 (1)
    |                                               |                |                  x[0:0]: 0x8e-NA (0)
    |                                               |                |                e[0:4]: 0x8e-0x95.7 (8)
    |                                               |                |                  [0]{}: in 0x8e-0x8f.7 (2)
0x80|                                          20   |                |                    local.get: 0x20 (valid) 0x8e-0x8e.7 (1)
0x80|                                             00|               .|                    x: 0 0x8f-0x8f.7 (1)
    |                                               |                |                  [1]{}: in 0x90-0x91.7 (2)
0x90|20                                             |                |                    local.get: 0x20 (valid) 0x90-0x90.7 (1)
0x90|   01                                          | .              |                    x: 1 0x91-0x91.7 (1)
    |                                               |                |                  [2]{}: in 0x92-0x94.7 (3)
0x90|      fd                                       |  .             |                    prefix: 0xfd (valid) 0x92-0x92.7 (1)
0x90|         f3 01                                 |   ..           |                    f64x2.div: 243 (valid) 0x93-0x94.7 (2)
    |                                               |                |                  [3]{}: in 0x95-0x95.7 (1)
0x90|               0b                              |     .          |                    end: 0xb (valid) 0x95-0x95.7 (1)
    |                                               |                |            [4]{}: code 0x96-0x9d.7 (8)
0x90|                  07                           |      .         |              size: 7 0x96-0x96.7 (1)
    |                                               |                |              code{}: 0x97-0x9d.7 (7)
    |                                               |                |                t{}: 0x97-0x97.7 (1)
0x90|                     00                        |       .        |                  n: 0 0x97-0x97.7 (1)
    |                                               |                |                  x[0:0]: 0x98-NA (0)
    |                                               |                |                e[0:3]: 0x98-0x9d.7 (6)
    |                                               |                |                  [0]{}: in 0x98-0x99.7 (2)
0x90|                        20                     |                |                    local.get: 0x20 (valid) 0x98-0x98.7 (1)
0x90|                           00                  |         .      |                    x: 0 0x99-0x99.7 (1)
    |                                               |                |                  [1]{}: in 0x9a-0x9c.7 (3)
0x90|                              fd               |          .     |                    prefix: 0xfd (valid) 0x9a-0x9a.7 (1)
0x90|                                 ed 01         |           ..   |                    f64x2.neg: 237 (valid) 0x9b-0x9c.7 (2)
    |                                               |                |                  [2]{}: in 0x9d-0x9d.7 (1)
0x90|                                       0b      |             .  |                    end: 0xb (valid) 0x9d-0x9d.7 (1)
    |                                               |                |            [5]{}: code 0x9e-0xa5.7 (8)
0x90|                                          07   |              . |              size: 7 0x9e-0x9e.7 (1)
    |                                               |                |              code{}: 0x9f-0xa5.7 (7)
    |                                               |                |                t{}: 0x9f-0x9f.7 (1)
0x90|                                             00|               .|                  n: 0 0x9f-0x9f.7 (1)
    |                                               |                |                  x[0:0]: 0xa0-NA (0)
    |                                               |                |                e[0:3]: 0xa0-0xa5.7 (6)
    |                                               |                |                  [0]{}: in 0xa0-0xa1.7 (2)
0xa0|20                                             |                |                    local.get: 0x20 (valid) 0xa0-0xa0.7 (1)
0xa0|   00                                          | .              |                    x: 0 0xa1-0xa1.7 (1)
    |                                               |                |                  [1]{}: in 0xa2-0xa4.7 (3)
0xa0|      fd                                       |  .             |                    prefix: 0xfd (valid) 0xa2-0xa2.7 (1)
0xa0|         ef 01                                 |   ..           |                    f64x2.sqrt: 239 (valid) 0xa3-0xa4.7 (2)
    |                                               |                |                  [2]{}: in 0xa5-0xa5.7 (1)
0xa0|               0b|                             |     .|         |                    end: 0xb (valid) 0xa5-0xa5.7 (1)
