$ fq -d wasm dv simd_align-45.wasm
     |00 01 02 03 04 05 06 07 08 09 0a 0b 0c 0d 0e 0f|0123456789abcdef|.{}: simd_align-45.wasm (wasm) 0x0-0x13d (317)
0x000|00 61 73 6d                                    |.asm            |  magic: raw bits (valid) 0x0-0x4 (4)
0x000|            01 00 00 00                        |    ....        |  version: 1 0x4-0x8 (4)
     |                                               |                |  sections[0:5]: 0x8-0x13d (309)
     |                                               |                |    [0]{}: section 0x8-0xf (7)
0x000|                        01                     |        .       |      id: "type_section" (1) 0x8-0x9 (1)
0x000|                           05                  |         .      |      size: 5 (valid) 0x9-0xa (1)
     |                                               |                |      content{}: 0xa-0xf (5)
     |                                               |                |        ft{}: 0xa-0xf (5)
0x000|                              01               |          .     |          n: 1 (valid) 0xa-0xb (1)
     |                                               |                |          x[0:1]: 0xb-0xf (4)
     |                                               |                |            [0]{}: ft 0xb-0xf (4)
0x000|                                 60            |           `    |              tag: 0x60 (valid) 0xb-0xc (1)
     |                                               |                |              rt1{}: 0xc-0xd (1)
0x000|                                    00         |            .   |                n: 0 (valid) 0xc-0xd (1)
     |                                               |                |                x[0:0]: 0xd-0xd (0)
     |                                               |                |              rt2{}: 0xd-0xf (2)
0x000|                                       01      |             .  |                n: 1 (valid) 0xd-0xe (1)
     |                                               |                |                x[0:1]: 0xe-0xf (1)
0x000|                                          7b   |              { |                  [0]: "v128" (0x7b) t 0xe-0xf (1)
     |                                               |                |    [1]{}: section 0xf-0x16 (7)
0x000|                                             03|               .|      id: "function_section" (3) 0xf-0x10 (1)
0x010|05                                             |.               |      size: 5 (valid) 0x10-0x11 (1)
     |                                               |                |      content{}: 0x11-0x16 (5)
     |                                               |                |        x{}: 0x11-0x16 (5)
0x010|   04                                          | .              |          n: 4 (valid) 0x11-0x12 (1)
     |                                               |                |          x[0:4]: 0x12-0x16 (4)
0x010|      00                                       |  .             |            [0]: 0 x (valid) 0x12-0x13 (1)
0x010|         00                                    |   .            |            [1]: 0 x (valid) 0x13-0x14 (1)
0x010|            00                                 |    .           |            [2]: 0 x (valid) 0x14-0x15 (1)
0x010|               00                              |     .          |            [3]: 0 x (valid) 0x15-0x16 (1)
     |                                               |                |    [2]{}: section 0x16-0x1b (5)
0x010|                  05                           |      .         |      id: "memory_section" (5) 0x16-0x17 (1)
0x010|                     03                        |       .        |      size: 3 (valid) 0x17-0x18 (1)
     |                                               |                |      content{}: 0x18-0x1b (3)
     |                                               |                |        mem{}: 0x18-0x1b (3)
0x010|                        01                     |        .       |          n: 1 (valid) 0x18-0x19 (1)
     |                                               |                |          x[0:1]: 0x19-0x1b (2)
     |                                               |                |            [0]{}: mem 0x19-0x1b (2)
     |                                               |                |              lim{}: 0x19-0x1b (2)
0x010|                           00                  |         .      |                tag: 0x0 0x19-0x1a (1)
0x010|                              01               |          .     |                n: 1 (valid) 0x1a-0x1b (1)
     |                                               |                |    [3]{}: section 0x1b-0xad (146)
0x010|                                 07            |           .    |      id: "export_section" (7) 0x1b-0x1c (1)
0x010|                                    8f 01      |            ..  |      size: 143 (valid) 0x1c-0x1e (2)
     |                                               |                |      content{}: 0x1e-0xad (143)
     |                                               |                |        ex{}: 0x1e-0xad (143)
0x010|                                          04   |              . |          n: 4 (valid) 0x1e-0x1f (1)
     |                                               |                |          x[0:4]: 0x1f-0xad (142)
     |                                               |                |            [0]{}: ex 0x1f-0x3f (32)
     |                                               |                |              nm{}: 0x1f-0x3d (30)
0x010|                                             1d|               .|                n: 29 (valid) 0x1f-0x20 (1)
0x020|76 31 32 38 5f 75 6e 61 6c 69 67 6e 65 64 5f 72|v128_unaligned_r|                b: "v128_unaligned_read_and_write" 0x20-0x3d (29)
0x030|65 61 64 5f 61 6e 64 5f 77 72 69 74 65         |ead_and_write   |
     |                                               |                |              d{}: 0x3d-0x3f (2)
0x030|                                       00      |             .  |                tag: "funcidx" (0x0) 0x3d-0x3e (1)
0x030|                                          00   |              . |                x: 0 (valid) 0x3e-0x3f (1)
     |                                               |                |            [1]{}: ex 0x3f-0x5d (30)
     |                                               |                |              nm{}: 0x3f-0x5b (28)
0x030|                                             1b|               .|                n: 27 (valid) 0x3f-0x40 (1)
0x040|76 31 32 38 5f 61 6c 69 67 6e 65 64 5f 72 65 61|v128_aligned_rea|                b: "v128_aligned_read_and_write" 0x40-0x5b (27)
0x050|64 5f 61 6e 64 5f 77 72 69 74 65               |d_and_write     |
     |                                               |                |              d{}: 0x5b-0x5d (2)
0x050|                                 00            |           .    |                tag: "funcidx" (0x0) 0x5b-0x5c (1)
0x050|                                    01         |            .   |                x: 1 (valid) 0x5c-0x5d (1)
     |                                               |                |            [2]{}: ex 0x5d-0x85 (40)
     |                                               |                |              nm{}: 0x5d-0x83 (38)
0x050|                                       25      |             %  |                n: 37 (valid) 0x5d-0x5e (1)
0x050|                                          76 31|              v1|                b: "v128_aligned_read_and_unaligned_write" 0x5e-0x83 (37)
0x060|32 38 5f 61 6c 69 67 6e 65 64 5f 72 65 61 64 5f|28_aligned_read_|
*    |until 0x82.7 (37)                              |                |
     |                                               |                |              d{}: 0x83-0x85 (2)
0x080|         00                                    |   .            |                tag: "funcidx" (0x0) 0x83-0x84 (1)
0x080|            02                                 |    .           |                x: 2 (valid) 0x84-0x85 (1)
     |                                               |                |            [3]{}: ex 0x85-0xad (40)
     |                                               |                |              nm{}: 0x85-0xab (38)
0x080|               25                              |     %          |                n: 37 (valid) 0x85-0x86 (1)
0x080|                  76 31 32 38 5f 75 6e 61 6c 69|      v128_unali|                b: "v128_unaligned_read_and_aligned_write" 0x86-0xab (37)
0x090|67 6e 65 64 5f 72 65 61 64 5f 61 6e 64 5f 61 6c|gned_read_and_al|
0x0a0|69 67 6e 65 64 5f 77 72 69 74 65               |igned_write     |
     |                                               |                |              d{}: 0xab-0xad (2)
0x0a0|                                 00            |           .    |                tag: "funcidx" (0x0) 0xab-0xac (1)
0x0a0|                                    03         |            .   |                x: 3 (valid) 0xac-0xad (1)
     |                                               |                |    [4]{}: section 0xad-0x13d (144)
0x0a0|                                       0a      |             .  |      id: "code_section" (10) 0xad-0xae (1)
0x0a0|                                          8d 01|              ..|      size: 141 (valid) 0xae-0xb0 (2)
     |                                               |                |      content{}: 0xb0-0x13d (141)
     |                                               |                |        code{}: 0xb0-0x13d (141)
0x0b0|04                                             |.               |          n: 4 (valid) 0xb0-0xb1 (1)
     |                                               |                |          x[0:4]: 0xb1-0x13d (140)
     |                                               |                |            [0]{}: code 0xb1-0xd4 (35)
0x0b0|   22                                          | "              |              size: 34 (valid) 0xb1-0xb2 (1)
     |                                               |                |              code{}: 0xb2-0xd4 (34)
     |                                               |                |                t{}: 0xb2-0xb5 (3)
0x0b0|      01                                       |  .             |                  n: 1 (valid) 0xb2-0xb3 (1)
     |                                               |                |                  x[0:1]: 0xb3-0xb5 (2)
     |                                               |                |                    [0]{}: t 0xb3-0xb5 (2)
0x0b0|         01                                    |   .            |                      n: 1 (valid) 0xb3-0xb4 (1)
0x0b0|            7b                                 |    {           |                      t: "v128" (0x7b) 0xb4-0xb5 (1)
     |                                               |                |                e[0:6]: 0xb5-0xd4 (31)
     |                                               |                |                  [0]{}: in 0xb5-0xb7 (2)
0x0b0|               41                              |     A          |                    opcode: "i32.const" (0x41) 0xb5-0xb6 (1)
0x0b0|                  00                           |      .         |                    n: 0 (valid) 0xb6-0xb7 (1)
     |                                               |                |                  [1]{}: in 0xb7-0xc9 (18)
0x0b0|                     fd                        |       .        |                    opcode: "vector" (0xfd) 0xb7-0xb8 (1)
0x0b0|                        0c                     |        .       |                    v_opcode: "v128.const" (12) 0xb8-0xb9 (1)
0x0b0|                           00 01 02 03 04 05 06|         .......|                    bytes: raw bits 0xb9-0xc9 (16)
0x0c0|07 08 09 0a 0b 0c 0d 0e 0f                     |.........       |
     |                                               |                |                  [2]{}: in 0xc9-0xcd (4)
0x0c0|                           fd                  |         .      |                    opcode: "vector" (0xfd) 0xc9-0xca (1)
0x0c0|                              0b               |          .     |                    v_opcode: "v128.store" (11) 0xca-0xcb (1)
     |                                               |                |                    m{}: 0xcb-0xcd (2)
0x0c0|                                 04            |           .    |                      a: 4 (valid) 0xcb-0xcc (1)
0x0c0|                                    00         |            .   |                      o: 0 (valid) 0xcc-0xcd (1)
     |                                               |                |                  [3]{}: in 0xcd-0xcf (2)
0x0c0|                                       41      |             A  |                    opcode: "i32.const" (0x41) 0xcd-0xce (1)
0x0c0|                                          00   |              . |                    n: 0 (valid) 0xce-0xcf (1)
     |                                               |                |                  [4]{}: in 0xcf-0xd3 (4)
0x0c0|                                             fd|               .|                    opcode: "vector" (0xfd) 0xcf-0xd0 (1)
0x0d0|00                                             |.               |                    v_opcode: "v128.load" (0) 0xd0-0xd1 (1)
     |                                               |                |                    m{}: 0xd1-0xd3 (2)
0x0d0|   04                                          | .              |                      a: 4 (valid) 0xd1-0xd2 (1)
0x0d0|      00                                       |  .             |                      o: 0 (valid) 0xd2-0xd3 (1)
     |                                               |                |                  [5]{}: in 0xd3-0xd4 (1)
0x0d0|         0b                                    |   .            |                    opcode: "end" (0xb) 0xd3-0xd4 (1)
     |                                               |                |            [1]{}: code 0xd4-0xf7 (35)
0x0d0|            22                                 |    "           |              size: 34 (valid) 0xd4-0xd5 (1)
     |                                               |                |              code{}: 0xd5-0xf7 (34)
     |                                               |                |                t{}: 0xd5-0xd8 (3)
0x0d0|               01                              |     .          |                  n: 1 (valid) 0xd5-0xd6 (1)
     |                                               |                |                  x[0:1]: 0xd6-0xd8 (2)
     |                                               |                |                    [0]{}: t 0xd6-0xd8 (2)
0x0d0|                  01                           |      .         |                      n: 1 (valid) 0xd6-0xd7 (1)
0x0d0|                     7b                        |       {        |                      t: "v128" (0x7b) 0xd7-0xd8 (1)
     |                                               |                |                e[0:6]: 0xd8-0xf7 (31)
     |                                               |                |                  [0]{}: in 0xd8-0xda (2)
0x0d0|                        41                     |        A       |                    opcode: "i32.const" (0x41) 0xd8-0xd9 (1)
0x0d0|                           00                  |         .      |                    n: 0 (valid) 0xd9-0xda (1)
     |                                               |                |                  [1]{}: in 0xda-0xec (18)
0x0d0|                              fd               |          .     |                    opcode: "vector" (0xfd) 0xda-0xdb (1)
0x0d0|                                 0c            |           .    |                    v_opcode: "v128.const" (12) 0xdb-0xdc (1)
0x0d0|                                    00 00 01 00|            ....|                    bytes: raw bits 0xdc-0xec (16)
0x0e0|02 00 03 00 04 00 05 00 06 00 07 00            |............    |
     |                                               |                |                  [2]{}: in 0xec-0xf0 (4)
0x0e0|                                    fd         |            .   |                    opcode: "vector" (0xfd) 0xec-0xed (1)
0x0e0|                                       0b      |             .  |                    v_opcode: "v128.store" (11) 0xed-0xee (1)
     |                                               |                |                    m{}: 0xee-0xf0 (2)
0x0e0|                                          01   |              . |                      a: 1 (valid) 0xee-0xef (1)
0x0e0|                                             00|               .|                      o: 0 (valid) 0xef-0xf0 (1)
     |                                               |                |                  [3]{}: in 0xf0-0xf2 (2)
0x0f0|41                                             |A               |                    opcode: "i32.const" (0x41) 0xf0-0xf1 (1)
0x0f0|   00                                          | .              |                    n: 0 (valid) 0xf1-0xf2 (1)
     |                                               |                |                  [4]{}: in 0xf2-0xf6 (4)
0x0f0|      fd                                       |  .             |                    opcode: "vector" (0xfd) 0xf2-0xf3 (1)
0x0f0|         00                                    |   .            |                    v_opcode: "v128.load" (0) 0xf3-0xf4 (1)
     |                                               |                |                    m{}: 0xf4-0xf6 (2)
0x0f0|            01                                 |    .           |                      a: 1 (valid) 0xf4-0xf5 (1)
0x0f0|               00                              |     .          |                      o: 0 (valid) 0xf5-0xf6 (1)
     |                                               |                |                  [5]{}: in 0xf6-0xf7 (1)
0x0f0|                  0b                           |      .         |                    opcode: "end" (0xb) 0xf6-0xf7 (1)
     |                                               |                |            [2]{}: code 0xf7-0x11a (35)
0x0f0|                     22                        |       "        |              size: 34 (valid) 0xf7-0xf8 (1)
     |                                               |                |              code{}: 0xf8-0x11a (34)
     |                                               |                |                t{}: 0xf8-0xfb (3)
0x0f0|                        01                     |        .       |                  n: 1 (valid) 0xf8-0xf9 (1)
     |                                               |                |                  x[0:1]: 0xf9-0xfb (2)
     |                                               |                |                    [0]{}: t 0xf9-0xfb (2)
0x0f0|                           01                  |         .      |                      n: 1 (valid) 0xf9-0xfa (1)
0x0f0|                              7b               |          {     |                      t: "v128" (0x7b) 0xfa-0xfb (1)
     |                                               |                |                e[0:6]: 0xfb-0x11a (31)
     |                                               |                |                  [0]{}: in 0xfb-0xfd (2)
0x0f0|                                 41            |           A    |                    opcode: "i32.const" (0x41) 0xfb-0xfc (1)
0x0f0|                                    00         |            .   |                    n: 0 (valid) 0xfc-0xfd (1)
     |                                               |                |                  [1]{}: in 0xfd-0x10f (18)
0x0f0|                                       fd      |             .  |                    opcode: "vector" (0xfd) 0xfd-0xfe (1)
0x0f0|                                          0c   |              . |                    v_opcode: "v128.const" (12) 0xfe-0xff (1)
0x0f0|                                             00|               .|                    bytes: raw bits 0xff-0x10f (16)
0x100|00 00 00 01 00 00 00 02 00 00 00 03 00 00 00   |............... |
     |                                               |                |                  [2]{}: in 0x10f-0x113 (4)
0x100|                                             fd|               .|                    opcode: "vector" (0xfd) 0x10f-0x110 (1)
0x110|0b                                             |.               |                    v_opcode: "v128.store" (11) 0x110-0x111 (1)
     |                                               |                |                    m{}: 0x111-0x113 (2)
0x110|   04                                          | .              |                      a: 4 (valid) 0x111-0x112 (1)
0x110|      00                                       |  .             |                      o: 0 (valid) 0x112-0x113 (1)
     |                                               |                |                  [3]{}: in 0x113-0x115 (2)
0x110|         41                                    |   A            |                    opcode: "i32.const" (0x41) 0x113-0x114 (1)
0x110|            00                                 |    .           |                    n: 0 (valid) 0x114-0x115 (1)
     |                                               |                |                  [4]{}: in 0x115-0x119 (4)
0x110|               fd                              |     .          |                    opcode: "vector" (0xfd) 0x115-0x116 (1)
0x110|                  00                           |      .         |                    v_opcode: "v128.load" (0) 0x116-0x117 (1)
     |                                               |                |                    m{}: 0x117-0x119 (2)
0x110|                     01                        |       .        |                      a: 1 (valid) 0x117-0x118 (1)
0x110|                        00                     |        .       |                      o: 0 (valid) 0x118-0x119 (1)
     |                                               |                |                  [5]{}: in 0x119-0x11a (1)
0x110|                           0b                  |         .      |                    opcode: "end" (0xb) 0x119-0x11a (1)
     |                                               |                |            [3]{}: code 0x11a-0x13d (35)
0x110|                              22               |          "     |              size: 34 (valid) 0x11a-0x11b (1)
     |                                               |                |              code{}: 0x11b-0x13d (34)
     |                                               |                |                t{}: 0x11b-0x11e (3)
0x110|                                 01            |           .    |                  n: 1 (valid) 0x11b-0x11c (1)
     |                                               |                |                  x[0:1]: 0x11c-0x11e (2)
     |                                               |                |                    [0]{}: t 0x11c-0x11e (2)
0x110|                                    01         |            .   |                      n: 1 (valid) 0x11c-0x11d (1)
0x110|                                       7b      |             {  |                      t: "v128" (0x7b) 0x11d-0x11e (1)
     |                                               |                |                e[0:6]: 0x11e-0x13d (31)
     |                                               |                |                  [0]{}: in 0x11e-0x120 (2)
0x110|                                          41   |              A |                    opcode: "i32.const" (0x41) 0x11e-0x11f (1)
0x110|                                             00|               .|                    n: 0 (valid) 0x11f-0x120 (1)
     |                                               |                |                  [1]{}: in 0x120-0x132 (18)
0x120|fd                                             |.               |                    opcode: "vector" (0xfd) 0x120-0x121 (1)
0x120|   0c                                          | .              |                    v_opcode: "v128.const" (12) 0x121-0x122 (1)
0x120|      00 00 00 00 01 00 00 00 02 00 00 00 03 00|  ..............|                    bytes: raw bits 0x122-0x132 (16)
0x130|00 00                                          |..              |
     |                                               |                |                  [2]{}: in 0x132-0x136 (4)
0x130|      fd                                       |  .             |                    opcode: "vector" (0xfd) 0x132-0x133 (1)
0x130|         0b                                    |   .            |                    v_opcode: "v128.store" (11) 0x133-0x134 (1)
     |                                               |                |                    m{}: 0x134-0x136 (2)
0x130|            01                                 |    .           |                      a: 1 (valid) 0x134-0x135 (1)
0x130|               00                              |     .          |                      o: 0 (valid) 0x135-0x136 (1)
     |                                               |                |                  [3]{}: in 0x136-0x138 (2)
0x130|                  41                           |      A         |                    opcode: "i32.const" (0x41) 0x136-0x137 (1)
0x130|                     00                        |       .        |                    n: 0 (valid) 0x137-0x138 (1)
     |                                               |                |                  [4]{}: in 0x138-0x13c (4)
0x130|                        fd                     |        .       |                    opcode: "vector" (0xfd) 0x138-0x139 (1)
0x130|                           00                  |         .      |                    v_opcode: "v128.load" (0) 0x139-0x13a (1)
     |                                               |                |                    m{}: 0x13a-0x13c (2)
0x130|                              04               |          .     |                      a: 4 (valid) 0x13a-0x13b (1)
0x130|                                 00            |           .    |                      o: 0 (valid) 0x13b-0x13c (1)
     |                                               |                |                  [5]{}: in 0x13c-0x13d (1)
0x130|                                    0b|        |            .|  |                    opcode: "end" (0xb) 0x13c-0x13d (1)
