$ fq -d wasm dv simd_const-24.wasm
    |00 01 02 03 04 05 06 07 08 09 0a 0b 0c 0d 0e 0f|0123456789abcdef|.{}: simd_const-24.wasm (wasm) 0x0-0x2b (43)
0x00|00 61 73 6d                                    |.asm            |  magic: raw bits (valid) 0x0-0x4 (4)
0x00|            01 00 00 00                        |    ....        |  version: 1 0x4-0x8 (4)
    |                                               |                |  sections[0:3]: 0x8-0x2b (35)
    |                                               |                |    [0]{}: section 0x8-0xe (6)
0x00|                        01                     |        .       |      id: "type_section" (1) 0x8-0x9 (1)
0x00|                           04                  |         .      |      size: 4 (valid) 0x9-0xa (1)
    |                                               |                |      content{}: 0xa-0xe (4)
    |                                               |                |        ft{}: 0xa-0xe (4)
0x00|                              01               |          .     |          n: 1 (valid) 0xa-0xb (1)
    |                                               |                |          x[0:1]: 0xb-0xe (3)
    |                                               |                |            [0]{}: ft 0xb-0xe (3)
0x00|                                 60            |           `    |              tag: 0x60 (valid) 0xb-0xc (1)
    |                                               |                |              rt1{}: 0xc-0xd (1)
0x00|                                    00         |            .   |                n: 0 (valid) 0xc-0xd (1)
    |                                               |                |                x[0:0]: 0xd-0xd (0)
    |                                               |                |              rt2{}: 0xd-0xe (1)
0x00|                                       00      |             .  |                n: 0 (valid) 0xd-0xe (1)
    |                                               |                |                x[0:0]: 0xe-0xe (0)
    |                                               |                |    [1]{}: section 0xe-0x12 (4)
0x00|                                          03   |              . |      id: "function_section" (3) 0xe-0xf (1)
0x00|                                             02|               .|      size: 2 (valid) 0xf-0x10 (1)
    |                                               |                |      content{}: 0x10-0x12 (2)
    |                                               |                |        x{}: 0x10-0x12 (2)
0x10|01                                             |.               |          n: 1 (valid) 0x10-0x11 (1)
    |                                               |                |          x[0:1]: 0x11-0x12 (1)
0x10|   00                                          | .              |            [0]: 0 x (valid) 0x11-0x12 (1)
    |                                               |                |    [2]{}: section 0x12-0x2b (25)
0x10|      0a                                       |  .             |      id: "code_section" (10) 0x12-0x13 (1)
0x10|         17                                    |   .            |      size: 23 (valid) 0x13-0x14 (1)
    |                                               |                |      content{}: 0x14-0x2b (23)
    |                                               |                |        code{}: 0x14-0x2b (23)
0x10|            01                                 |    .           |          n: 1 (valid) 0x14-0x15 (1)
    |                                               |                |          x[0:1]: 0x15-0x2b (22)
    |                                               |                |            [0]{}: code 0x15-0x2b (22)
0x10|               15                              |     .          |              size: 21 (valid) 0x15-0x16 (1)
    |                                               |                |              code{}: 0x16-0x2b (21)
    |                                               |                |                t{}: 0x16-0x17 (1)
0x10|                  00                           |      .         |                  n: 0 (valid) 0x16-0x17 (1)
    |                                               |                |                  x[0:0]: 0x17-0x17 (0)
    |                                               |                |                e[0:3]: 0x17-0x2b (20)
    |                                               |                |                  [0]{}: in 0x17-0x29 (18)
0x10|                     fd                        |       .        |                    opcode: "vector" (0xfd) 0x17-0x18 (1)
0x10|                        0c                     |        .       |                    v_opcode: "v128.const" (12) 0x18-0x19 (1)
0x10|                           ff ff ff ff ff ff ff|         .......|                    bytes: raw bits 0x19-0x29 (16)
0x20|ff ff ff ff ff ff ff ff ff                     |.........       |
    |                                               |                |                  [1]{}: in 0x29-0x2a (1)
0x20|                           1a                  |         .      |                    opcode: "drop" (0x1a) 0x29-0x2a (1)
    |                                               |                |                  [2]{}: in 0x2a-0x2b (1)
0x20|                              0b|              |          .|    |                    opcode: "end" (0xb) 0x2a-0x2b (1)
