$ fq -d wasm dv simd_i16x8_extmul_i8x16-0.wasm
    |00 01 02 03 04 05 06 07 08 09 0a 0b 0c 0d 0e 0f|0123456789abcdef|.{}: simd_i16x8_extmul_i8x16-0.wasm (wasm) 0x0-0xb3.7 (180)
0x00|00 61 73 6d                                    |.asm            |  magic: raw bits (valid) 0x0-0x3.7 (4)
0x00|            01 00 00 00                        |    ....        |  version: 1 0x4-0x7.7 (4)
    |                                               |                |  sections[0:4]: 0x8-0xb3.7 (172)
    |                                               |                |    [0]{}: section 0x8-0x10.7 (9)
0x00|                        01                     |        .       |      id: "type section" (1) 0x8-0x8.7 (1)
0x00|                           07                  |         .      |      size: 7 0x9-0x9.7 (1)
    |                                               |                |      content{}: 0xa-0x10.7 (7)
    |                                               |                |        ft{}: 0xa-0x10.7 (7)
0x00|                              01               |          .     |          n: 1 0xa-0xa.7 (1)
    |                                               |                |          x[0:1]: 0xb-0x10.7 (6)
    |                                               |                |            [0]{}: ft 0xb-0x10.7 (6)
0x00|                                 60            |           `    |              tag: 0x60 (valid) 0xb-0xb.7 (1)
    |                                               |                |              rt1{}: 0xc-0xe.7 (3)
0x00|                                    02         |            .   |                n: 2 0xc-0xc.7 (1)
    |                                               |                |                x[0:2]: 0xd-0xe.7 (2)
0x00|                                       7b      |             {  |                  [0]: "v128" (0x7b) t 0xd-0xd.7 (1)
0x00|                                          7b   |              { |                  [1]: "v128" (0x7b) t 0xe-0xe.7 (1)
    |                                               |                |              rt2{}: 0xf-0x10.7 (2)
0x00|                                             01|               .|                n: 1 0xf-0xf.7 (1)
    |                                               |                |                x[0:1]: 0x10-0x10.7 (1)
0x10|7b                                             |{               |                  [0]: "v128" (0x7b) t 0x10-0x10.7 (1)
    |                                               |                |    [1]{}: section 0x11-0x17.7 (7)
0x10|   03                                          | .              |      id: "function section" (3) 0x11-0x11.7 (1)
0x10|      05                                       |  .             |      size: 5 0x12-0x12.7 (1)
    |                                               |                |      content{}: 0x13-0x17.7 (5)
    |                                               |                |        x{}: 0x13-0x17.7 (5)
0x10|         04                                    |   .            |          n: 4 0x13-0x13.7 (1)
    |                                               |                |          x[0:4]: 0x14-0x17.7 (4)
0x10|            00                                 |    .           |            [0]: 0 x 0x14-0x14.7 (1)
0x10|               00                              |     .          |            [1]: 0 x 0x15-0x15.7 (1)
0x10|                  00                           |      .         |            [2]: 0 x 0x16-0x16.7 (1)
0x10|                     00                        |       .        |            [3]: 0 x 0x17-0x17.7 (1)
    |                                               |                |    [2]{}: section 0x18-0x88.7 (113)
0x10|                        07                     |        .       |      id: "export section" (7) 0x18-0x18.7 (1)
0x10|                           6f                  |         o      |      size: 111 0x19-0x19.7 (1)
    |                                               |                |      content{}: 0x1a-0x88.7 (111)
    |                                               |                |        ex{}: 0x1a-0x88.7 (111)
0x10|                              04               |          .     |          n: 4 0x1a-0x1a.7 (1)
    |                                               |                |          x[0:4]: 0x1b-0x88.7 (110)
    |                                               |                |            [0]{}: ex 0x1b-0x35.7 (27)
    |                                               |                |              nm{}: 0x1b-0x33.7 (25)
0x10|                                 18            |           .    |                n: 24 0x1b-0x1b.7 (1)
0x10|                                    69 31 36 78|            i16x|                b: "i16x8.extmul_low_i8x16_s" 0x1c-0x33.7 (24)
0x20|38 2e 65 78 74 6d 75 6c 5f 6c 6f 77 5f 69 38 78|8.extmul_low_i8x|
0x30|31 36 5f 73                                    |16_s            |
    |                                               |                |              d{}: 0x34-0x35.7 (2)
0x30|            00                                 |    .           |                tag: "funcidx" (0x0) 0x34-0x34.7 (1)
0x30|               00                              |     .          |                x: 0 0x35-0x35.7 (1)
    |                                               |                |            [1]{}: ex 0x36-0x51.7 (28)
    |                                               |                |              nm{}: 0x36-0x4f.7 (26)
0x30|                  19                           |      .         |                n: 25 0x36-0x36.7 (1)
0x30|                     69 31 36 78 38 2e 65 78 74|       i16x8.ext|                b: "i16x8.extmul_high_i8x16_s" 0x37-0x4f.7 (25)
0x40|6d 75 6c 5f 68 69 67 68 5f 69 38 78 31 36 5f 73|mul_high_i8x16_s|
    |                                               |                |              d{}: 0x50-0x51.7 (2)
0x50|00                                             |.               |                tag: "funcidx" (0x0) 0x50-0x50.7 (1)
0x50|   01                                          | .              |                x: 1 0x51-0x51.7 (1)
    |                                               |                |            [2]{}: ex 0x52-0x6c.7 (27)
    |                                               |                |              nm{}: 0x52-0x6a.7 (25)
0x50|      18                                       |  .             |                n: 24 0x52-0x52.7 (1)
0x50|         69 31 36 78 38 2e 65 78 74 6d 75 6c 5f|   i16x8.extmul_|                b: "i16x8.extmul_low_i8x16_u" 0x53-0x6a.7 (24)
0x60|6c 6f 77 5f 69 38 78 31 36 5f 75               |low_i8x16_u     |
    |                                               |                |              d{}: 0x6b-0x6c.7 (2)
0x60|                                 00            |           .    |                tag: "funcidx" (0x0) 0x6b-0x6b.7 (1)
0x60|                                    02         |            .   |                x: 2 0x6c-0x6c.7 (1)
    |                                               |                |            [3]{}: ex 0x6d-0x88.7 (28)
    |                                               |                |              nm{}: 0x6d-0x86.7 (26)
0x60|                                       19      |             .  |                n: 25 0x6d-0x6d.7 (1)
0x60|                                          69 31|              i1|                b: "i16x8.extmul_high_i8x16_u" 0x6e-0x86.7 (25)
0x70|36 78 38 2e 65 78 74 6d 75 6c 5f 68 69 67 68 5f|6x8.extmul_high_|
0x80|69 38 78 31 36 5f 75                           |i8x16_u         |
    |                                               |                |              d{}: 0x87-0x88.7 (2)
0x80|                     00                        |       .        |                tag: "funcidx" (0x0) 0x87-0x87.7 (1)
0x80|                        03                     |        .       |                x: 3 0x88-0x88.7 (1)
    |                                               |                |    [3]{}: section 0x89-0xb3.7 (43)
0x80|                           0a                  |         .      |      id: "code section" (10) 0x89-0x89.7 (1)
0x80|                              29               |          )     |      size: 41 0x8a-0x8a.7 (1)
    |                                               |                |      content{}: 0x8b-0xb3.7 (41)
    |                                               |                |        code{}: 0x8b-0xb3.7 (41)
0x80|                                 04            |           .    |          n: 4 0x8b-0x8b.7 (1)
    |                                               |                |          x[0:4]: 0x8c-0xb3.7 (40)
    |                                               |                |            [0]{}: code 0x8c-0x95.7 (10)
0x80|                                    09         |            .   |              size: 9 0x8c-0x8c.7 (1)
    |                                               |                |              code{}: 0x8d-0x95.7 (9)
    |                                               |                |                t{}: 0x8d-0x8d.7 (1)
0x80|                                       00      |             .  |                  n: 0 0x8d-0x8d.7 (1)
    |                                               |                |                  x[0:0]: 0x8e-NA (0)
    |                                               |                |                e[0:4]: 0x8e-0x95.7 (8)
    |                                               |                |                  [0]{}: in 0x8e-0x8f.7 (2)
0x80|                                          20   |                |                    local.get: 0x20 (valid) 0x8e-0x8e.7 (1)
0x80|                                             00|               .|                    x: 0 0x8f-0x8f.7 (1)
    |                                               |                |                  [1]{}: in 0x90-0x91.7 (2)
0x90|20                                             |                |                    local.get: 0x20 (valid) 0x90-0x90.7 (1)
0x90|   01                                          | .              |                    x: 1 0x91-0x91.7 (1)
    |                                               |                |                  [2]{}: in 0x92-0x94.7 (3)
0x90|      fd                                       |  .             |                    prefix: 0xfd (valid) 0x92-0x92.7 (1)
0x90|         9c 01                                 |   ..           |                    i16x8.extmul_low_i8x16_s: 156 (valid) 0x93-0x94.7 (2)
    |                                               |                |                  [3]{}: in 0x95-0x95.7 (1)
0x90|               0b                              |     .          |                    end: 0xb (valid) 0x95-0x95.7 (1)
    |                                               |                |            [1]{}: code 0x96-0x9f.7 (10)
0x90|                  09                           |      .         |              size: 9 0x96-0x96.7 (1)
    |                                               |                |              code{}: 0x97-0x9f.7 (9)
    |                                               |                |                t{}: 0x97-0x97.7 (1)
0x90|                     00                        |       .        |                  n: 0 0x97-0x97.7 (1)
    |                                               |                |                  x[0:0]: 0x98-NA (0)
    |                                               |                |                e[0:4]: 0x98-0x9f.7 (8)
    |                                               |                |                  [0]{}: in 0x98-0x99.7 (2)
0x90|                        20                     |                |                    local.get: 0x20 (valid) 0x98-0x98.7 (1)
0x90|                           00                  |         .      |                    x: 0 0x99-0x99.7 (1)
    |                                               |                |                  [1]{}: in 0x9a-0x9b.7 (2)
0x90|                              20               |                |                    local.get: 0x20 (valid) 0x9a-0x9a.7 (1)
0x90|                                 01            |           .    |                    x: 1 0x9b-0x9b.7 (1)
    |                                               |                |                  [2]{}: in 0x9c-0x9e.7 (3)
0x90|                                    fd         |            .   |                    prefix: 0xfd (valid) 0x9c-0x9c.7 (1)
0x90|                                       9d 01   |             .. |                    i16x8.extmul_high_i8x16_s: 157 (valid) 0x9d-0x9e.7 (2)
    |                                               |                |                  [3]{}: in 0x9f-0x9f.7 (1)
0x90|                                             0b|               .|                    end: 0xb (valid) 0x9f-0x9f.7 (1)
    |                                               |                |            [2]{}: code 0xa0-0xa9.7 (10)
0xa0|09                                             |.               |              size: 9 0xa0-0xa0.7 (1)
    |                                               |                |              code{}: 0xa1-0xa9.7 (9)
    |                                               |                |                t{}: 0xa1-0xa1.7 (1)
0xa0|   00                                          | .              |                  n: 0 0xa1-0xa1.7 (1)
    |                                               |                |                  x[0:0]: 0xa2-NA (0)
    |                                               |                |                e[0:4]: 0xa2-0xa9.7 (8)
    |                                               |                |                  [0]{}: in 0xa2-0xa3.7 (2)
0xa0|      20                                       |                |                    local.get: 0x20 (valid) 0xa2-0xa2.7 (1)
0xa0|         00                                    |   .            |                    x: 0 0xa3-0xa3.7 (1)
    |                                               |                |                  [1]{}: in 0xa4-0xa5.7 (2)
0xa0|            20                                 |                |                    local.get: 0x20 (valid) 0xa4-0xa4.7 (1)
0xa0|               01                              |     .          |                    x: 1 0xa5-0xa5.7 (1)
    |                                               |                |                  [2]{}: in 0xa6-0xa8.7 (3)
0xa0|                  fd                           |      .         |                    prefix: 0xfd (valid) 0xa6-0xa6.7 (1)
0xa0|                     9e 01                     |       ..       |                    i16x8.extmul_low_i8x16_u: 158 (valid) 0xa7-0xa8.7 (2)
    |                                               |                |                  [3]{}: in 0xa9-0xa9.7 (1)
0xa0|                           0b                  |         .      |                    end: 0xb (valid) 0xa9-0xa9.7 (1)
    |                                               |                |            [3]{}: code 0xaa-0xb3.7 (10)
0xa0|                              09               |          .     |              size: 9 0xaa-0xaa.7 (1)
    |                                               |                |              code{}: 0xab-0xb3.7 (9)
    |                                               |                |                t{}: 0xab-0xab.7 (1)
0xa0|                                 00            |           .    |                  n: 0 0xab-0xab.7 (1)
    |                                               |                |                  x[0:0]: 0xac-NA (0)
    |                                               |                |                e[0:4]: 0xac-0xb3.7 (8)
    |                                               |                |                  [0]{}: in 0xac-0xad.7 (2)
0xa0|                                    20         |                |                    local.get: 0x20 (valid) 0xac-0xac.7 (1)
0xa0|                                       00      |             .  |                    x: 0 0xad-0xad.7 (1)
    |                                               |                |                  [1]{}: in 0xae-0xaf.7 (2)
0xa0|                                          20   |                |                    local.get: 0x20 (valid) 0xae-0xae.7 (1)
0xa0|                                             01|               .|                    x: 1 0xaf-0xaf.7 (1)
    |                                               |                |                  [2]{}: in 0xb0-0xb2.7 (3)
0xb0|fd                                             |.               |                    prefix: 0xfd (valid) 0xb0-0xb0.7 (1)
0xb0|   9f 01                                       | ..             |                    i16x8.extmul_high_i8x16_u: 159 (valid) 0xb1-0xb2.7 (2)
    |                                               |                |                  [3]{}: in 0xb3-0xb3.7 (1)
0xb0|         0b|                                   |   .|           |                    end: 0xb (valid) 0xb3-0xb3.7 (1)
