$ fq -d wasm dv simd_f64x2_arith-1.wasm
     |00 01 02 03 04 05 06 07 08 09 0a 0b 0c 0d 0e 0f|0123456789abcdef|.{}: simd_f64x2_arith-1.wasm (wasm) 0x0-0x163.7 (356)
0x000|00 61 73 6d                                    |.asm            |  magic: raw bits (valid) 0x0-0x3.7 (4)
0x000|            01 00 00 00                        |    ....        |  version: 1 0x4-0x7.7 (4)
     |                                               |                |  sections[0:4]: 0x8-0x163.7 (348)
     |                                               |                |    [0]{}: section 0x8-0xe.7 (7)
0x000|                        01                     |        .       |      id: "type section" (1) 0x8-0x8.7 (1)
0x000|                           05                  |         .      |      size: 5 0x9-0x9.7 (1)
     |                                               |                |      content{}: 0xa-0xe.7 (5)
     |                                               |                |        ft{}: 0xa-0xe.7 (5)
0x000|                              01               |          .     |          n: 1 0xa-0xa.7 (1)
     |                                               |                |          x[0:1]: 0xb-0xe.7 (4)
     |                                               |                |            [0]{}: ft 0xb-0xe.7 (4)
0x000|                                 60            |           `    |              tag: 0x60 (valid) 0xb-0xb.7 (1)
     |                                               |                |              rt1{}: 0xc-0xc.7 (1)
0x000|                                    00         |            .   |                n: 0 0xc-0xc.7 (1)
     |                                               |                |                x[0:0]: 0xd-NA (0)
     |                                               |                |              rt2{}: 0xd-0xe.7 (2)
0x000|                                       01      |             .  |                n: 1 0xd-0xd.7 (1)
     |                                               |                |                x[0:1]: 0xe-0xe.7 (1)
0x000|                                          7b   |              { |                  [0]: "v128" (0x7b) t 0xe-0xe.7 (1)
     |                                               |                |    [1]{}: section 0xf-0x17.7 (9)
0x000|                                             03|               .|      id: "function section" (3) 0xf-0xf.7 (1)
0x010|07                                             |.               |      size: 7 0x10-0x10.7 (1)
     |                                               |                |      content{}: 0x11-0x17.7 (7)
     |                                               |                |        x{}: 0x11-0x17.7 (7)
0x010|   06                                          | .              |          n: 6 0x11-0x11.7 (1)
     |                                               |                |          x[0:6]: 0x12-0x17.7 (6)
0x010|      00                                       |  .             |            [0]: 0 x 0x12-0x12.7 (1)
0x010|         00                                    |   .            |            [1]: 0 x 0x13-0x13.7 (1)
0x010|            00                                 |    .           |            [2]: 0 x 0x14-0x14.7 (1)
0x010|               00                              |     .          |            [3]: 0 x 0x15-0x15.7 (1)
0x010|                  00                           |      .         |            [4]: 0 x 0x16-0x16.7 (1)
0x010|                     00                        |       .        |            [5]: 0 x 0x17-0x17.7 (1)
     |                                               |                |    [2]{}: section 0x18-0x87.7 (112)
0x010|                        07                     |        .       |      id: "export section" (7) 0x18-0x18.7 (1)
0x010|                           6e                  |         n      |      size: 110 0x19-0x19.7 (1)
     |                                               |                |      content{}: 0x1a-0x87.7 (110)
     |                                               |                |        ex{}: 0x1a-0x87.7 (110)
0x010|                              06               |          .     |          n: 6 0x1a-0x1a.7 (1)
     |                                               |                |          x[0:6]: 0x1b-0x87.7 (109)
     |                                               |                |            [0]{}: ex 0x1b-0x2c.7 (18)
     |                                               |                |              nm{}: 0x1b-0x2a.7 (16)
0x010|                                 0f            |           .    |                n: 15 0x1b-0x1b.7 (1)
0x010|                                    66 36 34 78|            f64x|                b: "f64x2_add_arith" 0x1c-0x2a.7 (15)
0x020|32 5f 61 64 64 5f 61 72 69 74 68               |2_add_arith     |
     |                                               |                |              d{}: 0x2b-0x2c.7 (2)
0x020|                                 00            |           .    |                tag: "funcidx" (0x0) 0x2b-0x2b.7 (1)
0x020|                                    00         |            .   |                x: 0 0x2c-0x2c.7 (1)
     |                                               |                |            [1]{}: ex 0x2d-0x3e.7 (18)
     |                                               |                |              nm{}: 0x2d-0x3c.7 (16)
0x020|                                       0f      |             .  |                n: 15 0x2d-0x2d.7 (1)
0x020|                                          66 36|              f6|                b: "f64x2_div_mixed" 0x2e-0x3c.7 (15)
0x030|34 78 32 5f 64 69 76 5f 6d 69 78 65 64         |4x2_div_mixed   |
     |                                               |                |              d{}: 0x3d-0x3e.7 (2)
0x030|                                       00      |             .  |                tag: "funcidx" (0x0) 0x3d-0x3d.7 (1)
0x030|                                          01   |              . |                x: 1 0x3e-0x3e.7 (1)
     |                                               |                |            [2]{}: ex 0x3f-0x50.7 (18)
     |                                               |                |              nm{}: 0x3f-0x4e.7 (16)
0x030|                                             0f|               .|                n: 15 0x3f-0x3f.7 (1)
0x040|66 36 34 78 32 5f 6d 75 6c 5f 6d 69 78 65 64   |f64x2_mul_mixed |                b: "f64x2_mul_mixed" 0x40-0x4e.7 (15)
     |                                               |                |              d{}: 0x4f-0x50.7 (2)
0x040|                                             00|               .|                tag: "funcidx" (0x0) 0x4f-0x4f.7 (1)
0x050|02                                             |.               |                x: 2 0x50-0x50.7 (1)
     |                                               |                |            [3]{}: ex 0x51-0x62.7 (18)
     |                                               |                |              nm{}: 0x51-0x60.7 (16)
0x050|   0f                                          | .              |                n: 15 0x51-0x51.7 (1)
0x050|      66 36 34 78 32 5f 6e 65 67 5f 63 61 6e 6f|  f64x2_neg_cano|                b: "f64x2_neg_canon" 0x52-0x60.7 (15)
0x060|6e                                             |n               |
     |                                               |                |              d{}: 0x61-0x62.7 (2)
0x060|   00                                          | .              |                tag: "funcidx" (0x0) 0x61-0x61.7 (1)
0x060|      03                                       |  .             |                x: 3 0x62-0x62.7 (1)
     |                                               |                |            [4]{}: ex 0x63-0x75.7 (19)
     |                                               |                |              nm{}: 0x63-0x73.7 (17)
0x060|         10                                    |   .            |                n: 16 0x63-0x63.7 (1)
0x060|            66 36 34 78 32 5f 73 71 72 74 5f 63|    f64x2_sqrt_c|                b: "f64x2_sqrt_canon" 0x64-0x73.7 (16)
0x070|61 6e 6f 6e                                    |anon            |
     |                                               |                |              d{}: 0x74-0x75.7 (2)
0x070|            00                                 |    .           |                tag: "funcidx" (0x0) 0x74-0x74.7 (1)
0x070|               04                              |     .          |                x: 4 0x75-0x75.7 (1)
     |                                               |                |            [5]{}: ex 0x76-0x87.7 (18)
     |                                               |                |              nm{}: 0x76-0x85.7 (16)
0x070|                  0f                           |      .         |                n: 15 0x76-0x76.7 (1)
0x070|                     66 36 34 78 32 5f 73 75 62|       f64x2_sub|                b: "f64x2_sub_arith" 0x77-0x85.7 (15)
0x080|5f 61 72 69 74 68                              |_arith          |
     |                                               |                |              d{}: 0x86-0x87.7 (2)
0x080|                  00                           |      .         |                tag: "funcidx" (0x0) 0x86-0x86.7 (1)
0x080|                     05                        |       .        |                x: 5 0x87-0x87.7 (1)
     |                                               |                |    [3]{}: section 0x88-0x163.7 (220)
0x080|                        0a                     |        .       |      id: "code section" (10) 0x88-0x88.7 (1)
0x080|                           d9 01               |         ..     |      size: 217 0x89-0x8a.7 (2)
     |                                               |                |      content{}: 0x8b-0x163.7 (217)
     |                                               |                |        code{}: 0x8b-0x163.7 (217)
0x080|                                 06            |           .    |          n: 6 0x8b-0x8b.7 (1)
     |                                               |                |          x[0:6]: 0x8c-0x163.7 (216)
     |                                               |                |            [0]{}: code 0x8c-0xb5.7 (42)
0x080|                                    29         |            )   |              size: 41 0x8c-0x8c.7 (1)
     |                                               |                |              code{}: 0x8d-0xb5.7 (41)
     |                                               |                |                t{}: 0x8d-0x8d.7 (1)
0x080|                                       00      |             .  |                  n: 0 0x8d-0x8d.7 (1)
     |                                               |                |                  x[0:0]: 0x8e-NA (0)
     |                                               |                |                e[0:4]: 0x8e-0xb5.7 (40)
     |                                               |                |                  [0]{}: in 0x8e-0x9f.7 (18)
0x080|                                          fd   |              . |                    prefix: 0xfd (valid) 0x8e-0x8e.7 (1)
0x080|                                             0c|               .|                    v128.const: 12 (valid) 0x8f-0x8f.7 (1)
0x090|00 00 00 00 00 00 f8 7f 00 00 00 00 00 00 f0 3f|...............?|                    bytes: raw bits 0x90-0x9f.7 (16)
     |                                               |                |                  [1]{}: in 0xa0-0xb1.7 (18)
0x0a0|fd                                             |.               |                    prefix: 0xfd (valid) 0xa0-0xa0.7 (1)
0x0a0|   0c                                          | .              |                    v128.const: 12 (valid) 0xa1-0xa1.7 (1)
0x0a0|      00 00 00 00 00 00 f8 7f 00 00 00 00 00 00|  ..............|                    bytes: raw bits 0xa2-0xb1.7 (16)
0x0b0|f0 3f                                          |.?              |
     |                                               |                |                  [2]{}: in 0xb2-0xb4.7 (3)
0x0b0|      fd                                       |  .             |                    prefix: 0xfd (valid) 0xb2-0xb2.7 (1)
0x0b0|         f0 01                                 |   ..           |                    f64x2.add: 240 (valid) 0xb3-0xb4.7 (2)
     |                                               |                |                  [3]{}: in 0xb5-0xb5.7 (1)
0x0b0|               0b                              |     .          |                    end: 0xb (valid) 0xb5-0xb5.7 (1)
     |                                               |                |            [1]{}: code 0xb6-0xdf.7 (42)
0x0b0|                  29                           |      )         |              size: 41 0xb6-0xb6.7 (1)
     |                                               |                |              code{}: 0xb7-0xdf.7 (41)
     |                                               |                |                t{}: 0xb7-0xb7.7 (1)
0x0b0|                     00                        |       .        |                  n: 0 0xb7-0xb7.7 (1)
     |                                               |                |                  x[0:0]: 0xb8-NA (0)
     |                                               |                |                e[0:4]: 0xb8-0xdf.7 (40)
     |                                               |                |                  [0]{}: in 0xb8-0xc9.7 (18)
0x0b0|                        fd                     |        .       |                    prefix: 0xfd (valid) 0xb8-0xb8.7 (1)
0x0b0|                           0c                  |         .      |                    v128.const: 12 (valid) 0xb9-0xb9.7 (1)
0x0b0|                              00 00 00 00 00 00|          ......|                    bytes: raw bits 0xba-0xc9.7 (16)
0x0c0|f8 7f 00 00 00 00 00 00 f0 3f                  |.........?      |
     |                                               |                |                  [1]{}: in 0xca-0xdb.7 (18)
0x0c0|                              fd               |          .     |                    prefix: 0xfd (valid) 0xca-0xca.7 (1)
0x0c0|                                 0c            |           .    |                    v128.const: 12 (valid) 0xcb-0xcb.7 (1)
0x0c0|                                    00 00 00 00|            ....|                    bytes: raw bits 0xcc-0xdb.7 (16)
0x0d0|00 00 00 40 00 00 00 00 00 00 f8 ff            |...@........    |
     |                                               |                |                  [2]{}: in 0xdc-0xde.7 (3)
0x0d0|                                    fd         |            .   |                    prefix: 0xfd (valid) 0xdc-0xdc.7 (1)
0x0d0|                                       f3 01   |             .. |                    f64x2.div: 243 (valid) 0xdd-0xde.7 (2)
     |                                               |                |                  [3]{}: in 0xdf-0xdf.7 (1)
0x0d0|                                             0b|               .|                    end: 0xb (valid) 0xdf-0xdf.7 (1)
     |                                               |                |            [2]{}: code 0xe0-0x109.7 (42)
0x0e0|29                                             |)               |              size: 41 0xe0-0xe0.7 (1)
     |                                               |                |              code{}: 0xe1-0x109.7 (41)
     |                                               |                |                t{}: 0xe1-0xe1.7 (1)
0x0e0|   00                                          | .              |                  n: 0 0xe1-0xe1.7 (1)
     |                                               |                |                  x[0:0]: 0xe2-NA (0)
     |                                               |                |                e[0:4]: 0xe2-0x109.7 (40)
     |                                               |                |                  [0]{}: in 0xe2-0xf3.7 (18)
0x0e0|      fd                                       |  .             |                    prefix: 0xfd (valid) 0xe2-0xe2.7 (1)
0x0e0|         0c                                    |   .            |                    v128.const: 12 (valid) 0xe3-0xe3.7 (1)
0x0e0|            00 00 00 00 00 00 f8 7f 00 00 00 00|    ............|                    bytes: raw bits 0xe4-0xf3.7 (16)
0x0f0|00 00 f0 3f                                    |...?            |
     |                                               |                |                  [1]{}: in 0xf4-0x105.7 (18)
0x0f0|            fd                                 |    .           |                    prefix: 0xfd (valid) 0xf4-0xf4.7 (1)
0x0f0|               0c                              |     .          |                    v128.const: 12 (valid) 0xf5-0xf5.7 (1)
0x0f0|                  00 00 00 00 00 00 00 40 00 00|      .......@..|                    bytes: raw bits 0xf6-0x105.7 (16)
0x100|00 00 00 00 f8 7f                              |......          |
     |                                               |                |                  [2]{}: in 0x106-0x108.7 (3)
0x100|                  fd                           |      .         |                    prefix: 0xfd (valid) 0x106-0x106.7 (1)
0x100|                     f2 01                     |       ..       |                    f64x2.mul: 242 (valid) 0x107-0x108.7 (2)
     |                                               |                |                  [3]{}: in 0x109-0x109.7 (1)
0x100|                           0b                  |         .      |                    end: 0xb (valid) 0x109-0x109.7 (1)
     |                                               |                |            [3]{}: code 0x10a-0x121.7 (24)
0x100|                              17               |          .     |              size: 23 0x10a-0x10a.7 (1)
     |                                               |                |              code{}: 0x10b-0x121.7 (23)
     |                                               |                |                t{}: 0x10b-0x10b.7 (1)
0x100|                                 00            |           .    |                  n: 0 0x10b-0x10b.7 (1)
     |                                               |                |                  x[0:0]: 0x10c-NA (0)
     |                                               |                |                e[0:3]: 0x10c-0x121.7 (22)
     |                                               |                |                  [0]{}: in 0x10c-0x11d.7 (18)
0x100|                                    fd         |            .   |                    prefix: 0xfd (valid) 0x10c-0x10c.7 (1)
0x100|                                       0c      |             .  |                    v128.const: 12 (valid) 0x10d-0x10d.7 (1)
0x100|                                          00 00|              ..|                    bytes: raw bits 0x10e-0x11d.7 (16)
0x110|00 00 00 00 f8 7f 00 00 00 00 00 00 f0 3f      |.............?  |
     |                                               |                |                  [1]{}: in 0x11e-0x120.7 (3)
0x110|                                          fd   |              . |                    prefix: 0xfd (valid) 0x11e-0x11e.7 (1)
0x110|                                             ed|               .|                    f64x2.neg: 237 (valid) 0x11f-0x120.7 (2)
0x120|01                                             |.               |
     |                                               |                |                  [2]{}: in 0x121-0x121.7 (1)
0x120|   0b                                          | .              |                    end: 0xb (valid) 0x121-0x121.7 (1)
     |                                               |                |            [4]{}: code 0x122-0x139.7 (24)
0x120|      17                                       |  .             |              size: 23 0x122-0x122.7 (1)
     |                                               |                |              code{}: 0x123-0x139.7 (23)
     |                                               |                |                t{}: 0x123-0x123.7 (1)
0x120|         00                                    |   .            |                  n: 0 0x123-0x123.7 (1)
     |                                               |                |                  x[0:0]: 0x124-NA (0)
     |                                               |                |                e[0:3]: 0x124-0x139.7 (22)
     |                                               |                |                  [0]{}: in 0x124-0x135.7 (18)
0x120|            fd                                 |    .           |                    prefix: 0xfd (valid) 0x124-0x124.7 (1)
0x120|               0c                              |     .          |                    v128.const: 12 (valid) 0x125-0x125.7 (1)
0x120|                  00 00 00 00 00 00 10 40 00 00|      .......@..|                    bytes: raw bits 0x126-0x135.7 (16)
0x130|00 00 00 00 f8 ff                              |......          |
     |                                               |                |                  [1]{}: in 0x136-0x138.7 (3)
0x130|                  fd                           |      .         |                    prefix: 0xfd (valid) 0x136-0x136.7 (1)
0x130|                     ef 01                     |       ..       |                    f64x2.sqrt: 239 (valid) 0x137-0x138.7 (2)
     |                                               |                |                  [2]{}: in 0x139-0x139.7 (1)
0x130|                           0b                  |         .      |                    end: 0xb (valid) 0x139-0x139.7 (1)
     |                                               |                |            [5]{}: code 0x13a-0x163.7 (42)
0x130|                              29               |          )     |              size: 41 0x13a-0x13a.7 (1)
     |                                               |                |              code{}: 0x13b-0x163.7 (41)
     |                                               |                |                t{}: 0x13b-0x13b.7 (1)
0x130|                                 00            |           .    |                  n: 0 0x13b-0x13b.7 (1)
     |                                               |                |                  x[0:0]: 0x13c-NA (0)
     |                                               |                |                e[0:4]: 0x13c-0x163.7 (40)
     |                                               |                |                  [0]{}: in 0x13c-0x14d.7 (18)
0x130|                                    fd         |            .   |                    prefix: 0xfd (valid) 0x13c-0x13c.7 (1)
0x130|                                       0c      |             .  |                    v128.const: 12 (valid) 0x13d-0x13d.7 (1)
0x130|                                          00 00|              ..|                    bytes: raw bits 0x13e-0x14d.7 (16)
0x140|00 00 00 00 f0 3f 00 00 00 00 00 00 f0 bf      |.....?........  |
     |                                               |                |                  [1]{}: in 0x14e-0x15f.7 (18)
0x140|                                          fd   |              . |                    prefix: 0xfd (valid) 0x14e-0x14e.7 (1)
0x140|                                             0c|               .|                    v128.const: 12 (valid) 0x14f-0x14f.7 (1)
0x150|00 00 00 00 00 00 f8 ff 00 00 00 00 00 00 f0 3f|...............?|                    bytes: raw bits 0x150-0x15f.7 (16)
     |                                               |                |                  [2]{}: in 0x160-0x162.7 (3)
0x160|fd                                             |.               |                    prefix: 0xfd (valid) 0x160-0x160.7 (1)
0x160|   f1 01                                       | ..             |                    f64x2.sub: 241 (valid) 0x161-0x162.7 (2)
     |                                               |                |                  [3]{}: in 0x163-0x163.7 (1)
0x160|         0b|                                   |   .|           |                    end: 0xb (valid) 0x163-0x163.7 (1)
