$ fq -d wasm dv simd_f64x2_arith-1.wasm
     |00 01 02 03 04 05 06 07 08 09 0a 0b 0c 0d 0e 0f|0123456789abcdef|.{}: simd_f64x2_arith-1.wasm (wasm) 0x0-0x164 (356)
0x000|00 61 73 6d                                    |.asm            |  magic: raw bits (valid) 0x0-0x4 (4)
0x000|            01 00 00 00                        |    ....        |  version: 1 0x4-0x8 (4)
     |                                               |                |  sections[0:4]: 0x8-0x164 (348)
     |                                               |                |    [0]{}: section 0x8-0xf (7)
0x000|                        01                     |        .       |      id: "type_section" (1) 0x8-0x9 (1)
0x000|                           05                  |         .      |      size: 5 (valid) 0x9-0xa (1)
     |                                               |                |      content{}: 0xa-0xf (5)
     |                                               |                |        ft{}: 0xa-0xf (5)
0x000|                              01               |          .     |          n: 1 (valid) 0xa-0xb (1)
     |                                               |                |          x[0:1]: 0xb-0xf (4)
     |                                               |                |            [0]{}: ft 0xb-0xf (4)
0x000|                                 60            |           `    |              tag: 0x60 (valid) 0xb-0xc (1)
     |                                               |                |              rt1{}: 0xc-0xd (1)
0x000|                                    00         |            .   |                n: 0 (valid) 0xc-0xd (1)
     |                                               |                |                x[0:0]: 0xd-0xd (0)
     |                                               |                |              rt2{}: 0xd-0xf (2)
0x000|                                       01      |             .  |                n: 1 (valid) 0xd-0xe (1)
     |                                               |                |                x[0:1]: 0xe-0xf (1)
0x000|                                          7b   |              { |                  [0]: "v128" (0x7b) t 0xe-0xf (1)
     |                                               |                |    [1]{}: section 0xf-0x18 (9)
0x000|                                             03|               .|      id: "function_section" (3) 0xf-0x10 (1)
0x010|07                                             |.               |      size: 7 (valid) 0x10-0x11 (1)
     |                                               |                |      content{}: 0x11-0x18 (7)
     |                                               |                |        x{}: 0x11-0x18 (7)
0x010|   06                                          | .              |          n: 6 (valid) 0x11-0x12 (1)
     |                                               |                |          x[0:6]: 0x12-0x18 (6)
0x010|      00                                       |  .             |            [0]: 0 x (valid) 0x12-0x13 (1)
0x010|         00                                    |   .            |            [1]: 0 x (valid) 0x13-0x14 (1)
0x010|            00                                 |    .           |            [2]: 0 x (valid) 0x14-0x15 (1)
0x010|               00                              |     .          |            [3]: 0 x (valid) 0x15-0x16 (1)
0x010|                  00                           |      .         |            [4]: 0 x (valid) 0x16-0x17 (1)
0x010|                     00                        |       .        |            [5]: 0 x (valid) 0x17-0x18 (1)
     |                                               |                |    [2]{}: section 0x18-0x88 (112)
0x010|                        07                     |        .       |      id: "export_section" (7) 0x18-0x19 (1)
0x010|                           6e                  |         n      |      size: 110 (valid) 0x19-0x1a (1)
     |                                               |                |      content{}: 0x1a-0x88 (110)
     |                                               |                |        ex{}: 0x1a-0x88 (110)
0x010|                              06               |          .     |          n: 6 (valid) 0x1a-0x1b (1)
     |                                               |                |          x[0:6]: 0x1b-0x88 (109)
     |                                               |                |            [0]{}: ex 0x1b-0x2d (18)
     |                                               |                |              nm{}: 0x1b-0x2b (16)
0x010|                                 0f            |           .    |                n: 15 (valid) 0x1b-0x1c (1)
0x010|                                    66 36 34 78|            f64x|                b: "f64x2_add_arith" 0x1c-0x2b (15)
0x020|32 5f 61 64 64 5f 61 72 69 74 68               |2_add_arith     |
     |                                               |                |              d{}: 0x2b-0x2d (2)
0x020|                                 00            |           .    |                tag: "funcidx" (0x0) 0x2b-0x2c (1)
0x020|                                    00         |            .   |                x: 0 (valid) 0x2c-0x2d (1)
     |                                               |                |            [1]{}: ex 0x2d-0x3f (18)
     |                                               |                |              nm{}: 0x2d-0x3d (16)
0x020|                                       0f      |             .  |                n: 15 (valid) 0x2d-0x2e (1)
0x020|                                          66 36|              f6|                b: "f64x2_div_mixed" 0x2e-0x3d (15)
0x030|34 78 32 5f 64 69 76 5f 6d 69 78 65 64         |4x2_div_mixed   |
     |                                               |                |              d{}: 0x3d-0x3f (2)
0x030|                                       00      |             .  |                tag: "funcidx" (0x0) 0x3d-0x3e (1)
0x030|                                          01   |              . |                x: 1 (valid) 0x3e-0x3f (1)
     |                                               |                |            [2]{}: ex 0x3f-0x51 (18)
     |                                               |                |              nm{}: 0x3f-0x4f (16)
0x030|                                             0f|               .|                n: 15 (valid) 0x3f-0x40 (1)
0x040|66 36 34 78 32 5f 6d 75 6c 5f 6d 69 78 65 64   |f64x2_mul_mixed |                b: "f64x2_mul_mixed" 0x40-0x4f (15)
     |                                               |                |              d{}: 0x4f-0x51 (2)
0x040|                                             00|               .|                tag: "funcidx" (0x0) 0x4f-0x50 (1)
0x050|02                                             |.               |                x: 2 (valid) 0x50-0x51 (1)
     |                                               |                |            [3]{}: ex 0x51-0x63 (18)
     |                                               |                |              nm{}: 0x51-0x61 (16)
0x050|   0f                                          | .              |                n: 15 (valid) 0x51-0x52 (1)
0x050|      66 36 34 78 32 5f 6e 65 67 5f 63 61 6e 6f|  f64x2_neg_cano|                b: "f64x2_neg_canon" 0x52-0x61 (15)
0x060|6e                                             |n               |
     |                                               |                |              d{}: 0x61-0x63 (2)
0x060|   00                                          | .              |                tag: "funcidx" (0x0) 0x61-0x62 (1)
0x060|      03                                       |  .             |                x: 3 (valid) 0x62-0x63 (1)
     |                                               |                |            [4]{}: ex 0x63-0x76 (19)
     |                                               |                |              nm{}: 0x63-0x74 (17)
0x060|         10                                    |   .            |                n: 16 (valid) 0x63-0x64 (1)
0x060|            66 36 34 78 32 5f 73 71 72 74 5f 63|    f64x2_sqrt_c|                b: "f64x2_sqrt_canon" 0x64-0x74 (16)
0x070|61 6e 6f 6e                                    |anon            |
     |                                               |                |              d{}: 0x74-0x76 (2)
0x070|            00                                 |    .           |                tag: "funcidx" (0x0) 0x74-0x75 (1)
0x070|               04                              |     .          |                x: 4 (valid) 0x75-0x76 (1)
     |                                               |                |            [5]{}: ex 0x76-0x88 (18)
     |                                               |                |              nm{}: 0x76-0x86 (16)
0x070|                  0f                           |      .         |                n: 15 (valid) 0x76-0x77 (1)
0x070|                     66 36 34 78 32 5f 73 75 62|       f64x2_sub|                b: "f64x2_sub_arith" 0x77-0x86 (15)
0x080|5f 61 72 69 74 68                              |_arith          |
     |                                               |                |              d{}: 0x86-0x88 (2)
0x080|                  00                           |      .         |                tag: "funcidx" (0x0) 0x86-0x87 (1)
0x080|                     05                        |       .        |                x: 5 (valid) 0x87-0x88 (1)
     |                                               |                |    [3]{}: section 0x88-0x164 (220)
0x080|                        0a                     |        .       |      id: "code_section" (10) 0x88-0x89 (1)
0x080|                           d9 01               |         ..     |      size: 217 (valid) 0x89-0x8b (2)
     |                                               |                |      content{}: 0x8b-0x164 (217)
     |                                               |                |        code{}: 0x8b-0x164 (217)
0x080|                                 06            |           .    |          n: 6 (valid) 0x8b-0x8c (1)
     |                                               |                |          x[0:6]: 0x8c-0x164 (216)
     |                                               |                |            [0]{}: code 0x8c-0xb6 (42)
0x080|                                    29         |            )   |              size: 41 (valid) 0x8c-0x8d (1)
     |                                               |                |              code{}: 0x8d-0xb6 (41)
     |                                               |                |                t{}: 0x8d-0x8e (1)
0x080|                                       00      |             .  |                  n: 0 (valid) 0x8d-0x8e (1)
     |                                               |                |                  x[0:0]: 0x8e-0x8e (0)
     |                                               |                |                e[0:4]: 0x8e-0xb6 (40)
     |                                               |                |                  [0]{}: in 0x8e-0xa0 (18)
0x080|                                          fd   |              . |                    opcode: "vector" (0xfd) 0x8e-0x8f (1)
0x080|                                             0c|               .|                    v_opcode: "v128.const" (12) 0x8f-0x90 (1)
0x090|00 00 00 00 00 00 f8 7f 00 00 00 00 00 00 f0 3f|...............?|                    bytes: raw bits 0x90-0xa0 (16)
     |                                               |                |                  [1]{}: in 0xa0-0xb2 (18)
0x0a0|fd                                             |.               |                    opcode: "vector" (0xfd) 0xa0-0xa1 (1)
0x0a0|   0c                                          | .              |                    v_opcode: "v128.const" (12) 0xa1-0xa2 (1)
0x0a0|      00 00 00 00 00 00 f8 7f 00 00 00 00 00 00|  ..............|                    bytes: raw bits 0xa2-0xb2 (16)
0x0b0|f0 3f                                          |.?              |
     |                                               |                |                  [2]{}: in 0xb2-0xb5 (3)
0x0b0|      fd                                       |  .             |                    opcode: "vector" (0xfd) 0xb2-0xb3 (1)
0x0b0|         f0 01                                 |   ..           |                    v_opcode: "f64x2.add" (240) 0xb3-0xb5 (2)
     |                                               |                |                  [3]{}: in 0xb5-0xb6 (1)
0x0b0|               0b                              |     .          |                    opcode: "end" (0xb) 0xb5-0xb6 (1)
     |                                               |                |            [1]{}: code 0xb6-0xe0 (42)
0x0b0|                  29                           |      )         |              size: 41 (valid) 0xb6-0xb7 (1)
     |                                               |                |              code{}: 0xb7-0xe0 (41)
     |                                               |                |                t{}: 0xb7-0xb8 (1)
0x0b0|                     00                        |       .        |                  n: 0 (valid) 0xb7-0xb8 (1)
     |                                               |                |                  x[0:0]: 0xb8-0xb8 (0)
     |                                               |                |                e[0:4]: 0xb8-0xe0 (40)
     |                                               |                |                  [0]{}: in 0xb8-0xca (18)
0x0b0|                        fd                     |        .       |                    opcode: "vector" (0xfd) 0xb8-0xb9 (1)
0x0b0|                           0c                  |         .      |                    v_opcode: "v128.const" (12) 0xb9-0xba (1)
0x0b0|                              00 00 00 00 00 00|          ......|                    bytes: raw bits 0xba-0xca (16)
0x0c0|f8 7f 00 00 00 00 00 00 f0 3f                  |.........?      |
     |                                               |                |                  [1]{}: in 0xca-0xdc (18)
0x0c0|                              fd               |          .     |                    opcode: "vector" (0xfd) 0xca-0xcb (1)
0x0c0|                                 0c            |           .    |                    v_opcode: "v128.const" (12) 0xcb-0xcc (1)
0x0c0|                                    00 00 00 00|            ....|                    bytes: raw bits 0xcc-0xdc (16)
0x0d0|00 00 00 40 00 00 00 00 00 00 f8 ff            |...@........    |
     |                                               |                |                  [2]{}: in 0xdc-0xdf (3)
0x0d0|                                    fd         |            .   |                    opcode: "vector" (0xfd) 0xdc-0xdd (1)
0x0d0|                                       f3 01   |             .. |                    v_opcode: "f64x2.div" (243) 0xdd-0xdf (2)
     |                                               |                |                  [3]{}: in 0xdf-0xe0 (1)
0x0d0|                                             0b|               .|                    opcode: "end" (0xb) 0xdf-0xe0 (1)
     |                                               |                |            [2]{}: code 0xe0-0x10a (42)
0x0e0|29                                             |)               |              size: 41 (valid) 0xe0-0xe1 (1)
     |                                               |                |              code{}: 0xe1-0x10a (41)
     |                                               |                |                t{}: 0xe1-0xe2 (1)
0x0e0|   00                                          | .              |                  n: 0 (valid) 0xe1-0xe2 (1)
     |                                               |                |                  x[0:0]: 0xe2-0xe2 (0)
     |                                               |                |                e[0:4]: 0xe2-0x10a (40)
     |                                               |                |                  [0]{}: in 0xe2-0xf4 (18)
0x0e0|      fd                                       |  .             |                    opcode: "vector" (0xfd) 0xe2-0xe3 (1)
0x0e0|         0c                                    |   .            |                    v_opcode: "v128.const" (12) 0xe3-0xe4 (1)
0x0e0|            00 00 00 00 00 00 f8 7f 00 00 00 00|    ............|                    bytes: raw bits 0xe4-0xf4 (16)
0x0f0|00 00 f0 3f                                    |...?            |
     |                                               |                |                  [1]{}: in 0xf4-0x106 (18)
0x0f0|            fd                                 |    .           |                    opcode: "vector" (0xfd) 0xf4-0xf5 (1)
0x0f0|               0c                              |     .          |                    v_opcode: "v128.const" (12) 0xf5-0xf6 (1)
0x0f0|                  00 00 00 00 00 00 00 40 00 00|      .......@..|                    bytes: raw bits 0xf6-0x106 (16)
0x100|00 00 00 00 f8 7f                              |......          |
     |                                               |                |                  [2]{}: in 0x106-0x109 (3)
0x100|                  fd                           |      .         |                    opcode: "vector" (0xfd) 0x106-0x107 (1)
0x100|                     f2 01                     |       ..       |                    v_opcode: "f64x2.mul" (242) 0x107-0x109 (2)
     |                                               |                |                  [3]{}: in 0x109-0x10a (1)
0x100|                           0b                  |         .      |                    opcode: "end" (0xb) 0x109-0x10a (1)
     |                                               |                |            [3]{}: code 0x10a-0x122 (24)
0x100|                              17               |          .     |              size: 23 (valid) 0x10a-0x10b (1)
     |                                               |                |              code{}: 0x10b-0x122 (23)
     |                                               |                |                t{}: 0x10b-0x10c (1)
0x100|                                 00            |           .    |                  n: 0 (valid) 0x10b-0x10c (1)
     |                                               |                |                  x[0:0]: 0x10c-0x10c (0)
     |                                               |                |                e[0:3]: 0x10c-0x122 (22)
     |                                               |                |                  [0]{}: in 0x10c-0x11e (18)
0x100|                                    fd         |            .   |                    opcode: "vector" (0xfd) 0x10c-0x10d (1)
0x100|                                       0c      |             .  |                    v_opcode: "v128.const" (12) 0x10d-0x10e (1)
0x100|                                          00 00|              ..|                    bytes: raw bits 0x10e-0x11e (16)
0x110|00 00 00 00 f8 7f 00 00 00 00 00 00 f0 3f      |.............?  |
     |                                               |                |                  [1]{}: in 0x11e-0x121 (3)
0x110|                                          fd   |              . |                    opcode: "vector" (0xfd) 0x11e-0x11f (1)
0x110|                                             ed|               .|                    v_opcode: "f64x2.neg" (237) 0x11f-0x121 (2)
0x120|01                                             |.               |
     |                                               |                |                  [2]{}: in 0x121-0x122 (1)
0x120|   0b                                          | .              |                    opcode: "end" (0xb) 0x121-0x122 (1)
     |                                               |                |            [4]{}: code 0x122-0x13a (24)
0x120|      17                                       |  .             |              size: 23 (valid) 0x122-0x123 (1)
     |                                               |                |              code{}: 0x123-0x13a (23)
     |                                               |                |                t{}: 0x123-0x124 (1)
0x120|         00                                    |   .            |                  n: 0 (valid) 0x123-0x124 (1)
     |                                               |                |                  x[0:0]: 0x124-0x124 (0)
     |                                               |                |                e[0:3]: 0x124-0x13a (22)
     |                                               |                |                  [0]{}: in 0x124-0x136 (18)
0x120|            fd                                 |    .           |                    opcode: "vector" (0xfd) 0x124-0x125 (1)
0x120|               0c                              |     .          |                    v_opcode: "v128.const" (12) 0x125-0x126 (1)
0x120|                  00 00 00 00 00 00 10 40 00 00|      .......@..|                    bytes: raw bits 0x126-0x136 (16)
0x130|00 00 00 00 f8 ff                              |......          |
     |                                               |                |                  [1]{}: in 0x136-0x139 (3)
0x130|                  fd                           |      .         |                    opcode: "vector" (0xfd) 0x136-0x137 (1)
0x130|                     ef 01                     |       ..       |                    v_opcode: "f64x2.sqrt" (239) 0x137-0x139 (2)
     |                                               |                |                  [2]{}: in 0x139-0x13a (1)
0x130|                           0b                  |         .      |                    opcode: "end" (0xb) 0x139-0x13a (1)
     |                                               |                |            [5]{}: code 0x13a-0x164 (42)
0x130|                              29               |          )     |              size: 41 (valid) 0x13a-0x13b (1)
     |                                               |                |              code{}: 0x13b-0x164 (41)
     |                                               |                |                t{}: 0x13b-0x13c (1)
0x130|                                 00            |           .    |                  n: 0 (valid) 0x13b-0x13c (1)
     |                                               |                |                  x[0:0]: 0x13c-0x13c (0)
     |                                               |                |                e[0:4]: 0x13c-0x164 (40)
     |                                               |                |                  [0]{}: in 0x13c-0x14e (18)
0x130|                                    fd         |            .   |                    opcode: "vector" (0xfd) 0x13c-0x13d (1)
0x130|                                       0c      |             .  |                    v_opcode: "v128.const" (12) 0x13d-0x13e (1)
0x130|                                          00 00|              ..|                    bytes: raw bits 0x13e-0x14e (16)
0x140|00 00 00 00 f0 3f 00 00 00 00 00 00 f0 bf      |.....?........  |
     |                                               |                |                  [1]{}: in 0x14e-0x160 (18)
0x140|                                          fd   |              . |                    opcode: "vector" (0xfd) 0x14e-0x14f (1)
0x140|                                             0c|               .|                    v_opcode: "v128.const" (12) 0x14f-0x150 (1)
0x150|00 00 00 00 00 00 f8 ff 00 00 00 00 00 00 f0 3f|...............?|                    bytes: raw bits 0x150-0x160 (16)
     |                                               |                |                  [2]{}: in 0x160-0x163 (3)
0x160|fd                                             |.               |                    opcode: "vector" (0xfd) 0x160-0x161 (1)
0x160|   f1 01                                       | ..             |                    v_opcode: "f64x2.sub" (241) 0x161-0x163 (2)
     |                                               |                |                  [3]{}: in 0x163-0x164 (1)
0x160|         0b|                                   |   .|           |                    opcode: "end" (0xb) 0x163-0x164 (1)
