$ fq -d wasm dv simd_f32x4_arith-1.wasm
    |00 01 02 03 04 05 06 07 08 09 0a 0b 0c 0d 0e 0f|0123456789abcdef|.{}: simd_f32x4_arith-1.wasm (wasm) 0x0-0x9c (156)
0x00|00 61 73 6d                                    |.asm            |  magic: raw bits (valid) 0x0-0x4 (4)
0x00|            01 00 00 00                        |    ....        |  version: 1 0x4-0x8 (4)
    |                                               |                |  sections[0:4]: 0x8-0x9c (148)
    |                                               |                |    [0]{}: section 0x8-0xf (7)
0x00|                        01                     |        .       |      id: "type_section" (1) 0x8-0x9 (1)
0x00|                           05                  |         .      |      size: 5 (valid) 0x9-0xa (1)
    |                                               |                |      content{}: 0xa-0xf (5)
    |                                               |                |        ft{}: 0xa-0xf (5)
0x00|                              01               |          .     |          n: 1 (valid) 0xa-0xb (1)
    |                                               |                |          x[0:1]: 0xb-0xf (4)
    |                                               |                |            [0]{}: ft 0xb-0xf (4)
0x00|                                 60            |           `    |              tag: 0x60 (valid) 0xb-0xc (1)
    |                                               |                |              rt1{}: 0xc-0xd (1)
0x00|                                    00         |            .   |                n: 0 (valid) 0xc-0xd (1)
    |                                               |                |                x[0:0]: 0xd-0xd (0)
    |                                               |                |              rt2{}: 0xd-0xf (2)
0x00|                                       01      |             .  |                n: 1 (valid) 0xd-0xe (1)
    |                                               |                |                x[0:1]: 0xe-0xf (1)
0x00|                                          7b   |              { |                  [0]: "v128" (0x7b) t 0xe-0xf (1)
    |                                               |                |    [1]{}: section 0xf-0x15 (6)
0x00|                                             03|               .|      id: "function_section" (3) 0xf-0x10 (1)
0x10|04                                             |.               |      size: 4 (valid) 0x10-0x11 (1)
    |                                               |                |      content{}: 0x11-0x15 (4)
    |                                               |                |        x{}: 0x11-0x15 (4)
0x10|   03                                          | .              |          n: 3 (valid) 0x11-0x12 (1)
    |                                               |                |          x[0:3]: 0x12-0x15 (3)
0x10|      00                                       |  .             |            [0]: 0 x (valid) 0x12-0x13 (1)
0x10|         00                                    |   .            |            [1]: 0 x (valid) 0x13-0x14 (1)
0x10|            00                                 |    .           |            [2]: 0 x (valid) 0x14-0x15 (1)
    |                                               |                |    [2]{}: section 0x15-0x51 (60)
0x10|               07                              |     .          |      id: "export_section" (7) 0x15-0x16 (1)
0x10|                  3a                           |      :         |      size: 58 (valid) 0x16-0x17 (1)
    |                                               |                |      content{}: 0x17-0x51 (58)
    |                                               |                |        ex{}: 0x17-0x51 (58)
0x10|                     03                        |       .        |          n: 3 (valid) 0x17-0x18 (1)
    |                                               |                |          x[0:3]: 0x18-0x51 (57)
    |                                               |                |            [0]{}: ex 0x18-0x2b (19)
    |                                               |                |              nm{}: 0x18-0x29 (17)
0x10|                        10                     |        .       |                n: 16 (valid) 0x18-0x19 (1)
0x10|                           66 33 32 78 34 5f 73|         f32x4_s|                b: "f32x4_sqrt_arith" 0x19-0x29 (16)
0x20|71 72 74 5f 61 72 69 74 68                     |qrt_arith       |
    |                                               |                |              d{}: 0x29-0x2b (2)
0x20|                           00                  |         .      |                tag: "funcidx" (0x0) 0x29-0x2a (1)
0x20|                              00               |          .     |                x: 0 (valid) 0x2a-0x2b (1)
    |                                               |                |            [1]{}: ex 0x2b-0x3e (19)
    |                                               |                |              nm{}: 0x2b-0x3c (17)
0x20|                                 10            |           .    |                n: 16 (valid) 0x2b-0x2c (1)
0x20|                                    66 33 32 78|            f32x|                b: "f32x4_sqrt_canon" 0x2c-0x3c (16)
0x30|34 5f 73 71 72 74 5f 63 61 6e 6f 6e            |4_sqrt_canon    |
    |                                               |                |              d{}: 0x3c-0x3e (2)
0x30|                                    00         |            .   |                tag: "funcidx" (0x0) 0x3c-0x3d (1)
0x30|                                       01      |             .  |                x: 1 (valid) 0x3d-0x3e (1)
    |                                               |                |            [2]{}: ex 0x3e-0x51 (19)
    |                                               |                |              nm{}: 0x3e-0x4f (17)
0x30|                                          10   |              . |                n: 16 (valid) 0x3e-0x3f (1)
0x30|                                             66|               f|                b: "f32x4_sqrt_mixed" 0x3f-0x4f (16)
0x40|33 32 78 34 5f 73 71 72 74 5f 6d 69 78 65 64   |32x4_sqrt_mixed |
    |                                               |                |              d{}: 0x4f-0x51 (2)
0x40|                                             00|               .|                tag: "funcidx" (0x0) 0x4f-0x50 (1)
0x50|02                                             |.               |                x: 2 (valid) 0x50-0x51 (1)
    |                                               |                |    [3]{}: section 0x51-0x9c (75)
0x50|   0a                                          | .              |      id: "code_section" (10) 0x51-0x52 (1)
0x50|      49                                       |  I             |      size: 73 (valid) 0x52-0x53 (1)
    |                                               |                |      content{}: 0x53-0x9c (73)
    |                                               |                |        code{}: 0x53-0x9c (73)
0x50|         03                                    |   .            |          n: 3 (valid) 0x53-0x54 (1)
    |                                               |                |          x[0:3]: 0x54-0x9c (72)
    |                                               |                |            [0]{}: code 0x54-0x6c (24)
0x50|            17                                 |    .           |              size: 23 (valid) 0x54-0x55 (1)
    |                                               |                |              code{}: 0x55-0x6c (23)
    |                                               |                |                t{}: 0x55-0x56 (1)
0x50|               00                              |     .          |                  n: 0 (valid) 0x55-0x56 (1)
    |                                               |                |                  x[0:0]: 0x56-0x56 (0)
    |                                               |                |                e[0:3]: 0x56-0x6c (22)
    |                                               |                |                  [0]{}: in 0x56-0x68 (18)
0x50|                  fd                           |      .         |                    opcode: "vector" (0xfd) 0x56-0x57 (1)
0x50|                     0c                        |       .        |                    v_opcode: "v128.const" (12) 0x57-0x58 (1)
0x50|                        00 00 a0 7f 00 00 a0 ff|        ........|                    bytes: raw bits 0x58-0x68 (16)
0x60|00 00 80 41 00 00 c8 41                        |...A...A        |
    |                                               |                |                  [1]{}: in 0x68-0x6b (3)
0x60|                        fd                     |        .       |                    opcode: "vector" (0xfd) 0x68-0x69 (1)
0x60|                           e3 01               |         ..     |                    v_opcode: "f32x4.sqrt" (227) 0x69-0x6b (2)
    |                                               |                |                  [2]{}: in 0x6b-0x6c (1)
0x60|                                 0b            |           .    |                    opcode: "end" (0xb) 0x6b-0x6c (1)
    |                                               |                |            [1]{}: code 0x6c-0x84 (24)
0x60|                                    17         |            .   |              size: 23 (valid) 0x6c-0x6d (1)
    |                                               |                |              code{}: 0x6d-0x84 (23)
    |                                               |                |                t{}: 0x6d-0x6e (1)
0x60|                                       00      |             .  |                  n: 0 (valid) 0x6d-0x6e (1)
    |                                               |                |                  x[0:0]: 0x6e-0x6e (0)
    |                                               |                |                e[0:3]: 0x6e-0x84 (22)
    |                                               |                |                  [0]{}: in 0x6e-0x80 (18)
0x60|                                          fd   |              . |                    opcode: "vector" (0xfd) 0x6e-0x6f (1)
0x60|                                             0c|               .|                    v_opcode: "v128.const" (12) 0x6f-0x70 (1)
0x70|00 00 80 bf 00 00 c0 7f 00 00 80 40 00 00 10 41|...........@...A|                    bytes: raw bits 0x70-0x80 (16)
    |                                               |                |                  [1]{}: in 0x80-0x83 (3)
0x80|fd                                             |.               |                    opcode: "vector" (0xfd) 0x80-0x81 (1)
0x80|   e3 01                                       | ..             |                    v_opcode: "f32x4.sqrt" (227) 0x81-0x83 (2)
    |                                               |                |                  [2]{}: in 0x83-0x84 (1)
0x80|         0b                                    |   .            |                    opcode: "end" (0xb) 0x83-0x84 (1)
    |                                               |                |            [2]{}: code 0x84-0x9c (24)
0x80|            17                                 |    .           |              size: 23 (valid) 0x84-0x85 (1)
    |                                               |                |              code{}: 0x85-0x9c (23)
    |                                               |                |                t{}: 0x85-0x86 (1)
0x80|               00                              |     .          |                  n: 0 (valid) 0x85-0x86 (1)
    |                                               |                |                  x[0:0]: 0x86-0x86 (0)
    |                                               |                |                e[0:3]: 0x86-0x9c (22)
    |                                               |                |                  [0]{}: in 0x86-0x98 (18)
0x80|                  fd                           |      .         |                    opcode: "vector" (0xfd) 0x86-0x87 (1)
0x80|                     0c                        |       .        |                    v_opcode: "v128.const" (12) 0x87-0x88 (1)
0x80|                        00 00 80 ff 00 00 a0 7f|        ........|                    bytes: raw bits 0x88-0x98 (16)
0x90|00 00 10 42 00 00 44 42                        |...B..DB        |
    |                                               |                |                  [1]{}: in 0x98-0x9b (3)
0x90|                        fd                     |        .       |                    opcode: "vector" (0xfd) 0x98-0x99 (1)
0x90|                           e3 01               |         ..     |                    v_opcode: "f32x4.sqrt" (227) 0x99-0x9b (2)
    |                                               |                |                  [2]{}: in 0x9b-0x9c (1)
0x90|                                 0b|           |           .|   |                    opcode: "end" (0xb) 0x9b-0x9c (1)
