$ fq -d wasm dv simd_const-211.wasm
    |00 01 02 03 04 05 06 07 08 09 0a 0b 0c 0d 0e 0f|0123456789abcdef|.{}: simd_const-211.wasm (wasm) 0x0-0x31.7 (50)
0x00|00 61 73 6d                                    |.asm            |  magic: raw bits (valid) 0x0-0x3.7 (4)
0x00|            01 00 00 00                        |    ....        |  version: 1 0x4-0x7.7 (4)
    |                                               |                |  sections[0:4]: 0x8-0x31.7 (42)
    |                                               |                |    [0]{}: section 0x8-0xe.7 (7)
0x00|                        01                     |        .       |      id: "type_section" (1) 0x8-0x8.7 (1)
0x00|                           05                  |         .      |      size: 5 (valid) 0x9-0x9.7 (1)
    |                                               |                |      content{}: 0xa-0xe.7 (5)
    |                                               |                |        ft{}: 0xa-0xe.7 (5)
0x00|                              01               |          .     |          n: 1 (valid) 0xa-0xa.7 (1)
    |                                               |                |          x[0:1]: 0xb-0xe.7 (4)
    |                                               |                |            [0]{}: ft 0xb-0xe.7 (4)
0x00|                                 60            |           `    |              tag: 0x60 (valid) 0xb-0xb.7 (1)
    |                                               |                |              rt1{}: 0xc-0xc.7 (1)
0x00|                                    00         |            .   |                n: 0 (valid) 0xc-0xc.7 (1)
    |                                               |                |                x[0:0]: 0xd-NA (0)
    |                                               |                |              rt2{}: 0xd-0xe.7 (2)
0x00|                                       01      |             .  |                n: 1 (valid) 0xd-0xd.7 (1)
    |                                               |                |                x[0:1]: 0xe-0xe.7 (1)
0x00|                                          7b   |              { |                  [0]: "v128" (0x7b) t 0xe-0xe.7 (1)
    |                                               |                |    [1]{}: section 0xf-0x12.7 (4)
0x00|                                             03|               .|      id: "function_section" (3) 0xf-0xf.7 (1)
0x10|02                                             |.               |      size: 2 (valid) 0x10-0x10.7 (1)
    |                                               |                |      content{}: 0x11-0x12.7 (2)
    |                                               |                |        x{}: 0x11-0x12.7 (2)
0x10|   01                                          | .              |          n: 1 (valid) 0x11-0x11.7 (1)
    |                                               |                |          x[0:1]: 0x12-0x12.7 (1)
0x10|      00                                       |  .             |            [0]: 0 x (valid) 0x12-0x12.7 (1)
    |                                               |                |    [2]{}: section 0x13-0x19.7 (7)
0x10|         07                                    |   .            |      id: "export_section" (7) 0x13-0x13.7 (1)
0x10|            05                                 |    .           |      size: 5 (valid) 0x14-0x14.7 (1)
    |                                               |                |      content{}: 0x15-0x19.7 (5)
    |                                               |                |        ex{}: 0x15-0x19.7 (5)
0x10|               01                              |     .          |          n: 1 (valid) 0x15-0x15.7 (1)
    |                                               |                |          x[0:1]: 0x16-0x19.7 (4)
    |                                               |                |            [0]{}: ex 0x16-0x19.7 (4)
    |                                               |                |              nm{}: 0x16-0x17.7 (2)
0x10|                  01                           |      .         |                n: 1 (valid) 0x16-0x16.7 (1)
0x10|                     66                        |       f        |                b: "f" 0x17-0x17.7 (1)
    |                                               |                |              d{}: 0x18-0x19.7 (2)
0x10|                        00                     |        .       |                tag: "funcidx" (0x0) 0x18-0x18.7 (1)
0x10|                           00                  |         .      |                x: 0 (valid) 0x19-0x19.7 (1)
    |                                               |                |    [3]{}: section 0x1a-0x31.7 (24)
0x10|                              0a               |          .     |      id: "code_section" (10) 0x1a-0x1a.7 (1)
0x10|                                 16            |           .    |      size: 22 (valid) 0x1b-0x1b.7 (1)
    |                                               |                |      content{}: 0x1c-0x31.7 (22)
    |                                               |                |        code{}: 0x1c-0x31.7 (22)
0x10|                                    01         |            .   |          n: 1 (valid) 0x1c-0x1c.7 (1)
    |                                               |                |          x[0:1]: 0x1d-0x31.7 (21)
    |                                               |                |            [0]{}: code 0x1d-0x31.7 (21)
0x10|                                       14      |             .  |              size: 20 (valid) 0x1d-0x1d.7 (1)
    |                                               |                |              code{}: 0x1e-0x31.7 (20)
    |                                               |                |                t{}: 0x1e-0x1e.7 (1)
0x10|                                          00   |              . |                  n: 0 (valid) 0x1e-0x1e.7 (1)
    |                                               |                |                  x[0:0]: 0x1f-NA (0)
    |                                               |                |                e[0:2]: 0x1f-0x31.7 (19)
    |                                               |                |                  [0]{}: in 0x1f-0x30.7 (18)
0x10|                                             fd|               .|                    opcode: "vector" (0xfd) 0x1f-0x1f.7 (1)
0x20|0c                                             |.               |                    v_opcode: "v128.const" (12) 0x20-0x20.7 (1)
0x20|   01 00 00 00 00 00 70 65 01 00 00 00 00 00 70| ......pe......p|                    bytes: raw bits 0x21-0x30.7 (16)
0x30|65                                             |e               |
    |                                               |                |                  [1]{}: in 0x31-0x31.7 (1)
0x30|   0b|                                         | .|             |                    opcode: "end" (0xb) 0x31-0x31.7 (1)
