$ fq -d wasm dv simd_load64_lane-0.wasm
     |00 01 02 03 04 05 06 07 08 09 0a 0b 0c 0d 0e 0f|0123456789abcdef|.{}: simd_load64_lane-0.wasm (wasm) 0x0-0x228 (552)
0x000|00 61 73 6d                                    |.asm            |  magic: raw bits (valid) 0x0-0x4 (4)
0x000|            01 00 00 00                        |    ....        |  version: 1 0x4-0x8 (4)
     |                                               |                |  sections[0:6]: 0x8-0x228 (544)
     |                                               |                |    [0]{}: section 0x8-0x16 (14)
0x000|                        01                     |        .       |      id: "type_section" (1) 0x8-0x9 (1)
0x000|                           0c                  |         .      |      size: 12 (valid) 0x9-0xa (1)
     |                                               |                |      content{}: 0xa-0x16 (12)
     |                                               |                |        ft{}: 0xa-0x16 (12)
0x000|                              02               |          .     |          n: 2 (valid) 0xa-0xb (1)
     |                                               |                |          x[0:2]: 0xb-0x16 (11)
     |                                               |                |            [0]{}: ft 0xb-0x11 (6)
0x000|                                 60            |           `    |              tag: 0x60 (valid) 0xb-0xc (1)
     |                                               |                |              rt1{}: 0xc-0xf (3)
0x000|                                    02         |            .   |                n: 2 (valid) 0xc-0xd (1)
     |                                               |                |                x[0:2]: 0xd-0xf (2)
0x000|                                       7f      |             .  |                  [0]: "i32" (0x7f) t 0xd-0xe (1)
0x000|                                          7b   |              { |                  [1]: "v128" (0x7b) t 0xe-0xf (1)
     |                                               |                |              rt2{}: 0xf-0x11 (2)
0x000|                                             01|               .|                n: 1 (valid) 0xf-0x10 (1)
     |                                               |                |                x[0:1]: 0x10-0x11 (1)
0x010|7b                                             |{               |                  [0]: "v128" (0x7b) t 0x10-0x11 (1)
     |                                               |                |            [1]{}: ft 0x11-0x16 (5)
0x010|   60                                          | `              |              tag: 0x60 (valid) 0x11-0x12 (1)
     |                                               |                |              rt1{}: 0x12-0x14 (2)
0x010|      01                                       |  .             |                n: 1 (valid) 0x12-0x13 (1)
     |                                               |                |                x[0:1]: 0x13-0x14 (1)
0x010|         7b                                    |   {            |                  [0]: "v128" (0x7b) t 0x13-0x14 (1)
     |                                               |                |              rt2{}: 0x14-0x16 (2)
0x010|            01                                 |    .           |                n: 1 (valid) 0x14-0x15 (1)
     |                                               |                |                x[0:1]: 0x15-0x16 (1)
0x010|               7b                              |     {          |                  [0]: "v128" (0x7b) t 0x15-0x16 (1)
     |                                               |                |    [1]{}: section 0x16-0x25 (15)
0x010|                  03                           |      .         |      id: "function_section" (3) 0x16-0x17 (1)
0x010|                     0d                        |       .        |      size: 13 (valid) 0x17-0x18 (1)
     |                                               |                |      content{}: 0x18-0x25 (13)
     |                                               |                |        x{}: 0x18-0x25 (13)
0x010|                        0c                     |        .       |          n: 12 (valid) 0x18-0x19 (1)
     |                                               |                |          x[0:12]: 0x19-0x25 (12)
0x010|                           00                  |         .      |            [0]: 0 x (valid) 0x19-0x1a (1)
0x010|                              00               |          .     |            [1]: 0 x (valid) 0x1a-0x1b (1)
0x010|                                 01            |           .    |            [2]: 1 x (valid) 0x1b-0x1c (1)
0x010|                                    01         |            .   |            [3]: 1 x (valid) 0x1c-0x1d (1)
0x010|                                       00      |             .  |            [4]: 0 x (valid) 0x1d-0x1e (1)
0x010|                                          00   |              . |            [5]: 0 x (valid) 0x1e-0x1f (1)
0x010|                                             00|               .|            [6]: 0 x (valid) 0x1f-0x20 (1)
0x020|00                                             |.               |            [7]: 0 x (valid) 0x20-0x21 (1)
0x020|   00                                          | .              |            [8]: 0 x (valid) 0x21-0x22 (1)
0x020|      00                                       |  .             |            [9]: 0 x (valid) 0x22-0x23 (1)
0x020|         00                                    |   .            |            [10]: 0 x (valid) 0x23-0x24 (1)
0x020|            00                                 |    .           |            [11]: 0 x (valid) 0x24-0x25 (1)
     |                                               |                |    [2]{}: section 0x25-0x2a (5)
0x020|               05                              |     .          |      id: "memory_section" (5) 0x25-0x26 (1)
0x020|                  03                           |      .         |      size: 3 (valid) 0x26-0x27 (1)
     |                                               |                |      content{}: 0x27-0x2a (3)
     |                                               |                |        mem{}: 0x27-0x2a (3)
0x020|                     01                        |       .        |          n: 1 (valid) 0x27-0x28 (1)
     |                                               |                |          x[0:1]: 0x28-0x2a (2)
     |                                               |                |            [0]{}: mem 0x28-0x2a (2)
     |                                               |                |              lim{}: 0x28-0x2a (2)
0x020|                        00                     |        .       |                tag: 0x0 0x28-0x29 (1)
0x020|                           01                  |         .      |                n: 1 (valid) 0x29-0x2a (1)
     |                                               |                |    [3]{}: section 0x2a-0x17c (338)
0x020|                              07               |          .     |      id: "export_section" (7) 0x2a-0x2b (1)
0x020|                                 cf 02         |           ..   |      size: 335 (valid) 0x2b-0x2d (2)
     |                                               |                |      content{}: 0x2d-0x17c (335)
     |                                               |                |        ex{}: 0x2d-0x17c (335)
0x020|                                       0c      |             .  |          n: 12 (valid) 0x2d-0x2e (1)
     |                                               |                |          x[0:12]: 0x2e-0x17c (334)
     |                                               |                |            [0]{}: ex 0x2e-0x43 (21)
     |                                               |                |              nm{}: 0x2e-0x41 (19)
0x020|                                          12   |              . |                n: 18 (valid) 0x2e-0x2f (1)
0x020|                                             76|               v|                b: "v128.load64_lane_0" 0x2f-0x41 (18)
0x030|31 32 38 2e 6c 6f 61 64 36 34 5f 6c 61 6e 65 5f|128.load64_lane_|
0x040|30                                             |0               |
     |                                               |                |              d{}: 0x41-0x43 (2)
0x040|   00                                          | .              |                tag: "funcidx" (0x0) 0x41-0x42 (1)
0x040|      00                                       |  .             |                x: 0 (valid) 0x42-0x43 (1)
     |                                               |                |            [1]{}: ex 0x43-0x58 (21)
     |                                               |                |              nm{}: 0x43-0x56 (19)
0x040|         12                                    |   .            |                n: 18 (valid) 0x43-0x44 (1)
0x040|            76 31 32 38 2e 6c 6f 61 64 36 34 5f|    v128.load64_|                b: "v128.load64_lane_1" 0x44-0x56 (18)
0x050|6c 61 6e 65 5f 31                              |lane_1          |
     |                                               |                |              d{}: 0x56-0x58 (2)
0x050|                  00                           |      .         |                tag: "funcidx" (0x0) 0x56-0x57 (1)
0x050|                     01                        |       .        |                x: 1 (valid) 0x57-0x58 (1)
     |                                               |                |            [2]{}: ex 0x58-0x76 (30)
     |                                               |                |              nm{}: 0x58-0x74 (28)
0x050|                        1b                     |        .       |                n: 27 (valid) 0x58-0x59 (1)
0x050|                           76 31 32 38 2e 6c 6f|         v128.lo|                b: "v128.load64_lane_0_offset_0" 0x59-0x74 (27)
0x060|61 64 36 34 5f 6c 61 6e 65 5f 30 5f 6f 66 66 73|ad64_lane_0_offs|
0x070|65 74 5f 30                                    |et_0            |
     |                                               |                |              d{}: 0x74-0x76 (2)
0x070|            00                                 |    .           |                tag: "funcidx" (0x0) 0x74-0x75 (1)
0x070|               02                              |     .          |                x: 2 (valid) 0x75-0x76 (1)
     |                                               |                |            [3]{}: ex 0x76-0x94 (30)
     |                                               |                |              nm{}: 0x76-0x92 (28)
0x070|                  1b                           |      .         |                n: 27 (valid) 0x76-0x77 (1)
0x070|                     76 31 32 38 2e 6c 6f 61 64|       v128.load|                b: "v128.load64_lane_1_offset_1" 0x77-0x92 (27)
0x080|36 34 5f 6c 61 6e 65 5f 31 5f 6f 66 66 73 65 74|64_lane_1_offset|
0x090|5f 31                                          |_1              |
     |                                               |                |              d{}: 0x92-0x94 (2)
0x090|      00                                       |  .             |                tag: "funcidx" (0x0) 0x92-0x93 (1)
0x090|         03                                    |   .            |                x: 3 (valid) 0x93-0x94 (1)
     |                                               |                |            [4]{}: ex 0x94-0xb1 (29)
     |                                               |                |              nm{}: 0x94-0xaf (27)
0x090|            1a                                 |    .           |                n: 26 (valid) 0x94-0x95 (1)
0x090|               76 31 32 38 2e 6c 6f 61 64 36 34|     v128.load64|                b: "v128.load64_lane_0_align_1" 0x95-0xaf (26)
0x0a0|5f 6c 61 6e 65 5f 30 5f 61 6c 69 67 6e 5f 31   |_lane_0_align_1 |
     |                                               |                |              d{}: 0xaf-0xb1 (2)
0x0a0|                                             00|               .|                tag: "funcidx" (0x0) 0xaf-0xb0 (1)
0x0b0|04                                             |.               |                x: 4 (valid) 0xb0-0xb1 (1)
     |                                               |                |            [5]{}: ex 0xb1-0xce (29)
     |                                               |                |              nm{}: 0xb1-0xcc (27)
0x0b0|   1a                                          | .              |                n: 26 (valid) 0xb1-0xb2 (1)
0x0b0|      76 31 32 38 2e 6c 6f 61 64 36 34 5f 6c 61|  v128.load64_la|                b: "v128.load64_lane_0_align_2" 0xb2-0xcc (26)
0x0c0|6e 65 5f 30 5f 61 6c 69 67 6e 5f 32            |ne_0_align_2    |
     |                                               |                |              d{}: 0xcc-0xce (2)
0x0c0|                                    00         |            .   |                tag: "funcidx" (0x0) 0xcc-0xcd (1)
0x0c0|                                       05      |             .  |                x: 5 (valid) 0xcd-0xce (1)
     |                                               |                |            [6]{}: ex 0xce-0xeb (29)
     |                                               |                |              nm{}: 0xce-0xe9 (27)
0x0c0|                                          1a   |              . |                n: 26 (valid) 0xce-0xcf (1)
0x0c0|                                             76|               v|                b: "v128.load64_lane_0_align_4" 0xcf-0xe9 (26)
0x0d0|31 32 38 2e 6c 6f 61 64 36 34 5f 6c 61 6e 65 5f|128.load64_lane_|
0x0e0|30 5f 61 6c 69 67 6e 5f 34                     |0_align_4       |
     |                                               |                |              d{}: 0xe9-0xeb (2)
0x0e0|                           00                  |         .      |                tag: "funcidx" (0x0) 0xe9-0xea (1)
0x0e0|                              06               |          .     |                x: 6 (valid) 0xea-0xeb (1)
     |                                               |                |            [7]{}: ex 0xeb-0x108 (29)
     |                                               |                |              nm{}: 0xeb-0x106 (27)
0x0e0|                                 1a            |           .    |                n: 26 (valid) 0xeb-0xec (1)
0x0e0|                                    76 31 32 38|            v128|                b: "v128.load64_lane_0_align_8" 0xec-0x106 (26)
0x0f0|2e 6c 6f 61 64 36 34 5f 6c 61 6e 65 5f 30 5f 61|.load64_lane_0_a|
0x100|6c 69 67 6e 5f 38                              |lign_8          |
     |                                               |                |              d{}: 0x106-0x108 (2)
0x100|                  00                           |      .         |                tag: "funcidx" (0x0) 0x106-0x107 (1)
0x100|                     07                        |       .        |                x: 7 (valid) 0x107-0x108 (1)
     |                                               |                |            [8]{}: ex 0x108-0x125 (29)
     |                                               |                |              nm{}: 0x108-0x123 (27)
0x100|                        1a                     |        .       |                n: 26 (valid) 0x108-0x109 (1)
0x100|                           76 31 32 38 2e 6c 6f|         v128.lo|                b: "v128.load64_lane_1_align_1" 0x109-0x123 (26)
0x110|61 64 36 34 5f 6c 61 6e 65 5f 31 5f 61 6c 69 67|ad64_lane_1_alig|
0x120|6e 5f 31                                       |n_1             |
     |                                               |                |              d{}: 0x123-0x125 (2)
0x120|         00                                    |   .            |                tag: "funcidx" (0x0) 0x123-0x124 (1)
0x120|            08                                 |    .           |                x: 8 (valid) 0x124-0x125 (1)
     |                                               |                |            [9]{}: ex 0x125-0x142 (29)
     |                                               |                |              nm{}: 0x125-0x140 (27)
0x120|               1a                              |     .          |                n: 26 (valid) 0x125-0x126 (1)
0x120|                  76 31 32 38 2e 6c 6f 61 64 36|      v128.load6|                b: "v128.load64_lane_1_align_2" 0x126-0x140 (26)
0x130|34 5f 6c 61 6e 65 5f 31 5f 61 6c 69 67 6e 5f 32|4_lane_1_align_2|
     |                                               |                |              d{}: 0x140-0x142 (2)
0x140|00                                             |.               |                tag: "funcidx" (0x0) 0x140-0x141 (1)
0x140|   09                                          | .              |                x: 9 (valid) 0x141-0x142 (1)
     |                                               |                |            [10]{}: ex 0x142-0x15f (29)
     |                                               |                |              nm{}: 0x142-0x15d (27)
0x140|      1a                                       |  .             |                n: 26 (valid) 0x142-0x143 (1)
0x140|         76 31 32 38 2e 6c 6f 61 64 36 34 5f 6c|   v128.load64_l|                b: "v128.load64_lane_1_align_4" 0x143-0x15d (26)
0x150|61 6e 65 5f 31 5f 61 6c 69 67 6e 5f 34         |ane_1_align_4   |
     |                                               |                |              d{}: 0x15d-0x15f (2)
0x150|                                       00      |             .  |                tag: "funcidx" (0x0) 0x15d-0x15e (1)
0x150|                                          0a   |              . |                x: 10 (valid) 0x15e-0x15f (1)
     |                                               |                |            [11]{}: ex 0x15f-0x17c (29)
     |                                               |                |              nm{}: 0x15f-0x17a (27)
0x150|                                             1a|               .|                n: 26 (valid) 0x15f-0x160 (1)
0x160|76 31 32 38 2e 6c 6f 61 64 36 34 5f 6c 61 6e 65|v128.load64_lane|                b: "v128.load64_lane_1_align_8" 0x160-0x17a (26)
0x170|5f 31 5f 61 6c 69 67 6e 5f 38                  |_1_align_8      |
     |                                               |                |              d{}: 0x17a-0x17c (2)
0x170|                              00               |          .     |                tag: "funcidx" (0x0) 0x17a-0x17b (1)
0x170|                                 0b            |           .    |                x: 11 (valid) 0x17b-0x17c (1)
     |                                               |                |    [4]{}: section 0x17c-0x210 (148)
0x170|                                    0a         |            .   |      id: "code_section" (10) 0x17c-0x17d (1)
0x170|                                       91 01   |             .. |      size: 145 (valid) 0x17d-0x17f (2)
     |                                               |                |      content{}: 0x17f-0x210 (145)
     |                                               |                |        code{}: 0x17f-0x210 (145)
0x170|                                             0c|               .|          n: 12 (valid) 0x17f-0x180 (1)
     |                                               |                |          x[0:12]: 0x180-0x210 (144)
     |                                               |                |            [0]{}: code 0x180-0x18c (12)
0x180|0b                                             |.               |              size: 11 (valid) 0x180-0x181 (1)
     |                                               |                |              code{}: 0x181-0x18c (11)
     |                                               |                |                t{}: 0x181-0x182 (1)
0x180|   00                                          | .              |                  n: 0 (valid) 0x181-0x182 (1)
     |                                               |                |                  x[0:0]: 0x182-0x182 (0)
     |                                               |                |                e[0:4]: 0x182-0x18c (10)
     |                                               |                |                  [0]{}: in 0x182-0x184 (2)
0x180|      20                                       |                |                    opcode: "local.get" (0x20) 0x182-0x183 (1)
0x180|         00                                    |   .            |                    x: 0 (valid) 0x183-0x184 (1)
     |                                               |                |                  [1]{}: in 0x184-0x186 (2)
0x180|            20                                 |                |                    opcode: "local.get" (0x20) 0x184-0x185 (1)
0x180|               01                              |     .          |                    x: 1 (valid) 0x185-0x186 (1)
     |                                               |                |                  [2]{}: in 0x186-0x18b (5)
0x180|                  fd                           |      .         |                    opcode: "vector" (0xfd) 0x186-0x187 (1)
0x180|                     57                        |       W        |                    v_opcode: "v128.load64_lane" (87) 0x187-0x188 (1)
     |                                               |                |                    m{}: 0x188-0x18a (2)
0x180|                        03                     |        .       |                      a: 3 (valid) 0x188-0x189 (1)
0x180|                           00                  |         .      |                      o: 0 (valid) 0x189-0x18a (1)
0x180|                              00               |          .     |                    l: 0 0x18a-0x18b (1)
     |                                               |                |                  [3]{}: in 0x18b-0x18c (1)
0x180|                                 0b            |           .    |                    opcode: "end" (0xb) 0x18b-0x18c (1)
     |                                               |                |            [1]{}: code 0x18c-0x198 (12)
0x180|                                    0b         |            .   |              size: 11 (valid) 0x18c-0x18d (1)
     |                                               |                |              code{}: 0x18d-0x198 (11)
     |                                               |                |                t{}: 0x18d-0x18e (1)
0x180|                                       00      |             .  |                  n: 0 (valid) 0x18d-0x18e (1)
     |                                               |                |                  x[0:0]: 0x18e-0x18e (0)
     |                                               |                |                e[0:4]: 0x18e-0x198 (10)
     |                                               |                |                  [0]{}: in 0x18e-0x190 (2)
0x180|                                          20   |                |                    opcode: "local.get" (0x20) 0x18e-0x18f (1)
0x180|                                             00|               .|                    x: 0 (valid) 0x18f-0x190 (1)
     |                                               |                |                  [1]{}: in 0x190-0x192 (2)
0x190|20                                             |                |                    opcode: "local.get" (0x20) 0x190-0x191 (1)
0x190|   01                                          | .              |                    x: 1 (valid) 0x191-0x192 (1)
     |                                               |                |                  [2]{}: in 0x192-0x197 (5)
0x190|      fd                                       |  .             |                    opcode: "vector" (0xfd) 0x192-0x193 (1)
0x190|         57                                    |   W            |                    v_opcode: "v128.load64_lane" (87) 0x193-0x194 (1)
     |                                               |                |                    m{}: 0x194-0x196 (2)
0x190|            03                                 |    .           |                      a: 3 (valid) 0x194-0x195 (1)
0x190|               00                              |     .          |                      o: 0 (valid) 0x195-0x196 (1)
0x190|                  01                           |      .         |                    l: 1 0x196-0x197 (1)
     |                                               |                |                  [3]{}: in 0x197-0x198 (1)
0x190|                     0b                        |       .        |                    opcode: "end" (0xb) 0x197-0x198 (1)
     |                                               |                |            [2]{}: code 0x198-0x1a4 (12)
0x190|                        0b                     |        .       |              size: 11 (valid) 0x198-0x199 (1)
     |                                               |                |              code{}: 0x199-0x1a4 (11)
     |                                               |                |                t{}: 0x199-0x19a (1)
0x190|                           00                  |         .      |                  n: 0 (valid) 0x199-0x19a (1)
     |                                               |                |                  x[0:0]: 0x19a-0x19a (0)
     |                                               |                |                e[0:4]: 0x19a-0x1a4 (10)
     |                                               |                |                  [0]{}: in 0x19a-0x19c (2)
0x190|                              41               |          A     |                    opcode: "i32.const" (0x41) 0x19a-0x19b (1)
0x190|                                 00            |           .    |                    n: 0 (valid) 0x19b-0x19c (1)
     |                                               |                |                  [1]{}: in 0x19c-0x19e (2)
0x190|                                    20         |                |                    opcode: "local.get" (0x20) 0x19c-0x19d (1)
0x190|                                       00      |             .  |                    x: 0 (valid) 0x19d-0x19e (1)
     |                                               |                |                  [2]{}: in 0x19e-0x1a3 (5)
0x190|                                          fd   |              . |                    opcode: "vector" (0xfd) 0x19e-0x19f (1)
0x190|                                             57|               W|                    v_opcode: "v128.load64_lane" (87) 0x19f-0x1a0 (1)
     |                                               |                |                    m{}: 0x1a0-0x1a2 (2)
0x1a0|03                                             |.               |                      a: 3 (valid) 0x1a0-0x1a1 (1)
0x1a0|   00                                          | .              |                      o: 0 (valid) 0x1a1-0x1a2 (1)
0x1a0|      00                                       |  .             |                    l: 0 0x1a2-0x1a3 (1)
     |                                               |                |                  [3]{}: in 0x1a3-0x1a4 (1)
0x1a0|         0b                                    |   .            |                    opcode: "end" (0xb) 0x1a3-0x1a4 (1)
     |                                               |                |            [3]{}: code 0x1a4-0x1b0 (12)
0x1a0|            0b                                 |    .           |              size: 11 (valid) 0x1a4-0x1a5 (1)
     |                                               |                |              code{}: 0x1a5-0x1b0 (11)
     |                                               |                |                t{}: 0x1a5-0x1a6 (1)
0x1a0|               00                              |     .          |                  n: 0 (valid) 0x1a5-0x1a6 (1)
     |                                               |                |                  x[0:0]: 0x1a6-0x1a6 (0)
     |                                               |                |                e[0:4]: 0x1a6-0x1b0 (10)
     |                                               |                |                  [0]{}: in 0x1a6-0x1a8 (2)
0x1a0|                  41                           |      A         |                    opcode: "i32.const" (0x41) 0x1a6-0x1a7 (1)
0x1a0|                     00                        |       .        |                    n: 0 (valid) 0x1a7-0x1a8 (1)
     |                                               |                |                  [1]{}: in 0x1a8-0x1aa (2)
0x1a0|                        20                     |                |                    opcode: "local.get" (0x20) 0x1a8-0x1a9 (1)
0x1a0|                           00                  |         .      |                    x: 0 (valid) 0x1a9-0x1aa (1)
     |                                               |                |                  [2]{}: in 0x1aa-0x1af (5)
0x1a0|                              fd               |          .     |                    opcode: "vector" (0xfd) 0x1aa-0x1ab (1)
0x1a0|                                 57            |           W    |                    v_opcode: "v128.load64_lane" (87) 0x1ab-0x1ac (1)
     |                                               |                |                    m{}: 0x1ac-0x1ae (2)
0x1a0|                                    03         |            .   |                      a: 3 (valid) 0x1ac-0x1ad (1)
0x1a0|                                       01      |             .  |                      o: 1 (valid) 0x1ad-0x1ae (1)
0x1a0|                                          01   |              . |                    l: 1 0x1ae-0x1af (1)
     |                                               |                |                  [3]{}: in 0x1af-0x1b0 (1)
0x1a0|                                             0b|               .|                    opcode: "end" (0xb) 0x1af-0x1b0 (1)
     |                                               |                |            [4]{}: code 0x1b0-0x1bc (12)
0x1b0|0b                                             |.               |              size: 11 (valid) 0x1b0-0x1b1 (1)
     |                                               |                |              code{}: 0x1b1-0x1bc (11)
     |                                               |                |                t{}: 0x1b1-0x1b2 (1)
0x1b0|   00                                          | .              |                  n: 0 (valid) 0x1b1-0x1b2 (1)
     |                                               |                |                  x[0:0]: 0x1b2-0x1b2 (0)
     |                                               |                |                e[0:4]: 0x1b2-0x1bc (10)
     |                                               |                |                  [0]{}: in 0x1b2-0x1b4 (2)
0x1b0|      20                                       |                |                    opcode: "local.get" (0x20) 0x1b2-0x1b3 (1)
0x1b0|         00                                    |   .            |                    x: 0 (valid) 0x1b3-0x1b4 (1)
     |                                               |                |                  [1]{}: in 0x1b4-0x1b6 (2)
0x1b0|            20                                 |                |                    opcode: "local.get" (0x20) 0x1b4-0x1b5 (1)
0x1b0|               01                              |     .          |                    x: 1 (valid) 0x1b5-0x1b6 (1)
     |                                               |                |                  [2]{}: in 0x1b6-0x1bb (5)
0x1b0|                  fd                           |      .         |                    opcode: "vector" (0xfd) 0x1b6-0x1b7 (1)
0x1b0|                     57                        |       W        |                    v_opcode: "v128.load64_lane" (87) 0x1b7-0x1b8 (1)
     |                                               |                |                    m{}: 0x1b8-0x1ba (2)
0x1b0|                        00                     |        .       |                      a: 0 (valid) 0x1b8-0x1b9 (1)
0x1b0|                           00                  |         .      |                      o: 0 (valid) 0x1b9-0x1ba (1)
0x1b0|                              00               |          .     |                    l: 0 0x1ba-0x1bb (1)
     |                                               |                |                  [3]{}: in 0x1bb-0x1bc (1)
0x1b0|                                 0b            |           .    |                    opcode: "end" (0xb) 0x1bb-0x1bc (1)
     |                                               |                |            [5]{}: code 0x1bc-0x1c8 (12)
0x1b0|                                    0b         |            .   |              size: 11 (valid) 0x1bc-0x1bd (1)
     |                                               |                |              code{}: 0x1bd-0x1c8 (11)
     |                                               |                |                t{}: 0x1bd-0x1be (1)
0x1b0|                                       00      |             .  |                  n: 0 (valid) 0x1bd-0x1be (1)
     |                                               |                |                  x[0:0]: 0x1be-0x1be (0)
     |                                               |                |                e[0:4]: 0x1be-0x1c8 (10)
     |                                               |                |                  [0]{}: in 0x1be-0x1c0 (2)
0x1b0|                                          20   |                |                    opcode: "local.get" (0x20) 0x1be-0x1bf (1)
0x1b0|                                             00|               .|                    x: 0 (valid) 0x1bf-0x1c0 (1)
     |                                               |                |                  [1]{}: in 0x1c0-0x1c2 (2)
0x1c0|20                                             |                |                    opcode: "local.get" (0x20) 0x1c0-0x1c1 (1)
0x1c0|   01                                          | .              |                    x: 1 (valid) 0x1c1-0x1c2 (1)
     |                                               |                |                  [2]{}: in 0x1c2-0x1c7 (5)
0x1c0|      fd                                       |  .             |                    opcode: "vector" (0xfd) 0x1c2-0x1c3 (1)
0x1c0|         57                                    |   W            |                    v_opcode: "v128.load64_lane" (87) 0x1c3-0x1c4 (1)
     |                                               |                |                    m{}: 0x1c4-0x1c6 (2)
0x1c0|            01                                 |    .           |                      a: 1 (valid) 0x1c4-0x1c5 (1)
0x1c0|               00                              |     .          |                      o: 0 (valid) 0x1c5-0x1c6 (1)
0x1c0|                  00                           |      .         |                    l: 0 0x1c6-0x1c7 (1)
     |                                               |                |                  [3]{}: in 0x1c7-0x1c8 (1)
0x1c0|                     0b                        |       .        |                    opcode: "end" (0xb) 0x1c7-0x1c8 (1)
     |                                               |                |            [6]{}: code 0x1c8-0x1d4 (12)
0x1c0|                        0b                     |        .       |              size: 11 (valid) 0x1c8-0x1c9 (1)
     |                                               |                |              code{}: 0x1c9-0x1d4 (11)
     |                                               |                |                t{}: 0x1c9-0x1ca (1)
0x1c0|                           00                  |         .      |                  n: 0 (valid) 0x1c9-0x1ca (1)
     |                                               |                |                  x[0:0]: 0x1ca-0x1ca (0)
     |                                               |                |                e[0:4]: 0x1ca-0x1d4 (10)
     |                                               |                |                  [0]{}: in 0x1ca-0x1cc (2)
0x1c0|                              20               |                |                    opcode: "local.get" (0x20) 0x1ca-0x1cb (1)
0x1c0|                                 00            |           .    |                    x: 0 (valid) 0x1cb-0x1cc (1)
     |                                               |                |                  [1]{}: in 0x1cc-0x1ce (2)
0x1c0|                                    20         |                |                    opcode: "local.get" (0x20) 0x1cc-0x1cd (1)
0x1c0|                                       01      |             .  |                    x: 1 (valid) 0x1cd-0x1ce (1)
     |                                               |                |                  [2]{}: in 0x1ce-0x1d3 (5)
0x1c0|                                          fd   |              . |                    opcode: "vector" (0xfd) 0x1ce-0x1cf (1)
0x1c0|                                             57|               W|                    v_opcode: "v128.load64_lane" (87) 0x1cf-0x1d0 (1)
     |                                               |                |                    m{}: 0x1d0-0x1d2 (2)
0x1d0|02                                             |.               |                      a: 2 (valid) 0x1d0-0x1d1 (1)
0x1d0|   00                                          | .              |                      o: 0 (valid) 0x1d1-0x1d2 (1)
0x1d0|      00                                       |  .             |                    l: 0 0x1d2-0x1d3 (1)
     |                                               |                |                  [3]{}: in 0x1d3-0x1d4 (1)
0x1d0|         0b                                    |   .            |                    opcode: "end" (0xb) 0x1d3-0x1d4 (1)
     |                                               |                |            [7]{}: code 0x1d4-0x1e0 (12)
0x1d0|            0b                                 |    .           |              size: 11 (valid) 0x1d4-0x1d5 (1)
     |                                               |                |              code{}: 0x1d5-0x1e0 (11)
     |                                               |                |                t{}: 0x1d5-0x1d6 (1)
0x1d0|               00                              |     .          |                  n: 0 (valid) 0x1d5-0x1d6 (1)
     |                                               |                |                  x[0:0]: 0x1d6-0x1d6 (0)
     |                                               |                |                e[0:4]: 0x1d6-0x1e0 (10)
     |                                               |                |                  [0]{}: in 0x1d6-0x1d8 (2)
0x1d0|                  20                           |                |                    opcode: "local.get" (0x20) 0x1d6-0x1d7 (1)
0x1d0|                     00                        |       .        |                    x: 0 (valid) 0x1d7-0x1d8 (1)
     |                                               |                |                  [1]{}: in 0x1d8-0x1da (2)
0x1d0|                        20                     |                |                    opcode: "local.get" (0x20) 0x1d8-0x1d9 (1)
0x1d0|                           01                  |         .      |                    x: 1 (valid) 0x1d9-0x1da (1)
     |                                               |                |                  [2]{}: in 0x1da-0x1df (5)
0x1d0|                              fd               |          .     |                    opcode: "vector" (0xfd) 0x1da-0x1db (1)
0x1d0|                                 57            |           W    |                    v_opcode: "v128.load64_lane" (87) 0x1db-0x1dc (1)
     |                                               |                |                    m{}: 0x1dc-0x1de (2)
0x1d0|                                    03         |            .   |                      a: 3 (valid) 0x1dc-0x1dd (1)
0x1d0|                                       00      |             .  |                      o: 0 (valid) 0x1dd-0x1de (1)
0x1d0|                                          00   |              . |                    l: 0 0x1de-0x1df (1)
     |                                               |                |                  [3]{}: in 0x1df-0x1e0 (1)
0x1d0|                                             0b|               .|                    opcode: "end" (0xb) 0x1df-0x1e0 (1)
     |                                               |                |            [8]{}: code 0x1e0-0x1ec (12)
0x1e0|0b                                             |.               |              size: 11 (valid) 0x1e0-0x1e1 (1)
     |                                               |                |              code{}: 0x1e1-0x1ec (11)
     |                                               |                |                t{}: 0x1e1-0x1e2 (1)
0x1e0|   00                                          | .              |                  n: 0 (valid) 0x1e1-0x1e2 (1)
     |                                               |                |                  x[0:0]: 0x1e2-0x1e2 (0)
     |                                               |                |                e[0:4]: 0x1e2-0x1ec (10)
     |                                               |                |                  [0]{}: in 0x1e2-0x1e4 (2)
0x1e0|      20                                       |                |                    opcode: "local.get" (0x20) 0x1e2-0x1e3 (1)
0x1e0|         00                                    |   .            |                    x: 0 (valid) 0x1e3-0x1e4 (1)
     |                                               |                |                  [1]{}: in 0x1e4-0x1e6 (2)
0x1e0|            20                                 |                |                    opcode: "local.get" (0x20) 0x1e4-0x1e5 (1)
0x1e0|               01                              |     .          |                    x: 1 (valid) 0x1e5-0x1e6 (1)
     |                                               |                |                  [2]{}: in 0x1e6-0x1eb (5)
0x1e0|                  fd                           |      .         |                    opcode: "vector" (0xfd) 0x1e6-0x1e7 (1)
0x1e0|                     57                        |       W        |                    v_opcode: "v128.load64_lane" (87) 0x1e7-0x1e8 (1)
     |                                               |                |                    m{}: 0x1e8-0x1ea (2)
0x1e0|                        00                     |        .       |                      a: 0 (valid) 0x1e8-0x1e9 (1)
0x1e0|                           00                  |         .      |                      o: 0 (valid) 0x1e9-0x1ea (1)
0x1e0|                              01               |          .     |                    l: 1 0x1ea-0x1eb (1)
     |                                               |                |                  [3]{}: in 0x1eb-0x1ec (1)
0x1e0|                                 0b            |           .    |                    opcode: "end" (0xb) 0x1eb-0x1ec (1)
     |                                               |                |            [9]{}: code 0x1ec-0x1f8 (12)
0x1e0|                                    0b         |            .   |              size: 11 (valid) 0x1ec-0x1ed (1)
     |                                               |                |              code{}: 0x1ed-0x1f8 (11)
     |                                               |                |                t{}: 0x1ed-0x1ee (1)
0x1e0|                                       00      |             .  |                  n: 0 (valid) 0x1ed-0x1ee (1)
     |                                               |                |                  x[0:0]: 0x1ee-0x1ee (0)
     |                                               |                |                e[0:4]: 0x1ee-0x1f8 (10)
     |                                               |                |                  [0]{}: in 0x1ee-0x1f0 (2)
0x1e0|                                          20   |                |                    opcode: "local.get" (0x20) 0x1ee-0x1ef (1)
0x1e0|                                             00|               .|                    x: 0 (valid) 0x1ef-0x1f0 (1)
     |                                               |                |                  [1]{}: in 0x1f0-0x1f2 (2)
0x1f0|20                                             |                |                    opcode: "local.get" (0x20) 0x1f0-0x1f1 (1)
0x1f0|   01                                          | .              |                    x: 1 (valid) 0x1f1-0x1f2 (1)
     |                                               |                |                  [2]{}: in 0x1f2-0x1f7 (5)
0x1f0|      fd                                       |  .             |                    opcode: "vector" (0xfd) 0x1f2-0x1f3 (1)
0x1f0|         57                                    |   W            |                    v_opcode: "v128.load64_lane" (87) 0x1f3-0x1f4 (1)
     |                                               |                |                    m{}: 0x1f4-0x1f6 (2)
0x1f0|            01                                 |    .           |                      a: 1 (valid) 0x1f4-0x1f5 (1)
0x1f0|               00                              |     .          |                      o: 0 (valid) 0x1f5-0x1f6 (1)
0x1f0|                  01                           |      .         |                    l: 1 0x1f6-0x1f7 (1)
     |                                               |                |                  [3]{}: in 0x1f7-0x1f8 (1)
0x1f0|                     0b                        |       .        |                    opcode: "end" (0xb) 0x1f7-0x1f8 (1)
     |                                               |                |            [10]{}: code 0x1f8-0x204 (12)
0x1f0|                        0b                     |        .       |              size: 11 (valid) 0x1f8-0x1f9 (1)
     |                                               |                |              code{}: 0x1f9-0x204 (11)
     |                                               |                |                t{}: 0x1f9-0x1fa (1)
0x1f0|                           00                  |         .      |                  n: 0 (valid) 0x1f9-0x1fa (1)
     |                                               |                |                  x[0:0]: 0x1fa-0x1fa (0)
     |                                               |                |                e[0:4]: 0x1fa-0x204 (10)
     |                                               |                |                  [0]{}: in 0x1fa-0x1fc (2)
0x1f0|                              20               |                |                    opcode: "local.get" (0x20) 0x1fa-0x1fb (1)
0x1f0|                                 00            |           .    |                    x: 0 (valid) 0x1fb-0x1fc (1)
     |                                               |                |                  [1]{}: in 0x1fc-0x1fe (2)
0x1f0|                                    20         |                |                    opcode: "local.get" (0x20) 0x1fc-0x1fd (1)
0x1f0|                                       01      |             .  |                    x: 1 (valid) 0x1fd-0x1fe (1)
     |                                               |                |                  [2]{}: in 0x1fe-0x203 (5)
0x1f0|                                          fd   |              . |                    opcode: "vector" (0xfd) 0x1fe-0x1ff (1)
0x1f0|                                             57|               W|                    v_opcode: "v128.load64_lane" (87) 0x1ff-0x200 (1)
     |                                               |                |                    m{}: 0x200-0x202 (2)
0x200|02                                             |.               |                      a: 2 (valid) 0x200-0x201 (1)
0x200|   00                                          | .              |                      o: 0 (valid) 0x201-0x202 (1)
0x200|      01                                       |  .             |                    l: 1 0x202-0x203 (1)
     |                                               |                |                  [3]{}: in 0x203-0x204 (1)
0x200|         0b                                    |   .            |                    opcode: "end" (0xb) 0x203-0x204 (1)
     |                                               |                |            [11]{}: code 0x204-0x210 (12)
0x200|            0b                                 |    .           |              size: 11 (valid) 0x204-0x205 (1)
     |                                               |                |              code{}: 0x205-0x210 (11)
     |                                               |                |                t{}: 0x205-0x206 (1)
0x200|               00                              |     .          |                  n: 0 (valid) 0x205-0x206 (1)
     |                                               |                |                  x[0:0]: 0x206-0x206 (0)
     |                                               |                |                e[0:4]: 0x206-0x210 (10)
     |                                               |                |                  [0]{}: in 0x206-0x208 (2)
0x200|                  20                           |                |                    opcode: "local.get" (0x20) 0x206-0x207 (1)
0x200|                     00                        |       .        |                    x: 0 (valid) 0x207-0x208 (1)
     |                                               |                |                  [1]{}: in 0x208-0x20a (2)
0x200|                        20                     |                |                    opcode: "local.get" (0x20) 0x208-0x209 (1)
0x200|                           01                  |         .      |                    x: 1 (valid) 0x209-0x20a (1)
     |                                               |                |                  [2]{}: in 0x20a-0x20f (5)
0x200|                              fd               |          .     |                    opcode: "vector" (0xfd) 0x20a-0x20b (1)
0x200|                                 57            |           W    |                    v_opcode: "v128.load64_lane" (87) 0x20b-0x20c (1)
     |                                               |                |                    m{}: 0x20c-0x20e (2)
0x200|                                    03         |            .   |                      a: 3 (valid) 0x20c-0x20d (1)
0x200|                                       00      |             .  |                      o: 0 (valid) 0x20d-0x20e (1)
0x200|                                          01   |              . |                    l: 1 0x20e-0x20f (1)
     |                                               |                |                  [3]{}: in 0x20f-0x210 (1)
0x200|                                             0b|               .|                    opcode: "end" (0xb) 0x20f-0x210 (1)
     |                                               |                |    [5]{}: section 0x210-0x228 (24)
0x210|0b                                             |.               |      id: "data_section" (11) 0x210-0x211 (1)
0x210|   16                                          | .              |      size: 22 (valid) 0x211-0x212 (1)
     |                                               |                |      content{}: 0x212-0x228 (22)
     |                                               |                |        seg{}: 0x212-0x228 (22)
0x210|      01                                       |  .             |          n: 1 (valid) 0x212-0x213 (1)
     |                                               |                |          x[0:1]: 0x213-0x228 (21)
     |                                               |                |            [0]{}: seg 0x213-0x228 (21)
0x210|         00                                    |   .            |              tag: 0 (valid) 0x213-0x214 (1)
     |                                               |                |              e[0:2]: 0x214-0x217 (3)
     |                                               |                |                [0]{}: in 0x214-0x216 (2)
0x210|            41                                 |    A           |                  opcode: "i32.const" (0x41) 0x214-0x215 (1)
0x210|               00                              |     .          |                  n: 0 (valid) 0x215-0x216 (1)
     |                                               |                |                [1]{}: in 0x216-0x217 (1)
0x210|                  0b                           |      .         |                  opcode: "end" (0xb) 0x216-0x217 (1)
     |                                               |                |              b{}: 0x217-0x228 (17)
0x210|                     10                        |       .        |                n: 16 (valid) 0x217-0x218 (1)
0x210|                        00 01 02 03 04 05 06 07|        ........|                x: raw bits 0x218-0x228 (16)
0x220|08 09 0a 0b 0c 0d 0e 0f|                       |........|       |
