$ fq -d wasm dv simd_f32x4_arith-1.wasm
    |00 01 02 03 04 05 06 07 08 09 0a 0b 0c 0d 0e 0f|0123456789abcdef|.{}: simd_f32x4_arith-1.wasm (wasm) 0x0-0x9b.7 (156)
0x00|00 61 73 6d                                    |.asm            |  magic: raw bits (valid) 0x0-0x3.7 (4)
0x00|            01 00 00 00                        |    ....        |  version: 1 0x4-0x7.7 (4)
    |                                               |                |  sections[0:4]: 0x8-0x9b.7 (148)
    |                                               |                |    [0]{}: section 0x8-0xe.7 (7)
0x00|                        01                     |        .       |      id: "type section" (1) 0x8-0x8.7 (1)
0x00|                           05                  |         .      |      size: 5 0x9-0x9.7 (1)
    |                                               |                |      content{}: 0xa-0xe.7 (5)
    |                                               |                |        ft{}: 0xa-0xe.7 (5)
0x00|                              01               |          .     |          n: 1 0xa-0xa.7 (1)
    |                                               |                |          x[0:1]: 0xb-0xe.7 (4)
    |                                               |                |            [0]{}: ft 0xb-0xe.7 (4)
0x00|                                 60            |           `    |              tag: 0x60 (valid) 0xb-0xb.7 (1)
    |                                               |                |              rt1{}: 0xc-0xc.7 (1)
0x00|                                    00         |            .   |                n: 0 0xc-0xc.7 (1)
    |                                               |                |                x[0:0]: 0xd-NA (0)
    |                                               |                |              rt2{}: 0xd-0xe.7 (2)
0x00|                                       01      |             .  |                n: 1 0xd-0xd.7 (1)
    |                                               |                |                x[0:1]: 0xe-0xe.7 (1)
0x00|                                          7b   |              { |                  [0]: "v128" (0x7b) t 0xe-0xe.7 (1)
    |                                               |                |    [1]{}: section 0xf-0x14.7 (6)
0x00|                                             03|               .|      id: "function section" (3) 0xf-0xf.7 (1)
0x10|04                                             |.               |      size: 4 0x10-0x10.7 (1)
    |                                               |                |      content{}: 0x11-0x14.7 (4)
    |                                               |                |        x{}: 0x11-0x14.7 (4)
0x10|   03                                          | .              |          n: 3 0x11-0x11.7 (1)
    |                                               |                |          x[0:3]: 0x12-0x14.7 (3)
0x10|      00                                       |  .             |            [0]: 0 x 0x12-0x12.7 (1)
0x10|         00                                    |   .            |            [1]: 0 x 0x13-0x13.7 (1)
0x10|            00                                 |    .           |            [2]: 0 x 0x14-0x14.7 (1)
    |                                               |                |    [2]{}: section 0x15-0x50.7 (60)
0x10|               07                              |     .          |      id: "export section" (7) 0x15-0x15.7 (1)
0x10|                  3a                           |      :         |      size: 58 0x16-0x16.7 (1)
    |                                               |                |      content{}: 0x17-0x50.7 (58)
    |                                               |                |        ex{}: 0x17-0x50.7 (58)
0x10|                     03                        |       .        |          n: 3 0x17-0x17.7 (1)
    |                                               |                |          x[0:3]: 0x18-0x50.7 (57)
    |                                               |                |            [0]{}: ex 0x18-0x2a.7 (19)
    |                                               |                |              nm{}: 0x18-0x28.7 (17)
0x10|                        10                     |        .       |                n: 16 0x18-0x18.7 (1)
0x10|                           66 33 32 78 34 5f 73|         f32x4_s|                b: "f32x4_sqrt_arith" 0x19-0x28.7 (16)
0x20|71 72 74 5f 61 72 69 74 68                     |qrt_arith       |
    |                                               |                |              d{}: 0x29-0x2a.7 (2)
0x20|                           00                  |         .      |                tag: "funcidx" (0x0) 0x29-0x29.7 (1)
0x20|                              00               |          .     |                x: 0 0x2a-0x2a.7 (1)
    |                                               |                |            [1]{}: ex 0x2b-0x3d.7 (19)
    |                                               |                |              nm{}: 0x2b-0x3b.7 (17)
0x20|                                 10            |           .    |                n: 16 0x2b-0x2b.7 (1)
0x20|                                    66 33 32 78|            f32x|                b: "f32x4_sqrt_canon" 0x2c-0x3b.7 (16)
0x30|34 5f 73 71 72 74 5f 63 61 6e 6f 6e            |4_sqrt_canon    |
    |                                               |                |              d{}: 0x3c-0x3d.7 (2)
0x30|                                    00         |            .   |                tag: "funcidx" (0x0) 0x3c-0x3c.7 (1)
0x30|                                       01      |             .  |                x: 1 0x3d-0x3d.7 (1)
    |                                               |                |            [2]{}: ex 0x3e-0x50.7 (19)
    |                                               |                |              nm{}: 0x3e-0x4e.7 (17)
0x30|                                          10   |              . |                n: 16 0x3e-0x3e.7 (1)
0x30|                                             66|               f|                b: "f32x4_sqrt_mixed" 0x3f-0x4e.7 (16)
0x40|33 32 78 34 5f 73 71 72 74 5f 6d 69 78 65 64   |32x4_sqrt_mixed |
    |                                               |                |              d{}: 0x4f-0x50.7 (2)
0x40|                                             00|               .|                tag: "funcidx" (0x0) 0x4f-0x4f.7 (1)
0x50|02                                             |.               |                x: 2 0x50-0x50.7 (1)
    |                                               |                |    [3]{}: section 0x51-0x9b.7 (75)
0x50|   0a                                          | .              |      id: "code section" (10) 0x51-0x51.7 (1)
0x50|      49                                       |  I             |      size: 73 0x52-0x52.7 (1)
    |                                               |                |      content{}: 0x53-0x9b.7 (73)
    |                                               |                |        code{}: 0x53-0x9b.7 (73)
0x50|         03                                    |   .            |          n: 3 0x53-0x53.7 (1)
    |                                               |                |          x[0:3]: 0x54-0x9b.7 (72)
    |                                               |                |            [0]{}: code 0x54-0x6b.7 (24)
0x50|            17                                 |    .           |              size: 23 0x54-0x54.7 (1)
    |                                               |                |              code{}: 0x55-0x6b.7 (23)
    |                                               |                |                t{}: 0x55-0x55.7 (1)
0x50|               00                              |     .          |                  n: 0 0x55-0x55.7 (1)
    |                                               |                |                  x[0:0]: 0x56-NA (0)
    |                                               |                |                e[0:3]: 0x56-0x6b.7 (22)
    |                                               |                |                  [0]{}: in 0x56-0x67.7 (18)
0x50|                  fd                           |      .         |                    prefix: 0xfd (valid) 0x56-0x56.7 (1)
0x50|                     0c                        |       .        |                    v128.const: 12 (valid) 0x57-0x57.7 (1)
0x50|                        00 00 a0 7f 00 00 a0 ff|        ........|                    bytes: raw bits 0x58-0x67.7 (16)
0x60|00 00 80 41 00 00 c8 41                        |...A...A        |
    |                                               |                |                  [1]{}: in 0x68-0x6a.7 (3)
0x60|                        fd                     |        .       |                    prefix: 0xfd (valid) 0x68-0x68.7 (1)
0x60|                           e3 01               |         ..     |                    f32x4.sqrt: 227 (valid) 0x69-0x6a.7 (2)
    |                                               |                |                  [2]{}: in 0x6b-0x6b.7 (1)
0x60|                                 0b            |           .    |                    end: 0xb (valid) 0x6b-0x6b.7 (1)
    |                                               |                |            [1]{}: code 0x6c-0x83.7 (24)
0x60|                                    17         |            .   |              size: 23 0x6c-0x6c.7 (1)
    |                                               |                |              code{}: 0x6d-0x83.7 (23)
    |                                               |                |                t{}: 0x6d-0x6d.7 (1)
0x60|                                       00      |             .  |                  n: 0 0x6d-0x6d.7 (1)
    |                                               |                |                  x[0:0]: 0x6e-NA (0)
    |                                               |                |                e[0:3]: 0x6e-0x83.7 (22)
    |                                               |                |                  [0]{}: in 0x6e-0x7f.7 (18)
0x60|                                          fd   |              . |                    prefix: 0xfd (valid) 0x6e-0x6e.7 (1)
0x60|                                             0c|               .|                    v128.const: 12 (valid) 0x6f-0x6f.7 (1)
0x70|00 00 80 bf 00 00 c0 7f 00 00 80 40 00 00 10 41|...........@...A|                    bytes: raw bits 0x70-0x7f.7 (16)
    |                                               |                |                  [1]{}: in 0x80-0x82.7 (3)
0x80|fd                                             |.               |                    prefix: 0xfd (valid) 0x80-0x80.7 (1)
0x80|   e3 01                                       | ..             |                    f32x4.sqrt: 227 (valid) 0x81-0x82.7 (2)
    |                                               |                |                  [2]{}: in 0x83-0x83.7 (1)
0x80|         0b                                    |   .            |                    end: 0xb (valid) 0x83-0x83.7 (1)
    |                                               |                |            [2]{}: code 0x84-0x9b.7 (24)
0x80|            17                                 |    .           |              size: 23 0x84-0x84.7 (1)
    |                                               |                |              code{}: 0x85-0x9b.7 (23)
    |                                               |                |                t{}: 0x85-0x85.7 (1)
0x80|               00                              |     .          |                  n: 0 0x85-0x85.7 (1)
    |                                               |                |                  x[0:0]: 0x86-NA (0)
    |                                               |                |                e[0:3]: 0x86-0x9b.7 (22)
    |                                               |                |                  [0]{}: in 0x86-0x97.7 (18)
0x80|                  fd                           |      .         |                    prefix: 0xfd (valid) 0x86-0x86.7 (1)
0x80|                     0c                        |       .        |                    v128.const: 12 (valid) 0x87-0x87.7 (1)
0x80|                        00 00 80 ff 00 00 a0 7f|        ........|                    bytes: raw bits 0x88-0x97.7 (16)
0x90|00 00 10 42 00 00 44 42                        |...B..DB        |
    |                                               |                |                  [1]{}: in 0x98-0x9a.7 (3)
0x90|                        fd                     |        .       |                    prefix: 0xfd (valid) 0x98-0x98.7 (1)
0x90|                           e3 01               |         ..     |                    f32x4.sqrt: 227 (valid) 0x99-0x9a.7 (2)
    |                                               |                |                  [2]{}: in 0x9b-0x9b.7 (1)
0x90|                                 0b|           |           .|   |                    end: 0xb (valid) 0x9b-0x9b.7 (1)
