$ fq -d wasm dv simd_i32x4_extadd_pairwise_i16x8-0.wasm
    |00 01 02 03 04 05 06 07 08 09 0a 0b 0c 0d 0e 0f|0123456789abcdef|.{}: simd_i32x4_extadd_pairwise_i16x8-0.wasm (wasm) 0x0-0x69 (105)
0x00|00 61 73 6d                                    |.asm            |  magic: raw bits (valid) 0x0-0x4 (4)
0x00|            01 00 00 00                        |    ....        |  version: 1 0x4-0x8 (4)
    |                                               |                |  sections[0:4]: 0x8-0x69 (97)
    |                                               |                |    [0]{}: section 0x8-0x10 (8)
0x00|                        01                     |        .       |      id: "type_section" (1) 0x8-0x9 (1)
0x00|                           06                  |         .      |      size: 6 (valid) 0x9-0xa (1)
    |                                               |                |      content{}: 0xa-0x10 (6)
    |                                               |                |        ft{}: 0xa-0x10 (6)
0x00|                              01               |          .     |          n: 1 (valid) 0xa-0xb (1)
    |                                               |                |          x[0:1]: 0xb-0x10 (5)
    |                                               |                |            [0]{}: ft 0xb-0x10 (5)
0x00|                                 60            |           `    |              tag: 0x60 (valid) 0xb-0xc (1)
    |                                               |                |              rt1{}: 0xc-0xe (2)
0x00|                                    01         |            .   |                n: 1 (valid) 0xc-0xd (1)
    |                                               |                |                x[0:1]: 0xd-0xe (1)
0x00|                                       7b      |             {  |                  [0]: "v128" (0x7b) t 0xd-0xe (1)
    |                                               |                |              rt2{}: 0xe-0x10 (2)
0x00|                                          01   |              . |                n: 1 (valid) 0xe-0xf (1)
    |                                               |                |                x[0:1]: 0xf-0x10 (1)
0x00|                                             7b|               {|                  [0]: "v128" (0x7b) t 0xf-0x10 (1)
    |                                               |                |    [1]{}: section 0x10-0x15 (5)
0x10|03                                             |.               |      id: "function_section" (3) 0x10-0x11 (1)
0x10|   03                                          | .              |      size: 3 (valid) 0x11-0x12 (1)
    |                                               |                |      content{}: 0x12-0x15 (3)
    |                                               |                |        x{}: 0x12-0x15 (3)
0x10|      02                                       |  .             |          n: 2 (valid) 0x12-0x13 (1)
    |                                               |                |          x[0:2]: 0x13-0x15 (2)
0x10|         00                                    |   .            |            [0]: 0 x (valid) 0x13-0x14 (1)
0x10|            00                                 |    .           |            [1]: 0 x (valid) 0x14-0x15 (1)
    |                                               |                |    [2]{}: section 0x15-0x58 (67)
0x10|               07                              |     .          |      id: "export_section" (7) 0x15-0x16 (1)
0x10|                  41                           |      A         |      size: 65 (valid) 0x16-0x17 (1)
    |                                               |                |      content{}: 0x17-0x58 (65)
    |                                               |                |        ex{}: 0x17-0x58 (65)
0x10|                     02                        |       .        |          n: 2 (valid) 0x17-0x18 (1)
    |                                               |                |          x[0:2]: 0x18-0x58 (64)
    |                                               |                |            [0]{}: ex 0x18-0x38 (32)
    |                                               |                |              nm{}: 0x18-0x36 (30)
0x10|                        1d                     |        .       |                n: 29 (valid) 0x18-0x19 (1)
0x10|                           69 33 32 78 34 2e 65|         i32x4.e|                b: "i32x4.extadd_pairwise_i16x8_s" 0x19-0x36 (29)
0x20|78 74 61 64 64 5f 70 61 69 72 77 69 73 65 5f 69|xtadd_pairwise_i|
0x30|31 36 78 38 5f 73                              |16x8_s          |
    |                                               |                |              d{}: 0x36-0x38 (2)
0x30|                  00                           |      .         |                tag: "funcidx" (0x0) 0x36-0x37 (1)
0x30|                     00                        |       .        |                x: 0 (valid) 0x37-0x38 (1)
    |                                               |                |            [1]{}: ex 0x38-0x58 (32)
    |                                               |                |              nm{}: 0x38-0x56 (30)
0x30|                        1d                     |        .       |                n: 29 (valid) 0x38-0x39 (1)
0x30|                           69 33 32 78 34 2e 65|         i32x4.e|                b: "i32x4.extadd_pairwise_i16x8_u" 0x39-0x56 (29)
0x40|78 74 61 64 64 5f 70 61 69 72 77 69 73 65 5f 69|xtadd_pairwise_i|
0x50|31 36 78 38 5f 75                              |16x8_u          |
    |                                               |                |              d{}: 0x56-0x58 (2)
0x50|                  00                           |      .         |                tag: "funcidx" (0x0) 0x56-0x57 (1)
0x50|                     01                        |       .        |                x: 1 (valid) 0x57-0x58 (1)
    |                                               |                |    [3]{}: section 0x58-0x69 (17)
0x50|                        0a                     |        .       |      id: "code_section" (10) 0x58-0x59 (1)
0x50|                           0f                  |         .      |      size: 15 (valid) 0x59-0x5a (1)
    |                                               |                |      content{}: 0x5a-0x69 (15)
    |                                               |                |        code{}: 0x5a-0x69 (15)
0x50|                              02               |          .     |          n: 2 (valid) 0x5a-0x5b (1)
    |                                               |                |          x[0:2]: 0x5b-0x69 (14)
    |                                               |                |            [0]{}: code 0x5b-0x62 (7)
0x50|                                 06            |           .    |              size: 6 (valid) 0x5b-0x5c (1)
    |                                               |                |              code{}: 0x5c-0x62 (6)
    |                                               |                |                t{}: 0x5c-0x5d (1)
0x50|                                    00         |            .   |                  n: 0 (valid) 0x5c-0x5d (1)
    |                                               |                |                  x[0:0]: 0x5d-0x5d (0)
    |                                               |                |                e[0:3]: 0x5d-0x62 (5)
    |                                               |                |                  [0]{}: in 0x5d-0x5f (2)
0x50|                                       20      |                |                    opcode: "local.get" (0x20) 0x5d-0x5e (1)
0x50|                                          00   |              . |                    x: 0 (valid) 0x5e-0x5f (1)
    |                                               |                |                  [1]{}: in 0x5f-0x61 (2)
0x50|                                             fd|               .|                    opcode: "vector" (0xfd) 0x5f-0x60 (1)
0x60|7e                                             |~               |                    v_opcode: "i32x4.extadd_pairwise_i16x8_s" (126) 0x60-0x61 (1)
    |                                               |                |                  [2]{}: in 0x61-0x62 (1)
0x60|   0b                                          | .              |                    opcode: "end" (0xb) 0x61-0x62 (1)
    |                                               |                |            [1]{}: code 0x62-0x69 (7)
0x60|      06                                       |  .             |              size: 6 (valid) 0x62-0x63 (1)
    |                                               |                |              code{}: 0x63-0x69 (6)
    |                                               |                |                t{}: 0x63-0x64 (1)
0x60|         00                                    |   .            |                  n: 0 (valid) 0x63-0x64 (1)
    |                                               |                |                  x[0:0]: 0x64-0x64 (0)
    |                                               |                |                e[0:3]: 0x64-0x69 (5)
    |                                               |                |                  [0]{}: in 0x64-0x66 (2)
0x60|            20                                 |                |                    opcode: "local.get" (0x20) 0x64-0x65 (1)
0x60|               00                              |     .          |                    x: 0 (valid) 0x65-0x66 (1)
    |                                               |                |                  [1]{}: in 0x66-0x68 (2)
0x60|                  fd                           |      .         |                    opcode: "vector" (0xfd) 0x66-0x67 (1)
0x60|                     7f                        |       .        |                    v_opcode: "i32x4.extadd_pairwise_i16x8_u" (127) 0x67-0x68 (1)
    |                                               |                |                  [2]{}: in 0x68-0x69 (1)
0x60|                        0b|                    |        .|      |                    opcode: "end" (0xb) 0x68-0x69 (1)
