$ fq -d wasm dv simd_i32x4_trunc_sat_f64x2-0.wasm
    |00 01 02 03 04 05 06 07 08 09 0a 0b 0c 0d 0e 0f|0123456789abcdef|.{}: simd_i32x4_trunc_sat_f64x2-0.wasm (wasm) 0x0-0x69 (105)
0x00|00 61 73 6d                                    |.asm            |  magic: raw bits (valid) 0x0-0x4 (4)
0x00|            01 00 00 00                        |    ....        |  version: 1 0x4-0x8 (4)
    |                                               |                |  sections[0:4]: 0x8-0x69 (97)
    |                                               |                |    [0]{}: section 0x8-0x10 (8)
0x00|                        01                     |        .       |      id: "type_section" (1) 0x8-0x9 (1)
0x00|                           06                  |         .      |      size: 6 (valid) 0x9-0xa (1)
    |                                               |                |      content{}: 0xa-0x10 (6)
    |                                               |                |        ft{}: 0xa-0x10 (6)
0x00|                              01               |          .     |          n: 1 (valid) 0xa-0xb (1)
    |                                               |                |          x[0:1]: 0xb-0x10 (5)
    |                                               |                |            [0]{}: ft 0xb-0x10 (5)
0x00|                                 60            |           `    |              tag: 0x60 (valid) 0xb-0xc (1)
    |                                               |                |              rt1{}: 0xc-0xe (2)
0x00|                                    01         |            .   |                n: 1 (valid) 0xc-0xd (1)
    |                                               |                |                x[0:1]: 0xd-0xe (1)
0x00|                                       7b      |             {  |                  [0]: "v128" (0x7b) t 0xd-0xe (1)
    |                                               |                |              rt2{}: 0xe-0x10 (2)
0x00|                                          01   |              . |                n: 1 (valid) 0xe-0xf (1)
    |                                               |                |                x[0:1]: 0xf-0x10 (1)
0x00|                                             7b|               {|                  [0]: "v128" (0x7b) t 0xf-0x10 (1)
    |                                               |                |    [1]{}: section 0x10-0x15 (5)
0x10|03                                             |.               |      id: "function_section" (3) 0x10-0x11 (1)
0x10|   03                                          | .              |      size: 3 (valid) 0x11-0x12 (1)
    |                                               |                |      content{}: 0x12-0x15 (3)
    |                                               |                |        x{}: 0x12-0x15 (3)
0x10|      02                                       |  .             |          n: 2 (valid) 0x12-0x13 (1)
    |                                               |                |          x[0:2]: 0x13-0x15 (2)
0x10|         00                                    |   .            |            [0]: 0 x (valid) 0x13-0x14 (1)
0x10|            00                                 |    .           |            [1]: 0 x (valid) 0x14-0x15 (1)
    |                                               |                |    [2]{}: section 0x15-0x56 (65)
0x10|               07                              |     .          |      id: "export_section" (7) 0x15-0x16 (1)
0x10|                  3f                           |      ?         |      size: 63 (valid) 0x16-0x17 (1)
    |                                               |                |      content{}: 0x17-0x56 (63)
    |                                               |                |        ex{}: 0x17-0x56 (63)
0x10|                     02                        |       .        |          n: 2 (valid) 0x17-0x18 (1)
    |                                               |                |          x[0:2]: 0x18-0x56 (62)
    |                                               |                |            [0]{}: ex 0x18-0x37 (31)
    |                                               |                |              nm{}: 0x18-0x35 (29)
0x10|                        1c                     |        .       |                n: 28 (valid) 0x18-0x19 (1)
0x10|                           69 33 32 78 34 2e 74|         i32x4.t|                b: "i32x4.trunc_sat_f64x2_s_zero" 0x19-0x35 (28)
0x20|72 75 6e 63 5f 73 61 74 5f 66 36 34 78 32 5f 73|runc_sat_f64x2_s|
0x30|5f 7a 65 72 6f                                 |_zero           |
    |                                               |                |              d{}: 0x35-0x37 (2)
0x30|               00                              |     .          |                tag: "funcidx" (0x0) 0x35-0x36 (1)
0x30|                  00                           |      .         |                x: 0 (valid) 0x36-0x37 (1)
    |                                               |                |            [1]{}: ex 0x37-0x56 (31)
    |                                               |                |              nm{}: 0x37-0x54 (29)
0x30|                     1c                        |       .        |                n: 28 (valid) 0x37-0x38 (1)
0x30|                        69 33 32 78 34 2e 74 72|        i32x4.tr|                b: "i32x4.trunc_sat_f64x2_u_zero" 0x38-0x54 (28)
0x40|75 6e 63 5f 73 61 74 5f 66 36 34 78 32 5f 75 5f|unc_sat_f64x2_u_|
0x50|7a 65 72 6f                                    |zero            |
    |                                               |                |              d{}: 0x54-0x56 (2)
0x50|            00                                 |    .           |                tag: "funcidx" (0x0) 0x54-0x55 (1)
0x50|               01                              |     .          |                x: 1 (valid) 0x55-0x56 (1)
    |                                               |                |    [3]{}: section 0x56-0x69 (19)
0x50|                  0a                           |      .         |      id: "code_section" (10) 0x56-0x57 (1)
0x50|                     11                        |       .        |      size: 17 (valid) 0x57-0x58 (1)
    |                                               |                |      content{}: 0x58-0x69 (17)
    |                                               |                |        code{}: 0x58-0x69 (17)
0x50|                        02                     |        .       |          n: 2 (valid) 0x58-0x59 (1)
    |                                               |                |          x[0:2]: 0x59-0x69 (16)
    |                                               |                |            [0]{}: code 0x59-0x61 (8)
0x50|                           07                  |         .      |              size: 7 (valid) 0x59-0x5a (1)
    |                                               |                |              code{}: 0x5a-0x61 (7)
    |                                               |                |                t{}: 0x5a-0x5b (1)
0x50|                              00               |          .     |                  n: 0 (valid) 0x5a-0x5b (1)
    |                                               |                |                  x[0:0]: 0x5b-0x5b (0)
    |                                               |                |                e[0:3]: 0x5b-0x61 (6)
    |                                               |                |                  [0]{}: in 0x5b-0x5d (2)
0x50|                                 20            |                |                    opcode: "local.get" (0x20) 0x5b-0x5c (1)
0x50|                                    00         |            .   |                    x: 0 (valid) 0x5c-0x5d (1)
    |                                               |                |                  [1]{}: in 0x5d-0x60 (3)
0x50|                                       fd      |             .  |                    opcode: "vector" (0xfd) 0x5d-0x5e (1)
0x50|                                          fc 01|              ..|                    v_opcode: "i32x4.trunc_sat_f64x2_s_zero" (252) 0x5e-0x60 (2)
    |                                               |                |                  [2]{}: in 0x60-0x61 (1)
0x60|0b                                             |.               |                    opcode: "end" (0xb) 0x60-0x61 (1)
    |                                               |                |            [1]{}: code 0x61-0x69 (8)
0x60|   07                                          | .              |              size: 7 (valid) 0x61-0x62 (1)
    |                                               |                |              code{}: 0x62-0x69 (7)
    |                                               |                |                t{}: 0x62-0x63 (1)
0x60|      00                                       |  .             |                  n: 0 (valid) 0x62-0x63 (1)
    |                                               |                |                  x[0:0]: 0x63-0x63 (0)
    |                                               |                |                e[0:3]: 0x63-0x69 (6)
    |                                               |                |                  [0]{}: in 0x63-0x65 (2)
0x60|         20                                    |                |                    opcode: "local.get" (0x20) 0x63-0x64 (1)
0x60|            00                                 |    .           |                    x: 0 (valid) 0x64-0x65 (1)
    |                                               |                |                  [1]{}: in 0x65-0x68 (3)
0x60|               fd                              |     .          |                    opcode: "vector" (0xfd) 0x65-0x66 (1)
0x60|                  fd 01                        |      ..        |                    v_opcode: "i32x4.trunc_sat_f64x2_u_zero" (253) 0x66-0x68 (2)
    |                                               |                |                  [2]{}: in 0x68-0x69 (1)
0x60|                        0b|                    |        .|      |                    opcode: "end" (0xb) 0x68-0x69 (1)
