$ fq -d wasm dv simd_boolean-1.wasm
     |00 01 02 03 04 05 06 07 08 09 0a 0b 0c 0d 0e 0f|0123456789abcdef|.{}: simd_boolean-1.wasm (wasm) 0x0-0xc5b (3163)
0x000|00 61 73 6d                                    |.asm            |  magic: raw bits (valid) 0x0-0x4 (4)
0x000|            01 00 00 00                        |    ....        |  version: 1 0x4-0x8 (4)
     |                                               |                |  sections[0:5]: 0x8-0xc5b (3155)
     |                                               |                |    [0]{}: section 0x8-0x1d (21)
0x000|                        01                     |        .       |      id: "type_section" (1) 0x8-0x9 (1)
0x000|                           13                  |         .      |      size: 19 (valid) 0x9-0xa (1)
     |                                               |                |      content{}: 0xa-0x1d (19)
     |                                               |                |        ft{}: 0xa-0x1d (19)
0x000|                              03               |          .     |          n: 3 (valid) 0xa-0xb (1)
     |                                               |                |          x[0:3]: 0xb-0x1d (18)
     |                                               |                |            [0]{}: ft 0xb-0x10 (5)
0x000|                                 60            |           `    |              tag: 0x60 (valid) 0xb-0xc (1)
     |                                               |                |              rt1{}: 0xc-0xe (2)
0x000|                                    01         |            .   |                n: 1 (valid) 0xc-0xd (1)
     |                                               |                |                x[0:1]: 0xd-0xe (1)
0x000|                                       7b      |             {  |                  [0]: "v128" (0x7b) t 0xd-0xe (1)
     |                                               |                |              rt2{}: 0xe-0x10 (2)
0x000|                                          01   |              . |                n: 1 (valid) 0xe-0xf (1)
     |                                               |                |                x[0:1]: 0xf-0x10 (1)
0x000|                                             7f|               .|                  [0]: "i32" (0x7f) t 0xf-0x10 (1)
     |                                               |                |            [1]{}: ft 0x10-0x16 (6)
0x010|60                                             |`               |              tag: 0x60 (valid) 0x10-0x11 (1)
     |                                               |                |              rt1{}: 0x11-0x14 (3)
0x010|   02                                          | .              |                n: 2 (valid) 0x11-0x12 (1)
     |                                               |                |                x[0:2]: 0x12-0x14 (2)
0x010|      7b                                       |  {             |                  [0]: "v128" (0x7b) t 0x12-0x13 (1)
0x010|         7b                                    |   {            |                  [1]: "v128" (0x7b) t 0x13-0x14 (1)
     |                                               |                |              rt2{}: 0x14-0x16 (2)
0x010|            01                                 |    .           |                n: 1 (valid) 0x14-0x15 (1)
     |                                               |                |                x[0:1]: 0x15-0x16 (1)
0x010|               7f                              |     .          |                  [0]: "i32" (0x7f) t 0x15-0x16 (1)
     |                                               |                |            [2]{}: ft 0x16-0x1d (7)
0x010|                  60                           |      `         |              tag: 0x60 (valid) 0x16-0x17 (1)
     |                                               |                |              rt1{}: 0x17-0x1b (4)
0x010|                     03                        |       .        |                n: 3 (valid) 0x17-0x18 (1)
     |                                               |                |                x[0:3]: 0x18-0x1b (3)
0x010|                        7b                     |        {       |                  [0]: "v128" (0x7b) t 0x18-0x19 (1)
0x010|                           7b                  |         {      |                  [1]: "v128" (0x7b) t 0x19-0x1a (1)
0x010|                              7b               |          {     |                  [2]: "v128" (0x7b) t 0x1a-0x1b (1)
     |                                               |                |              rt2{}: 0x1b-0x1d (2)
0x010|                                 01            |           .    |                n: 1 (valid) 0x1b-0x1c (1)
     |                                               |                |                x[0:1]: 0x1c-0x1d (1)
0x010|                                    7f         |            .   |                  [0]: "i32" (0x7f) t 0x1c-0x1d (1)
     |                                               |                |    [1]{}: section 0x1d-0x62 (69)
0x010|                                       03      |             .  |      id: "function_section" (3) 0x1d-0x1e (1)
0x010|                                          43   |              C |      size: 67 (valid) 0x1e-0x1f (1)
     |                                               |                |      content{}: 0x1f-0x62 (67)
     |                                               |                |        x{}: 0x1f-0x62 (67)
0x010|                                             42|               B|          n: 66 (valid) 0x1f-0x20 (1)
     |                                               |                |          x[0:66]: 0x20-0x62 (66)
0x020|00                                             |.               |            [0]: 0 x (valid) 0x20-0x21 (1)
0x020|   00                                          | .              |            [1]: 0 x (valid) 0x21-0x22 (1)
0x020|      00                                       |  .             |            [2]: 0 x (valid) 0x22-0x23 (1)
0x020|         00                                    |   .            |            [3]: 0 x (valid) 0x23-0x24 (1)
0x020|            00                                 |    .           |            [4]: 0 x (valid) 0x24-0x25 (1)
0x020|               00                              |     .          |            [5]: 0 x (valid) 0x25-0x26 (1)
0x020|                  00                           |      .         |            [6]: 0 x (valid) 0x26-0x27 (1)
0x020|                     00                        |       .        |            [7]: 0 x (valid) 0x27-0x28 (1)
0x020|                        00                     |        .       |            [8]: 0 x (valid) 0x28-0x29 (1)
0x020|                           00                  |         .      |            [9]: 0 x (valid) 0x29-0x2a (1)
0x020|                              00               |          .     |            [10]: 0 x (valid) 0x2a-0x2b (1)
0x020|                                 00            |           .    |            [11]: 0 x (valid) 0x2b-0x2c (1)
0x020|                                    00         |            .   |            [12]: 0 x (valid) 0x2c-0x2d (1)
0x020|                                       00      |             .  |            [13]: 0 x (valid) 0x2d-0x2e (1)
0x020|                                          00   |              . |            [14]: 0 x (valid) 0x2e-0x2f (1)
0x020|                                             00|               .|            [15]: 0 x (valid) 0x2f-0x30 (1)
0x030|00                                             |.               |            [16]: 0 x (valid) 0x30-0x31 (1)
0x030|   00                                          | .              |            [17]: 0 x (valid) 0x31-0x32 (1)
0x030|      01                                       |  .             |            [18]: 1 x (valid) 0x32-0x33 (1)
0x030|         01                                    |   .            |            [19]: 1 x (valid) 0x33-0x34 (1)
0x030|            01                                 |    .           |            [20]: 1 x (valid) 0x34-0x35 (1)
0x030|               01                              |     .          |            [21]: 1 x (valid) 0x35-0x36 (1)
0x030|                  01                           |      .         |            [22]: 1 x (valid) 0x36-0x37 (1)
0x030|                     01                        |       .        |            [23]: 1 x (valid) 0x37-0x38 (1)
0x030|                        01                     |        .       |            [24]: 1 x (valid) 0x38-0x39 (1)
0x030|                           01                  |         .      |            [25]: 1 x (valid) 0x39-0x3a (1)
0x030|                              01               |          .     |            [26]: 1 x (valid) 0x3a-0x3b (1)
0x030|                                 01            |           .    |            [27]: 1 x (valid) 0x3b-0x3c (1)
0x030|                                    01         |            .   |            [28]: 1 x (valid) 0x3c-0x3d (1)
0x030|                                       01      |             .  |            [29]: 1 x (valid) 0x3d-0x3e (1)
0x030|                                          01   |              . |            [30]: 1 x (valid) 0x3e-0x3f (1)
0x030|                                             01|               .|            [31]: 1 x (valid) 0x3f-0x40 (1)
0x040|01                                             |.               |            [32]: 1 x (valid) 0x40-0x41 (1)
0x040|   01                                          | .              |            [33]: 1 x (valid) 0x41-0x42 (1)
0x040|      01                                       |  .             |            [34]: 1 x (valid) 0x42-0x43 (1)
0x040|         01                                    |   .            |            [35]: 1 x (valid) 0x43-0x44 (1)
0x040|            00                                 |    .           |            [36]: 0 x (valid) 0x44-0x45 (1)
0x040|               00                              |     .          |            [37]: 0 x (valid) 0x45-0x46 (1)
0x040|                  00                           |      .         |            [38]: 0 x (valid) 0x46-0x47 (1)
0x040|                     01                        |       .        |            [39]: 1 x (valid) 0x47-0x48 (1)
0x040|                        01                     |        .       |            [40]: 1 x (valid) 0x48-0x49 (1)
0x040|                           01                  |         .      |            [41]: 1 x (valid) 0x49-0x4a (1)
0x040|                              01               |          .     |            [42]: 1 x (valid) 0x4a-0x4b (1)
0x040|                                 01            |           .    |            [43]: 1 x (valid) 0x4b-0x4c (1)
0x040|                                    01         |            .   |            [44]: 1 x (valid) 0x4c-0x4d (1)
0x040|                                       01      |             .  |            [45]: 1 x (valid) 0x4d-0x4e (1)
0x040|                                          01   |              . |            [46]: 1 x (valid) 0x4e-0x4f (1)
0x040|                                             01|               .|            [47]: 1 x (valid) 0x4f-0x50 (1)
0x050|02                                             |.               |            [48]: 2 x (valid) 0x50-0x51 (1)
0x050|   02                                          | .              |            [49]: 2 x (valid) 0x51-0x52 (1)
0x050|      02                                       |  .             |            [50]: 2 x (valid) 0x52-0x53 (1)
0x050|         00                                    |   .            |            [51]: 0 x (valid) 0x53-0x54 (1)
0x050|            00                                 |    .           |            [52]: 0 x (valid) 0x54-0x55 (1)
0x050|               00                              |     .          |            [53]: 0 x (valid) 0x55-0x56 (1)
0x050|                  01                           |      .         |            [54]: 1 x (valid) 0x56-0x57 (1)
0x050|                     01                        |       .        |            [55]: 1 x (valid) 0x57-0x58 (1)
0x050|                        01                     |        .       |            [56]: 1 x (valid) 0x58-0x59 (1)
0x050|                           01                  |         .      |            [57]: 1 x (valid) 0x59-0x5a (1)
0x050|                              01               |          .     |            [58]: 1 x (valid) 0x5a-0x5b (1)
0x050|                                 01            |           .    |            [59]: 1 x (valid) 0x5b-0x5c (1)
0x050|                                    01         |            .   |            [60]: 1 x (valid) 0x5c-0x5d (1)
0x050|                                       01      |             .  |            [61]: 1 x (valid) 0x5d-0x5e (1)
0x050|                                          01   |              . |            [62]: 1 x (valid) 0x5e-0x5f (1)
0x050|                                             02|               .|            [63]: 2 x (valid) 0x5f-0x60 (1)
0x060|02                                             |.               |            [64]: 2 x (valid) 0x60-0x61 (1)
0x060|   02                                          | .              |            [65]: 2 x (valid) 0x61-0x62 (1)
     |                                               |                |    [2]{}: section 0x62-0x67 (5)
0x060|      05                                       |  .             |      id: "memory_section" (5) 0x62-0x63 (1)
0x060|         03                                    |   .            |      size: 3 (valid) 0x63-0x64 (1)
     |                                               |                |      content{}: 0x64-0x67 (3)
     |                                               |                |        mem{}: 0x64-0x67 (3)
0x060|            01                                 |    .           |          n: 1 (valid) 0x64-0x65 (1)
     |                                               |                |          x[0:1]: 0x65-0x67 (2)
     |                                               |                |            [0]{}: mem 0x65-0x67 (2)
     |                                               |                |              lim{}: 0x65-0x67 (2)
0x060|               00                              |     .          |                tag: 0x0 0x65-0x66 (1)
0x060|                  01                           |      .         |                n: 1 (valid) 0x66-0x67 (1)
     |                                               |                |    [3]{}: section 0x67-0x8cf (2152)
0x060|                     07                        |       .        |      id: "export_section" (7) 0x67-0x68 (1)
0x060|                        e5 10                  |        ..      |      size: 2149 (valid) 0x68-0x6a (2)
     |                                               |                |      content{}: 0x6a-0x8cf (2149)
     |                                               |                |        ex{}: 0x6a-0x8cf (2149)
0x060|                              42               |          B     |          n: 66 (valid) 0x6a-0x6b (1)
     |                                               |                |          x[0:66]: 0x6b-0x8cf (2148)
     |                                               |                |            [0]{}: ex 0x6b-0x87 (28)
     |                                               |                |              nm{}: 0x6b-0x85 (26)
0x060|                                 19            |           .    |                n: 25 (valid) 0x6b-0x6c (1)
0x060|                                    69 38 78 31|            i8x1|                b: "i8x16_any_true_as_if_cond" 0x6c-0x85 (25)
0x070|36 5f 61 6e 79 5f 74 72 75 65 5f 61 73 5f 69 66|6_any_true_as_if|
0x080|5f 63 6f 6e 64                                 |_cond           |
     |                                               |                |              d{}: 0x85-0x87 (2)
0x080|               00                              |     .          |                tag: "funcidx" (0x0) 0x85-0x86 (1)
0x080|                  00                           |      .         |                x: 0 (valid) 0x86-0x87 (1)
     |                                               |                |            [1]{}: ex 0x87-0xa3 (28)
     |                                               |                |              nm{}: 0x87-0xa1 (26)
0x080|                     19                        |       .        |                n: 25 (valid) 0x87-0x88 (1)
0x080|                        69 31 36 78 38 5f 61 6e|        i16x8_an|                b: "i16x8_any_true_as_if_cond" 0x88-0xa1 (25)
0x090|79 5f 74 72 75 65 5f 61 73 5f 69 66 5f 63 6f 6e|y_true_as_if_con|
0x0a0|64                                             |d               |
     |                                               |                |              d{}: 0xa1-0xa3 (2)
0x0a0|   00                                          | .              |                tag: "funcidx" (0x0) 0xa1-0xa2 (1)
0x0a0|      01                                       |  .             |                x: 1 (valid) 0xa2-0xa3 (1)
     |                                               |                |            [2]{}: ex 0xa3-0xbf (28)
     |                                               |                |              nm{}: 0xa3-0xbd (26)
0x0a0|         19                                    |   .            |                n: 25 (valid) 0xa3-0xa4 (1)
0x0a0|            69 33 32 78 34 5f 61 6e 79 5f 74 72|    i32x4_any_tr|                b: "i32x4_any_true_as_if_cond" 0xa4-0xbd (25)
0x0b0|75 65 5f 61 73 5f 69 66 5f 63 6f 6e 64         |ue_as_if_cond   |
     |                                               |                |              d{}: 0xbd-0xbf (2)
0x0b0|                                       00      |             .  |                tag: "funcidx" (0x0) 0xbd-0xbe (1)
0x0b0|                                          02   |              . |                x: 2 (valid) 0xbe-0xbf (1)
     |                                               |                |            [3]{}: ex 0xbf-0xdb (28)
     |                                               |                |              nm{}: 0xbf-0xd9 (26)
0x0b0|                                             19|               .|                n: 25 (valid) 0xbf-0xc0 (1)
0x0c0|69 38 78 31 36 5f 61 6c 6c 5f 74 72 75 65 5f 61|i8x16_all_true_a|                b: "i8x16_all_true_as_if_cond" 0xc0-0xd9 (25)
0x0d0|73 5f 69 66 5f 63 6f 6e 64                     |s_if_cond       |
     |                                               |                |              d{}: 0xd9-0xdb (2)
0x0d0|                           00                  |         .      |                tag: "funcidx" (0x0) 0xd9-0xda (1)
0x0d0|                              03               |          .     |                x: 3 (valid) 0xda-0xdb (1)
     |                                               |                |            [4]{}: ex 0xdb-0xf7 (28)
     |                                               |                |              nm{}: 0xdb-0xf5 (26)
0x0d0|                                 19            |           .    |                n: 25 (valid) 0xdb-0xdc (1)
0x0d0|                                    69 31 36 78|            i16x|                b: "i16x8_all_true_as_if_cond" 0xdc-0xf5 (25)
0x0e0|38 5f 61 6c 6c 5f 74 72 75 65 5f 61 73 5f 69 66|8_all_true_as_if|
0x0f0|5f 63 6f 6e 64                                 |_cond           |
     |                                               |                |              d{}: 0xf5-0xf7 (2)
0x0f0|               00                              |     .          |                tag: "funcidx" (0x0) 0xf5-0xf6 (1)
0x0f0|                  04                           |      .         |                x: 4 (valid) 0xf6-0xf7 (1)
     |                                               |                |            [5]{}: ex 0xf7-0x113 (28)
     |                                               |                |              nm{}: 0xf7-0x111 (26)
0x0f0|                     19                        |       .        |                n: 25 (valid) 0xf7-0xf8 (1)
0x0f0|                        69 33 32 78 34 5f 61 6c|        i32x4_al|                b: "i32x4_all_true_as_if_cond" 0xf8-0x111 (25)
0x100|6c 5f 74 72 75 65 5f 61 73 5f 69 66 5f 63 6f 6e|l_true_as_if_con|
0x110|64                                             |d               |
     |                                               |                |              d{}: 0x111-0x113 (2)
0x110|   00                                          | .              |                tag: "funcidx" (0x0) 0x111-0x112 (1)
0x110|      05                                       |  .             |                x: 5 (valid) 0x112-0x113 (1)
     |                                               |                |            [6]{}: ex 0x113-0x133 (32)
     |                                               |                |              nm{}: 0x113-0x131 (30)
0x110|         1d                                    |   .            |                n: 29 (valid) 0x113-0x114 (1)
0x110|            69 38 78 31 36 5f 61 6e 79 5f 74 72|    i8x16_any_tr|                b: "i8x16_any_true_as_select_cond" 0x114-0x131 (29)
0x120|75 65 5f 61 73 5f 73 65 6c 65 63 74 5f 63 6f 6e|ue_as_select_con|
0x130|64                                             |d               |
     |                                               |                |              d{}: 0x131-0x133 (2)
0x130|   00                                          | .              |                tag: "funcidx" (0x0) 0x131-0x132 (1)
0x130|      06                                       |  .             |                x: 6 (valid) 0x132-0x133 (1)
     |                                               |                |            [7]{}: ex 0x133-0x153 (32)
     |                                               |                |              nm{}: 0x133-0x151 (30)
0x130|         1d                                    |   .            |                n: 29 (valid) 0x133-0x134 (1)
0x130|            69 31 36 78 38 5f 61 6e 79 5f 74 72|    i16x8_any_tr|                b: "i16x8_any_true_as_select_cond" 0x134-0x151 (29)
0x140|75 65 5f 61 73 5f 73 65 6c 65 63 74 5f 63 6f 6e|ue_as_select_con|
0x150|64                                             |d               |
     |                                               |                |              d{}: 0x151-0x153 (2)
0x150|   00                                          | .              |                tag: "funcidx" (0x0) 0x151-0x152 (1)
0x150|      07                                       |  .             |                x: 7 (valid) 0x152-0x153 (1)
     |                                               |                |            [8]{}: ex 0x153-0x173 (32)
     |                                               |                |              nm{}: 0x153-0x171 (30)
0x150|         1d                                    |   .            |                n: 29 (valid) 0x153-0x154 (1)
0x150|            69 33 32 78 34 5f 61 6e 79 5f 74 72|    i32x4_any_tr|                b: "i32x4_any_true_as_select_cond" 0x154-0x171 (29)
0x160|75 65 5f 61 73 5f 73 65 6c 65 63 74 5f 63 6f 6e|ue_as_select_con|
0x170|64                                             |d               |
     |                                               |                |              d{}: 0x171-0x173 (2)
0x170|   00                                          | .              |                tag: "funcidx" (0x0) 0x171-0x172 (1)
0x170|      08                                       |  .             |                x: 8 (valid) 0x172-0x173 (1)
     |                                               |                |            [9]{}: ex 0x173-0x193 (32)
     |                                               |                |              nm{}: 0x173-0x191 (30)
0x170|         1d                                    |   .            |                n: 29 (valid) 0x173-0x174 (1)
0x170|            69 38 78 31 36 5f 61 6c 6c 5f 74 72|    i8x16_all_tr|                b: "i8x16_all_true_as_select_cond" 0x174-0x191 (29)
0x180|75 65 5f 61 73 5f 73 65 6c 65 63 74 5f 63 6f 6e|ue_as_select_con|
0x190|64                                             |d               |
     |                                               |                |              d{}: 0x191-0x193 (2)
0x190|   00                                          | .              |                tag: "funcidx" (0x0) 0x191-0x192 (1)
0x190|      09                                       |  .             |                x: 9 (valid) 0x192-0x193 (1)
     |                                               |                |            [10]{}: ex 0x193-0x1b3 (32)
     |                                               |                |              nm{}: 0x193-0x1b1 (30)
0x190|         1d                                    |   .            |                n: 29 (valid) 0x193-0x194 (1)
0x190|            69 31 36 78 38 5f 61 6c 6c 5f 74 72|    i16x8_all_tr|                b: "i16x8_all_true_as_select_cond" 0x194-0x1b1 (29)
0x1a0|75 65 5f 61 73 5f 73 65 6c 65 63 74 5f 63 6f 6e|ue_as_select_con|
0x1b0|64                                             |d               |
     |                                               |                |              d{}: 0x1b1-0x1b3 (2)
0x1b0|   00                                          | .              |                tag: "funcidx" (0x0) 0x1b1-0x1b2 (1)
0x1b0|      0a                                       |  .             |                x: 10 (valid) 0x1b2-0x1b3 (1)
     |                                               |                |            [11]{}: ex 0x1b3-0x1d3 (32)
     |                                               |                |              nm{}: 0x1b3-0x1d1 (30)
0x1b0|         1d                                    |   .            |                n: 29 (valid) 0x1b3-0x1b4 (1)
0x1b0|            69 33 32 78 34 5f 61 6c 6c 5f 74 72|    i32x4_all_tr|                b: "i32x4_all_true_as_select_cond" 0x1b4-0x1d1 (29)
0x1c0|75 65 5f 61 73 5f 73 65 6c 65 63 74 5f 63 6f 6e|ue_as_select_con|
0x1d0|64                                             |d               |
     |                                               |                |              d{}: 0x1d1-0x1d3 (2)
0x1d0|   00                                          | .              |                tag: "funcidx" (0x0) 0x1d1-0x1d2 (1)
0x1d0|      0b                                       |  .             |                x: 11 (valid) 0x1d2-0x1d3 (1)
     |                                               |                |            [12]{}: ex 0x1d3-0x1f2 (31)
     |                                               |                |              nm{}: 0x1d3-0x1f0 (29)
0x1d0|         1c                                    |   .            |                n: 28 (valid) 0x1d3-0x1d4 (1)
0x1d0|            69 38 78 31 36 5f 61 6e 79 5f 74 72|    i8x16_any_tr|                b: "i8x16_any_true_as_br_if_cond" 0x1d4-0x1f0 (28)
0x1e0|75 65 5f 61 73 5f 62 72 5f 69 66 5f 63 6f 6e 64|ue_as_br_if_cond|
     |                                               |                |              d{}: 0x1f0-0x1f2 (2)
0x1f0|00                                             |.               |                tag: "funcidx" (0x0) 0x1f0-0x1f1 (1)
0x1f0|   0c                                          | .              |                x: 12 (valid) 0x1f1-0x1f2 (1)
     |                                               |                |            [13]{}: ex 0x1f2-0x211 (31)
     |                                               |                |              nm{}: 0x1f2-0x20f (29)
0x1f0|      1c                                       |  .             |                n: 28 (valid) 0x1f2-0x1f3 (1)
0x1f0|         69 31 36 78 38 5f 61 6e 79 5f 74 72 75|   i16x8_any_tru|                b: "i16x8_any_true_as_br_if_cond" 0x1f3-0x20f (28)
0x200|65 5f 61 73 5f 62 72 5f 69 66 5f 63 6f 6e 64   |e_as_br_if_cond |
     |                                               |                |              d{}: 0x20f-0x211 (2)
0x200|                                             00|               .|                tag: "funcidx" (0x0) 0x20f-0x210 (1)
0x210|0d                                             |.               |                x: 13 (valid) 0x210-0x211 (1)
     |                                               |                |            [14]{}: ex 0x211-0x230 (31)
     |                                               |                |              nm{}: 0x211-0x22e (29)
0x210|   1c                                          | .              |                n: 28 (valid) 0x211-0x212 (1)
0x210|      69 33 32 78 34 5f 61 6e 79 5f 74 72 75 65|  i32x4_any_true|                b: "i32x4_any_true_as_br_if_cond" 0x212-0x22e (28)
0x220|5f 61 73 5f 62 72 5f 69 66 5f 63 6f 6e 64      |_as_br_if_cond  |
     |                                               |                |              d{}: 0x22e-0x230 (2)
0x220|                                          00   |              . |                tag: "funcidx" (0x0) 0x22e-0x22f (1)
0x220|                                             0e|               .|                x: 14 (valid) 0x22f-0x230 (1)
     |                                               |                |            [15]{}: ex 0x230-0x24f (31)
     |                                               |                |              nm{}: 0x230-0x24d (29)
0x230|1c                                             |.               |                n: 28 (valid) 0x230-0x231 (1)
0x230|   69 38 78 31 36 5f 61 6c 6c 5f 74 72 75 65 5f| i8x16_all_true_|                b: "i8x16_all_true_as_br_if_cond" 0x231-0x24d (28)
0x240|61 73 5f 62 72 5f 69 66 5f 63 6f 6e 64         |as_br_if_cond   |
     |                                               |                |              d{}: 0x24d-0x24f (2)
0x240|                                       00      |             .  |                tag: "funcidx" (0x0) 0x24d-0x24e (1)
0x240|                                          0f   |              . |                x: 15 (valid) 0x24e-0x24f (1)
     |                                               |                |            [16]{}: ex 0x24f-0x26e (31)
     |                                               |                |              nm{}: 0x24f-0x26c (29)
0x240|                                             1c|               .|                n: 28 (valid) 0x24f-0x250 (1)
0x250|69 31 36 78 38 5f 61 6c 6c 5f 74 72 75 65 5f 61|i16x8_all_true_a|                b: "i16x8_all_true_as_br_if_cond" 0x250-0x26c (28)
0x260|73 5f 62 72 5f 69 66 5f 63 6f 6e 64            |s_br_if_cond    |
     |                                               |                |              d{}: 0x26c-0x26e (2)
0x260|                                    00         |            .   |                tag: "funcidx" (0x0) 0x26c-0x26d (1)
0x260|                                       10      |             .  |                x: 16 (valid) 0x26d-0x26e (1)
     |                                               |                |            [17]{}: ex 0x26e-0x28d (31)
     |                                               |                |              nm{}: 0x26e-0x28b (29)
0x260|                                          1c   |              . |                n: 28 (valid) 0x26e-0x26f (1)
0x260|                                             69|               i|                b: "i32x4_all_true_as_br_if_cond" 0x26f-0x28b (28)
0x270|33 32 78 34 5f 61 6c 6c 5f 74 72 75 65 5f 61 73|32x4_all_true_as|
0x280|5f 62 72 5f 69 66 5f 63 6f 6e 64               |_br_if_cond     |
     |                                               |                |              d{}: 0x28b-0x28d (2)
0x280|                                 00            |           .    |                tag: "funcidx" (0x0) 0x28b-0x28c (1)
0x280|                                    11         |            .   |                x: 17 (valid) 0x28c-0x28d (1)
     |                                               |                |            [18]{}: ex 0x28d-0x2b1 (36)
     |                                               |                |              nm{}: 0x28d-0x2af (34)
0x280|                                       21      |             !  |                n: 33 (valid) 0x28d-0x28e (1)
0x280|                                          69 38|              i8|                b: "i8x16_any_true_as_i32.and_operand" 0x28e-0x2af (33)
0x290|78 31 36 5f 61 6e 79 5f 74 72 75 65 5f 61 73 5f|x16_any_true_as_|
0x2a0|69 33 32 2e 61 6e 64 5f 6f 70 65 72 61 6e 64   |i32.and_operand |
     |                                               |                |              d{}: 0x2af-0x2b1 (2)
0x2a0|                                             00|               .|                tag: "funcidx" (0x0) 0x2af-0x2b0 (1)
0x2b0|12                                             |.               |                x: 18 (valid) 0x2b0-0x2b1 (1)
     |                                               |                |            [19]{}: ex 0x2b1-0x2d5 (36)
     |                                               |                |              nm{}: 0x2b1-0x2d3 (34)
0x2b0|   21                                          | !              |                n: 33 (valid) 0x2b1-0x2b2 (1)
0x2b0|      69 31 36 78 38 5f 61 6e 79 5f 74 72 75 65|  i16x8_any_true|                b: "i16x8_any_true_as_i32.and_operand" 0x2b2-0x2d3 (33)
0x2c0|5f 61 73 5f 69 33 32 2e 61 6e 64 5f 6f 70 65 72|_as_i32.and_oper|
0x2d0|61 6e 64                                       |and             |
     |                                               |                |              d{}: 0x2d3-0x2d5 (2)
0x2d0|         00                                    |   .            |                tag: "funcidx" (0x0) 0x2d3-0x2d4 (1)
0x2d0|            13                                 |    .           |                x: 19 (valid) 0x2d4-0x2d5 (1)
     |                                               |                |            [20]{}: ex 0x2d5-0x2f9 (36)
     |                                               |                |              nm{}: 0x2d5-0x2f7 (34)
0x2d0|               21                              |     !          |                n: 33 (valid) 0x2d5-0x2d6 (1)
0x2d0|                  69 33 32 78 34 5f 61 6e 79 5f|      i32x4_any_|                b: "i32x4_any_true_as_i32.and_operand" 0x2d6-0x2f7 (33)
0x2e0|74 72 75 65 5f 61 73 5f 69 33 32 2e 61 6e 64 5f|true_as_i32.and_|
0x2f0|6f 70 65 72 61 6e 64                           |operand         |
     |                                               |                |              d{}: 0x2f7-0x2f9 (2)
0x2f0|                     00                        |       .        |                tag: "funcidx" (0x0) 0x2f7-0x2f8 (1)
0x2f0|                        14                     |        .       |                x: 20 (valid) 0x2f8-0x2f9 (1)
     |                                               |                |            [21]{}: ex 0x2f9-0x31c (35)
     |                                               |                |              nm{}: 0x2f9-0x31a (33)
0x2f0|                           20                  |                |                n: 32 (valid) 0x2f9-0x2fa (1)
0x2f0|                              69 38 78 31 36 5f|          i8x16_|                b: "i8x16_any_true_as_i32.or_operand" 0x2fa-0x31a (32)
0x300|61 6e 79 5f 74 72 75 65 5f 61 73 5f 69 33 32 2e|any_true_as_i32.|
0x310|6f 72 5f 6f 70 65 72 61 6e 64                  |or_operand      |
     |                                               |                |              d{}: 0x31a-0x31c (2)
0x310|                              00               |          .     |                tag: "funcidx" (0x0) 0x31a-0x31b (1)
0x310|                                 15            |           .    |                x: 21 (valid) 0x31b-0x31c (1)
     |                                               |                |            [22]{}: ex 0x31c-0x33f (35)
     |                                               |                |              nm{}: 0x31c-0x33d (33)
0x310|                                    20         |                |                n: 32 (valid) 0x31c-0x31d (1)
0x310|                                       69 31 36|             i16|                b: "i16x8_any_true_as_i32.or_operand" 0x31d-0x33d (32)
0x320|78 38 5f 61 6e 79 5f 74 72 75 65 5f 61 73 5f 69|x8_any_true_as_i|
0x330|33 32 2e 6f 72 5f 6f 70 65 72 61 6e 64         |32.or_operand   |
     |                                               |                |              d{}: 0x33d-0x33f (2)
0x330|                                       00      |             .  |                tag: "funcidx" (0x0) 0x33d-0x33e (1)
0x330|                                          16   |              . |                x: 22 (valid) 0x33e-0x33f (1)
     |                                               |                |            [23]{}: ex 0x33f-0x362 (35)
     |                                               |                |              nm{}: 0x33f-0x360 (33)
0x330|                                             20|                |                n: 32 (valid) 0x33f-0x340 (1)
0x340|69 33 32 78 34 5f 61 6e 79 5f 74 72 75 65 5f 61|i32x4_any_true_a|                b: "i32x4_any_true_as_i32.or_operand" 0x340-0x360 (32)
0x350|73 5f 69 33 32 2e 6f 72 5f 6f 70 65 72 61 6e 64|s_i32.or_operand|
     |                                               |                |              d{}: 0x360-0x362 (2)
0x360|00                                             |.               |                tag: "funcidx" (0x0) 0x360-0x361 (1)
0x360|   17                                          | .              |                x: 23 (valid) 0x361-0x362 (1)
     |                                               |                |            [24]{}: ex 0x362-0x386 (36)
     |                                               |                |              nm{}: 0x362-0x384 (34)
0x360|      21                                       |  !             |                n: 33 (valid) 0x362-0x363 (1)
0x360|         69 38 78 31 36 5f 61 6e 79 5f 74 72 75|   i8x16_any_tru|                b: "i8x16_any_true_as_i32.xor_operand" 0x363-0x384 (33)
0x370|65 5f 61 73 5f 69 33 32 2e 78 6f 72 5f 6f 70 65|e_as_i32.xor_ope|
0x380|72 61 6e 64                                    |rand            |
     |                                               |                |              d{}: 0x384-0x386 (2)
0x380|            00                                 |    .           |                tag: "funcidx" (0x0) 0x384-0x385 (1)
0x380|               18                              |     .          |                x: 24 (valid) 0x385-0x386 (1)
     |                                               |                |            [25]{}: ex 0x386-0x3aa (36)
     |                                               |                |              nm{}: 0x386-0x3a8 (34)
0x380|                  21                           |      !         |                n: 33 (valid) 0x386-0x387 (1)
0x380|                     69 31 36 78 38 5f 61 6e 79|       i16x8_any|                b: "i16x8_any_true_as_i32.xor_operand" 0x387-0x3a8 (33)
0x390|5f 74 72 75 65 5f 61 73 5f 69 33 32 2e 78 6f 72|_true_as_i32.xor|
0x3a0|5f 6f 70 65 72 61 6e 64                        |_operand        |
     |                                               |                |              d{}: 0x3a8-0x3aa (2)
0x3a0|                        00                     |        .       |                tag: "funcidx" (0x0) 0x3a8-0x3a9 (1)
0x3a0|                           19                  |         .      |                x: 25 (valid) 0x3a9-0x3aa (1)
     |                                               |                |            [26]{}: ex 0x3aa-0x3ce (36)
     |                                               |                |              nm{}: 0x3aa-0x3cc (34)
0x3a0|                              21               |          !     |                n: 33 (valid) 0x3aa-0x3ab (1)
0x3a0|                                 69 33 32 78 34|           i32x4|                b: "i32x4_any_true_as_i32.xor_operand" 0x3ab-0x3cc (33)
0x3b0|5f 61 6e 79 5f 74 72 75 65 5f 61 73 5f 69 33 32|_any_true_as_i32|
0x3c0|2e 78 6f 72 5f 6f 70 65 72 61 6e 64            |.xor_operand    |
     |                                               |                |              d{}: 0x3cc-0x3ce (2)
0x3c0|                                    00         |            .   |                tag: "funcidx" (0x0) 0x3cc-0x3cd (1)
0x3c0|                                       1a      |             .  |                x: 26 (valid) 0x3cd-0x3ce (1)
     |                                               |                |            [27]{}: ex 0x3ce-0x3f2 (36)
     |                                               |                |              nm{}: 0x3ce-0x3f0 (34)
0x3c0|                                          21   |              ! |                n: 33 (valid) 0x3ce-0x3cf (1)
0x3c0|                                             69|               i|                b: "i8x16_all_true_as_i32.and_operand" 0x3cf-0x3f0 (33)
0x3d0|38 78 31 36 5f 61 6c 6c 5f 74 72 75 65 5f 61 73|8x16_all_true_as|
0x3e0|5f 69 33 32 2e 61 6e 64 5f 6f 70 65 72 61 6e 64|_i32.and_operand|
     |                                               |                |              d{}: 0x3f0-0x3f2 (2)
0x3f0|00                                             |.               |                tag: "funcidx" (0x0) 0x3f0-0x3f1 (1)
0x3f0|   1b                                          | .              |                x: 27 (valid) 0x3f1-0x3f2 (1)
     |                                               |                |            [28]{}: ex 0x3f2-0x416 (36)
     |                                               |                |              nm{}: 0x3f2-0x414 (34)
0x3f0|      21                                       |  !             |                n: 33 (valid) 0x3f2-0x3f3 (1)
0x3f0|         69 31 36 78 38 5f 61 6c 6c 5f 74 72 75|   i16x8_all_tru|                b: "i16x8_all_true_as_i32.and_operand" 0x3f3-0x414 (33)
0x400|65 5f 61 73 5f 69 33 32 2e 61 6e 64 5f 6f 70 65|e_as_i32.and_ope|
0x410|72 61 6e 64                                    |rand            |
     |                                               |                |              d{}: 0x414-0x416 (2)
0x410|            00                                 |    .           |                tag: "funcidx" (0x0) 0x414-0x415 (1)
0x410|               1c                              |     .          |                x: 28 (valid) 0x415-0x416 (1)
     |                                               |                |            [29]{}: ex 0x416-0x43a (36)
     |                                               |                |              nm{}: 0x416-0x438 (34)
0x410|                  21                           |      !         |                n: 33 (valid) 0x416-0x417 (1)
0x410|                     69 33 32 78 34 5f 61 6c 6c|       i32x4_all|                b: "i32x4_all_true_as_i32.and_operand" 0x417-0x438 (33)
0x420|5f 74 72 75 65 5f 61 73 5f 69 33 32 2e 61 6e 64|_true_as_i32.and|
0x430|5f 6f 70 65 72 61 6e 64                        |_operand        |
     |                                               |                |              d{}: 0x438-0x43a (2)
0x430|                        00                     |        .       |                tag: "funcidx" (0x0) 0x438-0x439 (1)
0x430|                           1d                  |         .      |                x: 29 (valid) 0x439-0x43a (1)
     |                                               |                |            [30]{}: ex 0x43a-0x45d (35)
     |                                               |                |              nm{}: 0x43a-0x45b (33)
0x430|                              20               |                |                n: 32 (valid) 0x43a-0x43b (1)
0x430|                                 69 38 78 31 36|           i8x16|                b: "i8x16_all_true_as_i32.or_operand" 0x43b-0x45b (32)
0x440|5f 61 6c 6c 5f 74 72 75 65 5f 61 73 5f 69 33 32|_all_true_as_i32|
0x450|2e 6f 72 5f 6f 70 65 72 61 6e 64               |.or_operand     |
     |                                               |                |              d{}: 0x45b-0x45d (2)
0x450|                                 00            |           .    |                tag: "funcidx" (0x0) 0x45b-0x45c (1)
0x450|                                    1e         |            .   |                x: 30 (valid) 0x45c-0x45d (1)
     |                                               |                |            [31]{}: ex 0x45d-0x480 (35)
     |                                               |                |              nm{}: 0x45d-0x47e (33)
0x450|                                       20      |                |                n: 32 (valid) 0x45d-0x45e (1)
0x450|                                          69 31|              i1|                b: "i16x8_all_true_as_i32.or_operand" 0x45e-0x47e (32)
0x460|36 78 38 5f 61 6c 6c 5f 74 72 75 65 5f 61 73 5f|6x8_all_true_as_|
0x470|69 33 32 2e 6f 72 5f 6f 70 65 72 61 6e 64      |i32.or_operand  |
     |                                               |                |              d{}: 0x47e-0x480 (2)
0x470|                                          00   |              . |                tag: "funcidx" (0x0) 0x47e-0x47f (1)
0x470|                                             1f|               .|                x: 31 (valid) 0x47f-0x480 (1)
     |                                               |                |            [32]{}: ex 0x480-0x4a3 (35)
     |                                               |                |              nm{}: 0x480-0x4a1 (33)
0x480|20                                             |                |                n: 32 (valid) 0x480-0x481 (1)
0x480|   69 33 32 78 34 5f 61 6c 6c 5f 74 72 75 65 5f| i32x4_all_true_|                b: "i32x4_all_true_as_i32.or_operand" 0x481-0x4a1 (32)
0x490|61 73 5f 69 33 32 2e 6f 72 5f 6f 70 65 72 61 6e|as_i32.or_operan|
0x4a0|64                                             |d               |
     |                                               |                |              d{}: 0x4a1-0x4a3 (2)
0x4a0|   00                                          | .              |                tag: "funcidx" (0x0) 0x4a1-0x4a2 (1)
0x4a0|      20                                       |                |                x: 32 (valid) 0x4a2-0x4a3 (1)
     |                                               |                |            [33]{}: ex 0x4a3-0x4c7 (36)
     |                                               |                |              nm{}: 0x4a3-0x4c5 (34)
0x4a0|         21                                    |   !            |                n: 33 (valid) 0x4a3-0x4a4 (1)
0x4a0|            69 38 78 31 36 5f 61 6c 6c 5f 74 72|    i8x16_all_tr|                b: "i8x16_all_true_as_i32.xor_operand" 0x4a4-0x4c5 (33)
0x4b0|75 65 5f 61 73 5f 69 33 32 2e 78 6f 72 5f 6f 70|ue_as_i32.xor_op|
0x4c0|65 72 61 6e 64                                 |erand           |
     |                                               |                |              d{}: 0x4c5-0x4c7 (2)
0x4c0|               00                              |     .          |                tag: "funcidx" (0x0) 0x4c5-0x4c6 (1)
0x4c0|                  21                           |      !         |                x: 33 (valid) 0x4c6-0x4c7 (1)
     |                                               |                |            [34]{}: ex 0x4c7-0x4eb (36)
     |                                               |                |              nm{}: 0x4c7-0x4e9 (34)
0x4c0|                     21                        |       !        |                n: 33 (valid) 0x4c7-0x4c8 (1)
0x4c0|                        69 31 36 78 38 5f 61 6c|        i16x8_al|                b: "i16x8_all_true_as_i32.xor_operand" 0x4c8-0x4e9 (33)
0x4d0|6c 5f 74 72 75 65 5f 61 73 5f 69 33 32 2e 78 6f|l_true_as_i32.xo|
0x4e0|72 5f 6f 70 65 72 61 6e 64                     |r_operand       |
     |                                               |                |              d{}: 0x4e9-0x4eb (2)
0x4e0|                           00                  |         .      |                tag: "funcidx" (0x0) 0x4e9-0x4ea (1)
0x4e0|                              22               |          "     |                x: 34 (valid) 0x4ea-0x4eb (1)
     |                                               |                |            [35]{}: ex 0x4eb-0x50f (36)
     |                                               |                |              nm{}: 0x4eb-0x50d (34)
0x4e0|                                 21            |           !    |                n: 33 (valid) 0x4eb-0x4ec (1)
0x4e0|                                    69 33 32 78|            i32x|                b: "i32x4_all_true_as_i32.xor_operand" 0x4ec-0x50d (33)
0x4f0|34 5f 61 6c 6c 5f 74 72 75 65 5f 61 73 5f 69 33|4_all_true_as_i3|
0x500|32 2e 78 6f 72 5f 6f 70 65 72 61 6e 64         |2.xor_operand   |
     |                                               |                |              d{}: 0x50d-0x50f (2)
0x500|                                       00      |             .  |                tag: "funcidx" (0x0) 0x50d-0x50e (1)
0x500|                                          23   |              # |                x: 35 (valid) 0x50e-0x50f (1)
     |                                               |                |            [36]{}: ex 0x50f-0x52e (31)
     |                                               |                |              nm{}: 0x50f-0x52c (29)
0x500|                                             1c|               .|                n: 28 (valid) 0x50f-0x510 (1)
0x510|69 38 78 31 36 5f 61 6e 79 5f 74 72 75 65 5f 77|i8x16_any_true_w|                b: "i8x16_any_true_with_v128.not" 0x510-0x52c (28)
0x520|69 74 68 5f 76 31 32 38 2e 6e 6f 74            |ith_v128.not    |
     |                                               |                |              d{}: 0x52c-0x52e (2)
0x520|                                    00         |            .   |                tag: "funcidx" (0x0) 0x52c-0x52d (1)
0x520|                                       24      |             $  |                x: 36 (valid) 0x52d-0x52e (1)
     |                                               |                |            [37]{}: ex 0x52e-0x54d (31)
     |                                               |                |              nm{}: 0x52e-0x54b (29)
0x520|                                          1c   |              . |                n: 28 (valid) 0x52e-0x52f (1)
0x520|                                             69|               i|                b: "i16x8_any_true_with_v128.not" 0x52f-0x54b (28)
0x530|31 36 78 38 5f 61 6e 79 5f 74 72 75 65 5f 77 69|16x8_any_true_wi|
0x540|74 68 5f 76 31 32 38 2e 6e 6f 74               |th_v128.not     |
     |                                               |                |              d{}: 0x54b-0x54d (2)
0x540|                                 00            |           .    |                tag: "funcidx" (0x0) 0x54b-0x54c (1)
0x540|                                    25         |            %   |                x: 37 (valid) 0x54c-0x54d (1)
     |                                               |                |            [38]{}: ex 0x54d-0x56c (31)
     |                                               |                |              nm{}: 0x54d-0x56a (29)
0x540|                                       1c      |             .  |                n: 28 (valid) 0x54d-0x54e (1)
0x540|                                          69 33|              i3|                b: "i32x4_any_true_with_v128.not" 0x54e-0x56a (28)
0x550|32 78 34 5f 61 6e 79 5f 74 72 75 65 5f 77 69 74|2x4_any_true_wit|
0x560|68 5f 76 31 32 38 2e 6e 6f 74                  |h_v128.not      |
     |                                               |                |              d{}: 0x56a-0x56c (2)
0x560|                              00               |          .     |                tag: "funcidx" (0x0) 0x56a-0x56b (1)
0x560|                                 26            |           &    |                x: 38 (valid) 0x56b-0x56c (1)
     |                                               |                |            [39]{}: ex 0x56c-0x58b (31)
     |                                               |                |              nm{}: 0x56c-0x589 (29)
0x560|                                    1c         |            .   |                n: 28 (valid) 0x56c-0x56d (1)
0x560|                                       69 38 78|             i8x|                b: "i8x16_any_true_with_v128.and" 0x56d-0x589 (28)
0x570|31 36 5f 61 6e 79 5f 74 72 75 65 5f 77 69 74 68|16_any_true_with|
0x580|5f 76 31 32 38 2e 61 6e 64                     |_v128.and       |
     |                                               |                |              d{}: 0x589-0x58b (2)
0x580|                           00                  |         .      |                tag: "funcidx" (0x0) 0x589-0x58a (1)
0x580|                              27               |          '     |                x: 39 (valid) 0x58a-0x58b (1)
     |                                               |                |            [40]{}: ex 0x58b-0x5aa (31)
     |                                               |                |              nm{}: 0x58b-0x5a8 (29)
0x580|                                 1c            |           .    |                n: 28 (valid) 0x58b-0x58c (1)
0x580|                                    69 31 36 78|            i16x|                b: "i16x8_any_true_with_v128.and" 0x58c-0x5a8 (28)
0x590|38 5f 61 6e 79 5f 74 72 75 65 5f 77 69 74 68 5f|8_any_true_with_|
0x5a0|76 31 32 38 2e 61 6e 64                        |v128.and        |
     |                                               |                |              d{}: 0x5a8-0x5aa (2)
0x5a0|                        00                     |        .       |                tag: "funcidx" (0x0) 0x5a8-0x5a9 (1)
0x5a0|                           28                  |         (      |                x: 40 (valid) 0x5a9-0x5aa (1)
     |                                               |                |            [41]{}: ex 0x5aa-0x5c9 (31)
     |                                               |                |              nm{}: 0x5aa-0x5c7 (29)
0x5a0|                              1c               |          .     |                n: 28 (valid) 0x5aa-0x5ab (1)
0x5a0|                                 69 33 32 78 34|           i32x4|                b: "i32x4_any_true_with_v128.and" 0x5ab-0x5c7 (28)
0x5b0|5f 61 6e 79 5f 74 72 75 65 5f 77 69 74 68 5f 76|_any_true_with_v|
0x5c0|31 32 38 2e 61 6e 64                           |128.and         |
     |                                               |                |              d{}: 0x5c7-0x5c9 (2)
0x5c0|                     00                        |       .        |                tag: "funcidx" (0x0) 0x5c7-0x5c8 (1)
0x5c0|                        29                     |        )       |                x: 41 (valid) 0x5c8-0x5c9 (1)
     |                                               |                |            [42]{}: ex 0x5c9-0x5e7 (30)
     |                                               |                |              nm{}: 0x5c9-0x5e5 (28)
0x5c0|                           1b                  |         .      |                n: 27 (valid) 0x5c9-0x5ca (1)
0x5c0|                              69 38 78 31 36 5f|          i8x16_|                b: "i8x16_any_true_with_v128.or" 0x5ca-0x5e5 (27)
0x5d0|61 6e 79 5f 74 72 75 65 5f 77 69 74 68 5f 76 31|any_true_with_v1|
0x5e0|32 38 2e 6f 72                                 |28.or           |
     |                                               |                |              d{}: 0x5e5-0x5e7 (2)
0x5e0|               00                              |     .          |                tag: "funcidx" (0x0) 0x5e5-0x5e6 (1)
0x5e0|                  2a                           |      *         |                x: 42 (valid) 0x5e6-0x5e7 (1)
     |                                               |                |            [43]{}: ex 0x5e7-0x605 (30)
     |                                               |                |              nm{}: 0x5e7-0x603 (28)
0x5e0|                     1b                        |       .        |                n: 27 (valid) 0x5e7-0x5e8 (1)
0x5e0|                        69 31 36 78 38 5f 61 6e|        i16x8_an|                b: "i16x8_any_true_with_v128.or" 0x5e8-0x603 (27)
0x5f0|79 5f 74 72 75 65 5f 77 69 74 68 5f 76 31 32 38|y_true_with_v128|
0x600|2e 6f 72                                       |.or             |
     |                                               |                |              d{}: 0x603-0x605 (2)
0x600|         00                                    |   .            |                tag: "funcidx" (0x0) 0x603-0x604 (1)
0x600|            2b                                 |    +           |                x: 43 (valid) 0x604-0x605 (1)
     |                                               |                |            [44]{}: ex 0x605-0x623 (30)
     |                                               |                |              nm{}: 0x605-0x621 (28)
0x600|               1b                              |     .          |                n: 27 (valid) 0x605-0x606 (1)
0x600|                  69 33 32 78 34 5f 61 6e 79 5f|      i32x4_any_|                b: "i32x4_any_true_with_v128.or" 0x606-0x621 (27)
0x610|74 72 75 65 5f 77 69 74 68 5f 76 31 32 38 2e 6f|true_with_v128.o|
0x620|72                                             |r               |
     |                                               |                |              d{}: 0x621-0x623 (2)
0x620|   00                                          | .              |                tag: "funcidx" (0x0) 0x621-0x622 (1)
0x620|      2c                                       |  ,             |                x: 44 (valid) 0x622-0x623 (1)
     |                                               |                |            [45]{}: ex 0x623-0x642 (31)
     |                                               |                |              nm{}: 0x623-0x640 (29)
0x620|         1c                                    |   .            |                n: 28 (valid) 0x623-0x624 (1)
0x620|            69 38 78 31 36 5f 61 6e 79 5f 74 72|    i8x16_any_tr|                b: "i8x16_any_true_with_v128.xor" 0x624-0x640 (28)
0x630|75 65 5f 77 69 74 68 5f 76 31 32 38 2e 78 6f 72|ue_with_v128.xor|
     |                                               |                |              d{}: 0x640-0x642 (2)
0x640|00                                             |.               |                tag: "funcidx" (0x0) 0x640-0x641 (1)
0x640|   2d                                          | -              |                x: 45 (valid) 0x641-0x642 (1)
     |                                               |                |            [46]{}: ex 0x642-0x661 (31)
     |                                               |                |              nm{}: 0x642-0x65f (29)
0x640|      1c                                       |  .             |                n: 28 (valid) 0x642-0x643 (1)
0x640|         69 31 36 78 38 5f 61 6e 79 5f 74 72 75|   i16x8_any_tru|                b: "i16x8_any_true_with_v128.xor" 0x643-0x65f (28)
0x650|65 5f 77 69 74 68 5f 76 31 32 38 2e 78 6f 72   |e_with_v128.xor |
     |                                               |                |              d{}: 0x65f-0x661 (2)
0x650|                                             00|               .|                tag: "funcidx" (0x0) 0x65f-0x660 (1)
0x660|2e                                             |.               |                x: 46 (valid) 0x660-0x661 (1)
     |                                               |                |            [47]{}: ex 0x661-0x680 (31)
     |                                               |                |              nm{}: 0x661-0x67e (29)
0x660|   1c                                          | .              |                n: 28 (valid) 0x661-0x662 (1)
0x660|      69 33 32 78 34 5f 61 6e 79 5f 74 72 75 65|  i32x4_any_true|                b: "i32x4_any_true_with_v128.xor" 0x662-0x67e (28)
0x670|5f 77 69 74 68 5f 76 31 32 38 2e 78 6f 72      |_with_v128.xor  |
     |                                               |                |              d{}: 0x67e-0x680 (2)
0x670|                                          00   |              . |                tag: "funcidx" (0x0) 0x67e-0x67f (1)
0x670|                                             2f|               /|                x: 47 (valid) 0x67f-0x680 (1)
     |                                               |                |            [48]{}: ex 0x680-0x6a5 (37)
     |                                               |                |              nm{}: 0x680-0x6a3 (35)
0x680|22                                             |"               |                n: 34 (valid) 0x680-0x681 (1)
0x680|   69 38 78 31 36 5f 61 6e 79 5f 74 72 75 65 5f| i8x16_any_true_|                b: "i8x16_any_true_with_v128.bitselect" 0x681-0x6a3 (34)
0x690|77 69 74 68 5f 76 31 32 38 2e 62 69 74 73 65 6c|with_v128.bitsel|
0x6a0|65 63 74                                       |ect             |
     |                                               |                |              d{}: 0x6a3-0x6a5 (2)
0x6a0|         00                                    |   .            |                tag: "funcidx" (0x0) 0x6a3-0x6a4 (1)
0x6a0|            30                                 |    0           |                x: 48 (valid) 0x6a4-0x6a5 (1)
     |                                               |                |            [49]{}: ex 0x6a5-0x6ca (37)
     |                                               |                |              nm{}: 0x6a5-0x6c8 (35)
0x6a0|               22                              |     "          |                n: 34 (valid) 0x6a5-0x6a6 (1)
0x6a0|                  69 31 36 78 38 5f 61 6e 79 5f|      i16x8_any_|                b: "i16x8_any_true_with_v128.bitselect" 0x6a6-0x6c8 (34)
0x6b0|74 72 75 65 5f 77 69 74 68 5f 76 31 32 38 2e 62|true_with_v128.b|
0x6c0|69 74 73 65 6c 65 63 74                        |itselect        |
     |                                               |                |              d{}: 0x6c8-0x6ca (2)
0x6c0|                        00                     |        .       |                tag: "funcidx" (0x0) 0x6c8-0x6c9 (1)
0x6c0|                           31                  |         1      |                x: 49 (valid) 0x6c9-0x6ca (1)
     |                                               |                |            [50]{}: ex 0x6ca-0x6ef (37)
     |                                               |                |              nm{}: 0x6ca-0x6ed (35)
0x6c0|                              22               |          "     |                n: 34 (valid) 0x6ca-0x6cb (1)
0x6c0|                                 69 33 32 78 34|           i32x4|                b: "i32x4_any_true_with_v128.bitselect" 0x6cb-0x6ed (34)
0x6d0|5f 61 6e 79 5f 74 72 75 65 5f 77 69 74 68 5f 76|_any_true_with_v|
0x6e0|31 32 38 2e 62 69 74 73 65 6c 65 63 74         |128.bitselect   |
     |                                               |                |              d{}: 0x6ed-0x6ef (2)
0x6e0|                                       00      |             .  |                tag: "funcidx" (0x0) 0x6ed-0x6ee (1)
0x6e0|                                          32   |              2 |                x: 50 (valid) 0x6ee-0x6ef (1)
     |                                               |                |            [51]{}: ex 0x6ef-0x70e (31)
     |                                               |                |              nm{}: 0x6ef-0x70c (29)
0x6e0|                                             1c|               .|                n: 28 (valid) 0x6ef-0x6f0 (1)
0x6f0|69 38 78 31 36 5f 61 6c 6c 5f 74 72 75 65 5f 77|i8x16_all_true_w|                b: "i8x16_all_true_with_v128.not" 0x6f0-0x70c (28)
0x700|69 74 68 5f 76 31 32 38 2e 6e 6f 74            |ith_v128.not    |
     |                                               |                |              d{}: 0x70c-0x70e (2)
0x700|                                    00         |            .   |                tag: "funcidx" (0x0) 0x70c-0x70d (1)
0x700|                                       33      |             3  |                x: 51 (valid) 0x70d-0x70e (1)
     |                                               |                |            [52]{}: ex 0x70e-0x72d (31)
     |                                               |                |              nm{}: 0x70e-0x72b (29)
0x700|                                          1c   |              . |                n: 28 (valid) 0x70e-0x70f (1)
0x700|                                             69|               i|                b: "i16x8_all_true_with_v128.not" 0x70f-0x72b (28)
0x710|31 36 78 38 5f 61 6c 6c 5f 74 72 75 65 5f 77 69|16x8_all_true_wi|
0x720|74 68 5f 76 31 32 38 2e 6e 6f 74               |th_v128.not     |
     |                                               |                |              d{}: 0x72b-0x72d (2)
0x720|                                 00            |           .    |                tag: "funcidx" (0x0) 0x72b-0x72c (1)
0x720|                                    34         |            4   |                x: 52 (valid) 0x72c-0x72d (1)
     |                                               |                |            [53]{}: ex 0x72d-0x74c (31)
     |                                               |                |              nm{}: 0x72d-0x74a (29)
0x720|                                       1c      |             .  |                n: 28 (valid) 0x72d-0x72e (1)
0x720|                                          69 33|              i3|                b: "i32x4_all_true_with_v128.not" 0x72e-0x74a (28)
0x730|32 78 34 5f 61 6c 6c 5f 74 72 75 65 5f 77 69 74|2x4_all_true_wit|
0x740|68 5f 76 31 32 38 2e 6e 6f 74                  |h_v128.not      |
     |                                               |                |              d{}: 0x74a-0x74c (2)
0x740|                              00               |          .     |                tag: "funcidx" (0x0) 0x74a-0x74b (1)
0x740|                                 35            |           5    |                x: 53 (valid) 0x74b-0x74c (1)
     |                                               |                |            [54]{}: ex 0x74c-0x76b (31)
     |                                               |                |              nm{}: 0x74c-0x769 (29)
0x740|                                    1c         |            .   |                n: 28 (valid) 0x74c-0x74d (1)
0x740|                                       69 38 78|             i8x|                b: "i8x16_all_true_with_v128.and" 0x74d-0x769 (28)
0x750|31 36 5f 61 6c 6c 5f 74 72 75 65 5f 77 69 74 68|16_all_true_with|
0x760|5f 76 31 32 38 2e 61 6e 64                     |_v128.and       |
     |                                               |                |              d{}: 0x769-0x76b (2)
0x760|                           00                  |         .      |                tag: "funcidx" (0x0) 0x769-0x76a (1)
0x760|                              36               |          6     |                x: 54 (valid) 0x76a-0x76b (1)
     |                                               |                |            [55]{}: ex 0x76b-0x78a (31)
     |                                               |                |              nm{}: 0x76b-0x788 (29)
0x760|                                 1c            |           .    |                n: 28 (valid) 0x76b-0x76c (1)
0x760|                                    69 31 36 78|            i16x|                b: "i16x8_all_true_with_v128.and" 0x76c-0x788 (28)
0x770|38 5f 61 6c 6c 5f 74 72 75 65 5f 77 69 74 68 5f|8_all_true_with_|
0x780|76 31 32 38 2e 61 6e 64                        |v128.and        |
     |                                               |                |              d{}: 0x788-0x78a (2)
0x780|                        00                     |        .       |                tag: "funcidx" (0x0) 0x788-0x789 (1)
0x780|                           37                  |         7      |                x: 55 (valid) 0x789-0x78a (1)
     |                                               |                |            [56]{}: ex 0x78a-0x7a9 (31)
     |                                               |                |              nm{}: 0x78a-0x7a7 (29)
0x780|                              1c               |          .     |                n: 28 (valid) 0x78a-0x78b (1)
0x780|                                 69 33 32 78 34|           i32x4|                b: "i32x4_all_true_with_v128.and" 0x78b-0x7a7 (28)
0x790|5f 61 6c 6c 5f 74 72 75 65 5f 77 69 74 68 5f 76|_all_true_with_v|
0x7a0|31 32 38 2e 61 6e 64                           |128.and         |
     |                                               |                |              d{}: 0x7a7-0x7a9 (2)
0x7a0|                     00                        |       .        |                tag: "funcidx" (0x0) 0x7a7-0x7a8 (1)
0x7a0|                        38                     |        8       |                x: 56 (valid) 0x7a8-0x7a9 (1)
     |                                               |                |            [57]{}: ex 0x7a9-0x7c7 (30)
     |                                               |                |              nm{}: 0x7a9-0x7c5 (28)
0x7a0|                           1b                  |         .      |                n: 27 (valid) 0x7a9-0x7aa (1)
0x7a0|                              69 38 78 31 36 5f|          i8x16_|                b: "i8x16_all_true_with_v128.or" 0x7aa-0x7c5 (27)
0x7b0|61 6c 6c 5f 74 72 75 65 5f 77 69 74 68 5f 76 31|all_true_with_v1|
0x7c0|32 38 2e 6f 72                                 |28.or           |
     |                                               |                |              d{}: 0x7c5-0x7c7 (2)
0x7c0|               00                              |     .          |                tag: "funcidx" (0x0) 0x7c5-0x7c6 (1)
0x7c0|                  39                           |      9         |                x: 57 (valid) 0x7c6-0x7c7 (1)
     |                                               |                |            [58]{}: ex 0x7c7-0x7e5 (30)
     |                                               |                |              nm{}: 0x7c7-0x7e3 (28)
0x7c0|                     1b                        |       .        |                n: 27 (valid) 0x7c7-0x7c8 (1)
0x7c0|                        69 31 36 78 38 5f 61 6c|        i16x8_al|                b: "i16x8_all_true_with_v128.or" 0x7c8-0x7e3 (27)
0x7d0|6c 5f 74 72 75 65 5f 77 69 74 68 5f 76 31 32 38|l_true_with_v128|
0x7e0|2e 6f 72                                       |.or             |
     |                                               |                |              d{}: 0x7e3-0x7e5 (2)
0x7e0|         00                                    |   .            |                tag: "funcidx" (0x0) 0x7e3-0x7e4 (1)
0x7e0|            3a                                 |    :           |                x: 58 (valid) 0x7e4-0x7e5 (1)
     |                                               |                |            [59]{}: ex 0x7e5-0x803 (30)
     |                                               |                |              nm{}: 0x7e5-0x801 (28)
0x7e0|               1b                              |     .          |                n: 27 (valid) 0x7e5-0x7e6 (1)
0x7e0|                  69 33 32 78 34 5f 61 6c 6c 5f|      i32x4_all_|                b: "i32x4_all_true_with_v128.or" 0x7e6-0x801 (27)
0x7f0|74 72 75 65 5f 77 69 74 68 5f 76 31 32 38 2e 6f|true_with_v128.o|
0x800|72                                             |r               |
     |                                               |                |              d{}: 0x801-0x803 (2)
0x800|   00                                          | .              |                tag: "funcidx" (0x0) 0x801-0x802 (1)
0x800|      3b                                       |  ;             |                x: 59 (valid) 0x802-0x803 (1)
     |                                               |                |            [60]{}: ex 0x803-0x822 (31)
     |                                               |                |              nm{}: 0x803-0x820 (29)
0x800|         1c                                    |   .            |                n: 28 (valid) 0x803-0x804 (1)
0x800|            69 38 78 31 36 5f 61 6c 6c 5f 74 72|    i8x16_all_tr|                b: "i8x16_all_true_with_v128.xor" 0x804-0x820 (28)
0x810|75 65 5f 77 69 74 68 5f 76 31 32 38 2e 78 6f 72|ue_with_v128.xor|
     |                                               |                |              d{}: 0x820-0x822 (2)
0x820|00                                             |.               |                tag: "funcidx" (0x0) 0x820-0x821 (1)
0x820|   3c                                          | <              |                x: 60 (valid) 0x821-0x822 (1)
     |                                               |                |            [61]{}: ex 0x822-0x841 (31)
     |                                               |                |              nm{}: 0x822-0x83f (29)
0x820|      1c                                       |  .             |                n: 28 (valid) 0x822-0x823 (1)
0x820|         69 31 36 78 38 5f 61 6c 6c 5f 74 72 75|   i16x8_all_tru|                b: "i16x8_all_true_with_v128.xor" 0x823-0x83f (28)
0x830|65 5f 77 69 74 68 5f 76 31 32 38 2e 78 6f 72   |e_with_v128.xor |
     |                                               |                |              d{}: 0x83f-0x841 (2)
0x830|                                             00|               .|                tag: "funcidx" (0x0) 0x83f-0x840 (1)
0x840|3d                                             |=               |                x: 61 (valid) 0x840-0x841 (1)
     |                                               |                |            [62]{}: ex 0x841-0x860 (31)
     |                                               |                |              nm{}: 0x841-0x85e (29)
0x840|   1c                                          | .              |                n: 28 (valid) 0x841-0x842 (1)
0x840|      69 33 32 78 34 5f 61 6c 6c 5f 74 72 75 65|  i32x4_all_true|                b: "i32x4_all_true_with_v128.xor" 0x842-0x85e (28)
0x850|5f 77 69 74 68 5f 76 31 32 38 2e 78 6f 72      |_with_v128.xor  |
     |                                               |                |              d{}: 0x85e-0x860 (2)
0x850|                                          00   |              . |                tag: "funcidx" (0x0) 0x85e-0x85f (1)
0x850|                                             3e|               >|                x: 62 (valid) 0x85f-0x860 (1)
     |                                               |                |            [63]{}: ex 0x860-0x885 (37)
     |                                               |                |              nm{}: 0x860-0x883 (35)
0x860|22                                             |"               |                n: 34 (valid) 0x860-0x861 (1)
0x860|   69 38 78 31 36 5f 61 6c 6c 5f 74 72 75 65 5f| i8x16_all_true_|                b: "i8x16_all_true_with_v128.bitselect" 0x861-0x883 (34)
0x870|77 69 74 68 5f 76 31 32 38 2e 62 69 74 73 65 6c|with_v128.bitsel|
0x880|65 63 74                                       |ect             |
     |                                               |                |              d{}: 0x883-0x885 (2)
0x880|         00                                    |   .            |                tag: "funcidx" (0x0) 0x883-0x884 (1)
0x880|            3f                                 |    ?           |                x: 63 (valid) 0x884-0x885 (1)
     |                                               |                |            [64]{}: ex 0x885-0x8aa (37)
     |                                               |                |              nm{}: 0x885-0x8a8 (35)
0x880|               22                              |     "          |                n: 34 (valid) 0x885-0x886 (1)
0x880|                  69 31 36 78 38 5f 61 6c 6c 5f|      i16x8_all_|                b: "i16x8_all_true_with_v128.bitselect" 0x886-0x8a8 (34)
0x890|74 72 75 65 5f 77 69 74 68 5f 76 31 32 38 2e 62|true_with_v128.b|
0x8a0|69 74 73 65 6c 65 63 74                        |itselect        |
     |                                               |                |              d{}: 0x8a8-0x8aa (2)
0x8a0|                        00                     |        .       |                tag: "funcidx" (0x0) 0x8a8-0x8a9 (1)
0x8a0|                           40                  |         @      |                x: 64 (valid) 0x8a9-0x8aa (1)
     |                                               |                |            [65]{}: ex 0x8aa-0x8cf (37)
     |                                               |                |              nm{}: 0x8aa-0x8cd (35)
0x8a0|                              22               |          "     |                n: 34 (valid) 0x8aa-0x8ab (1)
0x8a0|                                 69 33 32 78 34|           i32x4|                b: "i32x4_all_true_with_v128.bitselect" 0x8ab-0x8cd (34)
0x8b0|5f 61 6c 6c 5f 74 72 75 65 5f 77 69 74 68 5f 76|_all_true_with_v|
0x8c0|31 32 38 2e 62 69 74 73 65 6c 65 63 74         |128.bitselect   |
     |                                               |                |              d{}: 0x8cd-0x8cf (2)
0x8c0|                                       00      |             .  |                tag: "funcidx" (0x0) 0x8cd-0x8ce (1)
0x8c0|                                          41   |              A |                x: 65 (valid) 0x8ce-0x8cf (1)
     |                                               |                |    [4]{}: section 0x8cf-0xc5b (908)
0x8c0|                                             0a|               .|      id: "code_section" (10) 0x8cf-0x8d0 (1)
0x8d0|89 07                                          |..              |      size: 905 (valid) 0x8d0-0x8d2 (2)
     |                                               |                |      content{}: 0x8d2-0xc5b (905)
     |                                               |                |        code{}: 0x8d2-0xc5b (905)
0x8d0|      42                                       |  B             |          n: 66 (valid) 0x8d2-0x8d3 (1)
     |                                               |                |          x[0:66]: 0x8d3-0xc5b (904)
     |                                               |                |            [0]{}: code 0x8d3-0x8e2 (15)
0x8d0|         0e                                    |   .            |              size: 14 (valid) 0x8d3-0x8d4 (1)
     |                                               |                |              code{}: 0x8d4-0x8e2 (14)
     |                                               |                |                t{}: 0x8d4-0x8d5 (1)
0x8d0|            00                                 |    .           |                  n: 0 (valid) 0x8d4-0x8d5 (1)
     |                                               |                |                  x[0:0]: 0x8d5-0x8d5 (0)
     |                                               |                |                e[0:4]: 0x8d5-0x8e2 (13)
     |                                               |                |                  [0]{}: in 0x8d5-0x8d7 (2)
0x8d0|               20                              |                |                    opcode: "local.get" (0x20) 0x8d5-0x8d6 (1)
0x8d0|                  00                           |      .         |                    x: 0 (valid) 0x8d6-0x8d7 (1)
     |                                               |                |                  [1]{}: in 0x8d7-0x8d9 (2)
0x8d0|                     fd                        |       .        |                    opcode: "vector" (0xfd) 0x8d7-0x8d8 (1)
0x8d0|                        53                     |        S       |                    v_opcode: "v128.any_true" (83) 0x8d8-0x8d9 (1)
     |                                               |                |                  [2]{}: in 0x8d9-0x8e1 (8)
0x8d0|                           04                  |         .      |                    opcode: "if" (0x4) 0x8d9-0x8da (1)
0x8d0|                              7f               |          .     |                    bt: "i32" (127) 0x8da-0x8db (1)
     |                                               |                |                    in1[0:1]: 0x8db-0x8dd (2)
     |                                               |                |                      [0]{}: instr 0x8db-0x8dd (2)
0x8d0|                                 41            |           A    |                        opcode: "i32.const" (0x41) 0x8db-0x8dc (1)
0x8d0|                                    01         |            .   |                        n: 1 (valid) 0x8dc-0x8dd (1)
0x8d0|                                       05      |             .  |                    else: 0x5 (valid) 0x8dd-0x8de (1)
     |                                               |                |                    in2[0:1]: 0x8de-0x8e0 (2)
     |                                               |                |                      [0]{}: instr 0x8de-0x8e0 (2)
0x8d0|                                          41   |              A |                        opcode: "i32.const" (0x41) 0x8de-0x8df (1)
0x8d0|                                             00|               .|                        n: 0 (valid) 0x8df-0x8e0 (1)
0x8e0|0b                                             |.               |                    end: 0xb (valid) 0x8e0-0x8e1 (1)
     |                                               |                |                  [3]{}: in 0x8e1-0x8e2 (1)
0x8e0|   0b                                          | .              |                    opcode: "end" (0xb) 0x8e1-0x8e2 (1)
     |                                               |                |            [1]{}: code 0x8e2-0x8f1 (15)
0x8e0|      0e                                       |  .             |              size: 14 (valid) 0x8e2-0x8e3 (1)
     |                                               |                |              code{}: 0x8e3-0x8f1 (14)
     |                                               |                |                t{}: 0x8e3-0x8e4 (1)
0x8e0|         00                                    |   .            |                  n: 0 (valid) 0x8e3-0x8e4 (1)
     |                                               |                |                  x[0:0]: 0x8e4-0x8e4 (0)
     |                                               |                |                e[0:4]: 0x8e4-0x8f1 (13)
     |                                               |                |                  [0]{}: in 0x8e4-0x8e6 (2)
0x8e0|            20                                 |                |                    opcode: "local.get" (0x20) 0x8e4-0x8e5 (1)
0x8e0|               00                              |     .          |                    x: 0 (valid) 0x8e5-0x8e6 (1)
     |                                               |                |                  [1]{}: in 0x8e6-0x8e8 (2)
0x8e0|                  fd                           |      .         |                    opcode: "vector" (0xfd) 0x8e6-0x8e7 (1)
0x8e0|                     53                        |       S        |                    v_opcode: "v128.any_true" (83) 0x8e7-0x8e8 (1)
     |                                               |                |                  [2]{}: in 0x8e8-0x8f0 (8)
0x8e0|                        04                     |        .       |                    opcode: "if" (0x4) 0x8e8-0x8e9 (1)
0x8e0|                           7f                  |         .      |                    bt: "i32" (127) 0x8e9-0x8ea (1)
     |                                               |                |                    in1[0:1]: 0x8ea-0x8ec (2)
     |                                               |                |                      [0]{}: instr 0x8ea-0x8ec (2)
0x8e0|                              41               |          A     |                        opcode: "i32.const" (0x41) 0x8ea-0x8eb (1)
0x8e0|                                 01            |           .    |                        n: 1 (valid) 0x8eb-0x8ec (1)
0x8e0|                                    05         |            .   |                    else: 0x5 (valid) 0x8ec-0x8ed (1)
     |                                               |                |                    in2[0:1]: 0x8ed-0x8ef (2)
     |                                               |                |                      [0]{}: instr 0x8ed-0x8ef (2)
0x8e0|                                       41      |             A  |                        opcode: "i32.const" (0x41) 0x8ed-0x8ee (1)
0x8e0|                                          00   |              . |                        n: 0 (valid) 0x8ee-0x8ef (1)
0x8e0|                                             0b|               .|                    end: 0xb (valid) 0x8ef-0x8f0 (1)
     |                                               |                |                  [3]{}: in 0x8f0-0x8f1 (1)
0x8f0|0b                                             |.               |                    opcode: "end" (0xb) 0x8f0-0x8f1 (1)
     |                                               |                |            [2]{}: code 0x8f1-0x900 (15)
0x8f0|   0e                                          | .              |              size: 14 (valid) 0x8f1-0x8f2 (1)
     |                                               |                |              code{}: 0x8f2-0x900 (14)
     |                                               |                |                t{}: 0x8f2-0x8f3 (1)
0x8f0|      00                                       |  .             |                  n: 0 (valid) 0x8f2-0x8f3 (1)
     |                                               |                |                  x[0:0]: 0x8f3-0x8f3 (0)
     |                                               |                |                e[0:4]: 0x8f3-0x900 (13)
     |                                               |                |                  [0]{}: in 0x8f3-0x8f5 (2)
0x8f0|         20                                    |                |                    opcode: "local.get" (0x20) 0x8f3-0x8f4 (1)
0x8f0|            00                                 |    .           |                    x: 0 (valid) 0x8f4-0x8f5 (1)
     |                                               |                |                  [1]{}: in 0x8f5-0x8f7 (2)
0x8f0|               fd                              |     .          |                    opcode: "vector" (0xfd) 0x8f5-0x8f6 (1)
0x8f0|                  53                           |      S         |                    v_opcode: "v128.any_true" (83) 0x8f6-0x8f7 (1)
     |                                               |                |                  [2]{}: in 0x8f7-0x8ff (8)
0x8f0|                     04                        |       .        |                    opcode: "if" (0x4) 0x8f7-0x8f8 (1)
0x8f0|                        7f                     |        .       |                    bt: "i32" (127) 0x8f8-0x8f9 (1)
     |                                               |                |                    in1[0:1]: 0x8f9-0x8fb (2)
     |                                               |                |                      [0]{}: instr 0x8f9-0x8fb (2)
0x8f0|                           41                  |         A      |                        opcode: "i32.const" (0x41) 0x8f9-0x8fa (1)
0x8f0|                              01               |          .     |                        n: 1 (valid) 0x8fa-0x8fb (1)
0x8f0|                                 05            |           .    |                    else: 0x5 (valid) 0x8fb-0x8fc (1)
     |                                               |                |                    in2[0:1]: 0x8fc-0x8fe (2)
     |                                               |                |                      [0]{}: instr 0x8fc-0x8fe (2)
0x8f0|                                    41         |            A   |                        opcode: "i32.const" (0x41) 0x8fc-0x8fd (1)
0x8f0|                                       00      |             .  |                        n: 0 (valid) 0x8fd-0x8fe (1)
0x8f0|                                          0b   |              . |                    end: 0xb (valid) 0x8fe-0x8ff (1)
     |                                               |                |                  [3]{}: in 0x8ff-0x900 (1)
0x8f0|                                             0b|               .|                    opcode: "end" (0xb) 0x8ff-0x900 (1)
     |                                               |                |            [3]{}: code 0x900-0x90f (15)
0x900|0e                                             |.               |              size: 14 (valid) 0x900-0x901 (1)
     |                                               |                |              code{}: 0x901-0x90f (14)
     |                                               |                |                t{}: 0x901-0x902 (1)
0x900|   00                                          | .              |                  n: 0 (valid) 0x901-0x902 (1)
     |                                               |                |                  x[0:0]: 0x902-0x902 (0)
     |                                               |                |                e[0:4]: 0x902-0x90f (13)
     |                                               |                |                  [0]{}: in 0x902-0x904 (2)
0x900|      20                                       |                |                    opcode: "local.get" (0x20) 0x902-0x903 (1)
0x900|         00                                    |   .            |                    x: 0 (valid) 0x903-0x904 (1)
     |                                               |                |                  [1]{}: in 0x904-0x906 (2)
0x900|            fd                                 |    .           |                    opcode: "vector" (0xfd) 0x904-0x905 (1)
0x900|               63                              |     c          |                    v_opcode: "i8x16.all_true" (99) 0x905-0x906 (1)
     |                                               |                |                  [2]{}: in 0x906-0x90e (8)
0x900|                  04                           |      .         |                    opcode: "if" (0x4) 0x906-0x907 (1)
0x900|                     7f                        |       .        |                    bt: "i32" (127) 0x907-0x908 (1)
     |                                               |                |                    in1[0:1]: 0x908-0x90a (2)
     |                                               |                |                      [0]{}: instr 0x908-0x90a (2)
0x900|                        41                     |        A       |                        opcode: "i32.const" (0x41) 0x908-0x909 (1)
0x900|                           01                  |         .      |                        n: 1 (valid) 0x909-0x90a (1)
0x900|                              05               |          .     |                    else: 0x5 (valid) 0x90a-0x90b (1)
     |                                               |                |                    in2[0:1]: 0x90b-0x90d (2)
     |                                               |                |                      [0]{}: instr 0x90b-0x90d (2)
0x900|                                 41            |           A    |                        opcode: "i32.const" (0x41) 0x90b-0x90c (1)
0x900|                                    00         |            .   |                        n: 0 (valid) 0x90c-0x90d (1)
0x900|                                       0b      |             .  |                    end: 0xb (valid) 0x90d-0x90e (1)
     |                                               |                |                  [3]{}: in 0x90e-0x90f (1)
0x900|                                          0b   |              . |                    opcode: "end" (0xb) 0x90e-0x90f (1)
     |                                               |                |            [4]{}: code 0x90f-0x91f (16)
0x900|                                             0f|               .|              size: 15 (valid) 0x90f-0x910 (1)
     |                                               |                |              code{}: 0x910-0x91f (15)
     |                                               |                |                t{}: 0x910-0x911 (1)
0x910|00                                             |.               |                  n: 0 (valid) 0x910-0x911 (1)
     |                                               |                |                  x[0:0]: 0x911-0x911 (0)
     |                                               |                |                e[0:4]: 0x911-0x91f (14)
     |                                               |                |                  [0]{}: in 0x911-0x913 (2)
0x910|   20                                          |                |                    opcode: "local.get" (0x20) 0x911-0x912 (1)
0x910|      00                                       |  .             |                    x: 0 (valid) 0x912-0x913 (1)
     |                                               |                |                  [1]{}: in 0x913-0x916 (3)
0x910|         fd                                    |   .            |                    opcode: "vector" (0xfd) 0x913-0x914 (1)
0x910|            83 01                              |    ..          |                    v_opcode: "i16x8.all_true" (131) 0x914-0x916 (2)
     |                                               |                |                  [2]{}: in 0x916-0x91e (8)
0x910|                  04                           |      .         |                    opcode: "if" (0x4) 0x916-0x917 (1)
0x910|                     7f                        |       .        |                    bt: "i32" (127) 0x917-0x918 (1)
     |                                               |                |                    in1[0:1]: 0x918-0x91a (2)
     |                                               |                |                      [0]{}: instr 0x918-0x91a (2)
0x910|                        41                     |        A       |                        opcode: "i32.const" (0x41) 0x918-0x919 (1)
0x910|                           01                  |         .      |                        n: 1 (valid) 0x919-0x91a (1)
0x910|                              05               |          .     |                    else: 0x5 (valid) 0x91a-0x91b (1)
     |                                               |                |                    in2[0:1]: 0x91b-0x91d (2)
     |                                               |                |                      [0]{}: instr 0x91b-0x91d (2)
0x910|                                 41            |           A    |                        opcode: "i32.const" (0x41) 0x91b-0x91c (1)
0x910|                                    00         |            .   |                        n: 0 (valid) 0x91c-0x91d (1)
0x910|                                       0b      |             .  |                    end: 0xb (valid) 0x91d-0x91e (1)
     |                                               |                |                  [3]{}: in 0x91e-0x91f (1)
0x910|                                          0b   |              . |                    opcode: "end" (0xb) 0x91e-0x91f (1)
     |                                               |                |            [5]{}: code 0x91f-0x92f (16)
0x910|                                             0f|               .|              size: 15 (valid) 0x91f-0x920 (1)
     |                                               |                |              code{}: 0x920-0x92f (15)
     |                                               |                |                t{}: 0x920-0x921 (1)
0x920|00                                             |.               |                  n: 0 (valid) 0x920-0x921 (1)
     |                                               |                |                  x[0:0]: 0x921-0x921 (0)
     |                                               |                |                e[0:4]: 0x921-0x92f (14)
     |                                               |                |                  [0]{}: in 0x921-0x923 (2)
0x920|   20                                          |                |                    opcode: "local.get" (0x20) 0x921-0x922 (1)
0x920|      00                                       |  .             |                    x: 0 (valid) 0x922-0x923 (1)
     |                                               |                |                  [1]{}: in 0x923-0x926 (3)
0x920|         fd                                    |   .            |                    opcode: "vector" (0xfd) 0x923-0x924 (1)
0x920|            a3 01                              |    ..          |                    v_opcode: "i32x4.all_true" (163) 0x924-0x926 (2)
     |                                               |                |                  [2]{}: in 0x926-0x92e (8)
0x920|                  04                           |      .         |                    opcode: "if" (0x4) 0x926-0x927 (1)
0x920|                     7f                        |       .        |                    bt: "i32" (127) 0x927-0x928 (1)
     |                                               |                |                    in1[0:1]: 0x928-0x92a (2)
     |                                               |                |                      [0]{}: instr 0x928-0x92a (2)
0x920|                        41                     |        A       |                        opcode: "i32.const" (0x41) 0x928-0x929 (1)
0x920|                           01                  |         .      |                        n: 1 (valid) 0x929-0x92a (1)
0x920|                              05               |          .     |                    else: 0x5 (valid) 0x92a-0x92b (1)
     |                                               |                |                    in2[0:1]: 0x92b-0x92d (2)
     |                                               |                |                      [0]{}: instr 0x92b-0x92d (2)
0x920|                                 41            |           A    |                        opcode: "i32.const" (0x41) 0x92b-0x92c (1)
0x920|                                    00         |            .   |                        n: 0 (valid) 0x92c-0x92d (1)
0x920|                                       0b      |             .  |                    end: 0xb (valid) 0x92d-0x92e (1)
     |                                               |                |                  [3]{}: in 0x92e-0x92f (1)
0x920|                                          0b   |              . |                    opcode: "end" (0xb) 0x92e-0x92f (1)
     |                                               |                |            [6]{}: code 0x92f-0x93b (12)
0x920|                                             0b|               .|              size: 11 (valid) 0x92f-0x930 (1)
     |                                               |                |              code{}: 0x930-0x93b (11)
     |                                               |                |                t{}: 0x930-0x931 (1)
0x930|00                                             |.               |                  n: 0 (valid) 0x930-0x931 (1)
     |                                               |                |                  x[0:0]: 0x931-0x931 (0)
     |                                               |                |                e[0:6]: 0x931-0x93b (10)
     |                                               |                |                  [0]{}: in 0x931-0x933 (2)
0x930|   41                                          | A              |                    opcode: "i32.const" (0x41) 0x931-0x932 (1)
0x930|      01                                       |  .             |                    n: 1 (valid) 0x932-0x933 (1)
     |                                               |                |                  [1]{}: in 0x933-0x935 (2)
0x930|         41                                    |   A            |                    opcode: "i32.const" (0x41) 0x933-0x934 (1)
0x930|            00                                 |    .           |                    n: 0 (valid) 0x934-0x935 (1)
     |                                               |                |                  [2]{}: in 0x935-0x937 (2)
0x930|               20                              |                |                    opcode: "local.get" (0x20) 0x935-0x936 (1)
0x930|                  00                           |      .         |                    x: 0 (valid) 0x936-0x937 (1)
     |                                               |                |                  [3]{}: in 0x937-0x939 (2)
0x930|                     fd                        |       .        |                    opcode: "vector" (0xfd) 0x937-0x938 (1)
0x930|                        53                     |        S       |                    v_opcode: "v128.any_true" (83) 0x938-0x939 (1)
     |                                               |                |                  [4]{}: in 0x939-0x93a (1)
0x930|                           1b                  |         .      |                    opcode: "select" (0x1b) 0x939-0x93a (1)
     |                                               |                |                  [5]{}: in 0x93a-0x93b (1)
0x930|                              0b               |          .     |                    opcode: "end" (0xb) 0x93a-0x93b (1)
     |                                               |                |            [7]{}: code 0x93b-0x947 (12)
0x930|                                 0b            |           .    |              size: 11 (valid) 0x93b-0x93c (1)
     |                                               |                |              code{}: 0x93c-0x947 (11)
     |                                               |                |                t{}: 0x93c-0x93d (1)
0x930|                                    00         |            .   |                  n: 0 (valid) 0x93c-0x93d (1)
     |                                               |                |                  x[0:0]: 0x93d-0x93d (0)
     |                                               |                |                e[0:6]: 0x93d-0x947 (10)
     |                                               |                |                  [0]{}: in 0x93d-0x93f (2)
0x930|                                       41      |             A  |                    opcode: "i32.const" (0x41) 0x93d-0x93e (1)
0x930|                                          01   |              . |                    n: 1 (valid) 0x93e-0x93f (1)
     |                                               |                |                  [1]{}: in 0x93f-0x941 (2)
0x930|                                             41|               A|                    opcode: "i32.const" (0x41) 0x93f-0x940 (1)
0x940|00                                             |.               |                    n: 0 (valid) 0x940-0x941 (1)
     |                                               |                |                  [2]{}: in 0x941-0x943 (2)
0x940|   20                                          |                |                    opcode: "local.get" (0x20) 0x941-0x942 (1)
0x940|      00                                       |  .             |                    x: 0 (valid) 0x942-0x943 (1)
     |                                               |                |                  [3]{}: in 0x943-0x945 (2)
0x940|         fd                                    |   .            |                    opcode: "vector" (0xfd) 0x943-0x944 (1)
0x940|            53                                 |    S           |                    v_opcode: "v128.any_true" (83) 0x944-0x945 (1)
     |                                               |                |                  [4]{}: in 0x945-0x946 (1)
0x940|               1b                              |     .          |                    opcode: "select" (0x1b) 0x945-0x946 (1)
     |                                               |                |                  [5]{}: in 0x946-0x947 (1)
0x940|                  0b                           |      .         |                    opcode: "end" (0xb) 0x946-0x947 (1)
     |                                               |                |            [8]{}: code 0x947-0x953 (12)
0x940|                     0b                        |       .        |              size: 11 (valid) 0x947-0x948 (1)
     |                                               |                |              code{}: 0x948-0x953 (11)
     |                                               |                |                t{}: 0x948-0x949 (1)
0x940|                        00                     |        .       |                  n: 0 (valid) 0x948-0x949 (1)
     |                                               |                |                  x[0:0]: 0x949-0x949 (0)
     |                                               |                |                e[0:6]: 0x949-0x953 (10)
     |                                               |                |                  [0]{}: in 0x949-0x94b (2)
0x940|                           41                  |         A      |                    opcode: "i32.const" (0x41) 0x949-0x94a (1)
0x940|                              01               |          .     |                    n: 1 (valid) 0x94a-0x94b (1)
     |                                               |                |                  [1]{}: in 0x94b-0x94d (2)
0x940|                                 41            |           A    |                    opcode: "i32.const" (0x41) 0x94b-0x94c (1)
0x940|                                    00         |            .   |                    n: 0 (valid) 0x94c-0x94d (1)
     |                                               |                |                  [2]{}: in 0x94d-0x94f (2)
0x940|                                       20      |                |                    opcode: "local.get" (0x20) 0x94d-0x94e (1)
0x940|                                          00   |              . |                    x: 0 (valid) 0x94e-0x94f (1)
     |                                               |                |                  [3]{}: in 0x94f-0x951 (2)
0x940|                                             fd|               .|                    opcode: "vector" (0xfd) 0x94f-0x950 (1)
0x950|53                                             |S               |                    v_opcode: "v128.any_true" (83) 0x950-0x951 (1)
     |                                               |                |                  [4]{}: in 0x951-0x952 (1)
0x950|   1b                                          | .              |                    opcode: "select" (0x1b) 0x951-0x952 (1)
     |                                               |                |                  [5]{}: in 0x952-0x953 (1)
0x950|      0b                                       |  .             |                    opcode: "end" (0xb) 0x952-0x953 (1)
     |                                               |                |            [9]{}: code 0x953-0x95f (12)
0x950|         0b                                    |   .            |              size: 11 (valid) 0x953-0x954 (1)
     |                                               |                |              code{}: 0x954-0x95f (11)
     |                                               |                |                t{}: 0x954-0x955 (1)
0x950|            00                                 |    .           |                  n: 0 (valid) 0x954-0x955 (1)
     |                                               |                |                  x[0:0]: 0x955-0x955 (0)
     |                                               |                |                e[0:6]: 0x955-0x95f (10)
     |                                               |                |                  [0]{}: in 0x955-0x957 (2)
0x950|               41                              |     A          |                    opcode: "i32.const" (0x41) 0x955-0x956 (1)
0x950|                  01                           |      .         |                    n: 1 (valid) 0x956-0x957 (1)
     |                                               |                |                  [1]{}: in 0x957-0x959 (2)
0x950|                     41                        |       A        |                    opcode: "i32.const" (0x41) 0x957-0x958 (1)
0x950|                        00                     |        .       |                    n: 0 (valid) 0x958-0x959 (1)
     |                                               |                |                  [2]{}: in 0x959-0x95b (2)
0x950|                           20                  |                |                    opcode: "local.get" (0x20) 0x959-0x95a (1)
0x950|                              00               |          .     |                    x: 0 (valid) 0x95a-0x95b (1)
     |                                               |                |                  [3]{}: in 0x95b-0x95d (2)
0x950|                                 fd            |           .    |                    opcode: "vector" (0xfd) 0x95b-0x95c (1)
0x950|                                    63         |            c   |                    v_opcode: "i8x16.all_true" (99) 0x95c-0x95d (1)
     |                                               |                |                  [4]{}: in 0x95d-0x95e (1)
0x950|                                       1b      |             .  |                    opcode: "select" (0x1b) 0x95d-0x95e (1)
     |                                               |                |                  [5]{}: in 0x95e-0x95f (1)
0x950|                                          0b   |              . |                    opcode: "end" (0xb) 0x95e-0x95f (1)
     |                                               |                |            [10]{}: code 0x95f-0x96c (13)
0x950|                                             0c|               .|              size: 12 (valid) 0x95f-0x960 (1)
     |                                               |                |              code{}: 0x960-0x96c (12)
     |                                               |                |                t{}: 0x960-0x961 (1)
0x960|00                                             |.               |                  n: 0 (valid) 0x960-0x961 (1)
     |                                               |                |                  x[0:0]: 0x961-0x961 (0)
     |                                               |                |                e[0:6]: 0x961-0x96c (11)
     |                                               |                |                  [0]{}: in 0x961-0x963 (2)
0x960|   41                                          | A              |                    opcode: "i32.const" (0x41) 0x961-0x962 (1)
0x960|      01                                       |  .             |                    n: 1 (valid) 0x962-0x963 (1)
     |                                               |                |                  [1]{}: in 0x963-0x965 (2)
0x960|         41                                    |   A            |                    opcode: "i32.const" (0x41) 0x963-0x964 (1)
0x960|            00                                 |    .           |                    n: 0 (valid) 0x964-0x965 (1)
     |                                               |                |                  [2]{}: in 0x965-0x967 (2)
0x960|               20                              |                |                    opcode: "local.get" (0x20) 0x965-0x966 (1)
0x960|                  00                           |      .         |                    x: 0 (valid) 0x966-0x967 (1)
     |                                               |                |                  [3]{}: in 0x967-0x96a (3)
0x960|                     fd                        |       .        |                    opcode: "vector" (0xfd) 0x967-0x968 (1)
0x960|                        83 01                  |        ..      |                    v_opcode: "i16x8.all_true" (131) 0x968-0x96a (2)
     |                                               |                |                  [4]{}: in 0x96a-0x96b (1)
0x960|                              1b               |          .     |                    opcode: "select" (0x1b) 0x96a-0x96b (1)
     |                                               |                |                  [5]{}: in 0x96b-0x96c (1)
0x960|                                 0b            |           .    |                    opcode: "end" (0xb) 0x96b-0x96c (1)
     |                                               |                |            [11]{}: code 0x96c-0x979 (13)
0x960|                                    0c         |            .   |              size: 12 (valid) 0x96c-0x96d (1)
     |                                               |                |              code{}: 0x96d-0x979 (12)
     |                                               |                |                t{}: 0x96d-0x96e (1)
0x960|                                       00      |             .  |                  n: 0 (valid) 0x96d-0x96e (1)
     |                                               |                |                  x[0:0]: 0x96e-0x96e (0)
     |                                               |                |                e[0:6]: 0x96e-0x979 (11)
     |                                               |                |                  [0]{}: in 0x96e-0x970 (2)
0x960|                                          41   |              A |                    opcode: "i32.const" (0x41) 0x96e-0x96f (1)
0x960|                                             01|               .|                    n: 1 (valid) 0x96f-0x970 (1)
     |                                               |                |                  [1]{}: in 0x970-0x972 (2)
0x970|41                                             |A               |                    opcode: "i32.const" (0x41) 0x970-0x971 (1)
0x970|   00                                          | .              |                    n: 0 (valid) 0x971-0x972 (1)
     |                                               |                |                  [2]{}: in 0x972-0x974 (2)
0x970|      20                                       |                |                    opcode: "local.get" (0x20) 0x972-0x973 (1)
0x970|         00                                    |   .            |                    x: 0 (valid) 0x973-0x974 (1)
     |                                               |                |                  [3]{}: in 0x974-0x977 (3)
0x970|            fd                                 |    .           |                    opcode: "vector" (0xfd) 0x974-0x975 (1)
0x970|               a3 01                           |     ..         |                    v_opcode: "i32x4.all_true" (163) 0x975-0x977 (2)
     |                                               |                |                  [4]{}: in 0x977-0x978 (1)
0x970|                     1b                        |       .        |                    opcode: "select" (0x1b) 0x977-0x978 (1)
     |                                               |                |                  [5]{}: in 0x978-0x979 (1)
0x970|                        0b                     |        .       |                    opcode: "end" (0xb) 0x978-0x979 (1)
     |                                               |                |            [12]{}: code 0x979-0x995 (28)
0x970|                           1b                  |         .      |              size: 27 (valid) 0x979-0x97a (1)
     |                                               |                |              code{}: 0x97a-0x995 (27)
     |                                               |                |                t{}: 0x97a-0x97d (3)
0x970|                              01               |          .     |                  n: 1 (valid) 0x97a-0x97b (1)
     |                                               |                |                  x[0:1]: 0x97b-0x97d (2)
     |                                               |                |                    [0]{}: t 0x97b-0x97d (2)
0x970|                                 01            |           .    |                      n: 1 (valid) 0x97b-0x97c (1)
0x970|                                    7f         |            .   |                      t: "i32" (0x7f) 0x97c-0x97d (1)
     |                                               |                |                e[0:5]: 0x97d-0x995 (24)
     |                                               |                |                  [0]{}: in 0x97d-0x97f (2)
0x970|                                       41      |             A  |                    opcode: "i32.const" (0x41) 0x97d-0x97e (1)
0x970|                                          02   |              . |                    n: 2 (valid) 0x97e-0x97f (1)
     |                                               |                |                  [1]{}: in 0x97f-0x981 (2)
0x970|                                             21|               !|                    opcode: "local.set" (0x21) 0x97f-0x980 (1)
0x980|01                                             |.               |                    x: 1 (valid) 0x980-0x981 (1)
     |                                               |                |                  [2]{}: in 0x981-0x992 (17)
0x980|   02                                          | .              |                    opcode: "block" (0x2) 0x981-0x982 (1)
0x980|      40                                       |  @             |                    bt: "ε" (64) 0x982-0x983 (1)
     |                                               |                |                    instructions[0:7]: 0x983-0x991 (14)
     |                                               |                |                      [0]{}: instr 0x983-0x985 (2)
0x980|         41                                    |   A            |                        opcode: "i32.const" (0x41) 0x983-0x984 (1)
0x980|            01                                 |    .           |                        n: 1 (valid) 0x984-0x985 (1)
     |                                               |                |                      [1]{}: instr 0x985-0x987 (2)
0x980|               21                              |     !          |                        opcode: "local.set" (0x21) 0x985-0x986 (1)
0x980|                  01                           |      .         |                        x: 1 (valid) 0x986-0x987 (1)
     |                                               |                |                      [2]{}: instr 0x987-0x989 (2)
0x980|                     20                        |                |                        opcode: "local.get" (0x20) 0x987-0x988 (1)
0x980|                        00                     |        .       |                        x: 0 (valid) 0x988-0x989 (1)
     |                                               |                |                      [3]{}: instr 0x989-0x98b (2)
0x980|                           fd                  |         .      |                        opcode: "vector" (0xfd) 0x989-0x98a (1)
0x980|                              53               |          S     |                        v_opcode: "v128.any_true" (83) 0x98a-0x98b (1)
     |                                               |                |                      [4]{}: instr 0x98b-0x98d (2)
0x980|                                 0d            |           .    |                        opcode: "br_if" (0xd) 0x98b-0x98c (1)
0x980|                                    00         |            .   |                        l: 0 (valid) 0x98c-0x98d (1)
     |                                               |                |                      [5]{}: instr 0x98d-0x98f (2)
0x980|                                       41      |             A  |                        opcode: "i32.const" (0x41) 0x98d-0x98e (1)
0x980|                                          00   |              . |                        n: 0 (valid) 0x98e-0x98f (1)
     |                                               |                |                      [6]{}: instr 0x98f-0x991 (2)
0x980|                                             21|               !|                        opcode: "local.set" (0x21) 0x98f-0x990 (1)
0x990|01                                             |.               |                        x: 1 (valid) 0x990-0x991 (1)
0x990|   0b                                          | .              |                    end: 0xb (valid) 0x991-0x992 (1)
     |                                               |                |                  [3]{}: in 0x992-0x994 (2)
0x990|      20                                       |                |                    opcode: "local.get" (0x20) 0x992-0x993 (1)
0x990|         01                                    |   .            |                    x: 1 (valid) 0x993-0x994 (1)
     |                                               |                |                  [4]{}: in 0x994-0x995 (1)
0x990|            0b                                 |    .           |                    opcode: "end" (0xb) 0x994-0x995 (1)
     |                                               |                |            [13]{}: code 0x995-0x9b1 (28)
0x990|               1b                              |     .          |              size: 27 (valid) 0x995-0x996 (1)
     |                                               |                |              code{}: 0x996-0x9b1 (27)
     |                                               |                |                t{}: 0x996-0x999 (3)
0x990|                  01                           |      .         |                  n: 1 (valid) 0x996-0x997 (1)
     |                                               |                |                  x[0:1]: 0x997-0x999 (2)
     |                                               |                |                    [0]{}: t 0x997-0x999 (2)
0x990|                     01                        |       .        |                      n: 1 (valid) 0x997-0x998 (1)
0x990|                        7f                     |        .       |                      t: "i32" (0x7f) 0x998-0x999 (1)
     |                                               |                |                e[0:5]: 0x999-0x9b1 (24)
     |                                               |                |                  [0]{}: in 0x999-0x99b (2)
0x990|                           41                  |         A      |                    opcode: "i32.const" (0x41) 0x999-0x99a (1)
0x990|                              02               |          .     |                    n: 2 (valid) 0x99a-0x99b (1)
     |                                               |                |                  [1]{}: in 0x99b-0x99d (2)
0x990|                                 21            |           !    |                    opcode: "local.set" (0x21) 0x99b-0x99c (1)
0x990|                                    01         |            .   |                    x: 1 (valid) 0x99c-0x99d (1)
     |                                               |                |                  [2]{}: in 0x99d-0x9ae (17)
0x990|                                       02      |             .  |                    opcode: "block" (0x2) 0x99d-0x99e (1)
0x990|                                          40   |              @ |                    bt: "ε" (64) 0x99e-0x99f (1)
     |                                               |                |                    instructions[0:7]: 0x99f-0x9ad (14)
     |                                               |                |                      [0]{}: instr 0x99f-0x9a1 (2)
0x990|                                             41|               A|                        opcode: "i32.const" (0x41) 0x99f-0x9a0 (1)
0x9a0|01                                             |.               |                        n: 1 (valid) 0x9a0-0x9a1 (1)
     |                                               |                |                      [1]{}: instr 0x9a1-0x9a3 (2)
0x9a0|   21                                          | !              |                        opcode: "local.set" (0x21) 0x9a1-0x9a2 (1)
0x9a0|      01                                       |  .             |                        x: 1 (valid) 0x9a2-0x9a3 (1)
     |                                               |                |                      [2]{}: instr 0x9a3-0x9a5 (2)
0x9a0|         20                                    |                |                        opcode: "local.get" (0x20) 0x9a3-0x9a4 (1)
0x9a0|            00                                 |    .           |                        x: 0 (valid) 0x9a4-0x9a5 (1)
     |                                               |                |                      [3]{}: instr 0x9a5-0x9a7 (2)
0x9a0|               fd                              |     .          |                        opcode: "vector" (0xfd) 0x9a5-0x9a6 (1)
0x9a0|                  53                           |      S         |                        v_opcode: "v128.any_true" (83) 0x9a6-0x9a7 (1)
     |                                               |                |                      [4]{}: instr 0x9a7-0x9a9 (2)
0x9a0|                     0d                        |       .        |                        opcode: "br_if" (0xd) 0x9a7-0x9a8 (1)
0x9a0|                        00                     |        .       |                        l: 0 (valid) 0x9a8-0x9a9 (1)
     |                                               |                |                      [5]{}: instr 0x9a9-0x9ab (2)
0x9a0|                           41                  |         A      |                        opcode: "i32.const" (0x41) 0x9a9-0x9aa (1)
0x9a0|                              00               |          .     |                        n: 0 (valid) 0x9aa-0x9ab (1)
     |                                               |                |                      [6]{}: instr 0x9ab-0x9ad (2)
0x9a0|                                 21            |           !    |                        opcode: "local.set" (0x21) 0x9ab-0x9ac (1)
0x9a0|                                    01         |            .   |                        x: 1 (valid) 0x9ac-0x9ad (1)
0x9a0|                                       0b      |             .  |                    end: 0xb (valid) 0x9ad-0x9ae (1)
     |                                               |                |                  [3]{}: in 0x9ae-0x9b0 (2)
0x9a0|                                          20   |                |                    opcode: "local.get" (0x20) 0x9ae-0x9af (1)
0x9a0|                                             01|               .|                    x: 1 (valid) 0x9af-0x9b0 (1)
     |                                               |                |                  [4]{}: in 0x9b0-0x9b1 (1)
0x9b0|0b                                             |.               |                    opcode: "end" (0xb) 0x9b0-0x9b1 (1)
     |                                               |                |            [14]{}: code 0x9b1-0x9cd (28)
0x9b0|   1b                                          | .              |              size: 27 (valid) 0x9b1-0x9b2 (1)
     |                                               |                |              code{}: 0x9b2-0x9cd (27)
     |                                               |                |                t{}: 0x9b2-0x9b5 (3)
0x9b0|      01                                       |  .             |                  n: 1 (valid) 0x9b2-0x9b3 (1)
     |                                               |                |                  x[0:1]: 0x9b3-0x9b5 (2)
     |                                               |                |                    [0]{}: t 0x9b3-0x9b5 (2)
0x9b0|         01                                    |   .            |                      n: 1 (valid) 0x9b3-0x9b4 (1)
0x9b0|            7f                                 |    .           |                      t: "i32" (0x7f) 0x9b4-0x9b5 (1)
     |                                               |                |                e[0:5]: 0x9b5-0x9cd (24)
     |                                               |                |                  [0]{}: in 0x9b5-0x9b7 (2)
0x9b0|               41                              |     A          |                    opcode: "i32.const" (0x41) 0x9b5-0x9b6 (1)
0x9b0|                  02                           |      .         |                    n: 2 (valid) 0x9b6-0x9b7 (1)
     |                                               |                |                  [1]{}: in 0x9b7-0x9b9 (2)
0x9b0|                     21                        |       !        |                    opcode: "local.set" (0x21) 0x9b7-0x9b8 (1)
0x9b0|                        01                     |        .       |                    x: 1 (valid) 0x9b8-0x9b9 (1)
     |                                               |                |                  [2]{}: in 0x9b9-0x9ca (17)
0x9b0|                           02                  |         .      |                    opcode: "block" (0x2) 0x9b9-0x9ba (1)
0x9b0|                              40               |          @     |                    bt: "ε" (64) 0x9ba-0x9bb (1)
     |                                               |                |                    instructions[0:7]: 0x9bb-0x9c9 (14)
     |                                               |                |                      [0]{}: instr 0x9bb-0x9bd (2)
0x9b0|                                 41            |           A    |                        opcode: "i32.const" (0x41) 0x9bb-0x9bc (1)
0x9b0|                                    01         |            .   |                        n: 1 (valid) 0x9bc-0x9bd (1)
     |                                               |                |                      [1]{}: instr 0x9bd-0x9bf (2)
0x9b0|                                       21      |             !  |                        opcode: "local.set" (0x21) 0x9bd-0x9be (1)
0x9b0|                                          01   |              . |                        x: 1 (valid) 0x9be-0x9bf (1)
     |                                               |                |                      [2]{}: instr 0x9bf-0x9c1 (2)
0x9b0|                                             20|                |                        opcode: "local.get" (0x20) 0x9bf-0x9c0 (1)
0x9c0|00                                             |.               |                        x: 0 (valid) 0x9c0-0x9c1 (1)
     |                                               |                |                      [3]{}: instr 0x9c1-0x9c3 (2)
0x9c0|   fd                                          | .              |                        opcode: "vector" (0xfd) 0x9c1-0x9c2 (1)
0x9c0|      53                                       |  S             |                        v_opcode: "v128.any_true" (83) 0x9c2-0x9c3 (1)
     |                                               |                |                      [4]{}: instr 0x9c3-0x9c5 (2)
0x9c0|         0d                                    |   .            |                        opcode: "br_if" (0xd) 0x9c3-0x9c4 (1)
0x9c0|            00                                 |    .           |                        l: 0 (valid) 0x9c4-0x9c5 (1)
     |                                               |                |                      [5]{}: instr 0x9c5-0x9c7 (2)
0x9c0|               41                              |     A          |                        opcode: "i32.const" (0x41) 0x9c5-0x9c6 (1)
0x9c0|                  00                           |      .         |                        n: 0 (valid) 0x9c6-0x9c7 (1)
     |                                               |                |                      [6]{}: instr 0x9c7-0x9c9 (2)
0x9c0|                     21                        |       !        |                        opcode: "local.set" (0x21) 0x9c7-0x9c8 (1)
0x9c0|                        01                     |        .       |                        x: 1 (valid) 0x9c8-0x9c9 (1)
0x9c0|                           0b                  |         .      |                    end: 0xb (valid) 0x9c9-0x9ca (1)
     |                                               |                |                  [3]{}: in 0x9ca-0x9cc (2)
0x9c0|                              20               |                |                    opcode: "local.get" (0x20) 0x9ca-0x9cb (1)
0x9c0|                                 01            |           .    |                    x: 1 (valid) 0x9cb-0x9cc (1)
     |                                               |                |                  [4]{}: in 0x9cc-0x9cd (1)
0x9c0|                                    0b         |            .   |                    opcode: "end" (0xb) 0x9cc-0x9cd (1)
     |                                               |                |            [15]{}: code 0x9cd-0x9e9 (28)
0x9c0|                                       1b      |             .  |              size: 27 (valid) 0x9cd-0x9ce (1)
     |                                               |                |              code{}: 0x9ce-0x9e9 (27)
     |                                               |                |                t{}: 0x9ce-0x9d1 (3)
0x9c0|                                          01   |              . |                  n: 1 (valid) 0x9ce-0x9cf (1)
     |                                               |                |                  x[0:1]: 0x9cf-0x9d1 (2)
     |                                               |                |                    [0]{}: t 0x9cf-0x9d1 (2)
0x9c0|                                             01|               .|                      n: 1 (valid) 0x9cf-0x9d0 (1)
0x9d0|7f                                             |.               |                      t: "i32" (0x7f) 0x9d0-0x9d1 (1)
     |                                               |                |                e[0:5]: 0x9d1-0x9e9 (24)
     |                                               |                |                  [0]{}: in 0x9d1-0x9d3 (2)
0x9d0|   41                                          | A              |                    opcode: "i32.const" (0x41) 0x9d1-0x9d2 (1)
0x9d0|      02                                       |  .             |                    n: 2 (valid) 0x9d2-0x9d3 (1)
     |                                               |                |                  [1]{}: in 0x9d3-0x9d5 (2)
0x9d0|         21                                    |   !            |                    opcode: "local.set" (0x21) 0x9d3-0x9d4 (1)
0x9d0|            01                                 |    .           |                    x: 1 (valid) 0x9d4-0x9d5 (1)
     |                                               |                |                  [2]{}: in 0x9d5-0x9e6 (17)
0x9d0|               02                              |     .          |                    opcode: "block" (0x2) 0x9d5-0x9d6 (1)
0x9d0|                  40                           |      @         |                    bt: "ε" (64) 0x9d6-0x9d7 (1)
     |                                               |                |                    instructions[0:7]: 0x9d7-0x9e5 (14)
     |                                               |                |                      [0]{}: instr 0x9d7-0x9d9 (2)
0x9d0|                     41                        |       A        |                        opcode: "i32.const" (0x41) 0x9d7-0x9d8 (1)
0x9d0|                        01                     |        .       |                        n: 1 (valid) 0x9d8-0x9d9 (1)
     |                                               |                |                      [1]{}: instr 0x9d9-0x9db (2)
0x9d0|                           21                  |         !      |                        opcode: "local.set" (0x21) 0x9d9-0x9da (1)
0x9d0|                              01               |          .     |                        x: 1 (valid) 0x9da-0x9db (1)
     |                                               |                |                      [2]{}: instr 0x9db-0x9dd (2)
0x9d0|                                 20            |                |                        opcode: "local.get" (0x20) 0x9db-0x9dc (1)
0x9d0|                                    00         |            .   |                        x: 0 (valid) 0x9dc-0x9dd (1)
     |                                               |                |                      [3]{}: instr 0x9dd-0x9df (2)
0x9d0|                                       fd      |             .  |                        opcode: "vector" (0xfd) 0x9dd-0x9de (1)
0x9d0|                                          63   |              c |                        v_opcode: "i8x16.all_true" (99) 0x9de-0x9df (1)
     |                                               |                |                      [4]{}: instr 0x9df-0x9e1 (2)
0x9d0|                                             0d|               .|                        opcode: "br_if" (0xd) 0x9df-0x9e0 (1)
0x9e0|00                                             |.               |                        l: 0 (valid) 0x9e0-0x9e1 (1)
     |                                               |                |                      [5]{}: instr 0x9e1-0x9e3 (2)
0x9e0|   41                                          | A              |                        opcode: "i32.const" (0x41) 0x9e1-0x9e2 (1)
0x9e0|      00                                       |  .             |                        n: 0 (valid) 0x9e2-0x9e3 (1)
     |                                               |                |                      [6]{}: instr 0x9e3-0x9e5 (2)
0x9e0|         21                                    |   !            |                        opcode: "local.set" (0x21) 0x9e3-0x9e4 (1)
0x9e0|            01                                 |    .           |                        x: 1 (valid) 0x9e4-0x9e5 (1)
0x9e0|               0b                              |     .          |                    end: 0xb (valid) 0x9e5-0x9e6 (1)
     |                                               |                |                  [3]{}: in 0x9e6-0x9e8 (2)
0x9e0|                  20                           |                |                    opcode: "local.get" (0x20) 0x9e6-0x9e7 (1)
0x9e0|                     01                        |       .        |                    x: 1 (valid) 0x9e7-0x9e8 (1)
     |                                               |                |                  [4]{}: in 0x9e8-0x9e9 (1)
0x9e0|                        0b                     |        .       |                    opcode: "end" (0xb) 0x9e8-0x9e9 (1)
     |                                               |                |            [16]{}: code 0x9e9-0xa06 (29)
0x9e0|                           1c                  |         .      |              size: 28 (valid) 0x9e9-0x9ea (1)
     |                                               |                |              code{}: 0x9ea-0xa06 (28)
     |                                               |                |                t{}: 0x9ea-0x9ed (3)
0x9e0|                              01               |          .     |                  n: 1 (valid) 0x9ea-0x9eb (1)
     |                                               |                |                  x[0:1]: 0x9eb-0x9ed (2)
     |                                               |                |                    [0]{}: t 0x9eb-0x9ed (2)
0x9e0|                                 01            |           .    |                      n: 1 (valid) 0x9eb-0x9ec (1)
0x9e0|                                    7f         |            .   |                      t: "i32" (0x7f) 0x9ec-0x9ed (1)
     |                                               |                |                e[0:5]: 0x9ed-0xa06 (25)
     |                                               |                |                  [0]{}: in 0x9ed-0x9ef (2)
0x9e0|                                       41      |             A  |                    opcode: "i32.const" (0x41) 0x9ed-0x9ee (1)
0x9e0|                                          02   |              . |                    n: 2 (valid) 0x9ee-0x9ef (1)
     |                                               |                |                  [1]{}: in 0x9ef-0x9f1 (2)
0x9e0|                                             21|               !|                    opcode: "local.set" (0x21) 0x9ef-0x9f0 (1)
0x9f0|01                                             |.               |                    x: 1 (valid) 0x9f0-0x9f1 (1)
     |                                               |                |                  [2]{}: in 0x9f1-0xa03 (18)
0x9f0|   02                                          | .              |                    opcode: "block" (0x2) 0x9f1-0x9f2 (1)
0x9f0|      40                                       |  @             |                    bt: "ε" (64) 0x9f2-0x9f3 (1)
     |                                               |                |                    instructions[0:7]: 0x9f3-0xa02 (15)
     |                                               |                |                      [0]{}: instr 0x9f3-0x9f5 (2)
0x9f0|         41                                    |   A            |                        opcode: "i32.const" (0x41) 0x9f3-0x9f4 (1)
0x9f0|            01                                 |    .           |                        n: 1 (valid) 0x9f4-0x9f5 (1)
     |                                               |                |                      [1]{}: instr 0x9f5-0x9f7 (2)
0x9f0|               21                              |     !          |                        opcode: "local.set" (0x21) 0x9f5-0x9f6 (1)
0x9f0|                  01                           |      .         |                        x: 1 (valid) 0x9f6-0x9f7 (1)
     |                                               |                |                      [2]{}: instr 0x9f7-0x9f9 (2)
0x9f0|                     20                        |                |                        opcode: "local.get" (0x20) 0x9f7-0x9f8 (1)
0x9f0|                        00                     |        .       |                        x: 0 (valid) 0x9f8-0x9f9 (1)
     |                                               |                |                      [3]{}: instr 0x9f9-0x9fc (3)
0x9f0|                           fd                  |         .      |                        opcode: "vector" (0xfd) 0x9f9-0x9fa (1)
0x9f0|                              83 01            |          ..    |                        v_opcode: "i16x8.all_true" (131) 0x9fa-0x9fc (2)
     |                                               |                |                      [4]{}: instr 0x9fc-0x9fe (2)
0x9f0|                                    0d         |            .   |                        opcode: "br_if" (0xd) 0x9fc-0x9fd (1)
0x9f0|                                       00      |             .  |                        l: 0 (valid) 0x9fd-0x9fe (1)
     |                                               |                |                      [5]{}: instr 0x9fe-0xa00 (2)
0x9f0|                                          41   |              A |                        opcode: "i32.const" (0x41) 0x9fe-0x9ff (1)
0x9f0|                                             00|               .|                        n: 0 (valid) 0x9ff-0xa00 (1)
     |                                               |                |                      [6]{}: instr 0xa00-0xa02 (2)
0xa00|21                                             |!               |                        opcode: "local.set" (0x21) 0xa00-0xa01 (1)
0xa00|   01                                          | .              |                        x: 1 (valid) 0xa01-0xa02 (1)
0xa00|      0b                                       |  .             |                    end: 0xb (valid) 0xa02-0xa03 (1)
     |                                               |                |                  [3]{}: in 0xa03-0xa05 (2)
0xa00|         20                                    |                |                    opcode: "local.get" (0x20) 0xa03-0xa04 (1)
0xa00|            01                                 |    .           |                    x: 1 (valid) 0xa04-0xa05 (1)
     |                                               |                |                  [4]{}: in 0xa05-0xa06 (1)
0xa00|               0b                              |     .          |                    opcode: "end" (0xb) 0xa05-0xa06 (1)
     |                                               |                |            [17]{}: code 0xa06-0xa23 (29)
0xa00|                  1c                           |      .         |              size: 28 (valid) 0xa06-0xa07 (1)
     |                                               |                |              code{}: 0xa07-0xa23 (28)
     |                                               |                |                t{}: 0xa07-0xa0a (3)
0xa00|                     01                        |       .        |                  n: 1 (valid) 0xa07-0xa08 (1)
     |                                               |                |                  x[0:1]: 0xa08-0xa0a (2)
     |                                               |                |                    [0]{}: t 0xa08-0xa0a (2)
0xa00|                        01                     |        .       |                      n: 1 (valid) 0xa08-0xa09 (1)
0xa00|                           7f                  |         .      |                      t: "i32" (0x7f) 0xa09-0xa0a (1)
     |                                               |                |                e[0:5]: 0xa0a-0xa23 (25)
     |                                               |                |                  [0]{}: in 0xa0a-0xa0c (2)
0xa00|                              41               |          A     |                    opcode: "i32.const" (0x41) 0xa0a-0xa0b (1)
0xa00|                                 02            |           .    |                    n: 2 (valid) 0xa0b-0xa0c (1)
     |                                               |                |                  [1]{}: in 0xa0c-0xa0e (2)
0xa00|                                    21         |            !   |                    opcode: "local.set" (0x21) 0xa0c-0xa0d (1)
0xa00|                                       01      |             .  |                    x: 1 (valid) 0xa0d-0xa0e (1)
     |                                               |                |                  [2]{}: in 0xa0e-0xa20 (18)
0xa00|                                          02   |              . |                    opcode: "block" (0x2) 0xa0e-0xa0f (1)
0xa00|                                             40|               @|                    bt: "ε" (64) 0xa0f-0xa10 (1)
     |                                               |                |                    instructions[0:7]: 0xa10-0xa1f (15)
     |                                               |                |                      [0]{}: instr 0xa10-0xa12 (2)
0xa10|41                                             |A               |                        opcode: "i32.const" (0x41) 0xa10-0xa11 (1)
0xa10|   01                                          | .              |                        n: 1 (valid) 0xa11-0xa12 (1)
     |                                               |                |                      [1]{}: instr 0xa12-0xa14 (2)
0xa10|      21                                       |  !             |                        opcode: "local.set" (0x21) 0xa12-0xa13 (1)
0xa10|         01                                    |   .            |                        x: 1 (valid) 0xa13-0xa14 (1)
     |                                               |                |                      [2]{}: instr 0xa14-0xa16 (2)
0xa10|            20                                 |                |                        opcode: "local.get" (0x20) 0xa14-0xa15 (1)
0xa10|               00                              |     .          |                        x: 0 (valid) 0xa15-0xa16 (1)
     |                                               |                |                      [3]{}: instr 0xa16-0xa19 (3)
0xa10|                  fd                           |      .         |                        opcode: "vector" (0xfd) 0xa16-0xa17 (1)
0xa10|                     a3 01                     |       ..       |                        v_opcode: "i32x4.all_true" (163) 0xa17-0xa19 (2)
     |                                               |                |                      [4]{}: instr 0xa19-0xa1b (2)
0xa10|                           0d                  |         .      |                        opcode: "br_if" (0xd) 0xa19-0xa1a (1)
0xa10|                              00               |          .     |                        l: 0 (valid) 0xa1a-0xa1b (1)
     |                                               |                |                      [5]{}: instr 0xa1b-0xa1d (2)
0xa10|                                 41            |           A    |                        opcode: "i32.const" (0x41) 0xa1b-0xa1c (1)
0xa10|                                    00         |            .   |                        n: 0 (valid) 0xa1c-0xa1d (1)
     |                                               |                |                      [6]{}: instr 0xa1d-0xa1f (2)
0xa10|                                       21      |             !  |                        opcode: "local.set" (0x21) 0xa1d-0xa1e (1)
0xa10|                                          01   |              . |                        x: 1 (valid) 0xa1e-0xa1f (1)
0xa10|                                             0b|               .|                    end: 0xb (valid) 0xa1f-0xa20 (1)
     |                                               |                |                  [3]{}: in 0xa20-0xa22 (2)
0xa20|20                                             |                |                    opcode: "local.get" (0x20) 0xa20-0xa21 (1)
0xa20|   01                                          | .              |                    x: 1 (valid) 0xa21-0xa22 (1)
     |                                               |                |                  [4]{}: in 0xa22-0xa23 (1)
0xa20|      0b                                       |  .             |                    opcode: "end" (0xb) 0xa22-0xa23 (1)
     |                                               |                |            [18]{}: code 0xa23-0xa2f (12)
0xa20|         0b                                    |   .            |              size: 11 (valid) 0xa23-0xa24 (1)
     |                                               |                |              code{}: 0xa24-0xa2f (11)
     |                                               |                |                t{}: 0xa24-0xa25 (1)
0xa20|            00                                 |    .           |                  n: 0 (valid) 0xa24-0xa25 (1)
     |                                               |                |                  x[0:0]: 0xa25-0xa25 (0)
     |                                               |                |                e[0:6]: 0xa25-0xa2f (10)
     |                                               |                |                  [0]{}: in 0xa25-0xa27 (2)
0xa20|               20                              |                |                    opcode: "local.get" (0x20) 0xa25-0xa26 (1)
0xa20|                  00                           |      .         |                    x: 0 (valid) 0xa26-0xa27 (1)
     |                                               |                |                  [1]{}: in 0xa27-0xa29 (2)
0xa20|                     fd                        |       .        |                    opcode: "vector" (0xfd) 0xa27-0xa28 (1)
0xa20|                        53                     |        S       |                    v_opcode: "v128.any_true" (83) 0xa28-0xa29 (1)
     |                                               |                |                  [2]{}: in 0xa29-0xa2b (2)
0xa20|                           20                  |                |                    opcode: "local.get" (0x20) 0xa29-0xa2a (1)
0xa20|                              01               |          .     |                    x: 1 (valid) 0xa2a-0xa2b (1)
     |                                               |                |                  [3]{}: in 0xa2b-0xa2d (2)
0xa20|                                 fd            |           .    |                    opcode: "vector" (0xfd) 0xa2b-0xa2c (1)
0xa20|                                    53         |            S   |                    v_opcode: "v128.any_true" (83) 0xa2c-0xa2d (1)
     |                                               |                |                  [4]{}: in 0xa2d-0xa2e (1)
0xa20|                                       71      |             q  |                    opcode: "i32.and" (0x71) 0xa2d-0xa2e (1)
     |                                               |                |                  [5]{}: in 0xa2e-0xa2f (1)
0xa20|                                          0b   |              . |                    opcode: "end" (0xb) 0xa2e-0xa2f (1)
     |                                               |                |            [19]{}: code 0xa2f-0xa3b (12)
0xa20|                                             0b|               .|              size: 11 (valid) 0xa2f-0xa30 (1)
     |                                               |                |              code{}: 0xa30-0xa3b (11)
     |                                               |                |                t{}: 0xa30-0xa31 (1)
0xa30|00                                             |.               |                  n: 0 (valid) 0xa30-0xa31 (1)
     |                                               |                |                  x[0:0]: 0xa31-0xa31 (0)
     |                                               |                |                e[0:6]: 0xa31-0xa3b (10)
     |                                               |                |                  [0]{}: in 0xa31-0xa33 (2)
0xa30|   20                                          |                |                    opcode: "local.get" (0x20) 0xa31-0xa32 (1)
0xa30|      00                                       |  .             |                    x: 0 (valid) 0xa32-0xa33 (1)
     |                                               |                |                  [1]{}: in 0xa33-0xa35 (2)
0xa30|         fd                                    |   .            |                    opcode: "vector" (0xfd) 0xa33-0xa34 (1)
0xa30|            53                                 |    S           |                    v_opcode: "v128.any_true" (83) 0xa34-0xa35 (1)
     |                                               |                |                  [2]{}: in 0xa35-0xa37 (2)
0xa30|               20                              |                |                    opcode: "local.get" (0x20) 0xa35-0xa36 (1)
0xa30|                  01                           |      .         |                    x: 1 (valid) 0xa36-0xa37 (1)
     |                                               |                |                  [3]{}: in 0xa37-0xa39 (2)
0xa30|                     fd                        |       .        |                    opcode: "vector" (0xfd) 0xa37-0xa38 (1)
0xa30|                        53                     |        S       |                    v_opcode: "v128.any_true" (83) 0xa38-0xa39 (1)
     |                                               |                |                  [4]{}: in 0xa39-0xa3a (1)
0xa30|                           71                  |         q      |                    opcode: "i32.and" (0x71) 0xa39-0xa3a (1)
     |                                               |                |                  [5]{}: in 0xa3a-0xa3b (1)
0xa30|                              0b               |          .     |                    opcode: "end" (0xb) 0xa3a-0xa3b (1)
     |                                               |                |            [20]{}: code 0xa3b-0xa47 (12)
0xa30|                                 0b            |           .    |              size: 11 (valid) 0xa3b-0xa3c (1)
     |                                               |                |              code{}: 0xa3c-0xa47 (11)
     |                                               |                |                t{}: 0xa3c-0xa3d (1)
0xa30|                                    00         |            .   |                  n: 0 (valid) 0xa3c-0xa3d (1)
     |                                               |                |                  x[0:0]: 0xa3d-0xa3d (0)
     |                                               |                |                e[0:6]: 0xa3d-0xa47 (10)
     |                                               |                |                  [0]{}: in 0xa3d-0xa3f (2)
0xa30|                                       20      |                |                    opcode: "local.get" (0x20) 0xa3d-0xa3e (1)
0xa30|                                          00   |              . |                    x: 0 (valid) 0xa3e-0xa3f (1)
     |                                               |                |                  [1]{}: in 0xa3f-0xa41 (2)
0xa30|                                             fd|               .|                    opcode: "vector" (0xfd) 0xa3f-0xa40 (1)
0xa40|53                                             |S               |                    v_opcode: "v128.any_true" (83) 0xa40-0xa41 (1)
     |                                               |                |                  [2]{}: in 0xa41-0xa43 (2)
0xa40|   20                                          |                |                    opcode: "local.get" (0x20) 0xa41-0xa42 (1)
0xa40|      01                                       |  .             |                    x: 1 (valid) 0xa42-0xa43 (1)
     |                                               |                |                  [3]{}: in 0xa43-0xa45 (2)
0xa40|         fd                                    |   .            |                    opcode: "vector" (0xfd) 0xa43-0xa44 (1)
0xa40|            53                                 |    S           |                    v_opcode: "v128.any_true" (83) 0xa44-0xa45 (1)
     |                                               |                |                  [4]{}: in 0xa45-0xa46 (1)
0xa40|               71                              |     q          |                    opcode: "i32.and" (0x71) 0xa45-0xa46 (1)
     |                                               |                |                  [5]{}: in 0xa46-0xa47 (1)
0xa40|                  0b                           |      .         |                    opcode: "end" (0xb) 0xa46-0xa47 (1)
     |                                               |                |            [21]{}: code 0xa47-0xa53 (12)
0xa40|                     0b                        |       .        |              size: 11 (valid) 0xa47-0xa48 (1)
     |                                               |                |              code{}: 0xa48-0xa53 (11)
     |                                               |                |                t{}: 0xa48-0xa49 (1)
0xa40|                        00                     |        .       |                  n: 0 (valid) 0xa48-0xa49 (1)
     |                                               |                |                  x[0:0]: 0xa49-0xa49 (0)
     |                                               |                |                e[0:6]: 0xa49-0xa53 (10)
     |                                               |                |                  [0]{}: in 0xa49-0xa4b (2)
0xa40|                           20                  |                |                    opcode: "local.get" (0x20) 0xa49-0xa4a (1)
0xa40|                              00               |          .     |                    x: 0 (valid) 0xa4a-0xa4b (1)
     |                                               |                |                  [1]{}: in 0xa4b-0xa4d (2)
0xa40|                                 fd            |           .    |                    opcode: "vector" (0xfd) 0xa4b-0xa4c (1)
0xa40|                                    53         |            S   |                    v_opcode: "v128.any_true" (83) 0xa4c-0xa4d (1)
     |                                               |                |                  [2]{}: in 0xa4d-0xa4f (2)
0xa40|                                       20      |                |                    opcode: "local.get" (0x20) 0xa4d-0xa4e (1)
0xa40|                                          01   |              . |                    x: 1 (valid) 0xa4e-0xa4f (1)
     |                                               |                |                  [3]{}: in 0xa4f-0xa51 (2)
0xa40|                                             fd|               .|                    opcode: "vector" (0xfd) 0xa4f-0xa50 (1)
0xa50|53                                             |S               |                    v_opcode: "v128.any_true" (83) 0xa50-0xa51 (1)
     |                                               |                |                  [4]{}: in 0xa51-0xa52 (1)
0xa50|   72                                          | r              |                    opcode: "i32.or" (0x72) 0xa51-0xa52 (1)
     |                                               |                |                  [5]{}: in 0xa52-0xa53 (1)
0xa50|      0b                                       |  .             |                    opcode: "end" (0xb) 0xa52-0xa53 (1)
     |                                               |                |            [22]{}: code 0xa53-0xa5f (12)
0xa50|         0b                                    |   .            |              size: 11 (valid) 0xa53-0xa54 (1)
     |                                               |                |              code{}: 0xa54-0xa5f (11)
     |                                               |                |                t{}: 0xa54-0xa55 (1)
0xa50|            00                                 |    .           |                  n: 0 (valid) 0xa54-0xa55 (1)
     |                                               |                |                  x[0:0]: 0xa55-0xa55 (0)
     |                                               |                |                e[0:6]: 0xa55-0xa5f (10)
     |                                               |                |                  [0]{}: in 0xa55-0xa57 (2)
0xa50|               20                              |                |                    opcode: "local.get" (0x20) 0xa55-0xa56 (1)
0xa50|                  00                           |      .         |                    x: 0 (valid) 0xa56-0xa57 (1)
     |                                               |                |                  [1]{}: in 0xa57-0xa59 (2)
0xa50|                     fd                        |       .        |                    opcode: "vector" (0xfd) 0xa57-0xa58 (1)
0xa50|                        53                     |        S       |                    v_opcode: "v128.any_true" (83) 0xa58-0xa59 (1)
     |                                               |                |                  [2]{}: in 0xa59-0xa5b (2)
0xa50|                           20                  |                |                    opcode: "local.get" (0x20) 0xa59-0xa5a (1)
0xa50|                              01               |          .     |                    x: 1 (valid) 0xa5a-0xa5b (1)
     |                                               |                |                  [3]{}: in 0xa5b-0xa5d (2)
0xa50|                                 fd            |           .    |                    opcode: "vector" (0xfd) 0xa5b-0xa5c (1)
0xa50|                                    53         |            S   |                    v_opcode: "v128.any_true" (83) 0xa5c-0xa5d (1)
     |                                               |                |                  [4]{}: in 0xa5d-0xa5e (1)
0xa50|                                       72      |             r  |                    opcode: "i32.or" (0x72) 0xa5d-0xa5e (1)
     |                                               |                |                  [5]{}: in 0xa5e-0xa5f (1)
0xa50|                                          0b   |              . |                    opcode: "end" (0xb) 0xa5e-0xa5f (1)
     |                                               |                |            [23]{}: code 0xa5f-0xa6b (12)
0xa50|                                             0b|               .|              size: 11 (valid) 0xa5f-0xa60 (1)
     |                                               |                |              code{}: 0xa60-0xa6b (11)
     |                                               |                |                t{}: 0xa60-0xa61 (1)
0xa60|00                                             |.               |                  n: 0 (valid) 0xa60-0xa61 (1)
     |                                               |                |                  x[0:0]: 0xa61-0xa61 (0)
     |                                               |                |                e[0:6]: 0xa61-0xa6b (10)
     |                                               |                |                  [0]{}: in 0xa61-0xa63 (2)
0xa60|   20                                          |                |                    opcode: "local.get" (0x20) 0xa61-0xa62 (1)
0xa60|      00                                       |  .             |                    x: 0 (valid) 0xa62-0xa63 (1)
     |                                               |                |                  [1]{}: in 0xa63-0xa65 (2)
0xa60|         fd                                    |   .            |                    opcode: "vector" (0xfd) 0xa63-0xa64 (1)
0xa60|            53                                 |    S           |                    v_opcode: "v128.any_true" (83) 0xa64-0xa65 (1)
     |                                               |                |                  [2]{}: in 0xa65-0xa67 (2)
0xa60|               20                              |                |                    opcode: "local.get" (0x20) 0xa65-0xa66 (1)
0xa60|                  01                           |      .         |                    x: 1 (valid) 0xa66-0xa67 (1)
     |                                               |                |                  [3]{}: in 0xa67-0xa69 (2)
0xa60|                     fd                        |       .        |                    opcode: "vector" (0xfd) 0xa67-0xa68 (1)
0xa60|                        53                     |        S       |                    v_opcode: "v128.any_true" (83) 0xa68-0xa69 (1)
     |                                               |                |                  [4]{}: in 0xa69-0xa6a (1)
0xa60|                           72                  |         r      |                    opcode: "i32.or" (0x72) 0xa69-0xa6a (1)
     |                                               |                |                  [5]{}: in 0xa6a-0xa6b (1)
0xa60|                              0b               |          .     |                    opcode: "end" (0xb) 0xa6a-0xa6b (1)
     |                                               |                |            [24]{}: code 0xa6b-0xa77 (12)
0xa60|                                 0b            |           .    |              size: 11 (valid) 0xa6b-0xa6c (1)
     |                                               |                |              code{}: 0xa6c-0xa77 (11)
     |                                               |                |                t{}: 0xa6c-0xa6d (1)
0xa60|                                    00         |            .   |                  n: 0 (valid) 0xa6c-0xa6d (1)
     |                                               |                |                  x[0:0]: 0xa6d-0xa6d (0)
     |                                               |                |                e[0:6]: 0xa6d-0xa77 (10)
     |                                               |                |                  [0]{}: in 0xa6d-0xa6f (2)
0xa60|                                       20      |                |                    opcode: "local.get" (0x20) 0xa6d-0xa6e (1)
0xa60|                                          00   |              . |                    x: 0 (valid) 0xa6e-0xa6f (1)
     |                                               |                |                  [1]{}: in 0xa6f-0xa71 (2)
0xa60|                                             fd|               .|                    opcode: "vector" (0xfd) 0xa6f-0xa70 (1)
0xa70|53                                             |S               |                    v_opcode: "v128.any_true" (83) 0xa70-0xa71 (1)
     |                                               |                |                  [2]{}: in 0xa71-0xa73 (2)
0xa70|   20                                          |                |                    opcode: "local.get" (0x20) 0xa71-0xa72 (1)
0xa70|      01                                       |  .             |                    x: 1 (valid) 0xa72-0xa73 (1)
     |                                               |                |                  [3]{}: in 0xa73-0xa75 (2)
0xa70|         fd                                    |   .            |                    opcode: "vector" (0xfd) 0xa73-0xa74 (1)
0xa70|            53                                 |    S           |                    v_opcode: "v128.any_true" (83) 0xa74-0xa75 (1)
     |                                               |                |                  [4]{}: in 0xa75-0xa76 (1)
0xa70|               73                              |     s          |                    opcode: "i32.xor" (0x73) 0xa75-0xa76 (1)
     |                                               |                |                  [5]{}: in 0xa76-0xa77 (1)
0xa70|                  0b                           |      .         |                    opcode: "end" (0xb) 0xa76-0xa77 (1)
     |                                               |                |            [25]{}: code 0xa77-0xa83 (12)
0xa70|                     0b                        |       .        |              size: 11 (valid) 0xa77-0xa78 (1)
     |                                               |                |              code{}: 0xa78-0xa83 (11)
     |                                               |                |                t{}: 0xa78-0xa79 (1)
0xa70|                        00                     |        .       |                  n: 0 (valid) 0xa78-0xa79 (1)
     |                                               |                |                  x[0:0]: 0xa79-0xa79 (0)
     |                                               |                |                e[0:6]: 0xa79-0xa83 (10)
     |                                               |                |                  [0]{}: in 0xa79-0xa7b (2)
0xa70|                           20                  |                |                    opcode: "local.get" (0x20) 0xa79-0xa7a (1)
0xa70|                              00               |          .     |                    x: 0 (valid) 0xa7a-0xa7b (1)
     |                                               |                |                  [1]{}: in 0xa7b-0xa7d (2)
0xa70|                                 fd            |           .    |                    opcode: "vector" (0xfd) 0xa7b-0xa7c (1)
0xa70|                                    53         |            S   |                    v_opcode: "v128.any_true" (83) 0xa7c-0xa7d (1)
     |                                               |                |                  [2]{}: in 0xa7d-0xa7f (2)
0xa70|                                       20      |                |                    opcode: "local.get" (0x20) 0xa7d-0xa7e (1)
0xa70|                                          01   |              . |                    x: 1 (valid) 0xa7e-0xa7f (1)
     |                                               |                |                  [3]{}: in 0xa7f-0xa81 (2)
0xa70|                                             fd|               .|                    opcode: "vector" (0xfd) 0xa7f-0xa80 (1)
0xa80|53                                             |S               |                    v_opcode: "v128.any_true" (83) 0xa80-0xa81 (1)
     |                                               |                |                  [4]{}: in 0xa81-0xa82 (1)
0xa80|   73                                          | s              |                    opcode: "i32.xor" (0x73) 0xa81-0xa82 (1)
     |                                               |                |                  [5]{}: in 0xa82-0xa83 (1)
0xa80|      0b                                       |  .             |                    opcode: "end" (0xb) 0xa82-0xa83 (1)
     |                                               |                |            [26]{}: code 0xa83-0xa8f (12)
0xa80|         0b                                    |   .            |              size: 11 (valid) 0xa83-0xa84 (1)
     |                                               |                |              code{}: 0xa84-0xa8f (11)
     |                                               |                |                t{}: 0xa84-0xa85 (1)
0xa80|            00                                 |    .           |                  n: 0 (valid) 0xa84-0xa85 (1)
     |                                               |                |                  x[0:0]: 0xa85-0xa85 (0)
     |                                               |                |                e[0:6]: 0xa85-0xa8f (10)
     |                                               |                |                  [0]{}: in 0xa85-0xa87 (2)
0xa80|               20                              |                |                    opcode: "local.get" (0x20) 0xa85-0xa86 (1)
0xa80|                  00                           |      .         |                    x: 0 (valid) 0xa86-0xa87 (1)
     |                                               |                |                  [1]{}: in 0xa87-0xa89 (2)
0xa80|                     fd                        |       .        |                    opcode: "vector" (0xfd) 0xa87-0xa88 (1)
0xa80|                        53                     |        S       |                    v_opcode: "v128.any_true" (83) 0xa88-0xa89 (1)
     |                                               |                |                  [2]{}: in 0xa89-0xa8b (2)
0xa80|                           20                  |                |                    opcode: "local.get" (0x20) 0xa89-0xa8a (1)
0xa80|                              01               |          .     |                    x: 1 (valid) 0xa8a-0xa8b (1)
     |                                               |                |                  [3]{}: in 0xa8b-0xa8d (2)
0xa80|                                 fd            |           .    |                    opcode: "vector" (0xfd) 0xa8b-0xa8c (1)
0xa80|                                    53         |            S   |                    v_opcode: "v128.any_true" (83) 0xa8c-0xa8d (1)
     |                                               |                |                  [4]{}: in 0xa8d-0xa8e (1)
0xa80|                                       73      |             s  |                    opcode: "i32.xor" (0x73) 0xa8d-0xa8e (1)
     |                                               |                |                  [5]{}: in 0xa8e-0xa8f (1)
0xa80|                                          0b   |              . |                    opcode: "end" (0xb) 0xa8e-0xa8f (1)
     |                                               |                |            [27]{}: code 0xa8f-0xa9b (12)
0xa80|                                             0b|               .|              size: 11 (valid) 0xa8f-0xa90 (1)
     |                                               |                |              code{}: 0xa90-0xa9b (11)
     |                                               |                |                t{}: 0xa90-0xa91 (1)
0xa90|00                                             |.               |                  n: 0 (valid) 0xa90-0xa91 (1)
     |                                               |                |                  x[0:0]: 0xa91-0xa91 (0)
     |                                               |                |                e[0:6]: 0xa91-0xa9b (10)
     |                                               |                |                  [0]{}: in 0xa91-0xa93 (2)
0xa90|   20                                          |                |                    opcode: "local.get" (0x20) 0xa91-0xa92 (1)
0xa90|      00                                       |  .             |                    x: 0 (valid) 0xa92-0xa93 (1)
     |                                               |                |                  [1]{}: in 0xa93-0xa95 (2)
0xa90|         fd                                    |   .            |                    opcode: "vector" (0xfd) 0xa93-0xa94 (1)
0xa90|            63                                 |    c           |                    v_opcode: "i8x16.all_true" (99) 0xa94-0xa95 (1)
     |                                               |                |                  [2]{}: in 0xa95-0xa97 (2)
0xa90|               20                              |                |                    opcode: "local.get" (0x20) 0xa95-0xa96 (1)
0xa90|                  01                           |      .         |                    x: 1 (valid) 0xa96-0xa97 (1)
     |                                               |                |                  [3]{}: in 0xa97-0xa99 (2)
0xa90|                     fd                        |       .        |                    opcode: "vector" (0xfd) 0xa97-0xa98 (1)
0xa90|                        63                     |        c       |                    v_opcode: "i8x16.all_true" (99) 0xa98-0xa99 (1)
     |                                               |                |                  [4]{}: in 0xa99-0xa9a (1)
0xa90|                           71                  |         q      |                    opcode: "i32.and" (0x71) 0xa99-0xa9a (1)
     |                                               |                |                  [5]{}: in 0xa9a-0xa9b (1)
0xa90|                              0b               |          .     |                    opcode: "end" (0xb) 0xa9a-0xa9b (1)
     |                                               |                |            [28]{}: code 0xa9b-0xaa9 (14)
0xa90|                                 0d            |           .    |              size: 13 (valid) 0xa9b-0xa9c (1)
     |                                               |                |              code{}: 0xa9c-0xaa9 (13)
     |                                               |                |                t{}: 0xa9c-0xa9d (1)
0xa90|                                    00         |            .   |                  n: 0 (valid) 0xa9c-0xa9d (1)
     |                                               |                |                  x[0:0]: 0xa9d-0xa9d (0)
     |                                               |                |                e[0:6]: 0xa9d-0xaa9 (12)
     |                                               |                |                  [0]{}: in 0xa9d-0xa9f (2)
0xa90|                                       20      |                |                    opcode: "local.get" (0x20) 0xa9d-0xa9e (1)
0xa90|                                          00   |              . |                    x: 0 (valid) 0xa9e-0xa9f (1)
     |                                               |                |                  [1]{}: in 0xa9f-0xaa2 (3)
0xa90|                                             fd|               .|                    opcode: "vector" (0xfd) 0xa9f-0xaa0 (1)
0xaa0|83 01                                          |..              |                    v_opcode: "i16x8.all_true" (131) 0xaa0-0xaa2 (2)
     |                                               |                |                  [2]{}: in 0xaa2-0xaa4 (2)
0xaa0|      20                                       |                |                    opcode: "local.get" (0x20) 0xaa2-0xaa3 (1)
0xaa0|         01                                    |   .            |                    x: 1 (valid) 0xaa3-0xaa4 (1)
     |                                               |                |                  [3]{}: in 0xaa4-0xaa7 (3)
0xaa0|            fd                                 |    .           |                    opcode: "vector" (0xfd) 0xaa4-0xaa5 (1)
0xaa0|               83 01                           |     ..         |                    v_opcode: "i16x8.all_true" (131) 0xaa5-0xaa7 (2)
     |                                               |                |                  [4]{}: in 0xaa7-0xaa8 (1)
0xaa0|                     71                        |       q        |                    opcode: "i32.and" (0x71) 0xaa7-0xaa8 (1)
     |                                               |                |                  [5]{}: in 0xaa8-0xaa9 (1)
0xaa0|                        0b                     |        .       |                    opcode: "end" (0xb) 0xaa8-0xaa9 (1)
     |                                               |                |            [29]{}: code 0xaa9-0xab7 (14)
0xaa0|                           0d                  |         .      |              size: 13 (valid) 0xaa9-0xaaa (1)
     |                                               |                |              code{}: 0xaaa-0xab7 (13)
     |                                               |                |                t{}: 0xaaa-0xaab (1)
0xaa0|                              00               |          .     |                  n: 0 (valid) 0xaaa-0xaab (1)
     |                                               |                |                  x[0:0]: 0xaab-0xaab (0)
     |                                               |                |                e[0:6]: 0xaab-0xab7 (12)
     |                                               |                |                  [0]{}: in 0xaab-0xaad (2)
0xaa0|                                 20            |                |                    opcode: "local.get" (0x20) 0xaab-0xaac (1)
0xaa0|                                    00         |            .   |                    x: 0 (valid) 0xaac-0xaad (1)
     |                                               |                |                  [1]{}: in 0xaad-0xab0 (3)
0xaa0|                                       fd      |             .  |                    opcode: "vector" (0xfd) 0xaad-0xaae (1)
0xaa0|                                          a3 01|              ..|                    v_opcode: "i32x4.all_true" (163) 0xaae-0xab0 (2)
     |                                               |                |                  [2]{}: in 0xab0-0xab2 (2)
0xab0|20                                             |                |                    opcode: "local.get" (0x20) 0xab0-0xab1 (1)
0xab0|   01                                          | .              |                    x: 1 (valid) 0xab1-0xab2 (1)
     |                                               |                |                  [3]{}: in 0xab2-0xab5 (3)
0xab0|      fd                                       |  .             |                    opcode: "vector" (0xfd) 0xab2-0xab3 (1)
0xab0|         a3 01                                 |   ..           |                    v_opcode: "i32x4.all_true" (163) 0xab3-0xab5 (2)
     |                                               |                |                  [4]{}: in 0xab5-0xab6 (1)
0xab0|               71                              |     q          |                    opcode: "i32.and" (0x71) 0xab5-0xab6 (1)
     |                                               |                |                  [5]{}: in 0xab6-0xab7 (1)
0xab0|                  0b                           |      .         |                    opcode: "end" (0xb) 0xab6-0xab7 (1)
     |                                               |                |            [30]{}: code 0xab7-0xac3 (12)
0xab0|                     0b                        |       .        |              size: 11 (valid) 0xab7-0xab8 (1)
     |                                               |                |              code{}: 0xab8-0xac3 (11)
     |                                               |                |                t{}: 0xab8-0xab9 (1)
0xab0|                        00                     |        .       |                  n: 0 (valid) 0xab8-0xab9 (1)
     |                                               |                |                  x[0:0]: 0xab9-0xab9 (0)
     |                                               |                |                e[0:6]: 0xab9-0xac3 (10)
     |                                               |                |                  [0]{}: in 0xab9-0xabb (2)
0xab0|                           20                  |                |                    opcode: "local.get" (0x20) 0xab9-0xaba (1)
0xab0|                              00               |          .     |                    x: 0 (valid) 0xaba-0xabb (1)
     |                                               |                |                  [1]{}: in 0xabb-0xabd (2)
0xab0|                                 fd            |           .    |                    opcode: "vector" (0xfd) 0xabb-0xabc (1)
0xab0|                                    63         |            c   |                    v_opcode: "i8x16.all_true" (99) 0xabc-0xabd (1)
     |                                               |                |                  [2]{}: in 0xabd-0xabf (2)
0xab0|                                       20      |                |                    opcode: "local.get" (0x20) 0xabd-0xabe (1)
0xab0|                                          01   |              . |                    x: 1 (valid) 0xabe-0xabf (1)
     |                                               |                |                  [3]{}: in 0xabf-0xac1 (2)
0xab0|                                             fd|               .|                    opcode: "vector" (0xfd) 0xabf-0xac0 (1)
0xac0|63                                             |c               |                    v_opcode: "i8x16.all_true" (99) 0xac0-0xac1 (1)
     |                                               |                |                  [4]{}: in 0xac1-0xac2 (1)
0xac0|   72                                          | r              |                    opcode: "i32.or" (0x72) 0xac1-0xac2 (1)
     |                                               |                |                  [5]{}: in 0xac2-0xac3 (1)
0xac0|      0b                                       |  .             |                    opcode: "end" (0xb) 0xac2-0xac3 (1)
     |                                               |                |            [31]{}: code 0xac3-0xad1 (14)
0xac0|         0d                                    |   .            |              size: 13 (valid) 0xac3-0xac4 (1)
     |                                               |                |              code{}: 0xac4-0xad1 (13)
     |                                               |                |                t{}: 0xac4-0xac5 (1)
0xac0|            00                                 |    .           |                  n: 0 (valid) 0xac4-0xac5 (1)
     |                                               |                |                  x[0:0]: 0xac5-0xac5 (0)
     |                                               |                |                e[0:6]: 0xac5-0xad1 (12)
     |                                               |                |                  [0]{}: in 0xac5-0xac7 (2)
0xac0|               20                              |                |                    opcode: "local.get" (0x20) 0xac5-0xac6 (1)
0xac0|                  00                           |      .         |                    x: 0 (valid) 0xac6-0xac7 (1)
     |                                               |                |                  [1]{}: in 0xac7-0xaca (3)
0xac0|                     fd                        |       .        |                    opcode: "vector" (0xfd) 0xac7-0xac8 (1)
0xac0|                        83 01                  |        ..      |                    v_opcode: "i16x8.all_true" (131) 0xac8-0xaca (2)
     |                                               |                |                  [2]{}: in 0xaca-0xacc (2)
0xac0|                              20               |                |                    opcode: "local.get" (0x20) 0xaca-0xacb (1)
0xac0|                                 01            |           .    |                    x: 1 (valid) 0xacb-0xacc (1)
     |                                               |                |                  [3]{}: in 0xacc-0xacf (3)
0xac0|                                    fd         |            .   |                    opcode: "vector" (0xfd) 0xacc-0xacd (1)
0xac0|                                       83 01   |             .. |                    v_opcode: "i16x8.all_true" (131) 0xacd-0xacf (2)
     |                                               |                |                  [4]{}: in 0xacf-0xad0 (1)
0xac0|                                             72|               r|                    opcode: "i32.or" (0x72) 0xacf-0xad0 (1)
     |                                               |                |                  [5]{}: in 0xad0-0xad1 (1)
0xad0|0b                                             |.               |                    opcode: "end" (0xb) 0xad0-0xad1 (1)
     |                                               |                |            [32]{}: code 0xad1-0xadf (14)
0xad0|   0d                                          | .              |              size: 13 (valid) 0xad1-0xad2 (1)
     |                                               |                |              code{}: 0xad2-0xadf (13)
     |                                               |                |                t{}: 0xad2-0xad3 (1)
0xad0|      00                                       |  .             |                  n: 0 (valid) 0xad2-0xad3 (1)
     |                                               |                |                  x[0:0]: 0xad3-0xad3 (0)
     |                                               |                |                e[0:6]: 0xad3-0xadf (12)
     |                                               |                |                  [0]{}: in 0xad3-0xad5 (2)
0xad0|         20                                    |                |                    opcode: "local.get" (0x20) 0xad3-0xad4 (1)
0xad0|            00                                 |    .           |                    x: 0 (valid) 0xad4-0xad5 (1)
     |                                               |                |                  [1]{}: in 0xad5-0xad8 (3)
0xad0|               fd                              |     .          |                    opcode: "vector" (0xfd) 0xad5-0xad6 (1)
0xad0|                  a3 01                        |      ..        |                    v_opcode: "i32x4.all_true" (163) 0xad6-0xad8 (2)
     |                                               |                |                  [2]{}: in 0xad8-0xada (2)
0xad0|                        20                     |                |                    opcode: "local.get" (0x20) 0xad8-0xad9 (1)
0xad0|                           01                  |         .      |                    x: 1 (valid) 0xad9-0xada (1)
     |                                               |                |                  [3]{}: in 0xada-0xadd (3)
0xad0|                              fd               |          .     |                    opcode: "vector" (0xfd) 0xada-0xadb (1)
0xad0|                                 a3 01         |           ..   |                    v_opcode: "i32x4.all_true" (163) 0xadb-0xadd (2)
     |                                               |                |                  [4]{}: in 0xadd-0xade (1)
0xad0|                                       72      |             r  |                    opcode: "i32.or" (0x72) 0xadd-0xade (1)
     |                                               |                |                  [5]{}: in 0xade-0xadf (1)
0xad0|                                          0b   |              . |                    opcode: "end" (0xb) 0xade-0xadf (1)
     |                                               |                |            [33]{}: code 0xadf-0xaeb (12)
0xad0|                                             0b|               .|              size: 11 (valid) 0xadf-0xae0 (1)
     |                                               |                |              code{}: 0xae0-0xaeb (11)
     |                                               |                |                t{}: 0xae0-0xae1 (1)
0xae0|00                                             |.               |                  n: 0 (valid) 0xae0-0xae1 (1)
     |                                               |                |                  x[0:0]: 0xae1-0xae1 (0)
     |                                               |                |                e[0:6]: 0xae1-0xaeb (10)
     |                                               |                |                  [0]{}: in 0xae1-0xae3 (2)
0xae0|   20                                          |                |                    opcode: "local.get" (0x20) 0xae1-0xae2 (1)
0xae0|      00                                       |  .             |                    x: 0 (valid) 0xae2-0xae3 (1)
     |                                               |                |                  [1]{}: in 0xae3-0xae5 (2)
0xae0|         fd                                    |   .            |                    opcode: "vector" (0xfd) 0xae3-0xae4 (1)
0xae0|            63                                 |    c           |                    v_opcode: "i8x16.all_true" (99) 0xae4-0xae5 (1)
     |                                               |                |                  [2]{}: in 0xae5-0xae7 (2)
0xae0|               20                              |                |                    opcode: "local.get" (0x20) 0xae5-0xae6 (1)
0xae0|                  01                           |      .         |                    x: 1 (valid) 0xae6-0xae7 (1)
     |                                               |                |                  [3]{}: in 0xae7-0xae9 (2)
0xae0|                     fd                        |       .        |                    opcode: "vector" (0xfd) 0xae7-0xae8 (1)
0xae0|                        63                     |        c       |                    v_opcode: "i8x16.all_true" (99) 0xae8-0xae9 (1)
     |                                               |                |                  [4]{}: in 0xae9-0xaea (1)
0xae0|                           73                  |         s      |                    opcode: "i32.xor" (0x73) 0xae9-0xaea (1)
     |                                               |                |                  [5]{}: in 0xaea-0xaeb (1)
0xae0|                              0b               |          .     |                    opcode: "end" (0xb) 0xaea-0xaeb (1)
     |                                               |                |            [34]{}: code 0xaeb-0xaf9 (14)
0xae0|                                 0d            |           .    |              size: 13 (valid) 0xaeb-0xaec (1)
     |                                               |                |              code{}: 0xaec-0xaf9 (13)
     |                                               |                |                t{}: 0xaec-0xaed (1)
0xae0|                                    00         |            .   |                  n: 0 (valid) 0xaec-0xaed (1)
     |                                               |                |                  x[0:0]: 0xaed-0xaed (0)
     |                                               |                |                e[0:6]: 0xaed-0xaf9 (12)
     |                                               |                |                  [0]{}: in 0xaed-0xaef (2)
0xae0|                                       20      |                |                    opcode: "local.get" (0x20) 0xaed-0xaee (1)
0xae0|                                          00   |              . |                    x: 0 (valid) 0xaee-0xaef (1)
     |                                               |                |                  [1]{}: in 0xaef-0xaf2 (3)
0xae0|                                             fd|               .|                    opcode: "vector" (0xfd) 0xaef-0xaf0 (1)
0xaf0|83 01                                          |..              |                    v_opcode: "i16x8.all_true" (131) 0xaf0-0xaf2 (2)
     |                                               |                |                  [2]{}: in 0xaf2-0xaf4 (2)
0xaf0|      20                                       |                |                    opcode: "local.get" (0x20) 0xaf2-0xaf3 (1)
0xaf0|         01                                    |   .            |                    x: 1 (valid) 0xaf3-0xaf4 (1)
     |                                               |                |                  [3]{}: in 0xaf4-0xaf7 (3)
0xaf0|            fd                                 |    .           |                    opcode: "vector" (0xfd) 0xaf4-0xaf5 (1)
0xaf0|               83 01                           |     ..         |                    v_opcode: "i16x8.all_true" (131) 0xaf5-0xaf7 (2)
     |                                               |                |                  [4]{}: in 0xaf7-0xaf8 (1)
0xaf0|                     73                        |       s        |                    opcode: "i32.xor" (0x73) 0xaf7-0xaf8 (1)
     |                                               |                |                  [5]{}: in 0xaf8-0xaf9 (1)
0xaf0|                        0b                     |        .       |                    opcode: "end" (0xb) 0xaf8-0xaf9 (1)
     |                                               |                |            [35]{}: code 0xaf9-0xb07 (14)
0xaf0|                           0d                  |         .      |              size: 13 (valid) 0xaf9-0xafa (1)
     |                                               |                |              code{}: 0xafa-0xb07 (13)
     |                                               |                |                t{}: 0xafa-0xafb (1)
0xaf0|                              00               |          .     |                  n: 0 (valid) 0xafa-0xafb (1)
     |                                               |                |                  x[0:0]: 0xafb-0xafb (0)
     |                                               |                |                e[0:6]: 0xafb-0xb07 (12)
     |                                               |                |                  [0]{}: in 0xafb-0xafd (2)
0xaf0|                                 20            |                |                    opcode: "local.get" (0x20) 0xafb-0xafc (1)
0xaf0|                                    00         |            .   |                    x: 0 (valid) 0xafc-0xafd (1)
     |                                               |                |                  [1]{}: in 0xafd-0xb00 (3)
0xaf0|                                       fd      |             .  |                    opcode: "vector" (0xfd) 0xafd-0xafe (1)
0xaf0|                                          a3 01|              ..|                    v_opcode: "i32x4.all_true" (163) 0xafe-0xb00 (2)
     |                                               |                |                  [2]{}: in 0xb00-0xb02 (2)
0xb00|20                                             |                |                    opcode: "local.get" (0x20) 0xb00-0xb01 (1)
0xb00|   01                                          | .              |                    x: 1 (valid) 0xb01-0xb02 (1)
     |                                               |                |                  [3]{}: in 0xb02-0xb05 (3)
0xb00|      fd                                       |  .             |                    opcode: "vector" (0xfd) 0xb02-0xb03 (1)
0xb00|         a3 01                                 |   ..           |                    v_opcode: "i32x4.all_true" (163) 0xb03-0xb05 (2)
     |                                               |                |                  [4]{}: in 0xb05-0xb06 (1)
0xb00|               73                              |     s          |                    opcode: "i32.xor" (0x73) 0xb05-0xb06 (1)
     |                                               |                |                  [5]{}: in 0xb06-0xb07 (1)
0xb00|                  0b                           |      .         |                    opcode: "end" (0xb) 0xb06-0xb07 (1)
     |                                               |                |            [36]{}: code 0xb07-0xb10 (9)
0xb00|                     08                        |       .        |              size: 8 (valid) 0xb07-0xb08 (1)
     |                                               |                |              code{}: 0xb08-0xb10 (8)
     |                                               |                |                t{}: 0xb08-0xb09 (1)
0xb00|                        00                     |        .       |                  n: 0 (valid) 0xb08-0xb09 (1)
     |                                               |                |                  x[0:0]: 0xb09-0xb09 (0)
     |                                               |                |                e[0:4]: 0xb09-0xb10 (7)
     |                                               |                |                  [0]{}: in 0xb09-0xb0b (2)
0xb00|                           20                  |                |                    opcode: "local.get" (0x20) 0xb09-0xb0a (1)
0xb00|                              00               |          .     |                    x: 0 (valid) 0xb0a-0xb0b (1)
     |                                               |                |                  [1]{}: in 0xb0b-0xb0d (2)
0xb00|                                 fd            |           .    |                    opcode: "vector" (0xfd) 0xb0b-0xb0c (1)
0xb00|                                    4d         |            M   |                    v_opcode: "v128.not" (77) 0xb0c-0xb0d (1)
     |                                               |                |                  [2]{}: in 0xb0d-0xb0f (2)
0xb00|                                       fd      |             .  |                    opcode: "vector" (0xfd) 0xb0d-0xb0e (1)
0xb00|                                          53   |              S |                    v_opcode: "v128.any_true" (83) 0xb0e-0xb0f (1)
     |                                               |                |                  [3]{}: in 0xb0f-0xb10 (1)
0xb00|                                             0b|               .|                    opcode: "end" (0xb) 0xb0f-0xb10 (1)
     |                                               |                |            [37]{}: code 0xb10-0xb19 (9)
0xb10|08                                             |.               |              size: 8 (valid) 0xb10-0xb11 (1)
     |                                               |                |              code{}: 0xb11-0xb19 (8)
     |                                               |                |                t{}: 0xb11-0xb12 (1)
0xb10|   00                                          | .              |                  n: 0 (valid) 0xb11-0xb12 (1)
     |                                               |                |                  x[0:0]: 0xb12-0xb12 (0)
     |                                               |                |                e[0:4]: 0xb12-0xb19 (7)
     |                                               |                |                  [0]{}: in 0xb12-0xb14 (2)
0xb10|      20                                       |                |                    opcode: "local.get" (0x20) 0xb12-0xb13 (1)
0xb10|         00                                    |   .            |                    x: 0 (valid) 0xb13-0xb14 (1)
     |                                               |                |                  [1]{}: in 0xb14-0xb16 (2)
0xb10|            fd                                 |    .           |                    opcode: "vector" (0xfd) 0xb14-0xb15 (1)
0xb10|               4d                              |     M          |                    v_opcode: "v128.not" (77) 0xb15-0xb16 (1)
     |                                               |                |                  [2]{}: in 0xb16-0xb18 (2)
0xb10|                  fd                           |      .         |                    opcode: "vector" (0xfd) 0xb16-0xb17 (1)
0xb10|                     53                        |       S        |                    v_opcode: "v128.any_true" (83) 0xb17-0xb18 (1)
     |                                               |                |                  [3]{}: in 0xb18-0xb19 (1)
0xb10|                        0b                     |        .       |                    opcode: "end" (0xb) 0xb18-0xb19 (1)
     |                                               |                |            [38]{}: code 0xb19-0xb22 (9)
0xb10|                           08                  |         .      |              size: 8 (valid) 0xb19-0xb1a (1)
     |                                               |                |              code{}: 0xb1a-0xb22 (8)
     |                                               |                |                t{}: 0xb1a-0xb1b (1)
0xb10|                              00               |          .     |                  n: 0 (valid) 0xb1a-0xb1b (1)
     |                                               |                |                  x[0:0]: 0xb1b-0xb1b (0)
     |                                               |                |                e[0:4]: 0xb1b-0xb22 (7)
     |                                               |                |                  [0]{}: in 0xb1b-0xb1d (2)
0xb10|                                 20            |                |                    opcode: "local.get" (0x20) 0xb1b-0xb1c (1)
0xb10|                                    00         |            .   |                    x: 0 (valid) 0xb1c-0xb1d (1)
     |                                               |                |                  [1]{}: in 0xb1d-0xb1f (2)
0xb10|                                       fd      |             .  |                    opcode: "vector" (0xfd) 0xb1d-0xb1e (1)
0xb10|                                          4d   |              M |                    v_opcode: "v128.not" (77) 0xb1e-0xb1f (1)
     |                                               |                |                  [2]{}: in 0xb1f-0xb21 (2)
0xb10|                                             fd|               .|                    opcode: "vector" (0xfd) 0xb1f-0xb20 (1)
0xb20|53                                             |S               |                    v_opcode: "v128.any_true" (83) 0xb20-0xb21 (1)
     |                                               |                |                  [3]{}: in 0xb21-0xb22 (1)
0xb20|   0b                                          | .              |                    opcode: "end" (0xb) 0xb21-0xb22 (1)
     |                                               |                |            [39]{}: code 0xb22-0xb2d (11)
0xb20|      0a                                       |  .             |              size: 10 (valid) 0xb22-0xb23 (1)
     |                                               |                |              code{}: 0xb23-0xb2d (10)
     |                                               |                |                t{}: 0xb23-0xb24 (1)
0xb20|         00                                    |   .            |                  n: 0 (valid) 0xb23-0xb24 (1)
     |                                               |                |                  x[0:0]: 0xb24-0xb24 (0)
     |                                               |                |                e[0:5]: 0xb24-0xb2d (9)
     |                                               |                |                  [0]{}: in 0xb24-0xb26 (2)
0xb20|            20                                 |                |                    opcode: "local.get" (0x20) 0xb24-0xb25 (1)
0xb20|               00                              |     .          |                    x: 0 (valid) 0xb25-0xb26 (1)
     |                                               |                |                  [1]{}: in 0xb26-0xb28 (2)
0xb20|                  20                           |                |                    opcode: "local.get" (0x20) 0xb26-0xb27 (1)
0xb20|                     01                        |       .        |                    x: 1 (valid) 0xb27-0xb28 (1)
     |                                               |                |                  [2]{}: in 0xb28-0xb2a (2)
0xb20|                        fd                     |        .       |                    opcode: "vector" (0xfd) 0xb28-0xb29 (1)
0xb20|                           4e                  |         N      |                    v_opcode: "v128.and" (78) 0xb29-0xb2a (1)
     |                                               |                |                  [3]{}: in 0xb2a-0xb2c (2)
0xb20|                              fd               |          .     |                    opcode: "vector" (0xfd) 0xb2a-0xb2b (1)
0xb20|                                 53            |           S    |                    v_opcode: "v128.any_true" (83) 0xb2b-0xb2c (1)
     |                                               |                |                  [4]{}: in 0xb2c-0xb2d (1)
0xb20|                                    0b         |            .   |                    opcode: "end" (0xb) 0xb2c-0xb2d (1)
     |                                               |                |            [40]{}: code 0xb2d-0xb38 (11)
0xb20|                                       0a      |             .  |              size: 10 (valid) 0xb2d-0xb2e (1)
     |                                               |                |              code{}: 0xb2e-0xb38 (10)
     |                                               |                |                t{}: 0xb2e-0xb2f (1)
0xb20|                                          00   |              . |                  n: 0 (valid) 0xb2e-0xb2f (1)
     |                                               |                |                  x[0:0]: 0xb2f-0xb2f (0)
     |                                               |                |                e[0:5]: 0xb2f-0xb38 (9)
     |                                               |                |                  [0]{}: in 0xb2f-0xb31 (2)
0xb20|                                             20|                |                    opcode: "local.get" (0x20) 0xb2f-0xb30 (1)
0xb30|00                                             |.               |                    x: 0 (valid) 0xb30-0xb31 (1)
     |                                               |                |                  [1]{}: in 0xb31-0xb33 (2)
0xb30|   20                                          |                |                    opcode: "local.get" (0x20) 0xb31-0xb32 (1)
0xb30|      01                                       |  .             |                    x: 1 (valid) 0xb32-0xb33 (1)
     |                                               |                |                  [2]{}: in 0xb33-0xb35 (2)
0xb30|         fd                                    |   .            |                    opcode: "vector" (0xfd) 0xb33-0xb34 (1)
0xb30|            4e                                 |    N           |                    v_opcode: "v128.and" (78) 0xb34-0xb35 (1)
     |                                               |                |                  [3]{}: in 0xb35-0xb37 (2)
0xb30|               fd                              |     .          |                    opcode: "vector" (0xfd) 0xb35-0xb36 (1)
0xb30|                  53                           |      S         |                    v_opcode: "v128.any_true" (83) 0xb36-0xb37 (1)
     |                                               |                |                  [4]{}: in 0xb37-0xb38 (1)
0xb30|                     0b                        |       .        |                    opcode: "end" (0xb) 0xb37-0xb38 (1)
     |                                               |                |            [41]{}: code 0xb38-0xb43 (11)
0xb30|                        0a                     |        .       |              size: 10 (valid) 0xb38-0xb39 (1)
     |                                               |                |              code{}: 0xb39-0xb43 (10)
     |                                               |                |                t{}: 0xb39-0xb3a (1)
0xb30|                           00                  |         .      |                  n: 0 (valid) 0xb39-0xb3a (1)
     |                                               |                |                  x[0:0]: 0xb3a-0xb3a (0)
     |                                               |                |                e[0:5]: 0xb3a-0xb43 (9)
     |                                               |                |                  [0]{}: in 0xb3a-0xb3c (2)
0xb30|                              20               |                |                    opcode: "local.get" (0x20) 0xb3a-0xb3b (1)
0xb30|                                 00            |           .    |                    x: 0 (valid) 0xb3b-0xb3c (1)
     |                                               |                |                  [1]{}: in 0xb3c-0xb3e (2)
0xb30|                                    20         |                |                    opcode: "local.get" (0x20) 0xb3c-0xb3d (1)
0xb30|                                       01      |             .  |                    x: 1 (valid) 0xb3d-0xb3e (1)
     |                                               |                |                  [2]{}: in 0xb3e-0xb40 (2)
0xb30|                                          fd   |              . |                    opcode: "vector" (0xfd) 0xb3e-0xb3f (1)
0xb30|                                             4e|               N|                    v_opcode: "v128.and" (78) 0xb3f-0xb40 (1)
     |                                               |                |                  [3]{}: in 0xb40-0xb42 (2)
0xb40|fd                                             |.               |                    opcode: "vector" (0xfd) 0xb40-0xb41 (1)
0xb40|   53                                          | S              |                    v_opcode: "v128.any_true" (83) 0xb41-0xb42 (1)
     |                                               |                |                  [4]{}: in 0xb42-0xb43 (1)
0xb40|      0b                                       |  .             |                    opcode: "end" (0xb) 0xb42-0xb43 (1)
     |                                               |                |            [42]{}: code 0xb43-0xb4e (11)
0xb40|         0a                                    |   .            |              size: 10 (valid) 0xb43-0xb44 (1)
     |                                               |                |              code{}: 0xb44-0xb4e (10)
     |                                               |                |                t{}: 0xb44-0xb45 (1)
0xb40|            00                                 |    .           |                  n: 0 (valid) 0xb44-0xb45 (1)
     |                                               |                |                  x[0:0]: 0xb45-0xb45 (0)
     |                                               |                |                e[0:5]: 0xb45-0xb4e (9)
     |                                               |                |                  [0]{}: in 0xb45-0xb47 (2)
0xb40|               20                              |                |                    opcode: "local.get" (0x20) 0xb45-0xb46 (1)
0xb40|                  00                           |      .         |                    x: 0 (valid) 0xb46-0xb47 (1)
     |                                               |                |                  [1]{}: in 0xb47-0xb49 (2)
0xb40|                     20                        |                |                    opcode: "local.get" (0x20) 0xb47-0xb48 (1)
0xb40|                        01                     |        .       |                    x: 1 (valid) 0xb48-0xb49 (1)
     |                                               |                |                  [2]{}: in 0xb49-0xb4b (2)
0xb40|                           fd                  |         .      |                    opcode: "vector" (0xfd) 0xb49-0xb4a (1)
0xb40|                              50               |          P     |                    v_opcode: "v128.or" (80) 0xb4a-0xb4b (1)
     |                                               |                |                  [3]{}: in 0xb4b-0xb4d (2)
0xb40|                                 fd            |           .    |                    opcode: "vector" (0xfd) 0xb4b-0xb4c (1)
0xb40|                                    53         |            S   |                    v_opcode: "v128.any_true" (83) 0xb4c-0xb4d (1)
     |                                               |                |                  [4]{}: in 0xb4d-0xb4e (1)
0xb40|                                       0b      |             .  |                    opcode: "end" (0xb) 0xb4d-0xb4e (1)
     |                                               |                |            [43]{}: code 0xb4e-0xb59 (11)
0xb40|                                          0a   |              . |              size: 10 (valid) 0xb4e-0xb4f (1)
     |                                               |                |              code{}: 0xb4f-0xb59 (10)
     |                                               |                |                t{}: 0xb4f-0xb50 (1)
0xb40|                                             00|               .|                  n: 0 (valid) 0xb4f-0xb50 (1)
     |                                               |                |                  x[0:0]: 0xb50-0xb50 (0)
     |                                               |                |                e[0:5]: 0xb50-0xb59 (9)
     |                                               |                |                  [0]{}: in 0xb50-0xb52 (2)
0xb50|20                                             |                |                    opcode: "local.get" (0x20) 0xb50-0xb51 (1)
0xb50|   00                                          | .              |                    x: 0 (valid) 0xb51-0xb52 (1)
     |                                               |                |                  [1]{}: in 0xb52-0xb54 (2)
0xb50|      20                                       |                |                    opcode: "local.get" (0x20) 0xb52-0xb53 (1)
0xb50|         01                                    |   .            |                    x: 1 (valid) 0xb53-0xb54 (1)
     |                                               |                |                  [2]{}: in 0xb54-0xb56 (2)
0xb50|            fd                                 |    .           |                    opcode: "vector" (0xfd) 0xb54-0xb55 (1)
0xb50|               50                              |     P          |                    v_opcode: "v128.or" (80) 0xb55-0xb56 (1)
     |                                               |                |                  [3]{}: in 0xb56-0xb58 (2)
0xb50|                  fd                           |      .         |                    opcode: "vector" (0xfd) 0xb56-0xb57 (1)
0xb50|                     53                        |       S        |                    v_opcode: "v128.any_true" (83) 0xb57-0xb58 (1)
     |                                               |                |                  [4]{}: in 0xb58-0xb59 (1)
0xb50|                        0b                     |        .       |                    opcode: "end" (0xb) 0xb58-0xb59 (1)
     |                                               |                |            [44]{}: code 0xb59-0xb64 (11)
0xb50|                           0a                  |         .      |              size: 10 (valid) 0xb59-0xb5a (1)
     |                                               |                |              code{}: 0xb5a-0xb64 (10)
     |                                               |                |                t{}: 0xb5a-0xb5b (1)
0xb50|                              00               |          .     |                  n: 0 (valid) 0xb5a-0xb5b (1)
     |                                               |                |                  x[0:0]: 0xb5b-0xb5b (0)
     |                                               |                |                e[0:5]: 0xb5b-0xb64 (9)
     |                                               |                |                  [0]{}: in 0xb5b-0xb5d (2)
0xb50|                                 20            |                |                    opcode: "local.get" (0x20) 0xb5b-0xb5c (1)
0xb50|                                    00         |            .   |                    x: 0 (valid) 0xb5c-0xb5d (1)
     |                                               |                |                  [1]{}: in 0xb5d-0xb5f (2)
0xb50|                                       20      |                |                    opcode: "local.get" (0x20) 0xb5d-0xb5e (1)
0xb50|                                          01   |              . |                    x: 1 (valid) 0xb5e-0xb5f (1)
     |                                               |                |                  [2]{}: in 0xb5f-0xb61 (2)
0xb50|                                             fd|               .|                    opcode: "vector" (0xfd) 0xb5f-0xb60 (1)
0xb60|50                                             |P               |                    v_opcode: "v128.or" (80) 0xb60-0xb61 (1)
     |                                               |                |                  [3]{}: in 0xb61-0xb63 (2)
0xb60|   fd                                          | .              |                    opcode: "vector" (0xfd) 0xb61-0xb62 (1)
0xb60|      53                                       |  S             |                    v_opcode: "v128.any_true" (83) 0xb62-0xb63 (1)
     |                                               |                |                  [4]{}: in 0xb63-0xb64 (1)
0xb60|         0b                                    |   .            |                    opcode: "end" (0xb) 0xb63-0xb64 (1)
     |                                               |                |            [45]{}: code 0xb64-0xb6f (11)
0xb60|            0a                                 |    .           |              size: 10 (valid) 0xb64-0xb65 (1)
     |                                               |                |              code{}: 0xb65-0xb6f (10)
     |                                               |                |                t{}: 0xb65-0xb66 (1)
0xb60|               00                              |     .          |                  n: 0 (valid) 0xb65-0xb66 (1)
     |                                               |                |                  x[0:0]: 0xb66-0xb66 (0)
     |                                               |                |                e[0:5]: 0xb66-0xb6f (9)
     |                                               |                |                  [0]{}: in 0xb66-0xb68 (2)
0xb60|                  20                           |                |                    opcode: "local.get" (0x20) 0xb66-0xb67 (1)
0xb60|                     00                        |       .        |                    x: 0 (valid) 0xb67-0xb68 (1)
     |                                               |                |                  [1]{}: in 0xb68-0xb6a (2)
0xb60|                        20                     |                |                    opcode: "local.get" (0x20) 0xb68-0xb69 (1)
0xb60|                           01                  |         .      |                    x: 1 (valid) 0xb69-0xb6a (1)
     |                                               |                |                  [2]{}: in 0xb6a-0xb6c (2)
0xb60|                              fd               |          .     |                    opcode: "vector" (0xfd) 0xb6a-0xb6b (1)
0xb60|                                 51            |           Q    |                    v_opcode: "v128.xor" (81) 0xb6b-0xb6c (1)
     |                                               |                |                  [3]{}: in 0xb6c-0xb6e (2)
0xb60|                                    fd         |            .   |                    opcode: "vector" (0xfd) 0xb6c-0xb6d (1)
0xb60|                                       53      |             S  |                    v_opcode: "v128.any_true" (83) 0xb6d-0xb6e (1)
     |                                               |                |                  [4]{}: in 0xb6e-0xb6f (1)
0xb60|                                          0b   |              . |                    opcode: "end" (0xb) 0xb6e-0xb6f (1)
     |                                               |                |            [46]{}: code 0xb6f-0xb7a (11)
0xb60|                                             0a|               .|              size: 10 (valid) 0xb6f-0xb70 (1)
     |                                               |                |              code{}: 0xb70-0xb7a (10)
     |                                               |                |                t{}: 0xb70-0xb71 (1)
0xb70|00                                             |.               |                  n: 0 (valid) 0xb70-0xb71 (1)
     |                                               |                |                  x[0:0]: 0xb71-0xb71 (0)
     |                                               |                |                e[0:5]: 0xb71-0xb7a (9)
     |                                               |                |                  [0]{}: in 0xb71-0xb73 (2)
0xb70|   20                                          |                |                    opcode: "local.get" (0x20) 0xb71-0xb72 (1)
0xb70|      00                                       |  .             |                    x: 0 (valid) 0xb72-0xb73 (1)
     |                                               |                |                  [1]{}: in 0xb73-0xb75 (2)
0xb70|         20                                    |                |                    opcode: "local.get" (0x20) 0xb73-0xb74 (1)
0xb70|            01                                 |    .           |                    x: 1 (valid) 0xb74-0xb75 (1)
     |                                               |                |                  [2]{}: in 0xb75-0xb77 (2)
0xb70|               fd                              |     .          |                    opcode: "vector" (0xfd) 0xb75-0xb76 (1)
0xb70|                  51                           |      Q         |                    v_opcode: "v128.xor" (81) 0xb76-0xb77 (1)
     |                                               |                |                  [3]{}: in 0xb77-0xb79 (2)
0xb70|                     fd                        |       .        |                    opcode: "vector" (0xfd) 0xb77-0xb78 (1)
0xb70|                        53                     |        S       |                    v_opcode: "v128.any_true" (83) 0xb78-0xb79 (1)
     |                                               |                |                  [4]{}: in 0xb79-0xb7a (1)
0xb70|                           0b                  |         .      |                    opcode: "end" (0xb) 0xb79-0xb7a (1)
     |                                               |                |            [47]{}: code 0xb7a-0xb85 (11)
0xb70|                              0a               |          .     |              size: 10 (valid) 0xb7a-0xb7b (1)
     |                                               |                |              code{}: 0xb7b-0xb85 (10)
     |                                               |                |                t{}: 0xb7b-0xb7c (1)
0xb70|                                 00            |           .    |                  n: 0 (valid) 0xb7b-0xb7c (1)
     |                                               |                |                  x[0:0]: 0xb7c-0xb7c (0)
     |                                               |                |                e[0:5]: 0xb7c-0xb85 (9)
     |                                               |                |                  [0]{}: in 0xb7c-0xb7e (2)
0xb70|                                    20         |                |                    opcode: "local.get" (0x20) 0xb7c-0xb7d (1)
0xb70|                                       00      |             .  |                    x: 0 (valid) 0xb7d-0xb7e (1)
     |                                               |                |                  [1]{}: in 0xb7e-0xb80 (2)
0xb70|                                          20   |                |                    opcode: "local.get" (0x20) 0xb7e-0xb7f (1)
0xb70|                                             01|               .|                    x: 1 (valid) 0xb7f-0xb80 (1)
     |                                               |                |                  [2]{}: in 0xb80-0xb82 (2)
0xb80|fd                                             |.               |                    opcode: "vector" (0xfd) 0xb80-0xb81 (1)
0xb80|   51                                          | Q              |                    v_opcode: "v128.xor" (81) 0xb81-0xb82 (1)
     |                                               |                |                  [3]{}: in 0xb82-0xb84 (2)
0xb80|      fd                                       |  .             |                    opcode: "vector" (0xfd) 0xb82-0xb83 (1)
0xb80|         53                                    |   S            |                    v_opcode: "v128.any_true" (83) 0xb83-0xb84 (1)
     |                                               |                |                  [4]{}: in 0xb84-0xb85 (1)
0xb80|            0b                                 |    .           |                    opcode: "end" (0xb) 0xb84-0xb85 (1)
     |                                               |                |            [48]{}: code 0xb85-0xb92 (13)
0xb80|               0c                              |     .          |              size: 12 (valid) 0xb85-0xb86 (1)
     |                                               |                |              code{}: 0xb86-0xb92 (12)
     |                                               |                |                t{}: 0xb86-0xb87 (1)
0xb80|                  00                           |      .         |                  n: 0 (valid) 0xb86-0xb87 (1)
     |                                               |                |                  x[0:0]: 0xb87-0xb87 (0)
     |                                               |                |                e[0:6]: 0xb87-0xb92 (11)
     |                                               |                |                  [0]{}: in 0xb87-0xb89 (2)
0xb80|                     20                        |                |                    opcode: "local.get" (0x20) 0xb87-0xb88 (1)
0xb80|                        00                     |        .       |                    x: 0 (valid) 0xb88-0xb89 (1)
     |                                               |                |                  [1]{}: in 0xb89-0xb8b (2)
0xb80|                           20                  |                |                    opcode: "local.get" (0x20) 0xb89-0xb8a (1)
0xb80|                              01               |          .     |                    x: 1 (valid) 0xb8a-0xb8b (1)
     |                                               |                |                  [2]{}: in 0xb8b-0xb8d (2)
0xb80|                                 20            |                |                    opcode: "local.get" (0x20) 0xb8b-0xb8c (1)
0xb80|                                    02         |            .   |                    x: 2 (valid) 0xb8c-0xb8d (1)
     |                                               |                |                  [3]{}: in 0xb8d-0xb8f (2)
0xb80|                                       fd      |             .  |                    opcode: "vector" (0xfd) 0xb8d-0xb8e (1)
0xb80|                                          52   |              R |                    v_opcode: "v128.bitselect" (82) 0xb8e-0xb8f (1)
     |                                               |                |                  [4]{}: in 0xb8f-0xb91 (2)
0xb80|                                             fd|               .|                    opcode: "vector" (0xfd) 0xb8f-0xb90 (1)
0xb90|53                                             |S               |                    v_opcode: "v128.any_true" (83) 0xb90-0xb91 (1)
     |                                               |                |                  [5]{}: in 0xb91-0xb92 (1)
0xb90|   0b                                          | .              |                    opcode: "end" (0xb) 0xb91-0xb92 (1)
     |                                               |                |            [49]{}: code 0xb92-0xb9f (13)
0xb90|      0c                                       |  .             |              size: 12 (valid) 0xb92-0xb93 (1)
     |                                               |                |              code{}: 0xb93-0xb9f (12)
     |                                               |                |                t{}: 0xb93-0xb94 (1)
0xb90|         00                                    |   .            |                  n: 0 (valid) 0xb93-0xb94 (1)
     |                                               |                |                  x[0:0]: 0xb94-0xb94 (0)
     |                                               |                |                e[0:6]: 0xb94-0xb9f (11)
     |                                               |                |                  [0]{}: in 0xb94-0xb96 (2)
0xb90|            20                                 |                |                    opcode: "local.get" (0x20) 0xb94-0xb95 (1)
0xb90|               00                              |     .          |                    x: 0 (valid) 0xb95-0xb96 (1)
     |                                               |                |                  [1]{}: in 0xb96-0xb98 (2)
0xb90|                  20                           |                |                    opcode: "local.get" (0x20) 0xb96-0xb97 (1)
0xb90|                     01                        |       .        |                    x: 1 (valid) 0xb97-0xb98 (1)
     |                                               |                |                  [2]{}: in 0xb98-0xb9a (2)
0xb90|                        20                     |                |                    opcode: "local.get" (0x20) 0xb98-0xb99 (1)
0xb90|                           02                  |         .      |                    x: 2 (valid) 0xb99-0xb9a (1)
     |                                               |                |                  [3]{}: in 0xb9a-0xb9c (2)
0xb90|                              fd               |          .     |                    opcode: "vector" (0xfd) 0xb9a-0xb9b (1)
0xb90|                                 52            |           R    |                    v_opcode: "v128.bitselect" (82) 0xb9b-0xb9c (1)
     |                                               |                |                  [4]{}: in 0xb9c-0xb9e (2)
0xb90|                                    fd         |            .   |                    opcode: "vector" (0xfd) 0xb9c-0xb9d (1)
0xb90|                                       53      |             S  |                    v_opcode: "v128.any_true" (83) 0xb9d-0xb9e (1)
     |                                               |                |                  [5]{}: in 0xb9e-0xb9f (1)
0xb90|                                          0b   |              . |                    opcode: "end" (0xb) 0xb9e-0xb9f (1)
     |                                               |                |            [50]{}: code 0xb9f-0xbac (13)
0xb90|                                             0c|               .|              size: 12 (valid) 0xb9f-0xba0 (1)
     |                                               |                |              code{}: 0xba0-0xbac (12)
     |                                               |                |                t{}: 0xba0-0xba1 (1)
0xba0|00                                             |.               |                  n: 0 (valid) 0xba0-0xba1 (1)
     |                                               |                |                  x[0:0]: 0xba1-0xba1 (0)
     |                                               |                |                e[0:6]: 0xba1-0xbac (11)
     |                                               |                |                  [0]{}: in 0xba1-0xba3 (2)
0xba0|   20                                          |                |                    opcode: "local.get" (0x20) 0xba1-0xba2 (1)
0xba0|      00                                       |  .             |                    x: 0 (valid) 0xba2-0xba3 (1)
     |                                               |                |                  [1]{}: in 0xba3-0xba5 (2)
0xba0|         20                                    |                |                    opcode: "local.get" (0x20) 0xba3-0xba4 (1)
0xba0|            01                                 |    .           |                    x: 1 (valid) 0xba4-0xba5 (1)
     |                                               |                |                  [2]{}: in 0xba5-0xba7 (2)
0xba0|               20                              |                |                    opcode: "local.get" (0x20) 0xba5-0xba6 (1)
0xba0|                  02                           |      .         |                    x: 2 (valid) 0xba6-0xba7 (1)
     |                                               |                |                  [3]{}: in 0xba7-0xba9 (2)
0xba0|                     fd                        |       .        |                    opcode: "vector" (0xfd) 0xba7-0xba8 (1)
0xba0|                        52                     |        R       |                    v_opcode: "v128.bitselect" (82) 0xba8-0xba9 (1)
     |                                               |                |                  [4]{}: in 0xba9-0xbab (2)
0xba0|                           fd                  |         .      |                    opcode: "vector" (0xfd) 0xba9-0xbaa (1)
0xba0|                              53               |          S     |                    v_opcode: "v128.any_true" (83) 0xbaa-0xbab (1)
     |                                               |                |                  [5]{}: in 0xbab-0xbac (1)
0xba0|                                 0b            |           .    |                    opcode: "end" (0xb) 0xbab-0xbac (1)
     |                                               |                |            [51]{}: code 0xbac-0xbb5 (9)
0xba0|                                    08         |            .   |              size: 8 (valid) 0xbac-0xbad (1)
     |                                               |                |              code{}: 0xbad-0xbb5 (8)
     |                                               |                |                t{}: 0xbad-0xbae (1)
0xba0|                                       00      |             .  |                  n: 0 (valid) 0xbad-0xbae (1)
     |                                               |                |                  x[0:0]: 0xbae-0xbae (0)
     |                                               |                |                e[0:4]: 0xbae-0xbb5 (7)
     |                                               |                |                  [0]{}: in 0xbae-0xbb0 (2)
0xba0|                                          20   |                |                    opcode: "local.get" (0x20) 0xbae-0xbaf (1)
0xba0|                                             00|               .|                    x: 0 (valid) 0xbaf-0xbb0 (1)
     |                                               |                |                  [1]{}: in 0xbb0-0xbb2 (2)
0xbb0|fd                                             |.               |                    opcode: "vector" (0xfd) 0xbb0-0xbb1 (1)
0xbb0|   4d                                          | M              |                    v_opcode: "v128.not" (77) 0xbb1-0xbb2 (1)
     |                                               |                |                  [2]{}: in 0xbb2-0xbb4 (2)
0xbb0|      fd                                       |  .             |                    opcode: "vector" (0xfd) 0xbb2-0xbb3 (1)
0xbb0|         63                                    |   c            |                    v_opcode: "i8x16.all_true" (99) 0xbb3-0xbb4 (1)
     |                                               |                |                  [3]{}: in 0xbb4-0xbb5 (1)
0xbb0|            0b                                 |    .           |                    opcode: "end" (0xb) 0xbb4-0xbb5 (1)
     |                                               |                |            [52]{}: code 0xbb5-0xbbf (10)
0xbb0|               09                              |     .          |              size: 9 (valid) 0xbb5-0xbb6 (1)
     |                                               |                |              code{}: 0xbb6-0xbbf (9)
     |                                               |                |                t{}: 0xbb6-0xbb7 (1)
0xbb0|                  00                           |      .         |                  n: 0 (valid) 0xbb6-0xbb7 (1)
     |                                               |                |                  x[0:0]: 0xbb7-0xbb7 (0)
     |                                               |                |                e[0:4]: 0xbb7-0xbbf (8)
     |                                               |                |                  [0]{}: in 0xbb7-0xbb9 (2)
0xbb0|                     20                        |                |                    opcode: "local.get" (0x20) 0xbb7-0xbb8 (1)
0xbb0|                        00                     |        .       |                    x: 0 (valid) 0xbb8-0xbb9 (1)
     |                                               |                |                  [1]{}: in 0xbb9-0xbbb (2)
0xbb0|                           fd                  |         .      |                    opcode: "vector" (0xfd) 0xbb9-0xbba (1)
0xbb0|                              4d               |          M     |                    v_opcode: "v128.not" (77) 0xbba-0xbbb (1)
     |                                               |                |                  [2]{}: in 0xbbb-0xbbe (3)
0xbb0|                                 fd            |           .    |                    opcode: "vector" (0xfd) 0xbbb-0xbbc (1)
0xbb0|                                    83 01      |            ..  |                    v_opcode: "i16x8.all_true" (131) 0xbbc-0xbbe (2)
     |                                               |                |                  [3]{}: in 0xbbe-0xbbf (1)
0xbb0|                                          0b   |              . |                    opcode: "end" (0xb) 0xbbe-0xbbf (1)
     |                                               |                |            [53]{}: code 0xbbf-0xbc9 (10)
0xbb0|                                             09|               .|              size: 9 (valid) 0xbbf-0xbc0 (1)
     |                                               |                |              code{}: 0xbc0-0xbc9 (9)
     |                                               |                |                t{}: 0xbc0-0xbc1 (1)
0xbc0|00                                             |.               |                  n: 0 (valid) 0xbc0-0xbc1 (1)
     |                                               |                |                  x[0:0]: 0xbc1-0xbc1 (0)
     |                                               |                |                e[0:4]: 0xbc1-0xbc9 (8)
     |                                               |                |                  [0]{}: in 0xbc1-0xbc3 (2)
0xbc0|   20                                          |                |                    opcode: "local.get" (0x20) 0xbc1-0xbc2 (1)
0xbc0|      00                                       |  .             |                    x: 0 (valid) 0xbc2-0xbc3 (1)
     |                                               |                |                  [1]{}: in 0xbc3-0xbc5 (2)
0xbc0|         fd                                    |   .            |                    opcode: "vector" (0xfd) 0xbc3-0xbc4 (1)
0xbc0|            4d                                 |    M           |                    v_opcode: "v128.not" (77) 0xbc4-0xbc5 (1)
     |                                               |                |                  [2]{}: in 0xbc5-0xbc8 (3)
0xbc0|               fd                              |     .          |                    opcode: "vector" (0xfd) 0xbc5-0xbc6 (1)
0xbc0|                  a3 01                        |      ..        |                    v_opcode: "i32x4.all_true" (163) 0xbc6-0xbc8 (2)
     |                                               |                |                  [3]{}: in 0xbc8-0xbc9 (1)
0xbc0|                        0b                     |        .       |                    opcode: "end" (0xb) 0xbc8-0xbc9 (1)
     |                                               |                |            [54]{}: code 0xbc9-0xbd4 (11)
0xbc0|                           0a                  |         .      |              size: 10 (valid) 0xbc9-0xbca (1)
     |                                               |                |              code{}: 0xbca-0xbd4 (10)
     |                                               |                |                t{}: 0xbca-0xbcb (1)
0xbc0|                              00               |          .     |                  n: 0 (valid) 0xbca-0xbcb (1)
     |                                               |                |                  x[0:0]: 0xbcb-0xbcb (0)
     |                                               |                |                e[0:5]: 0xbcb-0xbd4 (9)
     |                                               |                |                  [0]{}: in 0xbcb-0xbcd (2)
0xbc0|                                 20            |                |                    opcode: "local.get" (0x20) 0xbcb-0xbcc (1)
0xbc0|                                    00         |            .   |                    x: 0 (valid) 0xbcc-0xbcd (1)
     |                                               |                |                  [1]{}: in 0xbcd-0xbcf (2)
0xbc0|                                       20      |                |                    opcode: "local.get" (0x20) 0xbcd-0xbce (1)
0xbc0|                                          01   |              . |                    x: 1 (valid) 0xbce-0xbcf (1)
     |                                               |                |                  [2]{}: in 0xbcf-0xbd1 (2)
0xbc0|                                             fd|               .|                    opcode: "vector" (0xfd) 0xbcf-0xbd0 (1)
0xbd0|4e                                             |N               |                    v_opcode: "v128.and" (78) 0xbd0-0xbd1 (1)
     |                                               |                |                  [3]{}: in 0xbd1-0xbd3 (2)
0xbd0|   fd                                          | .              |                    opcode: "vector" (0xfd) 0xbd1-0xbd2 (1)
0xbd0|      63                                       |  c             |                    v_opcode: "i8x16.all_true" (99) 0xbd2-0xbd3 (1)
     |                                               |                |                  [4]{}: in 0xbd3-0xbd4 (1)
0xbd0|         0b                                    |   .            |                    opcode: "end" (0xb) 0xbd3-0xbd4 (1)
     |                                               |                |            [55]{}: code 0xbd4-0xbe0 (12)
0xbd0|            0b                                 |    .           |              size: 11 (valid) 0xbd4-0xbd5 (1)
     |                                               |                |              code{}: 0xbd5-0xbe0 (11)
     |                                               |                |                t{}: 0xbd5-0xbd6 (1)
0xbd0|               00                              |     .          |                  n: 0 (valid) 0xbd5-0xbd6 (1)
     |                                               |                |                  x[0:0]: 0xbd6-0xbd6 (0)
     |                                               |                |                e[0:5]: 0xbd6-0xbe0 (10)
     |                                               |                |                  [0]{}: in 0xbd6-0xbd8 (2)
0xbd0|                  20                           |                |                    opcode: "local.get" (0x20) 0xbd6-0xbd7 (1)
0xbd0|                     00                        |       .        |                    x: 0 (valid) 0xbd7-0xbd8 (1)
     |                                               |                |                  [1]{}: in 0xbd8-0xbda (2)
0xbd0|                        20                     |                |                    opcode: "local.get" (0x20) 0xbd8-0xbd9 (1)
0xbd0|                           01                  |         .      |                    x: 1 (valid) 0xbd9-0xbda (1)
     |                                               |                |                  [2]{}: in 0xbda-0xbdc (2)
0xbd0|                              fd               |          .     |                    opcode: "vector" (0xfd) 0xbda-0xbdb (1)
0xbd0|                                 4e            |           N    |                    v_opcode: "v128.and" (78) 0xbdb-0xbdc (1)
     |                                               |                |                  [3]{}: in 0xbdc-0xbdf (3)
0xbd0|                                    fd         |            .   |                    opcode: "vector" (0xfd) 0xbdc-0xbdd (1)
0xbd0|                                       83 01   |             .. |                    v_opcode: "i16x8.all_true" (131) 0xbdd-0xbdf (2)
     |                                               |                |                  [4]{}: in 0xbdf-0xbe0 (1)
0xbd0|                                             0b|               .|                    opcode: "end" (0xb) 0xbdf-0xbe0 (1)
     |                                               |                |            [56]{}: code 0xbe0-0xbec (12)
0xbe0|0b                                             |.               |              size: 11 (valid) 0xbe0-0xbe1 (1)
     |                                               |                |              code{}: 0xbe1-0xbec (11)
     |                                               |                |                t{}: 0xbe1-0xbe2 (1)
0xbe0|   00                                          | .              |                  n: 0 (valid) 0xbe1-0xbe2 (1)
     |                                               |                |                  x[0:0]: 0xbe2-0xbe2 (0)
     |                                               |                |                e[0:5]: 0xbe2-0xbec (10)
     |                                               |                |                  [0]{}: in 0xbe2-0xbe4 (2)
0xbe0|      20                                       |                |                    opcode: "local.get" (0x20) 0xbe2-0xbe3 (1)
0xbe0|         00                                    |   .            |                    x: 0 (valid) 0xbe3-0xbe4 (1)
     |                                               |                |                  [1]{}: in 0xbe4-0xbe6 (2)
0xbe0|            20                                 |                |                    opcode: "local.get" (0x20) 0xbe4-0xbe5 (1)
0xbe0|               01                              |     .          |                    x: 1 (valid) 0xbe5-0xbe6 (1)
     |                                               |                |                  [2]{}: in 0xbe6-0xbe8 (2)
0xbe0|                  fd                           |      .         |                    opcode: "vector" (0xfd) 0xbe6-0xbe7 (1)
0xbe0|                     4e                        |       N        |                    v_opcode: "v128.and" (78) 0xbe7-0xbe8 (1)
     |                                               |                |                  [3]{}: in 0xbe8-0xbeb (3)
0xbe0|                        fd                     |        .       |                    opcode: "vector" (0xfd) 0xbe8-0xbe9 (1)
0xbe0|                           a3 01               |         ..     |                    v_opcode: "i32x4.all_true" (163) 0xbe9-0xbeb (2)
     |                                               |                |                  [4]{}: in 0xbeb-0xbec (1)
0xbe0|                                 0b            |           .    |                    opcode: "end" (0xb) 0xbeb-0xbec (1)
     |                                               |                |            [57]{}: code 0xbec-0xbf7 (11)
0xbe0|                                    0a         |            .   |              size: 10 (valid) 0xbec-0xbed (1)
     |                                               |                |              code{}: 0xbed-0xbf7 (10)
     |                                               |                |                t{}: 0xbed-0xbee (1)
0xbe0|                                       00      |             .  |                  n: 0 (valid) 0xbed-0xbee (1)
     |                                               |                |                  x[0:0]: 0xbee-0xbee (0)
     |                                               |                |                e[0:5]: 0xbee-0xbf7 (9)
     |                                               |                |                  [0]{}: in 0xbee-0xbf0 (2)
0xbe0|                                          20   |                |                    opcode: "local.get" (0x20) 0xbee-0xbef (1)
0xbe0|                                             00|               .|                    x: 0 (valid) 0xbef-0xbf0 (1)
     |                                               |                |                  [1]{}: in 0xbf0-0xbf2 (2)
0xbf0|20                                             |                |                    opcode: "local.get" (0x20) 0xbf0-0xbf1 (1)
0xbf0|   01                                          | .              |                    x: 1 (valid) 0xbf1-0xbf2 (1)
     |                                               |                |                  [2]{}: in 0xbf2-0xbf4 (2)
0xbf0|      fd                                       |  .             |                    opcode: "vector" (0xfd) 0xbf2-0xbf3 (1)
0xbf0|         50                                    |   P            |                    v_opcode: "v128.or" (80) 0xbf3-0xbf4 (1)
     |                                               |                |                  [3]{}: in 0xbf4-0xbf6 (2)
0xbf0|            fd                                 |    .           |                    opcode: "vector" (0xfd) 0xbf4-0xbf5 (1)
0xbf0|               63                              |     c          |                    v_opcode: "i8x16.all_true" (99) 0xbf5-0xbf6 (1)
     |                                               |                |                  [4]{}: in 0xbf6-0xbf7 (1)
0xbf0|                  0b                           |      .         |                    opcode: "end" (0xb) 0xbf6-0xbf7 (1)
     |                                               |                |            [58]{}: code 0xbf7-0xc03 (12)
0xbf0|                     0b                        |       .        |              size: 11 (valid) 0xbf7-0xbf8 (1)
     |                                               |                |              code{}: 0xbf8-0xc03 (11)
     |                                               |                |                t{}: 0xbf8-0xbf9 (1)
0xbf0|                        00                     |        .       |                  n: 0 (valid) 0xbf8-0xbf9 (1)
     |                                               |                |                  x[0:0]: 0xbf9-0xbf9 (0)
     |                                               |                |                e[0:5]: 0xbf9-0xc03 (10)
     |                                               |                |                  [0]{}: in 0xbf9-0xbfb (2)
0xbf0|                           20                  |                |                    opcode: "local.get" (0x20) 0xbf9-0xbfa (1)
0xbf0|                              00               |          .     |                    x: 0 (valid) 0xbfa-0xbfb (1)
     |                                               |                |                  [1]{}: in 0xbfb-0xbfd (2)
0xbf0|                                 20            |                |                    opcode: "local.get" (0x20) 0xbfb-0xbfc (1)
0xbf0|                                    01         |            .   |                    x: 1 (valid) 0xbfc-0xbfd (1)
     |                                               |                |                  [2]{}: in 0xbfd-0xbff (2)
0xbf0|                                       fd      |             .  |                    opcode: "vector" (0xfd) 0xbfd-0xbfe (1)
0xbf0|                                          50   |              P |                    v_opcode: "v128.or" (80) 0xbfe-0xbff (1)
     |                                               |                |                  [3]{}: in 0xbff-0xc02 (3)
0xbf0|                                             fd|               .|                    opcode: "vector" (0xfd) 0xbff-0xc00 (1)
0xc00|83 01                                          |..              |                    v_opcode: "i16x8.all_true" (131) 0xc00-0xc02 (2)
     |                                               |                |                  [4]{}: in 0xc02-0xc03 (1)
0xc00|      0b                                       |  .             |                    opcode: "end" (0xb) 0xc02-0xc03 (1)
     |                                               |                |            [59]{}: code 0xc03-0xc0f (12)
0xc00|         0b                                    |   .            |              size: 11 (valid) 0xc03-0xc04 (1)
     |                                               |                |              code{}: 0xc04-0xc0f (11)
     |                                               |                |                t{}: 0xc04-0xc05 (1)
0xc00|            00                                 |    .           |                  n: 0 (valid) 0xc04-0xc05 (1)
     |                                               |                |                  x[0:0]: 0xc05-0xc05 (0)
     |                                               |                |                e[0:5]: 0xc05-0xc0f (10)
     |                                               |                |                  [0]{}: in 0xc05-0xc07 (2)
0xc00|               20                              |                |                    opcode: "local.get" (0x20) 0xc05-0xc06 (1)
0xc00|                  00                           |      .         |                    x: 0 (valid) 0xc06-0xc07 (1)
     |                                               |                |                  [1]{}: in 0xc07-0xc09 (2)
0xc00|                     20                        |                |                    opcode: "local.get" (0x20) 0xc07-0xc08 (1)
0xc00|                        01                     |        .       |                    x: 1 (valid) 0xc08-0xc09 (1)
     |                                               |                |                  [2]{}: in 0xc09-0xc0b (2)
0xc00|                           fd                  |         .      |                    opcode: "vector" (0xfd) 0xc09-0xc0a (1)
0xc00|                              50               |          P     |                    v_opcode: "v128.or" (80) 0xc0a-0xc0b (1)
     |                                               |                |                  [3]{}: in 0xc0b-0xc0e (3)
0xc00|                                 fd            |           .    |                    opcode: "vector" (0xfd) 0xc0b-0xc0c (1)
0xc00|                                    a3 01      |            ..  |                    v_opcode: "i32x4.all_true" (163) 0xc0c-0xc0e (2)
     |                                               |                |                  [4]{}: in 0xc0e-0xc0f (1)
0xc00|                                          0b   |              . |                    opcode: "end" (0xb) 0xc0e-0xc0f (1)
     |                                               |                |            [60]{}: code 0xc0f-0xc1a (11)
0xc00|                                             0a|               .|              size: 10 (valid) 0xc0f-0xc10 (1)
     |                                               |                |              code{}: 0xc10-0xc1a (10)
     |                                               |                |                t{}: 0xc10-0xc11 (1)
0xc10|00                                             |.               |                  n: 0 (valid) 0xc10-0xc11 (1)
     |                                               |                |                  x[0:0]: 0xc11-0xc11 (0)
     |                                               |                |                e[0:5]: 0xc11-0xc1a (9)
     |                                               |                |                  [0]{}: in 0xc11-0xc13 (2)
0xc10|   20                                          |                |                    opcode: "local.get" (0x20) 0xc11-0xc12 (1)
0xc10|      00                                       |  .             |                    x: 0 (valid) 0xc12-0xc13 (1)
     |                                               |                |                  [1]{}: in 0xc13-0xc15 (2)
0xc10|         20                                    |                |                    opcode: "local.get" (0x20) 0xc13-0xc14 (1)
0xc10|            01                                 |    .           |                    x: 1 (valid) 0xc14-0xc15 (1)
     |                                               |                |                  [2]{}: in 0xc15-0xc17 (2)
0xc10|               fd                              |     .          |                    opcode: "vector" (0xfd) 0xc15-0xc16 (1)
0xc10|                  51                           |      Q         |                    v_opcode: "v128.xor" (81) 0xc16-0xc17 (1)
     |                                               |                |                  [3]{}: in 0xc17-0xc19 (2)
0xc10|                     fd                        |       .        |                    opcode: "vector" (0xfd) 0xc17-0xc18 (1)
0xc10|                        63                     |        c       |                    v_opcode: "i8x16.all_true" (99) 0xc18-0xc19 (1)
     |                                               |                |                  [4]{}: in 0xc19-0xc1a (1)
0xc10|                           0b                  |         .      |                    opcode: "end" (0xb) 0xc19-0xc1a (1)
     |                                               |                |            [61]{}: code 0xc1a-0xc26 (12)
0xc10|                              0b               |          .     |              size: 11 (valid) 0xc1a-0xc1b (1)
     |                                               |                |              code{}: 0xc1b-0xc26 (11)
     |                                               |                |                t{}: 0xc1b-0xc1c (1)
0xc10|                                 00            |           .    |                  n: 0 (valid) 0xc1b-0xc1c (1)
     |                                               |                |                  x[0:0]: 0xc1c-0xc1c (0)
     |                                               |                |                e[0:5]: 0xc1c-0xc26 (10)
     |                                               |                |                  [0]{}: in 0xc1c-0xc1e (2)
0xc10|                                    20         |                |                    opcode: "local.get" (0x20) 0xc1c-0xc1d (1)
0xc10|                                       00      |             .  |                    x: 0 (valid) 0xc1d-0xc1e (1)
     |                                               |                |                  [1]{}: in 0xc1e-0xc20 (2)
0xc10|                                          20   |                |                    opcode: "local.get" (0x20) 0xc1e-0xc1f (1)
0xc10|                                             01|               .|                    x: 1 (valid) 0xc1f-0xc20 (1)
     |                                               |                |                  [2]{}: in 0xc20-0xc22 (2)
0xc20|fd                                             |.               |                    opcode: "vector" (0xfd) 0xc20-0xc21 (1)
0xc20|   51                                          | Q              |                    v_opcode: "v128.xor" (81) 0xc21-0xc22 (1)
     |                                               |                |                  [3]{}: in 0xc22-0xc25 (3)
0xc20|      fd                                       |  .             |                    opcode: "vector" (0xfd) 0xc22-0xc23 (1)
0xc20|         83 01                                 |   ..           |                    v_opcode: "i16x8.all_true" (131) 0xc23-0xc25 (2)
     |                                               |                |                  [4]{}: in 0xc25-0xc26 (1)
0xc20|               0b                              |     .          |                    opcode: "end" (0xb) 0xc25-0xc26 (1)
     |                                               |                |            [62]{}: code 0xc26-0xc32 (12)
0xc20|                  0b                           |      .         |              size: 11 (valid) 0xc26-0xc27 (1)
     |                                               |                |              code{}: 0xc27-0xc32 (11)
     |                                               |                |                t{}: 0xc27-0xc28 (1)
0xc20|                     00                        |       .        |                  n: 0 (valid) 0xc27-0xc28 (1)
     |                                               |                |                  x[0:0]: 0xc28-0xc28 (0)
     |                                               |                |                e[0:5]: 0xc28-0xc32 (10)
     |                                               |                |                  [0]{}: in 0xc28-0xc2a (2)
0xc20|                        20                     |                |                    opcode: "local.get" (0x20) 0xc28-0xc29 (1)
0xc20|                           00                  |         .      |                    x: 0 (valid) 0xc29-0xc2a (1)
     |                                               |                |                  [1]{}: in 0xc2a-0xc2c (2)
0xc20|                              20               |                |                    opcode: "local.get" (0x20) 0xc2a-0xc2b (1)
0xc20|                                 01            |           .    |                    x: 1 (valid) 0xc2b-0xc2c (1)
     |                                               |                |                  [2]{}: in 0xc2c-0xc2e (2)
0xc20|                                    fd         |            .   |                    opcode: "vector" (0xfd) 0xc2c-0xc2d (1)
0xc20|                                       51      |             Q  |                    v_opcode: "v128.xor" (81) 0xc2d-0xc2e (1)
     |                                               |                |                  [3]{}: in 0xc2e-0xc31 (3)
0xc20|                                          fd   |              . |                    opcode: "vector" (0xfd) 0xc2e-0xc2f (1)
0xc20|                                             a3|               .|                    v_opcode: "i32x4.all_true" (163) 0xc2f-0xc31 (2)
0xc30|01                                             |.               |
     |                                               |                |                  [4]{}: in 0xc31-0xc32 (1)
0xc30|   0b                                          | .              |                    opcode: "end" (0xb) 0xc31-0xc32 (1)
     |                                               |                |            [63]{}: code 0xc32-0xc3f (13)
0xc30|      0c                                       |  .             |              size: 12 (valid) 0xc32-0xc33 (1)
     |                                               |                |              code{}: 0xc33-0xc3f (12)
     |                                               |                |                t{}: 0xc33-0xc34 (1)
0xc30|         00                                    |   .            |                  n: 0 (valid) 0xc33-0xc34 (1)
     |                                               |                |                  x[0:0]: 0xc34-0xc34 (0)
     |                                               |                |                e[0:6]: 0xc34-0xc3f (11)
     |                                               |                |                  [0]{}: in 0xc34-0xc36 (2)
0xc30|            20                                 |                |                    opcode: "local.get" (0x20) 0xc34-0xc35 (1)
0xc30|               00                              |     .          |                    x: 0 (valid) 0xc35-0xc36 (1)
     |                                               |                |                  [1]{}: in 0xc36-0xc38 (2)
0xc30|                  20                           |                |                    opcode: "local.get" (0x20) 0xc36-0xc37 (1)
0xc30|                     01                        |       .        |                    x: 1 (valid) 0xc37-0xc38 (1)
     |                                               |                |                  [2]{}: in 0xc38-0xc3a (2)
0xc30|                        20                     |                |                    opcode: "local.get" (0x20) 0xc38-0xc39 (1)
0xc30|                           02                  |         .      |                    x: 2 (valid) 0xc39-0xc3a (1)
     |                                               |                |                  [3]{}: in 0xc3a-0xc3c (2)
0xc30|                              fd               |          .     |                    opcode: "vector" (0xfd) 0xc3a-0xc3b (1)
0xc30|                                 52            |           R    |                    v_opcode: "v128.bitselect" (82) 0xc3b-0xc3c (1)
     |                                               |                |                  [4]{}: in 0xc3c-0xc3e (2)
0xc30|                                    fd         |            .   |                    opcode: "vector" (0xfd) 0xc3c-0xc3d (1)
0xc30|                                       63      |             c  |                    v_opcode: "i8x16.all_true" (99) 0xc3d-0xc3e (1)
     |                                               |                |                  [5]{}: in 0xc3e-0xc3f (1)
0xc30|                                          0b   |              . |                    opcode: "end" (0xb) 0xc3e-0xc3f (1)
     |                                               |                |            [64]{}: code 0xc3f-0xc4d (14)
0xc30|                                             0d|               .|              size: 13 (valid) 0xc3f-0xc40 (1)
     |                                               |                |              code{}: 0xc40-0xc4d (13)
     |                                               |                |                t{}: 0xc40-0xc41 (1)
0xc40|00                                             |.               |                  n: 0 (valid) 0xc40-0xc41 (1)
     |                                               |                |                  x[0:0]: 0xc41-0xc41 (0)
     |                                               |                |                e[0:6]: 0xc41-0xc4d (12)
     |                                               |                |                  [0]{}: in 0xc41-0xc43 (2)
0xc40|   20                                          |                |                    opcode: "local.get" (0x20) 0xc41-0xc42 (1)
0xc40|      00                                       |  .             |                    x: 0 (valid) 0xc42-0xc43 (1)
     |                                               |                |                  [1]{}: in 0xc43-0xc45 (2)
0xc40|         20                                    |                |                    opcode: "local.get" (0x20) 0xc43-0xc44 (1)
0xc40|            01                                 |    .           |                    x: 1 (valid) 0xc44-0xc45 (1)
     |                                               |                |                  [2]{}: in 0xc45-0xc47 (2)
0xc40|               20                              |                |                    opcode: "local.get" (0x20) 0xc45-0xc46 (1)
0xc40|                  02                           |      .         |                    x: 2 (valid) 0xc46-0xc47 (1)
     |                                               |                |                  [3]{}: in 0xc47-0xc49 (2)
0xc40|                     fd                        |       .        |                    opcode: "vector" (0xfd) 0xc47-0xc48 (1)
0xc40|                        52                     |        R       |                    v_opcode: "v128.bitselect" (82) 0xc48-0xc49 (1)
     |                                               |                |                  [4]{}: in 0xc49-0xc4c (3)
0xc40|                           fd                  |         .      |                    opcode: "vector" (0xfd) 0xc49-0xc4a (1)
0xc40|                              83 01            |          ..    |                    v_opcode: "i16x8.all_true" (131) 0xc4a-0xc4c (2)
     |                                               |                |                  [5]{}: in 0xc4c-0xc4d (1)
0xc40|                                    0b         |            .   |                    opcode: "end" (0xb) 0xc4c-0xc4d (1)
     |                                               |                |            [65]{}: code 0xc4d-0xc5b (14)
0xc40|                                       0d      |             .  |              size: 13 (valid) 0xc4d-0xc4e (1)
     |                                               |                |              code{}: 0xc4e-0xc5b (13)
     |                                               |                |                t{}: 0xc4e-0xc4f (1)
0xc40|                                          00   |              . |                  n: 0 (valid) 0xc4e-0xc4f (1)
     |                                               |                |                  x[0:0]: 0xc4f-0xc4f (0)
     |                                               |                |                e[0:6]: 0xc4f-0xc5b (12)
     |                                               |                |                  [0]{}: in 0xc4f-0xc51 (2)
0xc40|                                             20|                |                    opcode: "local.get" (0x20) 0xc4f-0xc50 (1)
0xc50|00                                             |.               |                    x: 0 (valid) 0xc50-0xc51 (1)
     |                                               |                |                  [1]{}: in 0xc51-0xc53 (2)
0xc50|   20                                          |                |                    opcode: "local.get" (0x20) 0xc51-0xc52 (1)
0xc50|      01                                       |  .             |                    x: 1 (valid) 0xc52-0xc53 (1)
     |                                               |                |                  [2]{}: in 0xc53-0xc55 (2)
0xc50|         20                                    |                |                    opcode: "local.get" (0x20) 0xc53-0xc54 (1)
0xc50|            02                                 |    .           |                    x: 2 (valid) 0xc54-0xc55 (1)
     |                                               |                |                  [3]{}: in 0xc55-0xc57 (2)
0xc50|               fd                              |     .          |                    opcode: "vector" (0xfd) 0xc55-0xc56 (1)
0xc50|                  52                           |      R         |                    v_opcode: "v128.bitselect" (82) 0xc56-0xc57 (1)
     |                                               |                |                  [4]{}: in 0xc57-0xc5a (3)
0xc50|                     fd                        |       .        |                    opcode: "vector" (0xfd) 0xc57-0xc58 (1)
0xc50|                        a3 01                  |        ..      |                    v_opcode: "i32x4.all_true" (163) 0xc58-0xc5a (2)
     |                                               |                |                  [5]{}: in 0xc5a-0xc5b (1)
0xc50|                              0b|              |          .|    |                    opcode: "end" (0xb) 0xc5a-0xc5b (1)
