$ fq -d wasm dv simd_load-9.wasm
    |00 01 02 03 04 05 06 07 08 09 0a 0b 0c 0d 0e 0f|0123456789abcdef|.{}: simd_load-9.wasm (wasm) 0x0-0x74 (116)
0x00|00 61 73 6d                                    |.asm            |  magic: raw bits (valid) 0x0-0x4 (4)
0x00|            01 00 00 00                        |    ....        |  version: 1 0x4-0x8 (4)
    |                                               |                |  sections[0:6]: 0x8-0x74 (108)
    |                                               |                |    [0]{}: section 0x8-0xf (7)
0x00|                        01                     |        .       |      id: "type_section" (1) 0x8-0x9 (1)
0x00|                           05                  |         .      |      size: 5 (valid) 0x9-0xa (1)
    |                                               |                |      content{}: 0xa-0xf (5)
    |                                               |                |        ft{}: 0xa-0xf (5)
0x00|                              01               |          .     |          n: 1 (valid) 0xa-0xb (1)
    |                                               |                |          x[0:1]: 0xb-0xf (4)
    |                                               |                |            [0]{}: ft 0xb-0xf (4)
0x00|                                 60            |           `    |              tag: 0x60 (valid) 0xb-0xc (1)
    |                                               |                |              rt1{}: 0xc-0xd (1)
0x00|                                    00         |            .   |                n: 0 (valid) 0xc-0xd (1)
    |                                               |                |                x[0:0]: 0xd-0xd (0)
    |                                               |                |              rt2{}: 0xd-0xf (2)
0x00|                                       01      |             .  |                n: 1 (valid) 0xd-0xe (1)
    |                                               |                |                x[0:1]: 0xe-0xf (1)
0x00|                                          7b   |              { |                  [0]: "v128" (0x7b) t 0xe-0xf (1)
    |                                               |                |    [1]{}: section 0xf-0x13 (4)
0x00|                                             03|               .|      id: "function_section" (3) 0xf-0x10 (1)
0x10|02                                             |.               |      size: 2 (valid) 0x10-0x11 (1)
    |                                               |                |      content{}: 0x11-0x13 (2)
    |                                               |                |        x{}: 0x11-0x13 (2)
0x10|   01                                          | .              |          n: 1 (valid) 0x11-0x12 (1)
    |                                               |                |          x[0:1]: 0x12-0x13 (1)
0x10|      00                                       |  .             |            [0]: 0 x (valid) 0x12-0x13 (1)
    |                                               |                |    [2]{}: section 0x13-0x18 (5)
0x10|         05                                    |   .            |      id: "memory_section" (5) 0x13-0x14 (1)
0x10|            03                                 |    .           |      size: 3 (valid) 0x14-0x15 (1)
    |                                               |                |      content{}: 0x15-0x18 (3)
    |                                               |                |        mem{}: 0x15-0x18 (3)
0x10|               01                              |     .          |          n: 1 (valid) 0x15-0x16 (1)
    |                                               |                |          x[0:1]: 0x16-0x18 (2)
    |                                               |                |            [0]{}: mem 0x16-0x18 (2)
    |                                               |                |              lim{}: 0x16-0x18 (2)
0x10|                  00                           |      .         |                tag: 0x0 0x16-0x17 (1)
0x10|                     01                        |       .        |                n: 1 (valid) 0x17-0x18 (1)
    |                                               |                |    [3]{}: section 0x18-0x32 (26)
0x10|                        07                     |        .       |      id: "export_section" (7) 0x18-0x19 (1)
0x10|                           18                  |         .      |      size: 24 (valid) 0x19-0x1a (1)
    |                                               |                |      content{}: 0x1a-0x32 (24)
    |                                               |                |        ex{}: 0x1a-0x32 (24)
0x10|                              01               |          .     |          n: 1 (valid) 0x1a-0x1b (1)
    |                                               |                |          x[0:1]: 0x1b-0x32 (23)
    |                                               |                |            [0]{}: ex 0x1b-0x32 (23)
    |                                               |                |              nm{}: 0x1b-0x30 (21)
0x10|                                 14            |           .    |                n: 20 (valid) 0x1b-0x1c (1)
0x10|                                    61 73 2d 66|            as-f|                b: "as-f32x4.min-operand" 0x1c-0x30 (20)
0x20|33 32 78 34 2e 6d 69 6e 2d 6f 70 65 72 61 6e 64|32x4.min-operand|
    |                                               |                |              d{}: 0x30-0x32 (2)
0x30|00                                             |.               |                tag: "funcidx" (0x0) 0x30-0x31 (1)
0x30|   00                                          | .              |                x: 0 (valid) 0x31-0x32 (1)
    |                                               |                |    [4]{}: section 0x32-0x47 (21)
0x30|      0a                                       |  .             |      id: "code_section" (10) 0x32-0x33 (1)
0x30|         13                                    |   .            |      size: 19 (valid) 0x33-0x34 (1)
    |                                               |                |      content{}: 0x34-0x47 (19)
    |                                               |                |        code{}: 0x34-0x47 (19)
0x30|            01                                 |    .           |          n: 1 (valid) 0x34-0x35 (1)
    |                                               |                |          x[0:1]: 0x35-0x47 (18)
    |                                               |                |            [0]{}: code 0x35-0x47 (18)
0x30|               11                              |     .          |              size: 17 (valid) 0x35-0x36 (1)
    |                                               |                |              code{}: 0x36-0x47 (17)
    |                                               |                |                t{}: 0x36-0x37 (1)
0x30|                  00                           |      .         |                  n: 0 (valid) 0x36-0x37 (1)
    |                                               |                |                  x[0:0]: 0x37-0x37 (0)
    |                                               |                |                e[0:6]: 0x37-0x47 (16)
    |                                               |                |                  [0]{}: in 0x37-0x39 (2)
0x30|                     41                        |       A        |                    opcode: "i32.const" (0x41) 0x37-0x38 (1)
0x30|                        00                     |        .       |                    n: 0 (valid) 0x38-0x39 (1)
    |                                               |                |                  [1]{}: in 0x39-0x3d (4)
0x30|                           fd                  |         .      |                    opcode: "vector" (0xfd) 0x39-0x3a (1)
0x30|                              00               |          .     |                    v_opcode: "v128.load" (0) 0x3a-0x3b (1)
    |                                               |                |                    m{}: 0x3b-0x3d (2)
0x30|                                 04            |           .    |                      a: 4 (valid) 0x3b-0x3c (1)
0x30|                                    00         |            .   |                      o: 0 (valid) 0x3c-0x3d (1)
    |                                               |                |                  [2]{}: in 0x3d-0x3f (2)
0x30|                                       41      |             A  |                    opcode: "i32.const" (0x41) 0x3d-0x3e (1)
0x30|                                          01   |              . |                    n: 1 (valid) 0x3e-0x3f (1)
    |                                               |                |                  [3]{}: in 0x3f-0x43 (4)
0x30|                                             fd|               .|                    opcode: "vector" (0xfd) 0x3f-0x40 (1)
0x40|00                                             |.               |                    v_opcode: "v128.load" (0) 0x40-0x41 (1)
    |                                               |                |                    m{}: 0x41-0x43 (2)
0x40|   04                                          | .              |                      a: 4 (valid) 0x41-0x42 (1)
0x40|      10                                       |  .             |                      o: 16 (valid) 0x42-0x43 (1)
    |                                               |                |                  [4]{}: in 0x43-0x46 (3)
0x40|         fd                                    |   .            |                    opcode: "vector" (0xfd) 0x43-0x44 (1)
0x40|            e8 01                              |    ..          |                    v_opcode: "f32x4.min" (232) 0x44-0x46 (2)
    |                                               |                |                  [5]{}: in 0x46-0x47 (1)
0x40|                  0b                           |      .         |                    opcode: "end" (0xb) 0x46-0x47 (1)
    |                                               |                |    [5]{}: section 0x47-0x74 (45)
0x40|                     0b                        |       .        |      id: "data_section" (11) 0x47-0x48 (1)
0x40|                        2b                     |        +       |      size: 43 (valid) 0x48-0x49 (1)
    |                                               |                |      content{}: 0x49-0x74 (43)
    |                                               |                |        seg{}: 0x49-0x74 (43)
0x40|                           02                  |         .      |          n: 2 (valid) 0x49-0x4a (1)
    |                                               |                |          x[0:2]: 0x4a-0x74 (42)
    |                                               |                |            [0]{}: seg 0x4a-0x5f (21)
0x40|                              00               |          .     |              tag: 0 (valid) 0x4a-0x4b (1)
    |                                               |                |              e[0:2]: 0x4b-0x4e (3)
    |                                               |                |                [0]{}: in 0x4b-0x4d (2)
0x40|                                 41            |           A    |                  opcode: "i32.const" (0x41) 0x4b-0x4c (1)
0x40|                                    00         |            .   |                  n: 0 (valid) 0x4c-0x4d (1)
    |                                               |                |                [1]{}: in 0x4d-0x4e (1)
0x40|                                       0b      |             .  |                  opcode: "end" (0xb) 0x4d-0x4e (1)
    |                                               |                |              b{}: 0x4e-0x5f (17)
0x40|                                          10   |              . |                n: 16 (valid) 0x4e-0x4f (1)
0x40|                                             aa|               .|                x: raw bits 0x4f-0x5f (16)
0x50|aa aa aa aa aa aa aa aa aa aa aa aa aa aa aa   |............... |
    |                                               |                |            [1]{}: seg 0x5f-0x74 (21)
0x50|                                             00|               .|              tag: 0 (valid) 0x5f-0x60 (1)
    |                                               |                |              e[0:2]: 0x60-0x63 (3)
    |                                               |                |                [0]{}: in 0x60-0x62 (2)
0x60|41                                             |A               |                  opcode: "i32.const" (0x41) 0x60-0x61 (1)
0x60|   10                                          | .              |                  n: 16 (valid) 0x61-0x62 (1)
    |                                               |                |                [1]{}: in 0x62-0x63 (1)
0x60|      0b                                       |  .             |                  opcode: "end" (0xb) 0x62-0x63 (1)
    |                                               |                |              b{}: 0x63-0x74 (17)
0x60|         10                                    |   .            |                n: 16 (valid) 0x63-0x64 (1)
0x60|            02 00 00 00 02 00 00 00 02 00 00 00|    ............|                x: raw bits 0x64-0x74 (16)
0x70|02 00 00 00|                                   |....|           |
