$ fq -d wasm dv simd_load-1.wasm
    |00 01 02 03 04 05 06 07 08 09 0a 0b 0c 0d 0e 0f|0123456789abcdef|.{}: simd_load-1.wasm (wasm) 0x0-0x68 (104)
0x00|00 61 73 6d                                    |.asm            |  magic: raw bits (valid) 0x0-0x4 (4)
0x00|            01 00 00 00                        |    ....        |  version: 1 0x4-0x8 (4)
    |                                               |                |  sections[0:6]: 0x8-0x68 (96)
    |                                               |                |    [0]{}: section 0x8-0xf (7)
0x00|                        01                     |        .       |      id: "type_section" (1) 0x8-0x9 (1)
0x00|                           05                  |         .      |      size: 5 (valid) 0x9-0xa (1)
    |                                               |                |      content{}: 0xa-0xf (5)
    |                                               |                |        ft{}: 0xa-0xf (5)
0x00|                              01               |          .     |          n: 1 (valid) 0xa-0xb (1)
    |                                               |                |          x[0:1]: 0xb-0xf (4)
    |                                               |                |            [0]{}: ft 0xb-0xf (4)
0x00|                                 60            |           `    |              tag: 0x60 (valid) 0xb-0xc (1)
    |                                               |                |              rt1{}: 0xc-0xd (1)
0x00|                                    00         |            .   |                n: 0 (valid) 0xc-0xd (1)
    |                                               |                |                x[0:0]: 0xd-0xd (0)
    |                                               |                |              rt2{}: 0xd-0xf (2)
0x00|                                       01      |             .  |                n: 1 (valid) 0xd-0xe (1)
    |                                               |                |                x[0:1]: 0xe-0xf (1)
0x00|                                          7f   |              . |                  [0]: "i32" (0x7f) t 0xe-0xf (1)
    |                                               |                |    [1]{}: section 0xf-0x13 (4)
0x00|                                             03|               .|      id: "function_section" (3) 0xf-0x10 (1)
0x10|02                                             |.               |      size: 2 (valid) 0x10-0x11 (1)
    |                                               |                |      content{}: 0x11-0x13 (2)
    |                                               |                |        x{}: 0x11-0x13 (2)
0x10|   01                                          | .              |          n: 1 (valid) 0x11-0x12 (1)
    |                                               |                |          x[0:1]: 0x12-0x13 (1)
0x10|      00                                       |  .             |            [0]: 0 x (valid) 0x12-0x13 (1)
    |                                               |                |    [2]{}: section 0x13-0x18 (5)
0x10|         05                                    |   .            |      id: "memory_section" (5) 0x13-0x14 (1)
0x10|            03                                 |    .           |      size: 3 (valid) 0x14-0x15 (1)
    |                                               |                |      content{}: 0x15-0x18 (3)
    |                                               |                |        mem{}: 0x15-0x18 (3)
0x10|               01                              |     .          |          n: 1 (valid) 0x15-0x16 (1)
    |                                               |                |          x[0:1]: 0x16-0x18 (2)
    |                                               |                |            [0]{}: mem 0x16-0x18 (2)
    |                                               |                |              lim{}: 0x16-0x18 (2)
0x10|                  00                           |      .         |                tag: 0x0 0x16-0x17 (1)
0x10|                     01                        |       .        |                n: 1 (valid) 0x17-0x18 (1)
    |                                               |                |    [3]{}: section 0x18-0x3d (37)
0x10|                        07                     |        .       |      id: "export_section" (7) 0x18-0x19 (1)
0x10|                           23                  |         #      |      size: 35 (valid) 0x19-0x1a (1)
    |                                               |                |      content{}: 0x1a-0x3d (35)
    |                                               |                |        ex{}: 0x1a-0x3d (35)
0x10|                              01               |          .     |          n: 1 (valid) 0x1a-0x1b (1)
    |                                               |                |          x[0:1]: 0x1b-0x3d (34)
    |                                               |                |            [0]{}: ex 0x1b-0x3d (34)
    |                                               |                |              nm{}: 0x1b-0x3b (32)
0x10|                                 1f            |           .    |                n: 31 (valid) 0x1b-0x1c (1)
0x10|                                    61 73 2d 69|            as-i|                b: "as-i8x16_extract_lane_s-value/0" 0x1c-0x3b (31)
0x20|38 78 31 36 5f 65 78 74 72 61 63 74 5f 6c 61 6e|8x16_extract_lan|
0x30|65 5f 73 2d 76 61 6c 75 65 2f 30               |e_s-value/0     |
    |                                               |                |              d{}: 0x3b-0x3d (2)
0x30|                                 00            |           .    |                tag: "funcidx" (0x0) 0x3b-0x3c (1)
0x30|                                    00         |            .   |                x: 0 (valid) 0x3c-0x3d (1)
    |                                               |                |    [4]{}: section 0x3d-0x4c (15)
0x30|                                       0a      |             .  |      id: "code_section" (10) 0x3d-0x3e (1)
0x30|                                          0d   |              . |      size: 13 (valid) 0x3e-0x3f (1)
    |                                               |                |      content{}: 0x3f-0x4c (13)
    |                                               |                |        code{}: 0x3f-0x4c (13)
0x30|                                             01|               .|          n: 1 (valid) 0x3f-0x40 (1)
    |                                               |                |          x[0:1]: 0x40-0x4c (12)
    |                                               |                |            [0]{}: code 0x40-0x4c (12)
0x40|0b                                             |.               |              size: 11 (valid) 0x40-0x41 (1)
    |                                               |                |              code{}: 0x41-0x4c (11)
    |                                               |                |                t{}: 0x41-0x42 (1)
0x40|   00                                          | .              |                  n: 0 (valid) 0x41-0x42 (1)
    |                                               |                |                  x[0:0]: 0x42-0x42 (0)
    |                                               |                |                e[0:4]: 0x42-0x4c (10)
    |                                               |                |                  [0]{}: in 0x42-0x44 (2)
0x40|      41                                       |  A             |                    opcode: "i32.const" (0x41) 0x42-0x43 (1)
0x40|         00                                    |   .            |                    n: 0 (valid) 0x43-0x44 (1)
    |                                               |                |                  [1]{}: in 0x44-0x48 (4)
0x40|            fd                                 |    .           |                    opcode: "vector" (0xfd) 0x44-0x45 (1)
0x40|               00                              |     .          |                    v_opcode: "v128.load" (0) 0x45-0x46 (1)
    |                                               |                |                    m{}: 0x46-0x48 (2)
0x40|                  04                           |      .         |                      a: 4 (valid) 0x46-0x47 (1)
0x40|                     00                        |       .        |                      o: 0 (valid) 0x47-0x48 (1)
    |                                               |                |                  [2]{}: in 0x48-0x4b (3)
0x40|                        fd                     |        .       |                    opcode: "vector" (0xfd) 0x48-0x49 (1)
0x40|                           15                  |         .      |                    v_opcode: "i8x16.extract_lane_s" (21) 0x49-0x4a (1)
0x40|                              00               |          .     |                    l: 0 0x4a-0x4b (1)
    |                                               |                |                  [3]{}: in 0x4b-0x4c (1)
0x40|                                 0b            |           .    |                    opcode: "end" (0xb) 0x4b-0x4c (1)
    |                                               |                |    [5]{}: section 0x4c-0x68 (28)
0x40|                                    0b         |            .   |      id: "data_section" (11) 0x4c-0x4d (1)
0x40|                                       1a      |             .  |      size: 26 (valid) 0x4d-0x4e (1)
    |                                               |                |      content{}: 0x4e-0x68 (26)
    |                                               |                |        seg{}: 0x4e-0x68 (26)
0x40|                                          01   |              . |          n: 1 (valid) 0x4e-0x4f (1)
    |                                               |                |          x[0:1]: 0x4f-0x68 (25)
    |                                               |                |            [0]{}: seg 0x4f-0x68 (25)
0x40|                                             00|               .|              tag: 0 (valid) 0x4f-0x50 (1)
    |                                               |                |              e[0:2]: 0x50-0x53 (3)
    |                                               |                |                [0]{}: in 0x50-0x52 (2)
0x50|41                                             |A               |                  opcode: "i32.const" (0x41) 0x50-0x51 (1)
0x50|   00                                          | .              |                  n: 0 (valid) 0x51-0x52 (1)
    |                                               |                |                [1]{}: in 0x52-0x53 (1)
0x50|      0b                                       |  .             |                  opcode: "end" (0xb) 0x52-0x53 (1)
    |                                               |                |              b{}: 0x53-0x68 (21)
0x50|         14                                    |   .            |                n: 20 (valid) 0x53-0x54 (1)
0x50|            00 01 02 03 04 05 06 07 08 09 0a 0b|    ............|                x: raw bits 0x54-0x68 (20)
0x60|0c 0d 0e 0f 00 01 02 03|                       |........|       |
