$ fq -d wasm dv simd_i32x4_arith2-0.wasm
     |00 01 02 03 04 05 06 07 08 09 0a 0b 0c 0d 0e 0f|0123456789abcdef|.{}: simd_i32x4_arith2-0.wasm (wasm) 0x0-0x4b7 (1207)
0x000|00 61 73 6d                                    |.asm            |  magic: raw bits (valid) 0x0-0x4 (4)
0x000|            01 00 00 00                        |    ....        |  version: 1 0x4-0x8 (4)
     |                                               |                |  sections[0:4]: 0x8-0x4b7 (1199)
     |                                               |                |    [0]{}: section 0x8-0x1a (18)
0x000|                        01                     |        .       |      id: "type_section" (1) 0x8-0x9 (1)
0x000|                           10                  |         .      |      size: 16 (valid) 0x9-0xa (1)
     |                                               |                |      content{}: 0xa-0x1a (16)
     |                                               |                |        ft{}: 0xa-0x1a (16)
0x000|                              03               |          .     |          n: 3 (valid) 0xa-0xb (1)
     |                                               |                |          x[0:3]: 0xb-0x1a (15)
     |                                               |                |            [0]{}: ft 0xb-0x11 (6)
0x000|                                 60            |           `    |              tag: 0x60 (valid) 0xb-0xc (1)
     |                                               |                |              rt1{}: 0xc-0xf (3)
0x000|                                    02         |            .   |                n: 2 (valid) 0xc-0xd (1)
     |                                               |                |                x[0:2]: 0xd-0xf (2)
0x000|                                       7b      |             {  |                  [0]: "v128" (0x7b) t 0xd-0xe (1)
0x000|                                          7b   |              { |                  [1]: "v128" (0x7b) t 0xe-0xf (1)
     |                                               |                |              rt2{}: 0xf-0x11 (2)
0x000|                                             01|               .|                n: 1 (valid) 0xf-0x10 (1)
     |                                               |                |                x[0:1]: 0x10-0x11 (1)
0x010|7b                                             |{               |                  [0]: "v128" (0x7b) t 0x10-0x11 (1)
     |                                               |                |            [1]{}: ft 0x11-0x16 (5)
0x010|   60                                          | `              |              tag: 0x60 (valid) 0x11-0x12 (1)
     |                                               |                |              rt1{}: 0x12-0x14 (2)
0x010|      01                                       |  .             |                n: 1 (valid) 0x12-0x13 (1)
     |                                               |                |                x[0:1]: 0x13-0x14 (1)
0x010|         7b                                    |   {            |                  [0]: "v128" (0x7b) t 0x13-0x14 (1)
     |                                               |                |              rt2{}: 0x14-0x16 (2)
0x010|            01                                 |    .           |                n: 1 (valid) 0x14-0x15 (1)
     |                                               |                |                x[0:1]: 0x15-0x16 (1)
0x010|               7b                              |     {          |                  [0]: "v128" (0x7b) t 0x15-0x16 (1)
     |                                               |                |            [2]{}: ft 0x16-0x1a (4)
0x010|                  60                           |      `         |              tag: 0x60 (valid) 0x16-0x17 (1)
     |                                               |                |              rt1{}: 0x17-0x18 (1)
0x010|                     00                        |       .        |                n: 0 (valid) 0x17-0x18 (1)
     |                                               |                |                x[0:0]: 0x18-0x18 (0)
     |                                               |                |              rt2{}: 0x18-0x1a (2)
0x010|                        01                     |        .       |                n: 1 (valid) 0x18-0x19 (1)
     |                                               |                |                x[0:1]: 0x19-0x1a (1)
0x010|                           7b                  |         {      |                  [0]: "v128" (0x7b) t 0x19-0x1a (1)
     |                                               |                |    [1]{}: section 0x1a-0x33 (25)
0x010|                              03               |          .     |      id: "function_section" (3) 0x1a-0x1b (1)
0x010|                                 17            |           .    |      size: 23 (valid) 0x1b-0x1c (1)
     |                                               |                |      content{}: 0x1c-0x33 (23)
     |                                               |                |        x{}: 0x1c-0x33 (23)
0x010|                                    16         |            .   |          n: 22 (valid) 0x1c-0x1d (1)
     |                                               |                |          x[0:22]: 0x1d-0x33 (22)
0x010|                                       00      |             .  |            [0]: 0 x (valid) 0x1d-0x1e (1)
0x010|                                          00   |              . |            [1]: 0 x (valid) 0x1e-0x1f (1)
0x010|                                             00|               .|            [2]: 0 x (valid) 0x1f-0x20 (1)
0x020|00                                             |.               |            [3]: 0 x (valid) 0x20-0x21 (1)
0x020|   01                                          | .              |            [4]: 1 x (valid) 0x21-0x22 (1)
0x020|      02                                       |  .             |            [5]: 2 x (valid) 0x22-0x23 (1)
0x020|         02                                    |   .            |            [6]: 2 x (valid) 0x23-0x24 (1)
0x020|            02                                 |    .           |            [7]: 2 x (valid) 0x24-0x25 (1)
0x020|               02                              |     .          |            [8]: 2 x (valid) 0x25-0x26 (1)
0x020|                  02                           |      .         |            [9]: 2 x (valid) 0x26-0x27 (1)
0x020|                     02                        |       .        |            [10]: 2 x (valid) 0x27-0x28 (1)
0x020|                        02                     |        .       |            [11]: 2 x (valid) 0x28-0x29 (1)
0x020|                           02                  |         .      |            [12]: 2 x (valid) 0x29-0x2a (1)
0x020|                              02               |          .     |            [13]: 2 x (valid) 0x2a-0x2b (1)
0x020|                                 01            |           .    |            [14]: 1 x (valid) 0x2b-0x2c (1)
0x020|                                    01         |            .   |            [15]: 1 x (valid) 0x2c-0x2d (1)
0x020|                                       01      |             .  |            [16]: 1 x (valid) 0x2d-0x2e (1)
0x020|                                          01   |              . |            [17]: 1 x (valid) 0x2e-0x2f (1)
0x020|                                             01|               .|            [18]: 1 x (valid) 0x2f-0x30 (1)
0x030|01                                             |.               |            [19]: 1 x (valid) 0x30-0x31 (1)
0x030|   01                                          | .              |            [20]: 1 x (valid) 0x31-0x32 (1)
0x030|      01                                       |  .             |            [21]: 1 x (valid) 0x32-0x33 (1)
     |                                               |                |    [2]{}: section 0x33-0x24b (536)
0x030|         07                                    |   .            |      id: "export_section" (7) 0x33-0x34 (1)
0x030|            95 04                              |    ..          |      size: 533 (valid) 0x34-0x36 (2)
     |                                               |                |      content{}: 0x36-0x24b (533)
     |                                               |                |        ex{}: 0x36-0x24b (533)
0x030|                  16                           |      .         |          n: 22 (valid) 0x36-0x37 (1)
     |                                               |                |          x[0:22]: 0x37-0x24b (532)
     |                                               |                |            [0]{}: ex 0x37-0x45 (14)
     |                                               |                |              nm{}: 0x37-0x43 (12)
0x030|                     0b                        |       .        |                n: 11 (valid) 0x37-0x38 (1)
0x030|                        69 33 32 78 34 2e 6d 69|        i32x4.mi|                b: "i32x4.min_s" 0x38-0x43 (11)
0x040|6e 5f 73                                       |n_s             |
     |                                               |                |              d{}: 0x43-0x45 (2)
0x040|         00                                    |   .            |                tag: "funcidx" (0x0) 0x43-0x44 (1)
0x040|            00                                 |    .           |                x: 0 (valid) 0x44-0x45 (1)
     |                                               |                |            [1]{}: ex 0x45-0x53 (14)
     |                                               |                |              nm{}: 0x45-0x51 (12)
0x040|               0b                              |     .          |                n: 11 (valid) 0x45-0x46 (1)
0x040|                  69 33 32 78 34 2e 6d 69 6e 5f|      i32x4.min_|                b: "i32x4.min_u" 0x46-0x51 (11)
0x050|75                                             |u               |
     |                                               |                |              d{}: 0x51-0x53 (2)
0x050|   00                                          | .              |                tag: "funcidx" (0x0) 0x51-0x52 (1)
0x050|      01                                       |  .             |                x: 1 (valid) 0x52-0x53 (1)
     |                                               |                |            [2]{}: ex 0x53-0x61 (14)
     |                                               |                |              nm{}: 0x53-0x5f (12)
0x050|         0b                                    |   .            |                n: 11 (valid) 0x53-0x54 (1)
0x050|            69 33 32 78 34 2e 6d 61 78 5f 73   |    i32x4.max_s |                b: "i32x4.max_s" 0x54-0x5f (11)
     |                                               |                |              d{}: 0x5f-0x61 (2)
0x050|                                             00|               .|                tag: "funcidx" (0x0) 0x5f-0x60 (1)
0x060|02                                             |.               |                x: 2 (valid) 0x60-0x61 (1)
     |                                               |                |            [3]{}: ex 0x61-0x6f (14)
     |                                               |                |              nm{}: 0x61-0x6d (12)
0x060|   0b                                          | .              |                n: 11 (valid) 0x61-0x62 (1)
0x060|      69 33 32 78 34 2e 6d 61 78 5f 75         |  i32x4.max_u   |                b: "i32x4.max_u" 0x62-0x6d (11)
     |                                               |                |              d{}: 0x6d-0x6f (2)
0x060|                                       00      |             .  |                tag: "funcidx" (0x0) 0x6d-0x6e (1)
0x060|                                          03   |              . |                x: 3 (valid) 0x6e-0x6f (1)
     |                                               |                |            [4]{}: ex 0x6f-0x7b (12)
     |                                               |                |              nm{}: 0x6f-0x79 (10)
0x060|                                             09|               .|                n: 9 (valid) 0x6f-0x70 (1)
0x070|69 33 32 78 34 2e 61 62 73                     |i32x4.abs       |                b: "i32x4.abs" 0x70-0x79 (9)
     |                                               |                |              d{}: 0x79-0x7b (2)
0x070|                           00                  |         .      |                tag: "funcidx" (0x0) 0x79-0x7a (1)
0x070|                              04               |          .     |                x: 4 (valid) 0x7a-0x7b (1)
     |                                               |                |            [5]{}: ex 0x7b-0x96 (27)
     |                                               |                |              nm{}: 0x7b-0x94 (25)
0x070|                                 18            |           .    |                n: 24 (valid) 0x7b-0x7c (1)
0x070|                                    69 33 32 78|            i32x|                b: "i32x4.min_s_with_const_0" 0x7c-0x94 (24)
0x080|34 2e 6d 69 6e 5f 73 5f 77 69 74 68 5f 63 6f 6e|4.min_s_with_con|
0x090|73 74 5f 30                                    |st_0            |
     |                                               |                |              d{}: 0x94-0x96 (2)
0x090|            00                                 |    .           |                tag: "funcidx" (0x0) 0x94-0x95 (1)
0x090|               05                              |     .          |                x: 5 (valid) 0x95-0x96 (1)
     |                                               |                |            [6]{}: ex 0x96-0xb1 (27)
     |                                               |                |              nm{}: 0x96-0xaf (25)
0x090|                  18                           |      .         |                n: 24 (valid) 0x96-0x97 (1)
0x090|                     69 33 32 78 34 2e 6d 69 6e|       i32x4.min|                b: "i32x4.min_s_with_const_1" 0x97-0xaf (24)
0x0a0|5f 73 5f 77 69 74 68 5f 63 6f 6e 73 74 5f 31   |_s_with_const_1 |
     |                                               |                |              d{}: 0xaf-0xb1 (2)
0x0a0|                                             00|               .|                tag: "funcidx" (0x0) 0xaf-0xb0 (1)
0x0b0|06                                             |.               |                x: 6 (valid) 0xb0-0xb1 (1)
     |                                               |                |            [7]{}: ex 0xb1-0xcc (27)
     |                                               |                |              nm{}: 0xb1-0xca (25)
0x0b0|   18                                          | .              |                n: 24 (valid) 0xb1-0xb2 (1)
0x0b0|      69 33 32 78 34 2e 6d 69 6e 5f 75 5f 77 69|  i32x4.min_u_wi|                b: "i32x4.min_u_with_const_2" 0xb2-0xca (24)
0x0c0|74 68 5f 63 6f 6e 73 74 5f 32                  |th_const_2      |
     |                                               |                |              d{}: 0xca-0xcc (2)
0x0c0|                              00               |          .     |                tag: "funcidx" (0x0) 0xca-0xcb (1)
0x0c0|                                 07            |           .    |                x: 7 (valid) 0xcb-0xcc (1)
     |                                               |                |            [8]{}: ex 0xcc-0xe7 (27)
     |                                               |                |              nm{}: 0xcc-0xe5 (25)
0x0c0|                                    18         |            .   |                n: 24 (valid) 0xcc-0xcd (1)
0x0c0|                                       69 33 32|             i32|                b: "i32x4.min_u_with_const_3" 0xcd-0xe5 (24)
0x0d0|78 34 2e 6d 69 6e 5f 75 5f 77 69 74 68 5f 63 6f|x4.min_u_with_co|
0x0e0|6e 73 74 5f 33                                 |nst_3           |
     |                                               |                |              d{}: 0xe5-0xe7 (2)
0x0e0|               00                              |     .          |                tag: "funcidx" (0x0) 0xe5-0xe6 (1)
0x0e0|                  08                           |      .         |                x: 8 (valid) 0xe6-0xe7 (1)
     |                                               |                |            [9]{}: ex 0xe7-0x102 (27)
     |                                               |                |              nm{}: 0xe7-0x100 (25)
0x0e0|                     18                        |       .        |                n: 24 (valid) 0xe7-0xe8 (1)
0x0e0|                        69 33 32 78 34 2e 6d 61|        i32x4.ma|                b: "i32x4.max_s_with_const_4" 0xe8-0x100 (24)
0x0f0|78 5f 73 5f 77 69 74 68 5f 63 6f 6e 73 74 5f 34|x_s_with_const_4|
     |                                               |                |              d{}: 0x100-0x102 (2)
0x100|00                                             |.               |                tag: "funcidx" (0x0) 0x100-0x101 (1)
0x100|   09                                          | .              |                x: 9 (valid) 0x101-0x102 (1)
     |                                               |                |            [10]{}: ex 0x102-0x11d (27)
     |                                               |                |              nm{}: 0x102-0x11b (25)
0x100|      18                                       |  .             |                n: 24 (valid) 0x102-0x103 (1)
0x100|         69 33 32 78 34 2e 6d 61 78 5f 73 5f 77|   i32x4.max_s_w|                b: "i32x4.max_s_with_const_5" 0x103-0x11b (24)
0x110|69 74 68 5f 63 6f 6e 73 74 5f 35               |ith_const_5     |
     |                                               |                |              d{}: 0x11b-0x11d (2)
0x110|                                 00            |           .    |                tag: "funcidx" (0x0) 0x11b-0x11c (1)
0x110|                                    0a         |            .   |                x: 10 (valid) 0x11c-0x11d (1)
     |                                               |                |            [11]{}: ex 0x11d-0x138 (27)
     |                                               |                |              nm{}: 0x11d-0x136 (25)
0x110|                                       18      |             .  |                n: 24 (valid) 0x11d-0x11e (1)
0x110|                                          69 33|              i3|                b: "i32x4.max_u_with_const_6" 0x11e-0x136 (24)
0x120|32 78 34 2e 6d 61 78 5f 75 5f 77 69 74 68 5f 63|2x4.max_u_with_c|
0x130|6f 6e 73 74 5f 36                              |onst_6          |
     |                                               |                |              d{}: 0x136-0x138 (2)
0x130|                  00                           |      .         |                tag: "funcidx" (0x0) 0x136-0x137 (1)
0x130|                     0b                        |       .        |                x: 11 (valid) 0x137-0x138 (1)
     |                                               |                |            [12]{}: ex 0x138-0x153 (27)
     |                                               |                |              nm{}: 0x138-0x151 (25)
0x130|                        18                     |        .       |                n: 24 (valid) 0x138-0x139 (1)
0x130|                           69 33 32 78 34 2e 6d|         i32x4.m|                b: "i32x4.max_u_with_const_7" 0x139-0x151 (24)
0x140|61 78 5f 75 5f 77 69 74 68 5f 63 6f 6e 73 74 5f|ax_u_with_const_|
0x150|37                                             |7               |
     |                                               |                |              d{}: 0x151-0x153 (2)
0x150|   00                                          | .              |                tag: "funcidx" (0x0) 0x151-0x152 (1)
0x150|      0c                                       |  .             |                x: 12 (valid) 0x152-0x153 (1)
     |                                               |                |            [13]{}: ex 0x153-0x16c (25)
     |                                               |                |              nm{}: 0x153-0x16a (23)
0x150|         16                                    |   .            |                n: 22 (valid) 0x153-0x154 (1)
0x150|            69 33 32 78 34 2e 61 62 73 5f 77 69|    i32x4.abs_wi|                b: "i32x4.abs_with_const_8" 0x154-0x16a (22)
0x160|74 68 5f 63 6f 6e 73 74 5f 38                  |th_const_8      |
     |                                               |                |              d{}: 0x16a-0x16c (2)
0x160|                              00               |          .     |                tag: "funcidx" (0x0) 0x16a-0x16b (1)
0x160|                                 0d            |           .    |                x: 13 (valid) 0x16b-0x16c (1)
     |                                               |                |            [14]{}: ex 0x16c-0x187 (27)
     |                                               |                |              nm{}: 0x16c-0x185 (25)
0x160|                                    18         |            .   |                n: 24 (valid) 0x16c-0x16d (1)
0x160|                                       69 33 32|             i32|                b: "i32x4.min_s_with_const_9" 0x16d-0x185 (24)
0x170|78 34 2e 6d 69 6e 5f 73 5f 77 69 74 68 5f 63 6f|x4.min_s_with_co|
0x180|6e 73 74 5f 39                                 |nst_9           |
     |                                               |                |              d{}: 0x185-0x187 (2)
0x180|               00                              |     .          |                tag: "funcidx" (0x0) 0x185-0x186 (1)
0x180|                  0e                           |      .         |                x: 14 (valid) 0x186-0x187 (1)
     |                                               |                |            [15]{}: ex 0x187-0x1a3 (28)
     |                                               |                |              nm{}: 0x187-0x1a1 (26)
0x180|                     19                        |       .        |                n: 25 (valid) 0x187-0x188 (1)
0x180|                        69 33 32 78 34 2e 6d 69|        i32x4.mi|                b: "i32x4.min_s_with_const_10" 0x188-0x1a1 (25)
0x190|6e 5f 73 5f 77 69 74 68 5f 63 6f 6e 73 74 5f 31|n_s_with_const_1|
0x1a0|30                                             |0               |
     |                                               |                |              d{}: 0x1a1-0x1a3 (2)
0x1a0|   00                                          | .              |                tag: "funcidx" (0x0) 0x1a1-0x1a2 (1)
0x1a0|      0f                                       |  .             |                x: 15 (valid) 0x1a2-0x1a3 (1)
     |                                               |                |            [16]{}: ex 0x1a3-0x1bf (28)
     |                                               |                |              nm{}: 0x1a3-0x1bd (26)
0x1a0|         19                                    |   .            |                n: 25 (valid) 0x1a3-0x1a4 (1)
0x1a0|            69 33 32 78 34 2e 6d 69 6e 5f 75 5f|    i32x4.min_u_|                b: "i32x4.min_u_with_const_11" 0x1a4-0x1bd (25)
0x1b0|77 69 74 68 5f 63 6f 6e 73 74 5f 31 31         |with_const_11   |
     |                                               |                |              d{}: 0x1bd-0x1bf (2)
0x1b0|                                       00      |             .  |                tag: "funcidx" (0x0) 0x1bd-0x1be (1)
0x1b0|                                          10   |              . |                x: 16 (valid) 0x1be-0x1bf (1)
     |                                               |                |            [17]{}: ex 0x1bf-0x1db (28)
     |                                               |                |              nm{}: 0x1bf-0x1d9 (26)
0x1b0|                                             19|               .|                n: 25 (valid) 0x1bf-0x1c0 (1)
0x1c0|69 33 32 78 34 2e 6d 69 6e 5f 75 5f 77 69 74 68|i32x4.min_u_with|                b: "i32x4.min_u_with_const_12" 0x1c0-0x1d9 (25)
0x1d0|5f 63 6f 6e 73 74 5f 31 32                     |_const_12       |
     |                                               |                |              d{}: 0x1d9-0x1db (2)
0x1d0|                           00                  |         .      |                tag: "funcidx" (0x0) 0x1d9-0x1da (1)
0x1d0|                              11               |          .     |                x: 17 (valid) 0x1da-0x1db (1)
     |                                               |                |            [18]{}: ex 0x1db-0x1f7 (28)
     |                                               |                |              nm{}: 0x1db-0x1f5 (26)
0x1d0|                                 19            |           .    |                n: 25 (valid) 0x1db-0x1dc (1)
0x1d0|                                    69 33 32 78|            i32x|                b: "i32x4.max_s_with_const_13" 0x1dc-0x1f5 (25)
0x1e0|34 2e 6d 61 78 5f 73 5f 77 69 74 68 5f 63 6f 6e|4.max_s_with_con|
0x1f0|73 74 5f 31 33                                 |st_13           |
     |                                               |                |              d{}: 0x1f5-0x1f7 (2)
0x1f0|               00                              |     .          |                tag: "funcidx" (0x0) 0x1f5-0x1f6 (1)
0x1f0|                  12                           |      .         |                x: 18 (valid) 0x1f6-0x1f7 (1)
     |                                               |                |            [19]{}: ex 0x1f7-0x213 (28)
     |                                               |                |              nm{}: 0x1f7-0x211 (26)
0x1f0|                     19                        |       .        |                n: 25 (valid) 0x1f7-0x1f8 (1)
0x1f0|                        69 33 32 78 34 2e 6d 61|        i32x4.ma|                b: "i32x4.max_s_with_const_14" 0x1f8-0x211 (25)
0x200|78 5f 73 5f 77 69 74 68 5f 63 6f 6e 73 74 5f 31|x_s_with_const_1|
0x210|34                                             |4               |
     |                                               |                |              d{}: 0x211-0x213 (2)
0x210|   00                                          | .              |                tag: "funcidx" (0x0) 0x211-0x212 (1)
0x210|      13                                       |  .             |                x: 19 (valid) 0x212-0x213 (1)
     |                                               |                |            [20]{}: ex 0x213-0x22f (28)
     |                                               |                |              nm{}: 0x213-0x22d (26)
0x210|         19                                    |   .            |                n: 25 (valid) 0x213-0x214 (1)
0x210|            69 33 32 78 34 2e 6d 61 78 5f 75 5f|    i32x4.max_u_|                b: "i32x4.max_u_with_const_15" 0x214-0x22d (25)
0x220|77 69 74 68 5f 63 6f 6e 73 74 5f 31 35         |with_const_15   |
     |                                               |                |              d{}: 0x22d-0x22f (2)
0x220|                                       00      |             .  |                tag: "funcidx" (0x0) 0x22d-0x22e (1)
0x220|                                          14   |              . |                x: 20 (valid) 0x22e-0x22f (1)
     |                                               |                |            [21]{}: ex 0x22f-0x24b (28)
     |                                               |                |              nm{}: 0x22f-0x249 (26)
0x220|                                             19|               .|                n: 25 (valid) 0x22f-0x230 (1)
0x230|69 33 32 78 34 2e 6d 61 78 5f 75 5f 77 69 74 68|i32x4.max_u_with|                b: "i32x4.max_u_with_const_16" 0x230-0x249 (25)
0x240|5f 63 6f 6e 73 74 5f 31 36                     |_const_16       |
     |                                               |                |              d{}: 0x249-0x24b (2)
0x240|                           00                  |         .      |                tag: "funcidx" (0x0) 0x249-0x24a (1)
0x240|                              15               |          .     |                x: 21 (valid) 0x24a-0x24b (1)
     |                                               |                |    [3]{}: section 0x24b-0x4b7 (620)
0x240|                                 0a            |           .    |      id: "code_section" (10) 0x24b-0x24c (1)
0x240|                                    e9 04      |            ..  |      size: 617 (valid) 0x24c-0x24e (2)
     |                                               |                |      content{}: 0x24e-0x4b7 (617)
     |                                               |                |        code{}: 0x24e-0x4b7 (617)
0x240|                                          16   |              . |          n: 22 (valid) 0x24e-0x24f (1)
     |                                               |                |          x[0:22]: 0x24f-0x4b7 (616)
     |                                               |                |            [0]{}: code 0x24f-0x259 (10)
0x240|                                             09|               .|              size: 9 (valid) 0x24f-0x250 (1)
     |                                               |                |              code{}: 0x250-0x259 (9)
     |                                               |                |                t{}: 0x250-0x251 (1)
0x250|00                                             |.               |                  n: 0 (valid) 0x250-0x251 (1)
     |                                               |                |                  x[0:0]: 0x251-0x251 (0)
     |                                               |                |                e[0:4]: 0x251-0x259 (8)
     |                                               |                |                  [0]{}: in 0x251-0x253 (2)
0x250|   20                                          |                |                    opcode: "local.get" (0x20) 0x251-0x252 (1)
0x250|      00                                       |  .             |                    x: 0 (valid) 0x252-0x253 (1)
     |                                               |                |                  [1]{}: in 0x253-0x255 (2)
0x250|         20                                    |                |                    opcode: "local.get" (0x20) 0x253-0x254 (1)
0x250|            01                                 |    .           |                    x: 1 (valid) 0x254-0x255 (1)
     |                                               |                |                  [2]{}: in 0x255-0x258 (3)
0x250|               fd                              |     .          |                    opcode: "vector" (0xfd) 0x255-0x256 (1)
0x250|                  b6 01                        |      ..        |                    v_opcode: "i32x4.min_s" (182) 0x256-0x258 (2)
     |                                               |                |                  [3]{}: in 0x258-0x259 (1)
0x250|                        0b                     |        .       |                    opcode: "end" (0xb) 0x258-0x259 (1)
     |                                               |                |            [1]{}: code 0x259-0x263 (10)
0x250|                           09                  |         .      |              size: 9 (valid) 0x259-0x25a (1)
     |                                               |                |              code{}: 0x25a-0x263 (9)
     |                                               |                |                t{}: 0x25a-0x25b (1)
0x250|                              00               |          .     |                  n: 0 (valid) 0x25a-0x25b (1)
     |                                               |                |                  x[0:0]: 0x25b-0x25b (0)
     |                                               |                |                e[0:4]: 0x25b-0x263 (8)
     |                                               |                |                  [0]{}: in 0x25b-0x25d (2)
0x250|                                 20            |                |                    opcode: "local.get" (0x20) 0x25b-0x25c (1)
0x250|                                    00         |            .   |                    x: 0 (valid) 0x25c-0x25d (1)
     |                                               |                |                  [1]{}: in 0x25d-0x25f (2)
0x250|                                       20      |                |                    opcode: "local.get" (0x20) 0x25d-0x25e (1)
0x250|                                          01   |              . |                    x: 1 (valid) 0x25e-0x25f (1)
     |                                               |                |                  [2]{}: in 0x25f-0x262 (3)
0x250|                                             fd|               .|                    opcode: "vector" (0xfd) 0x25f-0x260 (1)
0x260|b7 01                                          |..              |                    v_opcode: "i32x4.min_u" (183) 0x260-0x262 (2)
     |                                               |                |                  [3]{}: in 0x262-0x263 (1)
0x260|      0b                                       |  .             |                    opcode: "end" (0xb) 0x262-0x263 (1)
     |                                               |                |            [2]{}: code 0x263-0x26d (10)
0x260|         09                                    |   .            |              size: 9 (valid) 0x263-0x264 (1)
     |                                               |                |              code{}: 0x264-0x26d (9)
     |                                               |                |                t{}: 0x264-0x265 (1)
0x260|            00                                 |    .           |                  n: 0 (valid) 0x264-0x265 (1)
     |                                               |                |                  x[0:0]: 0x265-0x265 (0)
     |                                               |                |                e[0:4]: 0x265-0x26d (8)
     |                                               |                |                  [0]{}: in 0x265-0x267 (2)
0x260|               20                              |                |                    opcode: "local.get" (0x20) 0x265-0x266 (1)
0x260|                  00                           |      .         |                    x: 0 (valid) 0x266-0x267 (1)
     |                                               |                |                  [1]{}: in 0x267-0x269 (2)
0x260|                     20                        |                |                    opcode: "local.get" (0x20) 0x267-0x268 (1)
0x260|                        01                     |        .       |                    x: 1 (valid) 0x268-0x269 (1)
     |                                               |                |                  [2]{}: in 0x269-0x26c (3)
0x260|                           fd                  |         .      |                    opcode: "vector" (0xfd) 0x269-0x26a (1)
0x260|                              b8 01            |          ..    |                    v_opcode: "i32x4.max_s" (184) 0x26a-0x26c (2)
     |                                               |                |                  [3]{}: in 0x26c-0x26d (1)
0x260|                                    0b         |            .   |                    opcode: "end" (0xb) 0x26c-0x26d (1)
     |                                               |                |            [3]{}: code 0x26d-0x277 (10)
0x260|                                       09      |             .  |              size: 9 (valid) 0x26d-0x26e (1)
     |                                               |                |              code{}: 0x26e-0x277 (9)
     |                                               |                |                t{}: 0x26e-0x26f (1)
0x260|                                          00   |              . |                  n: 0 (valid) 0x26e-0x26f (1)
     |                                               |                |                  x[0:0]: 0x26f-0x26f (0)
     |                                               |                |                e[0:4]: 0x26f-0x277 (8)
     |                                               |                |                  [0]{}: in 0x26f-0x271 (2)
0x260|                                             20|                |                    opcode: "local.get" (0x20) 0x26f-0x270 (1)
0x270|00                                             |.               |                    x: 0 (valid) 0x270-0x271 (1)
     |                                               |                |                  [1]{}: in 0x271-0x273 (2)
0x270|   20                                          |                |                    opcode: "local.get" (0x20) 0x271-0x272 (1)
0x270|      01                                       |  .             |                    x: 1 (valid) 0x272-0x273 (1)
     |                                               |                |                  [2]{}: in 0x273-0x276 (3)
0x270|         fd                                    |   .            |                    opcode: "vector" (0xfd) 0x273-0x274 (1)
0x270|            b9 01                              |    ..          |                    v_opcode: "i32x4.max_u" (185) 0x274-0x276 (2)
     |                                               |                |                  [3]{}: in 0x276-0x277 (1)
0x270|                  0b                           |      .         |                    opcode: "end" (0xb) 0x276-0x277 (1)
     |                                               |                |            [4]{}: code 0x277-0x27f (8)
0x270|                     07                        |       .        |              size: 7 (valid) 0x277-0x278 (1)
     |                                               |                |              code{}: 0x278-0x27f (7)
     |                                               |                |                t{}: 0x278-0x279 (1)
0x270|                        00                     |        .       |                  n: 0 (valid) 0x278-0x279 (1)
     |                                               |                |                  x[0:0]: 0x279-0x279 (0)
     |                                               |                |                e[0:3]: 0x279-0x27f (6)
     |                                               |                |                  [0]{}: in 0x279-0x27b (2)
0x270|                           20                  |                |                    opcode: "local.get" (0x20) 0x279-0x27a (1)
0x270|                              00               |          .     |                    x: 0 (valid) 0x27a-0x27b (1)
     |                                               |                |                  [1]{}: in 0x27b-0x27e (3)
0x270|                                 fd            |           .    |                    opcode: "vector" (0xfd) 0x27b-0x27c (1)
0x270|                                    a0 01      |            ..  |                    v_opcode: "i32x4.abs" (160) 0x27c-0x27e (2)
     |                                               |                |                  [2]{}: in 0x27e-0x27f (1)
0x270|                                          0b   |              . |                    opcode: "end" (0xb) 0x27e-0x27f (1)
     |                                               |                |            [5]{}: code 0x27f-0x2a9 (42)
0x270|                                             29|               )|              size: 41 (valid) 0x27f-0x280 (1)
     |                                               |                |              code{}: 0x280-0x2a9 (41)
     |                                               |                |                t{}: 0x280-0x281 (1)
0x280|00                                             |.               |                  n: 0 (valid) 0x280-0x281 (1)
     |                                               |                |                  x[0:0]: 0x281-0x281 (0)
     |                                               |                |                e[0:4]: 0x281-0x2a9 (40)
     |                                               |                |                  [0]{}: in 0x281-0x293 (18)
0x280|   fd                                          | .              |                    opcode: "vector" (0xfd) 0x281-0x282 (1)
0x280|      0c                                       |  .             |                    v_opcode: "v128.const" (12) 0x282-0x283 (1)
0x280|         00 00 00 80 ff ff ff 7f 00 00 00 40 ff|   ...........@.|                    bytes: raw bits 0x283-0x293 (16)
0x290|ff ff ff                                       |...             |
     |                                               |                |                  [1]{}: in 0x293-0x2a5 (18)
0x290|         fd                                    |   .            |                    opcode: "vector" (0xfd) 0x293-0x294 (1)
0x290|            0c                                 |    .           |                    v_opcode: "v128.const" (12) 0x294-0x295 (1)
0x290|               ff ff ff ff 00 00 00 40 ff ff ff|     .......@...|                    bytes: raw bits 0x295-0x2a5 (16)
0x2a0|7f 00 00 00 80                                 |.....           |
     |                                               |                |                  [2]{}: in 0x2a5-0x2a8 (3)
0x2a0|               fd                              |     .          |                    opcode: "vector" (0xfd) 0x2a5-0x2a6 (1)
0x2a0|                  b6 01                        |      ..        |                    v_opcode: "i32x4.min_s" (182) 0x2a6-0x2a8 (2)
     |                                               |                |                  [3]{}: in 0x2a8-0x2a9 (1)
0x2a0|                        0b                     |        .       |                    opcode: "end" (0xb) 0x2a8-0x2a9 (1)
     |                                               |                |            [6]{}: code 0x2a9-0x2d3 (42)
0x2a0|                           29                  |         )      |              size: 41 (valid) 0x2a9-0x2aa (1)
     |                                               |                |              code{}: 0x2aa-0x2d3 (41)
     |                                               |                |                t{}: 0x2aa-0x2ab (1)
0x2a0|                              00               |          .     |                  n: 0 (valid) 0x2aa-0x2ab (1)
     |                                               |                |                  x[0:0]: 0x2ab-0x2ab (0)
     |                                               |                |                e[0:4]: 0x2ab-0x2d3 (40)
     |                                               |                |                  [0]{}: in 0x2ab-0x2bd (18)
0x2a0|                                 fd            |           .    |                    opcode: "vector" (0xfd) 0x2ab-0x2ac (1)
0x2a0|                                    0c         |            .   |                    v_opcode: "v128.const" (12) 0x2ac-0x2ad (1)
0x2a0|                                       00 00 00|             ...|                    bytes: raw bits 0x2ad-0x2bd (16)
0x2b0|00 01 00 00 00 02 00 00 00 03 00 00 00         |.............   |
     |                                               |                |                  [1]{}: in 0x2bd-0x2cf (18)
0x2b0|                                       fd      |             .  |                    opcode: "vector" (0xfd) 0x2bd-0x2be (1)
0x2b0|                                          0c   |              . |                    v_opcode: "v128.const" (12) 0x2be-0x2bf (1)
0x2b0|                                             03|               .|                    bytes: raw bits 0x2bf-0x2cf (16)
0x2c0|00 00 00 02 00 00 00 01 00 00 00 00 00 00 00   |............... |
     |                                               |                |                  [2]{}: in 0x2cf-0x2d2 (3)
0x2c0|                                             fd|               .|                    opcode: "vector" (0xfd) 0x2cf-0x2d0 (1)
0x2d0|b6 01                                          |..              |                    v_opcode: "i32x4.min_s" (182) 0x2d0-0x2d2 (2)
     |                                               |                |                  [3]{}: in 0x2d2-0x2d3 (1)
0x2d0|      0b                                       |  .             |                    opcode: "end" (0xb) 0x2d2-0x2d3 (1)
     |                                               |                |            [7]{}: code 0x2d3-0x2fd (42)
0x2d0|         29                                    |   )            |              size: 41 (valid) 0x2d3-0x2d4 (1)
     |                                               |                |              code{}: 0x2d4-0x2fd (41)
     |                                               |                |                t{}: 0x2d4-0x2d5 (1)
0x2d0|            00                                 |    .           |                  n: 0 (valid) 0x2d4-0x2d5 (1)
     |                                               |                |                  x[0:0]: 0x2d5-0x2d5 (0)
     |                                               |                |                e[0:4]: 0x2d5-0x2fd (40)
     |                                               |                |                  [0]{}: in 0x2d5-0x2e7 (18)
0x2d0|               fd                              |     .          |                    opcode: "vector" (0xfd) 0x2d5-0x2d6 (1)
0x2d0|                  0c                           |      .         |                    v_opcode: "v128.const" (12) 0x2d6-0x2d7 (1)
0x2d0|                     00 00 00 80 ff ff ff 7f 00|       .........|                    bytes: raw bits 0x2d7-0x2e7 (16)
0x2e0|00 00 40 ff ff ff ff                           |..@....         |
     |                                               |                |                  [1]{}: in 0x2e7-0x2f9 (18)
0x2e0|                     fd                        |       .        |                    opcode: "vector" (0xfd) 0x2e7-0x2e8 (1)
0x2e0|                        0c                     |        .       |                    v_opcode: "v128.const" (12) 0x2e8-0x2e9 (1)
0x2e0|                           ff ff ff ff 00 00 00|         .......|                    bytes: raw bits 0x2e9-0x2f9 (16)
0x2f0|40 ff ff ff 7f 00 00 00 80                     |@........       |
     |                                               |                |                  [2]{}: in 0x2f9-0x2fc (3)
0x2f0|                           fd                  |         .      |                    opcode: "vector" (0xfd) 0x2f9-0x2fa (1)
0x2f0|                              b7 01            |          ..    |                    v_opcode: "i32x4.min_u" (183) 0x2fa-0x2fc (2)
     |                                               |                |                  [3]{}: in 0x2fc-0x2fd (1)
0x2f0|                                    0b         |            .   |                    opcode: "end" (0xb) 0x2fc-0x2fd (1)
     |                                               |                |            [8]{}: code 0x2fd-0x327 (42)
0x2f0|                                       29      |             )  |              size: 41 (valid) 0x2fd-0x2fe (1)
     |                                               |                |              code{}: 0x2fe-0x327 (41)
     |                                               |                |                t{}: 0x2fe-0x2ff (1)
0x2f0|                                          00   |              . |                  n: 0 (valid) 0x2fe-0x2ff (1)
     |                                               |                |                  x[0:0]: 0x2ff-0x2ff (0)
     |                                               |                |                e[0:4]: 0x2ff-0x327 (40)
     |                                               |                |                  [0]{}: in 0x2ff-0x311 (18)
0x2f0|                                             fd|               .|                    opcode: "vector" (0xfd) 0x2ff-0x300 (1)
0x300|0c                                             |.               |                    v_opcode: "v128.const" (12) 0x300-0x301 (1)
0x300|   00 00 00 00 01 00 00 00 02 00 00 00 03 00 00| ...............|                    bytes: raw bits 0x301-0x311 (16)
0x310|00                                             |.               |
     |                                               |                |                  [1]{}: in 0x311-0x323 (18)
0x310|   fd                                          | .              |                    opcode: "vector" (0xfd) 0x311-0x312 (1)
0x310|      0c                                       |  .             |                    v_opcode: "v128.const" (12) 0x312-0x313 (1)
0x310|         03 00 00 00 02 00 00 00 01 00 00 00 00|   .............|                    bytes: raw bits 0x313-0x323 (16)
0x320|00 00 00                                       |...             |
     |                                               |                |                  [2]{}: in 0x323-0x326 (3)
0x320|         fd                                    |   .            |                    opcode: "vector" (0xfd) 0x323-0x324 (1)
0x320|            b7 01                              |    ..          |                    v_opcode: "i32x4.min_u" (183) 0x324-0x326 (2)
     |                                               |                |                  [3]{}: in 0x326-0x327 (1)
0x320|                  0b                           |      .         |                    opcode: "end" (0xb) 0x326-0x327 (1)
     |                                               |                |            [9]{}: code 0x327-0x351 (42)
0x320|                     29                        |       )        |              size: 41 (valid) 0x327-0x328 (1)
     |                                               |                |              code{}: 0x328-0x351 (41)
     |                                               |                |                t{}: 0x328-0x329 (1)
0x320|                        00                     |        .       |                  n: 0 (valid) 0x328-0x329 (1)
     |                                               |                |                  x[0:0]: 0x329-0x329 (0)
     |                                               |                |                e[0:4]: 0x329-0x351 (40)
     |                                               |                |                  [0]{}: in 0x329-0x33b (18)
0x320|                           fd                  |         .      |                    opcode: "vector" (0xfd) 0x329-0x32a (1)
0x320|                              0c               |          .     |                    v_opcode: "v128.const" (12) 0x32a-0x32b (1)
0x320|                                 00 00 00 80 ff|           .....|                    bytes: raw bits 0x32b-0x33b (16)
0x330|ff ff 7f 00 00 00 40 ff ff ff ff               |......@....     |
     |                                               |                |                  [1]{}: in 0x33b-0x34d (18)
0x330|                                 fd            |           .    |                    opcode: "vector" (0xfd) 0x33b-0x33c (1)
0x330|                                    0c         |            .   |                    v_opcode: "v128.const" (12) 0x33c-0x33d (1)
0x330|                                       ff ff ff|             ...|                    bytes: raw bits 0x33d-0x34d (16)
0x340|ff 00 00 00 40 ff ff ff 7f 00 00 00 80         |....@........   |
     |                                               |                |                  [2]{}: in 0x34d-0x350 (3)
0x340|                                       fd      |             .  |                    opcode: "vector" (0xfd) 0x34d-0x34e (1)
0x340|                                          b8 01|              ..|                    v_opcode: "i32x4.max_s" (184) 0x34e-0x350 (2)
     |                                               |                |                  [3]{}: in 0x350-0x351 (1)
0x350|0b                                             |.               |                    opcode: "end" (0xb) 0x350-0x351 (1)
     |                                               |                |            [10]{}: code 0x351-0x37b (42)
0x350|   29                                          | )              |              size: 41 (valid) 0x351-0x352 (1)
     |                                               |                |              code{}: 0x352-0x37b (41)
     |                                               |                |                t{}: 0x352-0x353 (1)
0x350|      00                                       |  .             |                  n: 0 (valid) 0x352-0x353 (1)
     |                                               |                |                  x[0:0]: 0x353-0x353 (0)
     |                                               |                |                e[0:4]: 0x353-0x37b (40)
     |                                               |                |                  [0]{}: in 0x353-0x365 (18)
0x350|         fd                                    |   .            |                    opcode: "vector" (0xfd) 0x353-0x354 (1)
0x350|            0c                                 |    .           |                    v_opcode: "v128.const" (12) 0x354-0x355 (1)
0x350|               00 00 00 00 01 00 00 00 02 00 00|     ...........|                    bytes: raw bits 0x355-0x365 (16)
0x360|00 03 00 00 00                                 |.....           |
     |                                               |                |                  [1]{}: in 0x365-0x377 (18)
0x360|               fd                              |     .          |                    opcode: "vector" (0xfd) 0x365-0x366 (1)
0x360|                  0c                           |      .         |                    v_opcode: "v128.const" (12) 0x366-0x367 (1)
0x360|                     03 00 00 00 02 00 00 00 01|       .........|                    bytes: raw bits 0x367-0x377 (16)
0x370|00 00 00 00 00 00 00                           |.......         |
     |                                               |                |                  [2]{}: in 0x377-0x37a (3)
0x370|                     fd                        |       .        |                    opcode: "vector" (0xfd) 0x377-0x378 (1)
0x370|                        b8 01                  |        ..      |                    v_opcode: "i32x4.max_s" (184) 0x378-0x37a (2)
     |                                               |                |                  [3]{}: in 0x37a-0x37b (1)
0x370|                              0b               |          .     |                    opcode: "end" (0xb) 0x37a-0x37b (1)
     |                                               |                |            [11]{}: code 0x37b-0x3a5 (42)
0x370|                                 29            |           )    |              size: 41 (valid) 0x37b-0x37c (1)
     |                                               |                |              code{}: 0x37c-0x3a5 (41)
     |                                               |                |                t{}: 0x37c-0x37d (1)
0x370|                                    00         |            .   |                  n: 0 (valid) 0x37c-0x37d (1)
     |                                               |                |                  x[0:0]: 0x37d-0x37d (0)
     |                                               |                |                e[0:4]: 0x37d-0x3a5 (40)
     |                                               |                |                  [0]{}: in 0x37d-0x38f (18)
0x370|                                       fd      |             .  |                    opcode: "vector" (0xfd) 0x37d-0x37e (1)
0x370|                                          0c   |              . |                    v_opcode: "v128.const" (12) 0x37e-0x37f (1)
0x370|                                             00|               .|                    bytes: raw bits 0x37f-0x38f (16)
0x380|00 00 80 ff ff ff 7f 00 00 00 40 ff ff ff ff   |..........@.... |
     |                                               |                |                  [1]{}: in 0x38f-0x3a1 (18)
0x380|                                             fd|               .|                    opcode: "vector" (0xfd) 0x38f-0x390 (1)
0x390|0c                                             |.               |                    v_opcode: "v128.const" (12) 0x390-0x391 (1)
0x390|   ff ff ff ff 00 00 00 40 ff ff ff 7f 00 00 00| .......@.......|                    bytes: raw bits 0x391-0x3a1 (16)
0x3a0|80                                             |.               |
     |                                               |                |                  [2]{}: in 0x3a1-0x3a4 (3)
0x3a0|   fd                                          | .              |                    opcode: "vector" (0xfd) 0x3a1-0x3a2 (1)
0x3a0|      b9 01                                    |  ..            |                    v_opcode: "i32x4.max_u" (185) 0x3a2-0x3a4 (2)
     |                                               |                |                  [3]{}: in 0x3a4-0x3a5 (1)
0x3a0|            0b                                 |    .           |                    opcode: "end" (0xb) 0x3a4-0x3a5 (1)
     |                                               |                |            [12]{}: code 0x3a5-0x3cf (42)
0x3a0|               29                              |     )          |              size: 41 (valid) 0x3a5-0x3a6 (1)
     |                                               |                |              code{}: 0x3a6-0x3cf (41)
     |                                               |                |                t{}: 0x3a6-0x3a7 (1)
0x3a0|                  00                           |      .         |                  n: 0 (valid) 0x3a6-0x3a7 (1)
     |                                               |                |                  x[0:0]: 0x3a7-0x3a7 (0)
     |                                               |                |                e[0:4]: 0x3a7-0x3cf (40)
     |                                               |                |                  [0]{}: in 0x3a7-0x3b9 (18)
0x3a0|                     fd                        |       .        |                    opcode: "vector" (0xfd) 0x3a7-0x3a8 (1)
0x3a0|                        0c                     |        .       |                    v_opcode: "v128.const" (12) 0x3a8-0x3a9 (1)
0x3a0|                           00 00 00 00 01 00 00|         .......|                    bytes: raw bits 0x3a9-0x3b9 (16)
0x3b0|00 02 00 00 00 03 00 00 00                     |.........       |
     |                                               |                |                  [1]{}: in 0x3b9-0x3cb (18)
0x3b0|                           fd                  |         .      |                    opcode: "vector" (0xfd) 0x3b9-0x3ba (1)
0x3b0|                              0c               |          .     |                    v_opcode: "v128.const" (12) 0x3ba-0x3bb (1)
0x3b0|                                 03 00 00 00 02|           .....|                    bytes: raw bits 0x3bb-0x3cb (16)
0x3c0|00 00 00 01 00 00 00 00 00 00 00               |...........     |
     |                                               |                |                  [2]{}: in 0x3cb-0x3ce (3)
0x3c0|                                 fd            |           .    |                    opcode: "vector" (0xfd) 0x3cb-0x3cc (1)
0x3c0|                                    b9 01      |            ..  |                    v_opcode: "i32x4.max_u" (185) 0x3cc-0x3ce (2)
     |                                               |                |                  [3]{}: in 0x3ce-0x3cf (1)
0x3c0|                                          0b   |              . |                    opcode: "end" (0xb) 0x3ce-0x3cf (1)
     |                                               |                |            [13]{}: code 0x3cf-0x3e7 (24)
0x3c0|                                             17|               .|              size: 23 (valid) 0x3cf-0x3d0 (1)
     |                                               |                |              code{}: 0x3d0-0x3e7 (23)
     |                                               |                |                t{}: 0x3d0-0x3d1 (1)
0x3d0|00                                             |.               |                  n: 0 (valid) 0x3d0-0x3d1 (1)
     |                                               |                |                  x[0:0]: 0x3d1-0x3d1 (0)
     |                                               |                |                e[0:3]: 0x3d1-0x3e7 (22)
     |                                               |                |                  [0]{}: in 0x3d1-0x3e3 (18)
0x3d0|   fd                                          | .              |                    opcode: "vector" (0xfd) 0x3d1-0x3d2 (1)
0x3d0|      0c                                       |  .             |                    v_opcode: "v128.const" (12) 0x3d2-0x3d3 (1)
0x3d0|         00 00 00 80 ff ff ff 7f 00 00 00 40 ff|   ...........@.|                    bytes: raw bits 0x3d3-0x3e3 (16)
0x3e0|ff ff ff                                       |...             |
     |                                               |                |                  [1]{}: in 0x3e3-0x3e6 (3)
0x3e0|         fd                                    |   .            |                    opcode: "vector" (0xfd) 0x3e3-0x3e4 (1)
0x3e0|            a0 01                              |    ..          |                    v_opcode: "i32x4.abs" (160) 0x3e4-0x3e6 (2)
     |                                               |                |                  [2]{}: in 0x3e6-0x3e7 (1)
0x3e0|                  0b                           |      .         |                    opcode: "end" (0xb) 0x3e6-0x3e7 (1)
     |                                               |                |            [14]{}: code 0x3e7-0x401 (26)
0x3e0|                     19                        |       .        |              size: 25 (valid) 0x3e7-0x3e8 (1)
     |                                               |                |              code{}: 0x3e8-0x401 (25)
     |                                               |                |                t{}: 0x3e8-0x3e9 (1)
0x3e0|                        00                     |        .       |                  n: 0 (valid) 0x3e8-0x3e9 (1)
     |                                               |                |                  x[0:0]: 0x3e9-0x3e9 (0)
     |                                               |                |                e[0:4]: 0x3e9-0x401 (24)
     |                                               |                |                  [0]{}: in 0x3e9-0x3eb (2)
0x3e0|                           20                  |                |                    opcode: "local.get" (0x20) 0x3e9-0x3ea (1)
0x3e0|                              00               |          .     |                    x: 0 (valid) 0x3ea-0x3eb (1)
     |                                               |                |                  [1]{}: in 0x3eb-0x3fd (18)
0x3e0|                                 fd            |           .    |                    opcode: "vector" (0xfd) 0x3eb-0x3ec (1)
0x3e0|                                    0c         |            .   |                    v_opcode: "v128.const" (12) 0x3ec-0x3ed (1)
0x3e0|                                       00 00 00|             ...|                    bytes: raw bits 0x3ed-0x3fd (16)
0x3f0|80 ff ff ff 7f 00 00 00 40 ff ff ff ff         |........@....   |
     |                                               |                |                  [2]{}: in 0x3fd-0x400 (3)
0x3f0|                                       fd      |             .  |                    opcode: "vector" (0xfd) 0x3fd-0x3fe (1)
0x3f0|                                          b6 01|              ..|                    v_opcode: "i32x4.min_s" (182) 0x3fe-0x400 (2)
     |                                               |                |                  [3]{}: in 0x400-0x401 (1)
0x400|0b                                             |.               |                    opcode: "end" (0xb) 0x400-0x401 (1)
     |                                               |                |            [15]{}: code 0x401-0x41b (26)
0x400|   19                                          | .              |              size: 25 (valid) 0x401-0x402 (1)
     |                                               |                |              code{}: 0x402-0x41b (25)
     |                                               |                |                t{}: 0x402-0x403 (1)
0x400|      00                                       |  .             |                  n: 0 (valid) 0x402-0x403 (1)
     |                                               |                |                  x[0:0]: 0x403-0x403 (0)
     |                                               |                |                e[0:4]: 0x403-0x41b (24)
     |                                               |                |                  [0]{}: in 0x403-0x405 (2)
0x400|         20                                    |                |                    opcode: "local.get" (0x20) 0x403-0x404 (1)
0x400|            00                                 |    .           |                    x: 0 (valid) 0x404-0x405 (1)
     |                                               |                |                  [1]{}: in 0x405-0x417 (18)
0x400|               fd                              |     .          |                    opcode: "vector" (0xfd) 0x405-0x406 (1)
0x400|                  0c                           |      .         |                    v_opcode: "v128.const" (12) 0x406-0x407 (1)
0x400|                     00 00 00 00 01 00 00 00 02|       .........|                    bytes: raw bits 0x407-0x417 (16)
0x410|00 00 00 03 00 00 00                           |.......         |
     |                                               |                |                  [2]{}: in 0x417-0x41a (3)
0x410|                     fd                        |       .        |                    opcode: "vector" (0xfd) 0x417-0x418 (1)
0x410|                        b6 01                  |        ..      |                    v_opcode: "i32x4.min_s" (182) 0x418-0x41a (2)
     |                                               |                |                  [3]{}: in 0x41a-0x41b (1)
0x410|                              0b               |          .     |                    opcode: "end" (0xb) 0x41a-0x41b (1)
     |                                               |                |            [16]{}: code 0x41b-0x435 (26)
0x410|                                 19            |           .    |              size: 25 (valid) 0x41b-0x41c (1)
     |                                               |                |              code{}: 0x41c-0x435 (25)
     |                                               |                |                t{}: 0x41c-0x41d (1)
0x410|                                    00         |            .   |                  n: 0 (valid) 0x41c-0x41d (1)
     |                                               |                |                  x[0:0]: 0x41d-0x41d (0)
     |                                               |                |                e[0:4]: 0x41d-0x435 (24)
     |                                               |                |                  [0]{}: in 0x41d-0x41f (2)
0x410|                                       20      |                |                    opcode: "local.get" (0x20) 0x41d-0x41e (1)
0x410|                                          00   |              . |                    x: 0 (valid) 0x41e-0x41f (1)
     |                                               |                |                  [1]{}: in 0x41f-0x431 (18)
0x410|                                             fd|               .|                    opcode: "vector" (0xfd) 0x41f-0x420 (1)
0x420|0c                                             |.               |                    v_opcode: "v128.const" (12) 0x420-0x421 (1)
0x420|   00 00 00 80 ff ff ff 7f 00 00 00 40 ff ff ff| ...........@...|                    bytes: raw bits 0x421-0x431 (16)
0x430|ff                                             |.               |
     |                                               |                |                  [2]{}: in 0x431-0x434 (3)
0x430|   fd                                          | .              |                    opcode: "vector" (0xfd) 0x431-0x432 (1)
0x430|      b7 01                                    |  ..            |                    v_opcode: "i32x4.min_u" (183) 0x432-0x434 (2)
     |                                               |                |                  [3]{}: in 0x434-0x435 (1)
0x430|            0b                                 |    .           |                    opcode: "end" (0xb) 0x434-0x435 (1)
     |                                               |                |            [17]{}: code 0x435-0x44f (26)
0x430|               19                              |     .          |              size: 25 (valid) 0x435-0x436 (1)
     |                                               |                |              code{}: 0x436-0x44f (25)
     |                                               |                |                t{}: 0x436-0x437 (1)
0x430|                  00                           |      .         |                  n: 0 (valid) 0x436-0x437 (1)
     |                                               |                |                  x[0:0]: 0x437-0x437 (0)
     |                                               |                |                e[0:4]: 0x437-0x44f (24)
     |                                               |                |                  [0]{}: in 0x437-0x439 (2)
0x430|                     20                        |                |                    opcode: "local.get" (0x20) 0x437-0x438 (1)
0x430|                        00                     |        .       |                    x: 0 (valid) 0x438-0x439 (1)
     |                                               |                |                  [1]{}: in 0x439-0x44b (18)
0x430|                           fd                  |         .      |                    opcode: "vector" (0xfd) 0x439-0x43a (1)
0x430|                              0c               |          .     |                    v_opcode: "v128.const" (12) 0x43a-0x43b (1)
0x430|                                 00 00 00 00 01|           .....|                    bytes: raw bits 0x43b-0x44b (16)
0x440|00 00 00 02 00 00 00 03 00 00 00               |...........     |
     |                                               |                |                  [2]{}: in 0x44b-0x44e (3)
0x440|                                 fd            |           .    |                    opcode: "vector" (0xfd) 0x44b-0x44c (1)
0x440|                                    b7 01      |            ..  |                    v_opcode: "i32x4.min_u" (183) 0x44c-0x44e (2)
     |                                               |                |                  [3]{}: in 0x44e-0x44f (1)
0x440|                                          0b   |              . |                    opcode: "end" (0xb) 0x44e-0x44f (1)
     |                                               |                |            [18]{}: code 0x44f-0x469 (26)
0x440|                                             19|               .|              size: 25 (valid) 0x44f-0x450 (1)
     |                                               |                |              code{}: 0x450-0x469 (25)
     |                                               |                |                t{}: 0x450-0x451 (1)
0x450|00                                             |.               |                  n: 0 (valid) 0x450-0x451 (1)
     |                                               |                |                  x[0:0]: 0x451-0x451 (0)
     |                                               |                |                e[0:4]: 0x451-0x469 (24)
     |                                               |                |                  [0]{}: in 0x451-0x453 (2)
0x450|   20                                          |                |                    opcode: "local.get" (0x20) 0x451-0x452 (1)
0x450|      00                                       |  .             |                    x: 0 (valid) 0x452-0x453 (1)
     |                                               |                |                  [1]{}: in 0x453-0x465 (18)
0x450|         fd                                    |   .            |                    opcode: "vector" (0xfd) 0x453-0x454 (1)
0x450|            0c                                 |    .           |                    v_opcode: "v128.const" (12) 0x454-0x455 (1)
0x450|               00 00 00 80 ff ff ff 7f 00 00 00|     ...........|                    bytes: raw bits 0x455-0x465 (16)
0x460|40 ff ff ff ff                                 |@....           |
     |                                               |                |                  [2]{}: in 0x465-0x468 (3)
0x460|               fd                              |     .          |                    opcode: "vector" (0xfd) 0x465-0x466 (1)
0x460|                  b8 01                        |      ..        |                    v_opcode: "i32x4.max_s" (184) 0x466-0x468 (2)
     |                                               |                |                  [3]{}: in 0x468-0x469 (1)
0x460|                        0b                     |        .       |                    opcode: "end" (0xb) 0x468-0x469 (1)
     |                                               |                |            [19]{}: code 0x469-0x483 (26)
0x460|                           19                  |         .      |              size: 25 (valid) 0x469-0x46a (1)
     |                                               |                |              code{}: 0x46a-0x483 (25)
     |                                               |                |                t{}: 0x46a-0x46b (1)
0x460|                              00               |          .     |                  n: 0 (valid) 0x46a-0x46b (1)
     |                                               |                |                  x[0:0]: 0x46b-0x46b (0)
     |                                               |                |                e[0:4]: 0x46b-0x483 (24)
     |                                               |                |                  [0]{}: in 0x46b-0x46d (2)
0x460|                                 20            |                |                    opcode: "local.get" (0x20) 0x46b-0x46c (1)
0x460|                                    00         |            .   |                    x: 0 (valid) 0x46c-0x46d (1)
     |                                               |                |                  [1]{}: in 0x46d-0x47f (18)
0x460|                                       fd      |             .  |                    opcode: "vector" (0xfd) 0x46d-0x46e (1)
0x460|                                          0c   |              . |                    v_opcode: "v128.const" (12) 0x46e-0x46f (1)
0x460|                                             00|               .|                    bytes: raw bits 0x46f-0x47f (16)
0x470|00 00 00 01 00 00 00 02 00 00 00 03 00 00 00   |............... |
     |                                               |                |                  [2]{}: in 0x47f-0x482 (3)
0x470|                                             fd|               .|                    opcode: "vector" (0xfd) 0x47f-0x480 (1)
0x480|b8 01                                          |..              |                    v_opcode: "i32x4.max_s" (184) 0x480-0x482 (2)
     |                                               |                |                  [3]{}: in 0x482-0x483 (1)
0x480|      0b                                       |  .             |                    opcode: "end" (0xb) 0x482-0x483 (1)
     |                                               |                |            [20]{}: code 0x483-0x49d (26)
0x480|         19                                    |   .            |              size: 25 (valid) 0x483-0x484 (1)
     |                                               |                |              code{}: 0x484-0x49d (25)
     |                                               |                |                t{}: 0x484-0x485 (1)
0x480|            00                                 |    .           |                  n: 0 (valid) 0x484-0x485 (1)
     |                                               |                |                  x[0:0]: 0x485-0x485 (0)
     |                                               |                |                e[0:4]: 0x485-0x49d (24)
     |                                               |                |                  [0]{}: in 0x485-0x487 (2)
0x480|               20                              |                |                    opcode: "local.get" (0x20) 0x485-0x486 (1)
0x480|                  00                           |      .         |                    x: 0 (valid) 0x486-0x487 (1)
     |                                               |                |                  [1]{}: in 0x487-0x499 (18)
0x480|                     fd                        |       .        |                    opcode: "vector" (0xfd) 0x487-0x488 (1)
0x480|                        0c                     |        .       |                    v_opcode: "v128.const" (12) 0x488-0x489 (1)
0x480|                           00 00 00 80 ff ff ff|         .......|                    bytes: raw bits 0x489-0x499 (16)
0x490|7f 00 00 00 40 ff ff ff ff                     |....@....       |
     |                                               |                |                  [2]{}: in 0x499-0x49c (3)
0x490|                           fd                  |         .      |                    opcode: "vector" (0xfd) 0x499-0x49a (1)
0x490|                              b9 01            |          ..    |                    v_opcode: "i32x4.max_u" (185) 0x49a-0x49c (2)
     |                                               |                |                  [3]{}: in 0x49c-0x49d (1)
0x490|                                    0b         |            .   |                    opcode: "end" (0xb) 0x49c-0x49d (1)
     |                                               |                |            [21]{}: code 0x49d-0x4b7 (26)
0x490|                                       19      |             .  |              size: 25 (valid) 0x49d-0x49e (1)
     |                                               |                |              code{}: 0x49e-0x4b7 (25)
     |                                               |                |                t{}: 0x49e-0x49f (1)
0x490|                                          00   |              . |                  n: 0 (valid) 0x49e-0x49f (1)
     |                                               |                |                  x[0:0]: 0x49f-0x49f (0)
     |                                               |                |                e[0:4]: 0x49f-0x4b7 (24)
     |                                               |                |                  [0]{}: in 0x49f-0x4a1 (2)
0x490|                                             20|                |                    opcode: "local.get" (0x20) 0x49f-0x4a0 (1)
0x4a0|00                                             |.               |                    x: 0 (valid) 0x4a0-0x4a1 (1)
     |                                               |                |                  [1]{}: in 0x4a1-0x4b3 (18)
0x4a0|   fd                                          | .              |                    opcode: "vector" (0xfd) 0x4a1-0x4a2 (1)
0x4a0|      0c                                       |  .             |                    v_opcode: "v128.const" (12) 0x4a2-0x4a3 (1)
0x4a0|         00 00 00 00 01 00 00 00 02 00 00 00 03|   .............|                    bytes: raw bits 0x4a3-0x4b3 (16)
0x4b0|00 00 00                                       |...             |
     |                                               |                |                  [2]{}: in 0x4b3-0x4b6 (3)
0x4b0|         fd                                    |   .            |                    opcode: "vector" (0xfd) 0x4b3-0x4b4 (1)
0x4b0|            b9 01                              |    ..          |                    v_opcode: "i32x4.max_u" (185) 0x4b4-0x4b6 (2)
     |                                               |                |                  [3]{}: in 0x4b6-0x4b7 (1)
0x4b0|                  0b|                          |      .|        |                    opcode: "end" (0xb) 0x4b6-0x4b7 (1)
