$ fq -d wasm dv simd_load16_lane-0.wasm
     |00 01 02 03 04 05 06 07 08 09 0a 0b 0c 0d 0e 0f|0123456789abcdef|.{}: simd_load16_lane-0.wasm (wasm) 0x0-0x545.7 (1350)
0x000|00 61 73 6d                                    |.asm            |  magic: raw bits (valid) 0x0-0x3.7 (4)
0x000|            01 00 00 00                        |    ....        |  version: 1 0x4-0x7.7 (4)
     |                                               |                |  sections[0:6]: 0x8-0x545.7 (1342)
     |                                               |                |    [0]{}: section 0x8-0x15.7 (14)
0x000|                        01                     |        .       |      id: "type section" (1) 0x8-0x8.7 (1)
0x000|                           0c                  |         .      |      size: 12 0x9-0x9.7 (1)
     |                                               |                |      content{}: 0xa-0x15.7 (12)
     |                                               |                |        ft{}: 0xa-0x15.7 (12)
0x000|                              02               |          .     |          n: 2 0xa-0xa.7 (1)
     |                                               |                |          x[0:2]: 0xb-0x15.7 (11)
     |                                               |                |            [0]{}: ft 0xb-0x10.7 (6)
0x000|                                 60            |           `    |              tag: 0x60 (valid) 0xb-0xb.7 (1)
     |                                               |                |              rt1{}: 0xc-0xe.7 (3)
0x000|                                    02         |            .   |                n: 2 0xc-0xc.7 (1)
     |                                               |                |                x[0:2]: 0xd-0xe.7 (2)
0x000|                                       7f      |             .  |                  [0]: "i32" (0x7f) t 0xd-0xd.7 (1)
0x000|                                          7b   |              { |                  [1]: "v128" (0x7b) t 0xe-0xe.7 (1)
     |                                               |                |              rt2{}: 0xf-0x10.7 (2)
0x000|                                             01|               .|                n: 1 0xf-0xf.7 (1)
     |                                               |                |                x[0:1]: 0x10-0x10.7 (1)
0x010|7b                                             |{               |                  [0]: "v128" (0x7b) t 0x10-0x10.7 (1)
     |                                               |                |            [1]{}: ft 0x11-0x15.7 (5)
0x010|   60                                          | `              |              tag: 0x60 (valid) 0x11-0x11.7 (1)
     |                                               |                |              rt1{}: 0x12-0x13.7 (2)
0x010|      01                                       |  .             |                n: 1 0x12-0x12.7 (1)
     |                                               |                |                x[0:1]: 0x13-0x13.7 (1)
0x010|         7b                                    |   {            |                  [0]: "v128" (0x7b) t 0x13-0x13.7 (1)
     |                                               |                |              rt2{}: 0x14-0x15.7 (2)
0x010|            01                                 |    .           |                n: 1 0x14-0x14.7 (1)
     |                                               |                |                x[0:1]: 0x15-0x15.7 (1)
0x010|               7b                              |     {          |                  [0]: "v128" (0x7b) t 0x15-0x15.7 (1)
     |                                               |                |    [1]{}: section 0x16-0x38.7 (35)
0x010|                  03                           |      .         |      id: "function section" (3) 0x16-0x16.7 (1)
0x010|                     21                        |       !        |      size: 33 0x17-0x17.7 (1)
     |                                               |                |      content{}: 0x18-0x38.7 (33)
     |                                               |                |        x{}: 0x18-0x38.7 (33)
0x010|                        20                     |                |          n: 32 0x18-0x18.7 (1)
     |                                               |                |          x[0:32]: 0x19-0x38.7 (32)
0x010|                           00                  |         .      |            [0]: 0 x 0x19-0x19.7 (1)
0x010|                              00               |          .     |            [1]: 0 x 0x1a-0x1a.7 (1)
0x010|                                 00            |           .    |            [2]: 0 x 0x1b-0x1b.7 (1)
0x010|                                    00         |            .   |            [3]: 0 x 0x1c-0x1c.7 (1)
0x010|                                       00      |             .  |            [4]: 0 x 0x1d-0x1d.7 (1)
0x010|                                          00   |              . |            [5]: 0 x 0x1e-0x1e.7 (1)
0x010|                                             00|               .|            [6]: 0 x 0x1f-0x1f.7 (1)
0x020|00                                             |.               |            [7]: 0 x 0x20-0x20.7 (1)
0x020|   01                                          | .              |            [8]: 1 x 0x21-0x21.7 (1)
0x020|      01                                       |  .             |            [9]: 1 x 0x22-0x22.7 (1)
0x020|         01                                    |   .            |            [10]: 1 x 0x23-0x23.7 (1)
0x020|            01                                 |    .           |            [11]: 1 x 0x24-0x24.7 (1)
0x020|               01                              |     .          |            [12]: 1 x 0x25-0x25.7 (1)
0x020|                  01                           |      .         |            [13]: 1 x 0x26-0x26.7 (1)
0x020|                     01                        |       .        |            [14]: 1 x 0x27-0x27.7 (1)
0x020|                        01                     |        .       |            [15]: 1 x 0x28-0x28.7 (1)
0x020|                           00                  |         .      |            [16]: 0 x 0x29-0x29.7 (1)
0x020|                              00               |          .     |            [17]: 0 x 0x2a-0x2a.7 (1)
0x020|                                 00            |           .    |            [18]: 0 x 0x2b-0x2b.7 (1)
0x020|                                    00         |            .   |            [19]: 0 x 0x2c-0x2c.7 (1)
0x020|                                       00      |             .  |            [20]: 0 x 0x2d-0x2d.7 (1)
0x020|                                          00   |              . |            [21]: 0 x 0x2e-0x2e.7 (1)
0x020|                                             00|               .|            [22]: 0 x 0x2f-0x2f.7 (1)
0x030|00                                             |.               |            [23]: 0 x 0x30-0x30.7 (1)
0x030|   00                                          | .              |            [24]: 0 x 0x31-0x31.7 (1)
0x030|      00                                       |  .             |            [25]: 0 x 0x32-0x32.7 (1)
0x030|         00                                    |   .            |            [26]: 0 x 0x33-0x33.7 (1)
0x030|            00                                 |    .           |            [27]: 0 x 0x34-0x34.7 (1)
0x030|               00                              |     .          |            [28]: 0 x 0x35-0x35.7 (1)
0x030|                  00                           |      .         |            [29]: 0 x 0x36-0x36.7 (1)
0x030|                     00                        |       .        |            [30]: 0 x 0x37-0x37.7 (1)
0x030|                        00                     |        .       |            [31]: 0 x 0x38-0x38.7 (1)
     |                                               |                |    [2]{}: section 0x39-0x3d.7 (5)
0x030|                           05                  |         .      |      id: "memory section" (5) 0x39-0x39.7 (1)
0x030|                              03               |          .     |      size: 3 0x3a-0x3a.7 (1)
     |                                               |                |      content{}: 0x3b-0x3d.7 (3)
     |                                               |                |        mem{}: 0x3b-0x3d.7 (3)
0x030|                                 01            |           .    |          n: 1 0x3b-0x3b.7 (1)
     |                                               |                |          x[0:1]: 0x3c-0x3d.7 (2)
     |                                               |                |            [0]{}: mem 0x3c-0x3d.7 (2)
     |                                               |                |              lim{}: 0x3c-0x3d.7 (2)
0x030|                                    00         |            .   |                tag: 0x0 0x3c-0x3c.7 (1)
0x030|                                       01      |             .  |                n: 1 0x3d-0x3d.7 (1)
     |                                               |                |    [3]{}: section 0x3e-0x3a9.7 (876)
0x030|                                          07   |              . |      id: "export section" (7) 0x3e-0x3e.7 (1)
0x030|                                             e9|               .|      size: 873 0x3f-0x40.7 (2)
0x040|06                                             |.               |
     |                                               |                |      content{}: 0x41-0x3a9.7 (873)
     |                                               |                |        ex{}: 0x41-0x3a9.7 (873)
0x040|   20                                          |                |          n: 32 0x41-0x41.7 (1)
     |                                               |                |          x[0:32]: 0x42-0x3a9.7 (872)
     |                                               |                |            [0]{}: ex 0x42-0x56.7 (21)
     |                                               |                |              nm{}: 0x42-0x54.7 (19)
0x040|      12                                       |  .             |                n: 18 0x42-0x42.7 (1)
0x040|         76 31 32 38 2e 6c 6f 61 64 31 36 5f 6c|   v128.load16_l|                b: "v128.load16_lane_0" 0x43-0x54.7 (18)
0x050|61 6e 65 5f 30                                 |ane_0           |
     |                                               |                |              d{}: 0x55-0x56.7 (2)
0x050|               00                              |     .          |                tag: "funcidx" (0x0) 0x55-0x55.7 (1)
0x050|                  00                           |      .         |                x: 0 0x56-0x56.7 (1)
     |                                               |                |            [1]{}: ex 0x57-0x6b.7 (21)
     |                                               |                |              nm{}: 0x57-0x69.7 (19)
0x050|                     12                        |       .        |                n: 18 0x57-0x57.7 (1)
0x050|                        76 31 32 38 2e 6c 6f 61|        v128.loa|                b: "v128.load16_lane_1" 0x58-0x69.7 (18)
0x060|64 31 36 5f 6c 61 6e 65 5f 31                  |d16_lane_1      |
     |                                               |                |              d{}: 0x6a-0x6b.7 (2)
0x060|                              00               |          .     |                tag: "funcidx" (0x0) 0x6a-0x6a.7 (1)
0x060|                                 01            |           .    |                x: 1 0x6b-0x6b.7 (1)
     |                                               |                |            [2]{}: ex 0x6c-0x80.7 (21)
     |                                               |                |              nm{}: 0x6c-0x7e.7 (19)
0x060|                                    12         |            .   |                n: 18 0x6c-0x6c.7 (1)
0x060|                                       76 31 32|             v12|                b: "v128.load16_lane_2" 0x6d-0x7e.7 (18)
0x070|38 2e 6c 6f 61 64 31 36 5f 6c 61 6e 65 5f 32   |8.load16_lane_2 |
     |                                               |                |              d{}: 0x7f-0x80.7 (2)
0x070|                                             00|               .|                tag: "funcidx" (0x0) 0x7f-0x7f.7 (1)
0x080|02                                             |.               |                x: 2 0x80-0x80.7 (1)
     |                                               |                |            [3]{}: ex 0x81-0x95.7 (21)
     |                                               |                |              nm{}: 0x81-0x93.7 (19)
0x080|   12                                          | .              |                n: 18 0x81-0x81.7 (1)
0x080|      76 31 32 38 2e 6c 6f 61 64 31 36 5f 6c 61|  v128.load16_la|                b: "v128.load16_lane_3" 0x82-0x93.7 (18)
0x090|6e 65 5f 33                                    |ne_3            |
     |                                               |                |              d{}: 0x94-0x95.7 (2)
0x090|            00                                 |    .           |                tag: "funcidx" (0x0) 0x94-0x94.7 (1)
0x090|               03                              |     .          |                x: 3 0x95-0x95.7 (1)
     |                                               |                |            [4]{}: ex 0x96-0xaa.7 (21)
     |                                               |                |              nm{}: 0x96-0xa8.7 (19)
0x090|                  12                           |      .         |                n: 18 0x96-0x96.7 (1)
0x090|                     76 31 32 38 2e 6c 6f 61 64|       v128.load|                b: "v128.load16_lane_4" 0x97-0xa8.7 (18)
0x0a0|31 36 5f 6c 61 6e 65 5f 34                     |16_lane_4       |
     |                                               |                |              d{}: 0xa9-0xaa.7 (2)
0x0a0|                           00                  |         .      |                tag: "funcidx" (0x0) 0xa9-0xa9.7 (1)
0x0a0|                              04               |          .     |                x: 4 0xaa-0xaa.7 (1)
     |                                               |                |            [5]{}: ex 0xab-0xbf.7 (21)
     |                                               |                |              nm{}: 0xab-0xbd.7 (19)
0x0a0|                                 12            |           .    |                n: 18 0xab-0xab.7 (1)
0x0a0|                                    76 31 32 38|            v128|                b: "v128.load16_lane_5" 0xac-0xbd.7 (18)
0x0b0|2e 6c 6f 61 64 31 36 5f 6c 61 6e 65 5f 35      |.load16_lane_5  |
     |                                               |                |              d{}: 0xbe-0xbf.7 (2)
0x0b0|                                          00   |              . |                tag: "funcidx" (0x0) 0xbe-0xbe.7 (1)
0x0b0|                                             05|               .|                x: 5 0xbf-0xbf.7 (1)
     |                                               |                |            [6]{}: ex 0xc0-0xd4.7 (21)
     |                                               |                |              nm{}: 0xc0-0xd2.7 (19)
0x0c0|12                                             |.               |                n: 18 0xc0-0xc0.7 (1)
0x0c0|   76 31 32 38 2e 6c 6f 61 64 31 36 5f 6c 61 6e| v128.load16_lan|                b: "v128.load16_lane_6" 0xc1-0xd2.7 (18)
0x0d0|65 5f 36                                       |e_6             |
     |                                               |                |              d{}: 0xd3-0xd4.7 (2)
0x0d0|         00                                    |   .            |                tag: "funcidx" (0x0) 0xd3-0xd3.7 (1)
0x0d0|            06                                 |    .           |                x: 6 0xd4-0xd4.7 (1)
     |                                               |                |            [7]{}: ex 0xd5-0xe9.7 (21)
     |                                               |                |              nm{}: 0xd5-0xe7.7 (19)
0x0d0|               12                              |     .          |                n: 18 0xd5-0xd5.7 (1)
0x0d0|                  76 31 32 38 2e 6c 6f 61 64 31|      v128.load1|                b: "v128.load16_lane_7" 0xd6-0xe7.7 (18)
0x0e0|36 5f 6c 61 6e 65 5f 37                        |6_lane_7        |
     |                                               |                |              d{}: 0xe8-0xe9.7 (2)
0x0e0|                        00                     |        .       |                tag: "funcidx" (0x0) 0xe8-0xe8.7 (1)
0x0e0|                           07                  |         .      |                x: 7 0xe9-0xe9.7 (1)
     |                                               |                |            [8]{}: ex 0xea-0x107.7 (30)
     |                                               |                |              nm{}: 0xea-0x105.7 (28)
0x0e0|                              1b               |          .     |                n: 27 0xea-0xea.7 (1)
0x0e0|                                 76 31 32 38 2e|           v128.|                b: "v128.load16_lane_0_offset_0" 0xeb-0x105.7 (27)
0x0f0|6c 6f 61 64 31 36 5f 6c 61 6e 65 5f 30 5f 6f 66|load16_lane_0_of|
0x100|66 73 65 74 5f 30                              |fset_0          |
     |                                               |                |              d{}: 0x106-0x107.7 (2)
0x100|                  00                           |      .         |                tag: "funcidx" (0x0) 0x106-0x106.7 (1)
0x100|                     08                        |       .        |                x: 8 0x107-0x107.7 (1)
     |                                               |                |            [9]{}: ex 0x108-0x125.7 (30)
     |                                               |                |              nm{}: 0x108-0x123.7 (28)
0x100|                        1b                     |        .       |                n: 27 0x108-0x108.7 (1)
0x100|                           76 31 32 38 2e 6c 6f|         v128.lo|                b: "v128.load16_lane_1_offset_1" 0x109-0x123.7 (27)
0x110|61 64 31 36 5f 6c 61 6e 65 5f 31 5f 6f 66 66 73|ad16_lane_1_offs|
0x120|65 74 5f 31                                    |et_1            |
     |                                               |                |              d{}: 0x124-0x125.7 (2)
0x120|            00                                 |    .           |                tag: "funcidx" (0x0) 0x124-0x124.7 (1)
0x120|               09                              |     .          |                x: 9 0x125-0x125.7 (1)
     |                                               |                |            [10]{}: ex 0x126-0x143.7 (30)
     |                                               |                |              nm{}: 0x126-0x141.7 (28)
0x120|                  1b                           |      .         |                n: 27 0x126-0x126.7 (1)
0x120|                     76 31 32 38 2e 6c 6f 61 64|       v128.load|                b: "v128.load16_lane_2_offset_2" 0x127-0x141.7 (27)
0x130|31 36 5f 6c 61 6e 65 5f 32 5f 6f 66 66 73 65 74|16_lane_2_offset|
0x140|5f 32                                          |_2              |
     |                                               |                |              d{}: 0x142-0x143.7 (2)
0x140|      00                                       |  .             |                tag: "funcidx" (0x0) 0x142-0x142.7 (1)
0x140|         0a                                    |   .            |                x: 10 0x143-0x143.7 (1)
     |                                               |                |            [11]{}: ex 0x144-0x161.7 (30)
     |                                               |                |              nm{}: 0x144-0x15f.7 (28)
0x140|            1b                                 |    .           |                n: 27 0x144-0x144.7 (1)
0x140|               76 31 32 38 2e 6c 6f 61 64 31 36|     v128.load16|                b: "v128.load16_lane_3_offset_3" 0x145-0x15f.7 (27)
0x150|5f 6c 61 6e 65 5f 33 5f 6f 66 66 73 65 74 5f 33|_lane_3_offset_3|
     |                                               |                |              d{}: 0x160-0x161.7 (2)
0x160|00                                             |.               |                tag: "funcidx" (0x0) 0x160-0x160.7 (1)
0x160|   0b                                          | .              |                x: 11 0x161-0x161.7 (1)
     |                                               |                |            [12]{}: ex 0x162-0x17f.7 (30)
     |                                               |                |              nm{}: 0x162-0x17d.7 (28)
0x160|      1b                                       |  .             |                n: 27 0x162-0x162.7 (1)
0x160|         76 31 32 38 2e 6c 6f 61 64 31 36 5f 6c|   v128.load16_l|                b: "v128.load16_lane_4_offset_4" 0x163-0x17d.7 (27)
0x170|61 6e 65 5f 34 5f 6f 66 66 73 65 74 5f 34      |ane_4_offset_4  |
     |                                               |                |              d{}: 0x17e-0x17f.7 (2)
0x170|                                          00   |              . |                tag: "funcidx" (0x0) 0x17e-0x17e.7 (1)
0x170|                                             0c|               .|                x: 12 0x17f-0x17f.7 (1)
     |                                               |                |            [13]{}: ex 0x180-0x19d.7 (30)
     |                                               |                |              nm{}: 0x180-0x19b.7 (28)
0x180|1b                                             |.               |                n: 27 0x180-0x180.7 (1)
0x180|   76 31 32 38 2e 6c 6f 61 64 31 36 5f 6c 61 6e| v128.load16_lan|                b: "v128.load16_lane_5_offset_5" 0x181-0x19b.7 (27)
0x190|65 5f 35 5f 6f 66 66 73 65 74 5f 35            |e_5_offset_5    |
     |                                               |                |              d{}: 0x19c-0x19d.7 (2)
0x190|                                    00         |            .   |                tag: "funcidx" (0x0) 0x19c-0x19c.7 (1)
0x190|                                       0d      |             .  |                x: 13 0x19d-0x19d.7 (1)
     |                                               |                |            [14]{}: ex 0x19e-0x1bb.7 (30)
     |                                               |                |              nm{}: 0x19e-0x1b9.7 (28)
0x190|                                          1b   |              . |                n: 27 0x19e-0x19e.7 (1)
0x190|                                             76|               v|                b: "v128.load16_lane_6_offset_6" 0x19f-0x1b9.7 (27)
0x1a0|31 32 38 2e 6c 6f 61 64 31 36 5f 6c 61 6e 65 5f|128.load16_lane_|
0x1b0|36 5f 6f 66 66 73 65 74 5f 36                  |6_offset_6      |
     |                                               |                |              d{}: 0x1ba-0x1bb.7 (2)
0x1b0|                              00               |          .     |                tag: "funcidx" (0x0) 0x1ba-0x1ba.7 (1)
0x1b0|                                 0e            |           .    |                x: 14 0x1bb-0x1bb.7 (1)
     |                                               |                |            [15]{}: ex 0x1bc-0x1d9.7 (30)
     |                                               |                |              nm{}: 0x1bc-0x1d7.7 (28)
0x1b0|                                    1b         |            .   |                n: 27 0x1bc-0x1bc.7 (1)
0x1b0|                                       76 31 32|             v12|                b: "v128.load16_lane_7_offset_7" 0x1bd-0x1d7.7 (27)
0x1c0|38 2e 6c 6f 61 64 31 36 5f 6c 61 6e 65 5f 37 5f|8.load16_lane_7_|
0x1d0|6f 66 66 73 65 74 5f 37                        |offset_7        |
     |                                               |                |              d{}: 0x1d8-0x1d9.7 (2)
0x1d0|                        00                     |        .       |                tag: "funcidx" (0x0) 0x1d8-0x1d8.7 (1)
0x1d0|                           0f                  |         .      |                x: 15 0x1d9-0x1d9.7 (1)
     |                                               |                |            [16]{}: ex 0x1da-0x1f6.7 (29)
     |                                               |                |              nm{}: 0x1da-0x1f4.7 (27)
0x1d0|                              1a               |          .     |                n: 26 0x1da-0x1da.7 (1)
0x1d0|                                 76 31 32 38 2e|           v128.|                b: "v128.load16_lane_0_align_1" 0x1db-0x1f4.7 (26)
0x1e0|6c 6f 61 64 31 36 5f 6c 61 6e 65 5f 30 5f 61 6c|load16_lane_0_al|
0x1f0|69 67 6e 5f 31                                 |ign_1           |
     |                                               |                |              d{}: 0x1f5-0x1f6.7 (2)
0x1f0|               00                              |     .          |                tag: "funcidx" (0x0) 0x1f5-0x1f5.7 (1)
0x1f0|                  10                           |      .         |                x: 16 0x1f6-0x1f6.7 (1)
     |                                               |                |            [17]{}: ex 0x1f7-0x213.7 (29)
     |                                               |                |              nm{}: 0x1f7-0x211.7 (27)
0x1f0|                     1a                        |       .        |                n: 26 0x1f7-0x1f7.7 (1)
0x1f0|                        76 31 32 38 2e 6c 6f 61|        v128.loa|                b: "v128.load16_lane_0_align_2" 0x1f8-0x211.7 (26)
0x200|64 31 36 5f 6c 61 6e 65 5f 30 5f 61 6c 69 67 6e|d16_lane_0_align|
0x210|5f 32                                          |_2              |
     |                                               |                |              d{}: 0x212-0x213.7 (2)
0x210|      00                                       |  .             |                tag: "funcidx" (0x0) 0x212-0x212.7 (1)
0x210|         11                                    |   .            |                x: 17 0x213-0x213.7 (1)
     |                                               |                |            [18]{}: ex 0x214-0x230.7 (29)
     |                                               |                |              nm{}: 0x214-0x22e.7 (27)
0x210|            1a                                 |    .           |                n: 26 0x214-0x214.7 (1)
0x210|               76 31 32 38 2e 6c 6f 61 64 31 36|     v128.load16|                b: "v128.load16_lane_1_align_1" 0x215-0x22e.7 (26)
0x220|5f 6c 61 6e 65 5f 31 5f 61 6c 69 67 6e 5f 31   |_lane_1_align_1 |
     |                                               |                |              d{}: 0x22f-0x230.7 (2)
0x220|                                             00|               .|                tag: "funcidx" (0x0) 0x22f-0x22f.7 (1)
0x230|12                                             |.               |                x: 18 0x230-0x230.7 (1)
     |                                               |                |            [19]{}: ex 0x231-0x24d.7 (29)
     |                                               |                |              nm{}: 0x231-0x24b.7 (27)
0x230|   1a                                          | .              |                n: 26 0x231-0x231.7 (1)
0x230|      76 31 32 38 2e 6c 6f 61 64 31 36 5f 6c 61|  v128.load16_la|                b: "v128.load16_lane_1_align_2" 0x232-0x24b.7 (26)
0x240|6e 65 5f 31 5f 61 6c 69 67 6e 5f 32            |ne_1_align_2    |
     |                                               |                |              d{}: 0x24c-0x24d.7 (2)
0x240|                                    00         |            .   |                tag: "funcidx" (0x0) 0x24c-0x24c.7 (1)
0x240|                                       13      |             .  |                x: 19 0x24d-0x24d.7 (1)
     |                                               |                |            [20]{}: ex 0x24e-0x26a.7 (29)
     |                                               |                |              nm{}: 0x24e-0x268.7 (27)
0x240|                                          1a   |              . |                n: 26 0x24e-0x24e.7 (1)
0x240|                                             76|               v|                b: "v128.load16_lane_2_align_1" 0x24f-0x268.7 (26)
0x250|31 32 38 2e 6c 6f 61 64 31 36 5f 6c 61 6e 65 5f|128.load16_lane_|
0x260|32 5f 61 6c 69 67 6e 5f 31                     |2_align_1       |
     |                                               |                |              d{}: 0x269-0x26a.7 (2)
0x260|                           00                  |         .      |                tag: "funcidx" (0x0) 0x269-0x269.7 (1)
0x260|                              14               |          .     |                x: 20 0x26a-0x26a.7 (1)
     |                                               |                |            [21]{}: ex 0x26b-0x287.7 (29)
     |                                               |                |              nm{}: 0x26b-0x285.7 (27)
0x260|                                 1a            |           .    |                n: 26 0x26b-0x26b.7 (1)
0x260|                                    76 31 32 38|            v128|                b: "v128.load16_lane_2_align_2" 0x26c-0x285.7 (26)
0x270|2e 6c 6f 61 64 31 36 5f 6c 61 6e 65 5f 32 5f 61|.load16_lane_2_a|
0x280|6c 69 67 6e 5f 32                              |lign_2          |
     |                                               |                |              d{}: 0x286-0x287.7 (2)
0x280|                  00                           |      .         |                tag: "funcidx" (0x0) 0x286-0x286.7 (1)
0x280|                     15                        |       .        |                x: 21 0x287-0x287.7 (1)
     |                                               |                |            [22]{}: ex 0x288-0x2a4.7 (29)
     |                                               |                |              nm{}: 0x288-0x2a2.7 (27)
0x280|                        1a                     |        .       |                n: 26 0x288-0x288.7 (1)
0x280|                           76 31 32 38 2e 6c 6f|         v128.lo|                b: "v128.load16_lane_3_align_1" 0x289-0x2a2.7 (26)
0x290|61 64 31 36 5f 6c 61 6e 65 5f 33 5f 61 6c 69 67|ad16_lane_3_alig|
0x2a0|6e 5f 31                                       |n_1             |
     |                                               |                |              d{}: 0x2a3-0x2a4.7 (2)
0x2a0|         00                                    |   .            |                tag: "funcidx" (0x0) 0x2a3-0x2a3.7 (1)
0x2a0|            16                                 |    .           |                x: 22 0x2a4-0x2a4.7 (1)
     |                                               |                |            [23]{}: ex 0x2a5-0x2c1.7 (29)
     |                                               |                |              nm{}: 0x2a5-0x2bf.7 (27)
0x2a0|               1a                              |     .          |                n: 26 0x2a5-0x2a5.7 (1)
0x2a0|                  76 31 32 38 2e 6c 6f 61 64 31|      v128.load1|                b: "v128.load16_lane_3_align_2" 0x2a6-0x2bf.7 (26)
0x2b0|36 5f 6c 61 6e 65 5f 33 5f 61 6c 69 67 6e 5f 32|6_lane_3_align_2|
     |                                               |                |              d{}: 0x2c0-0x2c1.7 (2)
0x2c0|00                                             |.               |                tag: "funcidx" (0x0) 0x2c0-0x2c0.7 (1)
0x2c0|   17                                          | .              |                x: 23 0x2c1-0x2c1.7 (1)
     |                                               |                |            [24]{}: ex 0x2c2-0x2de.7 (29)
     |                                               |                |              nm{}: 0x2c2-0x2dc.7 (27)
0x2c0|      1a                                       |  .             |                n: 26 0x2c2-0x2c2.7 (1)
0x2c0|         76 31 32 38 2e 6c 6f 61 64 31 36 5f 6c|   v128.load16_l|                b: "v128.load16_lane_4_align_1" 0x2c3-0x2dc.7 (26)
0x2d0|61 6e 65 5f 34 5f 61 6c 69 67 6e 5f 31         |ane_4_align_1   |
     |                                               |                |              d{}: 0x2dd-0x2de.7 (2)
0x2d0|                                       00      |             .  |                tag: "funcidx" (0x0) 0x2dd-0x2dd.7 (1)
0x2d0|                                          18   |              . |                x: 24 0x2de-0x2de.7 (1)
     |                                               |                |            [25]{}: ex 0x2df-0x2fb.7 (29)
     |                                               |                |              nm{}: 0x2df-0x2f9.7 (27)
0x2d0|                                             1a|               .|                n: 26 0x2df-0x2df.7 (1)
0x2e0|76 31 32 38 2e 6c 6f 61 64 31 36 5f 6c 61 6e 65|v128.load16_lane|                b: "v128.load16_lane_4_align_2" 0x2e0-0x2f9.7 (26)
0x2f0|5f 34 5f 61 6c 69 67 6e 5f 32                  |_4_align_2      |
     |                                               |                |              d{}: 0x2fa-0x2fb.7 (2)
0x2f0|                              00               |          .     |                tag: "funcidx" (0x0) 0x2fa-0x2fa.7 (1)
0x2f0|                                 19            |           .    |                x: 25 0x2fb-0x2fb.7 (1)
     |                                               |                |            [26]{}: ex 0x2fc-0x318.7 (29)
     |                                               |                |              nm{}: 0x2fc-0x316.7 (27)
0x2f0|                                    1a         |            .   |                n: 26 0x2fc-0x2fc.7 (1)
0x2f0|                                       76 31 32|             v12|                b: "v128.load16_lane_5_align_1" 0x2fd-0x316.7 (26)
0x300|38 2e 6c 6f 61 64 31 36 5f 6c 61 6e 65 5f 35 5f|8.load16_lane_5_|
0x310|61 6c 69 67 6e 5f 31                           |align_1         |
     |                                               |                |              d{}: 0x317-0x318.7 (2)
0x310|                     00                        |       .        |                tag: "funcidx" (0x0) 0x317-0x317.7 (1)
0x310|                        1a                     |        .       |                x: 26 0x318-0x318.7 (1)
     |                                               |                |            [27]{}: ex 0x319-0x335.7 (29)
     |                                               |                |              nm{}: 0x319-0x333.7 (27)
0x310|                           1a                  |         .      |                n: 26 0x319-0x319.7 (1)
0x310|                              76 31 32 38 2e 6c|          v128.l|                b: "v128.load16_lane_5_align_2" 0x31a-0x333.7 (26)
0x320|6f 61 64 31 36 5f 6c 61 6e 65 5f 35 5f 61 6c 69|oad16_lane_5_ali|
0x330|67 6e 5f 32                                    |gn_2            |
     |                                               |                |              d{}: 0x334-0x335.7 (2)
0x330|            00                                 |    .           |                tag: "funcidx" (0x0) 0x334-0x334.7 (1)
0x330|               1b                              |     .          |                x: 27 0x335-0x335.7 (1)
     |                                               |                |            [28]{}: ex 0x336-0x352.7 (29)
     |                                               |                |              nm{}: 0x336-0x350.7 (27)
0x330|                  1a                           |      .         |                n: 26 0x336-0x336.7 (1)
0x330|                     76 31 32 38 2e 6c 6f 61 64|       v128.load|                b: "v128.load16_lane_6_align_1" 0x337-0x350.7 (26)
0x340|31 36 5f 6c 61 6e 65 5f 36 5f 61 6c 69 67 6e 5f|16_lane_6_align_|
0x350|31                                             |1               |
     |                                               |                |              d{}: 0x351-0x352.7 (2)
0x350|   00                                          | .              |                tag: "funcidx" (0x0) 0x351-0x351.7 (1)
0x350|      1c                                       |  .             |                x: 28 0x352-0x352.7 (1)
     |                                               |                |            [29]{}: ex 0x353-0x36f.7 (29)
     |                                               |                |              nm{}: 0x353-0x36d.7 (27)
0x350|         1a                                    |   .            |                n: 26 0x353-0x353.7 (1)
0x350|            76 31 32 38 2e 6c 6f 61 64 31 36 5f|    v128.load16_|                b: "v128.load16_lane_6_align_2" 0x354-0x36d.7 (26)
0x360|6c 61 6e 65 5f 36 5f 61 6c 69 67 6e 5f 32      |lane_6_align_2  |
     |                                               |                |              d{}: 0x36e-0x36f.7 (2)
0x360|                                          00   |              . |                tag: "funcidx" (0x0) 0x36e-0x36e.7 (1)
0x360|                                             1d|               .|                x: 29 0x36f-0x36f.7 (1)
     |                                               |                |            [30]{}: ex 0x370-0x38c.7 (29)
     |                                               |                |              nm{}: 0x370-0x38a.7 (27)
0x370|1a                                             |.               |                n: 26 0x370-0x370.7 (1)
0x370|   76 31 32 38 2e 6c 6f 61 64 31 36 5f 6c 61 6e| v128.load16_lan|                b: "v128.load16_lane_7_align_1" 0x371-0x38a.7 (26)
0x380|65 5f 37 5f 61 6c 69 67 6e 5f 31               |e_7_align_1     |
     |                                               |                |              d{}: 0x38b-0x38c.7 (2)
0x380|                                 00            |           .    |                tag: "funcidx" (0x0) 0x38b-0x38b.7 (1)
0x380|                                    1e         |            .   |                x: 30 0x38c-0x38c.7 (1)
     |                                               |                |            [31]{}: ex 0x38d-0x3a9.7 (29)
     |                                               |                |              nm{}: 0x38d-0x3a7.7 (27)
0x380|                                       1a      |             .  |                n: 26 0x38d-0x38d.7 (1)
0x380|                                          76 31|              v1|                b: "v128.load16_lane_7_align_2" 0x38e-0x3a7.7 (26)
0x390|32 38 2e 6c 6f 61 64 31 36 5f 6c 61 6e 65 5f 37|28.load16_lane_7|
0x3a0|5f 61 6c 69 67 6e 5f 32                        |_align_2        |
     |                                               |                |              d{}: 0x3a8-0x3a9.7 (2)
0x3a0|                        00                     |        .       |                tag: "funcidx" (0x0) 0x3a8-0x3a8.7 (1)
0x3a0|                           1f                  |         .      |                x: 31 0x3a9-0x3a9.7 (1)
     |                                               |                |    [4]{}: section 0x3aa-0x52d.7 (388)
0x3a0|                              0a               |          .     |      id: "code section" (10) 0x3aa-0x3aa.7 (1)
0x3a0|                                 81 03         |           ..   |      size: 385 0x3ab-0x3ac.7 (2)
     |                                               |                |      content{}: 0x3ad-0x52d.7 (385)
     |                                               |                |        code{}: 0x3ad-0x52d.7 (385)
0x3a0|                                       20      |                |          n: 32 0x3ad-0x3ad.7 (1)
     |                                               |                |          x[0:32]: 0x3ae-0x52d.7 (384)
     |                                               |                |            [0]{}: code 0x3ae-0x3b9.7 (12)
0x3a0|                                          0b   |              . |              size: 11 0x3ae-0x3ae.7 (1)
     |                                               |                |              code{}: 0x3af-0x3b9.7 (11)
     |                                               |                |                t{}: 0x3af-0x3af.7 (1)
0x3a0|                                             00|               .|                  n: 0 0x3af-0x3af.7 (1)
     |                                               |                |                  x[0:0]: 0x3b0-NA (0)
     |                                               |                |                e[0:4]: 0x3b0-0x3b9.7 (10)
     |                                               |                |                  [0]{}: in 0x3b0-0x3b1.7 (2)
0x3b0|20                                             |                |                    local.get: 0x20 (valid) 0x3b0-0x3b0.7 (1)
0x3b0|   00                                          | .              |                    x: 0 0x3b1-0x3b1.7 (1)
     |                                               |                |                  [1]{}: in 0x3b2-0x3b3.7 (2)
0x3b0|      20                                       |                |                    local.get: 0x20 (valid) 0x3b2-0x3b2.7 (1)
0x3b0|         01                                    |   .            |                    x: 1 0x3b3-0x3b3.7 (1)
     |                                               |                |                  [2]{}: in 0x3b4-0x3b8.7 (5)
0x3b0|            fd                                 |    .           |                    prefix: 0xfd (valid) 0x3b4-0x3b4.7 (1)
0x3b0|               55                              |     U          |                    v128.load16_lane: 85 (valid) 0x3b5-0x3b5.7 (1)
     |                                               |                |                    m{}: 0x3b6-0x3b7.7 (2)
0x3b0|                  01                           |      .         |                      a: 1 0x3b6-0x3b6.7 (1)
0x3b0|                     00                        |       .        |                      o: 0 0x3b7-0x3b7.7 (1)
0x3b0|                        00                     |        .       |                    l: 0 0x3b8-0x3b8.7 (1)
     |                                               |                |                  [3]{}: in 0x3b9-0x3b9.7 (1)
0x3b0|                           0b                  |         .      |                    end: 0xb (valid) 0x3b9-0x3b9.7 (1)
     |                                               |                |            [1]{}: code 0x3ba-0x3c5.7 (12)
0x3b0|                              0b               |          .     |              size: 11 0x3ba-0x3ba.7 (1)
     |                                               |                |              code{}: 0x3bb-0x3c5.7 (11)
     |                                               |                |                t{}: 0x3bb-0x3bb.7 (1)
0x3b0|                                 00            |           .    |                  n: 0 0x3bb-0x3bb.7 (1)
     |                                               |                |                  x[0:0]: 0x3bc-NA (0)
     |                                               |                |                e[0:4]: 0x3bc-0x3c5.7 (10)
     |                                               |                |                  [0]{}: in 0x3bc-0x3bd.7 (2)
0x3b0|                                    20         |                |                    local.get: 0x20 (valid) 0x3bc-0x3bc.7 (1)
0x3b0|                                       00      |             .  |                    x: 0 0x3bd-0x3bd.7 (1)
     |                                               |                |                  [1]{}: in 0x3be-0x3bf.7 (2)
0x3b0|                                          20   |                |                    local.get: 0x20 (valid) 0x3be-0x3be.7 (1)
0x3b0|                                             01|               .|                    x: 1 0x3bf-0x3bf.7 (1)
     |                                               |                |                  [2]{}: in 0x3c0-0x3c4.7 (5)
0x3c0|fd                                             |.               |                    prefix: 0xfd (valid) 0x3c0-0x3c0.7 (1)
0x3c0|   55                                          | U              |                    v128.load16_lane: 85 (valid) 0x3c1-0x3c1.7 (1)
     |                                               |                |                    m{}: 0x3c2-0x3c3.7 (2)
0x3c0|      01                                       |  .             |                      a: 1 0x3c2-0x3c2.7 (1)
0x3c0|         00                                    |   .            |                      o: 0 0x3c3-0x3c3.7 (1)
0x3c0|            01                                 |    .           |                    l: 1 0x3c4-0x3c4.7 (1)
     |                                               |                |                  [3]{}: in 0x3c5-0x3c5.7 (1)
0x3c0|               0b                              |     .          |                    end: 0xb (valid) 0x3c5-0x3c5.7 (1)
     |                                               |                |            [2]{}: code 0x3c6-0x3d1.7 (12)
0x3c0|                  0b                           |      .         |              size: 11 0x3c6-0x3c6.7 (1)
     |                                               |                |              code{}: 0x3c7-0x3d1.7 (11)
     |                                               |                |                t{}: 0x3c7-0x3c7.7 (1)
0x3c0|                     00                        |       .        |                  n: 0 0x3c7-0x3c7.7 (1)
     |                                               |                |                  x[0:0]: 0x3c8-NA (0)
     |                                               |                |                e[0:4]: 0x3c8-0x3d1.7 (10)
     |                                               |                |                  [0]{}: in 0x3c8-0x3c9.7 (2)
0x3c0|                        20                     |                |                    local.get: 0x20 (valid) 0x3c8-0x3c8.7 (1)
0x3c0|                           00                  |         .      |                    x: 0 0x3c9-0x3c9.7 (1)
     |                                               |                |                  [1]{}: in 0x3ca-0x3cb.7 (2)
0x3c0|                              20               |                |                    local.get: 0x20 (valid) 0x3ca-0x3ca.7 (1)
0x3c0|                                 01            |           .    |                    x: 1 0x3cb-0x3cb.7 (1)
     |                                               |                |                  [2]{}: in 0x3cc-0x3d0.7 (5)
0x3c0|                                    fd         |            .   |                    prefix: 0xfd (valid) 0x3cc-0x3cc.7 (1)
0x3c0|                                       55      |             U  |                    v128.load16_lane: 85 (valid) 0x3cd-0x3cd.7 (1)
     |                                               |                |                    m{}: 0x3ce-0x3cf.7 (2)
0x3c0|                                          01   |              . |                      a: 1 0x3ce-0x3ce.7 (1)
0x3c0|                                             00|               .|                      o: 0 0x3cf-0x3cf.7 (1)
0x3d0|02                                             |.               |                    l: 2 0x3d0-0x3d0.7 (1)
     |                                               |                |                  [3]{}: in 0x3d1-0x3d1.7 (1)
0x3d0|   0b                                          | .              |                    end: 0xb (valid) 0x3d1-0x3d1.7 (1)
     |                                               |                |            [3]{}: code 0x3d2-0x3dd.7 (12)
0x3d0|      0b                                       |  .             |              size: 11 0x3d2-0x3d2.7 (1)
     |                                               |                |              code{}: 0x3d3-0x3dd.7 (11)
     |                                               |                |                t{}: 0x3d3-0x3d3.7 (1)
0x3d0|         00                                    |   .            |                  n: 0 0x3d3-0x3d3.7 (1)
     |                                               |                |                  x[0:0]: 0x3d4-NA (0)
     |                                               |                |                e[0:4]: 0x3d4-0x3dd.7 (10)
     |                                               |                |                  [0]{}: in 0x3d4-0x3d5.7 (2)
0x3d0|            20                                 |                |                    local.get: 0x20 (valid) 0x3d4-0x3d4.7 (1)
0x3d0|               00                              |     .          |                    x: 0 0x3d5-0x3d5.7 (1)
     |                                               |                |                  [1]{}: in 0x3d6-0x3d7.7 (2)
0x3d0|                  20                           |                |                    local.get: 0x20 (valid) 0x3d6-0x3d6.7 (1)
0x3d0|                     01                        |       .        |                    x: 1 0x3d7-0x3d7.7 (1)
     |                                               |                |                  [2]{}: in 0x3d8-0x3dc.7 (5)
0x3d0|                        fd                     |        .       |                    prefix: 0xfd (valid) 0x3d8-0x3d8.7 (1)
0x3d0|                           55                  |         U      |                    v128.load16_lane: 85 (valid) 0x3d9-0x3d9.7 (1)
     |                                               |                |                    m{}: 0x3da-0x3db.7 (2)
0x3d0|                              01               |          .     |                      a: 1 0x3da-0x3da.7 (1)
0x3d0|                                 00            |           .    |                      o: 0 0x3db-0x3db.7 (1)
0x3d0|                                    03         |            .   |                    l: 3 0x3dc-0x3dc.7 (1)
     |                                               |                |                  [3]{}: in 0x3dd-0x3dd.7 (1)
0x3d0|                                       0b      |             .  |                    end: 0xb (valid) 0x3dd-0x3dd.7 (1)
     |                                               |                |            [4]{}: code 0x3de-0x3e9.7 (12)
0x3d0|                                          0b   |              . |              size: 11 0x3de-0x3de.7 (1)
     |                                               |                |              code{}: 0x3df-0x3e9.7 (11)
     |                                               |                |                t{}: 0x3df-0x3df.7 (1)
0x3d0|                                             00|               .|                  n: 0 0x3df-0x3df.7 (1)
     |                                               |                |                  x[0:0]: 0x3e0-NA (0)
     |                                               |                |                e[0:4]: 0x3e0-0x3e9.7 (10)
     |                                               |                |                  [0]{}: in 0x3e0-0x3e1.7 (2)
0x3e0|20                                             |                |                    local.get: 0x20 (valid) 0x3e0-0x3e0.7 (1)
0x3e0|   00                                          | .              |                    x: 0 0x3e1-0x3e1.7 (1)
     |                                               |                |                  [1]{}: in 0x3e2-0x3e3.7 (2)
0x3e0|      20                                       |                |                    local.get: 0x20 (valid) 0x3e2-0x3e2.7 (1)
0x3e0|         01                                    |   .            |                    x: 1 0x3e3-0x3e3.7 (1)
     |                                               |                |                  [2]{}: in 0x3e4-0x3e8.7 (5)
0x3e0|            fd                                 |    .           |                    prefix: 0xfd (valid) 0x3e4-0x3e4.7 (1)
0x3e0|               55                              |     U          |                    v128.load16_lane: 85 (valid) 0x3e5-0x3e5.7 (1)
     |                                               |                |                    m{}: 0x3e6-0x3e7.7 (2)
0x3e0|                  01                           |      .         |                      a: 1 0x3e6-0x3e6.7 (1)
0x3e0|                     00                        |       .        |                      o: 0 0x3e7-0x3e7.7 (1)
0x3e0|                        04                     |        .       |                    l: 4 0x3e8-0x3e8.7 (1)
     |                                               |                |                  [3]{}: in 0x3e9-0x3e9.7 (1)
0x3e0|                           0b                  |         .      |                    end: 0xb (valid) 0x3e9-0x3e9.7 (1)
     |                                               |                |            [5]{}: code 0x3ea-0x3f5.7 (12)
0x3e0|                              0b               |          .     |              size: 11 0x3ea-0x3ea.7 (1)
     |                                               |                |              code{}: 0x3eb-0x3f5.7 (11)
     |                                               |                |                t{}: 0x3eb-0x3eb.7 (1)
0x3e0|                                 00            |           .    |                  n: 0 0x3eb-0x3eb.7 (1)
     |                                               |                |                  x[0:0]: 0x3ec-NA (0)
     |                                               |                |                e[0:4]: 0x3ec-0x3f5.7 (10)
     |                                               |                |                  [0]{}: in 0x3ec-0x3ed.7 (2)
0x3e0|                                    20         |                |                    local.get: 0x20 (valid) 0x3ec-0x3ec.7 (1)
0x3e0|                                       00      |             .  |                    x: 0 0x3ed-0x3ed.7 (1)
     |                                               |                |                  [1]{}: in 0x3ee-0x3ef.7 (2)
0x3e0|                                          20   |                |                    local.get: 0x20 (valid) 0x3ee-0x3ee.7 (1)
0x3e0|                                             01|               .|                    x: 1 0x3ef-0x3ef.7 (1)
     |                                               |                |                  [2]{}: in 0x3f0-0x3f4.7 (5)
0x3f0|fd                                             |.               |                    prefix: 0xfd (valid) 0x3f0-0x3f0.7 (1)
0x3f0|   55                                          | U              |                    v128.load16_lane: 85 (valid) 0x3f1-0x3f1.7 (1)
     |                                               |                |                    m{}: 0x3f2-0x3f3.7 (2)
0x3f0|      01                                       |  .             |                      a: 1 0x3f2-0x3f2.7 (1)
0x3f0|         00                                    |   .            |                      o: 0 0x3f3-0x3f3.7 (1)
0x3f0|            05                                 |    .           |                    l: 5 0x3f4-0x3f4.7 (1)
     |                                               |                |                  [3]{}: in 0x3f5-0x3f5.7 (1)
0x3f0|               0b                              |     .          |                    end: 0xb (valid) 0x3f5-0x3f5.7 (1)
     |                                               |                |            [6]{}: code 0x3f6-0x401.7 (12)
0x3f0|                  0b                           |      .         |              size: 11 0x3f6-0x3f6.7 (1)
     |                                               |                |              code{}: 0x3f7-0x401.7 (11)
     |                                               |                |                t{}: 0x3f7-0x3f7.7 (1)
0x3f0|                     00                        |       .        |                  n: 0 0x3f7-0x3f7.7 (1)
     |                                               |                |                  x[0:0]: 0x3f8-NA (0)
     |                                               |                |                e[0:4]: 0x3f8-0x401.7 (10)
     |                                               |                |                  [0]{}: in 0x3f8-0x3f9.7 (2)
0x3f0|                        20                     |                |                    local.get: 0x20 (valid) 0x3f8-0x3f8.7 (1)
0x3f0|                           00                  |         .      |                    x: 0 0x3f9-0x3f9.7 (1)
     |                                               |                |                  [1]{}: in 0x3fa-0x3fb.7 (2)
0x3f0|                              20               |                |                    local.get: 0x20 (valid) 0x3fa-0x3fa.7 (1)
0x3f0|                                 01            |           .    |                    x: 1 0x3fb-0x3fb.7 (1)
     |                                               |                |                  [2]{}: in 0x3fc-0x400.7 (5)
0x3f0|                                    fd         |            .   |                    prefix: 0xfd (valid) 0x3fc-0x3fc.7 (1)
0x3f0|                                       55      |             U  |                    v128.load16_lane: 85 (valid) 0x3fd-0x3fd.7 (1)
     |                                               |                |                    m{}: 0x3fe-0x3ff.7 (2)
0x3f0|                                          01   |              . |                      a: 1 0x3fe-0x3fe.7 (1)
0x3f0|                                             00|               .|                      o: 0 0x3ff-0x3ff.7 (1)
0x400|06                                             |.               |                    l: 6 0x400-0x400.7 (1)
     |                                               |                |                  [3]{}: in 0x401-0x401.7 (1)
0x400|   0b                                          | .              |                    end: 0xb (valid) 0x401-0x401.7 (1)
     |                                               |                |            [7]{}: code 0x402-0x40d.7 (12)
0x400|      0b                                       |  .             |              size: 11 0x402-0x402.7 (1)
     |                                               |                |              code{}: 0x403-0x40d.7 (11)
     |                                               |                |                t{}: 0x403-0x403.7 (1)
0x400|         00                                    |   .            |                  n: 0 0x403-0x403.7 (1)
     |                                               |                |                  x[0:0]: 0x404-NA (0)
     |                                               |                |                e[0:4]: 0x404-0x40d.7 (10)
     |                                               |                |                  [0]{}: in 0x404-0x405.7 (2)
0x400|            20                                 |                |                    local.get: 0x20 (valid) 0x404-0x404.7 (1)
0x400|               00                              |     .          |                    x: 0 0x405-0x405.7 (1)
     |                                               |                |                  [1]{}: in 0x406-0x407.7 (2)
0x400|                  20                           |                |                    local.get: 0x20 (valid) 0x406-0x406.7 (1)
0x400|                     01                        |       .        |                    x: 1 0x407-0x407.7 (1)
     |                                               |                |                  [2]{}: in 0x408-0x40c.7 (5)
0x400|                        fd                     |        .       |                    prefix: 0xfd (valid) 0x408-0x408.7 (1)
0x400|                           55                  |         U      |                    v128.load16_lane: 85 (valid) 0x409-0x409.7 (1)
     |                                               |                |                    m{}: 0x40a-0x40b.7 (2)
0x400|                              01               |          .     |                      a: 1 0x40a-0x40a.7 (1)
0x400|                                 00            |           .    |                      o: 0 0x40b-0x40b.7 (1)
0x400|                                    07         |            .   |                    l: 7 0x40c-0x40c.7 (1)
     |                                               |                |                  [3]{}: in 0x40d-0x40d.7 (1)
0x400|                                       0b      |             .  |                    end: 0xb (valid) 0x40d-0x40d.7 (1)
     |                                               |                |            [8]{}: code 0x40e-0x419.7 (12)
0x400|                                          0b   |              . |              size: 11 0x40e-0x40e.7 (1)
     |                                               |                |              code{}: 0x40f-0x419.7 (11)
     |                                               |                |                t{}: 0x40f-0x40f.7 (1)
0x400|                                             00|               .|                  n: 0 0x40f-0x40f.7 (1)
     |                                               |                |                  x[0:0]: 0x410-NA (0)
     |                                               |                |                e[0:4]: 0x410-0x419.7 (10)
     |                                               |                |                  [0]{}: in 0x410-0x411.7 (2)
0x410|41                                             |A               |                    i32.const: 0x41 (valid) 0x410-0x410.7 (1)
0x410|   00                                          | .              |                    n: 0 0x411-0x411.7 (1)
     |                                               |                |                  [1]{}: in 0x412-0x413.7 (2)
0x410|      20                                       |                |                    local.get: 0x20 (valid) 0x412-0x412.7 (1)
0x410|         00                                    |   .            |                    x: 0 0x413-0x413.7 (1)
     |                                               |                |                  [2]{}: in 0x414-0x418.7 (5)
0x410|            fd                                 |    .           |                    prefix: 0xfd (valid) 0x414-0x414.7 (1)
0x410|               55                              |     U          |                    v128.load16_lane: 85 (valid) 0x415-0x415.7 (1)
     |                                               |                |                    m{}: 0x416-0x417.7 (2)
0x410|                  01                           |      .         |                      a: 1 0x416-0x416.7 (1)
0x410|                     00                        |       .        |                      o: 0 0x417-0x417.7 (1)
0x410|                        00                     |        .       |                    l: 0 0x418-0x418.7 (1)
     |                                               |                |                  [3]{}: in 0x419-0x419.7 (1)
0x410|                           0b                  |         .      |                    end: 0xb (valid) 0x419-0x419.7 (1)
     |                                               |                |            [9]{}: code 0x41a-0x425.7 (12)
0x410|                              0b               |          .     |              size: 11 0x41a-0x41a.7 (1)
     |                                               |                |              code{}: 0x41b-0x425.7 (11)
     |                                               |                |                t{}: 0x41b-0x41b.7 (1)
0x410|                                 00            |           .    |                  n: 0 0x41b-0x41b.7 (1)
     |                                               |                |                  x[0:0]: 0x41c-NA (0)
     |                                               |                |                e[0:4]: 0x41c-0x425.7 (10)
     |                                               |                |                  [0]{}: in 0x41c-0x41d.7 (2)
0x410|                                    41         |            A   |                    i32.const: 0x41 (valid) 0x41c-0x41c.7 (1)
0x410|                                       00      |             .  |                    n: 0 0x41d-0x41d.7 (1)
     |                                               |                |                  [1]{}: in 0x41e-0x41f.7 (2)
0x410|                                          20   |                |                    local.get: 0x20 (valid) 0x41e-0x41e.7 (1)
0x410|                                             00|               .|                    x: 0 0x41f-0x41f.7 (1)
     |                                               |                |                  [2]{}: in 0x420-0x424.7 (5)
0x420|fd                                             |.               |                    prefix: 0xfd (valid) 0x420-0x420.7 (1)
0x420|   55                                          | U              |                    v128.load16_lane: 85 (valid) 0x421-0x421.7 (1)
     |                                               |                |                    m{}: 0x422-0x423.7 (2)
0x420|      01                                       |  .             |                      a: 1 0x422-0x422.7 (1)
0x420|         01                                    |   .            |                      o: 1 0x423-0x423.7 (1)
0x420|            01                                 |    .           |                    l: 1 0x424-0x424.7 (1)
     |                                               |                |                  [3]{}: in 0x425-0x425.7 (1)
0x420|               0b                              |     .          |                    end: 0xb (valid) 0x425-0x425.7 (1)
     |                                               |                |            [10]{}: code 0x426-0x431.7 (12)
0x420|                  0b                           |      .         |              size: 11 0x426-0x426.7 (1)
     |                                               |                |              code{}: 0x427-0x431.7 (11)
     |                                               |                |                t{}: 0x427-0x427.7 (1)
0x420|                     00                        |       .        |                  n: 0 0x427-0x427.7 (1)
     |                                               |                |                  x[0:0]: 0x428-NA (0)
     |                                               |                |                e[0:4]: 0x428-0x431.7 (10)
     |                                               |                |                  [0]{}: in 0x428-0x429.7 (2)
0x420|                        41                     |        A       |                    i32.const: 0x41 (valid) 0x428-0x428.7 (1)
0x420|                           00                  |         .      |                    n: 0 0x429-0x429.7 (1)
     |                                               |                |                  [1]{}: in 0x42a-0x42b.7 (2)
0x420|                              20               |                |                    local.get: 0x20 (valid) 0x42a-0x42a.7 (1)
0x420|                                 00            |           .    |                    x: 0 0x42b-0x42b.7 (1)
     |                                               |                |                  [2]{}: in 0x42c-0x430.7 (5)
0x420|                                    fd         |            .   |                    prefix: 0xfd (valid) 0x42c-0x42c.7 (1)
0x420|                                       55      |             U  |                    v128.load16_lane: 85 (valid) 0x42d-0x42d.7 (1)
     |                                               |                |                    m{}: 0x42e-0x42f.7 (2)
0x420|                                          01   |              . |                      a: 1 0x42e-0x42e.7 (1)
0x420|                                             02|               .|                      o: 2 0x42f-0x42f.7 (1)
0x430|02                                             |.               |                    l: 2 0x430-0x430.7 (1)
     |                                               |                |                  [3]{}: in 0x431-0x431.7 (1)
0x430|   0b                                          | .              |                    end: 0xb (valid) 0x431-0x431.7 (1)
     |                                               |                |            [11]{}: code 0x432-0x43d.7 (12)
0x430|      0b                                       |  .             |              size: 11 0x432-0x432.7 (1)
     |                                               |                |              code{}: 0x433-0x43d.7 (11)
     |                                               |                |                t{}: 0x433-0x433.7 (1)
0x430|         00                                    |   .            |                  n: 0 0x433-0x433.7 (1)
     |                                               |                |                  x[0:0]: 0x434-NA (0)
     |                                               |                |                e[0:4]: 0x434-0x43d.7 (10)
     |                                               |                |                  [0]{}: in 0x434-0x435.7 (2)
0x430|            41                                 |    A           |                    i32.const: 0x41 (valid) 0x434-0x434.7 (1)
0x430|               00                              |     .          |                    n: 0 0x435-0x435.7 (1)
     |                                               |                |                  [1]{}: in 0x436-0x437.7 (2)
0x430|                  20                           |                |                    local.get: 0x20 (valid) 0x436-0x436.7 (1)
0x430|                     00                        |       .        |                    x: 0 0x437-0x437.7 (1)
     |                                               |                |                  [2]{}: in 0x438-0x43c.7 (5)
0x430|                        fd                     |        .       |                    prefix: 0xfd (valid) 0x438-0x438.7 (1)
0x430|                           55                  |         U      |                    v128.load16_lane: 85 (valid) 0x439-0x439.7 (1)
     |                                               |                |                    m{}: 0x43a-0x43b.7 (2)
0x430|                              01               |          .     |                      a: 1 0x43a-0x43a.7 (1)
0x430|                                 03            |           .    |                      o: 3 0x43b-0x43b.7 (1)
0x430|                                    03         |            .   |                    l: 3 0x43c-0x43c.7 (1)
     |                                               |                |                  [3]{}: in 0x43d-0x43d.7 (1)
0x430|                                       0b      |             .  |                    end: 0xb (valid) 0x43d-0x43d.7 (1)
     |                                               |                |            [12]{}: code 0x43e-0x449.7 (12)
0x430|                                          0b   |              . |              size: 11 0x43e-0x43e.7 (1)
     |                                               |                |              code{}: 0x43f-0x449.7 (11)
     |                                               |                |                t{}: 0x43f-0x43f.7 (1)
0x430|                                             00|               .|                  n: 0 0x43f-0x43f.7 (1)
     |                                               |                |                  x[0:0]: 0x440-NA (0)
     |                                               |                |                e[0:4]: 0x440-0x449.7 (10)
     |                                               |                |                  [0]{}: in 0x440-0x441.7 (2)
0x440|41                                             |A               |                    i32.const: 0x41 (valid) 0x440-0x440.7 (1)
0x440|   00                                          | .              |                    n: 0 0x441-0x441.7 (1)
     |                                               |                |                  [1]{}: in 0x442-0x443.7 (2)
0x440|      20                                       |                |                    local.get: 0x20 (valid) 0x442-0x442.7 (1)
0x440|         00                                    |   .            |                    x: 0 0x443-0x443.7 (1)
     |                                               |                |                  [2]{}: in 0x444-0x448.7 (5)
0x440|            fd                                 |    .           |                    prefix: 0xfd (valid) 0x444-0x444.7 (1)
0x440|               55                              |     U          |                    v128.load16_lane: 85 (valid) 0x445-0x445.7 (1)
     |                                               |                |                    m{}: 0x446-0x447.7 (2)
0x440|                  01                           |      .         |                      a: 1 0x446-0x446.7 (1)
0x440|                     04                        |       .        |                      o: 4 0x447-0x447.7 (1)
0x440|                        04                     |        .       |                    l: 4 0x448-0x448.7 (1)
     |                                               |                |                  [3]{}: in 0x449-0x449.7 (1)
0x440|                           0b                  |         .      |                    end: 0xb (valid) 0x449-0x449.7 (1)
     |                                               |                |            [13]{}: code 0x44a-0x455.7 (12)
0x440|                              0b               |          .     |              size: 11 0x44a-0x44a.7 (1)
     |                                               |                |              code{}: 0x44b-0x455.7 (11)
     |                                               |                |                t{}: 0x44b-0x44b.7 (1)
0x440|                                 00            |           .    |                  n: 0 0x44b-0x44b.7 (1)
     |                                               |                |                  x[0:0]: 0x44c-NA (0)
     |                                               |                |                e[0:4]: 0x44c-0x455.7 (10)
     |                                               |                |                  [0]{}: in 0x44c-0x44d.7 (2)
0x440|                                    41         |            A   |                    i32.const: 0x41 (valid) 0x44c-0x44c.7 (1)
0x440|                                       00      |             .  |                    n: 0 0x44d-0x44d.7 (1)
     |                                               |                |                  [1]{}: in 0x44e-0x44f.7 (2)
0x440|                                          20   |                |                    local.get: 0x20 (valid) 0x44e-0x44e.7 (1)
0x440|                                             00|               .|                    x: 0 0x44f-0x44f.7 (1)
     |                                               |                |                  [2]{}: in 0x450-0x454.7 (5)
0x450|fd                                             |.               |                    prefix: 0xfd (valid) 0x450-0x450.7 (1)
0x450|   55                                          | U              |                    v128.load16_lane: 85 (valid) 0x451-0x451.7 (1)
     |                                               |                |                    m{}: 0x452-0x453.7 (2)
0x450|      01                                       |  .             |                      a: 1 0x452-0x452.7 (1)
0x450|         05                                    |   .            |                      o: 5 0x453-0x453.7 (1)
0x450|            05                                 |    .           |                    l: 5 0x454-0x454.7 (1)
     |                                               |                |                  [3]{}: in 0x455-0x455.7 (1)
0x450|               0b                              |     .          |                    end: 0xb (valid) 0x455-0x455.7 (1)
     |                                               |                |            [14]{}: code 0x456-0x461.7 (12)
0x450|                  0b                           |      .         |              size: 11 0x456-0x456.7 (1)
     |                                               |                |              code{}: 0x457-0x461.7 (11)
     |                                               |                |                t{}: 0x457-0x457.7 (1)
0x450|                     00                        |       .        |                  n: 0 0x457-0x457.7 (1)
     |                                               |                |                  x[0:0]: 0x458-NA (0)
     |                                               |                |                e[0:4]: 0x458-0x461.7 (10)
     |                                               |                |                  [0]{}: in 0x458-0x459.7 (2)
0x450|                        41                     |        A       |                    i32.const: 0x41 (valid) 0x458-0x458.7 (1)
0x450|                           00                  |         .      |                    n: 0 0x459-0x459.7 (1)
     |                                               |                |                  [1]{}: in 0x45a-0x45b.7 (2)
0x450|                              20               |                |                    local.get: 0x20 (valid) 0x45a-0x45a.7 (1)
0x450|                                 00            |           .    |                    x: 0 0x45b-0x45b.7 (1)
     |                                               |                |                  [2]{}: in 0x45c-0x460.7 (5)
0x450|                                    fd         |            .   |                    prefix: 0xfd (valid) 0x45c-0x45c.7 (1)
0x450|                                       55      |             U  |                    v128.load16_lane: 85 (valid) 0x45d-0x45d.7 (1)
     |                                               |                |                    m{}: 0x45e-0x45f.7 (2)
0x450|                                          01   |              . |                      a: 1 0x45e-0x45e.7 (1)
0x450|                                             06|               .|                      o: 6 0x45f-0x45f.7 (1)
0x460|06                                             |.               |                    l: 6 0x460-0x460.7 (1)
     |                                               |                |                  [3]{}: in 0x461-0x461.7 (1)
0x460|   0b                                          | .              |                    end: 0xb (valid) 0x461-0x461.7 (1)
     |                                               |                |            [15]{}: code 0x462-0x46d.7 (12)
0x460|      0b                                       |  .             |              size: 11 0x462-0x462.7 (1)
     |                                               |                |              code{}: 0x463-0x46d.7 (11)
     |                                               |                |                t{}: 0x463-0x463.7 (1)
0x460|         00                                    |   .            |                  n: 0 0x463-0x463.7 (1)
     |                                               |                |                  x[0:0]: 0x464-NA (0)
     |                                               |                |                e[0:4]: 0x464-0x46d.7 (10)
     |                                               |                |                  [0]{}: in 0x464-0x465.7 (2)
0x460|            41                                 |    A           |                    i32.const: 0x41 (valid) 0x464-0x464.7 (1)
0x460|               00                              |     .          |                    n: 0 0x465-0x465.7 (1)
     |                                               |                |                  [1]{}: in 0x466-0x467.7 (2)
0x460|                  20                           |                |                    local.get: 0x20 (valid) 0x466-0x466.7 (1)
0x460|                     00                        |       .        |                    x: 0 0x467-0x467.7 (1)
     |                                               |                |                  [2]{}: in 0x468-0x46c.7 (5)
0x460|                        fd                     |        .       |                    prefix: 0xfd (valid) 0x468-0x468.7 (1)
0x460|                           55                  |         U      |                    v128.load16_lane: 85 (valid) 0x469-0x469.7 (1)
     |                                               |                |                    m{}: 0x46a-0x46b.7 (2)
0x460|                              01               |          .     |                      a: 1 0x46a-0x46a.7 (1)
0x460|                                 07            |           .    |                      o: 7 0x46b-0x46b.7 (1)
0x460|                                    07         |            .   |                    l: 7 0x46c-0x46c.7 (1)
     |                                               |                |                  [3]{}: in 0x46d-0x46d.7 (1)
0x460|                                       0b      |             .  |                    end: 0xb (valid) 0x46d-0x46d.7 (1)
     |                                               |                |            [16]{}: code 0x46e-0x479.7 (12)
0x460|                                          0b   |              . |              size: 11 0x46e-0x46e.7 (1)
     |                                               |                |              code{}: 0x46f-0x479.7 (11)
     |                                               |                |                t{}: 0x46f-0x46f.7 (1)
0x460|                                             00|               .|                  n: 0 0x46f-0x46f.7 (1)
     |                                               |                |                  x[0:0]: 0x470-NA (0)
     |                                               |                |                e[0:4]: 0x470-0x479.7 (10)
     |                                               |                |                  [0]{}: in 0x470-0x471.7 (2)
0x470|20                                             |                |                    local.get: 0x20 (valid) 0x470-0x470.7 (1)
0x470|   00                                          | .              |                    x: 0 0x471-0x471.7 (1)
     |                                               |                |                  [1]{}: in 0x472-0x473.7 (2)
0x470|      20                                       |                |                    local.get: 0x20 (valid) 0x472-0x472.7 (1)
0x470|         01                                    |   .            |                    x: 1 0x473-0x473.7 (1)
     |                                               |                |                  [2]{}: in 0x474-0x478.7 (5)
0x470|            fd                                 |    .           |                    prefix: 0xfd (valid) 0x474-0x474.7 (1)
0x470|               55                              |     U          |                    v128.load16_lane: 85 (valid) 0x475-0x475.7 (1)
     |                                               |                |                    m{}: 0x476-0x477.7 (2)
0x470|                  00                           |      .         |                      a: 0 0x476-0x476.7 (1)
0x470|                     00                        |       .        |                      o: 0 0x477-0x477.7 (1)
0x470|                        00                     |        .       |                    l: 0 0x478-0x478.7 (1)
     |                                               |                |                  [3]{}: in 0x479-0x479.7 (1)
0x470|                           0b                  |         .      |                    end: 0xb (valid) 0x479-0x479.7 (1)
     |                                               |                |            [17]{}: code 0x47a-0x485.7 (12)
0x470|                              0b               |          .     |              size: 11 0x47a-0x47a.7 (1)
     |                                               |                |              code{}: 0x47b-0x485.7 (11)
     |                                               |                |                t{}: 0x47b-0x47b.7 (1)
0x470|                                 00            |           .    |                  n: 0 0x47b-0x47b.7 (1)
     |                                               |                |                  x[0:0]: 0x47c-NA (0)
     |                                               |                |                e[0:4]: 0x47c-0x485.7 (10)
     |                                               |                |                  [0]{}: in 0x47c-0x47d.7 (2)
0x470|                                    20         |                |                    local.get: 0x20 (valid) 0x47c-0x47c.7 (1)
0x470|                                       00      |             .  |                    x: 0 0x47d-0x47d.7 (1)
     |                                               |                |                  [1]{}: in 0x47e-0x47f.7 (2)
0x470|                                          20   |                |                    local.get: 0x20 (valid) 0x47e-0x47e.7 (1)
0x470|                                             01|               .|                    x: 1 0x47f-0x47f.7 (1)
     |                                               |                |                  [2]{}: in 0x480-0x484.7 (5)
0x480|fd                                             |.               |                    prefix: 0xfd (valid) 0x480-0x480.7 (1)
0x480|   55                                          | U              |                    v128.load16_lane: 85 (valid) 0x481-0x481.7 (1)
     |                                               |                |                    m{}: 0x482-0x483.7 (2)
0x480|      01                                       |  .             |                      a: 1 0x482-0x482.7 (1)
0x480|         00                                    |   .            |                      o: 0 0x483-0x483.7 (1)
0x480|            00                                 |    .           |                    l: 0 0x484-0x484.7 (1)
     |                                               |                |                  [3]{}: in 0x485-0x485.7 (1)
0x480|               0b                              |     .          |                    end: 0xb (valid) 0x485-0x485.7 (1)
     |                                               |                |            [18]{}: code 0x486-0x491.7 (12)
0x480|                  0b                           |      .         |              size: 11 0x486-0x486.7 (1)
     |                                               |                |              code{}: 0x487-0x491.7 (11)
     |                                               |                |                t{}: 0x487-0x487.7 (1)
0x480|                     00                        |       .        |                  n: 0 0x487-0x487.7 (1)
     |                                               |                |                  x[0:0]: 0x488-NA (0)
     |                                               |                |                e[0:4]: 0x488-0x491.7 (10)
     |                                               |                |                  [0]{}: in 0x488-0x489.7 (2)
0x480|                        20                     |                |                    local.get: 0x20 (valid) 0x488-0x488.7 (1)
0x480|                           00                  |         .      |                    x: 0 0x489-0x489.7 (1)
     |                                               |                |                  [1]{}: in 0x48a-0x48b.7 (2)
0x480|                              20               |                |                    local.get: 0x20 (valid) 0x48a-0x48a.7 (1)
0x480|                                 01            |           .    |                    x: 1 0x48b-0x48b.7 (1)
     |                                               |                |                  [2]{}: in 0x48c-0x490.7 (5)
0x480|                                    fd         |            .   |                    prefix: 0xfd (valid) 0x48c-0x48c.7 (1)
0x480|                                       55      |             U  |                    v128.load16_lane: 85 (valid) 0x48d-0x48d.7 (1)
     |                                               |                |                    m{}: 0x48e-0x48f.7 (2)
0x480|                                          00   |              . |                      a: 0 0x48e-0x48e.7 (1)
0x480|                                             00|               .|                      o: 0 0x48f-0x48f.7 (1)
0x490|01                                             |.               |                    l: 1 0x490-0x490.7 (1)
     |                                               |                |                  [3]{}: in 0x491-0x491.7 (1)
0x490|   0b                                          | .              |                    end: 0xb (valid) 0x491-0x491.7 (1)
     |                                               |                |            [19]{}: code 0x492-0x49d.7 (12)
0x490|      0b                                       |  .             |              size: 11 0x492-0x492.7 (1)
     |                                               |                |              code{}: 0x493-0x49d.7 (11)
     |                                               |                |                t{}: 0x493-0x493.7 (1)
0x490|         00                                    |   .            |                  n: 0 0x493-0x493.7 (1)
     |                                               |                |                  x[0:0]: 0x494-NA (0)
     |                                               |                |                e[0:4]: 0x494-0x49d.7 (10)
     |                                               |                |                  [0]{}: in 0x494-0x495.7 (2)
0x490|            20                                 |                |                    local.get: 0x20 (valid) 0x494-0x494.7 (1)
0x490|               00                              |     .          |                    x: 0 0x495-0x495.7 (1)
     |                                               |                |                  [1]{}: in 0x496-0x497.7 (2)
0x490|                  20                           |                |                    local.get: 0x20 (valid) 0x496-0x496.7 (1)
0x490|                     01                        |       .        |                    x: 1 0x497-0x497.7 (1)
     |                                               |                |                  [2]{}: in 0x498-0x49c.7 (5)
0x490|                        fd                     |        .       |                    prefix: 0xfd (valid) 0x498-0x498.7 (1)
0x490|                           55                  |         U      |                    v128.load16_lane: 85 (valid) 0x499-0x499.7 (1)
     |                                               |                |                    m{}: 0x49a-0x49b.7 (2)
0x490|                              01               |          .     |                      a: 1 0x49a-0x49a.7 (1)
0x490|                                 00            |           .    |                      o: 0 0x49b-0x49b.7 (1)
0x490|                                    01         |            .   |                    l: 1 0x49c-0x49c.7 (1)
     |                                               |                |                  [3]{}: in 0x49d-0x49d.7 (1)
0x490|                                       0b      |             .  |                    end: 0xb (valid) 0x49d-0x49d.7 (1)
     |                                               |                |            [20]{}: code 0x49e-0x4a9.7 (12)
0x490|                                          0b   |              . |              size: 11 0x49e-0x49e.7 (1)
     |                                               |                |              code{}: 0x49f-0x4a9.7 (11)
     |                                               |                |                t{}: 0x49f-0x49f.7 (1)
0x490|                                             00|               .|                  n: 0 0x49f-0x49f.7 (1)
     |                                               |                |                  x[0:0]: 0x4a0-NA (0)
     |                                               |                |                e[0:4]: 0x4a0-0x4a9.7 (10)
     |                                               |                |                  [0]{}: in 0x4a0-0x4a1.7 (2)
0x4a0|20                                             |                |                    local.get: 0x20 (valid) 0x4a0-0x4a0.7 (1)
0x4a0|   00                                          | .              |                    x: 0 0x4a1-0x4a1.7 (1)
     |                                               |                |                  [1]{}: in 0x4a2-0x4a3.7 (2)
0x4a0|      20                                       |                |                    local.get: 0x20 (valid) 0x4a2-0x4a2.7 (1)
0x4a0|         01                                    |   .            |                    x: 1 0x4a3-0x4a3.7 (1)
     |                                               |                |                  [2]{}: in 0x4a4-0x4a8.7 (5)
0x4a0|            fd                                 |    .           |                    prefix: 0xfd (valid) 0x4a4-0x4a4.7 (1)
0x4a0|               55                              |     U          |                    v128.load16_lane: 85 (valid) 0x4a5-0x4a5.7 (1)
     |                                               |                |                    m{}: 0x4a6-0x4a7.7 (2)
0x4a0|                  00                           |      .         |                      a: 0 0x4a6-0x4a6.7 (1)
0x4a0|                     00                        |       .        |                      o: 0 0x4a7-0x4a7.7 (1)
0x4a0|                        02                     |        .       |                    l: 2 0x4a8-0x4a8.7 (1)
     |                                               |                |                  [3]{}: in 0x4a9-0x4a9.7 (1)
0x4a0|                           0b                  |         .      |                    end: 0xb (valid) 0x4a9-0x4a9.7 (1)
     |                                               |                |            [21]{}: code 0x4aa-0x4b5.7 (12)
0x4a0|                              0b               |          .     |              size: 11 0x4aa-0x4aa.7 (1)
     |                                               |                |              code{}: 0x4ab-0x4b5.7 (11)
     |                                               |                |                t{}: 0x4ab-0x4ab.7 (1)
0x4a0|                                 00            |           .    |                  n: 0 0x4ab-0x4ab.7 (1)
     |                                               |                |                  x[0:0]: 0x4ac-NA (0)
     |                                               |                |                e[0:4]: 0x4ac-0x4b5.7 (10)
     |                                               |                |                  [0]{}: in 0x4ac-0x4ad.7 (2)
0x4a0|                                    20         |                |                    local.get: 0x20 (valid) 0x4ac-0x4ac.7 (1)
0x4a0|                                       00      |             .  |                    x: 0 0x4ad-0x4ad.7 (1)
     |                                               |                |                  [1]{}: in 0x4ae-0x4af.7 (2)
0x4a0|                                          20   |                |                    local.get: 0x20 (valid) 0x4ae-0x4ae.7 (1)
0x4a0|                                             01|               .|                    x: 1 0x4af-0x4af.7 (1)
     |                                               |                |                  [2]{}: in 0x4b0-0x4b4.7 (5)
0x4b0|fd                                             |.               |                    prefix: 0xfd (valid) 0x4b0-0x4b0.7 (1)
0x4b0|   55                                          | U              |                    v128.load16_lane: 85 (valid) 0x4b1-0x4b1.7 (1)
     |                                               |                |                    m{}: 0x4b2-0x4b3.7 (2)
0x4b0|      01                                       |  .             |                      a: 1 0x4b2-0x4b2.7 (1)
0x4b0|         00                                    |   .            |                      o: 0 0x4b3-0x4b3.7 (1)
0x4b0|            02                                 |    .           |                    l: 2 0x4b4-0x4b4.7 (1)
     |                                               |                |                  [3]{}: in 0x4b5-0x4b5.7 (1)
0x4b0|               0b                              |     .          |                    end: 0xb (valid) 0x4b5-0x4b5.7 (1)
     |                                               |                |            [22]{}: code 0x4b6-0x4c1.7 (12)
0x4b0|                  0b                           |      .         |              size: 11 0x4b6-0x4b6.7 (1)
     |                                               |                |              code{}: 0x4b7-0x4c1.7 (11)
     |                                               |                |                t{}: 0x4b7-0x4b7.7 (1)
0x4b0|                     00                        |       .        |                  n: 0 0x4b7-0x4b7.7 (1)
     |                                               |                |                  x[0:0]: 0x4b8-NA (0)
     |                                               |                |                e[0:4]: 0x4b8-0x4c1.7 (10)
     |                                               |                |                  [0]{}: in 0x4b8-0x4b9.7 (2)
0x4b0|                        20                     |                |                    local.get: 0x20 (valid) 0x4b8-0x4b8.7 (1)
0x4b0|                           00                  |         .      |                    x: 0 0x4b9-0x4b9.7 (1)
     |                                               |                |                  [1]{}: in 0x4ba-0x4bb.7 (2)
0x4b0|                              20               |                |                    local.get: 0x20 (valid) 0x4ba-0x4ba.7 (1)
0x4b0|                                 01            |           .    |                    x: 1 0x4bb-0x4bb.7 (1)
     |                                               |                |                  [2]{}: in 0x4bc-0x4c0.7 (5)
0x4b0|                                    fd         |            .   |                    prefix: 0xfd (valid) 0x4bc-0x4bc.7 (1)
0x4b0|                                       55      |             U  |                    v128.load16_lane: 85 (valid) 0x4bd-0x4bd.7 (1)
     |                                               |                |                    m{}: 0x4be-0x4bf.7 (2)
0x4b0|                                          00   |              . |                      a: 0 0x4be-0x4be.7 (1)
0x4b0|                                             00|               .|                      o: 0 0x4bf-0x4bf.7 (1)
0x4c0|03                                             |.               |                    l: 3 0x4c0-0x4c0.7 (1)
     |                                               |                |                  [3]{}: in 0x4c1-0x4c1.7 (1)
0x4c0|   0b                                          | .              |                    end: 0xb (valid) 0x4c1-0x4c1.7 (1)
     |                                               |                |            [23]{}: code 0x4c2-0x4cd.7 (12)
0x4c0|      0b                                       |  .             |              size: 11 0x4c2-0x4c2.7 (1)
     |                                               |                |              code{}: 0x4c3-0x4cd.7 (11)
     |                                               |                |                t{}: 0x4c3-0x4c3.7 (1)
0x4c0|         00                                    |   .            |                  n: 0 0x4c3-0x4c3.7 (1)
     |                                               |                |                  x[0:0]: 0x4c4-NA (0)
     |                                               |                |                e[0:4]: 0x4c4-0x4cd.7 (10)
     |                                               |                |                  [0]{}: in 0x4c4-0x4c5.7 (2)
0x4c0|            20                                 |                |                    local.get: 0x20 (valid) 0x4c4-0x4c4.7 (1)
0x4c0|               00                              |     .          |                    x: 0 0x4c5-0x4c5.7 (1)
     |                                               |                |                  [1]{}: in 0x4c6-0x4c7.7 (2)
0x4c0|                  20                           |                |                    local.get: 0x20 (valid) 0x4c6-0x4c6.7 (1)
0x4c0|                     01                        |       .        |                    x: 1 0x4c7-0x4c7.7 (1)
     |                                               |                |                  [2]{}: in 0x4c8-0x4cc.7 (5)
0x4c0|                        fd                     |        .       |                    prefix: 0xfd (valid) 0x4c8-0x4c8.7 (1)
0x4c0|                           55                  |         U      |                    v128.load16_lane: 85 (valid) 0x4c9-0x4c9.7 (1)
     |                                               |                |                    m{}: 0x4ca-0x4cb.7 (2)
0x4c0|                              01               |          .     |                      a: 1 0x4ca-0x4ca.7 (1)
0x4c0|                                 00            |           .    |                      o: 0 0x4cb-0x4cb.7 (1)
0x4c0|                                    03         |            .   |                    l: 3 0x4cc-0x4cc.7 (1)
     |                                               |                |                  [3]{}: in 0x4cd-0x4cd.7 (1)
0x4c0|                                       0b      |             .  |                    end: 0xb (valid) 0x4cd-0x4cd.7 (1)
     |                                               |                |            [24]{}: code 0x4ce-0x4d9.7 (12)
0x4c0|                                          0b   |              . |              size: 11 0x4ce-0x4ce.7 (1)
     |                                               |                |              code{}: 0x4cf-0x4d9.7 (11)
     |                                               |                |                t{}: 0x4cf-0x4cf.7 (1)
0x4c0|                                             00|               .|                  n: 0 0x4cf-0x4cf.7 (1)
     |                                               |                |                  x[0:0]: 0x4d0-NA (0)
     |                                               |                |                e[0:4]: 0x4d0-0x4d9.7 (10)
     |                                               |                |                  [0]{}: in 0x4d0-0x4d1.7 (2)
0x4d0|20                                             |                |                    local.get: 0x20 (valid) 0x4d0-0x4d0.7 (1)
0x4d0|   00                                          | .              |                    x: 0 0x4d1-0x4d1.7 (1)
     |                                               |                |                  [1]{}: in 0x4d2-0x4d3.7 (2)
0x4d0|      20                                       |                |                    local.get: 0x20 (valid) 0x4d2-0x4d2.7 (1)
0x4d0|         01                                    |   .            |                    x: 1 0x4d3-0x4d3.7 (1)
     |                                               |                |                  [2]{}: in 0x4d4-0x4d8.7 (5)
0x4d0|            fd                                 |    .           |                    prefix: 0xfd (valid) 0x4d4-0x4d4.7 (1)
0x4d0|               55                              |     U          |                    v128.load16_lane: 85 (valid) 0x4d5-0x4d5.7 (1)
     |                                               |                |                    m{}: 0x4d6-0x4d7.7 (2)
0x4d0|                  00                           |      .         |                      a: 0 0x4d6-0x4d6.7 (1)
0x4d0|                     00                        |       .        |                      o: 0 0x4d7-0x4d7.7 (1)
0x4d0|                        04                     |        .       |                    l: 4 0x4d8-0x4d8.7 (1)
     |                                               |                |                  [3]{}: in 0x4d9-0x4d9.7 (1)
0x4d0|                           0b                  |         .      |                    end: 0xb (valid) 0x4d9-0x4d9.7 (1)
     |                                               |                |            [25]{}: code 0x4da-0x4e5.7 (12)
0x4d0|                              0b               |          .     |              size: 11 0x4da-0x4da.7 (1)
     |                                               |                |              code{}: 0x4db-0x4e5.7 (11)
     |                                               |                |                t{}: 0x4db-0x4db.7 (1)
0x4d0|                                 00            |           .    |                  n: 0 0x4db-0x4db.7 (1)
     |                                               |                |                  x[0:0]: 0x4dc-NA (0)
     |                                               |                |                e[0:4]: 0x4dc-0x4e5.7 (10)
     |                                               |                |                  [0]{}: in 0x4dc-0x4dd.7 (2)
0x4d0|                                    20         |                |                    local.get: 0x20 (valid) 0x4dc-0x4dc.7 (1)
0x4d0|                                       00      |             .  |                    x: 0 0x4dd-0x4dd.7 (1)
     |                                               |                |                  [1]{}: in 0x4de-0x4df.7 (2)
0x4d0|                                          20   |                |                    local.get: 0x20 (valid) 0x4de-0x4de.7 (1)
0x4d0|                                             01|               .|                    x: 1 0x4df-0x4df.7 (1)
     |                                               |                |                  [2]{}: in 0x4e0-0x4e4.7 (5)
0x4e0|fd                                             |.               |                    prefix: 0xfd (valid) 0x4e0-0x4e0.7 (1)
0x4e0|   55                                          | U              |                    v128.load16_lane: 85 (valid) 0x4e1-0x4e1.7 (1)
     |                                               |                |                    m{}: 0x4e2-0x4e3.7 (2)
0x4e0|      01                                       |  .             |                      a: 1 0x4e2-0x4e2.7 (1)
0x4e0|         00                                    |   .            |                      o: 0 0x4e3-0x4e3.7 (1)
0x4e0|            04                                 |    .           |                    l: 4 0x4e4-0x4e4.7 (1)
     |                                               |                |                  [3]{}: in 0x4e5-0x4e5.7 (1)
0x4e0|               0b                              |     .          |                    end: 0xb (valid) 0x4e5-0x4e5.7 (1)
     |                                               |                |            [26]{}: code 0x4e6-0x4f1.7 (12)
0x4e0|                  0b                           |      .         |              size: 11 0x4e6-0x4e6.7 (1)
     |                                               |                |              code{}: 0x4e7-0x4f1.7 (11)
     |                                               |                |                t{}: 0x4e7-0x4e7.7 (1)
0x4e0|                     00                        |       .        |                  n: 0 0x4e7-0x4e7.7 (1)
     |                                               |                |                  x[0:0]: 0x4e8-NA (0)
     |                                               |                |                e[0:4]: 0x4e8-0x4f1.7 (10)
     |                                               |                |                  [0]{}: in 0x4e8-0x4e9.7 (2)
0x4e0|                        20                     |                |                    local.get: 0x20 (valid) 0x4e8-0x4e8.7 (1)
0x4e0|                           00                  |         .      |                    x: 0 0x4e9-0x4e9.7 (1)
     |                                               |                |                  [1]{}: in 0x4ea-0x4eb.7 (2)
0x4e0|                              20               |                |                    local.get: 0x20 (valid) 0x4ea-0x4ea.7 (1)
0x4e0|                                 01            |           .    |                    x: 1 0x4eb-0x4eb.7 (1)
     |                                               |                |                  [2]{}: in 0x4ec-0x4f0.7 (5)
0x4e0|                                    fd         |            .   |                    prefix: 0xfd (valid) 0x4ec-0x4ec.7 (1)
0x4e0|                                       55      |             U  |                    v128.load16_lane: 85 (valid) 0x4ed-0x4ed.7 (1)
     |                                               |                |                    m{}: 0x4ee-0x4ef.7 (2)
0x4e0|                                          00   |              . |                      a: 0 0x4ee-0x4ee.7 (1)
0x4e0|                                             00|               .|                      o: 0 0x4ef-0x4ef.7 (1)
0x4f0|05                                             |.               |                    l: 5 0x4f0-0x4f0.7 (1)
     |                                               |                |                  [3]{}: in 0x4f1-0x4f1.7 (1)
0x4f0|   0b                                          | .              |                    end: 0xb (valid) 0x4f1-0x4f1.7 (1)
     |                                               |                |            [27]{}: code 0x4f2-0x4fd.7 (12)
0x4f0|      0b                                       |  .             |              size: 11 0x4f2-0x4f2.7 (1)
     |                                               |                |              code{}: 0x4f3-0x4fd.7 (11)
     |                                               |                |                t{}: 0x4f3-0x4f3.7 (1)
0x4f0|         00                                    |   .            |                  n: 0 0x4f3-0x4f3.7 (1)
     |                                               |                |                  x[0:0]: 0x4f4-NA (0)
     |                                               |                |                e[0:4]: 0x4f4-0x4fd.7 (10)
     |                                               |                |                  [0]{}: in 0x4f4-0x4f5.7 (2)
0x4f0|            20                                 |                |                    local.get: 0x20 (valid) 0x4f4-0x4f4.7 (1)
0x4f0|               00                              |     .          |                    x: 0 0x4f5-0x4f5.7 (1)
     |                                               |                |                  [1]{}: in 0x4f6-0x4f7.7 (2)
0x4f0|                  20                           |                |                    local.get: 0x20 (valid) 0x4f6-0x4f6.7 (1)
0x4f0|                     01                        |       .        |                    x: 1 0x4f7-0x4f7.7 (1)
     |                                               |                |                  [2]{}: in 0x4f8-0x4fc.7 (5)
0x4f0|                        fd                     |        .       |                    prefix: 0xfd (valid) 0x4f8-0x4f8.7 (1)
0x4f0|                           55                  |         U      |                    v128.load16_lane: 85 (valid) 0x4f9-0x4f9.7 (1)
     |                                               |                |                    m{}: 0x4fa-0x4fb.7 (2)
0x4f0|                              01               |          .     |                      a: 1 0x4fa-0x4fa.7 (1)
0x4f0|                                 00            |           .    |                      o: 0 0x4fb-0x4fb.7 (1)
0x4f0|                                    05         |            .   |                    l: 5 0x4fc-0x4fc.7 (1)
     |                                               |                |                  [3]{}: in 0x4fd-0x4fd.7 (1)
0x4f0|                                       0b      |             .  |                    end: 0xb (valid) 0x4fd-0x4fd.7 (1)
     |                                               |                |            [28]{}: code 0x4fe-0x509.7 (12)
0x4f0|                                          0b   |              . |              size: 11 0x4fe-0x4fe.7 (1)
     |                                               |                |              code{}: 0x4ff-0x509.7 (11)
     |                                               |                |                t{}: 0x4ff-0x4ff.7 (1)
0x4f0|                                             00|               .|                  n: 0 0x4ff-0x4ff.7 (1)
     |                                               |                |                  x[0:0]: 0x500-NA (0)
     |                                               |                |                e[0:4]: 0x500-0x509.7 (10)
     |                                               |                |                  [0]{}: in 0x500-0x501.7 (2)
0x500|20                                             |                |                    local.get: 0x20 (valid) 0x500-0x500.7 (1)
0x500|   00                                          | .              |                    x: 0 0x501-0x501.7 (1)
     |                                               |                |                  [1]{}: in 0x502-0x503.7 (2)
0x500|      20                                       |                |                    local.get: 0x20 (valid) 0x502-0x502.7 (1)
0x500|         01                                    |   .            |                    x: 1 0x503-0x503.7 (1)
     |                                               |                |                  [2]{}: in 0x504-0x508.7 (5)
0x500|            fd                                 |    .           |                    prefix: 0xfd (valid) 0x504-0x504.7 (1)
0x500|               55                              |     U          |                    v128.load16_lane: 85 (valid) 0x505-0x505.7 (1)
     |                                               |                |                    m{}: 0x506-0x507.7 (2)
0x500|                  00                           |      .         |                      a: 0 0x506-0x506.7 (1)
0x500|                     00                        |       .        |                      o: 0 0x507-0x507.7 (1)
0x500|                        06                     |        .       |                    l: 6 0x508-0x508.7 (1)
     |                                               |                |                  [3]{}: in 0x509-0x509.7 (1)
0x500|                           0b                  |         .      |                    end: 0xb (valid) 0x509-0x509.7 (1)
     |                                               |                |            [29]{}: code 0x50a-0x515.7 (12)
0x500|                              0b               |          .     |              size: 11 0x50a-0x50a.7 (1)
     |                                               |                |              code{}: 0x50b-0x515.7 (11)
     |                                               |                |                t{}: 0x50b-0x50b.7 (1)
0x500|                                 00            |           .    |                  n: 0 0x50b-0x50b.7 (1)
     |                                               |                |                  x[0:0]: 0x50c-NA (0)
     |                                               |                |                e[0:4]: 0x50c-0x515.7 (10)
     |                                               |                |                  [0]{}: in 0x50c-0x50d.7 (2)
0x500|                                    20         |                |                    local.get: 0x20 (valid) 0x50c-0x50c.7 (1)
0x500|                                       00      |             .  |                    x: 0 0x50d-0x50d.7 (1)
     |                                               |                |                  [1]{}: in 0x50e-0x50f.7 (2)
0x500|                                          20   |                |                    local.get: 0x20 (valid) 0x50e-0x50e.7 (1)
0x500|                                             01|               .|                    x: 1 0x50f-0x50f.7 (1)
     |                                               |                |                  [2]{}: in 0x510-0x514.7 (5)
0x510|fd                                             |.               |                    prefix: 0xfd (valid) 0x510-0x510.7 (1)
0x510|   55                                          | U              |                    v128.load16_lane: 85 (valid) 0x511-0x511.7 (1)
     |                                               |                |                    m{}: 0x512-0x513.7 (2)
0x510|      01                                       |  .             |                      a: 1 0x512-0x512.7 (1)
0x510|         00                                    |   .            |                      o: 0 0x513-0x513.7 (1)
0x510|            06                                 |    .           |                    l: 6 0x514-0x514.7 (1)
     |                                               |                |                  [3]{}: in 0x515-0x515.7 (1)
0x510|               0b                              |     .          |                    end: 0xb (valid) 0x515-0x515.7 (1)
     |                                               |                |            [30]{}: code 0x516-0x521.7 (12)
0x510|                  0b                           |      .         |              size: 11 0x516-0x516.7 (1)
     |                                               |                |              code{}: 0x517-0x521.7 (11)
     |                                               |                |                t{}: 0x517-0x517.7 (1)
0x510|                     00                        |       .        |                  n: 0 0x517-0x517.7 (1)
     |                                               |                |                  x[0:0]: 0x518-NA (0)
     |                                               |                |                e[0:4]: 0x518-0x521.7 (10)
     |                                               |                |                  [0]{}: in 0x518-0x519.7 (2)
0x510|                        20                     |                |                    local.get: 0x20 (valid) 0x518-0x518.7 (1)
0x510|                           00                  |         .      |                    x: 0 0x519-0x519.7 (1)
     |                                               |                |                  [1]{}: in 0x51a-0x51b.7 (2)
0x510|                              20               |                |                    local.get: 0x20 (valid) 0x51a-0x51a.7 (1)
0x510|                                 01            |           .    |                    x: 1 0x51b-0x51b.7 (1)
     |                                               |                |                  [2]{}: in 0x51c-0x520.7 (5)
0x510|                                    fd         |            .   |                    prefix: 0xfd (valid) 0x51c-0x51c.7 (1)
0x510|                                       55      |             U  |                    v128.load16_lane: 85 (valid) 0x51d-0x51d.7 (1)
     |                                               |                |                    m{}: 0x51e-0x51f.7 (2)
0x510|                                          00   |              . |                      a: 0 0x51e-0x51e.7 (1)
0x510|                                             00|               .|                      o: 0 0x51f-0x51f.7 (1)
0x520|07                                             |.               |                    l: 7 0x520-0x520.7 (1)
     |                                               |                |                  [3]{}: in 0x521-0x521.7 (1)
0x520|   0b                                          | .              |                    end: 0xb (valid) 0x521-0x521.7 (1)
     |                                               |                |            [31]{}: code 0x522-0x52d.7 (12)
0x520|      0b                                       |  .             |              size: 11 0x522-0x522.7 (1)
     |                                               |                |              code{}: 0x523-0x52d.7 (11)
     |                                               |                |                t{}: 0x523-0x523.7 (1)
0x520|         00                                    |   .            |                  n: 0 0x523-0x523.7 (1)
     |                                               |                |                  x[0:0]: 0x524-NA (0)
     |                                               |                |                e[0:4]: 0x524-0x52d.7 (10)
     |                                               |                |                  [0]{}: in 0x524-0x525.7 (2)
0x520|            20                                 |                |                    local.get: 0x20 (valid) 0x524-0x524.7 (1)
0x520|               00                              |     .          |                    x: 0 0x525-0x525.7 (1)
     |                                               |                |                  [1]{}: in 0x526-0x527.7 (2)
0x520|                  20                           |                |                    local.get: 0x20 (valid) 0x526-0x526.7 (1)
0x520|                     01                        |       .        |                    x: 1 0x527-0x527.7 (1)
     |                                               |                |                  [2]{}: in 0x528-0x52c.7 (5)
0x520|                        fd                     |        .       |                    prefix: 0xfd (valid) 0x528-0x528.7 (1)
0x520|                           55                  |         U      |                    v128.load16_lane: 85 (valid) 0x529-0x529.7 (1)
     |                                               |                |                    m{}: 0x52a-0x52b.7 (2)
0x520|                              01               |          .     |                      a: 1 0x52a-0x52a.7 (1)
0x520|                                 00            |           .    |                      o: 0 0x52b-0x52b.7 (1)
0x520|                                    07         |            .   |                    l: 7 0x52c-0x52c.7 (1)
     |                                               |                |                  [3]{}: in 0x52d-0x52d.7 (1)
0x520|                                       0b      |             .  |                    end: 0xb (valid) 0x52d-0x52d.7 (1)
     |                                               |                |    [5]{}: section 0x52e-0x545.7 (24)
0x520|                                          0b   |              . |      id: "data section" (11) 0x52e-0x52e.7 (1)
0x520|                                             16|               .|      size: 22 0x52f-0x52f.7 (1)
     |                                               |                |      content{}: 0x530-0x545.7 (22)
     |                                               |                |        seg{}: 0x530-0x545.7 (22)
0x530|01                                             |.               |          n: 1 0x530-0x530.7 (1)
     |                                               |                |          x[0:1]: 0x531-0x545.7 (21)
     |                                               |                |            [0]{}: seg 0x531-0x545.7 (21)
0x530|   00                                          | .              |              tag: 0 0x531-0x531.7 (1)
     |                                               |                |              e[0:2]: 0x532-0x534.7 (3)
     |                                               |                |                [0]{}: in 0x532-0x533.7 (2)
0x530|      41                                       |  A             |                  i32.const: 0x41 (valid) 0x532-0x532.7 (1)
0x530|         00                                    |   .            |                  n: 0 0x533-0x533.7 (1)
     |                                               |                |                [1]{}: in 0x534-0x534.7 (1)
0x530|            0b                                 |    .           |                  end: 0xb (valid) 0x534-0x534.7 (1)
     |                                               |                |              b{}: 0x535-0x545.7 (17)
0x530|               10                              |     .          |                n: 16 0x535-0x535.7 (1)
0x530|                  00 01 02 03 04 05 06 07 08 09|      ..........|                x: raw bits 0x536-0x545.7 (16)
0x540|0a 0b 0c 0d 0e 0f|                             |......|         |
