$ fq -d wasm dv simd_address-0.wasm
     |00 01 02 03 04 05 06 07 08 09 0a 0b 0c 0d 0e 0f|0123456789abcdef|.{}: simd_address-0.wasm (wasm) 0x0-0x224 (548)
0x000|00 61 73 6d                                    |.asm            |  magic: raw bits (valid) 0x0-0x4 (4)
0x000|            01 00 00 00                        |    ....        |  version: 1 0x4-0x8 (4)
     |                                               |                |  sections[0:6]: 0x8-0x224 (540)
     |                                               |                |    [0]{}: section 0x8-0x18 (16)
0x000|                        01                     |        .       |      id: "type_section" (1) 0x8-0x9 (1)
0x000|                           0e                  |         .      |      size: 14 (valid) 0x9-0xa (1)
     |                                               |                |      content{}: 0xa-0x18 (14)
     |                                               |                |        ft{}: 0xa-0x18 (14)
0x000|                              03               |          .     |          n: 3 (valid) 0xa-0xb (1)
     |                                               |                |          x[0:3]: 0xb-0x18 (13)
     |                                               |                |            [0]{}: ft 0xb-0x10 (5)
0x000|                                 60            |           `    |              tag: 0x60 (valid) 0xb-0xc (1)
     |                                               |                |              rt1{}: 0xc-0xe (2)
0x000|                                    01         |            .   |                n: 1 (valid) 0xc-0xd (1)
     |                                               |                |                x[0:1]: 0xd-0xe (1)
0x000|                                       7f      |             .  |                  [0]: "i32" (0x7f) t 0xd-0xe (1)
     |                                               |                |              rt2{}: 0xe-0x10 (2)
0x000|                                          01   |              . |                n: 1 (valid) 0xe-0xf (1)
     |                                               |                |                x[0:1]: 0xf-0x10 (1)
0x000|                                             7b|               {|                  [0]: "v128" (0x7b) t 0xf-0x10 (1)
     |                                               |                |            [1]{}: ft 0x10-0x14 (4)
0x010|60                                             |`               |              tag: 0x60 (valid) 0x10-0x11 (1)
     |                                               |                |              rt1{}: 0x11-0x12 (1)
0x010|   00                                          | .              |                n: 0 (valid) 0x11-0x12 (1)
     |                                               |                |                x[0:0]: 0x12-0x12 (0)
     |                                               |                |              rt2{}: 0x12-0x14 (2)
0x010|      01                                       |  .             |                n: 1 (valid) 0x12-0x13 (1)
     |                                               |                |                x[0:1]: 0x13-0x14 (1)
0x010|         7b                                    |   {            |                  [0]: "v128" (0x7b) t 0x13-0x14 (1)
     |                                               |                |            [2]{}: ft 0x14-0x18 (4)
0x010|            60                                 |    `           |              tag: 0x60 (valid) 0x14-0x15 (1)
     |                                               |                |              rt1{}: 0x15-0x17 (2)
0x010|               01                              |     .          |                n: 1 (valid) 0x15-0x16 (1)
     |                                               |                |                x[0:1]: 0x16-0x17 (1)
0x010|                  7f                           |      .         |                  [0]: "i32" (0x7f) t 0x16-0x17 (1)
     |                                               |                |              rt2{}: 0x17-0x18 (1)
0x010|                     00                        |       .        |                n: 0 (valid) 0x17-0x18 (1)
     |                                               |                |                x[0:0]: 0x18-0x18 (0)
     |                                               |                |    [1]{}: section 0x18-0x27 (15)
0x010|                        03                     |        .       |      id: "function_section" (3) 0x18-0x19 (1)
0x010|                           0d                  |         .      |      size: 13 (valid) 0x19-0x1a (1)
     |                                               |                |      content{}: 0x1a-0x27 (13)
     |                                               |                |        x{}: 0x1a-0x27 (13)
0x010|                              0c               |          .     |          n: 12 (valid) 0x1a-0x1b (1)
     |                                               |                |          x[0:12]: 0x1b-0x27 (12)
0x010|                                 00            |           .    |            [0]: 0 x (valid) 0x1b-0x1c (1)
0x010|                                    00         |            .   |            [1]: 0 x (valid) 0x1c-0x1d (1)
0x010|                                       00      |             .  |            [2]: 0 x (valid) 0x1d-0x1e (1)
0x010|                                          00   |              . |            [3]: 0 x (valid) 0x1e-0x1f (1)
0x010|                                             00|               .|            [4]: 0 x (valid) 0x1f-0x20 (1)
0x020|01                                             |.               |            [5]: 1 x (valid) 0x20-0x21 (1)
0x020|   01                                          | .              |            [6]: 1 x (valid) 0x21-0x22 (1)
0x020|      01                                       |  .             |            [7]: 1 x (valid) 0x22-0x23 (1)
0x020|         01                                    |   .            |            [8]: 1 x (valid) 0x23-0x24 (1)
0x020|            01                                 |    .           |            [9]: 1 x (valid) 0x24-0x25 (1)
0x020|               01                              |     .          |            [10]: 1 x (valid) 0x25-0x26 (1)
0x020|                  02                           |      .         |            [11]: 2 x (valid) 0x26-0x27 (1)
     |                                               |                |    [2]{}: section 0x27-0x2c (5)
0x020|                     05                        |       .        |      id: "memory_section" (5) 0x27-0x28 (1)
0x020|                        03                     |        .       |      size: 3 (valid) 0x28-0x29 (1)
     |                                               |                |      content{}: 0x29-0x2c (3)
     |                                               |                |        mem{}: 0x29-0x2c (3)
0x020|                           01                  |         .      |          n: 1 (valid) 0x29-0x2a (1)
     |                                               |                |          x[0:1]: 0x2a-0x2c (2)
     |                                               |                |            [0]{}: mem 0x2a-0x2c (2)
     |                                               |                |              lim{}: 0x2a-0x2c (2)
0x020|                              00               |          .     |                tag: 0x0 0x2a-0x2b (1)
0x020|                                 01            |           .    |                n: 1 (valid) 0x2b-0x2c (1)
     |                                               |                |    [3]{}: section 0x2c-0xdf (179)
0x020|                                    07         |            .   |      id: "export_section" (7) 0x2c-0x2d (1)
0x020|                                       b0 01   |             .. |      size: 176 (valid) 0x2d-0x2f (2)
     |                                               |                |      content{}: 0x2f-0xdf (176)
     |                                               |                |        ex{}: 0x2f-0xdf (176)
0x020|                                             0c|               .|          n: 12 (valid) 0x2f-0x30 (1)
     |                                               |                |          x[0:12]: 0x30-0xdf (175)
     |                                               |                |            [0]{}: ex 0x30-0x3e (14)
     |                                               |                |              nm{}: 0x30-0x3c (12)
0x030|0b                                             |.               |                n: 11 (valid) 0x30-0x31 (1)
0x030|   6c 6f 61 64 5f 64 61 74 61 5f 31            | load_data_1    |                b: "load_data_1" 0x31-0x3c (11)
     |                                               |                |              d{}: 0x3c-0x3e (2)
0x030|                                    00         |            .   |                tag: "funcidx" (0x0) 0x3c-0x3d (1)
0x030|                                       00      |             .  |                x: 0 (valid) 0x3d-0x3e (1)
     |                                               |                |            [1]{}: ex 0x3e-0x4c (14)
     |                                               |                |              nm{}: 0x3e-0x4a (12)
0x030|                                          0b   |              . |                n: 11 (valid) 0x3e-0x3f (1)
0x030|                                             6c|               l|                b: "load_data_2" 0x3f-0x4a (11)
0x040|6f 61 64 5f 64 61 74 61 5f 32                  |oad_data_2      |
     |                                               |                |              d{}: 0x4a-0x4c (2)
0x040|                              00               |          .     |                tag: "funcidx" (0x0) 0x4a-0x4b (1)
0x040|                                 01            |           .    |                x: 1 (valid) 0x4b-0x4c (1)
     |                                               |                |            [2]{}: ex 0x4c-0x5a (14)
     |                                               |                |              nm{}: 0x4c-0x58 (12)
0x040|                                    0b         |            .   |                n: 11 (valid) 0x4c-0x4d (1)
0x040|                                       6c 6f 61|             loa|                b: "load_data_3" 0x4d-0x58 (11)
0x050|64 5f 64 61 74 61 5f 33                        |d_data_3        |
     |                                               |                |              d{}: 0x58-0x5a (2)
0x050|                        00                     |        .       |                tag: "funcidx" (0x0) 0x58-0x59 (1)
0x050|                           02                  |         .      |                x: 2 (valid) 0x59-0x5a (1)
     |                                               |                |            [3]{}: ex 0x5a-0x68 (14)
     |                                               |                |              nm{}: 0x5a-0x66 (12)
0x050|                              0b               |          .     |                n: 11 (valid) 0x5a-0x5b (1)
0x050|                                 6c 6f 61 64 5f|           load_|                b: "load_data_4" 0x5b-0x66 (11)
0x060|64 61 74 61 5f 34                              |data_4          |
     |                                               |                |              d{}: 0x66-0x68 (2)
0x060|                  00                           |      .         |                tag: "funcidx" (0x0) 0x66-0x67 (1)
0x060|                     03                        |       .        |                x: 3 (valid) 0x67-0x68 (1)
     |                                               |                |            [4]{}: ex 0x68-0x76 (14)
     |                                               |                |              nm{}: 0x68-0x74 (12)
0x060|                        0b                     |        .       |                n: 11 (valid) 0x68-0x69 (1)
0x060|                           6c 6f 61 64 5f 64 61|         load_da|                b: "load_data_5" 0x69-0x74 (11)
0x070|74 61 5f 35                                    |ta_5            |
     |                                               |                |              d{}: 0x74-0x76 (2)
0x070|            00                                 |    .           |                tag: "funcidx" (0x0) 0x74-0x75 (1)
0x070|               04                              |     .          |                x: 4 (valid) 0x75-0x76 (1)
     |                                               |                |            [5]{}: ex 0x76-0x85 (15)
     |                                               |                |              nm{}: 0x76-0x83 (13)
0x070|                  0c                           |      .         |                n: 12 (valid) 0x76-0x77 (1)
0x070|                     73 74 6f 72 65 5f 64 61 74|       store_dat|                b: "store_data_0" 0x77-0x83 (12)
0x080|61 5f 30                                       |a_0             |
     |                                               |                |              d{}: 0x83-0x85 (2)
0x080|         00                                    |   .            |                tag: "funcidx" (0x0) 0x83-0x84 (1)
0x080|            05                                 |    .           |                x: 5 (valid) 0x84-0x85 (1)
     |                                               |                |            [6]{}: ex 0x85-0x94 (15)
     |                                               |                |              nm{}: 0x85-0x92 (13)
0x080|               0c                              |     .          |                n: 12 (valid) 0x85-0x86 (1)
0x080|                  73 74 6f 72 65 5f 64 61 74 61|      store_data|                b: "store_data_1" 0x86-0x92 (12)
0x090|5f 31                                          |_1              |
     |                                               |                |              d{}: 0x92-0x94 (2)
0x090|      00                                       |  .             |                tag: "funcidx" (0x0) 0x92-0x93 (1)
0x090|         06                                    |   .            |                x: 6 (valid) 0x93-0x94 (1)
     |                                               |                |            [7]{}: ex 0x94-0xa3 (15)
     |                                               |                |              nm{}: 0x94-0xa1 (13)
0x090|            0c                                 |    .           |                n: 12 (valid) 0x94-0x95 (1)
0x090|               73 74 6f 72 65 5f 64 61 74 61 5f|     store_data_|                b: "store_data_2" 0x95-0xa1 (12)
0x0a0|32                                             |2               |
     |                                               |                |              d{}: 0xa1-0xa3 (2)
0x0a0|   00                                          | .              |                tag: "funcidx" (0x0) 0xa1-0xa2 (1)
0x0a0|      07                                       |  .             |                x: 7 (valid) 0xa2-0xa3 (1)
     |                                               |                |            [8]{}: ex 0xa3-0xb2 (15)
     |                                               |                |              nm{}: 0xa3-0xb0 (13)
0x0a0|         0c                                    |   .            |                n: 12 (valid) 0xa3-0xa4 (1)
0x0a0|            73 74 6f 72 65 5f 64 61 74 61 5f 33|    store_data_3|                b: "store_data_3" 0xa4-0xb0 (12)
     |                                               |                |              d{}: 0xb0-0xb2 (2)
0x0b0|00                                             |.               |                tag: "funcidx" (0x0) 0xb0-0xb1 (1)
0x0b0|   08                                          | .              |                x: 8 (valid) 0xb1-0xb2 (1)
     |                                               |                |            [9]{}: ex 0xb2-0xc1 (15)
     |                                               |                |              nm{}: 0xb2-0xbf (13)
0x0b0|      0c                                       |  .             |                n: 12 (valid) 0xb2-0xb3 (1)
0x0b0|         73 74 6f 72 65 5f 64 61 74 61 5f 34   |   store_data_4 |                b: "store_data_4" 0xb3-0xbf (12)
     |                                               |                |              d{}: 0xbf-0xc1 (2)
0x0b0|                                             00|               .|                tag: "funcidx" (0x0) 0xbf-0xc0 (1)
0x0c0|09                                             |.               |                x: 9 (valid) 0xc0-0xc1 (1)
     |                                               |                |            [10]{}: ex 0xc1-0xd0 (15)
     |                                               |                |              nm{}: 0xc1-0xce (13)
0x0c0|   0c                                          | .              |                n: 12 (valid) 0xc1-0xc2 (1)
0x0c0|      73 74 6f 72 65 5f 64 61 74 61 5f 35      |  store_data_5  |                b: "store_data_5" 0xc2-0xce (12)
     |                                               |                |              d{}: 0xce-0xd0 (2)
0x0c0|                                          00   |              . |                tag: "funcidx" (0x0) 0xce-0xcf (1)
0x0c0|                                             0a|               .|                x: 10 (valid) 0xcf-0xd0 (1)
     |                                               |                |            [11]{}: ex 0xd0-0xdf (15)
     |                                               |                |              nm{}: 0xd0-0xdd (13)
0x0d0|0c                                             |.               |                n: 12 (valid) 0xd0-0xd1 (1)
0x0d0|   73 74 6f 72 65 5f 64 61 74 61 5f 36         | store_data_6   |                b: "store_data_6" 0xd1-0xdd (12)
     |                                               |                |              d{}: 0xdd-0xdf (2)
0x0d0|                                       00      |             .  |                tag: "funcidx" (0x0) 0xdd-0xde (1)
0x0d0|                                          0b   |              . |                x: 11 (valid) 0xde-0xdf (1)
     |                                               |                |    [4]{}: section 0xdf-0x1f5 (278)
0x0d0|                                             0a|               .|      id: "code_section" (10) 0xdf-0xe0 (1)
0x0e0|93 02                                          |..              |      size: 275 (valid) 0xe0-0xe2 (2)
     |                                               |                |      content{}: 0xe2-0x1f5 (275)
     |                                               |                |        code{}: 0xe2-0x1f5 (275)
0x0e0|      0c                                       |  .             |          n: 12 (valid) 0xe2-0xe3 (1)
     |                                               |                |          x[0:12]: 0xe3-0x1f5 (274)
     |                                               |                |            [0]{}: code 0xe3-0xec (9)
0x0e0|         08                                    |   .            |              size: 8 (valid) 0xe3-0xe4 (1)
     |                                               |                |              code{}: 0xe4-0xec (8)
     |                                               |                |                t{}: 0xe4-0xe5 (1)
0x0e0|            00                                 |    .           |                  n: 0 (valid) 0xe4-0xe5 (1)
     |                                               |                |                  x[0:0]: 0xe5-0xe5 (0)
     |                                               |                |                e[0:3]: 0xe5-0xec (7)
     |                                               |                |                  [0]{}: in 0xe5-0xe7 (2)
0x0e0|               20                              |                |                    opcode: "local.get" (0x20) 0xe5-0xe6 (1)
0x0e0|                  00                           |      .         |                    x: 0 (valid) 0xe6-0xe7 (1)
     |                                               |                |                  [1]{}: in 0xe7-0xeb (4)
0x0e0|                     fd                        |       .        |                    opcode: "vector" (0xfd) 0xe7-0xe8 (1)
0x0e0|                        00                     |        .       |                    v_opcode: "v128.load" (0) 0xe8-0xe9 (1)
     |                                               |                |                    m{}: 0xe9-0xeb (2)
0x0e0|                           04                  |         .      |                      a: 4 (valid) 0xe9-0xea (1)
0x0e0|                              00               |          .     |                      o: 0 (valid) 0xea-0xeb (1)
     |                                               |                |                  [2]{}: in 0xeb-0xec (1)
0x0e0|                                 0b            |           .    |                    opcode: "end" (0xb) 0xeb-0xec (1)
     |                                               |                |            [1]{}: code 0xec-0xf5 (9)
0x0e0|                                    08         |            .   |              size: 8 (valid) 0xec-0xed (1)
     |                                               |                |              code{}: 0xed-0xf5 (8)
     |                                               |                |                t{}: 0xed-0xee (1)
0x0e0|                                       00      |             .  |                  n: 0 (valid) 0xed-0xee (1)
     |                                               |                |                  x[0:0]: 0xee-0xee (0)
     |                                               |                |                e[0:3]: 0xee-0xf5 (7)
     |                                               |                |                  [0]{}: in 0xee-0xf0 (2)
0x0e0|                                          20   |                |                    opcode: "local.get" (0x20) 0xee-0xef (1)
0x0e0|                                             00|               .|                    x: 0 (valid) 0xef-0xf0 (1)
     |                                               |                |                  [1]{}: in 0xf0-0xf4 (4)
0x0f0|fd                                             |.               |                    opcode: "vector" (0xfd) 0xf0-0xf1 (1)
0x0f0|   00                                          | .              |                    v_opcode: "v128.load" (0) 0xf1-0xf2 (1)
     |                                               |                |                    m{}: 0xf2-0xf4 (2)
0x0f0|      00                                       |  .             |                      a: 0 (valid) 0xf2-0xf3 (1)
0x0f0|         00                                    |   .            |                      o: 0 (valid) 0xf3-0xf4 (1)
     |                                               |                |                  [2]{}: in 0xf4-0xf5 (1)
0x0f0|            0b                                 |    .           |                    opcode: "end" (0xb) 0xf4-0xf5 (1)
     |                                               |                |            [2]{}: code 0xf5-0xfe (9)
0x0f0|               08                              |     .          |              size: 8 (valid) 0xf5-0xf6 (1)
     |                                               |                |              code{}: 0xf6-0xfe (8)
     |                                               |                |                t{}: 0xf6-0xf7 (1)
0x0f0|                  00                           |      .         |                  n: 0 (valid) 0xf6-0xf7 (1)
     |                                               |                |                  x[0:0]: 0xf7-0xf7 (0)
     |                                               |                |                e[0:3]: 0xf7-0xfe (7)
     |                                               |                |                  [0]{}: in 0xf7-0xf9 (2)
0x0f0|                     20                        |                |                    opcode: "local.get" (0x20) 0xf7-0xf8 (1)
0x0f0|                        00                     |        .       |                    x: 0 (valid) 0xf8-0xf9 (1)
     |                                               |                |                  [1]{}: in 0xf9-0xfd (4)
0x0f0|                           fd                  |         .      |                    opcode: "vector" (0xfd) 0xf9-0xfa (1)
0x0f0|                              00               |          .     |                    v_opcode: "v128.load" (0) 0xfa-0xfb (1)
     |                                               |                |                    m{}: 0xfb-0xfd (2)
0x0f0|                                 00            |           .    |                      a: 0 (valid) 0xfb-0xfc (1)
0x0f0|                                    01         |            .   |                      o: 1 (valid) 0xfc-0xfd (1)
     |                                               |                |                  [2]{}: in 0xfd-0xfe (1)
0x0f0|                                       0b      |             .  |                    opcode: "end" (0xb) 0xfd-0xfe (1)
     |                                               |                |            [3]{}: code 0xfe-0x107 (9)
0x0f0|                                          08   |              . |              size: 8 (valid) 0xfe-0xff (1)
     |                                               |                |              code{}: 0xff-0x107 (8)
     |                                               |                |                t{}: 0xff-0x100 (1)
0x0f0|                                             00|               .|                  n: 0 (valid) 0xff-0x100 (1)
     |                                               |                |                  x[0:0]: 0x100-0x100 (0)
     |                                               |                |                e[0:3]: 0x100-0x107 (7)
     |                                               |                |                  [0]{}: in 0x100-0x102 (2)
0x100|20                                             |                |                    opcode: "local.get" (0x20) 0x100-0x101 (1)
0x100|   00                                          | .              |                    x: 0 (valid) 0x101-0x102 (1)
     |                                               |                |                  [1]{}: in 0x102-0x106 (4)
0x100|      fd                                       |  .             |                    opcode: "vector" (0xfd) 0x102-0x103 (1)
0x100|         00                                    |   .            |                    v_opcode: "v128.load" (0) 0x103-0x104 (1)
     |                                               |                |                    m{}: 0x104-0x106 (2)
0x100|            00                                 |    .           |                      a: 0 (valid) 0x104-0x105 (1)
0x100|               02                              |     .          |                      o: 2 (valid) 0x105-0x106 (1)
     |                                               |                |                  [2]{}: in 0x106-0x107 (1)
0x100|                  0b                           |      .         |                    opcode: "end" (0xb) 0x106-0x107 (1)
     |                                               |                |            [4]{}: code 0x107-0x110 (9)
0x100|                     08                        |       .        |              size: 8 (valid) 0x107-0x108 (1)
     |                                               |                |              code{}: 0x108-0x110 (8)
     |                                               |                |                t{}: 0x108-0x109 (1)
0x100|                        00                     |        .       |                  n: 0 (valid) 0x108-0x109 (1)
     |                                               |                |                  x[0:0]: 0x109-0x109 (0)
     |                                               |                |                e[0:3]: 0x109-0x110 (7)
     |                                               |                |                  [0]{}: in 0x109-0x10b (2)
0x100|                           20                  |                |                    opcode: "local.get" (0x20) 0x109-0x10a (1)
0x100|                              00               |          .     |                    x: 0 (valid) 0x10a-0x10b (1)
     |                                               |                |                  [1]{}: in 0x10b-0x10f (4)
0x100|                                 fd            |           .    |                    opcode: "vector" (0xfd) 0x10b-0x10c (1)
0x100|                                    00         |            .   |                    v_opcode: "v128.load" (0) 0x10c-0x10d (1)
     |                                               |                |                    m{}: 0x10d-0x10f (2)
0x100|                                       00      |             .  |                      a: 0 (valid) 0x10d-0x10e (1)
0x100|                                          0f   |              . |                      o: 15 (valid) 0x10e-0x10f (1)
     |                                               |                |                  [2]{}: in 0x10f-0x110 (1)
0x100|                                             0b|               .|                    opcode: "end" (0xb) 0x10f-0x110 (1)
     |                                               |                |            [5]{}: code 0x110-0x131 (33)
0x110|20                                             |                |              size: 32 (valid) 0x110-0x111 (1)
     |                                               |                |              code{}: 0x111-0x131 (32)
     |                                               |                |                t{}: 0x111-0x112 (1)
0x110|   00                                          | .              |                  n: 0 (valid) 0x111-0x112 (1)
     |                                               |                |                  x[0:0]: 0x112-0x112 (0)
     |                                               |                |                e[0:6]: 0x112-0x131 (31)
     |                                               |                |                  [0]{}: in 0x112-0x114 (2)
0x110|      41                                       |  A             |                    opcode: "i32.const" (0x41) 0x112-0x113 (1)
0x110|         00                                    |   .            |                    n: 0 (valid) 0x113-0x114 (1)
     |                                               |                |                  [1]{}: in 0x114-0x126 (18)
0x110|            fd                                 |    .           |                    opcode: "vector" (0xfd) 0x114-0x115 (1)
0x110|               0c                              |     .          |                    v_opcode: "v128.const" (12) 0x115-0x116 (1)
0x110|                  00 00 00 00 00 00 80 3f 00 00|      .......?..|                    bytes: raw bits 0x116-0x126 (16)
0x120|00 40 00 00 40 40                              |.@..@@          |
     |                                               |                |                  [2]{}: in 0x126-0x12a (4)
0x120|                  fd                           |      .         |                    opcode: "vector" (0xfd) 0x126-0x127 (1)
0x120|                     0b                        |       .        |                    v_opcode: "v128.store" (11) 0x127-0x128 (1)
     |                                               |                |                    m{}: 0x128-0x12a (2)
0x120|                        04                     |        .       |                      a: 4 (valid) 0x128-0x129 (1)
0x120|                           00                  |         .      |                      o: 0 (valid) 0x129-0x12a (1)
     |                                               |                |                  [3]{}: in 0x12a-0x12c (2)
0x120|                              41               |          A     |                    opcode: "i32.const" (0x41) 0x12a-0x12b (1)
0x120|                                 00            |           .    |                    n: 0 (valid) 0x12b-0x12c (1)
     |                                               |                |                  [4]{}: in 0x12c-0x130 (4)
0x120|                                    fd         |            .   |                    opcode: "vector" (0xfd) 0x12c-0x12d (1)
0x120|                                       00      |             .  |                    v_opcode: "v128.load" (0) 0x12d-0x12e (1)
     |                                               |                |                    m{}: 0x12e-0x130 (2)
0x120|                                          04   |              . |                      a: 4 (valid) 0x12e-0x12f (1)
0x120|                                             00|               .|                      o: 0 (valid) 0x12f-0x130 (1)
     |                                               |                |                  [5]{}: in 0x130-0x131 (1)
0x130|0b                                             |.               |                    opcode: "end" (0xb) 0x130-0x131 (1)
     |                                               |                |            [6]{}: code 0x131-0x152 (33)
0x130|   20                                          |                |              size: 32 (valid) 0x131-0x132 (1)
     |                                               |                |              code{}: 0x132-0x152 (32)
     |                                               |                |                t{}: 0x132-0x133 (1)
0x130|      00                                       |  .             |                  n: 0 (valid) 0x132-0x133 (1)
     |                                               |                |                  x[0:0]: 0x133-0x133 (0)
     |                                               |                |                e[0:6]: 0x133-0x152 (31)
     |                                               |                |                  [0]{}: in 0x133-0x135 (2)
0x130|         41                                    |   A            |                    opcode: "i32.const" (0x41) 0x133-0x134 (1)
0x130|            00                                 |    .           |                    n: 0 (valid) 0x134-0x135 (1)
     |                                               |                |                  [1]{}: in 0x135-0x147 (18)
0x130|               fd                              |     .          |                    opcode: "vector" (0xfd) 0x135-0x136 (1)
0x130|                  0c                           |      .         |                    v_opcode: "v128.const" (12) 0x136-0x137 (1)
0x130|                     00 00 00 00 01 00 00 00 02|       .........|                    bytes: raw bits 0x137-0x147 (16)
0x140|00 00 00 03 00 00 00                           |.......         |
     |                                               |                |                  [2]{}: in 0x147-0x14b (4)
0x140|                     fd                        |       .        |                    opcode: "vector" (0xfd) 0x147-0x148 (1)
0x140|                        0b                     |        .       |                    v_opcode: "v128.store" (11) 0x148-0x149 (1)
     |                                               |                |                    m{}: 0x149-0x14b (2)
0x140|                           00                  |         .      |                      a: 0 (valid) 0x149-0x14a (1)
0x140|                              00               |          .     |                      o: 0 (valid) 0x14a-0x14b (1)
     |                                               |                |                  [3]{}: in 0x14b-0x14d (2)
0x140|                                 41            |           A    |                    opcode: "i32.const" (0x41) 0x14b-0x14c (1)
0x140|                                    00         |            .   |                    n: 0 (valid) 0x14c-0x14d (1)
     |                                               |                |                  [4]{}: in 0x14d-0x151 (4)
0x140|                                       fd      |             .  |                    opcode: "vector" (0xfd) 0x14d-0x14e (1)
0x140|                                          00   |              . |                    v_opcode: "v128.load" (0) 0x14e-0x14f (1)
     |                                               |                |                    m{}: 0x14f-0x151 (2)
0x140|                                             00|               .|                      a: 0 (valid) 0x14f-0x150 (1)
0x150|00                                             |.               |                      o: 0 (valid) 0x150-0x151 (1)
     |                                               |                |                  [5]{}: in 0x151-0x152 (1)
0x150|   0b                                          | .              |                    opcode: "end" (0xb) 0x151-0x152 (1)
     |                                               |                |            [7]{}: code 0x152-0x173 (33)
0x150|      20                                       |                |              size: 32 (valid) 0x152-0x153 (1)
     |                                               |                |              code{}: 0x153-0x173 (32)
     |                                               |                |                t{}: 0x153-0x154 (1)
0x150|         00                                    |   .            |                  n: 0 (valid) 0x153-0x154 (1)
     |                                               |                |                  x[0:0]: 0x154-0x154 (0)
     |                                               |                |                e[0:6]: 0x154-0x173 (31)
     |                                               |                |                  [0]{}: in 0x154-0x156 (2)
0x150|            41                                 |    A           |                    opcode: "i32.const" (0x41) 0x154-0x155 (1)
0x150|               00                              |     .          |                    n: 0 (valid) 0x155-0x156 (1)
     |                                               |                |                  [1]{}: in 0x156-0x168 (18)
0x150|                  fd                           |      .         |                    opcode: "vector" (0xfd) 0x156-0x157 (1)
0x150|                     0c                        |       .        |                    v_opcode: "v128.const" (12) 0x157-0x158 (1)
0x150|                        00 00 01 00 02 00 03 00|        ........|                    bytes: raw bits 0x158-0x168 (16)
0x160|04 00 05 00 06 00 07 00                        |........        |
     |                                               |                |                  [2]{}: in 0x168-0x16c (4)
0x160|                        fd                     |        .       |                    opcode: "vector" (0xfd) 0x168-0x169 (1)
0x160|                           0b                  |         .      |                    v_opcode: "v128.store" (11) 0x169-0x16a (1)
     |                                               |                |                    m{}: 0x16a-0x16c (2)
0x160|                              00               |          .     |                      a: 0 (valid) 0x16a-0x16b (1)
0x160|                                 01            |           .    |                      o: 1 (valid) 0x16b-0x16c (1)
     |                                               |                |                  [3]{}: in 0x16c-0x16e (2)
0x160|                                    41         |            A   |                    opcode: "i32.const" (0x41) 0x16c-0x16d (1)
0x160|                                       00      |             .  |                    n: 0 (valid) 0x16d-0x16e (1)
     |                                               |                |                  [4]{}: in 0x16e-0x172 (4)
0x160|                                          fd   |              . |                    opcode: "vector" (0xfd) 0x16e-0x16f (1)
0x160|                                             00|               .|                    v_opcode: "v128.load" (0) 0x16f-0x170 (1)
     |                                               |                |                    m{}: 0x170-0x172 (2)
0x170|00                                             |.               |                      a: 0 (valid) 0x170-0x171 (1)
0x170|   01                                          | .              |                      o: 1 (valid) 0x171-0x172 (1)
     |                                               |                |                  [5]{}: in 0x172-0x173 (1)
0x170|      0b                                       |  .             |                    opcode: "end" (0xb) 0x172-0x173 (1)
     |                                               |                |            [8]{}: code 0x173-0x194 (33)
0x170|         20                                    |                |              size: 32 (valid) 0x173-0x174 (1)
     |                                               |                |              code{}: 0x174-0x194 (32)
     |                                               |                |                t{}: 0x174-0x175 (1)
0x170|            00                                 |    .           |                  n: 0 (valid) 0x174-0x175 (1)
     |                                               |                |                  x[0:0]: 0x175-0x175 (0)
     |                                               |                |                e[0:6]: 0x175-0x194 (31)
     |                                               |                |                  [0]{}: in 0x175-0x177 (2)
0x170|               41                              |     A          |                    opcode: "i32.const" (0x41) 0x175-0x176 (1)
0x170|                  00                           |      .         |                    n: 0 (valid) 0x176-0x177 (1)
     |                                               |                |                  [1]{}: in 0x177-0x189 (18)
0x170|                     fd                        |       .        |                    opcode: "vector" (0xfd) 0x177-0x178 (1)
0x170|                        0c                     |        .       |                    v_opcode: "v128.const" (12) 0x178-0x179 (1)
0x170|                           00 01 02 03 04 05 06|         .......|                    bytes: raw bits 0x179-0x189 (16)
0x180|07 08 09 0a 0b 0c 0d 0e 0f                     |.........       |
     |                                               |                |                  [2]{}: in 0x189-0x18d (4)
0x180|                           fd                  |         .      |                    opcode: "vector" (0xfd) 0x189-0x18a (1)
0x180|                              0b               |          .     |                    v_opcode: "v128.store" (11) 0x18a-0x18b (1)
     |                                               |                |                    m{}: 0x18b-0x18d (2)
0x180|                                 00            |           .    |                      a: 0 (valid) 0x18b-0x18c (1)
0x180|                                    02         |            .   |                      o: 2 (valid) 0x18c-0x18d (1)
     |                                               |                |                  [3]{}: in 0x18d-0x18f (2)
0x180|                                       41      |             A  |                    opcode: "i32.const" (0x41) 0x18d-0x18e (1)
0x180|                                          00   |              . |                    n: 0 (valid) 0x18e-0x18f (1)
     |                                               |                |                  [4]{}: in 0x18f-0x193 (4)
0x180|                                             fd|               .|                    opcode: "vector" (0xfd) 0x18f-0x190 (1)
0x190|00                                             |.               |                    v_opcode: "v128.load" (0) 0x190-0x191 (1)
     |                                               |                |                    m{}: 0x191-0x193 (2)
0x190|   00                                          | .              |                      a: 0 (valid) 0x191-0x192 (1)
0x190|      02                                       |  .             |                      o: 2 (valid) 0x192-0x193 (1)
     |                                               |                |                  [5]{}: in 0x193-0x194 (1)
0x190|         0b                                    |   .            |                    opcode: "end" (0xb) 0x193-0x194 (1)
     |                                               |                |            [9]{}: code 0x194-0x1b5 (33)
0x190|            20                                 |                |              size: 32 (valid) 0x194-0x195 (1)
     |                                               |                |              code{}: 0x195-0x1b5 (32)
     |                                               |                |                t{}: 0x195-0x196 (1)
0x190|               00                              |     .          |                  n: 0 (valid) 0x195-0x196 (1)
     |                                               |                |                  x[0:0]: 0x196-0x196 (0)
     |                                               |                |                e[0:6]: 0x196-0x1b5 (31)
     |                                               |                |                  [0]{}: in 0x196-0x198 (2)
0x190|                  41                           |      A         |                    opcode: "i32.const" (0x41) 0x196-0x197 (1)
0x190|                     00                        |       .        |                    n: 0 (valid) 0x197-0x198 (1)
     |                                               |                |                  [1]{}: in 0x198-0x1aa (18)
0x190|                        fd                     |        .       |                    opcode: "vector" (0xfd) 0x198-0x199 (1)
0x190|                           0c                  |         .      |                    v_opcode: "v128.const" (12) 0x199-0x19a (1)
0x190|                              00 00 00 00 01 00|          ......|                    bytes: raw bits 0x19a-0x1aa (16)
0x1a0|00 00 02 00 00 00 03 00 00 00                  |..........      |
     |                                               |                |                  [2]{}: in 0x1aa-0x1ae (4)
0x1a0|                              fd               |          .     |                    opcode: "vector" (0xfd) 0x1aa-0x1ab (1)
0x1a0|                                 0b            |           .    |                    v_opcode: "v128.store" (11) 0x1ab-0x1ac (1)
     |                                               |                |                    m{}: 0x1ac-0x1ae (2)
0x1a0|                                    00         |            .   |                      a: 0 (valid) 0x1ac-0x1ad (1)
0x1a0|                                       0f      |             .  |                      o: 15 (valid) 0x1ad-0x1ae (1)
     |                                               |                |                  [3]{}: in 0x1ae-0x1b0 (2)
0x1a0|                                          41   |              A |                    opcode: "i32.const" (0x41) 0x1ae-0x1af (1)
0x1a0|                                             00|               .|                    n: 0 (valid) 0x1af-0x1b0 (1)
     |                                               |                |                  [4]{}: in 0x1b0-0x1b4 (4)
0x1b0|fd                                             |.               |                    opcode: "vector" (0xfd) 0x1b0-0x1b1 (1)
0x1b0|   00                                          | .              |                    v_opcode: "v128.load" (0) 0x1b1-0x1b2 (1)
     |                                               |                |                    m{}: 0x1b2-0x1b4 (2)
0x1b0|      04                                       |  .             |                      a: 4 (valid) 0x1b2-0x1b3 (1)
0x1b0|         0f                                    |   .            |                      o: 15 (valid) 0x1b3-0x1b4 (1)
     |                                               |                |                  [5]{}: in 0x1b4-0x1b5 (1)
0x1b0|            0b                                 |    .           |                    opcode: "end" (0xb) 0x1b4-0x1b5 (1)
     |                                               |                |            [10]{}: code 0x1b5-0x1da (37)
0x1b0|               24                              |     $          |              size: 36 (valid) 0x1b5-0x1b6 (1)
     |                                               |                |              code{}: 0x1b6-0x1da (36)
     |                                               |                |                t{}: 0x1b6-0x1b7 (1)
0x1b0|                  00                           |      .         |                  n: 0 (valid) 0x1b6-0x1b7 (1)
     |                                               |                |                  x[0:0]: 0x1b7-0x1b7 (0)
     |                                               |                |                e[0:6]: 0x1b7-0x1da (35)
     |                                               |                |                  [0]{}: in 0x1b7-0x1b9 (2)
0x1b0|                     41                        |       A        |                    opcode: "i32.const" (0x41) 0x1b7-0x1b8 (1)
0x1b0|                        00                     |        .       |                    n: 0 (valid) 0x1b8-0x1b9 (1)
     |                                               |                |                  [1]{}: in 0x1b9-0x1cb (18)
0x1b0|                           fd                  |         .      |                    opcode: "vector" (0xfd) 0x1b9-0x1ba (1)
0x1b0|                              0c               |          .     |                    v_opcode: "v128.const" (12) 0x1ba-0x1bb (1)
0x1b0|                                 00 00 00 00 01|           .....|                    bytes: raw bits 0x1bb-0x1cb (16)
0x1c0|00 00 00 02 00 00 00 03 00 00 00               |...........     |
     |                                               |                |                  [2]{}: in 0x1cb-0x1d1 (6)
0x1c0|                                 fd            |           .    |                    opcode: "vector" (0xfd) 0x1cb-0x1cc (1)
0x1c0|                                    0b         |            .   |                    v_opcode: "v128.store" (11) 0x1cc-0x1cd (1)
     |                                               |                |                    m{}: 0x1cd-0x1d1 (4)
0x1c0|                                       00      |             .  |                      a: 0 (valid) 0x1cd-0x1ce (1)
0x1c0|                                          f0 ff|              ..|                      o: 65520 (valid) 0x1ce-0x1d1 (3)
0x1d0|03                                             |.               |
     |                                               |                |                  [3]{}: in 0x1d1-0x1d3 (2)
0x1d0|   41                                          | A              |                    opcode: "i32.const" (0x41) 0x1d1-0x1d2 (1)
0x1d0|      00                                       |  .             |                    n: 0 (valid) 0x1d2-0x1d3 (1)
     |                                               |                |                  [4]{}: in 0x1d3-0x1d9 (6)
0x1d0|         fd                                    |   .            |                    opcode: "vector" (0xfd) 0x1d3-0x1d4 (1)
0x1d0|            00                                 |    .           |                    v_opcode: "v128.load" (0) 0x1d4-0x1d5 (1)
     |                                               |                |                    m{}: 0x1d5-0x1d9 (4)
0x1d0|               04                              |     .          |                      a: 4 (valid) 0x1d5-0x1d6 (1)
0x1d0|                  f0 ff 03                     |      ...       |                      o: 65520 (valid) 0x1d6-0x1d9 (3)
     |                                               |                |                  [5]{}: in 0x1d9-0x1da (1)
0x1d0|                           0b                  |         .      |                    opcode: "end" (0xb) 0x1d9-0x1da (1)
     |                                               |                |            [11]{}: code 0x1da-0x1f5 (27)
0x1d0|                              1a               |          .     |              size: 26 (valid) 0x1da-0x1db (1)
     |                                               |                |              code{}: 0x1db-0x1f5 (26)
     |                                               |                |                t{}: 0x1db-0x1dc (1)
0x1d0|                                 00            |           .    |                  n: 0 (valid) 0x1db-0x1dc (1)
     |                                               |                |                  x[0:0]: 0x1dc-0x1dc (0)
     |                                               |                |                e[0:4]: 0x1dc-0x1f5 (25)
     |                                               |                |                  [0]{}: in 0x1dc-0x1de (2)
0x1d0|                                    20         |                |                    opcode: "local.get" (0x20) 0x1dc-0x1dd (1)
0x1d0|                                       00      |             .  |                    x: 0 (valid) 0x1dd-0x1de (1)
     |                                               |                |                  [1]{}: in 0x1de-0x1f0 (18)
0x1d0|                                          fd   |              . |                    opcode: "vector" (0xfd) 0x1de-0x1df (1)
0x1d0|                                             0c|               .|                    v_opcode: "v128.const" (12) 0x1df-0x1e0 (1)
0x1e0|00 00 00 00 01 00 00 00 02 00 00 00 03 00 00 00|................|                    bytes: raw bits 0x1e0-0x1f0 (16)
     |                                               |                |                  [2]{}: in 0x1f0-0x1f4 (4)
0x1f0|fd                                             |.               |                    opcode: "vector" (0xfd) 0x1f0-0x1f1 (1)
0x1f0|   0b                                          | .              |                    v_opcode: "v128.store" (11) 0x1f1-0x1f2 (1)
     |                                               |                |                    m{}: 0x1f2-0x1f4 (2)
0x1f0|      00                                       |  .             |                      a: 0 (valid) 0x1f2-0x1f3 (1)
0x1f0|         01                                    |   .            |                      o: 1 (valid) 0x1f3-0x1f4 (1)
     |                                               |                |                  [3]{}: in 0x1f4-0x1f5 (1)
0x1f0|            0b                                 |    .           |                    opcode: "end" (0xb) 0x1f4-0x1f5 (1)
     |                                               |                |    [5]{}: section 0x1f5-0x224 (47)
0x1f0|               0b                              |     .          |      id: "data_section" (11) 0x1f5-0x1f6 (1)
0x1f0|                  2d                           |      -         |      size: 45 (valid) 0x1f6-0x1f7 (1)
     |                                               |                |      content{}: 0x1f7-0x224 (45)
     |                                               |                |        seg{}: 0x1f7-0x224 (45)
0x1f0|                     02                        |       .        |          n: 2 (valid) 0x1f7-0x1f8 (1)
     |                                               |                |          x[0:2]: 0x1f8-0x224 (44)
     |                                               |                |            [0]{}: seg 0x1f8-0x20d (21)
0x1f0|                        00                     |        .       |              tag: 0 (valid) 0x1f8-0x1f9 (1)
     |                                               |                |              e[0:2]: 0x1f9-0x1fc (3)
     |                                               |                |                [0]{}: in 0x1f9-0x1fb (2)
0x1f0|                           41                  |         A      |                  opcode: "i32.const" (0x41) 0x1f9-0x1fa (1)
0x1f0|                              00               |          .     |                  n: 0 (valid) 0x1fa-0x1fb (1)
     |                                               |                |                [1]{}: in 0x1fb-0x1fc (1)
0x1f0|                                 0b            |           .    |                  opcode: "end" (0xb) 0x1fb-0x1fc (1)
     |                                               |                |              b{}: 0x1fc-0x20d (17)
0x1f0|                                    10         |            .   |                n: 16 (valid) 0x1fc-0x1fd (1)
0x1f0|                                       00 01 02|             ...|                x: raw bits 0x1fd-0x20d (16)
0x200|03 04 05 06 07 08 09 10 11 12 13 14 15         |.............   |
     |                                               |                |            [1]{}: seg 0x20d-0x224 (23)
0x200|                                       00      |             .  |              tag: 0 (valid) 0x20d-0x20e (1)
     |                                               |                |              e[0:2]: 0x20e-0x213 (5)
     |                                               |                |                [0]{}: in 0x20e-0x212 (4)
0x200|                                          41   |              A |                  opcode: "i32.const" (0x41) 0x20e-0x20f (1)
0x200|                                             e1|               .|                  n: 65505 (valid) 0x20f-0x212 (3)
0x210|ff 03                                          |..              |
     |                                               |                |                [1]{}: in 0x212-0x213 (1)
0x210|      0b                                       |  .             |                  opcode: "end" (0xb) 0x212-0x213 (1)
     |                                               |                |              b{}: 0x213-0x224 (17)
0x210|         10                                    |   .            |                n: 16 (valid) 0x213-0x214 (1)
0x210|            16 17 18 19 20 21 22 23 24 25 26 27|    .... !"#$%&'|                x: raw bits 0x214-0x224 (16)
0x220|28 29 30 31|                                   |()01|           |
