$ fq -d wasm dv simd_i8x16_arith-0.wasm
    |00 01 02 03 04 05 06 07 08 09 0a 0b 0c 0d 0e 0f|0123456789abcdef|.{}: simd_i8x16_arith-0.wasm (wasm) 0x0-0x5f (95)
0x00|00 61 73 6d                                    |.asm            |  magic: raw bits (valid) 0x0-0x4 (4)
0x00|            01 00 00 00                        |    ....        |  version: 1 0x4-0x8 (4)
    |                                               |                |  sections[0:4]: 0x8-0x5f (87)
    |                                               |                |    [0]{}: section 0x8-0x16 (14)
0x00|                        01                     |        .       |      id: "type_section" (1) 0x8-0x9 (1)
0x00|                           0c                  |         .      |      size: 12 (valid) 0x9-0xa (1)
    |                                               |                |      content{}: 0xa-0x16 (12)
    |                                               |                |        ft{}: 0xa-0x16 (12)
0x00|                              02               |          .     |          n: 2 (valid) 0xa-0xb (1)
    |                                               |                |          x[0:2]: 0xb-0x16 (11)
    |                                               |                |            [0]{}: ft 0xb-0x11 (6)
0x00|                                 60            |           `    |              tag: 0x60 (valid) 0xb-0xc (1)
    |                                               |                |              rt1{}: 0xc-0xf (3)
0x00|                                    02         |            .   |                n: 2 (valid) 0xc-0xd (1)
    |                                               |                |                x[0:2]: 0xd-0xf (2)
0x00|                                       7b      |             {  |                  [0]: "v128" (0x7b) t 0xd-0xe (1)
0x00|                                          7b   |              { |                  [1]: "v128" (0x7b) t 0xe-0xf (1)
    |                                               |                |              rt2{}: 0xf-0x11 (2)
0x00|                                             01|               .|                n: 1 (valid) 0xf-0x10 (1)
    |                                               |                |                x[0:1]: 0x10-0x11 (1)
0x10|7b                                             |{               |                  [0]: "v128" (0x7b) t 0x10-0x11 (1)
    |                                               |                |            [1]{}: ft 0x11-0x16 (5)
0x10|   60                                          | `              |              tag: 0x60 (valid) 0x11-0x12 (1)
    |                                               |                |              rt1{}: 0x12-0x14 (2)
0x10|      01                                       |  .             |                n: 1 (valid) 0x12-0x13 (1)
    |                                               |                |                x[0:1]: 0x13-0x14 (1)
0x10|         7b                                    |   {            |                  [0]: "v128" (0x7b) t 0x13-0x14 (1)
    |                                               |                |              rt2{}: 0x14-0x16 (2)
0x10|            01                                 |    .           |                n: 1 (valid) 0x14-0x15 (1)
    |                                               |                |                x[0:1]: 0x15-0x16 (1)
0x10|               7b                              |     {          |                  [0]: "v128" (0x7b) t 0x15-0x16 (1)
    |                                               |                |    [1]{}: section 0x16-0x1c (6)
0x10|                  03                           |      .         |      id: "function_section" (3) 0x16-0x17 (1)
0x10|                     04                        |       .        |      size: 4 (valid) 0x17-0x18 (1)
    |                                               |                |      content{}: 0x18-0x1c (4)
    |                                               |                |        x{}: 0x18-0x1c (4)
0x10|                        03                     |        .       |          n: 3 (valid) 0x18-0x19 (1)
    |                                               |                |          x[0:3]: 0x19-0x1c (3)
0x10|                           00                  |         .      |            [0]: 0 x (valid) 0x19-0x1a (1)
0x10|                              00               |          .     |            [1]: 0 x (valid) 0x1a-0x1b (1)
0x10|                                 01            |           .    |            [2]: 1 x (valid) 0x1b-0x1c (1)
    |                                               |                |    [2]{}: section 0x1c-0x43 (39)
0x10|                                    07         |            .   |      id: "export_section" (7) 0x1c-0x1d (1)
0x10|                                       25      |             %  |      size: 37 (valid) 0x1d-0x1e (1)
    |                                               |                |      content{}: 0x1e-0x43 (37)
    |                                               |                |        ex{}: 0x1e-0x43 (37)
0x10|                                          03   |              . |          n: 3 (valid) 0x1e-0x1f (1)
    |                                               |                |          x[0:3]: 0x1f-0x43 (36)
    |                                               |                |            [0]{}: ex 0x1f-0x2b (12)
    |                                               |                |              nm{}: 0x1f-0x29 (10)
0x10|                                             09|               .|                n: 9 (valid) 0x1f-0x20 (1)
0x20|69 38 78 31 36 2e 61 64 64                     |i8x16.add       |                b: "i8x16.add" 0x20-0x29 (9)
    |                                               |                |              d{}: 0x29-0x2b (2)
0x20|                           00                  |         .      |                tag: "funcidx" (0x0) 0x29-0x2a (1)
0x20|                              00               |          .     |                x: 0 (valid) 0x2a-0x2b (1)
    |                                               |                |            [1]{}: ex 0x2b-0x37 (12)
    |                                               |                |              nm{}: 0x2b-0x35 (10)
0x20|                                 09            |           .    |                n: 9 (valid) 0x2b-0x2c (1)
0x20|                                    69 38 78 31|            i8x1|                b: "i8x16.sub" 0x2c-0x35 (9)
0x30|36 2e 73 75 62                                 |6.sub           |
    |                                               |                |              d{}: 0x35-0x37 (2)
0x30|               00                              |     .          |                tag: "funcidx" (0x0) 0x35-0x36 (1)
0x30|                  01                           |      .         |                x: 1 (valid) 0x36-0x37 (1)
    |                                               |                |            [2]{}: ex 0x37-0x43 (12)
    |                                               |                |              nm{}: 0x37-0x41 (10)
0x30|                     09                        |       .        |                n: 9 (valid) 0x37-0x38 (1)
0x30|                        69 38 78 31 36 2e 6e 65|        i8x16.ne|                b: "i8x16.neg" 0x38-0x41 (9)
0x40|67                                             |g               |
    |                                               |                |              d{}: 0x41-0x43 (2)
0x40|   00                                          | .              |                tag: "funcidx" (0x0) 0x41-0x42 (1)
0x40|      02                                       |  .             |                x: 2 (valid) 0x42-0x43 (1)
    |                                               |                |    [3]{}: section 0x43-0x5f (28)
0x40|         0a                                    |   .            |      id: "code_section" (10) 0x43-0x44 (1)
0x40|            1a                                 |    .           |      size: 26 (valid) 0x44-0x45 (1)
    |                                               |                |      content{}: 0x45-0x5f (26)
    |                                               |                |        code{}: 0x45-0x5f (26)
0x40|               03                              |     .          |          n: 3 (valid) 0x45-0x46 (1)
    |                                               |                |          x[0:3]: 0x46-0x5f (25)
    |                                               |                |            [0]{}: code 0x46-0x4f (9)
0x40|                  08                           |      .         |              size: 8 (valid) 0x46-0x47 (1)
    |                                               |                |              code{}: 0x47-0x4f (8)
    |                                               |                |                t{}: 0x47-0x48 (1)
0x40|                     00                        |       .        |                  n: 0 (valid) 0x47-0x48 (1)
    |                                               |                |                  x[0:0]: 0x48-0x48 (0)
    |                                               |                |                e[0:4]: 0x48-0x4f (7)
    |                                               |                |                  [0]{}: in 0x48-0x4a (2)
0x40|                        20                     |                |                    opcode: "local.get" (0x20) 0x48-0x49 (1)
0x40|                           00                  |         .      |                    x: 0 (valid) 0x49-0x4a (1)
    |                                               |                |                  [1]{}: in 0x4a-0x4c (2)
0x40|                              20               |                |                    opcode: "local.get" (0x20) 0x4a-0x4b (1)
0x40|                                 01            |           .    |                    x: 1 (valid) 0x4b-0x4c (1)
    |                                               |                |                  [2]{}: in 0x4c-0x4e (2)
0x40|                                    fd         |            .   |                    opcode: "vector" (0xfd) 0x4c-0x4d (1)
0x40|                                       6e      |             n  |                    v_opcode: "i8x16.add" (110) 0x4d-0x4e (1)
    |                                               |                |                  [3]{}: in 0x4e-0x4f (1)
0x40|                                          0b   |              . |                    opcode: "end" (0xb) 0x4e-0x4f (1)
    |                                               |                |            [1]{}: code 0x4f-0x58 (9)
0x40|                                             08|               .|              size: 8 (valid) 0x4f-0x50 (1)
    |                                               |                |              code{}: 0x50-0x58 (8)
    |                                               |                |                t{}: 0x50-0x51 (1)
0x50|00                                             |.               |                  n: 0 (valid) 0x50-0x51 (1)
    |                                               |                |                  x[0:0]: 0x51-0x51 (0)
    |                                               |                |                e[0:4]: 0x51-0x58 (7)
    |                                               |                |                  [0]{}: in 0x51-0x53 (2)
0x50|   20                                          |                |                    opcode: "local.get" (0x20) 0x51-0x52 (1)
0x50|      00                                       |  .             |                    x: 0 (valid) 0x52-0x53 (1)
    |                                               |                |                  [1]{}: in 0x53-0x55 (2)
0x50|         20                                    |                |                    opcode: "local.get" (0x20) 0x53-0x54 (1)
0x50|            01                                 |    .           |                    x: 1 (valid) 0x54-0x55 (1)
    |                                               |                |                  [2]{}: in 0x55-0x57 (2)
0x50|               fd                              |     .          |                    opcode: "vector" (0xfd) 0x55-0x56 (1)
0x50|                  71                           |      q         |                    v_opcode: "i8x16.sub" (113) 0x56-0x57 (1)
    |                                               |                |                  [3]{}: in 0x57-0x58 (1)
0x50|                     0b                        |       .        |                    opcode: "end" (0xb) 0x57-0x58 (1)
    |                                               |                |            [2]{}: code 0x58-0x5f (7)
0x50|                        06                     |        .       |              size: 6 (valid) 0x58-0x59 (1)
    |                                               |                |              code{}: 0x59-0x5f (6)
    |                                               |                |                t{}: 0x59-0x5a (1)
0x50|                           00                  |         .      |                  n: 0 (valid) 0x59-0x5a (1)
    |                                               |                |                  x[0:0]: 0x5a-0x5a (0)
    |                                               |                |                e[0:3]: 0x5a-0x5f (5)
    |                                               |                |                  [0]{}: in 0x5a-0x5c (2)
0x50|                              20               |                |                    opcode: "local.get" (0x20) 0x5a-0x5b (1)
0x50|                                 00            |           .    |                    x: 0 (valid) 0x5b-0x5c (1)
    |                                               |                |                  [1]{}: in 0x5c-0x5e (2)
0x50|                                    fd         |            .   |                    opcode: "vector" (0xfd) 0x5c-0x5d (1)
0x50|                                       61      |             a  |                    v_opcode: "i8x16.neg" (97) 0x5d-0x5e (1)
    |                                               |                |                  [2]{}: in 0x5e-0x5f (1)
0x50|                                          0b|  |              .||                    opcode: "end" (0xb) 0x5e-0x5f (1)
