$ fq -d wasm dv simd_const-307.wasm
    |00 01 02 03 04 05 06 07 08 09 0a 0b 0c 0d 0e 0f|0123456789abcdef|.{}: simd_const-307.wasm (wasm) 0x0-0x3c (60)
0x00|00 61 73 6d                                    |.asm            |  magic: raw bits (valid) 0x0-0x4 (4)
0x00|            01 00 00 00                        |    ....        |  version: 1 0x4-0x8 (4)
    |                                               |                |  sections[0:4]: 0x8-0x3c (52)
    |                                               |                |    [0]{}: section 0x8-0xf (7)
0x00|                        01                     |        .       |      id: "type_section" (1) 0x8-0x9 (1)
0x00|                           05                  |         .      |      size: 5 (valid) 0x9-0xa (1)
    |                                               |                |      content{}: 0xa-0xf (5)
    |                                               |                |        ft{}: 0xa-0xf (5)
0x00|                              01               |          .     |          n: 1 (valid) 0xa-0xb (1)
    |                                               |                |          x[0:1]: 0xb-0xf (4)
    |                                               |                |            [0]{}: ft 0xb-0xf (4)
0x00|                                 60            |           `    |              tag: 0x60 (valid) 0xb-0xc (1)
    |                                               |                |              rt1{}: 0xc-0xd (1)
0x00|                                    00         |            .   |                n: 0 (valid) 0xc-0xd (1)
    |                                               |                |                x[0:0]: 0xd-0xd (0)
    |                                               |                |              rt2{}: 0xd-0xf (2)
0x00|                                       01      |             .  |                n: 1 (valid) 0xd-0xe (1)
    |                                               |                |                x[0:1]: 0xe-0xf (1)
0x00|                                          7b   |              { |                  [0]: "v128" (0x7b) t 0xe-0xf (1)
    |                                               |                |    [1]{}: section 0xf-0x13 (4)
0x00|                                             03|               .|      id: "function_section" (3) 0xf-0x10 (1)
0x10|02                                             |.               |      size: 2 (valid) 0x10-0x11 (1)
    |                                               |                |      content{}: 0x11-0x13 (2)
    |                                               |                |        x{}: 0x11-0x13 (2)
0x10|   01                                          | .              |          n: 1 (valid) 0x11-0x12 (1)
    |                                               |                |          x[0:1]: 0x12-0x13 (1)
0x10|      00                                       |  .             |            [0]: 0 x (valid) 0x12-0x13 (1)
    |                                               |                |    [2]{}: section 0x13-0x24 (17)
0x10|         07                                    |   .            |      id: "export_section" (7) 0x13-0x14 (1)
0x10|            0f                                 |    .           |      size: 15 (valid) 0x14-0x15 (1)
    |                                               |                |      content{}: 0x15-0x24 (15)
    |                                               |                |        ex{}: 0x15-0x24 (15)
0x10|               01                              |     .          |          n: 1 (valid) 0x15-0x16 (1)
    |                                               |                |          x[0:1]: 0x16-0x24 (14)
    |                                               |                |            [0]{}: ex 0x16-0x24 (14)
    |                                               |                |              nm{}: 0x16-0x22 (12)
0x10|                  0b                           |      .         |                n: 11 (valid) 0x16-0x17 (1)
0x10|                     70 61 72 73 65 5f 69 31 36|       parse_i16|                b: "parse_i16x8" 0x17-0x22 (11)
0x20|78 38                                          |x8              |
    |                                               |                |              d{}: 0x22-0x24 (2)
0x20|      00                                       |  .             |                tag: "funcidx" (0x0) 0x22-0x23 (1)
0x20|         00                                    |   .            |                x: 0 (valid) 0x23-0x24 (1)
    |                                               |                |    [3]{}: section 0x24-0x3c (24)
0x20|            0a                                 |    .           |      id: "code_section" (10) 0x24-0x25 (1)
0x20|               16                              |     .          |      size: 22 (valid) 0x25-0x26 (1)
    |                                               |                |      content{}: 0x26-0x3c (22)
    |                                               |                |        code{}: 0x26-0x3c (22)
0x20|                  01                           |      .         |          n: 1 (valid) 0x26-0x27 (1)
    |                                               |                |          x[0:1]: 0x27-0x3c (21)
    |                                               |                |            [0]{}: code 0x27-0x3c (21)
0x20|                     14                        |       .        |              size: 20 (valid) 0x27-0x28 (1)
    |                                               |                |              code{}: 0x28-0x3c (20)
    |                                               |                |                t{}: 0x28-0x29 (1)
0x20|                        00                     |        .       |                  n: 0 (valid) 0x28-0x29 (1)
    |                                               |                |                  x[0:0]: 0x29-0x29 (0)
    |                                               |                |                e[0:2]: 0x29-0x3c (19)
    |                                               |                |                  [0]{}: in 0x29-0x3b (18)
0x20|                           fd                  |         .      |                    opcode: "vector" (0xfd) 0x29-0x2a (1)
0x20|                              0c               |          .     |                    v_opcode: "v128.const" (12) 0x2a-0x2b (1)
0x20|                                 00 00 00 00 00|           .....|                    bytes: raw bits 0x2b-0x3b (16)
0x30|80 00 80 ff ff ff ff ff ff ff ff               |...........     |
    |                                               |                |                  [1]{}: in 0x3b-0x3c (1)
0x30|                                 0b|           |           .|   |                    opcode: "end" (0xb) 0x3b-0x3c (1)
