$ fq -d wasm dv simd_load_extend-1.wasm
     |00 01 02 03 04 05 06 07 08 09 0a 0b 0c 0d 0e 0f|0123456789abcdef|.{}: simd_load_extend-1.wasm (wasm) 0x0-0x393 (915)
0x000|00 61 73 6d                                    |.asm            |  magic: raw bits (valid) 0x0-0x4 (4)
0x000|            01 00 00 00                        |    ....        |  version: 1 0x4-0x8 (4)
     |                                               |                |  sections[0:6]: 0x8-0x393 (907)
     |                                               |                |    [0]{}: section 0x8-0x13 (11)
0x000|                        01                     |        .       |      id: "type_section" (1) 0x8-0x9 (1)
0x000|                           09                  |         .      |      size: 9 (valid) 0x9-0xa (1)
     |                                               |                |      content{}: 0xa-0x13 (9)
     |                                               |                |        ft{}: 0xa-0x13 (9)
0x000|                              02               |          .     |          n: 2 (valid) 0xa-0xb (1)
     |                                               |                |          x[0:2]: 0xb-0x13 (8)
     |                                               |                |            [0]{}: ft 0xb-0xf (4)
0x000|                                 60            |           `    |              tag: 0x60 (valid) 0xb-0xc (1)
     |                                               |                |              rt1{}: 0xc-0xd (1)
0x000|                                    00         |            .   |                n: 0 (valid) 0xc-0xd (1)
     |                                               |                |                x[0:0]: 0xd-0xd (0)
     |                                               |                |              rt2{}: 0xd-0xf (2)
0x000|                                       01      |             .  |                n: 1 (valid) 0xd-0xe (1)
     |                                               |                |                x[0:1]: 0xe-0xf (1)
0x000|                                          7b   |              { |                  [0]: "v128" (0x7b) t 0xe-0xf (1)
     |                                               |                |            [1]{}: ft 0xf-0x13 (4)
0x000|                                             60|               `|              tag: 0x60 (valid) 0xf-0x10 (1)
     |                                               |                |              rt1{}: 0x10-0x11 (1)
0x010|00                                             |.               |                n: 0 (valid) 0x10-0x11 (1)
     |                                               |                |                x[0:0]: 0x11-0x11 (0)
     |                                               |                |              rt2{}: 0x11-0x13 (2)
0x010|   01                                          | .              |                n: 1 (valid) 0x11-0x12 (1)
     |                                               |                |                x[0:1]: 0x12-0x13 (1)
0x010|      7f                                       |  .             |                  [0]: "i32" (0x7f) t 0x12-0x13 (1)
     |                                               |                |    [1]{}: section 0x13-0x28 (21)
0x010|         03                                    |   .            |      id: "function_section" (3) 0x13-0x14 (1)
0x010|            13                                 |    .           |      size: 19 (valid) 0x14-0x15 (1)
     |                                               |                |      content{}: 0x15-0x28 (19)
     |                                               |                |        x{}: 0x15-0x28 (19)
0x010|               12                              |     .          |          n: 18 (valid) 0x15-0x16 (1)
     |                                               |                |          x[0:18]: 0x16-0x28 (18)
0x010|                  00                           |      .         |            [0]: 0 x (valid) 0x16-0x17 (1)
0x010|                     00                        |       .        |            [1]: 0 x (valid) 0x17-0x18 (1)
0x010|                        00                     |        .       |            [2]: 0 x (valid) 0x18-0x19 (1)
0x010|                           00                  |         .      |            [3]: 0 x (valid) 0x19-0x1a (1)
0x010|                              00               |          .     |            [4]: 0 x (valid) 0x1a-0x1b (1)
0x010|                                 00            |           .    |            [5]: 0 x (valid) 0x1b-0x1c (1)
0x010|                                    00         |            .   |            [6]: 0 x (valid) 0x1c-0x1d (1)
0x010|                                       00      |             .  |            [7]: 0 x (valid) 0x1d-0x1e (1)
0x010|                                          00   |              . |            [8]: 0 x (valid) 0x1e-0x1f (1)
0x010|                                             00|               .|            [9]: 0 x (valid) 0x1f-0x20 (1)
0x020|00                                             |.               |            [10]: 0 x (valid) 0x20-0x21 (1)
0x020|   00                                          | .              |            [11]: 0 x (valid) 0x21-0x22 (1)
0x020|      01                                       |  .             |            [12]: 1 x (valid) 0x22-0x23 (1)
0x020|         01                                    |   .            |            [13]: 1 x (valid) 0x23-0x24 (1)
0x020|            01                                 |    .           |            [14]: 1 x (valid) 0x24-0x25 (1)
0x020|               01                              |     .          |            [15]: 1 x (valid) 0x25-0x26 (1)
0x020|                  01                           |      .         |            [16]: 1 x (valid) 0x26-0x27 (1)
0x020|                     01                        |       .        |            [17]: 1 x (valid) 0x27-0x28 (1)
     |                                               |                |    [2]{}: section 0x28-0x2d (5)
0x020|                        05                     |        .       |      id: "memory_section" (5) 0x28-0x29 (1)
0x020|                           03                  |         .      |      size: 3 (valid) 0x29-0x2a (1)
     |                                               |                |      content{}: 0x2a-0x2d (3)
     |                                               |                |        mem{}: 0x2a-0x2d (3)
0x020|                              01               |          .     |          n: 1 (valid) 0x2a-0x2b (1)
     |                                               |                |          x[0:1]: 0x2b-0x2d (2)
     |                                               |                |            [0]{}: mem 0x2b-0x2d (2)
     |                                               |                |              lim{}: 0x2b-0x2d (2)
0x020|                                 00            |           .    |                tag: 0x0 0x2b-0x2c (1)
0x020|                                    01         |            .   |                n: 1 (valid) 0x2c-0x2d (1)
     |                                               |                |    [3]{}: section 0x2d-0x277 (586)
0x020|                                       07      |             .  |      id: "export_section" (7) 0x2d-0x2e (1)
0x020|                                          c7 04|              ..|      size: 583 (valid) 0x2e-0x30 (2)
     |                                               |                |      content{}: 0x30-0x277 (583)
     |                                               |                |        ex{}: 0x30-0x277 (583)
0x030|12                                             |.               |          n: 18 (valid) 0x30-0x31 (1)
     |                                               |                |          x[0:18]: 0x31-0x277 (582)
     |                                               |                |            [0]{}: ex 0x31-0x4b (26)
     |                                               |                |              nm{}: 0x31-0x49 (24)
0x030|   17                                          | .              |                n: 23 (valid) 0x31-0x32 (1)
0x030|      76 31 32 38 2e 6c 6f 61 64 38 78 38 5f 73|  v128.load8x8_s|                b: "v128.load8x8_s-in-block" 0x32-0x49 (23)
0x040|2d 69 6e 2d 62 6c 6f 63 6b                     |-in-block       |
     |                                               |                |              d{}: 0x49-0x4b (2)
0x040|                           00                  |         .      |                tag: "funcidx" (0x0) 0x49-0x4a (1)
0x040|                              00               |          .     |                x: 0 (valid) 0x4a-0x4b (1)
     |                                               |                |            [1]{}: ex 0x4b-0x65 (26)
     |                                               |                |              nm{}: 0x4b-0x63 (24)
0x040|                                 17            |           .    |                n: 23 (valid) 0x4b-0x4c (1)
0x040|                                    76 31 32 38|            v128|                b: "v128.load8x8_u-in-block" 0x4c-0x63 (23)
0x050|2e 6c 6f 61 64 38 78 38 5f 75 2d 69 6e 2d 62 6c|.load8x8_u-in-bl|
0x060|6f 63 6b                                       |ock             |
     |                                               |                |              d{}: 0x63-0x65 (2)
0x060|         00                                    |   .            |                tag: "funcidx" (0x0) 0x63-0x64 (1)
0x060|            01                                 |    .           |                x: 1 (valid) 0x64-0x65 (1)
     |                                               |                |            [2]{}: ex 0x65-0x80 (27)
     |                                               |                |              nm{}: 0x65-0x7e (25)
0x060|               18                              |     .          |                n: 24 (valid) 0x65-0x66 (1)
0x060|                  76 31 32 38 2e 6c 6f 61 64 31|      v128.load1|                b: "v128.load16x4_s-in-block" 0x66-0x7e (24)
0x070|36 78 34 5f 73 2d 69 6e 2d 62 6c 6f 63 6b      |6x4_s-in-block  |
     |                                               |                |              d{}: 0x7e-0x80 (2)
0x070|                                          00   |              . |                tag: "funcidx" (0x0) 0x7e-0x7f (1)
0x070|                                             02|               .|                x: 2 (valid) 0x7f-0x80 (1)
     |                                               |                |            [3]{}: ex 0x80-0x9b (27)
     |                                               |                |              nm{}: 0x80-0x99 (25)
0x080|18                                             |.               |                n: 24 (valid) 0x80-0x81 (1)
0x080|   76 31 32 38 2e 6c 6f 61 64 31 36 78 34 5f 75| v128.load16x4_u|                b: "v128.load16x4_u-in-block" 0x81-0x99 (24)
0x090|2d 69 6e 2d 62 6c 6f 63 6b                     |-in-block       |
     |                                               |                |              d{}: 0x99-0x9b (2)
0x090|                           00                  |         .      |                tag: "funcidx" (0x0) 0x99-0x9a (1)
0x090|                              03               |          .     |                x: 3 (valid) 0x9a-0x9b (1)
     |                                               |                |            [4]{}: ex 0x9b-0xb6 (27)
     |                                               |                |              nm{}: 0x9b-0xb4 (25)
0x090|                                 18            |           .    |                n: 24 (valid) 0x9b-0x9c (1)
0x090|                                    76 31 32 38|            v128|                b: "v128.load32x2_s-in-block" 0x9c-0xb4 (24)
0x0a0|2e 6c 6f 61 64 33 32 78 32 5f 73 2d 69 6e 2d 62|.load32x2_s-in-b|
0x0b0|6c 6f 63 6b                                    |lock            |
     |                                               |                |              d{}: 0xb4-0xb6 (2)
0x0b0|            00                                 |    .           |                tag: "funcidx" (0x0) 0xb4-0xb5 (1)
0x0b0|               04                              |     .          |                x: 4 (valid) 0xb5-0xb6 (1)
     |                                               |                |            [5]{}: ex 0xb6-0xd1 (27)
     |                                               |                |              nm{}: 0xb6-0xcf (25)
0x0b0|                  18                           |      .         |                n: 24 (valid) 0xb6-0xb7 (1)
0x0b0|                     76 31 32 38 2e 6c 6f 61 64|       v128.load|                b: "v128.load32x2_u-in-block" 0xb7-0xcf (24)
0x0c0|33 32 78 32 5f 75 2d 69 6e 2d 62 6c 6f 63 6b   |32x2_u-in-block |
     |                                               |                |              d{}: 0xcf-0xd1 (2)
0x0c0|                                             00|               .|                tag: "funcidx" (0x0) 0xcf-0xd0 (1)
0x0d0|05                                             |.               |                x: 5 (valid) 0xd0-0xd1 (1)
     |                                               |                |            [6]{}: ex 0xd1-0xee (29)
     |                                               |                |              nm{}: 0xd1-0xec (27)
0x0d0|   1a                                          | .              |                n: 26 (valid) 0xd1-0xd2 (1)
0x0d0|      76 31 32 38 2e 6c 6f 61 64 38 78 38 5f 73|  v128.load8x8_s|                b: "v128.load8x8_s-as-br-value" 0xd2-0xec (26)
0x0e0|2d 61 73 2d 62 72 2d 76 61 6c 75 65            |-as-br-value    |
     |                                               |                |              d{}: 0xec-0xee (2)
0x0e0|                                    00         |            .   |                tag: "funcidx" (0x0) 0xec-0xed (1)
0x0e0|                                       06      |             .  |                x: 6 (valid) 0xed-0xee (1)
     |                                               |                |            [7]{}: ex 0xee-0x10b (29)
     |                                               |                |              nm{}: 0xee-0x109 (27)
0x0e0|                                          1a   |              . |                n: 26 (valid) 0xee-0xef (1)
0x0e0|                                             76|               v|                b: "v128.load8x8_u-as-br-value" 0xef-0x109 (26)
0x0f0|31 32 38 2e 6c 6f 61 64 38 78 38 5f 75 2d 61 73|128.load8x8_u-as|
0x100|2d 62 72 2d 76 61 6c 75 65                     |-br-value       |
     |                                               |                |              d{}: 0x109-0x10b (2)
0x100|                           00                  |         .      |                tag: "funcidx" (0x0) 0x109-0x10a (1)
0x100|                              07               |          .     |                x: 7 (valid) 0x10a-0x10b (1)
     |                                               |                |            [8]{}: ex 0x10b-0x129 (30)
     |                                               |                |              nm{}: 0x10b-0x127 (28)
0x100|                                 1b            |           .    |                n: 27 (valid) 0x10b-0x10c (1)
0x100|                                    76 31 32 38|            v128|                b: "v128.load16x4_s-as-br-value" 0x10c-0x127 (27)
0x110|2e 6c 6f 61 64 31 36 78 34 5f 73 2d 61 73 2d 62|.load16x4_s-as-b|
0x120|72 2d 76 61 6c 75 65                           |r-value         |
     |                                               |                |              d{}: 0x127-0x129 (2)
0x120|                     00                        |       .        |                tag: "funcidx" (0x0) 0x127-0x128 (1)
0x120|                        08                     |        .       |                x: 8 (valid) 0x128-0x129 (1)
     |                                               |                |            [9]{}: ex 0x129-0x147 (30)
     |                                               |                |              nm{}: 0x129-0x145 (28)
0x120|                           1b                  |         .      |                n: 27 (valid) 0x129-0x12a (1)
0x120|                              76 31 32 38 2e 6c|          v128.l|                b: "v128.load16x4_u-as-br-value" 0x12a-0x145 (27)
0x130|6f 61 64 31 36 78 34 5f 75 2d 61 73 2d 62 72 2d|oad16x4_u-as-br-|
0x140|76 61 6c 75 65                                 |value           |
     |                                               |                |              d{}: 0x145-0x147 (2)
0x140|               00                              |     .          |                tag: "funcidx" (0x0) 0x145-0x146 (1)
0x140|                  09                           |      .         |                x: 9 (valid) 0x146-0x147 (1)
     |                                               |                |            [10]{}: ex 0x147-0x165 (30)
     |                                               |                |              nm{}: 0x147-0x163 (28)
0x140|                     1b                        |       .        |                n: 27 (valid) 0x147-0x148 (1)
0x140|                        76 31 32 38 2e 6c 6f 61|        v128.loa|                b: "v128.load32x2_s-as-br-value" 0x148-0x163 (27)
0x150|64 33 32 78 32 5f 73 2d 61 73 2d 62 72 2d 76 61|d32x2_s-as-br-va|
0x160|6c 75 65                                       |lue             |
     |                                               |                |              d{}: 0x163-0x165 (2)
0x160|         00                                    |   .            |                tag: "funcidx" (0x0) 0x163-0x164 (1)
0x160|            0a                                 |    .           |                x: 10 (valid) 0x164-0x165 (1)
     |                                               |                |            [11]{}: ex 0x165-0x183 (30)
     |                                               |                |              nm{}: 0x165-0x181 (28)
0x160|               1b                              |     .          |                n: 27 (valid) 0x165-0x166 (1)
0x160|                  76 31 32 38 2e 6c 6f 61 64 33|      v128.load3|                b: "v128.load32x2_u-as-br-value" 0x166-0x181 (27)
0x170|32 78 32 5f 75 2d 61 73 2d 62 72 2d 76 61 6c 75|2x2_u-as-br-valu|
0x180|65                                             |e               |
     |                                               |                |              d{}: 0x181-0x183 (2)
0x180|   00                                          | .              |                tag: "funcidx" (0x0) 0x181-0x182 (1)
0x180|      0b                                       |  .             |                x: 11 (valid) 0x182-0x183 (1)
     |                                               |                |            [12]{}: ex 0x183-0x1ab (40)
     |                                               |                |              nm{}: 0x183-0x1a9 (38)
0x180|         25                                    |   %            |                n: 37 (valid) 0x183-0x184 (1)
0x180|            76 31 32 38 2e 6c 6f 61 64 38 78 38|    v128.load8x8|                b: "v128.load8x8_s-extract_lane_s-operand" 0x184-0x1a9 (37)
0x190|5f 73 2d 65 78 74 72 61 63 74 5f 6c 61 6e 65 5f|_s-extract_lane_|
0x1a0|73 2d 6f 70 65 72 61 6e 64                     |s-operand       |
     |                                               |                |              d{}: 0x1a9-0x1ab (2)
0x1a0|                           00                  |         .      |                tag: "funcidx" (0x0) 0x1a9-0x1aa (1)
0x1a0|                              0c               |          .     |                x: 12 (valid) 0x1aa-0x1ab (1)
     |                                               |                |            [13]{}: ex 0x1ab-0x1d3 (40)
     |                                               |                |              nm{}: 0x1ab-0x1d1 (38)
0x1a0|                                 25            |           %    |                n: 37 (valid) 0x1ab-0x1ac (1)
0x1a0|                                    76 31 32 38|            v128|                b: "v128.load8x8_u-extract_lane_s-operand" 0x1ac-0x1d1 (37)
0x1b0|2e 6c 6f 61 64 38 78 38 5f 75 2d 65 78 74 72 61|.load8x8_u-extra|
*    |until 0x1d0.7 (37)                             |                |
     |                                               |                |              d{}: 0x1d1-0x1d3 (2)
0x1d0|   00                                          | .              |                tag: "funcidx" (0x0) 0x1d1-0x1d2 (1)
0x1d0|      0d                                       |  .             |                x: 13 (valid) 0x1d2-0x1d3 (1)
     |                                               |                |            [14]{}: ex 0x1d3-0x1fc (41)
     |                                               |                |              nm{}: 0x1d3-0x1fa (39)
0x1d0|         26                                    |   &            |                n: 38 (valid) 0x1d3-0x1d4 (1)
0x1d0|            76 31 32 38 2e 6c 6f 61 64 31 36 78|    v128.load16x|                b: "v128.load16x4_s-extract_lane_s-operand" 0x1d4-0x1fa (38)
0x1e0|34 5f 73 2d 65 78 74 72 61 63 74 5f 6c 61 6e 65|4_s-extract_lane|
0x1f0|5f 73 2d 6f 70 65 72 61 6e 64                  |_s-operand      |
     |                                               |                |              d{}: 0x1fa-0x1fc (2)
0x1f0|                              00               |          .     |                tag: "funcidx" (0x0) 0x1fa-0x1fb (1)
0x1f0|                                 0e            |           .    |                x: 14 (valid) 0x1fb-0x1fc (1)
     |                                               |                |            [15]{}: ex 0x1fc-0x225 (41)
     |                                               |                |              nm{}: 0x1fc-0x223 (39)
0x1f0|                                    26         |            &   |                n: 38 (valid) 0x1fc-0x1fd (1)
0x1f0|                                       76 31 32|             v12|                b: "v128.load16x4_u-extract_lane_s-operand" 0x1fd-0x223 (38)
0x200|38 2e 6c 6f 61 64 31 36 78 34 5f 75 2d 65 78 74|8.load16x4_u-ext|
*    |until 0x222.7 (38)                             |                |
     |                                               |                |              d{}: 0x223-0x225 (2)
0x220|         00                                    |   .            |                tag: "funcidx" (0x0) 0x223-0x224 (1)
0x220|            0f                                 |    .           |                x: 15 (valid) 0x224-0x225 (1)
     |                                               |                |            [16]{}: ex 0x225-0x24e (41)
     |                                               |                |              nm{}: 0x225-0x24c (39)
0x220|               26                              |     &          |                n: 38 (valid) 0x225-0x226 (1)
0x220|                  76 31 32 38 2e 6c 6f 61 64 33|      v128.load3|                b: "v128.load32x2_s-extract_lane_s-operand" 0x226-0x24c (38)
0x230|32 78 32 5f 73 2d 65 78 74 72 61 63 74 5f 6c 61|2x2_s-extract_la|
0x240|6e 65 5f 73 2d 6f 70 65 72 61 6e 64            |ne_s-operand    |
     |                                               |                |              d{}: 0x24c-0x24e (2)
0x240|                                    00         |            .   |                tag: "funcidx" (0x0) 0x24c-0x24d (1)
0x240|                                       10      |             .  |                x: 16 (valid) 0x24d-0x24e (1)
     |                                               |                |            [17]{}: ex 0x24e-0x277 (41)
     |                                               |                |              nm{}: 0x24e-0x275 (39)
0x240|                                          26   |              & |                n: 38 (valid) 0x24e-0x24f (1)
0x240|                                             76|               v|                b: "v128.load32x2_u-extract_lane_s-operand" 0x24f-0x275 (38)
0x250|31 32 38 2e 6c 6f 61 64 33 32 78 32 5f 75 2d 65|128.load32x2_u-e|
*    |until 0x274.7 (38)                             |                |
     |                                               |                |              d{}: 0x275-0x277 (2)
0x270|               00                              |     .          |                tag: "funcidx" (0x0) 0x275-0x276 (1)
0x270|                  11                           |      .         |                x: 17 (valid) 0x276-0x277 (1)
     |                                               |                |    [4]{}: section 0x277-0x371 (250)
0x270|                     0a                        |       .        |      id: "code_section" (10) 0x277-0x278 (1)
0x270|                        f7 01                  |        ..      |      size: 247 (valid) 0x278-0x27a (2)
     |                                               |                |      content{}: 0x27a-0x371 (247)
     |                                               |                |        code{}: 0x27a-0x371 (247)
0x270|                              12               |          .     |          n: 18 (valid) 0x27a-0x27b (1)
     |                                               |                |          x[0:18]: 0x27b-0x371 (246)
     |                                               |                |            [0]{}: code 0x27b-0x28a (15)
0x270|                                 0e            |           .    |              size: 14 (valid) 0x27b-0x27c (1)
     |                                               |                |              code{}: 0x27c-0x28a (14)
     |                                               |                |                t{}: 0x27c-0x27d (1)
0x270|                                    00         |            .   |                  n: 0 (valid) 0x27c-0x27d (1)
     |                                               |                |                  x[0:0]: 0x27d-0x27d (0)
     |                                               |                |                e[0:2]: 0x27d-0x28a (13)
     |                                               |                |                  [0]{}: in 0x27d-0x289 (12)
0x270|                                       02      |             .  |                    opcode: "block" (0x2) 0x27d-0x27e (1)
0x270|                                          7b   |              { |                    bt: "v128" (123) 0x27e-0x27f (1)
     |                                               |                |                    instructions[0:1]: 0x27f-0x288 (9)
     |                                               |                |                      [0]{}: instr 0x27f-0x288 (9)
0x270|                                             02|               .|                        opcode: "block" (0x2) 0x27f-0x280 (1)
0x280|7b                                             |{               |                        bt: "v128" (123) 0x280-0x281 (1)
     |                                               |                |                        instructions[0:2]: 0x281-0x287 (6)
     |                                               |                |                          [0]{}: instr 0x281-0x283 (2)
0x280|   41                                          | A              |                            opcode: "i32.const" (0x41) 0x281-0x282 (1)
0x280|      00                                       |  .             |                            n: 0 (valid) 0x282-0x283 (1)
     |                                               |                |                          [1]{}: instr 0x283-0x287 (4)
0x280|         fd                                    |   .            |                            opcode: "vector" (0xfd) 0x283-0x284 (1)
0x280|            01                                 |    .           |                            v_opcode: "v128.load8x8_s" (1) 0x284-0x285 (1)
     |                                               |                |                            m{}: 0x285-0x287 (2)
0x280|               03                              |     .          |                              a: 3 (valid) 0x285-0x286 (1)
0x280|                  00                           |      .         |                              o: 0 (valid) 0x286-0x287 (1)
0x280|                     0b                        |       .        |                        end: 0xb (valid) 0x287-0x288 (1)
0x280|                        0b                     |        .       |                    end: 0xb (valid) 0x288-0x289 (1)
     |                                               |                |                  [1]{}: in 0x289-0x28a (1)
0x280|                           0b                  |         .      |                    opcode: "end" (0xb) 0x289-0x28a (1)
     |                                               |                |            [1]{}: code 0x28a-0x299 (15)
0x280|                              0e               |          .     |              size: 14 (valid) 0x28a-0x28b (1)
     |                                               |                |              code{}: 0x28b-0x299 (14)
     |                                               |                |                t{}: 0x28b-0x28c (1)
0x280|                                 00            |           .    |                  n: 0 (valid) 0x28b-0x28c (1)
     |                                               |                |                  x[0:0]: 0x28c-0x28c (0)
     |                                               |                |                e[0:2]: 0x28c-0x299 (13)
     |                                               |                |                  [0]{}: in 0x28c-0x298 (12)
0x280|                                    02         |            .   |                    opcode: "block" (0x2) 0x28c-0x28d (1)
0x280|                                       7b      |             {  |                    bt: "v128" (123) 0x28d-0x28e (1)
     |                                               |                |                    instructions[0:1]: 0x28e-0x297 (9)
     |                                               |                |                      [0]{}: instr 0x28e-0x297 (9)
0x280|                                          02   |              . |                        opcode: "block" (0x2) 0x28e-0x28f (1)
0x280|                                             7b|               {|                        bt: "v128" (123) 0x28f-0x290 (1)
     |                                               |                |                        instructions[0:2]: 0x290-0x296 (6)
     |                                               |                |                          [0]{}: instr 0x290-0x292 (2)
0x290|41                                             |A               |                            opcode: "i32.const" (0x41) 0x290-0x291 (1)
0x290|   01                                          | .              |                            n: 1 (valid) 0x291-0x292 (1)
     |                                               |                |                          [1]{}: instr 0x292-0x296 (4)
0x290|      fd                                       |  .             |                            opcode: "vector" (0xfd) 0x292-0x293 (1)
0x290|         02                                    |   .            |                            v_opcode: "v128.load8x8_u" (2) 0x293-0x294 (1)
     |                                               |                |                            m{}: 0x294-0x296 (2)
0x290|            03                                 |    .           |                              a: 3 (valid) 0x294-0x295 (1)
0x290|               00                              |     .          |                              o: 0 (valid) 0x295-0x296 (1)
0x290|                  0b                           |      .         |                        end: 0xb (valid) 0x296-0x297 (1)
0x290|                     0b                        |       .        |                    end: 0xb (valid) 0x297-0x298 (1)
     |                                               |                |                  [1]{}: in 0x298-0x299 (1)
0x290|                        0b                     |        .       |                    opcode: "end" (0xb) 0x298-0x299 (1)
     |                                               |                |            [2]{}: code 0x299-0x2a8 (15)
0x290|                           0e                  |         .      |              size: 14 (valid) 0x299-0x29a (1)
     |                                               |                |              code{}: 0x29a-0x2a8 (14)
     |                                               |                |                t{}: 0x29a-0x29b (1)
0x290|                              00               |          .     |                  n: 0 (valid) 0x29a-0x29b (1)
     |                                               |                |                  x[0:0]: 0x29b-0x29b (0)
     |                                               |                |                e[0:2]: 0x29b-0x2a8 (13)
     |                                               |                |                  [0]{}: in 0x29b-0x2a7 (12)
0x290|                                 02            |           .    |                    opcode: "block" (0x2) 0x29b-0x29c (1)
0x290|                                    7b         |            {   |                    bt: "v128" (123) 0x29c-0x29d (1)
     |                                               |                |                    instructions[0:1]: 0x29d-0x2a6 (9)
     |                                               |                |                      [0]{}: instr 0x29d-0x2a6 (9)
0x290|                                       02      |             .  |                        opcode: "block" (0x2) 0x29d-0x29e (1)
0x290|                                          7b   |              { |                        bt: "v128" (123) 0x29e-0x29f (1)
     |                                               |                |                        instructions[0:2]: 0x29f-0x2a5 (6)
     |                                               |                |                          [0]{}: instr 0x29f-0x2a1 (2)
0x290|                                             41|               A|                            opcode: "i32.const" (0x41) 0x29f-0x2a0 (1)
0x2a0|02                                             |.               |                            n: 2 (valid) 0x2a0-0x2a1 (1)
     |                                               |                |                          [1]{}: instr 0x2a1-0x2a5 (4)
0x2a0|   fd                                          | .              |                            opcode: "vector" (0xfd) 0x2a1-0x2a2 (1)
0x2a0|      03                                       |  .             |                            v_opcode: "v128.load16x4_s" (3) 0x2a2-0x2a3 (1)
     |                                               |                |                            m{}: 0x2a3-0x2a5 (2)
0x2a0|         03                                    |   .            |                              a: 3 (valid) 0x2a3-0x2a4 (1)
0x2a0|            00                                 |    .           |                              o: 0 (valid) 0x2a4-0x2a5 (1)
0x2a0|               0b                              |     .          |                        end: 0xb (valid) 0x2a5-0x2a6 (1)
0x2a0|                  0b                           |      .         |                    end: 0xb (valid) 0x2a6-0x2a7 (1)
     |                                               |                |                  [1]{}: in 0x2a7-0x2a8 (1)
0x2a0|                     0b                        |       .        |                    opcode: "end" (0xb) 0x2a7-0x2a8 (1)
     |                                               |                |            [3]{}: code 0x2a8-0x2b7 (15)
0x2a0|                        0e                     |        .       |              size: 14 (valid) 0x2a8-0x2a9 (1)
     |                                               |                |              code{}: 0x2a9-0x2b7 (14)
     |                                               |                |                t{}: 0x2a9-0x2aa (1)
0x2a0|                           00                  |         .      |                  n: 0 (valid) 0x2a9-0x2aa (1)
     |                                               |                |                  x[0:0]: 0x2aa-0x2aa (0)
     |                                               |                |                e[0:2]: 0x2aa-0x2b7 (13)
     |                                               |                |                  [0]{}: in 0x2aa-0x2b6 (12)
0x2a0|                              02               |          .     |                    opcode: "block" (0x2) 0x2aa-0x2ab (1)
0x2a0|                                 7b            |           {    |                    bt: "v128" (123) 0x2ab-0x2ac (1)
     |                                               |                |                    instructions[0:1]: 0x2ac-0x2b5 (9)
     |                                               |                |                      [0]{}: instr 0x2ac-0x2b5 (9)
0x2a0|                                    02         |            .   |                        opcode: "block" (0x2) 0x2ac-0x2ad (1)
0x2a0|                                       7b      |             {  |                        bt: "v128" (123) 0x2ad-0x2ae (1)
     |                                               |                |                        instructions[0:2]: 0x2ae-0x2b4 (6)
     |                                               |                |                          [0]{}: instr 0x2ae-0x2b0 (2)
0x2a0|                                          41   |              A |                            opcode: "i32.const" (0x41) 0x2ae-0x2af (1)
0x2a0|                                             03|               .|                            n: 3 (valid) 0x2af-0x2b0 (1)
     |                                               |                |                          [1]{}: instr 0x2b0-0x2b4 (4)
0x2b0|fd                                             |.               |                            opcode: "vector" (0xfd) 0x2b0-0x2b1 (1)
0x2b0|   04                                          | .              |                            v_opcode: "v128.load16x4_u" (4) 0x2b1-0x2b2 (1)
     |                                               |                |                            m{}: 0x2b2-0x2b4 (2)
0x2b0|      03                                       |  .             |                              a: 3 (valid) 0x2b2-0x2b3 (1)
0x2b0|         00                                    |   .            |                              o: 0 (valid) 0x2b3-0x2b4 (1)
0x2b0|            0b                                 |    .           |                        end: 0xb (valid) 0x2b4-0x2b5 (1)
0x2b0|               0b                              |     .          |                    end: 0xb (valid) 0x2b5-0x2b6 (1)
     |                                               |                |                  [1]{}: in 0x2b6-0x2b7 (1)
0x2b0|                  0b                           |      .         |                    opcode: "end" (0xb) 0x2b6-0x2b7 (1)
     |                                               |                |            [4]{}: code 0x2b7-0x2c6 (15)
0x2b0|                     0e                        |       .        |              size: 14 (valid) 0x2b7-0x2b8 (1)
     |                                               |                |              code{}: 0x2b8-0x2c6 (14)
     |                                               |                |                t{}: 0x2b8-0x2b9 (1)
0x2b0|                        00                     |        .       |                  n: 0 (valid) 0x2b8-0x2b9 (1)
     |                                               |                |                  x[0:0]: 0x2b9-0x2b9 (0)
     |                                               |                |                e[0:2]: 0x2b9-0x2c6 (13)
     |                                               |                |                  [0]{}: in 0x2b9-0x2c5 (12)
0x2b0|                           02                  |         .      |                    opcode: "block" (0x2) 0x2b9-0x2ba (1)
0x2b0|                              7b               |          {     |                    bt: "v128" (123) 0x2ba-0x2bb (1)
     |                                               |                |                    instructions[0:1]: 0x2bb-0x2c4 (9)
     |                                               |                |                      [0]{}: instr 0x2bb-0x2c4 (9)
0x2b0|                                 02            |           .    |                        opcode: "block" (0x2) 0x2bb-0x2bc (1)
0x2b0|                                    7b         |            {   |                        bt: "v128" (123) 0x2bc-0x2bd (1)
     |                                               |                |                        instructions[0:2]: 0x2bd-0x2c3 (6)
     |                                               |                |                          [0]{}: instr 0x2bd-0x2bf (2)
0x2b0|                                       41      |             A  |                            opcode: "i32.const" (0x41) 0x2bd-0x2be (1)
0x2b0|                                          04   |              . |                            n: 4 (valid) 0x2be-0x2bf (1)
     |                                               |                |                          [1]{}: instr 0x2bf-0x2c3 (4)
0x2b0|                                             fd|               .|                            opcode: "vector" (0xfd) 0x2bf-0x2c0 (1)
0x2c0|05                                             |.               |                            v_opcode: "v128.load32x2_s" (5) 0x2c0-0x2c1 (1)
     |                                               |                |                            m{}: 0x2c1-0x2c3 (2)
0x2c0|   03                                          | .              |                              a: 3 (valid) 0x2c1-0x2c2 (1)
0x2c0|      00                                       |  .             |                              o: 0 (valid) 0x2c2-0x2c3 (1)
0x2c0|         0b                                    |   .            |                        end: 0xb (valid) 0x2c3-0x2c4 (1)
0x2c0|            0b                                 |    .           |                    end: 0xb (valid) 0x2c4-0x2c5 (1)
     |                                               |                |                  [1]{}: in 0x2c5-0x2c6 (1)
0x2c0|               0b                              |     .          |                    opcode: "end" (0xb) 0x2c5-0x2c6 (1)
     |                                               |                |            [5]{}: code 0x2c6-0x2d5 (15)
0x2c0|                  0e                           |      .         |              size: 14 (valid) 0x2c6-0x2c7 (1)
     |                                               |                |              code{}: 0x2c7-0x2d5 (14)
     |                                               |                |                t{}: 0x2c7-0x2c8 (1)
0x2c0|                     00                        |       .        |                  n: 0 (valid) 0x2c7-0x2c8 (1)
     |                                               |                |                  x[0:0]: 0x2c8-0x2c8 (0)
     |                                               |                |                e[0:2]: 0x2c8-0x2d5 (13)
     |                                               |                |                  [0]{}: in 0x2c8-0x2d4 (12)
0x2c0|                        02                     |        .       |                    opcode: "block" (0x2) 0x2c8-0x2c9 (1)
0x2c0|                           7b                  |         {      |                    bt: "v128" (123) 0x2c9-0x2ca (1)
     |                                               |                |                    instructions[0:1]: 0x2ca-0x2d3 (9)
     |                                               |                |                      [0]{}: instr 0x2ca-0x2d3 (9)
0x2c0|                              02               |          .     |                        opcode: "block" (0x2) 0x2ca-0x2cb (1)
0x2c0|                                 7b            |           {    |                        bt: "v128" (123) 0x2cb-0x2cc (1)
     |                                               |                |                        instructions[0:2]: 0x2cc-0x2d2 (6)
     |                                               |                |                          [0]{}: instr 0x2cc-0x2ce (2)
0x2c0|                                    41         |            A   |                            opcode: "i32.const" (0x41) 0x2cc-0x2cd (1)
0x2c0|                                       05      |             .  |                            n: 5 (valid) 0x2cd-0x2ce (1)
     |                                               |                |                          [1]{}: instr 0x2ce-0x2d2 (4)
0x2c0|                                          fd   |              . |                            opcode: "vector" (0xfd) 0x2ce-0x2cf (1)
0x2c0|                                             06|               .|                            v_opcode: "v128.load32x2_u" (6) 0x2cf-0x2d0 (1)
     |                                               |                |                            m{}: 0x2d0-0x2d2 (2)
0x2d0|03                                             |.               |                              a: 3 (valid) 0x2d0-0x2d1 (1)
0x2d0|   00                                          | .              |                              o: 0 (valid) 0x2d1-0x2d2 (1)
0x2d0|      0b                                       |  .             |                        end: 0xb (valid) 0x2d2-0x2d3 (1)
0x2d0|         0b                                    |   .            |                    end: 0xb (valid) 0x2d3-0x2d4 (1)
     |                                               |                |                  [1]{}: in 0x2d4-0x2d5 (1)
0x2d0|            0b                                 |    .           |                    opcode: "end" (0xb) 0x2d4-0x2d5 (1)
     |                                               |                |            [6]{}: code 0x2d5-0x2e3 (14)
0x2d0|               0d                              |     .          |              size: 13 (valid) 0x2d5-0x2d6 (1)
     |                                               |                |              code{}: 0x2d6-0x2e3 (13)
     |                                               |                |                t{}: 0x2d6-0x2d7 (1)
0x2d0|                  00                           |      .         |                  n: 0 (valid) 0x2d6-0x2d7 (1)
     |                                               |                |                  x[0:0]: 0x2d7-0x2d7 (0)
     |                                               |                |                e[0:2]: 0x2d7-0x2e3 (12)
     |                                               |                |                  [0]{}: in 0x2d7-0x2e2 (11)
0x2d0|                     02                        |       .        |                    opcode: "block" (0x2) 0x2d7-0x2d8 (1)
0x2d0|                        7b                     |        {       |                    bt: "v128" (123) 0x2d8-0x2d9 (1)
     |                                               |                |                    instructions[0:3]: 0x2d9-0x2e1 (8)
     |                                               |                |                      [0]{}: instr 0x2d9-0x2db (2)
0x2d0|                           41                  |         A      |                        opcode: "i32.const" (0x41) 0x2d9-0x2da (1)
0x2d0|                              06               |          .     |                        n: 6 (valid) 0x2da-0x2db (1)
     |                                               |                |                      [1]{}: instr 0x2db-0x2df (4)
0x2d0|                                 fd            |           .    |                        opcode: "vector" (0xfd) 0x2db-0x2dc (1)
0x2d0|                                    01         |            .   |                        v_opcode: "v128.load8x8_s" (1) 0x2dc-0x2dd (1)
     |                                               |                |                        m{}: 0x2dd-0x2df (2)
0x2d0|                                       03      |             .  |                          a: 3 (valid) 0x2dd-0x2de (1)
0x2d0|                                          00   |              . |                          o: 0 (valid) 0x2de-0x2df (1)
     |                                               |                |                      [2]{}: instr 0x2df-0x2e1 (2)
0x2d0|                                             0c|               .|                        opcode: "br" (0xc) 0x2df-0x2e0 (1)
0x2e0|00                                             |.               |                        l: 0 (valid) 0x2e0-0x2e1 (1)
0x2e0|   0b                                          | .              |                    end: 0xb (valid) 0x2e1-0x2e2 (1)
     |                                               |                |                  [1]{}: in 0x2e2-0x2e3 (1)
0x2e0|      0b                                       |  .             |                    opcode: "end" (0xb) 0x2e2-0x2e3 (1)
     |                                               |                |            [7]{}: code 0x2e3-0x2f1 (14)
0x2e0|         0d                                    |   .            |              size: 13 (valid) 0x2e3-0x2e4 (1)
     |                                               |                |              code{}: 0x2e4-0x2f1 (13)
     |                                               |                |                t{}: 0x2e4-0x2e5 (1)
0x2e0|            00                                 |    .           |                  n: 0 (valid) 0x2e4-0x2e5 (1)
     |                                               |                |                  x[0:0]: 0x2e5-0x2e5 (0)
     |                                               |                |                e[0:2]: 0x2e5-0x2f1 (12)
     |                                               |                |                  [0]{}: in 0x2e5-0x2f0 (11)
0x2e0|               02                              |     .          |                    opcode: "block" (0x2) 0x2e5-0x2e6 (1)
0x2e0|                  7b                           |      {         |                    bt: "v128" (123) 0x2e6-0x2e7 (1)
     |                                               |                |                    instructions[0:3]: 0x2e7-0x2ef (8)
     |                                               |                |                      [0]{}: instr 0x2e7-0x2e9 (2)
0x2e0|                     41                        |       A        |                        opcode: "i32.const" (0x41) 0x2e7-0x2e8 (1)
0x2e0|                        07                     |        .       |                        n: 7 (valid) 0x2e8-0x2e9 (1)
     |                                               |                |                      [1]{}: instr 0x2e9-0x2ed (4)
0x2e0|                           fd                  |         .      |                        opcode: "vector" (0xfd) 0x2e9-0x2ea (1)
0x2e0|                              02               |          .     |                        v_opcode: "v128.load8x8_u" (2) 0x2ea-0x2eb (1)
     |                                               |                |                        m{}: 0x2eb-0x2ed (2)
0x2e0|                                 03            |           .    |                          a: 3 (valid) 0x2eb-0x2ec (1)
0x2e0|                                    00         |            .   |                          o: 0 (valid) 0x2ec-0x2ed (1)
     |                                               |                |                      [2]{}: instr 0x2ed-0x2ef (2)
0x2e0|                                       0c      |             .  |                        opcode: "br" (0xc) 0x2ed-0x2ee (1)
0x2e0|                                          00   |              . |                        l: 0 (valid) 0x2ee-0x2ef (1)
0x2e0|                                             0b|               .|                    end: 0xb (valid) 0x2ef-0x2f0 (1)
     |                                               |                |                  [1]{}: in 0x2f0-0x2f1 (1)
0x2f0|0b                                             |.               |                    opcode: "end" (0xb) 0x2f0-0x2f1 (1)
     |                                               |                |            [8]{}: code 0x2f1-0x2ff (14)
0x2f0|   0d                                          | .              |              size: 13 (valid) 0x2f1-0x2f2 (1)
     |                                               |                |              code{}: 0x2f2-0x2ff (13)
     |                                               |                |                t{}: 0x2f2-0x2f3 (1)
0x2f0|      00                                       |  .             |                  n: 0 (valid) 0x2f2-0x2f3 (1)
     |                                               |                |                  x[0:0]: 0x2f3-0x2f3 (0)
     |                                               |                |                e[0:2]: 0x2f3-0x2ff (12)
     |                                               |                |                  [0]{}: in 0x2f3-0x2fe (11)
0x2f0|         02                                    |   .            |                    opcode: "block" (0x2) 0x2f3-0x2f4 (1)
0x2f0|            7b                                 |    {           |                    bt: "v128" (123) 0x2f4-0x2f5 (1)
     |                                               |                |                    instructions[0:3]: 0x2f5-0x2fd (8)
     |                                               |                |                      [0]{}: instr 0x2f5-0x2f7 (2)
0x2f0|               41                              |     A          |                        opcode: "i32.const" (0x41) 0x2f5-0x2f6 (1)
0x2f0|                  08                           |      .         |                        n: 8 (valid) 0x2f6-0x2f7 (1)
     |                                               |                |                      [1]{}: instr 0x2f7-0x2fb (4)
0x2f0|                     fd                        |       .        |                        opcode: "vector" (0xfd) 0x2f7-0x2f8 (1)
0x2f0|                        03                     |        .       |                        v_opcode: "v128.load16x4_s" (3) 0x2f8-0x2f9 (1)
     |                                               |                |                        m{}: 0x2f9-0x2fb (2)
0x2f0|                           03                  |         .      |                          a: 3 (valid) 0x2f9-0x2fa (1)
0x2f0|                              00               |          .     |                          o: 0 (valid) 0x2fa-0x2fb (1)
     |                                               |                |                      [2]{}: instr 0x2fb-0x2fd (2)
0x2f0|                                 0c            |           .    |                        opcode: "br" (0xc) 0x2fb-0x2fc (1)
0x2f0|                                    00         |            .   |                        l: 0 (valid) 0x2fc-0x2fd (1)
0x2f0|                                       0b      |             .  |                    end: 0xb (valid) 0x2fd-0x2fe (1)
     |                                               |                |                  [1]{}: in 0x2fe-0x2ff (1)
0x2f0|                                          0b   |              . |                    opcode: "end" (0xb) 0x2fe-0x2ff (1)
     |                                               |                |            [9]{}: code 0x2ff-0x30d (14)
0x2f0|                                             0d|               .|              size: 13 (valid) 0x2ff-0x300 (1)
     |                                               |                |              code{}: 0x300-0x30d (13)
     |                                               |                |                t{}: 0x300-0x301 (1)
0x300|00                                             |.               |                  n: 0 (valid) 0x300-0x301 (1)
     |                                               |                |                  x[0:0]: 0x301-0x301 (0)
     |                                               |                |                e[0:2]: 0x301-0x30d (12)
     |                                               |                |                  [0]{}: in 0x301-0x30c (11)
0x300|   02                                          | .              |                    opcode: "block" (0x2) 0x301-0x302 (1)
0x300|      7b                                       |  {             |                    bt: "v128" (123) 0x302-0x303 (1)
     |                                               |                |                    instructions[0:3]: 0x303-0x30b (8)
     |                                               |                |                      [0]{}: instr 0x303-0x305 (2)
0x300|         41                                    |   A            |                        opcode: "i32.const" (0x41) 0x303-0x304 (1)
0x300|            09                                 |    .           |                        n: 9 (valid) 0x304-0x305 (1)
     |                                               |                |                      [1]{}: instr 0x305-0x309 (4)
0x300|               fd                              |     .          |                        opcode: "vector" (0xfd) 0x305-0x306 (1)
0x300|                  04                           |      .         |                        v_opcode: "v128.load16x4_u" (4) 0x306-0x307 (1)
     |                                               |                |                        m{}: 0x307-0x309 (2)
0x300|                     03                        |       .        |                          a: 3 (valid) 0x307-0x308 (1)
0x300|                        00                     |        .       |                          o: 0 (valid) 0x308-0x309 (1)
     |                                               |                |                      [2]{}: instr 0x309-0x30b (2)
0x300|                           0c                  |         .      |                        opcode: "br" (0xc) 0x309-0x30a (1)
0x300|                              00               |          .     |                        l: 0 (valid) 0x30a-0x30b (1)
0x300|                                 0b            |           .    |                    end: 0xb (valid) 0x30b-0x30c (1)
     |                                               |                |                  [1]{}: in 0x30c-0x30d (1)
0x300|                                    0b         |            .   |                    opcode: "end" (0xb) 0x30c-0x30d (1)
     |                                               |                |            [10]{}: code 0x30d-0x31b (14)
0x300|                                       0d      |             .  |              size: 13 (valid) 0x30d-0x30e (1)
     |                                               |                |              code{}: 0x30e-0x31b (13)
     |                                               |                |                t{}: 0x30e-0x30f (1)
0x300|                                          00   |              . |                  n: 0 (valid) 0x30e-0x30f (1)
     |                                               |                |                  x[0:0]: 0x30f-0x30f (0)
     |                                               |                |                e[0:2]: 0x30f-0x31b (12)
     |                                               |                |                  [0]{}: in 0x30f-0x31a (11)
0x300|                                             02|               .|                    opcode: "block" (0x2) 0x30f-0x310 (1)
0x310|7b                                             |{               |                    bt: "v128" (123) 0x310-0x311 (1)
     |                                               |                |                    instructions[0:3]: 0x311-0x319 (8)
     |                                               |                |                      [0]{}: instr 0x311-0x313 (2)
0x310|   41                                          | A              |                        opcode: "i32.const" (0x41) 0x311-0x312 (1)
0x310|      0a                                       |  .             |                        n: 10 (valid) 0x312-0x313 (1)
     |                                               |                |                      [1]{}: instr 0x313-0x317 (4)
0x310|         fd                                    |   .            |                        opcode: "vector" (0xfd) 0x313-0x314 (1)
0x310|            05                                 |    .           |                        v_opcode: "v128.load32x2_s" (5) 0x314-0x315 (1)
     |                                               |                |                        m{}: 0x315-0x317 (2)
0x310|               03                              |     .          |                          a: 3 (valid) 0x315-0x316 (1)
0x310|                  00                           |      .         |                          o: 0 (valid) 0x316-0x317 (1)
     |                                               |                |                      [2]{}: instr 0x317-0x319 (2)
0x310|                     0c                        |       .        |                        opcode: "br" (0xc) 0x317-0x318 (1)
0x310|                        00                     |        .       |                        l: 0 (valid) 0x318-0x319 (1)
0x310|                           0b                  |         .      |                    end: 0xb (valid) 0x319-0x31a (1)
     |                                               |                |                  [1]{}: in 0x31a-0x31b (1)
0x310|                              0b               |          .     |                    opcode: "end" (0xb) 0x31a-0x31b (1)
     |                                               |                |            [11]{}: code 0x31b-0x329 (14)
0x310|                                 0d            |           .    |              size: 13 (valid) 0x31b-0x31c (1)
     |                                               |                |              code{}: 0x31c-0x329 (13)
     |                                               |                |                t{}: 0x31c-0x31d (1)
0x310|                                    00         |            .   |                  n: 0 (valid) 0x31c-0x31d (1)
     |                                               |                |                  x[0:0]: 0x31d-0x31d (0)
     |                                               |                |                e[0:2]: 0x31d-0x329 (12)
     |                                               |                |                  [0]{}: in 0x31d-0x328 (11)
0x310|                                       02      |             .  |                    opcode: "block" (0x2) 0x31d-0x31e (1)
0x310|                                          7b   |              { |                    bt: "v128" (123) 0x31e-0x31f (1)
     |                                               |                |                    instructions[0:3]: 0x31f-0x327 (8)
     |                                               |                |                      [0]{}: instr 0x31f-0x321 (2)
0x310|                                             41|               A|                        opcode: "i32.const" (0x41) 0x31f-0x320 (1)
0x320|0b                                             |.               |                        n: 11 (valid) 0x320-0x321 (1)
     |                                               |                |                      [1]{}: instr 0x321-0x325 (4)
0x320|   fd                                          | .              |                        opcode: "vector" (0xfd) 0x321-0x322 (1)
0x320|      06                                       |  .             |                        v_opcode: "v128.load32x2_u" (6) 0x322-0x323 (1)
     |                                               |                |                        m{}: 0x323-0x325 (2)
0x320|         03                                    |   .            |                          a: 3 (valid) 0x323-0x324 (1)
0x320|            00                                 |    .           |                          o: 0 (valid) 0x324-0x325 (1)
     |                                               |                |                      [2]{}: instr 0x325-0x327 (2)
0x320|               0c                              |     .          |                        opcode: "br" (0xc) 0x325-0x326 (1)
0x320|                  00                           |      .         |                        l: 0 (valid) 0x326-0x327 (1)
0x320|                     0b                        |       .        |                    end: 0xb (valid) 0x327-0x328 (1)
     |                                               |                |                  [1]{}: in 0x328-0x329 (1)
0x320|                        0b                     |        .       |                    opcode: "end" (0xb) 0x328-0x329 (1)
     |                                               |                |            [12]{}: code 0x329-0x335 (12)
0x320|                           0b                  |         .      |              size: 11 (valid) 0x329-0x32a (1)
     |                                               |                |              code{}: 0x32a-0x335 (11)
     |                                               |                |                t{}: 0x32a-0x32b (1)
0x320|                              00               |          .     |                  n: 0 (valid) 0x32a-0x32b (1)
     |                                               |                |                  x[0:0]: 0x32b-0x32b (0)
     |                                               |                |                e[0:4]: 0x32b-0x335 (10)
     |                                               |                |                  [0]{}: in 0x32b-0x32d (2)
0x320|                                 41            |           A    |                    opcode: "i32.const" (0x41) 0x32b-0x32c (1)
0x320|                                    0c         |            .   |                    n: 12 (valid) 0x32c-0x32d (1)
     |                                               |                |                  [1]{}: in 0x32d-0x331 (4)
0x320|                                       fd      |             .  |                    opcode: "vector" (0xfd) 0x32d-0x32e (1)
0x320|                                          01   |              . |                    v_opcode: "v128.load8x8_s" (1) 0x32e-0x32f (1)
     |                                               |                |                    m{}: 0x32f-0x331 (2)
0x320|                                             03|               .|                      a: 3 (valid) 0x32f-0x330 (1)
0x330|00                                             |.               |                      o: 0 (valid) 0x330-0x331 (1)
     |                                               |                |                  [2]{}: in 0x331-0x334 (3)
0x330|   fd                                          | .              |                    opcode: "vector" (0xfd) 0x331-0x332 (1)
0x330|      15                                       |  .             |                    v_opcode: "i8x16.extract_lane_s" (21) 0x332-0x333 (1)
0x330|         00                                    |   .            |                    l: 0 0x333-0x334 (1)
     |                                               |                |                  [3]{}: in 0x334-0x335 (1)
0x330|            0b                                 |    .           |                    opcode: "end" (0xb) 0x334-0x335 (1)
     |                                               |                |            [13]{}: code 0x335-0x341 (12)
0x330|               0b                              |     .          |              size: 11 (valid) 0x335-0x336 (1)
     |                                               |                |              code{}: 0x336-0x341 (11)
     |                                               |                |                t{}: 0x336-0x337 (1)
0x330|                  00                           |      .         |                  n: 0 (valid) 0x336-0x337 (1)
     |                                               |                |                  x[0:0]: 0x337-0x337 (0)
     |                                               |                |                e[0:4]: 0x337-0x341 (10)
     |                                               |                |                  [0]{}: in 0x337-0x339 (2)
0x330|                     41                        |       A        |                    opcode: "i32.const" (0x41) 0x337-0x338 (1)
0x330|                        0d                     |        .       |                    n: 13 (valid) 0x338-0x339 (1)
     |                                               |                |                  [1]{}: in 0x339-0x33d (4)
0x330|                           fd                  |         .      |                    opcode: "vector" (0xfd) 0x339-0x33a (1)
0x330|                              02               |          .     |                    v_opcode: "v128.load8x8_u" (2) 0x33a-0x33b (1)
     |                                               |                |                    m{}: 0x33b-0x33d (2)
0x330|                                 03            |           .    |                      a: 3 (valid) 0x33b-0x33c (1)
0x330|                                    00         |            .   |                      o: 0 (valid) 0x33c-0x33d (1)
     |                                               |                |                  [2]{}: in 0x33d-0x340 (3)
0x330|                                       fd      |             .  |                    opcode: "vector" (0xfd) 0x33d-0x33e (1)
0x330|                                          15   |              . |                    v_opcode: "i8x16.extract_lane_s" (21) 0x33e-0x33f (1)
0x330|                                             00|               .|                    l: 0 0x33f-0x340 (1)
     |                                               |                |                  [3]{}: in 0x340-0x341 (1)
0x340|0b                                             |.               |                    opcode: "end" (0xb) 0x340-0x341 (1)
     |                                               |                |            [14]{}: code 0x341-0x34d (12)
0x340|   0b                                          | .              |              size: 11 (valid) 0x341-0x342 (1)
     |                                               |                |              code{}: 0x342-0x34d (11)
     |                                               |                |                t{}: 0x342-0x343 (1)
0x340|      00                                       |  .             |                  n: 0 (valid) 0x342-0x343 (1)
     |                                               |                |                  x[0:0]: 0x343-0x343 (0)
     |                                               |                |                e[0:4]: 0x343-0x34d (10)
     |                                               |                |                  [0]{}: in 0x343-0x345 (2)
0x340|         41                                    |   A            |                    opcode: "i32.const" (0x41) 0x343-0x344 (1)
0x340|            0e                                 |    .           |                    n: 14 (valid) 0x344-0x345 (1)
     |                                               |                |                  [1]{}: in 0x345-0x349 (4)
0x340|               fd                              |     .          |                    opcode: "vector" (0xfd) 0x345-0x346 (1)
0x340|                  03                           |      .         |                    v_opcode: "v128.load16x4_s" (3) 0x346-0x347 (1)
     |                                               |                |                    m{}: 0x347-0x349 (2)
0x340|                     03                        |       .        |                      a: 3 (valid) 0x347-0x348 (1)
0x340|                        00                     |        .       |                      o: 0 (valid) 0x348-0x349 (1)
     |                                               |                |                  [2]{}: in 0x349-0x34c (3)
0x340|                           fd                  |         .      |                    opcode: "vector" (0xfd) 0x349-0x34a (1)
0x340|                              15               |          .     |                    v_opcode: "i8x16.extract_lane_s" (21) 0x34a-0x34b (1)
0x340|                                 00            |           .    |                    l: 0 0x34b-0x34c (1)
     |                                               |                |                  [3]{}: in 0x34c-0x34d (1)
0x340|                                    0b         |            .   |                    opcode: "end" (0xb) 0x34c-0x34d (1)
     |                                               |                |            [15]{}: code 0x34d-0x359 (12)
0x340|                                       0b      |             .  |              size: 11 (valid) 0x34d-0x34e (1)
     |                                               |                |              code{}: 0x34e-0x359 (11)
     |                                               |                |                t{}: 0x34e-0x34f (1)
0x340|                                          00   |              . |                  n: 0 (valid) 0x34e-0x34f (1)
     |                                               |                |                  x[0:0]: 0x34f-0x34f (0)
     |                                               |                |                e[0:4]: 0x34f-0x359 (10)
     |                                               |                |                  [0]{}: in 0x34f-0x351 (2)
0x340|                                             41|               A|                    opcode: "i32.const" (0x41) 0x34f-0x350 (1)
0x350|0f                                             |.               |                    n: 15 (valid) 0x350-0x351 (1)
     |                                               |                |                  [1]{}: in 0x351-0x355 (4)
0x350|   fd                                          | .              |                    opcode: "vector" (0xfd) 0x351-0x352 (1)
0x350|      04                                       |  .             |                    v_opcode: "v128.load16x4_u" (4) 0x352-0x353 (1)
     |                                               |                |                    m{}: 0x353-0x355 (2)
0x350|         03                                    |   .            |                      a: 3 (valid) 0x353-0x354 (1)
0x350|            00                                 |    .           |                      o: 0 (valid) 0x354-0x355 (1)
     |                                               |                |                  [2]{}: in 0x355-0x358 (3)
0x350|               fd                              |     .          |                    opcode: "vector" (0xfd) 0x355-0x356 (1)
0x350|                  15                           |      .         |                    v_opcode: "i8x16.extract_lane_s" (21) 0x356-0x357 (1)
0x350|                     00                        |       .        |                    l: 0 0x357-0x358 (1)
     |                                               |                |                  [3]{}: in 0x358-0x359 (1)
0x350|                        0b                     |        .       |                    opcode: "end" (0xb) 0x358-0x359 (1)
     |                                               |                |            [16]{}: code 0x359-0x365 (12)
0x350|                           0b                  |         .      |              size: 11 (valid) 0x359-0x35a (1)
     |                                               |                |              code{}: 0x35a-0x365 (11)
     |                                               |                |                t{}: 0x35a-0x35b (1)
0x350|                              00               |          .     |                  n: 0 (valid) 0x35a-0x35b (1)
     |                                               |                |                  x[0:0]: 0x35b-0x35b (0)
     |                                               |                |                e[0:4]: 0x35b-0x365 (10)
     |                                               |                |                  [0]{}: in 0x35b-0x35d (2)
0x350|                                 41            |           A    |                    opcode: "i32.const" (0x41) 0x35b-0x35c (1)
0x350|                                    10         |            .   |                    n: 16 (valid) 0x35c-0x35d (1)
     |                                               |                |                  [1]{}: in 0x35d-0x361 (4)
0x350|                                       fd      |             .  |                    opcode: "vector" (0xfd) 0x35d-0x35e (1)
0x350|                                          05   |              . |                    v_opcode: "v128.load32x2_s" (5) 0x35e-0x35f (1)
     |                                               |                |                    m{}: 0x35f-0x361 (2)
0x350|                                             03|               .|                      a: 3 (valid) 0x35f-0x360 (1)
0x360|00                                             |.               |                      o: 0 (valid) 0x360-0x361 (1)
     |                                               |                |                  [2]{}: in 0x361-0x364 (3)
0x360|   fd                                          | .              |                    opcode: "vector" (0xfd) 0x361-0x362 (1)
0x360|      15                                       |  .             |                    v_opcode: "i8x16.extract_lane_s" (21) 0x362-0x363 (1)
0x360|         00                                    |   .            |                    l: 0 0x363-0x364 (1)
     |                                               |                |                  [3]{}: in 0x364-0x365 (1)
0x360|            0b                                 |    .           |                    opcode: "end" (0xb) 0x364-0x365 (1)
     |                                               |                |            [17]{}: code 0x365-0x371 (12)
0x360|               0b                              |     .          |              size: 11 (valid) 0x365-0x366 (1)
     |                                               |                |              code{}: 0x366-0x371 (11)
     |                                               |                |                t{}: 0x366-0x367 (1)
0x360|                  00                           |      .         |                  n: 0 (valid) 0x366-0x367 (1)
     |                                               |                |                  x[0:0]: 0x367-0x367 (0)
     |                                               |                |                e[0:4]: 0x367-0x371 (10)
     |                                               |                |                  [0]{}: in 0x367-0x369 (2)
0x360|                     41                        |       A        |                    opcode: "i32.const" (0x41) 0x367-0x368 (1)
0x360|                        11                     |        .       |                    n: 17 (valid) 0x368-0x369 (1)
     |                                               |                |                  [1]{}: in 0x369-0x36d (4)
0x360|                           fd                  |         .      |                    opcode: "vector" (0xfd) 0x369-0x36a (1)
0x360|                              06               |          .     |                    v_opcode: "v128.load32x2_u" (6) 0x36a-0x36b (1)
     |                                               |                |                    m{}: 0x36b-0x36d (2)
0x360|                                 03            |           .    |                      a: 3 (valid) 0x36b-0x36c (1)
0x360|                                    00         |            .   |                      o: 0 (valid) 0x36c-0x36d (1)
     |                                               |                |                  [2]{}: in 0x36d-0x370 (3)
0x360|                                       fd      |             .  |                    opcode: "vector" (0xfd) 0x36d-0x36e (1)
0x360|                                          15   |              . |                    v_opcode: "i8x16.extract_lane_s" (21) 0x36e-0x36f (1)
0x360|                                             00|               .|                    l: 0 0x36f-0x370 (1)
     |                                               |                |                  [3]{}: in 0x370-0x371 (1)
0x370|0b                                             |.               |                    opcode: "end" (0xb) 0x370-0x371 (1)
     |                                               |                |    [5]{}: section 0x371-0x393 (34)
0x370|   0b                                          | .              |      id: "data_section" (11) 0x371-0x372 (1)
0x370|      20                                       |                |      size: 32 (valid) 0x372-0x373 (1)
     |                                               |                |      content{}: 0x373-0x393 (32)
     |                                               |                |        seg{}: 0x373-0x393 (32)
0x370|         01                                    |   .            |          n: 1 (valid) 0x373-0x374 (1)
     |                                               |                |          x[0:1]: 0x374-0x393 (31)
     |                                               |                |            [0]{}: seg 0x374-0x393 (31)
0x370|            00                                 |    .           |              tag: 0 (valid) 0x374-0x375 (1)
     |                                               |                |              e[0:2]: 0x375-0x378 (3)
     |                                               |                |                [0]{}: in 0x375-0x377 (2)
0x370|               41                              |     A          |                  opcode: "i32.const" (0x41) 0x375-0x376 (1)
0x370|                  00                           |      .         |                  n: 0 (valid) 0x376-0x377 (1)
     |                                               |                |                [1]{}: in 0x377-0x378 (1)
0x370|                     0b                        |       .        |                  opcode: "end" (0xb) 0x377-0x378 (1)
     |                                               |                |              b{}: 0x378-0x393 (27)
0x370|                        1a                     |        .       |                n: 26 (valid) 0x378-0x379 (1)
0x370|                           00 01 02 03 04 05 06|         .......|                x: raw bits 0x379-0x393 (26)
0x380|07 08 09 0a 0b 0c 0d 0e 0f 80 81 82 83 84 85 86|................|
0x390|87 88 89|                                      |...|            |
