$ fq -d wasm dv simd_load_zero-0.wasm
     |00 01 02 03 04 05 06 07 08 09 0a 0b 0c 0d 0e 0f|0123456789abcdef|.{}: simd_load_zero-0.wasm (wasm) 0x0-0x2a8 (680)
0x000|00 61 73 6d                                    |.asm            |  magic: raw bits (valid) 0x0-0x4 (4)
0x000|            01 00 00 00                        |    ....        |  version: 1 0x4-0x8 (4)
     |                                               |                |  sections[0:6]: 0x8-0x2a8 (672)
     |                                               |                |    [0]{}: section 0x8-0x14 (12)
0x000|                        01                     |        .       |      id: "type_section" (1) 0x8-0x9 (1)
0x000|                           0a                  |         .      |      size: 10 (valid) 0x9-0xa (1)
     |                                               |                |      content{}: 0xa-0x14 (10)
     |                                               |                |        ft{}: 0xa-0x14 (10)
0x000|                              02               |          .     |          n: 2 (valid) 0xa-0xb (1)
     |                                               |                |          x[0:2]: 0xb-0x14 (9)
     |                                               |                |            [0]{}: ft 0xb-0x10 (5)
0x000|                                 60            |           `    |              tag: 0x60 (valid) 0xb-0xc (1)
     |                                               |                |              rt1{}: 0xc-0xe (2)
0x000|                                    01         |            .   |                n: 1 (valid) 0xc-0xd (1)
     |                                               |                |                x[0:1]: 0xd-0xe (1)
0x000|                                       7f      |             .  |                  [0]: "i32" (0x7f) t 0xd-0xe (1)
     |                                               |                |              rt2{}: 0xe-0x10 (2)
0x000|                                          01   |              . |                n: 1 (valid) 0xe-0xf (1)
     |                                               |                |                x[0:1]: 0xf-0x10 (1)
0x000|                                             7b|               {|                  [0]: "v128" (0x7b) t 0xf-0x10 (1)
     |                                               |                |            [1]{}: ft 0x10-0x14 (4)
0x010|60                                             |`               |              tag: 0x60 (valid) 0x10-0x11 (1)
     |                                               |                |              rt1{}: 0x11-0x12 (1)
0x010|   00                                          | .              |                n: 0 (valid) 0x11-0x12 (1)
     |                                               |                |                x[0:0]: 0x12-0x12 (0)
     |                                               |                |              rt2{}: 0x12-0x14 (2)
0x010|      01                                       |  .             |                n: 1 (valid) 0x12-0x13 (1)
     |                                               |                |                x[0:1]: 0x13-0x14 (1)
0x010|         7b                                    |   {            |                  [0]: "v128" (0x7b) t 0x13-0x14 (1)
     |                                               |                |    [1]{}: section 0x14-0x26 (18)
0x010|            03                                 |    .           |      id: "function_section" (3) 0x14-0x15 (1)
0x010|               10                              |     .          |      size: 16 (valid) 0x15-0x16 (1)
     |                                               |                |      content{}: 0x16-0x26 (16)
     |                                               |                |        x{}: 0x16-0x26 (16)
0x010|                  0f                           |      .         |          n: 15 (valid) 0x16-0x17 (1)
     |                                               |                |          x[0:15]: 0x17-0x26 (15)
0x010|                     00                        |       .        |            [0]: 0 x (valid) 0x17-0x18 (1)
0x010|                        00                     |        .       |            [1]: 0 x (valid) 0x18-0x19 (1)
0x010|                           01                  |         .      |            [2]: 1 x (valid) 0x19-0x1a (1)
0x010|                              01               |          .     |            [3]: 1 x (valid) 0x1a-0x1b (1)
0x010|                                 00            |           .    |            [4]: 0 x (valid) 0x1b-0x1c (1)
0x010|                                    00         |            .   |            [5]: 0 x (valid) 0x1c-0x1d (1)
0x010|                                       00      |             .  |            [6]: 0 x (valid) 0x1d-0x1e (1)
0x010|                                          00   |              . |            [7]: 0 x (valid) 0x1e-0x1f (1)
0x010|                                             00|               .|            [8]: 0 x (valid) 0x1f-0x20 (1)
0x020|00                                             |.               |            [9]: 0 x (valid) 0x20-0x21 (1)
0x020|   00                                          | .              |            [10]: 0 x (valid) 0x21-0x22 (1)
0x020|      00                                       |  .             |            [11]: 0 x (valid) 0x22-0x23 (1)
0x020|         00                                    |   .            |            [12]: 0 x (valid) 0x23-0x24 (1)
0x020|            00                                 |    .           |            [13]: 0 x (valid) 0x24-0x25 (1)
0x020|               00                              |     .          |            [14]: 0 x (valid) 0x25-0x26 (1)
     |                                               |                |    [2]{}: section 0x26-0x2b (5)
0x020|                  05                           |      .         |      id: "memory_section" (5) 0x26-0x27 (1)
0x020|                     03                        |       .        |      size: 3 (valid) 0x27-0x28 (1)
     |                                               |                |      content{}: 0x28-0x2b (3)
     |                                               |                |        mem{}: 0x28-0x2b (3)
0x020|                        01                     |        .       |          n: 1 (valid) 0x28-0x29 (1)
     |                                               |                |          x[0:1]: 0x29-0x2b (2)
     |                                               |                |            [0]{}: mem 0x29-0x2b (2)
     |                                               |                |              lim{}: 0x29-0x2b (2)
0x020|                           00                  |         .      |                tag: 0x0 0x29-0x2a (1)
0x020|                              01               |          .     |                n: 1 (valid) 0x2a-0x2b (1)
     |                                               |                |    [3]{}: section 0x2b-0x1e4 (441)
0x020|                                 07            |           .    |      id: "export_section" (7) 0x2b-0x2c (1)
0x020|                                    b6 03      |            ..  |      size: 438 (valid) 0x2c-0x2e (2)
     |                                               |                |      content{}: 0x2e-0x1e4 (438)
     |                                               |                |        ex{}: 0x2e-0x1e4 (438)
0x020|                                          0f   |              . |          n: 15 (valid) 0x2e-0x2f (1)
     |                                               |                |          x[0:15]: 0x2f-0x1e4 (437)
     |                                               |                |            [0]{}: ex 0x2f-0x42 (19)
     |                                               |                |              nm{}: 0x2f-0x40 (17)
0x020|                                             10|               .|                n: 16 (valid) 0x2f-0x30 (1)
0x030|76 31 32 38 2e 6c 6f 61 64 33 32 5f 7a 65 72 6f|v128.load32_zero|                b: "v128.load32_zero" 0x30-0x40 (16)
     |                                               |                |              d{}: 0x40-0x42 (2)
0x040|00                                             |.               |                tag: "funcidx" (0x0) 0x40-0x41 (1)
0x040|   00                                          | .              |                x: 0 (valid) 0x41-0x42 (1)
     |                                               |                |            [1]{}: ex 0x42-0x55 (19)
     |                                               |                |              nm{}: 0x42-0x53 (17)
0x040|      10                                       |  .             |                n: 16 (valid) 0x42-0x43 (1)
0x040|         76 31 32 38 2e 6c 6f 61 64 36 34 5f 7a|   v128.load64_z|                b: "v128.load64_zero" 0x43-0x53 (16)
0x050|65 72 6f                                       |ero             |
     |                                               |                |              d{}: 0x53-0x55 (2)
0x050|         00                                    |   .            |                tag: "funcidx" (0x0) 0x53-0x54 (1)
0x050|            01                                 |    .           |                x: 1 (valid) 0x54-0x55 (1)
     |                                               |                |            [2]{}: ex 0x55-0x6f (26)
     |                                               |                |              nm{}: 0x55-0x6d (24)
0x050|               17                              |     .          |                n: 23 (valid) 0x55-0x56 (1)
0x050|                  76 31 32 38 2e 6c 6f 61 64 33|      v128.load3|                b: "v128.load32_zero_const0" 0x56-0x6d (23)
0x060|32 5f 7a 65 72 6f 5f 63 6f 6e 73 74 30         |2_zero_const0   |
     |                                               |                |              d{}: 0x6d-0x6f (2)
0x060|                                       00      |             .  |                tag: "funcidx" (0x0) 0x6d-0x6e (1)
0x060|                                          02   |              . |                x: 2 (valid) 0x6e-0x6f (1)
     |                                               |                |            [3]{}: ex 0x6f-0x89 (26)
     |                                               |                |              nm{}: 0x6f-0x87 (24)
0x060|                                             17|               .|                n: 23 (valid) 0x6f-0x70 (1)
0x070|76 31 32 38 2e 6c 6f 61 64 36 34 5f 7a 65 72 6f|v128.load64_zero|                b: "v128.load64_zero_const8" 0x70-0x87 (23)
0x080|5f 63 6f 6e 73 74 38                           |_const8         |
     |                                               |                |              d{}: 0x87-0x89 (2)
0x080|                     00                        |       .        |                tag: "funcidx" (0x0) 0x87-0x88 (1)
0x080|                        03                     |        .       |                x: 3 (valid) 0x88-0x89 (1)
     |                                               |                |            [4]{}: ex 0x89-0xa4 (27)
     |                                               |                |              nm{}: 0x89-0xa2 (25)
0x080|                           18                  |         .      |                n: 24 (valid) 0x89-0x8a (1)
0x080|                              76 31 32 38 2e 6c|          v128.l|                b: "v128.load32_zero_offset0" 0x8a-0xa2 (24)
0x090|6f 61 64 33 32 5f 7a 65 72 6f 5f 6f 66 66 73 65|oad32_zero_offse|
0x0a0|74 30                                          |t0              |
     |                                               |                |              d{}: 0xa2-0xa4 (2)
0x0a0|      00                                       |  .             |                tag: "funcidx" (0x0) 0xa2-0xa3 (1)
0x0a0|         04                                    |   .            |                x: 4 (valid) 0xa3-0xa4 (1)
     |                                               |                |            [5]{}: ex 0xa4-0xbe (26)
     |                                               |                |              nm{}: 0xa4-0xbc (24)
0x0a0|            17                                 |    .           |                n: 23 (valid) 0xa4-0xa5 (1)
0x0a0|               76 31 32 38 2e 6c 6f 61 64 33 32|     v128.load32|                b: "v128.load32_zero_align1" 0xa5-0xbc (23)
0x0b0|5f 7a 65 72 6f 5f 61 6c 69 67 6e 31            |_zero_align1    |
     |                                               |                |              d{}: 0xbc-0xbe (2)
0x0b0|                                    00         |            .   |                tag: "funcidx" (0x0) 0xbc-0xbd (1)
0x0b0|                                       05      |             .  |                x: 5 (valid) 0xbd-0xbe (1)
     |                                               |                |            [6]{}: ex 0xbe-0xe0 (34)
     |                                               |                |              nm{}: 0xbe-0xde (32)
0x0b0|                                          1f   |              . |                n: 31 (valid) 0xbe-0xbf (1)
0x0b0|                                             76|               v|                b: "v128.load32_zero_offset0_align1" 0xbf-0xde (31)
0x0c0|31 32 38 2e 6c 6f 61 64 33 32 5f 7a 65 72 6f 5f|128.load32_zero_|
0x0d0|6f 66 66 73 65 74 30 5f 61 6c 69 67 6e 31      |offset0_align1  |
     |                                               |                |              d{}: 0xde-0xe0 (2)
0x0d0|                                          00   |              . |                tag: "funcidx" (0x0) 0xde-0xdf (1)
0x0d0|                                             06|               .|                x: 6 (valid) 0xdf-0xe0 (1)
     |                                               |                |            [7]{}: ex 0xe0-0x102 (34)
     |                                               |                |              nm{}: 0xe0-0x100 (32)
0x0e0|1f                                             |.               |                n: 31 (valid) 0xe0-0xe1 (1)
0x0e0|   76 31 32 38 2e 6c 6f 61 64 33 32 5f 7a 65 72| v128.load32_zer|                b: "v128.load32_zero_offset1_align1" 0xe1-0x100 (31)
0x0f0|6f 5f 6f 66 66 73 65 74 31 5f 61 6c 69 67 6e 31|o_offset1_align1|
     |                                               |                |              d{}: 0x100-0x102 (2)
0x100|00                                             |.               |                tag: "funcidx" (0x0) 0x100-0x101 (1)
0x100|   07                                          | .              |                x: 7 (valid) 0x101-0x102 (1)
     |                                               |                |            [8]{}: ex 0x102-0x125 (35)
     |                                               |                |              nm{}: 0x102-0x123 (33)
0x100|      20                                       |                |                n: 32 (valid) 0x102-0x103 (1)
0x100|         76 31 32 38 2e 6c 6f 61 64 33 32 5f 7a|   v128.load32_z|                b: "v128.load32_zero_offset10_align4" 0x103-0x123 (32)
0x110|65 72 6f 5f 6f 66 66 73 65 74 31 30 5f 61 6c 69|ero_offset10_ali|
0x120|67 6e 34                                       |gn4             |
     |                                               |                |              d{}: 0x123-0x125 (2)
0x120|         00                                    |   .            |                tag: "funcidx" (0x0) 0x123-0x124 (1)
0x120|            08                                 |    .           |                x: 8 (valid) 0x124-0x125 (1)
     |                                               |                |            [9]{}: ex 0x125-0x140 (27)
     |                                               |                |              nm{}: 0x125-0x13e (25)
0x120|               18                              |     .          |                n: 24 (valid) 0x125-0x126 (1)
0x120|                  76 31 32 38 2e 6c 6f 61 64 36|      v128.load6|                b: "v128.load64_zero_offset0" 0x126-0x13e (24)
0x130|34 5f 7a 65 72 6f 5f 6f 66 66 73 65 74 30      |4_zero_offset0  |
     |                                               |                |              d{}: 0x13e-0x140 (2)
0x130|                                          00   |              . |                tag: "funcidx" (0x0) 0x13e-0x13f (1)
0x130|                                             09|               .|                x: 9 (valid) 0x13f-0x140 (1)
     |                                               |                |            [10]{}: ex 0x140-0x15a (26)
     |                                               |                |              nm{}: 0x140-0x158 (24)
0x140|17                                             |.               |                n: 23 (valid) 0x140-0x141 (1)
0x140|   76 31 32 38 2e 6c 6f 61 64 36 34 5f 7a 65 72| v128.load64_zer|                b: "v128.load64_zero_align1" 0x141-0x158 (23)
0x150|6f 5f 61 6c 69 67 6e 31                        |o_align1        |
     |                                               |                |              d{}: 0x158-0x15a (2)
0x150|                        00                     |        .       |                tag: "funcidx" (0x0) 0x158-0x159 (1)
0x150|                           0a                  |         .      |                x: 10 (valid) 0x159-0x15a (1)
     |                                               |                |            [11]{}: ex 0x15a-0x17c (34)
     |                                               |                |              nm{}: 0x15a-0x17a (32)
0x150|                              1f               |          .     |                n: 31 (valid) 0x15a-0x15b (1)
0x150|                                 76 31 32 38 2e|           v128.|                b: "v128.load64_zero_offset0_align1" 0x15b-0x17a (31)
0x160|6c 6f 61 64 36 34 5f 7a 65 72 6f 5f 6f 66 66 73|load64_zero_offs|
0x170|65 74 30 5f 61 6c 69 67 6e 31                  |et0_align1      |
     |                                               |                |              d{}: 0x17a-0x17c (2)
0x170|                              00               |          .     |                tag: "funcidx" (0x0) 0x17a-0x17b (1)
0x170|                                 0b            |           .    |                x: 11 (valid) 0x17b-0x17c (1)
     |                                               |                |            [12]{}: ex 0x17c-0x19e (34)
     |                                               |                |              nm{}: 0x17c-0x19c (32)
0x170|                                    1f         |            .   |                n: 31 (valid) 0x17c-0x17d (1)
0x170|                                       76 31 32|             v12|                b: "v128.load64_zero_offset1_align1" 0x17d-0x19c (31)
0x180|38 2e 6c 6f 61 64 36 34 5f 7a 65 72 6f 5f 6f 66|8.load64_zero_of|
0x190|66 73 65 74 31 5f 61 6c 69 67 6e 31            |fset1_align1    |
     |                                               |                |              d{}: 0x19c-0x19e (2)
0x190|                                    00         |            .   |                tag: "funcidx" (0x0) 0x19c-0x19d (1)
0x190|                                       0c      |             .  |                x: 12 (valid) 0x19d-0x19e (1)
     |                                               |                |            [13]{}: ex 0x19e-0x1c1 (35)
     |                                               |                |              nm{}: 0x19e-0x1bf (33)
0x190|                                          20   |                |                n: 32 (valid) 0x19e-0x19f (1)
0x190|                                             76|               v|                b: "v128.load64_zero_offset10_align4" 0x19f-0x1bf (32)
0x1a0|31 32 38 2e 6c 6f 61 64 36 34 5f 7a 65 72 6f 5f|128.load64_zero_|
0x1b0|6f 66 66 73 65 74 31 30 5f 61 6c 69 67 6e 34   |offset10_align4 |
     |                                               |                |              d{}: 0x1bf-0x1c1 (2)
0x1b0|                                             00|               .|                tag: "funcidx" (0x0) 0x1bf-0x1c0 (1)
0x1c0|0d                                             |.               |                x: 13 (valid) 0x1c0-0x1c1 (1)
     |                                               |                |            [14]{}: ex 0x1c1-0x1e4 (35)
     |                                               |                |              nm{}: 0x1c1-0x1e2 (33)
0x1c0|   20                                          |                |                n: 32 (valid) 0x1c1-0x1c2 (1)
0x1c0|      76 31 32 38 2e 6c 6f 61 64 36 34 5f 7a 65|  v128.load64_ze|                b: "v128.load64_zero_offset20_align8" 0x1c2-0x1e2 (32)
0x1d0|72 6f 5f 6f 66 66 73 65 74 32 30 5f 61 6c 69 67|ro_offset20_alig|
0x1e0|6e 38                                          |n8              |
     |                                               |                |              d{}: 0x1e2-0x1e4 (2)
0x1e0|      00                                       |  .             |                tag: "funcidx" (0x0) 0x1e2-0x1e3 (1)
0x1e0|         0e                                    |   .            |                x: 14 (valid) 0x1e3-0x1e4 (1)
     |                                               |                |    [4]{}: section 0x1e4-0x26f (139)
0x1e0|            0a                                 |    .           |      id: "code_section" (10) 0x1e4-0x1e5 (1)
0x1e0|               88 01                           |     ..         |      size: 136 (valid) 0x1e5-0x1e7 (2)
     |                                               |                |      content{}: 0x1e7-0x26f (136)
     |                                               |                |        code{}: 0x1e7-0x26f (136)
0x1e0|                     0f                        |       .        |          n: 15 (valid) 0x1e7-0x1e8 (1)
     |                                               |                |          x[0:15]: 0x1e8-0x26f (135)
     |                                               |                |            [0]{}: code 0x1e8-0x1f1 (9)
0x1e0|                        08                     |        .       |              size: 8 (valid) 0x1e8-0x1e9 (1)
     |                                               |                |              code{}: 0x1e9-0x1f1 (8)
     |                                               |                |                t{}: 0x1e9-0x1ea (1)
0x1e0|                           00                  |         .      |                  n: 0 (valid) 0x1e9-0x1ea (1)
     |                                               |                |                  x[0:0]: 0x1ea-0x1ea (0)
     |                                               |                |                e[0:3]: 0x1ea-0x1f1 (7)
     |                                               |                |                  [0]{}: in 0x1ea-0x1ec (2)
0x1e0|                              20               |                |                    opcode: "local.get" (0x20) 0x1ea-0x1eb (1)
0x1e0|                                 00            |           .    |                    x: 0 (valid) 0x1eb-0x1ec (1)
     |                                               |                |                  [1]{}: in 0x1ec-0x1f0 (4)
0x1e0|                                    fd         |            .   |                    opcode: "vector" (0xfd) 0x1ec-0x1ed (1)
0x1e0|                                       5c      |             \  |                    v_opcode: "v128.load32_zero" (92) 0x1ed-0x1ee (1)
     |                                               |                |                    m{}: 0x1ee-0x1f0 (2)
0x1e0|                                          02   |              . |                      a: 2 (valid) 0x1ee-0x1ef (1)
0x1e0|                                             00|               .|                      o: 0 (valid) 0x1ef-0x1f0 (1)
     |                                               |                |                  [2]{}: in 0x1f0-0x1f1 (1)
0x1f0|0b                                             |.               |                    opcode: "end" (0xb) 0x1f0-0x1f1 (1)
     |                                               |                |            [1]{}: code 0x1f1-0x1fa (9)
0x1f0|   08                                          | .              |              size: 8 (valid) 0x1f1-0x1f2 (1)
     |                                               |                |              code{}: 0x1f2-0x1fa (8)
     |                                               |                |                t{}: 0x1f2-0x1f3 (1)
0x1f0|      00                                       |  .             |                  n: 0 (valid) 0x1f2-0x1f3 (1)
     |                                               |                |                  x[0:0]: 0x1f3-0x1f3 (0)
     |                                               |                |                e[0:3]: 0x1f3-0x1fa (7)
     |                                               |                |                  [0]{}: in 0x1f3-0x1f5 (2)
0x1f0|         20                                    |                |                    opcode: "local.get" (0x20) 0x1f3-0x1f4 (1)
0x1f0|            00                                 |    .           |                    x: 0 (valid) 0x1f4-0x1f5 (1)
     |                                               |                |                  [1]{}: in 0x1f5-0x1f9 (4)
0x1f0|               fd                              |     .          |                    opcode: "vector" (0xfd) 0x1f5-0x1f6 (1)
0x1f0|                  5d                           |      ]         |                    v_opcode: "v128.load64_zero" (93) 0x1f6-0x1f7 (1)
     |                                               |                |                    m{}: 0x1f7-0x1f9 (2)
0x1f0|                     03                        |       .        |                      a: 3 (valid) 0x1f7-0x1f8 (1)
0x1f0|                        00                     |        .       |                      o: 0 (valid) 0x1f8-0x1f9 (1)
     |                                               |                |                  [2]{}: in 0x1f9-0x1fa (1)
0x1f0|                           0b                  |         .      |                    opcode: "end" (0xb) 0x1f9-0x1fa (1)
     |                                               |                |            [2]{}: code 0x1fa-0x203 (9)
0x1f0|                              08               |          .     |              size: 8 (valid) 0x1fa-0x1fb (1)
     |                                               |                |              code{}: 0x1fb-0x203 (8)
     |                                               |                |                t{}: 0x1fb-0x1fc (1)
0x1f0|                                 00            |           .    |                  n: 0 (valid) 0x1fb-0x1fc (1)
     |                                               |                |                  x[0:0]: 0x1fc-0x1fc (0)
     |                                               |                |                e[0:3]: 0x1fc-0x203 (7)
     |                                               |                |                  [0]{}: in 0x1fc-0x1fe (2)
0x1f0|                                    41         |            A   |                    opcode: "i32.const" (0x41) 0x1fc-0x1fd (1)
0x1f0|                                       00      |             .  |                    n: 0 (valid) 0x1fd-0x1fe (1)
     |                                               |                |                  [1]{}: in 0x1fe-0x202 (4)
0x1f0|                                          fd   |              . |                    opcode: "vector" (0xfd) 0x1fe-0x1ff (1)
0x1f0|                                             5c|               \|                    v_opcode: "v128.load32_zero" (92) 0x1ff-0x200 (1)
     |                                               |                |                    m{}: 0x200-0x202 (2)
0x200|02                                             |.               |                      a: 2 (valid) 0x200-0x201 (1)
0x200|   00                                          | .              |                      o: 0 (valid) 0x201-0x202 (1)
     |                                               |                |                  [2]{}: in 0x202-0x203 (1)
0x200|      0b                                       |  .             |                    opcode: "end" (0xb) 0x202-0x203 (1)
     |                                               |                |            [3]{}: code 0x203-0x20c (9)
0x200|         08                                    |   .            |              size: 8 (valid) 0x203-0x204 (1)
     |                                               |                |              code{}: 0x204-0x20c (8)
     |                                               |                |                t{}: 0x204-0x205 (1)
0x200|            00                                 |    .           |                  n: 0 (valid) 0x204-0x205 (1)
     |                                               |                |                  x[0:0]: 0x205-0x205 (0)
     |                                               |                |                e[0:3]: 0x205-0x20c (7)
     |                                               |                |                  [0]{}: in 0x205-0x207 (2)
0x200|               41                              |     A          |                    opcode: "i32.const" (0x41) 0x205-0x206 (1)
0x200|                  08                           |      .         |                    n: 8 (valid) 0x206-0x207 (1)
     |                                               |                |                  [1]{}: in 0x207-0x20b (4)
0x200|                     fd                        |       .        |                    opcode: "vector" (0xfd) 0x207-0x208 (1)
0x200|                        5d                     |        ]       |                    v_opcode: "v128.load64_zero" (93) 0x208-0x209 (1)
     |                                               |                |                    m{}: 0x209-0x20b (2)
0x200|                           03                  |         .      |                      a: 3 (valid) 0x209-0x20a (1)
0x200|                              00               |          .     |                      o: 0 (valid) 0x20a-0x20b (1)
     |                                               |                |                  [2]{}: in 0x20b-0x20c (1)
0x200|                                 0b            |           .    |                    opcode: "end" (0xb) 0x20b-0x20c (1)
     |                                               |                |            [4]{}: code 0x20c-0x215 (9)
0x200|                                    08         |            .   |              size: 8 (valid) 0x20c-0x20d (1)
     |                                               |                |              code{}: 0x20d-0x215 (8)
     |                                               |                |                t{}: 0x20d-0x20e (1)
0x200|                                       00      |             .  |                  n: 0 (valid) 0x20d-0x20e (1)
     |                                               |                |                  x[0:0]: 0x20e-0x20e (0)
     |                                               |                |                e[0:3]: 0x20e-0x215 (7)
     |                                               |                |                  [0]{}: in 0x20e-0x210 (2)
0x200|                                          20   |                |                    opcode: "local.get" (0x20) 0x20e-0x20f (1)
0x200|                                             00|               .|                    x: 0 (valid) 0x20f-0x210 (1)
     |                                               |                |                  [1]{}: in 0x210-0x214 (4)
0x210|fd                                             |.               |                    opcode: "vector" (0xfd) 0x210-0x211 (1)
0x210|   5c                                          | \              |                    v_opcode: "v128.load32_zero" (92) 0x211-0x212 (1)
     |                                               |                |                    m{}: 0x212-0x214 (2)
0x210|      02                                       |  .             |                      a: 2 (valid) 0x212-0x213 (1)
0x210|         00                                    |   .            |                      o: 0 (valid) 0x213-0x214 (1)
     |                                               |                |                  [2]{}: in 0x214-0x215 (1)
0x210|            0b                                 |    .           |                    opcode: "end" (0xb) 0x214-0x215 (1)
     |                                               |                |            [5]{}: code 0x215-0x21e (9)
0x210|               08                              |     .          |              size: 8 (valid) 0x215-0x216 (1)
     |                                               |                |              code{}: 0x216-0x21e (8)
     |                                               |                |                t{}: 0x216-0x217 (1)
0x210|                  00                           |      .         |                  n: 0 (valid) 0x216-0x217 (1)
     |                                               |                |                  x[0:0]: 0x217-0x217 (0)
     |                                               |                |                e[0:3]: 0x217-0x21e (7)
     |                                               |                |                  [0]{}: in 0x217-0x219 (2)
0x210|                     20                        |                |                    opcode: "local.get" (0x20) 0x217-0x218 (1)
0x210|                        00                     |        .       |                    x: 0 (valid) 0x218-0x219 (1)
     |                                               |                |                  [1]{}: in 0x219-0x21d (4)
0x210|                           fd                  |         .      |                    opcode: "vector" (0xfd) 0x219-0x21a (1)
0x210|                              5c               |          \     |                    v_opcode: "v128.load32_zero" (92) 0x21a-0x21b (1)
     |                                               |                |                    m{}: 0x21b-0x21d (2)
0x210|                                 00            |           .    |                      a: 0 (valid) 0x21b-0x21c (1)
0x210|                                    00         |            .   |                      o: 0 (valid) 0x21c-0x21d (1)
     |                                               |                |                  [2]{}: in 0x21d-0x21e (1)
0x210|                                       0b      |             .  |                    opcode: "end" (0xb) 0x21d-0x21e (1)
     |                                               |                |            [6]{}: code 0x21e-0x227 (9)
0x210|                                          08   |              . |              size: 8 (valid) 0x21e-0x21f (1)
     |                                               |                |              code{}: 0x21f-0x227 (8)
     |                                               |                |                t{}: 0x21f-0x220 (1)
0x210|                                             00|               .|                  n: 0 (valid) 0x21f-0x220 (1)
     |                                               |                |                  x[0:0]: 0x220-0x220 (0)
     |                                               |                |                e[0:3]: 0x220-0x227 (7)
     |                                               |                |                  [0]{}: in 0x220-0x222 (2)
0x220|20                                             |                |                    opcode: "local.get" (0x20) 0x220-0x221 (1)
0x220|   00                                          | .              |                    x: 0 (valid) 0x221-0x222 (1)
     |                                               |                |                  [1]{}: in 0x222-0x226 (4)
0x220|      fd                                       |  .             |                    opcode: "vector" (0xfd) 0x222-0x223 (1)
0x220|         5c                                    |   \            |                    v_opcode: "v128.load32_zero" (92) 0x223-0x224 (1)
     |                                               |                |                    m{}: 0x224-0x226 (2)
0x220|            00                                 |    .           |                      a: 0 (valid) 0x224-0x225 (1)
0x220|               00                              |     .          |                      o: 0 (valid) 0x225-0x226 (1)
     |                                               |                |                  [2]{}: in 0x226-0x227 (1)
0x220|                  0b                           |      .         |                    opcode: "end" (0xb) 0x226-0x227 (1)
     |                                               |                |            [7]{}: code 0x227-0x230 (9)
0x220|                     08                        |       .        |              size: 8 (valid) 0x227-0x228 (1)
     |                                               |                |              code{}: 0x228-0x230 (8)
     |                                               |                |                t{}: 0x228-0x229 (1)
0x220|                        00                     |        .       |                  n: 0 (valid) 0x228-0x229 (1)
     |                                               |                |                  x[0:0]: 0x229-0x229 (0)
     |                                               |                |                e[0:3]: 0x229-0x230 (7)
     |                                               |                |                  [0]{}: in 0x229-0x22b (2)
0x220|                           20                  |                |                    opcode: "local.get" (0x20) 0x229-0x22a (1)
0x220|                              00               |          .     |                    x: 0 (valid) 0x22a-0x22b (1)
     |                                               |                |                  [1]{}: in 0x22b-0x22f (4)
0x220|                                 fd            |           .    |                    opcode: "vector" (0xfd) 0x22b-0x22c (1)
0x220|                                    5c         |            \   |                    v_opcode: "v128.load32_zero" (92) 0x22c-0x22d (1)
     |                                               |                |                    m{}: 0x22d-0x22f (2)
0x220|                                       00      |             .  |                      a: 0 (valid) 0x22d-0x22e (1)
0x220|                                          01   |              . |                      o: 1 (valid) 0x22e-0x22f (1)
     |                                               |                |                  [2]{}: in 0x22f-0x230 (1)
0x220|                                             0b|               .|                    opcode: "end" (0xb) 0x22f-0x230 (1)
     |                                               |                |            [8]{}: code 0x230-0x239 (9)
0x230|08                                             |.               |              size: 8 (valid) 0x230-0x231 (1)
     |                                               |                |              code{}: 0x231-0x239 (8)
     |                                               |                |                t{}: 0x231-0x232 (1)
0x230|   00                                          | .              |                  n: 0 (valid) 0x231-0x232 (1)
     |                                               |                |                  x[0:0]: 0x232-0x232 (0)
     |                                               |                |                e[0:3]: 0x232-0x239 (7)
     |                                               |                |                  [0]{}: in 0x232-0x234 (2)
0x230|      20                                       |                |                    opcode: "local.get" (0x20) 0x232-0x233 (1)
0x230|         00                                    |   .            |                    x: 0 (valid) 0x233-0x234 (1)
     |                                               |                |                  [1]{}: in 0x234-0x238 (4)
0x230|            fd                                 |    .           |                    opcode: "vector" (0xfd) 0x234-0x235 (1)
0x230|               5c                              |     \          |                    v_opcode: "v128.load32_zero" (92) 0x235-0x236 (1)
     |                                               |                |                    m{}: 0x236-0x238 (2)
0x230|                  02                           |      .         |                      a: 2 (valid) 0x236-0x237 (1)
0x230|                     0a                        |       .        |                      o: 10 (valid) 0x237-0x238 (1)
     |                                               |                |                  [2]{}: in 0x238-0x239 (1)
0x230|                        0b                     |        .       |                    opcode: "end" (0xb) 0x238-0x239 (1)
     |                                               |                |            [9]{}: code 0x239-0x242 (9)
0x230|                           08                  |         .      |              size: 8 (valid) 0x239-0x23a (1)
     |                                               |                |              code{}: 0x23a-0x242 (8)
     |                                               |                |                t{}: 0x23a-0x23b (1)
0x230|                              00               |          .     |                  n: 0 (valid) 0x23a-0x23b (1)
     |                                               |                |                  x[0:0]: 0x23b-0x23b (0)
     |                                               |                |                e[0:3]: 0x23b-0x242 (7)
     |                                               |                |                  [0]{}: in 0x23b-0x23d (2)
0x230|                                 20            |                |                    opcode: "local.get" (0x20) 0x23b-0x23c (1)
0x230|                                    00         |            .   |                    x: 0 (valid) 0x23c-0x23d (1)
     |                                               |                |                  [1]{}: in 0x23d-0x241 (4)
0x230|                                       fd      |             .  |                    opcode: "vector" (0xfd) 0x23d-0x23e (1)
0x230|                                          5d   |              ] |                    v_opcode: "v128.load64_zero" (93) 0x23e-0x23f (1)
     |                                               |                |                    m{}: 0x23f-0x241 (2)
0x230|                                             03|               .|                      a: 3 (valid) 0x23f-0x240 (1)
0x240|00                                             |.               |                      o: 0 (valid) 0x240-0x241 (1)
     |                                               |                |                  [2]{}: in 0x241-0x242 (1)
0x240|   0b                                          | .              |                    opcode: "end" (0xb) 0x241-0x242 (1)
     |                                               |                |            [10]{}: code 0x242-0x24b (9)
0x240|      08                                       |  .             |              size: 8 (valid) 0x242-0x243 (1)
     |                                               |                |              code{}: 0x243-0x24b (8)
     |                                               |                |                t{}: 0x243-0x244 (1)
0x240|         00                                    |   .            |                  n: 0 (valid) 0x243-0x244 (1)
     |                                               |                |                  x[0:0]: 0x244-0x244 (0)
     |                                               |                |                e[0:3]: 0x244-0x24b (7)
     |                                               |                |                  [0]{}: in 0x244-0x246 (2)
0x240|            20                                 |                |                    opcode: "local.get" (0x20) 0x244-0x245 (1)
0x240|               00                              |     .          |                    x: 0 (valid) 0x245-0x246 (1)
     |                                               |                |                  [1]{}: in 0x246-0x24a (4)
0x240|                  fd                           |      .         |                    opcode: "vector" (0xfd) 0x246-0x247 (1)
0x240|                     5d                        |       ]        |                    v_opcode: "v128.load64_zero" (93) 0x247-0x248 (1)
     |                                               |                |                    m{}: 0x248-0x24a (2)
0x240|                        00                     |        .       |                      a: 0 (valid) 0x248-0x249 (1)
0x240|                           00                  |         .      |                      o: 0 (valid) 0x249-0x24a (1)
     |                                               |                |                  [2]{}: in 0x24a-0x24b (1)
0x240|                              0b               |          .     |                    opcode: "end" (0xb) 0x24a-0x24b (1)
     |                                               |                |            [11]{}: code 0x24b-0x254 (9)
0x240|                                 08            |           .    |              size: 8 (valid) 0x24b-0x24c (1)
     |                                               |                |              code{}: 0x24c-0x254 (8)
     |                                               |                |                t{}: 0x24c-0x24d (1)
0x240|                                    00         |            .   |                  n: 0 (valid) 0x24c-0x24d (1)
     |                                               |                |                  x[0:0]: 0x24d-0x24d (0)
     |                                               |                |                e[0:3]: 0x24d-0x254 (7)
     |                                               |                |                  [0]{}: in 0x24d-0x24f (2)
0x240|                                       20      |                |                    opcode: "local.get" (0x20) 0x24d-0x24e (1)
0x240|                                          00   |              . |                    x: 0 (valid) 0x24e-0x24f (1)
     |                                               |                |                  [1]{}: in 0x24f-0x253 (4)
0x240|                                             fd|               .|                    opcode: "vector" (0xfd) 0x24f-0x250 (1)
0x250|5d                                             |]               |                    v_opcode: "v128.load64_zero" (93) 0x250-0x251 (1)
     |                                               |                |                    m{}: 0x251-0x253 (2)
0x250|   00                                          | .              |                      a: 0 (valid) 0x251-0x252 (1)
0x250|      00                                       |  .             |                      o: 0 (valid) 0x252-0x253 (1)
     |                                               |                |                  [2]{}: in 0x253-0x254 (1)
0x250|         0b                                    |   .            |                    opcode: "end" (0xb) 0x253-0x254 (1)
     |                                               |                |            [12]{}: code 0x254-0x25d (9)
0x250|            08                                 |    .           |              size: 8 (valid) 0x254-0x255 (1)
     |                                               |                |              code{}: 0x255-0x25d (8)
     |                                               |                |                t{}: 0x255-0x256 (1)
0x250|               00                              |     .          |                  n: 0 (valid) 0x255-0x256 (1)
     |                                               |                |                  x[0:0]: 0x256-0x256 (0)
     |                                               |                |                e[0:3]: 0x256-0x25d (7)
     |                                               |                |                  [0]{}: in 0x256-0x258 (2)
0x250|                  20                           |                |                    opcode: "local.get" (0x20) 0x256-0x257 (1)
0x250|                     00                        |       .        |                    x: 0 (valid) 0x257-0x258 (1)
     |                                               |                |                  [1]{}: in 0x258-0x25c (4)
0x250|                        fd                     |        .       |                    opcode: "vector" (0xfd) 0x258-0x259 (1)
0x250|                           5d                  |         ]      |                    v_opcode: "v128.load64_zero" (93) 0x259-0x25a (1)
     |                                               |                |                    m{}: 0x25a-0x25c (2)
0x250|                              00               |          .     |                      a: 0 (valid) 0x25a-0x25b (1)
0x250|                                 01            |           .    |                      o: 1 (valid) 0x25b-0x25c (1)
     |                                               |                |                  [2]{}: in 0x25c-0x25d (1)
0x250|                                    0b         |            .   |                    opcode: "end" (0xb) 0x25c-0x25d (1)
     |                                               |                |            [13]{}: code 0x25d-0x266 (9)
0x250|                                       08      |             .  |              size: 8 (valid) 0x25d-0x25e (1)
     |                                               |                |              code{}: 0x25e-0x266 (8)
     |                                               |                |                t{}: 0x25e-0x25f (1)
0x250|                                          00   |              . |                  n: 0 (valid) 0x25e-0x25f (1)
     |                                               |                |                  x[0:0]: 0x25f-0x25f (0)
     |                                               |                |                e[0:3]: 0x25f-0x266 (7)
     |                                               |                |                  [0]{}: in 0x25f-0x261 (2)
0x250|                                             20|                |                    opcode: "local.get" (0x20) 0x25f-0x260 (1)
0x260|00                                             |.               |                    x: 0 (valid) 0x260-0x261 (1)
     |                                               |                |                  [1]{}: in 0x261-0x265 (4)
0x260|   fd                                          | .              |                    opcode: "vector" (0xfd) 0x261-0x262 (1)
0x260|      5d                                       |  ]             |                    v_opcode: "v128.load64_zero" (93) 0x262-0x263 (1)
     |                                               |                |                    m{}: 0x263-0x265 (2)
0x260|         02                                    |   .            |                      a: 2 (valid) 0x263-0x264 (1)
0x260|            0a                                 |    .           |                      o: 10 (valid) 0x264-0x265 (1)
     |                                               |                |                  [2]{}: in 0x265-0x266 (1)
0x260|               0b                              |     .          |                    opcode: "end" (0xb) 0x265-0x266 (1)
     |                                               |                |            [14]{}: code 0x266-0x26f (9)
0x260|                  08                           |      .         |              size: 8 (valid) 0x266-0x267 (1)
     |                                               |                |              code{}: 0x267-0x26f (8)
     |                                               |                |                t{}: 0x267-0x268 (1)
0x260|                     00                        |       .        |                  n: 0 (valid) 0x267-0x268 (1)
     |                                               |                |                  x[0:0]: 0x268-0x268 (0)
     |                                               |                |                e[0:3]: 0x268-0x26f (7)
     |                                               |                |                  [0]{}: in 0x268-0x26a (2)
0x260|                        20                     |                |                    opcode: "local.get" (0x20) 0x268-0x269 (1)
0x260|                           00                  |         .      |                    x: 0 (valid) 0x269-0x26a (1)
     |                                               |                |                  [1]{}: in 0x26a-0x26e (4)
0x260|                              fd               |          .     |                    opcode: "vector" (0xfd) 0x26a-0x26b (1)
0x260|                                 5d            |           ]    |                    v_opcode: "v128.load64_zero" (93) 0x26b-0x26c (1)
     |                                               |                |                    m{}: 0x26c-0x26e (2)
0x260|                                    03         |            .   |                      a: 3 (valid) 0x26c-0x26d (1)
0x260|                                       14      |             .  |                      o: 20 (valid) 0x26d-0x26e (1)
     |                                               |                |                  [2]{}: in 0x26e-0x26f (1)
0x260|                                          0b   |              . |                    opcode: "end" (0xb) 0x26e-0x26f (1)
     |                                               |                |    [5]{}: section 0x26f-0x2a8 (57)
0x260|                                             0b|               .|      id: "data_section" (11) 0x26f-0x270 (1)
0x270|37                                             |7               |      size: 55 (valid) 0x270-0x271 (1)
     |                                               |                |      content{}: 0x271-0x2a8 (55)
     |                                               |                |        seg{}: 0x271-0x2a8 (55)
0x270|   02                                          | .              |          n: 2 (valid) 0x271-0x272 (1)
     |                                               |                |          x[0:2]: 0x272-0x2a8 (54)
     |                                               |                |            [0]{}: seg 0x272-0x291 (31)
0x270|      00                                       |  .             |              tag: 0 (valid) 0x272-0x273 (1)
     |                                               |                |              e[0:2]: 0x273-0x276 (3)
     |                                               |                |                [0]{}: in 0x273-0x275 (2)
0x270|         41                                    |   A            |                  opcode: "i32.const" (0x41) 0x273-0x274 (1)
0x270|            00                                 |    .           |                  n: 0 (valid) 0x274-0x275 (1)
     |                                               |                |                [1]{}: in 0x275-0x276 (1)
0x270|               0b                              |     .          |                  opcode: "end" (0xb) 0x275-0x276 (1)
     |                                               |                |              b{}: 0x276-0x291 (27)
0x270|                  1a                           |      .         |                n: 26 (valid) 0x276-0x277 (1)
0x270|                     00 01 02 03 04 05 06 07 08|       .........|                x: raw bits 0x277-0x291 (26)
0x280|09 0a 0b 0c 0d 0e 0f 80 81 82 83 84 85 86 87 88|................|
0x290|89                                             |.               |
     |                                               |                |            [1]{}: seg 0x291-0x2a8 (23)
0x290|   00                                          | .              |              tag: 0 (valid) 0x291-0x292 (1)
     |                                               |                |              e[0:2]: 0x292-0x297 (5)
     |                                               |                |                [0]{}: in 0x292-0x296 (4)
0x290|      41                                       |  A             |                  opcode: "i32.const" (0x41) 0x292-0x293 (1)
0x290|         f0 ff 03                              |   ...          |                  n: 65520 (valid) 0x293-0x296 (3)
     |                                               |                |                [1]{}: in 0x296-0x297 (1)
0x290|                  0b                           |      .         |                  opcode: "end" (0xb) 0x296-0x297 (1)
     |                                               |                |              b{}: 0x297-0x2a8 (17)
0x290|                     10                        |       .        |                n: 16 (valid) 0x297-0x298 (1)
0x290|                        0a 0b 0c 0d 0e 0f 80 81|        ........|                x: raw bits 0x298-0x2a8 (16)
0x2a0|82 83 84 85 86 87 88 89|                       |........|       |
