$ fq -d wasm dv simd_f32x4-1.wasm
    |00 01 02 03 04 05 06 07 08 09 0a 0b 0c 0d 0e 0f|0123456789abcdef|.{}: simd_f32x4-1.wasm (wasm) 0x0-0x84.7 (133)
0x00|00 61 73 6d                                    |.asm            |  magic: raw bits (valid) 0x0-0x3.7 (4)
0x00|            01 00 00 00                        |    ....        |  version: 1 0x4-0x7.7 (4)
    |                                               |                |  sections[0:4]: 0x8-0x84.7 (125)
    |                                               |                |    [0]{}: section 0x8-0x17.7 (16)
0x00|                        01                     |        .       |      id: "type section" (1) 0x8-0x8.7 (1)
0x00|                           0e                  |         .      |      size: 14 0x9-0x9.7 (1)
    |                                               |                |      content{}: 0xa-0x17.7 (14)
    |                                               |                |        ft{}: 0xa-0x17.7 (14)
0x00|                              02               |          .     |          n: 2 0xa-0xa.7 (1)
    |                                               |                |          x[0:2]: 0xb-0x17.7 (13)
    |                                               |                |            [0]{}: ft 0xb-0x11.7 (7)
0x00|                                 60            |           `    |              tag: 0x60 (valid) 0xb-0xb.7 (1)
    |                                               |                |              rt1{}: 0xc-0xf.7 (4)
0x00|                                    03         |            .   |                n: 3 0xc-0xc.7 (1)
    |                                               |                |                x[0:3]: 0xd-0xf.7 (3)
0x00|                                       7b      |             {  |                  [0]: "v128" (0x7b) t 0xd-0xd.7 (1)
0x00|                                          7b   |              { |                  [1]: "v128" (0x7b) t 0xe-0xe.7 (1)
0x00|                                             7b|               {|                  [2]: "v128" (0x7b) t 0xf-0xf.7 (1)
    |                                               |                |              rt2{}: 0x10-0x11.7 (2)
0x10|01                                             |.               |                n: 1 0x10-0x10.7 (1)
    |                                               |                |                x[0:1]: 0x11-0x11.7 (1)
0x10|   7b                                          | {              |                  [0]: "v128" (0x7b) t 0x11-0x11.7 (1)
    |                                               |                |            [1]{}: ft 0x12-0x17.7 (6)
0x10|      60                                       |  `             |              tag: 0x60 (valid) 0x12-0x12.7 (1)
    |                                               |                |              rt1{}: 0x13-0x15.7 (3)
0x10|         02                                    |   .            |                n: 2 0x13-0x13.7 (1)
    |                                               |                |                x[0:2]: 0x14-0x15.7 (2)
0x10|            7b                                 |    {           |                  [0]: "v128" (0x7b) t 0x14-0x14.7 (1)
0x10|               7b                              |     {          |                  [1]: "v128" (0x7b) t 0x15-0x15.7 (1)
    |                                               |                |              rt2{}: 0x16-0x17.7 (2)
0x10|                  01                           |      .         |                n: 1 0x16-0x16.7 (1)
    |                                               |                |                x[0:1]: 0x17-0x17.7 (1)
0x10|                     7b                        |       {        |                  [0]: "v128" (0x7b) t 0x17-0x17.7 (1)
    |                                               |                |    [1]{}: section 0x18-0x1e.7 (7)
0x10|                        03                     |        .       |      id: "function section" (3) 0x18-0x18.7 (1)
0x10|                           05                  |         .      |      size: 5 0x19-0x19.7 (1)
    |                                               |                |      content{}: 0x1a-0x1e.7 (5)
    |                                               |                |        x{}: 0x1a-0x1e.7 (5)
0x10|                              04               |          .     |          n: 4 0x1a-0x1a.7 (1)
    |                                               |                |          x[0:4]: 0x1b-0x1e.7 (4)
0x10|                                 00            |           .    |            [0]: 0 x 0x1b-0x1b.7 (1)
0x10|                                    00         |            .   |            [1]: 0 x 0x1c-0x1c.7 (1)
0x10|                                       01      |             .  |            [2]: 1 x 0x1d-0x1d.7 (1)
0x10|                                          01   |              . |            [3]: 1 x 0x1e-0x1e.7 (1)
    |                                               |                |    [2]{}: section 0x1f-0x49.7 (43)
0x10|                                             07|               .|      id: "export section" (7) 0x1f-0x1f.7 (1)
0x20|29                                             |)               |      size: 41 0x20-0x20.7 (1)
    |                                               |                |      content{}: 0x21-0x49.7 (41)
    |                                               |                |        ex{}: 0x21-0x49.7 (41)
0x20|   04                                          | .              |          n: 4 0x21-0x21.7 (1)
    |                                               |                |          x[0:4]: 0x22-0x49.7 (40)
    |                                               |                |            [0]{}: ex 0x22-0x2b.7 (10)
    |                                               |                |              nm{}: 0x22-0x29.7 (8)
0x20|      07                                       |  .             |                n: 7 0x22-0x22.7 (1)
0x20|         6d 61 78 2d 6d 69 6e                  |   max-min      |                b: "max-min" 0x23-0x29.7 (7)
    |                                               |                |              d{}: 0x2a-0x2b.7 (2)
0x20|                              00               |          .     |                tag: "funcidx" (0x0) 0x2a-0x2a.7 (1)
0x20|                                 00            |           .    |                x: 0 0x2b-0x2b.7 (1)
    |                                               |                |            [1]{}: ex 0x2c-0x35.7 (10)
    |                                               |                |              nm{}: 0x2c-0x33.7 (8)
0x20|                                    07         |            .   |                n: 7 0x2c-0x2c.7 (1)
0x20|                                       6d 69 6e|             min|                b: "min-max" 0x2d-0x33.7 (7)
0x30|2d 6d 61 78                                    |-max            |
    |                                               |                |              d{}: 0x34-0x35.7 (2)
0x30|            00                                 |    .           |                tag: "funcidx" (0x0) 0x34-0x34.7 (1)
0x30|               01                              |     .          |                x: 1 0x35-0x35.7 (1)
    |                                               |                |            [2]{}: ex 0x36-0x3f.7 (10)
    |                                               |                |              nm{}: 0x36-0x3d.7 (8)
0x30|                  07                           |      .         |                n: 7 0x36-0x36.7 (1)
0x30|                     6d 61 78 2d 61 62 73      |       max-abs  |                b: "max-abs" 0x37-0x3d.7 (7)
    |                                               |                |              d{}: 0x3e-0x3f.7 (2)
0x30|                                          00   |              . |                tag: "funcidx" (0x0) 0x3e-0x3e.7 (1)
0x30|                                             02|               .|                x: 2 0x3f-0x3f.7 (1)
    |                                               |                |            [3]{}: ex 0x40-0x49.7 (10)
    |                                               |                |              nm{}: 0x40-0x47.7 (8)
0x40|07                                             |.               |                n: 7 0x40-0x40.7 (1)
0x40|   6d 69 6e 2d 61 62 73                        | min-abs        |                b: "min-abs" 0x41-0x47.7 (7)
    |                                               |                |              d{}: 0x48-0x49.7 (2)
0x40|                        00                     |        .       |                tag: "funcidx" (0x0) 0x48-0x48.7 (1)
0x40|                           03                  |         .      |                x: 3 0x49-0x49.7 (1)
    |                                               |                |    [3]{}: section 0x4a-0x84.7 (59)
0x40|                              0a               |          .     |      id: "code section" (10) 0x4a-0x4a.7 (1)
0x40|                                 39            |           9    |      size: 57 0x4b-0x4b.7 (1)
    |                                               |                |      content{}: 0x4c-0x84.7 (57)
    |                                               |                |        code{}: 0x4c-0x84.7 (57)
0x40|                                    04         |            .   |          n: 4 0x4c-0x4c.7 (1)
    |                                               |                |          x[0:4]: 0x4d-0x84.7 (56)
    |                                               |                |            [0]{}: code 0x4d-0x5b.7 (15)
0x40|                                       0e      |             .  |              size: 14 0x4d-0x4d.7 (1)
    |                                               |                |              code{}: 0x4e-0x5b.7 (14)
    |                                               |                |                t{}: 0x4e-0x4e.7 (1)
0x40|                                          00   |              . |                  n: 0 0x4e-0x4e.7 (1)
    |                                               |                |                  x[0:0]: 0x4f-NA (0)
    |                                               |                |                e[0:6]: 0x4f-0x5b.7 (13)
    |                                               |                |                  [0]{}: in 0x4f-0x50.7 (2)
0x40|                                             20|                |                    local.get: 0x20 (valid) 0x4f-0x4f.7 (1)
0x50|00                                             |.               |                    x: 0 0x50-0x50.7 (1)
    |                                               |                |                  [1]{}: in 0x51-0x52.7 (2)
0x50|   20                                          |                |                    local.get: 0x20 (valid) 0x51-0x51.7 (1)
0x50|      01                                       |  .             |                    x: 1 0x52-0x52.7 (1)
    |                                               |                |                  [2]{}: in 0x53-0x55.7 (3)
0x50|         fd                                    |   .            |                    prefix: 0xfd (valid) 0x53-0x53.7 (1)
0x50|            e8 01                              |    ..          |                    f32x4.min: 232 (valid) 0x54-0x55.7 (2)
    |                                               |                |                  [3]{}: in 0x56-0x57.7 (2)
0x50|                  20                           |                |                    local.get: 0x20 (valid) 0x56-0x56.7 (1)
0x50|                     02                        |       .        |                    x: 2 0x57-0x57.7 (1)
    |                                               |                |                  [4]{}: in 0x58-0x5a.7 (3)
0x50|                        fd                     |        .       |                    prefix: 0xfd (valid) 0x58-0x58.7 (1)
0x50|                           e9 01               |         ..     |                    f32x4.max: 233 (valid) 0x59-0x5a.7 (2)
    |                                               |                |                  [5]{}: in 0x5b-0x5b.7 (1)
0x50|                                 0b            |           .    |                    end: 0xb (valid) 0x5b-0x5b.7 (1)
    |                                               |                |            [1]{}: code 0x5c-0x6a.7 (15)
0x50|                                    0e         |            .   |              size: 14 0x5c-0x5c.7 (1)
    |                                               |                |              code{}: 0x5d-0x6a.7 (14)
    |                                               |                |                t{}: 0x5d-0x5d.7 (1)
0x50|                                       00      |             .  |                  n: 0 0x5d-0x5d.7 (1)
    |                                               |                |                  x[0:0]: 0x5e-NA (0)
    |                                               |                |                e[0:6]: 0x5e-0x6a.7 (13)
    |                                               |                |                  [0]{}: in 0x5e-0x5f.7 (2)
0x50|                                          20   |                |                    local.get: 0x20 (valid) 0x5e-0x5e.7 (1)
0x50|                                             00|               .|                    x: 0 0x5f-0x5f.7 (1)
    |                                               |                |                  [1]{}: in 0x60-0x61.7 (2)
0x60|20                                             |                |                    local.get: 0x20 (valid) 0x60-0x60.7 (1)
0x60|   01                                          | .              |                    x: 1 0x61-0x61.7 (1)
    |                                               |                |                  [2]{}: in 0x62-0x64.7 (3)
0x60|      fd                                       |  .             |                    prefix: 0xfd (valid) 0x62-0x62.7 (1)
0x60|         e9 01                                 |   ..           |                    f32x4.max: 233 (valid) 0x63-0x64.7 (2)
    |                                               |                |                  [3]{}: in 0x65-0x66.7 (2)
0x60|               20                              |                |                    local.get: 0x20 (valid) 0x65-0x65.7 (1)
0x60|                  02                           |      .         |                    x: 2 0x66-0x66.7 (1)
    |                                               |                |                  [4]{}: in 0x67-0x69.7 (3)
0x60|                     fd                        |       .        |                    prefix: 0xfd (valid) 0x67-0x67.7 (1)
0x60|                        e8 01                  |        ..      |                    f32x4.min: 232 (valid) 0x68-0x69.7 (2)
    |                                               |                |                  [5]{}: in 0x6a-0x6a.7 (1)
0x60|                              0b               |          .     |                    end: 0xb (valid) 0x6a-0x6a.7 (1)
    |                                               |                |            [2]{}: code 0x6b-0x77.7 (13)
0x60|                                 0c            |           .    |              size: 12 0x6b-0x6b.7 (1)
    |                                               |                |              code{}: 0x6c-0x77.7 (12)
    |                                               |                |                t{}: 0x6c-0x6c.7 (1)
0x60|                                    00         |            .   |                  n: 0 0x6c-0x6c.7 (1)
    |                                               |                |                  x[0:0]: 0x6d-NA (0)
    |                                               |                |                e[0:5]: 0x6d-0x77.7 (11)
    |                                               |                |                  [0]{}: in 0x6d-0x6e.7 (2)
0x60|                                       20      |                |                    local.get: 0x20 (valid) 0x6d-0x6d.7 (1)
0x60|                                          00   |              . |                    x: 0 0x6e-0x6e.7 (1)
    |                                               |                |                  [1]{}: in 0x6f-0x71.7 (3)
0x60|                                             fd|               .|                    prefix: 0xfd (valid) 0x6f-0x6f.7 (1)
0x70|e0 01                                          |..              |                    f32x4.abs: 224 (valid) 0x70-0x71.7 (2)
    |                                               |                |                  [2]{}: in 0x72-0x73.7 (2)
0x70|      20                                       |                |                    local.get: 0x20 (valid) 0x72-0x72.7 (1)
0x70|         01                                    |   .            |                    x: 1 0x73-0x73.7 (1)
    |                                               |                |                  [3]{}: in 0x74-0x76.7 (3)
0x70|            fd                                 |    .           |                    prefix: 0xfd (valid) 0x74-0x74.7 (1)
0x70|               e9 01                           |     ..         |                    f32x4.max: 233 (valid) 0x75-0x76.7 (2)
    |                                               |                |                  [4]{}: in 0x77-0x77.7 (1)
0x70|                     0b                        |       .        |                    end: 0xb (valid) 0x77-0x77.7 (1)
    |                                               |                |            [3]{}: code 0x78-0x84.7 (13)
0x70|                        0c                     |        .       |              size: 12 0x78-0x78.7 (1)
    |                                               |                |              code{}: 0x79-0x84.7 (12)
    |                                               |                |                t{}: 0x79-0x79.7 (1)
0x70|                           00                  |         .      |                  n: 0 0x79-0x79.7 (1)
    |                                               |                |                  x[0:0]: 0x7a-NA (0)
    |                                               |                |                e[0:5]: 0x7a-0x84.7 (11)
    |                                               |                |                  [0]{}: in 0x7a-0x7b.7 (2)
0x70|                              20               |                |                    local.get: 0x20 (valid) 0x7a-0x7a.7 (1)
0x70|                                 00            |           .    |                    x: 0 0x7b-0x7b.7 (1)
    |                                               |                |                  [1]{}: in 0x7c-0x7e.7 (3)
0x70|                                    fd         |            .   |                    prefix: 0xfd (valid) 0x7c-0x7c.7 (1)
0x70|                                       e0 01   |             .. |                    f32x4.abs: 224 (valid) 0x7d-0x7e.7 (2)
    |                                               |                |                  [2]{}: in 0x7f-0x80.7 (2)
0x70|                                             20|                |                    local.get: 0x20 (valid) 0x7f-0x7f.7 (1)
0x80|01                                             |.               |                    x: 1 0x80-0x80.7 (1)
    |                                               |                |                  [3]{}: in 0x81-0x83.7 (3)
0x80|   fd                                          | .              |                    prefix: 0xfd (valid) 0x81-0x81.7 (1)
0x80|      e8 01                                    |  ..            |                    f32x4.min: 232 (valid) 0x82-0x83.7 (2)
    |                                               |                |                  [4]{}: in 0x84-0x84.7 (1)
0x80|            0b|                                |    .|          |                    end: 0xb (valid) 0x84-0x84.7 (1)
