$ fq -d wasm dv simd_lane-0.wasm
     |00 01 02 03 04 05 06 07 08 09 0a 0b 0c 0d 0e 0f|0123456789abcdef|.{}: simd_lane-0.wasm (wasm) 0x0-0x5a0 (1440)
0x000|00 61 73 6d                                    |.asm            |  magic: raw bits (valid) 0x0-0x4 (4)
0x000|            01 00 00 00                        |    ....        |  version: 1 0x4-0x8 (4)
     |                                               |                |  sections[0:4]: 0x8-0x5a0 (1432)
     |                                               |                |    [0]{}: section 0x8-0x3d (53)
0x000|                        01                     |        .       |      id: "type_section" (1) 0x8-0x9 (1)
0x000|                           33                  |         3      |      size: 51 (valid) 0x9-0xa (1)
     |                                               |                |      content{}: 0xa-0x3d (51)
     |                                               |                |        ft{}: 0xa-0x3d (51)
0x000|                              09               |          .     |          n: 9 (valid) 0xa-0xb (1)
     |                                               |                |          x[0:9]: 0xb-0x3d (50)
     |                                               |                |            [0]{}: ft 0xb-0x10 (5)
0x000|                                 60            |           `    |              tag: 0x60 (valid) 0xb-0xc (1)
     |                                               |                |              rt1{}: 0xc-0xe (2)
0x000|                                    01         |            .   |                n: 1 (valid) 0xc-0xd (1)
     |                                               |                |                x[0:1]: 0xd-0xe (1)
0x000|                                       7b      |             {  |                  [0]: "v128" (0x7b) t 0xd-0xe (1)
     |                                               |                |              rt2{}: 0xe-0x10 (2)
0x000|                                          01   |              . |                n: 1 (valid) 0xe-0xf (1)
     |                                               |                |                x[0:1]: 0xf-0x10 (1)
0x000|                                             7f|               .|                  [0]: "i32" (0x7f) t 0xf-0x10 (1)
     |                                               |                |            [1]{}: ft 0x10-0x15 (5)
0x010|60                                             |`               |              tag: 0x60 (valid) 0x10-0x11 (1)
     |                                               |                |              rt1{}: 0x11-0x13 (2)
0x010|   01                                          | .              |                n: 1 (valid) 0x11-0x12 (1)
     |                                               |                |                x[0:1]: 0x12-0x13 (1)
0x010|      7b                                       |  {             |                  [0]: "v128" (0x7b) t 0x12-0x13 (1)
     |                                               |                |              rt2{}: 0x13-0x15 (2)
0x010|         01                                    |   .            |                n: 1 (valid) 0x13-0x14 (1)
     |                                               |                |                x[0:1]: 0x14-0x15 (1)
0x010|            7d                                 |    }           |                  [0]: "f32" (0x7d) t 0x14-0x15 (1)
     |                                               |                |            [2]{}: ft 0x15-0x1b (6)
0x010|               60                              |     `          |              tag: 0x60 (valid) 0x15-0x16 (1)
     |                                               |                |              rt1{}: 0x16-0x19 (3)
0x010|                  02                           |      .         |                n: 2 (valid) 0x16-0x17 (1)
     |                                               |                |                x[0:2]: 0x17-0x19 (2)
0x010|                     7b                        |       {        |                  [0]: "v128" (0x7b) t 0x17-0x18 (1)
0x010|                        7f                     |        .       |                  [1]: "i32" (0x7f) t 0x18-0x19 (1)
     |                                               |                |              rt2{}: 0x19-0x1b (2)
0x010|                           01                  |         .      |                n: 1 (valid) 0x19-0x1a (1)
     |                                               |                |                x[0:1]: 0x1a-0x1b (1)
0x010|                              7b               |          {     |                  [0]: "v128" (0x7b) t 0x1a-0x1b (1)
     |                                               |                |            [3]{}: ft 0x1b-0x21 (6)
0x010|                                 60            |           `    |              tag: 0x60 (valid) 0x1b-0x1c (1)
     |                                               |                |              rt1{}: 0x1c-0x1f (3)
0x010|                                    02         |            .   |                n: 2 (valid) 0x1c-0x1d (1)
     |                                               |                |                x[0:2]: 0x1d-0x1f (2)
0x010|                                       7b      |             {  |                  [0]: "v128" (0x7b) t 0x1d-0x1e (1)
0x010|                                          7d   |              } |                  [1]: "f32" (0x7d) t 0x1e-0x1f (1)
     |                                               |                |              rt2{}: 0x1f-0x21 (2)
0x010|                                             01|               .|                n: 1 (valid) 0x1f-0x20 (1)
     |                                               |                |                x[0:1]: 0x20-0x21 (1)
0x020|7b                                             |{               |                  [0]: "v128" (0x7b) t 0x20-0x21 (1)
     |                                               |                |            [4]{}: ft 0x21-0x26 (5)
0x020|   60                                          | `              |              tag: 0x60 (valid) 0x21-0x22 (1)
     |                                               |                |              rt1{}: 0x22-0x24 (2)
0x020|      01                                       |  .             |                n: 1 (valid) 0x22-0x23 (1)
     |                                               |                |                x[0:1]: 0x23-0x24 (1)
0x020|         7b                                    |   {            |                  [0]: "v128" (0x7b) t 0x23-0x24 (1)
     |                                               |                |              rt2{}: 0x24-0x26 (2)
0x020|            01                                 |    .           |                n: 1 (valid) 0x24-0x25 (1)
     |                                               |                |                x[0:1]: 0x25-0x26 (1)
0x020|               7e                              |     ~          |                  [0]: "i64" (0x7e) t 0x25-0x26 (1)
     |                                               |                |            [5]{}: ft 0x26-0x2b (5)
0x020|                  60                           |      `         |              tag: 0x60 (valid) 0x26-0x27 (1)
     |                                               |                |              rt1{}: 0x27-0x29 (2)
0x020|                     01                        |       .        |                n: 1 (valid) 0x27-0x28 (1)
     |                                               |                |                x[0:1]: 0x28-0x29 (1)
0x020|                        7b                     |        {       |                  [0]: "v128" (0x7b) t 0x28-0x29 (1)
     |                                               |                |              rt2{}: 0x29-0x2b (2)
0x020|                           01                  |         .      |                n: 1 (valid) 0x29-0x2a (1)
     |                                               |                |                x[0:1]: 0x2a-0x2b (1)
0x020|                              7c               |          |     |                  [0]: "f64" (0x7c) t 0x2a-0x2b (1)
     |                                               |                |            [6]{}: ft 0x2b-0x31 (6)
0x020|                                 60            |           `    |              tag: 0x60 (valid) 0x2b-0x2c (1)
     |                                               |                |              rt1{}: 0x2c-0x2f (3)
0x020|                                    02         |            .   |                n: 2 (valid) 0x2c-0x2d (1)
     |                                               |                |                x[0:2]: 0x2d-0x2f (2)
0x020|                                       7b      |             {  |                  [0]: "v128" (0x7b) t 0x2d-0x2e (1)
0x020|                                          7e   |              ~ |                  [1]: "i64" (0x7e) t 0x2e-0x2f (1)
     |                                               |                |              rt2{}: 0x2f-0x31 (2)
0x020|                                             01|               .|                n: 1 (valid) 0x2f-0x30 (1)
     |                                               |                |                x[0:1]: 0x30-0x31 (1)
0x030|7b                                             |{               |                  [0]: "v128" (0x7b) t 0x30-0x31 (1)
     |                                               |                |            [7]{}: ft 0x31-0x37 (6)
0x030|   60                                          | `              |              tag: 0x60 (valid) 0x31-0x32 (1)
     |                                               |                |              rt1{}: 0x32-0x35 (3)
0x030|      02                                       |  .             |                n: 2 (valid) 0x32-0x33 (1)
     |                                               |                |                x[0:2]: 0x33-0x35 (2)
0x030|         7b                                    |   {            |                  [0]: "v128" (0x7b) t 0x33-0x34 (1)
0x030|            7c                                 |    |           |                  [1]: "f64" (0x7c) t 0x34-0x35 (1)
     |                                               |                |              rt2{}: 0x35-0x37 (2)
0x030|               01                              |     .          |                n: 1 (valid) 0x35-0x36 (1)
     |                                               |                |                x[0:1]: 0x36-0x37 (1)
0x030|                  7b                           |      {         |                  [0]: "v128" (0x7b) t 0x36-0x37 (1)
     |                                               |                |            [8]{}: ft 0x37-0x3d (6)
0x030|                     60                        |       `        |              tag: 0x60 (valid) 0x37-0x38 (1)
     |                                               |                |              rt1{}: 0x38-0x3b (3)
0x030|                        02                     |        .       |                n: 2 (valid) 0x38-0x39 (1)
     |                                               |                |                x[0:2]: 0x39-0x3b (2)
0x030|                           7b                  |         {      |                  [0]: "v128" (0x7b) t 0x39-0x3a (1)
0x030|                              7b               |          {     |                  [1]: "v128" (0x7b) t 0x3a-0x3b (1)
     |                                               |                |              rt2{}: 0x3b-0x3d (2)
0x030|                                 01            |           .    |                n: 1 (valid) 0x3b-0x3c (1)
     |                                               |                |                x[0:1]: 0x3c-0x3d (1)
0x030|                                    7b         |            {   |                  [0]: "v128" (0x7b) t 0x3c-0x3d (1)
     |                                               |                |    [1]{}: section 0x3d-0x64 (39)
0x030|                                       03      |             .  |      id: "function_section" (3) 0x3d-0x3e (1)
0x030|                                          25   |              % |      size: 37 (valid) 0x3e-0x3f (1)
     |                                               |                |      content{}: 0x3f-0x64 (37)
     |                                               |                |        x{}: 0x3f-0x64 (37)
0x030|                                             24|               $|          n: 36 (valid) 0x3f-0x40 (1)
     |                                               |                |          x[0:36]: 0x40-0x64 (36)
0x040|00                                             |.               |            [0]: 0 x (valid) 0x40-0x41 (1)
0x040|   00                                          | .              |            [1]: 0 x (valid) 0x41-0x42 (1)
0x040|      00                                       |  .             |            [2]: 0 x (valid) 0x42-0x43 (1)
0x040|         00                                    |   .            |            [3]: 0 x (valid) 0x43-0x44 (1)
0x040|            00                                 |    .           |            [4]: 0 x (valid) 0x44-0x45 (1)
0x040|               00                              |     .          |            [5]: 0 x (valid) 0x45-0x46 (1)
0x040|                  00                           |      .         |            [6]: 0 x (valid) 0x46-0x47 (1)
0x040|                     00                        |       .        |            [7]: 0 x (valid) 0x47-0x48 (1)
0x040|                        00                     |        .       |            [8]: 0 x (valid) 0x48-0x49 (1)
0x040|                           00                  |         .      |            [9]: 0 x (valid) 0x49-0x4a (1)
0x040|                              01               |          .     |            [10]: 1 x (valid) 0x4a-0x4b (1)
0x040|                                 01            |           .    |            [11]: 1 x (valid) 0x4b-0x4c (1)
0x040|                                    02         |            .   |            [12]: 2 x (valid) 0x4c-0x4d (1)
0x040|                                       02      |             .  |            [13]: 2 x (valid) 0x4d-0x4e (1)
0x040|                                          02   |              . |            [14]: 2 x (valid) 0x4e-0x4f (1)
0x040|                                             02|               .|            [15]: 2 x (valid) 0x4f-0x50 (1)
0x050|02                                             |.               |            [16]: 2 x (valid) 0x50-0x51 (1)
0x050|   02                                          | .              |            [17]: 2 x (valid) 0x51-0x52 (1)
0x050|      03                                       |  .             |            [18]: 3 x (valid) 0x52-0x53 (1)
0x050|         03                                    |   .            |            [19]: 3 x (valid) 0x53-0x54 (1)
0x050|            04                                 |    .           |            [20]: 4 x (valid) 0x54-0x55 (1)
0x050|               04                              |     .          |            [21]: 4 x (valid) 0x55-0x56 (1)
0x050|                  05                           |      .         |            [22]: 5 x (valid) 0x56-0x57 (1)
0x050|                     05                        |       .        |            [23]: 5 x (valid) 0x57-0x58 (1)
0x050|                        06                     |        .       |            [24]: 6 x (valid) 0x58-0x59 (1)
0x050|                           06                  |         .      |            [25]: 6 x (valid) 0x59-0x5a (1)
0x050|                              07               |          .     |            [26]: 7 x (valid) 0x5a-0x5b (1)
0x050|                                 07            |           .    |            [27]: 7 x (valid) 0x5b-0x5c (1)
0x050|                                    08         |            .   |            [28]: 8 x (valid) 0x5c-0x5d (1)
0x050|                                       08      |             .  |            [29]: 8 x (valid) 0x5d-0x5e (1)
0x050|                                          08   |              . |            [30]: 8 x (valid) 0x5e-0x5f (1)
0x050|                                             08|               .|            [31]: 8 x (valid) 0x5f-0x60 (1)
0x060|08                                             |.               |            [32]: 8 x (valid) 0x60-0x61 (1)
0x060|   08                                          | .              |            [33]: 8 x (valid) 0x61-0x62 (1)
0x060|      08                                       |  .             |            [34]: 8 x (valid) 0x62-0x63 (1)
0x060|         08                                    |   .            |            [35]: 8 x (valid) 0x63-0x64 (1)
     |                                               |                |    [2]{}: section 0x64-0x3ec (904)
0x060|            07                                 |    .           |      id: "export_section" (7) 0x64-0x65 (1)
0x060|               85 07                           |     ..         |      size: 901 (valid) 0x65-0x67 (2)
     |                                               |                |      content{}: 0x67-0x3ec (901)
     |                                               |                |        ex{}: 0x67-0x3ec (901)
0x060|                     24                        |       $        |          n: 36 (valid) 0x67-0x68 (1)
     |                                               |                |          x[0:36]: 0x68-0x3ec (900)
     |                                               |                |            [0]{}: ex 0x68-0x85 (29)
     |                                               |                |              nm{}: 0x68-0x83 (27)
0x060|                        1a                     |        .       |                n: 26 (valid) 0x68-0x69 (1)
0x060|                           69 38 78 31 36 5f 65|         i8x16_e|                b: "i8x16_extract_lane_s-first" 0x69-0x83 (26)
0x070|78 74 72 61 63 74 5f 6c 61 6e 65 5f 73 2d 66 69|xtract_lane_s-fi|
0x080|72 73 74                                       |rst             |
     |                                               |                |              d{}: 0x83-0x85 (2)
0x080|         00                                    |   .            |                tag: "funcidx" (0x0) 0x83-0x84 (1)
0x080|            00                                 |    .           |                x: 0 (valid) 0x84-0x85 (1)
     |                                               |                |            [1]{}: ex 0x85-0xa1 (28)
     |                                               |                |              nm{}: 0x85-0x9f (26)
0x080|               19                              |     .          |                n: 25 (valid) 0x85-0x86 (1)
0x080|                  69 38 78 31 36 5f 65 78 74 72|      i8x16_extr|                b: "i8x16_extract_lane_s-last" 0x86-0x9f (25)
0x090|61 63 74 5f 6c 61 6e 65 5f 73 2d 6c 61 73 74   |act_lane_s-last |
     |                                               |                |              d{}: 0x9f-0xa1 (2)
0x090|                                             00|               .|                tag: "funcidx" (0x0) 0x9f-0xa0 (1)
0x0a0|01                                             |.               |                x: 1 (valid) 0xa0-0xa1 (1)
     |                                               |                |            [2]{}: ex 0xa1-0xbe (29)
     |                                               |                |              nm{}: 0xa1-0xbc (27)
0x0a0|   1a                                          | .              |                n: 26 (valid) 0xa1-0xa2 (1)
0x0a0|      69 38 78 31 36 5f 65 78 74 72 61 63 74 5f|  i8x16_extract_|                b: "i8x16_extract_lane_u-first" 0xa2-0xbc (26)
0x0b0|6c 61 6e 65 5f 75 2d 66 69 72 73 74            |lane_u-first    |
     |                                               |                |              d{}: 0xbc-0xbe (2)
0x0b0|                                    00         |            .   |                tag: "funcidx" (0x0) 0xbc-0xbd (1)
0x0b0|                                       02      |             .  |                x: 2 (valid) 0xbd-0xbe (1)
     |                                               |                |            [3]{}: ex 0xbe-0xda (28)
     |                                               |                |              nm{}: 0xbe-0xd8 (26)
0x0b0|                                          19   |              . |                n: 25 (valid) 0xbe-0xbf (1)
0x0b0|                                             69|               i|                b: "i8x16_extract_lane_u-last" 0xbf-0xd8 (25)
0x0c0|38 78 31 36 5f 65 78 74 72 61 63 74 5f 6c 61 6e|8x16_extract_lan|
0x0d0|65 5f 75 2d 6c 61 73 74                        |e_u-last        |
     |                                               |                |              d{}: 0xd8-0xda (2)
0x0d0|                        00                     |        .       |                tag: "funcidx" (0x0) 0xd8-0xd9 (1)
0x0d0|                           03                  |         .      |                x: 3 (valid) 0xd9-0xda (1)
     |                                               |                |            [4]{}: ex 0xda-0xf7 (29)
     |                                               |                |              nm{}: 0xda-0xf5 (27)
0x0d0|                              1a               |          .     |                n: 26 (valid) 0xda-0xdb (1)
0x0d0|                                 69 31 36 78 38|           i16x8|                b: "i16x8_extract_lane_s-first" 0xdb-0xf5 (26)
0x0e0|5f 65 78 74 72 61 63 74 5f 6c 61 6e 65 5f 73 2d|_extract_lane_s-|
0x0f0|66 69 72 73 74                                 |first           |
     |                                               |                |              d{}: 0xf5-0xf7 (2)
0x0f0|               00                              |     .          |                tag: "funcidx" (0x0) 0xf5-0xf6 (1)
0x0f0|                  04                           |      .         |                x: 4 (valid) 0xf6-0xf7 (1)
     |                                               |                |            [5]{}: ex 0xf7-0x113 (28)
     |                                               |                |              nm{}: 0xf7-0x111 (26)
0x0f0|                     19                        |       .        |                n: 25 (valid) 0xf7-0xf8 (1)
0x0f0|                        69 31 36 78 38 5f 65 78|        i16x8_ex|                b: "i16x8_extract_lane_s-last" 0xf8-0x111 (25)
0x100|74 72 61 63 74 5f 6c 61 6e 65 5f 73 2d 6c 61 73|tract_lane_s-las|
0x110|74                                             |t               |
     |                                               |                |              d{}: 0x111-0x113 (2)
0x110|   00                                          | .              |                tag: "funcidx" (0x0) 0x111-0x112 (1)
0x110|      05                                       |  .             |                x: 5 (valid) 0x112-0x113 (1)
     |                                               |                |            [6]{}: ex 0x113-0x130 (29)
     |                                               |                |              nm{}: 0x113-0x12e (27)
0x110|         1a                                    |   .            |                n: 26 (valid) 0x113-0x114 (1)
0x110|            69 31 36 78 38 5f 65 78 74 72 61 63|    i16x8_extrac|                b: "i16x8_extract_lane_u-first" 0x114-0x12e (26)
0x120|74 5f 6c 61 6e 65 5f 75 2d 66 69 72 73 74      |t_lane_u-first  |
     |                                               |                |              d{}: 0x12e-0x130 (2)
0x120|                                          00   |              . |                tag: "funcidx" (0x0) 0x12e-0x12f (1)
0x120|                                             06|               .|                x: 6 (valid) 0x12f-0x130 (1)
     |                                               |                |            [7]{}: ex 0x130-0x14c (28)
     |                                               |                |              nm{}: 0x130-0x14a (26)
0x130|19                                             |.               |                n: 25 (valid) 0x130-0x131 (1)
0x130|   69 31 36 78 38 5f 65 78 74 72 61 63 74 5f 6c| i16x8_extract_l|                b: "i16x8_extract_lane_u-last" 0x131-0x14a (25)
0x140|61 6e 65 5f 75 2d 6c 61 73 74                  |ane_u-last      |
     |                                               |                |              d{}: 0x14a-0x14c (2)
0x140|                              00               |          .     |                tag: "funcidx" (0x0) 0x14a-0x14b (1)
0x140|                                 07            |           .    |                x: 7 (valid) 0x14b-0x14c (1)
     |                                               |                |            [8]{}: ex 0x14c-0x167 (27)
     |                                               |                |              nm{}: 0x14c-0x165 (25)
0x140|                                    18         |            .   |                n: 24 (valid) 0x14c-0x14d (1)
0x140|                                       69 33 32|             i32|                b: "i32x4_extract_lane-first" 0x14d-0x165 (24)
0x150|78 34 5f 65 78 74 72 61 63 74 5f 6c 61 6e 65 2d|x4_extract_lane-|
0x160|66 69 72 73 74                                 |first           |
     |                                               |                |              d{}: 0x165-0x167 (2)
0x160|               00                              |     .          |                tag: "funcidx" (0x0) 0x165-0x166 (1)
0x160|                  08                           |      .         |                x: 8 (valid) 0x166-0x167 (1)
     |                                               |                |            [9]{}: ex 0x167-0x181 (26)
     |                                               |                |              nm{}: 0x167-0x17f (24)
0x160|                     17                        |       .        |                n: 23 (valid) 0x167-0x168 (1)
0x160|                        69 33 32 78 34 5f 65 78|        i32x4_ex|                b: "i32x4_extract_lane-last" 0x168-0x17f (23)
0x170|74 72 61 63 74 5f 6c 61 6e 65 2d 6c 61 73 74   |tract_lane-last |
     |                                               |                |              d{}: 0x17f-0x181 (2)
0x170|                                             00|               .|                tag: "funcidx" (0x0) 0x17f-0x180 (1)
0x180|09                                             |.               |                x: 9 (valid) 0x180-0x181 (1)
     |                                               |                |            [10]{}: ex 0x181-0x19c (27)
     |                                               |                |              nm{}: 0x181-0x19a (25)
0x180|   18                                          | .              |                n: 24 (valid) 0x181-0x182 (1)
0x180|      66 33 32 78 34 5f 65 78 74 72 61 63 74 5f|  f32x4_extract_|                b: "f32x4_extract_lane-first" 0x182-0x19a (24)
0x190|6c 61 6e 65 2d 66 69 72 73 74                  |lane-first      |
     |                                               |                |              d{}: 0x19a-0x19c (2)
0x190|                              00               |          .     |                tag: "funcidx" (0x0) 0x19a-0x19b (1)
0x190|                                 0a            |           .    |                x: 10 (valid) 0x19b-0x19c (1)
     |                                               |                |            [11]{}: ex 0x19c-0x1b6 (26)
     |                                               |                |              nm{}: 0x19c-0x1b4 (24)
0x190|                                    17         |            .   |                n: 23 (valid) 0x19c-0x19d (1)
0x190|                                       66 33 32|             f32|                b: "f32x4_extract_lane-last" 0x19d-0x1b4 (23)
0x1a0|78 34 5f 65 78 74 72 61 63 74 5f 6c 61 6e 65 2d|x4_extract_lane-|
0x1b0|6c 61 73 74                                    |last            |
     |                                               |                |              d{}: 0x1b4-0x1b6 (2)
0x1b0|            00                                 |    .           |                tag: "funcidx" (0x0) 0x1b4-0x1b5 (1)
0x1b0|               0b                              |     .          |                x: 11 (valid) 0x1b5-0x1b6 (1)
     |                                               |                |            [12]{}: ex 0x1b6-0x1d1 (27)
     |                                               |                |              nm{}: 0x1b6-0x1cf (25)
0x1b0|                  18                           |      .         |                n: 24 (valid) 0x1b6-0x1b7 (1)
0x1b0|                     69 38 78 31 36 5f 72 65 70|       i8x16_rep|                b: "i8x16_replace_lane-first" 0x1b7-0x1cf (24)
0x1c0|6c 61 63 65 5f 6c 61 6e 65 2d 66 69 72 73 74   |lace_lane-first |
     |                                               |                |              d{}: 0x1cf-0x1d1 (2)
0x1c0|                                             00|               .|                tag: "funcidx" (0x0) 0x1cf-0x1d0 (1)
0x1d0|0c                                             |.               |                x: 12 (valid) 0x1d0-0x1d1 (1)
     |                                               |                |            [13]{}: ex 0x1d1-0x1eb (26)
     |                                               |                |              nm{}: 0x1d1-0x1e9 (24)
0x1d0|   17                                          | .              |                n: 23 (valid) 0x1d1-0x1d2 (1)
0x1d0|      69 38 78 31 36 5f 72 65 70 6c 61 63 65 5f|  i8x16_replace_|                b: "i8x16_replace_lane-last" 0x1d2-0x1e9 (23)
0x1e0|6c 61 6e 65 2d 6c 61 73 74                     |lane-last       |
     |                                               |                |              d{}: 0x1e9-0x1eb (2)
0x1e0|                           00                  |         .      |                tag: "funcidx" (0x0) 0x1e9-0x1ea (1)
0x1e0|                              0d               |          .     |                x: 13 (valid) 0x1ea-0x1eb (1)
     |                                               |                |            [14]{}: ex 0x1eb-0x206 (27)
     |                                               |                |              nm{}: 0x1eb-0x204 (25)
0x1e0|                                 18            |           .    |                n: 24 (valid) 0x1eb-0x1ec (1)
0x1e0|                                    69 31 36 78|            i16x|                b: "i16x8_replace_lane-first" 0x1ec-0x204 (24)
0x1f0|38 5f 72 65 70 6c 61 63 65 5f 6c 61 6e 65 2d 66|8_replace_lane-f|
0x200|69 72 73 74                                    |irst            |
     |                                               |                |              d{}: 0x204-0x206 (2)
0x200|            00                                 |    .           |                tag: "funcidx" (0x0) 0x204-0x205 (1)
0x200|               0e                              |     .          |                x: 14 (valid) 0x205-0x206 (1)
     |                                               |                |            [15]{}: ex 0x206-0x220 (26)
     |                                               |                |              nm{}: 0x206-0x21e (24)
0x200|                  17                           |      .         |                n: 23 (valid) 0x206-0x207 (1)
0x200|                     69 31 36 78 38 5f 72 65 70|       i16x8_rep|                b: "i16x8_replace_lane-last" 0x207-0x21e (23)
0x210|6c 61 63 65 5f 6c 61 6e 65 2d 6c 61 73 74      |lace_lane-last  |
     |                                               |                |              d{}: 0x21e-0x220 (2)
0x210|                                          00   |              . |                tag: "funcidx" (0x0) 0x21e-0x21f (1)
0x210|                                             0f|               .|                x: 15 (valid) 0x21f-0x220 (1)
     |                                               |                |            [16]{}: ex 0x220-0x23b (27)
     |                                               |                |              nm{}: 0x220-0x239 (25)
0x220|18                                             |.               |                n: 24 (valid) 0x220-0x221 (1)
0x220|   69 33 32 78 34 5f 72 65 70 6c 61 63 65 5f 6c| i32x4_replace_l|                b: "i32x4_replace_lane-first" 0x221-0x239 (24)
0x230|61 6e 65 2d 66 69 72 73 74                     |ane-first       |
     |                                               |                |              d{}: 0x239-0x23b (2)
0x230|                           00                  |         .      |                tag: "funcidx" (0x0) 0x239-0x23a (1)
0x230|                              10               |          .     |                x: 16 (valid) 0x23a-0x23b (1)
     |                                               |                |            [17]{}: ex 0x23b-0x255 (26)
     |                                               |                |              nm{}: 0x23b-0x253 (24)
0x230|                                 17            |           .    |                n: 23 (valid) 0x23b-0x23c (1)
0x230|                                    69 33 32 78|            i32x|                b: "i32x4_replace_lane-last" 0x23c-0x253 (23)
0x240|34 5f 72 65 70 6c 61 63 65 5f 6c 61 6e 65 2d 6c|4_replace_lane-l|
0x250|61 73 74                                       |ast             |
     |                                               |                |              d{}: 0x253-0x255 (2)
0x250|         00                                    |   .            |                tag: "funcidx" (0x0) 0x253-0x254 (1)
0x250|            11                                 |    .           |                x: 17 (valid) 0x254-0x255 (1)
     |                                               |                |            [18]{}: ex 0x255-0x270 (27)
     |                                               |                |              nm{}: 0x255-0x26e (25)
0x250|               18                              |     .          |                n: 24 (valid) 0x255-0x256 (1)
0x250|                  66 33 32 78 34 5f 72 65 70 6c|      f32x4_repl|                b: "f32x4_replace_lane-first" 0x256-0x26e (24)
0x260|61 63 65 5f 6c 61 6e 65 2d 66 69 72 73 74      |ace_lane-first  |
     |                                               |                |              d{}: 0x26e-0x270 (2)
0x260|                                          00   |              . |                tag: "funcidx" (0x0) 0x26e-0x26f (1)
0x260|                                             12|               .|                x: 18 (valid) 0x26f-0x270 (1)
     |                                               |                |            [19]{}: ex 0x270-0x28a (26)
     |                                               |                |              nm{}: 0x270-0x288 (24)
0x270|17                                             |.               |                n: 23 (valid) 0x270-0x271 (1)
0x270|   66 33 32 78 34 5f 72 65 70 6c 61 63 65 5f 6c| f32x4_replace_l|                b: "f32x4_replace_lane-last" 0x271-0x288 (23)
0x280|61 6e 65 2d 6c 61 73 74                        |ane-last        |
     |                                               |                |              d{}: 0x288-0x28a (2)
0x280|                        00                     |        .       |                tag: "funcidx" (0x0) 0x288-0x289 (1)
0x280|                           13                  |         .      |                x: 19 (valid) 0x289-0x28a (1)
     |                                               |                |            [20]{}: ex 0x28a-0x2a5 (27)
     |                                               |                |              nm{}: 0x28a-0x2a3 (25)
0x280|                              18               |          .     |                n: 24 (valid) 0x28a-0x28b (1)
0x280|                                 69 36 34 78 32|           i64x2|                b: "i64x2_extract_lane-first" 0x28b-0x2a3 (24)
0x290|5f 65 78 74 72 61 63 74 5f 6c 61 6e 65 2d 66 69|_extract_lane-fi|
0x2a0|72 73 74                                       |rst             |
     |                                               |                |              d{}: 0x2a3-0x2a5 (2)
0x2a0|         00                                    |   .            |                tag: "funcidx" (0x0) 0x2a3-0x2a4 (1)
0x2a0|            14                                 |    .           |                x: 20 (valid) 0x2a4-0x2a5 (1)
     |                                               |                |            [21]{}: ex 0x2a5-0x2bf (26)
     |                                               |                |              nm{}: 0x2a5-0x2bd (24)
0x2a0|               17                              |     .          |                n: 23 (valid) 0x2a5-0x2a6 (1)
0x2a0|                  69 36 34 78 32 5f 65 78 74 72|      i64x2_extr|                b: "i64x2_extract_lane-last" 0x2a6-0x2bd (23)
0x2b0|61 63 74 5f 6c 61 6e 65 2d 6c 61 73 74         |act_lane-last   |
     |                                               |                |              d{}: 0x2bd-0x2bf (2)
0x2b0|                                       00      |             .  |                tag: "funcidx" (0x0) 0x2bd-0x2be (1)
0x2b0|                                          15   |              . |                x: 21 (valid) 0x2be-0x2bf (1)
     |                                               |                |            [22]{}: ex 0x2bf-0x2da (27)
     |                                               |                |              nm{}: 0x2bf-0x2d8 (25)
0x2b0|                                             18|               .|                n: 24 (valid) 0x2bf-0x2c0 (1)
0x2c0|66 36 34 78 32 5f 65 78 74 72 61 63 74 5f 6c 61|f64x2_extract_la|                b: "f64x2_extract_lane-first" 0x2c0-0x2d8 (24)
0x2d0|6e 65 2d 66 69 72 73 74                        |ne-first        |
     |                                               |                |              d{}: 0x2d8-0x2da (2)
0x2d0|                        00                     |        .       |                tag: "funcidx" (0x0) 0x2d8-0x2d9 (1)
0x2d0|                           16                  |         .      |                x: 22 (valid) 0x2d9-0x2da (1)
     |                                               |                |            [23]{}: ex 0x2da-0x2f4 (26)
     |                                               |                |              nm{}: 0x2da-0x2f2 (24)
0x2d0|                              17               |          .     |                n: 23 (valid) 0x2da-0x2db (1)
0x2d0|                                 66 36 34 78 32|           f64x2|                b: "f64x2_extract_lane-last" 0x2db-0x2f2 (23)
0x2e0|5f 65 78 74 72 61 63 74 5f 6c 61 6e 65 2d 6c 61|_extract_lane-la|
0x2f0|73 74                                          |st              |
     |                                               |                |              d{}: 0x2f2-0x2f4 (2)
0x2f0|      00                                       |  .             |                tag: "funcidx" (0x0) 0x2f2-0x2f3 (1)
0x2f0|         17                                    |   .            |                x: 23 (valid) 0x2f3-0x2f4 (1)
     |                                               |                |            [24]{}: ex 0x2f4-0x30f (27)
     |                                               |                |              nm{}: 0x2f4-0x30d (25)
0x2f0|            18                                 |    .           |                n: 24 (valid) 0x2f4-0x2f5 (1)
0x2f0|               69 36 34 78 32 5f 72 65 70 6c 61|     i64x2_repla|                b: "i64x2_replace_lane-first" 0x2f5-0x30d (24)
0x300|63 65 5f 6c 61 6e 65 2d 66 69 72 73 74         |ce_lane-first   |
     |                                               |                |              d{}: 0x30d-0x30f (2)
0x300|                                       00      |             .  |                tag: "funcidx" (0x0) 0x30d-0x30e (1)
0x300|                                          18   |              . |                x: 24 (valid) 0x30e-0x30f (1)
     |                                               |                |            [25]{}: ex 0x30f-0x329 (26)
     |                                               |                |              nm{}: 0x30f-0x327 (24)
0x300|                                             17|               .|                n: 23 (valid) 0x30f-0x310 (1)
0x310|69 36 34 78 32 5f 72 65 70 6c 61 63 65 5f 6c 61|i64x2_replace_la|                b: "i64x2_replace_lane-last" 0x310-0x327 (23)
0x320|6e 65 2d 6c 61 73 74                           |ne-last         |
     |                                               |                |              d{}: 0x327-0x329 (2)
0x320|                     00                        |       .        |                tag: "funcidx" (0x0) 0x327-0x328 (1)
0x320|                        19                     |        .       |                x: 25 (valid) 0x328-0x329 (1)
     |                                               |                |            [26]{}: ex 0x329-0x344 (27)
     |                                               |                |              nm{}: 0x329-0x342 (25)
0x320|                           18                  |         .      |                n: 24 (valid) 0x329-0x32a (1)
0x320|                              66 36 34 78 32 5f|          f64x2_|                b: "f64x2_replace_lane-first" 0x32a-0x342 (24)
0x330|72 65 70 6c 61 63 65 5f 6c 61 6e 65 2d 66 69 72|replace_lane-fir|
0x340|73 74                                          |st              |
     |                                               |                |              d{}: 0x342-0x344 (2)
0x340|      00                                       |  .             |                tag: "funcidx" (0x0) 0x342-0x343 (1)
0x340|         1a                                    |   .            |                x: 26 (valid) 0x343-0x344 (1)
     |                                               |                |            [27]{}: ex 0x344-0x35e (26)
     |                                               |                |              nm{}: 0x344-0x35c (24)
0x340|            17                                 |    .           |                n: 23 (valid) 0x344-0x345 (1)
0x340|               66 36 34 78 32 5f 72 65 70 6c 61|     f64x2_repla|                b: "f64x2_replace_lane-last" 0x345-0x35c (23)
0x350|63 65 5f 6c 61 6e 65 2d 6c 61 73 74            |ce_lane-last    |
     |                                               |                |              d{}: 0x35c-0x35e (2)
0x350|                                    00         |            .   |                tag: "funcidx" (0x0) 0x35c-0x35d (1)
0x350|                                       1b      |             .  |                x: 27 (valid) 0x35d-0x35e (1)
     |                                               |                |            [28]{}: ex 0x35e-0x36e (16)
     |                                               |                |              nm{}: 0x35e-0x36c (14)
0x350|                                          0d   |              . |                n: 13 (valid) 0x35e-0x35f (1)
0x350|                                             76|               v|                b: "v8x16_swizzle" 0x35f-0x36c (13)
0x360|38 78 31 36 5f 73 77 69 7a 7a 6c 65            |8x16_swizzle    |
     |                                               |                |              d{}: 0x36c-0x36e (2)
0x360|                                    00         |            .   |                tag: "funcidx" (0x0) 0x36c-0x36d (1)
0x360|                                       1c      |             .  |                x: 28 (valid) 0x36d-0x36e (1)
     |                                               |                |            [29]{}: ex 0x36e-0x380 (18)
     |                                               |                |              nm{}: 0x36e-0x37e (16)
0x360|                                          0f   |              . |                n: 15 (valid) 0x36e-0x36f (1)
0x360|                                             76|               v|                b: "v8x16_shuffle-1" 0x36f-0x37e (15)
0x370|38 78 31 36 5f 73 68 75 66 66 6c 65 2d 31      |8x16_shuffle-1  |
     |                                               |                |              d{}: 0x37e-0x380 (2)
0x370|                                          00   |              . |                tag: "funcidx" (0x0) 0x37e-0x37f (1)
0x370|                                             1d|               .|                x: 29 (valid) 0x37f-0x380 (1)
     |                                               |                |            [30]{}: ex 0x380-0x392 (18)
     |                                               |                |              nm{}: 0x380-0x390 (16)
0x380|0f                                             |.               |                n: 15 (valid) 0x380-0x381 (1)
0x380|   76 38 78 31 36 5f 73 68 75 66 66 6c 65 2d 32| v8x16_shuffle-2|                b: "v8x16_shuffle-2" 0x381-0x390 (15)
     |                                               |                |              d{}: 0x390-0x392 (2)
0x390|00                                             |.               |                tag: "funcidx" (0x0) 0x390-0x391 (1)
0x390|   1e                                          | .              |                x: 30 (valid) 0x391-0x392 (1)
     |                                               |                |            [31]{}: ex 0x392-0x3a4 (18)
     |                                               |                |              nm{}: 0x392-0x3a2 (16)
0x390|      0f                                       |  .             |                n: 15 (valid) 0x392-0x393 (1)
0x390|         76 38 78 31 36 5f 73 68 75 66 66 6c 65|   v8x16_shuffle|                b: "v8x16_shuffle-3" 0x393-0x3a2 (15)
0x3a0|2d 33                                          |-3              |
     |                                               |                |              d{}: 0x3a2-0x3a4 (2)
0x3a0|      00                                       |  .             |                tag: "funcidx" (0x0) 0x3a2-0x3a3 (1)
0x3a0|         1f                                    |   .            |                x: 31 (valid) 0x3a3-0x3a4 (1)
     |                                               |                |            [32]{}: ex 0x3a4-0x3b6 (18)
     |                                               |                |              nm{}: 0x3a4-0x3b4 (16)
0x3a0|            0f                                 |    .           |                n: 15 (valid) 0x3a4-0x3a5 (1)
0x3a0|               76 38 78 31 36 5f 73 68 75 66 66|     v8x16_shuff|                b: "v8x16_shuffle-4" 0x3a5-0x3b4 (15)
0x3b0|6c 65 2d 34                                    |le-4            |
     |                                               |                |              d{}: 0x3b4-0x3b6 (2)
0x3b0|            00                                 |    .           |                tag: "funcidx" (0x0) 0x3b4-0x3b5 (1)
0x3b0|               20                              |                |                x: 32 (valid) 0x3b5-0x3b6 (1)
     |                                               |                |            [33]{}: ex 0x3b6-0x3c8 (18)
     |                                               |                |              nm{}: 0x3b6-0x3c6 (16)
0x3b0|                  0f                           |      .         |                n: 15 (valid) 0x3b6-0x3b7 (1)
0x3b0|                     76 38 78 31 36 5f 73 68 75|       v8x16_shu|                b: "v8x16_shuffle-5" 0x3b7-0x3c6 (15)
0x3c0|66 66 6c 65 2d 35                              |ffle-5          |
     |                                               |                |              d{}: 0x3c6-0x3c8 (2)
0x3c0|                  00                           |      .         |                tag: "funcidx" (0x0) 0x3c6-0x3c7 (1)
0x3c0|                     21                        |       !        |                x: 33 (valid) 0x3c7-0x3c8 (1)
     |                                               |                |            [34]{}: ex 0x3c8-0x3da (18)
     |                                               |                |              nm{}: 0x3c8-0x3d8 (16)
0x3c0|                        0f                     |        .       |                n: 15 (valid) 0x3c8-0x3c9 (1)
0x3c0|                           76 38 78 31 36 5f 73|         v8x16_s|                b: "v8x16_shuffle-6" 0x3c9-0x3d8 (15)
0x3d0|68 75 66 66 6c 65 2d 36                        |huffle-6        |
     |                                               |                |              d{}: 0x3d8-0x3da (2)
0x3d0|                        00                     |        .       |                tag: "funcidx" (0x0) 0x3d8-0x3d9 (1)
0x3d0|                           22                  |         "      |                x: 34 (valid) 0x3d9-0x3da (1)
     |                                               |                |            [35]{}: ex 0x3da-0x3ec (18)
     |                                               |                |              nm{}: 0x3da-0x3ea (16)
0x3d0|                              0f               |          .     |                n: 15 (valid) 0x3da-0x3db (1)
0x3d0|                                 76 38 78 31 36|           v8x16|                b: "v8x16_shuffle-7" 0x3db-0x3ea (15)
0x3e0|5f 73 68 75 66 66 6c 65 2d 37                  |_shuffle-7      |
     |                                               |                |              d{}: 0x3ea-0x3ec (2)
0x3e0|                              00               |          .     |                tag: "funcidx" (0x0) 0x3ea-0x3eb (1)
0x3e0|                                 23            |           #    |                x: 35 (valid) 0x3eb-0x3ec (1)
     |                                               |                |    [3]{}: section 0x3ec-0x5a0 (436)
0x3e0|                                    0a         |            .   |      id: "code_section" (10) 0x3ec-0x3ed (1)
0x3e0|                                       b1 03   |             .. |      size: 433 (valid) 0x3ed-0x3ef (2)
     |                                               |                |      content{}: 0x3ef-0x5a0 (433)
     |                                               |                |        code{}: 0x3ef-0x5a0 (433)
0x3e0|                                             24|               $|          n: 36 (valid) 0x3ef-0x3f0 (1)
     |                                               |                |          x[0:36]: 0x3f0-0x5a0 (432)
     |                                               |                |            [0]{}: code 0x3f0-0x3f8 (8)
0x3f0|07                                             |.               |              size: 7 (valid) 0x3f0-0x3f1 (1)
     |                                               |                |              code{}: 0x3f1-0x3f8 (7)
     |                                               |                |                t{}: 0x3f1-0x3f2 (1)
0x3f0|   00                                          | .              |                  n: 0 (valid) 0x3f1-0x3f2 (1)
     |                                               |                |                  x[0:0]: 0x3f2-0x3f2 (0)
     |                                               |                |                e[0:3]: 0x3f2-0x3f8 (6)
     |                                               |                |                  [0]{}: in 0x3f2-0x3f4 (2)
0x3f0|      20                                       |                |                    opcode: "local.get" (0x20) 0x3f2-0x3f3 (1)
0x3f0|         00                                    |   .            |                    x: 0 (valid) 0x3f3-0x3f4 (1)
     |                                               |                |                  [1]{}: in 0x3f4-0x3f7 (3)
0x3f0|            fd                                 |    .           |                    opcode: "vector" (0xfd) 0x3f4-0x3f5 (1)
0x3f0|               15                              |     .          |                    v_opcode: "i8x16.extract_lane_s" (21) 0x3f5-0x3f6 (1)
0x3f0|                  00                           |      .         |                    l: 0 0x3f6-0x3f7 (1)
     |                                               |                |                  [2]{}: in 0x3f7-0x3f8 (1)
0x3f0|                     0b                        |       .        |                    opcode: "end" (0xb) 0x3f7-0x3f8 (1)
     |                                               |                |            [1]{}: code 0x3f8-0x400 (8)
0x3f0|                        07                     |        .       |              size: 7 (valid) 0x3f8-0x3f9 (1)
     |                                               |                |              code{}: 0x3f9-0x400 (7)
     |                                               |                |                t{}: 0x3f9-0x3fa (1)
0x3f0|                           00                  |         .      |                  n: 0 (valid) 0x3f9-0x3fa (1)
     |                                               |                |                  x[0:0]: 0x3fa-0x3fa (0)
     |                                               |                |                e[0:3]: 0x3fa-0x400 (6)
     |                                               |                |                  [0]{}: in 0x3fa-0x3fc (2)
0x3f0|                              20               |                |                    opcode: "local.get" (0x20) 0x3fa-0x3fb (1)
0x3f0|                                 00            |           .    |                    x: 0 (valid) 0x3fb-0x3fc (1)
     |                                               |                |                  [1]{}: in 0x3fc-0x3ff (3)
0x3f0|                                    fd         |            .   |                    opcode: "vector" (0xfd) 0x3fc-0x3fd (1)
0x3f0|                                       15      |             .  |                    v_opcode: "i8x16.extract_lane_s" (21) 0x3fd-0x3fe (1)
0x3f0|                                          0f   |              . |                    l: 15 0x3fe-0x3ff (1)
     |                                               |                |                  [2]{}: in 0x3ff-0x400 (1)
0x3f0|                                             0b|               .|                    opcode: "end" (0xb) 0x3ff-0x400 (1)
     |                                               |                |            [2]{}: code 0x400-0x408 (8)
0x400|07                                             |.               |              size: 7 (valid) 0x400-0x401 (1)
     |                                               |                |              code{}: 0x401-0x408 (7)
     |                                               |                |                t{}: 0x401-0x402 (1)
0x400|   00                                          | .              |                  n: 0 (valid) 0x401-0x402 (1)
     |                                               |                |                  x[0:0]: 0x402-0x402 (0)
     |                                               |                |                e[0:3]: 0x402-0x408 (6)
     |                                               |                |                  [0]{}: in 0x402-0x404 (2)
0x400|      20                                       |                |                    opcode: "local.get" (0x20) 0x402-0x403 (1)
0x400|         00                                    |   .            |                    x: 0 (valid) 0x403-0x404 (1)
     |                                               |                |                  [1]{}: in 0x404-0x407 (3)
0x400|            fd                                 |    .           |                    opcode: "vector" (0xfd) 0x404-0x405 (1)
0x400|               16                              |     .          |                    v_opcode: "i8x16.extract_lane_u" (22) 0x405-0x406 (1)
0x400|                  00                           |      .         |                    l: 0 0x406-0x407 (1)
     |                                               |                |                  [2]{}: in 0x407-0x408 (1)
0x400|                     0b                        |       .        |                    opcode: "end" (0xb) 0x407-0x408 (1)
     |                                               |                |            [3]{}: code 0x408-0x410 (8)
0x400|                        07                     |        .       |              size: 7 (valid) 0x408-0x409 (1)
     |                                               |                |              code{}: 0x409-0x410 (7)
     |                                               |                |                t{}: 0x409-0x40a (1)
0x400|                           00                  |         .      |                  n: 0 (valid) 0x409-0x40a (1)
     |                                               |                |                  x[0:0]: 0x40a-0x40a (0)
     |                                               |                |                e[0:3]: 0x40a-0x410 (6)
     |                                               |                |                  [0]{}: in 0x40a-0x40c (2)
0x400|                              20               |                |                    opcode: "local.get" (0x20) 0x40a-0x40b (1)
0x400|                                 00            |           .    |                    x: 0 (valid) 0x40b-0x40c (1)
     |                                               |                |                  [1]{}: in 0x40c-0x40f (3)
0x400|                                    fd         |            .   |                    opcode: "vector" (0xfd) 0x40c-0x40d (1)
0x400|                                       16      |             .  |                    v_opcode: "i8x16.extract_lane_u" (22) 0x40d-0x40e (1)
0x400|                                          0f   |              . |                    l: 15 0x40e-0x40f (1)
     |                                               |                |                  [2]{}: in 0x40f-0x410 (1)
0x400|                                             0b|               .|                    opcode: "end" (0xb) 0x40f-0x410 (1)
     |                                               |                |            [4]{}: code 0x410-0x418 (8)
0x410|07                                             |.               |              size: 7 (valid) 0x410-0x411 (1)
     |                                               |                |              code{}: 0x411-0x418 (7)
     |                                               |                |                t{}: 0x411-0x412 (1)
0x410|   00                                          | .              |                  n: 0 (valid) 0x411-0x412 (1)
     |                                               |                |                  x[0:0]: 0x412-0x412 (0)
     |                                               |                |                e[0:3]: 0x412-0x418 (6)
     |                                               |                |                  [0]{}: in 0x412-0x414 (2)
0x410|      20                                       |                |                    opcode: "local.get" (0x20) 0x412-0x413 (1)
0x410|         00                                    |   .            |                    x: 0 (valid) 0x413-0x414 (1)
     |                                               |                |                  [1]{}: in 0x414-0x417 (3)
0x410|            fd                                 |    .           |                    opcode: "vector" (0xfd) 0x414-0x415 (1)
0x410|               18                              |     .          |                    v_opcode: "i16x8.extract_lane_s" (24) 0x415-0x416 (1)
0x410|                  00                           |      .         |                    l: 0 0x416-0x417 (1)
     |                                               |                |                  [2]{}: in 0x417-0x418 (1)
0x410|                     0b                        |       .        |                    opcode: "end" (0xb) 0x417-0x418 (1)
     |                                               |                |            [5]{}: code 0x418-0x420 (8)
0x410|                        07                     |        .       |              size: 7 (valid) 0x418-0x419 (1)
     |                                               |                |              code{}: 0x419-0x420 (7)
     |                                               |                |                t{}: 0x419-0x41a (1)
0x410|                           00                  |         .      |                  n: 0 (valid) 0x419-0x41a (1)
     |                                               |                |                  x[0:0]: 0x41a-0x41a (0)
     |                                               |                |                e[0:3]: 0x41a-0x420 (6)
     |                                               |                |                  [0]{}: in 0x41a-0x41c (2)
0x410|                              20               |                |                    opcode: "local.get" (0x20) 0x41a-0x41b (1)
0x410|                                 00            |           .    |                    x: 0 (valid) 0x41b-0x41c (1)
     |                                               |                |                  [1]{}: in 0x41c-0x41f (3)
0x410|                                    fd         |            .   |                    opcode: "vector" (0xfd) 0x41c-0x41d (1)
0x410|                                       18      |             .  |                    v_opcode: "i16x8.extract_lane_s" (24) 0x41d-0x41e (1)
0x410|                                          07   |              . |                    l: 7 0x41e-0x41f (1)
     |                                               |                |                  [2]{}: in 0x41f-0x420 (1)
0x410|                                             0b|               .|                    opcode: "end" (0xb) 0x41f-0x420 (1)
     |                                               |                |            [6]{}: code 0x420-0x428 (8)
0x420|07                                             |.               |              size: 7 (valid) 0x420-0x421 (1)
     |                                               |                |              code{}: 0x421-0x428 (7)
     |                                               |                |                t{}: 0x421-0x422 (1)
0x420|   00                                          | .              |                  n: 0 (valid) 0x421-0x422 (1)
     |                                               |                |                  x[0:0]: 0x422-0x422 (0)
     |                                               |                |                e[0:3]: 0x422-0x428 (6)
     |                                               |                |                  [0]{}: in 0x422-0x424 (2)
0x420|      20                                       |                |                    opcode: "local.get" (0x20) 0x422-0x423 (1)
0x420|         00                                    |   .            |                    x: 0 (valid) 0x423-0x424 (1)
     |                                               |                |                  [1]{}: in 0x424-0x427 (3)
0x420|            fd                                 |    .           |                    opcode: "vector" (0xfd) 0x424-0x425 (1)
0x420|               19                              |     .          |                    v_opcode: "i16x8.extract_lane_u" (25) 0x425-0x426 (1)
0x420|                  00                           |      .         |                    l: 0 0x426-0x427 (1)
     |                                               |                |                  [2]{}: in 0x427-0x428 (1)
0x420|                     0b                        |       .        |                    opcode: "end" (0xb) 0x427-0x428 (1)
     |                                               |                |            [7]{}: code 0x428-0x430 (8)
0x420|                        07                     |        .       |              size: 7 (valid) 0x428-0x429 (1)
     |                                               |                |              code{}: 0x429-0x430 (7)
     |                                               |                |                t{}: 0x429-0x42a (1)
0x420|                           00                  |         .      |                  n: 0 (valid) 0x429-0x42a (1)
     |                                               |                |                  x[0:0]: 0x42a-0x42a (0)
     |                                               |                |                e[0:3]: 0x42a-0x430 (6)
     |                                               |                |                  [0]{}: in 0x42a-0x42c (2)
0x420|                              20               |                |                    opcode: "local.get" (0x20) 0x42a-0x42b (1)
0x420|                                 00            |           .    |                    x: 0 (valid) 0x42b-0x42c (1)
     |                                               |                |                  [1]{}: in 0x42c-0x42f (3)
0x420|                                    fd         |            .   |                    opcode: "vector" (0xfd) 0x42c-0x42d (1)
0x420|                                       19      |             .  |                    v_opcode: "i16x8.extract_lane_u" (25) 0x42d-0x42e (1)
0x420|                                          07   |              . |                    l: 7 0x42e-0x42f (1)
     |                                               |                |                  [2]{}: in 0x42f-0x430 (1)
0x420|                                             0b|               .|                    opcode: "end" (0xb) 0x42f-0x430 (1)
     |                                               |                |            [8]{}: code 0x430-0x438 (8)
0x430|07                                             |.               |              size: 7 (valid) 0x430-0x431 (1)
     |                                               |                |              code{}: 0x431-0x438 (7)
     |                                               |                |                t{}: 0x431-0x432 (1)
0x430|   00                                          | .              |                  n: 0 (valid) 0x431-0x432 (1)
     |                                               |                |                  x[0:0]: 0x432-0x432 (0)
     |                                               |                |                e[0:3]: 0x432-0x438 (6)
     |                                               |                |                  [0]{}: in 0x432-0x434 (2)
0x430|      20                                       |                |                    opcode: "local.get" (0x20) 0x432-0x433 (1)
0x430|         00                                    |   .            |                    x: 0 (valid) 0x433-0x434 (1)
     |                                               |                |                  [1]{}: in 0x434-0x437 (3)
0x430|            fd                                 |    .           |                    opcode: "vector" (0xfd) 0x434-0x435 (1)
0x430|               1b                              |     .          |                    v_opcode: "i32x4.extract_lane" (27) 0x435-0x436 (1)
0x430|                  00                           |      .         |                    l: 0 0x436-0x437 (1)
     |                                               |                |                  [2]{}: in 0x437-0x438 (1)
0x430|                     0b                        |       .        |                    opcode: "end" (0xb) 0x437-0x438 (1)
     |                                               |                |            [9]{}: code 0x438-0x440 (8)
0x430|                        07                     |        .       |              size: 7 (valid) 0x438-0x439 (1)
     |                                               |                |              code{}: 0x439-0x440 (7)
     |                                               |                |                t{}: 0x439-0x43a (1)
0x430|                           00                  |         .      |                  n: 0 (valid) 0x439-0x43a (1)
     |                                               |                |                  x[0:0]: 0x43a-0x43a (0)
     |                                               |                |                e[0:3]: 0x43a-0x440 (6)
     |                                               |                |                  [0]{}: in 0x43a-0x43c (2)
0x430|                              20               |                |                    opcode: "local.get" (0x20) 0x43a-0x43b (1)
0x430|                                 00            |           .    |                    x: 0 (valid) 0x43b-0x43c (1)
     |                                               |                |                  [1]{}: in 0x43c-0x43f (3)
0x430|                                    fd         |            .   |                    opcode: "vector" (0xfd) 0x43c-0x43d (1)
0x430|                                       1b      |             .  |                    v_opcode: "i32x4.extract_lane" (27) 0x43d-0x43e (1)
0x430|                                          03   |              . |                    l: 3 0x43e-0x43f (1)
     |                                               |                |                  [2]{}: in 0x43f-0x440 (1)
0x430|                                             0b|               .|                    opcode: "end" (0xb) 0x43f-0x440 (1)
     |                                               |                |            [10]{}: code 0x440-0x448 (8)
0x440|07                                             |.               |              size: 7 (valid) 0x440-0x441 (1)
     |                                               |                |              code{}: 0x441-0x448 (7)
     |                                               |                |                t{}: 0x441-0x442 (1)
0x440|   00                                          | .              |                  n: 0 (valid) 0x441-0x442 (1)
     |                                               |                |                  x[0:0]: 0x442-0x442 (0)
     |                                               |                |                e[0:3]: 0x442-0x448 (6)
     |                                               |                |                  [0]{}: in 0x442-0x444 (2)
0x440|      20                                       |                |                    opcode: "local.get" (0x20) 0x442-0x443 (1)
0x440|         00                                    |   .            |                    x: 0 (valid) 0x443-0x444 (1)
     |                                               |                |                  [1]{}: in 0x444-0x447 (3)
0x440|            fd                                 |    .           |                    opcode: "vector" (0xfd) 0x444-0x445 (1)
0x440|               1f                              |     .          |                    v_opcode: "f32x4.extract_lane" (31) 0x445-0x446 (1)
0x440|                  00                           |      .         |                    l: 0 0x446-0x447 (1)
     |                                               |                |                  [2]{}: in 0x447-0x448 (1)
0x440|                     0b                        |       .        |                    opcode: "end" (0xb) 0x447-0x448 (1)
     |                                               |                |            [11]{}: code 0x448-0x450 (8)
0x440|                        07                     |        .       |              size: 7 (valid) 0x448-0x449 (1)
     |                                               |                |              code{}: 0x449-0x450 (7)
     |                                               |                |                t{}: 0x449-0x44a (1)
0x440|                           00                  |         .      |                  n: 0 (valid) 0x449-0x44a (1)
     |                                               |                |                  x[0:0]: 0x44a-0x44a (0)
     |                                               |                |                e[0:3]: 0x44a-0x450 (6)
     |                                               |                |                  [0]{}: in 0x44a-0x44c (2)
0x440|                              20               |                |                    opcode: "local.get" (0x20) 0x44a-0x44b (1)
0x440|                                 00            |           .    |                    x: 0 (valid) 0x44b-0x44c (1)
     |                                               |                |                  [1]{}: in 0x44c-0x44f (3)
0x440|                                    fd         |            .   |                    opcode: "vector" (0xfd) 0x44c-0x44d (1)
0x440|                                       1f      |             .  |                    v_opcode: "f32x4.extract_lane" (31) 0x44d-0x44e (1)
0x440|                                          03   |              . |                    l: 3 0x44e-0x44f (1)
     |                                               |                |                  [2]{}: in 0x44f-0x450 (1)
0x440|                                             0b|               .|                    opcode: "end" (0xb) 0x44f-0x450 (1)
     |                                               |                |            [12]{}: code 0x450-0x45a (10)
0x450|09                                             |.               |              size: 9 (valid) 0x450-0x451 (1)
     |                                               |                |              code{}: 0x451-0x45a (9)
     |                                               |                |                t{}: 0x451-0x452 (1)
0x450|   00                                          | .              |                  n: 0 (valid) 0x451-0x452 (1)
     |                                               |                |                  x[0:0]: 0x452-0x452 (0)
     |                                               |                |                e[0:4]: 0x452-0x45a (8)
     |                                               |                |                  [0]{}: in 0x452-0x454 (2)
0x450|      20                                       |                |                    opcode: "local.get" (0x20) 0x452-0x453 (1)
0x450|         00                                    |   .            |                    x: 0 (valid) 0x453-0x454 (1)
     |                                               |                |                  [1]{}: in 0x454-0x456 (2)
0x450|            20                                 |                |                    opcode: "local.get" (0x20) 0x454-0x455 (1)
0x450|               01                              |     .          |                    x: 1 (valid) 0x455-0x456 (1)
     |                                               |                |                  [2]{}: in 0x456-0x459 (3)
0x450|                  fd                           |      .         |                    opcode: "vector" (0xfd) 0x456-0x457 (1)
0x450|                     17                        |       .        |                    v_opcode: "i8x16.replace_lane" (23) 0x457-0x458 (1)
0x450|                        00                     |        .       |                    l: 0 0x458-0x459 (1)
     |                                               |                |                  [3]{}: in 0x459-0x45a (1)
0x450|                           0b                  |         .      |                    opcode: "end" (0xb) 0x459-0x45a (1)
     |                                               |                |            [13]{}: code 0x45a-0x464 (10)
0x450|                              09               |          .     |              size: 9 (valid) 0x45a-0x45b (1)
     |                                               |                |              code{}: 0x45b-0x464 (9)
     |                                               |                |                t{}: 0x45b-0x45c (1)
0x450|                                 00            |           .    |                  n: 0 (valid) 0x45b-0x45c (1)
     |                                               |                |                  x[0:0]: 0x45c-0x45c (0)
     |                                               |                |                e[0:4]: 0x45c-0x464 (8)
     |                                               |                |                  [0]{}: in 0x45c-0x45e (2)
0x450|                                    20         |                |                    opcode: "local.get" (0x20) 0x45c-0x45d (1)
0x450|                                       00      |             .  |                    x: 0 (valid) 0x45d-0x45e (1)
     |                                               |                |                  [1]{}: in 0x45e-0x460 (2)
0x450|                                          20   |                |                    opcode: "local.get" (0x20) 0x45e-0x45f (1)
0x450|                                             01|               .|                    x: 1 (valid) 0x45f-0x460 (1)
     |                                               |                |                  [2]{}: in 0x460-0x463 (3)
0x460|fd                                             |.               |                    opcode: "vector" (0xfd) 0x460-0x461 (1)
0x460|   17                                          | .              |                    v_opcode: "i8x16.replace_lane" (23) 0x461-0x462 (1)
0x460|      0f                                       |  .             |                    l: 15 0x462-0x463 (1)
     |                                               |                |                  [3]{}: in 0x463-0x464 (1)
0x460|         0b                                    |   .            |                    opcode: "end" (0xb) 0x463-0x464 (1)
     |                                               |                |            [14]{}: code 0x464-0x46e (10)
0x460|            09                                 |    .           |              size: 9 (valid) 0x464-0x465 (1)
     |                                               |                |              code{}: 0x465-0x46e (9)
     |                                               |                |                t{}: 0x465-0x466 (1)
0x460|               00                              |     .          |                  n: 0 (valid) 0x465-0x466 (1)
     |                                               |                |                  x[0:0]: 0x466-0x466 (0)
     |                                               |                |                e[0:4]: 0x466-0x46e (8)
     |                                               |                |                  [0]{}: in 0x466-0x468 (2)
0x460|                  20                           |                |                    opcode: "local.get" (0x20) 0x466-0x467 (1)
0x460|                     00                        |       .        |                    x: 0 (valid) 0x467-0x468 (1)
     |                                               |                |                  [1]{}: in 0x468-0x46a (2)
0x460|                        20                     |                |                    opcode: "local.get" (0x20) 0x468-0x469 (1)
0x460|                           01                  |         .      |                    x: 1 (valid) 0x469-0x46a (1)
     |                                               |                |                  [2]{}: in 0x46a-0x46d (3)
0x460|                              fd               |          .     |                    opcode: "vector" (0xfd) 0x46a-0x46b (1)
0x460|                                 1a            |           .    |                    v_opcode: "i16x8.replace_lane" (26) 0x46b-0x46c (1)
0x460|                                    00         |            .   |                    l: 0 0x46c-0x46d (1)
     |                                               |                |                  [3]{}: in 0x46d-0x46e (1)
0x460|                                       0b      |             .  |                    opcode: "end" (0xb) 0x46d-0x46e (1)
     |                                               |                |            [15]{}: code 0x46e-0x478 (10)
0x460|                                          09   |              . |              size: 9 (valid) 0x46e-0x46f (1)
     |                                               |                |              code{}: 0x46f-0x478 (9)
     |                                               |                |                t{}: 0x46f-0x470 (1)
0x460|                                             00|               .|                  n: 0 (valid) 0x46f-0x470 (1)
     |                                               |                |                  x[0:0]: 0x470-0x470 (0)
     |                                               |                |                e[0:4]: 0x470-0x478 (8)
     |                                               |                |                  [0]{}: in 0x470-0x472 (2)
0x470|20                                             |                |                    opcode: "local.get" (0x20) 0x470-0x471 (1)
0x470|   00                                          | .              |                    x: 0 (valid) 0x471-0x472 (1)
     |                                               |                |                  [1]{}: in 0x472-0x474 (2)
0x470|      20                                       |                |                    opcode: "local.get" (0x20) 0x472-0x473 (1)
0x470|         01                                    |   .            |                    x: 1 (valid) 0x473-0x474 (1)
     |                                               |                |                  [2]{}: in 0x474-0x477 (3)
0x470|            fd                                 |    .           |                    opcode: "vector" (0xfd) 0x474-0x475 (1)
0x470|               1a                              |     .          |                    v_opcode: "i16x8.replace_lane" (26) 0x475-0x476 (1)
0x470|                  07                           |      .         |                    l: 7 0x476-0x477 (1)
     |                                               |                |                  [3]{}: in 0x477-0x478 (1)
0x470|                     0b                        |       .        |                    opcode: "end" (0xb) 0x477-0x478 (1)
     |                                               |                |            [16]{}: code 0x478-0x482 (10)
0x470|                        09                     |        .       |              size: 9 (valid) 0x478-0x479 (1)
     |                                               |                |              code{}: 0x479-0x482 (9)
     |                                               |                |                t{}: 0x479-0x47a (1)
0x470|                           00                  |         .      |                  n: 0 (valid) 0x479-0x47a (1)
     |                                               |                |                  x[0:0]: 0x47a-0x47a (0)
     |                                               |                |                e[0:4]: 0x47a-0x482 (8)
     |                                               |                |                  [0]{}: in 0x47a-0x47c (2)
0x470|                              20               |                |                    opcode: "local.get" (0x20) 0x47a-0x47b (1)
0x470|                                 00            |           .    |                    x: 0 (valid) 0x47b-0x47c (1)
     |                                               |                |                  [1]{}: in 0x47c-0x47e (2)
0x470|                                    20         |                |                    opcode: "local.get" (0x20) 0x47c-0x47d (1)
0x470|                                       01      |             .  |                    x: 1 (valid) 0x47d-0x47e (1)
     |                                               |                |                  [2]{}: in 0x47e-0x481 (3)
0x470|                                          fd   |              . |                    opcode: "vector" (0xfd) 0x47e-0x47f (1)
0x470|                                             1c|               .|                    v_opcode: "i32x4.replace_lane" (28) 0x47f-0x480 (1)
0x480|00                                             |.               |                    l: 0 0x480-0x481 (1)
     |                                               |                |                  [3]{}: in 0x481-0x482 (1)
0x480|   0b                                          | .              |                    opcode: "end" (0xb) 0x481-0x482 (1)
     |                                               |                |            [17]{}: code 0x482-0x48c (10)
0x480|      09                                       |  .             |              size: 9 (valid) 0x482-0x483 (1)
     |                                               |                |              code{}: 0x483-0x48c (9)
     |                                               |                |                t{}: 0x483-0x484 (1)
0x480|         00                                    |   .            |                  n: 0 (valid) 0x483-0x484 (1)
     |                                               |                |                  x[0:0]: 0x484-0x484 (0)
     |                                               |                |                e[0:4]: 0x484-0x48c (8)
     |                                               |                |                  [0]{}: in 0x484-0x486 (2)
0x480|            20                                 |                |                    opcode: "local.get" (0x20) 0x484-0x485 (1)
0x480|               00                              |     .          |                    x: 0 (valid) 0x485-0x486 (1)
     |                                               |                |                  [1]{}: in 0x486-0x488 (2)
0x480|                  20                           |                |                    opcode: "local.get" (0x20) 0x486-0x487 (1)
0x480|                     01                        |       .        |                    x: 1 (valid) 0x487-0x488 (1)
     |                                               |                |                  [2]{}: in 0x488-0x48b (3)
0x480|                        fd                     |        .       |                    opcode: "vector" (0xfd) 0x488-0x489 (1)
0x480|                           1c                  |         .      |                    v_opcode: "i32x4.replace_lane" (28) 0x489-0x48a (1)
0x480|                              03               |          .     |                    l: 3 0x48a-0x48b (1)
     |                                               |                |                  [3]{}: in 0x48b-0x48c (1)
0x480|                                 0b            |           .    |                    opcode: "end" (0xb) 0x48b-0x48c (1)
     |                                               |                |            [18]{}: code 0x48c-0x496 (10)
0x480|                                    09         |            .   |              size: 9 (valid) 0x48c-0x48d (1)
     |                                               |                |              code{}: 0x48d-0x496 (9)
     |                                               |                |                t{}: 0x48d-0x48e (1)
0x480|                                       00      |             .  |                  n: 0 (valid) 0x48d-0x48e (1)
     |                                               |                |                  x[0:0]: 0x48e-0x48e (0)
     |                                               |                |                e[0:4]: 0x48e-0x496 (8)
     |                                               |                |                  [0]{}: in 0x48e-0x490 (2)
0x480|                                          20   |                |                    opcode: "local.get" (0x20) 0x48e-0x48f (1)
0x480|                                             00|               .|                    x: 0 (valid) 0x48f-0x490 (1)
     |                                               |                |                  [1]{}: in 0x490-0x492 (2)
0x490|20                                             |                |                    opcode: "local.get" (0x20) 0x490-0x491 (1)
0x490|   01                                          | .              |                    x: 1 (valid) 0x491-0x492 (1)
     |                                               |                |                  [2]{}: in 0x492-0x495 (3)
0x490|      fd                                       |  .             |                    opcode: "vector" (0xfd) 0x492-0x493 (1)
0x490|         20                                    |                |                    v_opcode: "f32x4.replace_lane" (32) 0x493-0x494 (1)
0x490|            00                                 |    .           |                    l: 0 0x494-0x495 (1)
     |                                               |                |                  [3]{}: in 0x495-0x496 (1)
0x490|               0b                              |     .          |                    opcode: "end" (0xb) 0x495-0x496 (1)
     |                                               |                |            [19]{}: code 0x496-0x4a0 (10)
0x490|                  09                           |      .         |              size: 9 (valid) 0x496-0x497 (1)
     |                                               |                |              code{}: 0x497-0x4a0 (9)
     |                                               |                |                t{}: 0x497-0x498 (1)
0x490|                     00                        |       .        |                  n: 0 (valid) 0x497-0x498 (1)
     |                                               |                |                  x[0:0]: 0x498-0x498 (0)
     |                                               |                |                e[0:4]: 0x498-0x4a0 (8)
     |                                               |                |                  [0]{}: in 0x498-0x49a (2)
0x490|                        20                     |                |                    opcode: "local.get" (0x20) 0x498-0x499 (1)
0x490|                           00                  |         .      |                    x: 0 (valid) 0x499-0x49a (1)
     |                                               |                |                  [1]{}: in 0x49a-0x49c (2)
0x490|                              20               |                |                    opcode: "local.get" (0x20) 0x49a-0x49b (1)
0x490|                                 01            |           .    |                    x: 1 (valid) 0x49b-0x49c (1)
     |                                               |                |                  [2]{}: in 0x49c-0x49f (3)
0x490|                                    fd         |            .   |                    opcode: "vector" (0xfd) 0x49c-0x49d (1)
0x490|                                       20      |                |                    v_opcode: "f32x4.replace_lane" (32) 0x49d-0x49e (1)
0x490|                                          03   |              . |                    l: 3 0x49e-0x49f (1)
     |                                               |                |                  [3]{}: in 0x49f-0x4a0 (1)
0x490|                                             0b|               .|                    opcode: "end" (0xb) 0x49f-0x4a0 (1)
     |                                               |                |            [20]{}: code 0x4a0-0x4a8 (8)
0x4a0|07                                             |.               |              size: 7 (valid) 0x4a0-0x4a1 (1)
     |                                               |                |              code{}: 0x4a1-0x4a8 (7)
     |                                               |                |                t{}: 0x4a1-0x4a2 (1)
0x4a0|   00                                          | .              |                  n: 0 (valid) 0x4a1-0x4a2 (1)
     |                                               |                |                  x[0:0]: 0x4a2-0x4a2 (0)
     |                                               |                |                e[0:3]: 0x4a2-0x4a8 (6)
     |                                               |                |                  [0]{}: in 0x4a2-0x4a4 (2)
0x4a0|      20                                       |                |                    opcode: "local.get" (0x20) 0x4a2-0x4a3 (1)
0x4a0|         00                                    |   .            |                    x: 0 (valid) 0x4a3-0x4a4 (1)
     |                                               |                |                  [1]{}: in 0x4a4-0x4a7 (3)
0x4a0|            fd                                 |    .           |                    opcode: "vector" (0xfd) 0x4a4-0x4a5 (1)
0x4a0|               1d                              |     .          |                    v_opcode: "i64x2.extract_lane" (29) 0x4a5-0x4a6 (1)
0x4a0|                  00                           |      .         |                    l: 0 0x4a6-0x4a7 (1)
     |                                               |                |                  [2]{}: in 0x4a7-0x4a8 (1)
0x4a0|                     0b                        |       .        |                    opcode: "end" (0xb) 0x4a7-0x4a8 (1)
     |                                               |                |            [21]{}: code 0x4a8-0x4b0 (8)
0x4a0|                        07                     |        .       |              size: 7 (valid) 0x4a8-0x4a9 (1)
     |                                               |                |              code{}: 0x4a9-0x4b0 (7)
     |                                               |                |                t{}: 0x4a9-0x4aa (1)
0x4a0|                           00                  |         .      |                  n: 0 (valid) 0x4a9-0x4aa (1)
     |                                               |                |                  x[0:0]: 0x4aa-0x4aa (0)
     |                                               |                |                e[0:3]: 0x4aa-0x4b0 (6)
     |                                               |                |                  [0]{}: in 0x4aa-0x4ac (2)
0x4a0|                              20               |                |                    opcode: "local.get" (0x20) 0x4aa-0x4ab (1)
0x4a0|                                 00            |           .    |                    x: 0 (valid) 0x4ab-0x4ac (1)
     |                                               |                |                  [1]{}: in 0x4ac-0x4af (3)
0x4a0|                                    fd         |            .   |                    opcode: "vector" (0xfd) 0x4ac-0x4ad (1)
0x4a0|                                       1d      |             .  |                    v_opcode: "i64x2.extract_lane" (29) 0x4ad-0x4ae (1)
0x4a0|                                          01   |              . |                    l: 1 0x4ae-0x4af (1)
     |                                               |                |                  [2]{}: in 0x4af-0x4b0 (1)
0x4a0|                                             0b|               .|                    opcode: "end" (0xb) 0x4af-0x4b0 (1)
     |                                               |                |            [22]{}: code 0x4b0-0x4b8 (8)
0x4b0|07                                             |.               |              size: 7 (valid) 0x4b0-0x4b1 (1)
     |                                               |                |              code{}: 0x4b1-0x4b8 (7)
     |                                               |                |                t{}: 0x4b1-0x4b2 (1)
0x4b0|   00                                          | .              |                  n: 0 (valid) 0x4b1-0x4b2 (1)
     |                                               |                |                  x[0:0]: 0x4b2-0x4b2 (0)
     |                                               |                |                e[0:3]: 0x4b2-0x4b8 (6)
     |                                               |                |                  [0]{}: in 0x4b2-0x4b4 (2)
0x4b0|      20                                       |                |                    opcode: "local.get" (0x20) 0x4b2-0x4b3 (1)
0x4b0|         00                                    |   .            |                    x: 0 (valid) 0x4b3-0x4b4 (1)
     |                                               |                |                  [1]{}: in 0x4b4-0x4b7 (3)
0x4b0|            fd                                 |    .           |                    opcode: "vector" (0xfd) 0x4b4-0x4b5 (1)
0x4b0|               21                              |     !          |                    v_opcode: "f64x2.extract_lane" (33) 0x4b5-0x4b6 (1)
0x4b0|                  00                           |      .         |                    l: 0 0x4b6-0x4b7 (1)
     |                                               |                |                  [2]{}: in 0x4b7-0x4b8 (1)
0x4b0|                     0b                        |       .        |                    opcode: "end" (0xb) 0x4b7-0x4b8 (1)
     |                                               |                |            [23]{}: code 0x4b8-0x4c0 (8)
0x4b0|                        07                     |        .       |              size: 7 (valid) 0x4b8-0x4b9 (1)
     |                                               |                |              code{}: 0x4b9-0x4c0 (7)
     |                                               |                |                t{}: 0x4b9-0x4ba (1)
0x4b0|                           00                  |         .      |                  n: 0 (valid) 0x4b9-0x4ba (1)
     |                                               |                |                  x[0:0]: 0x4ba-0x4ba (0)
     |                                               |                |                e[0:3]: 0x4ba-0x4c0 (6)
     |                                               |                |                  [0]{}: in 0x4ba-0x4bc (2)
0x4b0|                              20               |                |                    opcode: "local.get" (0x20) 0x4ba-0x4bb (1)
0x4b0|                                 00            |           .    |                    x: 0 (valid) 0x4bb-0x4bc (1)
     |                                               |                |                  [1]{}: in 0x4bc-0x4bf (3)
0x4b0|                                    fd         |            .   |                    opcode: "vector" (0xfd) 0x4bc-0x4bd (1)
0x4b0|                                       21      |             !  |                    v_opcode: "f64x2.extract_lane" (33) 0x4bd-0x4be (1)
0x4b0|                                          01   |              . |                    l: 1 0x4be-0x4bf (1)
     |                                               |                |                  [2]{}: in 0x4bf-0x4c0 (1)
0x4b0|                                             0b|               .|                    opcode: "end" (0xb) 0x4bf-0x4c0 (1)
     |                                               |                |            [24]{}: code 0x4c0-0x4ca (10)
0x4c0|09                                             |.               |              size: 9 (valid) 0x4c0-0x4c1 (1)
     |                                               |                |              code{}: 0x4c1-0x4ca (9)
     |                                               |                |                t{}: 0x4c1-0x4c2 (1)
0x4c0|   00                                          | .              |                  n: 0 (valid) 0x4c1-0x4c2 (1)
     |                                               |                |                  x[0:0]: 0x4c2-0x4c2 (0)
     |                                               |                |                e[0:4]: 0x4c2-0x4ca (8)
     |                                               |                |                  [0]{}: in 0x4c2-0x4c4 (2)
0x4c0|      20                                       |                |                    opcode: "local.get" (0x20) 0x4c2-0x4c3 (1)
0x4c0|         00                                    |   .            |                    x: 0 (valid) 0x4c3-0x4c4 (1)
     |                                               |                |                  [1]{}: in 0x4c4-0x4c6 (2)
0x4c0|            20                                 |                |                    opcode: "local.get" (0x20) 0x4c4-0x4c5 (1)
0x4c0|               01                              |     .          |                    x: 1 (valid) 0x4c5-0x4c6 (1)
     |                                               |                |                  [2]{}: in 0x4c6-0x4c9 (3)
0x4c0|                  fd                           |      .         |                    opcode: "vector" (0xfd) 0x4c6-0x4c7 (1)
0x4c0|                     1e                        |       .        |                    v_opcode: "i64x2.replace_lane" (30) 0x4c7-0x4c8 (1)
0x4c0|                        00                     |        .       |                    l: 0 0x4c8-0x4c9 (1)
     |                                               |                |                  [3]{}: in 0x4c9-0x4ca (1)
0x4c0|                           0b                  |         .      |                    opcode: "end" (0xb) 0x4c9-0x4ca (1)
     |                                               |                |            [25]{}: code 0x4ca-0x4d4 (10)
0x4c0|                              09               |          .     |              size: 9 (valid) 0x4ca-0x4cb (1)
     |                                               |                |              code{}: 0x4cb-0x4d4 (9)
     |                                               |                |                t{}: 0x4cb-0x4cc (1)
0x4c0|                                 00            |           .    |                  n: 0 (valid) 0x4cb-0x4cc (1)
     |                                               |                |                  x[0:0]: 0x4cc-0x4cc (0)
     |                                               |                |                e[0:4]: 0x4cc-0x4d4 (8)
     |                                               |                |                  [0]{}: in 0x4cc-0x4ce (2)
0x4c0|                                    20         |                |                    opcode: "local.get" (0x20) 0x4cc-0x4cd (1)
0x4c0|                                       00      |             .  |                    x: 0 (valid) 0x4cd-0x4ce (1)
     |                                               |                |                  [1]{}: in 0x4ce-0x4d0 (2)
0x4c0|                                          20   |                |                    opcode: "local.get" (0x20) 0x4ce-0x4cf (1)
0x4c0|                                             01|               .|                    x: 1 (valid) 0x4cf-0x4d0 (1)
     |                                               |                |                  [2]{}: in 0x4d0-0x4d3 (3)
0x4d0|fd                                             |.               |                    opcode: "vector" (0xfd) 0x4d0-0x4d1 (1)
0x4d0|   1e                                          | .              |                    v_opcode: "i64x2.replace_lane" (30) 0x4d1-0x4d2 (1)
0x4d0|      01                                       |  .             |                    l: 1 0x4d2-0x4d3 (1)
     |                                               |                |                  [3]{}: in 0x4d3-0x4d4 (1)
0x4d0|         0b                                    |   .            |                    opcode: "end" (0xb) 0x4d3-0x4d4 (1)
     |                                               |                |            [26]{}: code 0x4d4-0x4de (10)
0x4d0|            09                                 |    .           |              size: 9 (valid) 0x4d4-0x4d5 (1)
     |                                               |                |              code{}: 0x4d5-0x4de (9)
     |                                               |                |                t{}: 0x4d5-0x4d6 (1)
0x4d0|               00                              |     .          |                  n: 0 (valid) 0x4d5-0x4d6 (1)
     |                                               |                |                  x[0:0]: 0x4d6-0x4d6 (0)
     |                                               |                |                e[0:4]: 0x4d6-0x4de (8)
     |                                               |                |                  [0]{}: in 0x4d6-0x4d8 (2)
0x4d0|                  20                           |                |                    opcode: "local.get" (0x20) 0x4d6-0x4d7 (1)
0x4d0|                     00                        |       .        |                    x: 0 (valid) 0x4d7-0x4d8 (1)
     |                                               |                |                  [1]{}: in 0x4d8-0x4da (2)
0x4d0|                        20                     |                |                    opcode: "local.get" (0x20) 0x4d8-0x4d9 (1)
0x4d0|                           01                  |         .      |                    x: 1 (valid) 0x4d9-0x4da (1)
     |                                               |                |                  [2]{}: in 0x4da-0x4dd (3)
0x4d0|                              fd               |          .     |                    opcode: "vector" (0xfd) 0x4da-0x4db (1)
0x4d0|                                 22            |           "    |                    v_opcode: "f64x2.replace_lane" (34) 0x4db-0x4dc (1)
0x4d0|                                    00         |            .   |                    l: 0 0x4dc-0x4dd (1)
     |                                               |                |                  [3]{}: in 0x4dd-0x4de (1)
0x4d0|                                       0b      |             .  |                    opcode: "end" (0xb) 0x4dd-0x4de (1)
     |                                               |                |            [27]{}: code 0x4de-0x4e8 (10)
0x4d0|                                          09   |              . |              size: 9 (valid) 0x4de-0x4df (1)
     |                                               |                |              code{}: 0x4df-0x4e8 (9)
     |                                               |                |                t{}: 0x4df-0x4e0 (1)
0x4d0|                                             00|               .|                  n: 0 (valid) 0x4df-0x4e0 (1)
     |                                               |                |                  x[0:0]: 0x4e0-0x4e0 (0)
     |                                               |                |                e[0:4]: 0x4e0-0x4e8 (8)
     |                                               |                |                  [0]{}: in 0x4e0-0x4e2 (2)
0x4e0|20                                             |                |                    opcode: "local.get" (0x20) 0x4e0-0x4e1 (1)
0x4e0|   00                                          | .              |                    x: 0 (valid) 0x4e1-0x4e2 (1)
     |                                               |                |                  [1]{}: in 0x4e2-0x4e4 (2)
0x4e0|      20                                       |                |                    opcode: "local.get" (0x20) 0x4e2-0x4e3 (1)
0x4e0|         01                                    |   .            |                    x: 1 (valid) 0x4e3-0x4e4 (1)
     |                                               |                |                  [2]{}: in 0x4e4-0x4e7 (3)
0x4e0|            fd                                 |    .           |                    opcode: "vector" (0xfd) 0x4e4-0x4e5 (1)
0x4e0|               22                              |     "          |                    v_opcode: "f64x2.replace_lane" (34) 0x4e5-0x4e6 (1)
0x4e0|                  01                           |      .         |                    l: 1 0x4e6-0x4e7 (1)
     |                                               |                |                  [3]{}: in 0x4e7-0x4e8 (1)
0x4e0|                     0b                        |       .        |                    opcode: "end" (0xb) 0x4e7-0x4e8 (1)
     |                                               |                |            [28]{}: code 0x4e8-0x4f1 (9)
0x4e0|                        08                     |        .       |              size: 8 (valid) 0x4e8-0x4e9 (1)
     |                                               |                |              code{}: 0x4e9-0x4f1 (8)
     |                                               |                |                t{}: 0x4e9-0x4ea (1)
0x4e0|                           00                  |         .      |                  n: 0 (valid) 0x4e9-0x4ea (1)
     |                                               |                |                  x[0:0]: 0x4ea-0x4ea (0)
     |                                               |                |                e[0:4]: 0x4ea-0x4f1 (7)
     |                                               |                |                  [0]{}: in 0x4ea-0x4ec (2)
0x4e0|                              20               |                |                    opcode: "local.get" (0x20) 0x4ea-0x4eb (1)
0x4e0|                                 00            |           .    |                    x: 0 (valid) 0x4eb-0x4ec (1)
     |                                               |                |                  [1]{}: in 0x4ec-0x4ee (2)
0x4e0|                                    20         |                |                    opcode: "local.get" (0x20) 0x4ec-0x4ed (1)
0x4e0|                                       01      |             .  |                    x: 1 (valid) 0x4ed-0x4ee (1)
     |                                               |                |                  [2]{}: in 0x4ee-0x4f0 (2)
0x4e0|                                          fd   |              . |                    opcode: "vector" (0xfd) 0x4ee-0x4ef (1)
0x4e0|                                             0e|               .|                    v_opcode: "i8x16.swizzle" (14) 0x4ef-0x4f0 (1)
     |                                               |                |                  [3]{}: in 0x4f0-0x4f1 (1)
0x4f0|0b                                             |.               |                    opcode: "end" (0xb) 0x4f0-0x4f1 (1)
     |                                               |                |            [29]{}: code 0x4f1-0x50a (25)
0x4f0|   18                                          | .              |              size: 24 (valid) 0x4f1-0x4f2 (1)
     |                                               |                |              code{}: 0x4f2-0x50a (24)
     |                                               |                |                t{}: 0x4f2-0x4f3 (1)
0x4f0|      00                                       |  .             |                  n: 0 (valid) 0x4f2-0x4f3 (1)
     |                                               |                |                  x[0:0]: 0x4f3-0x4f3 (0)
     |                                               |                |                e[0:4]: 0x4f3-0x50a (23)
     |                                               |                |                  [0]{}: in 0x4f3-0x4f5 (2)
0x4f0|         20                                    |                |                    opcode: "local.get" (0x20) 0x4f3-0x4f4 (1)
0x4f0|            00                                 |    .           |                    x: 0 (valid) 0x4f4-0x4f5 (1)
     |                                               |                |                  [1]{}: in 0x4f5-0x4f7 (2)
0x4f0|               20                              |                |                    opcode: "local.get" (0x20) 0x4f5-0x4f6 (1)
0x4f0|                  01                           |      .         |                    x: 1 (valid) 0x4f6-0x4f7 (1)
     |                                               |                |                  [2]{}: in 0x4f7-0x509 (18)
0x4f0|                     fd                        |       .        |                    opcode: "vector" (0xfd) 0x4f7-0x4f8 (1)
0x4f0|                        0d                     |        .       |                    v_opcode: "i8x16.shuffle" (13) 0x4f8-0x4f9 (1)
     |                                               |                |                    laneidx[0:16]: 0x4f9-0x509 (16)
0x4f0|                           00                  |         .      |                      [0]: 0 l 0x4f9-0x4fa (1)
0x4f0|                              01               |          .     |                      [1]: 1 l 0x4fa-0x4fb (1)
0x4f0|                                 02            |           .    |                      [2]: 2 l 0x4fb-0x4fc (1)
0x4f0|                                    03         |            .   |                      [3]: 3 l 0x4fc-0x4fd (1)
0x4f0|                                       04      |             .  |                      [4]: 4 l 0x4fd-0x4fe (1)
0x4f0|                                          05   |              . |                      [5]: 5 l 0x4fe-0x4ff (1)
0x4f0|                                             06|               .|                      [6]: 6 l 0x4ff-0x500 (1)
0x500|07                                             |.               |                      [7]: 7 l 0x500-0x501 (1)
0x500|   08                                          | .              |                      [8]: 8 l 0x501-0x502 (1)
0x500|      09                                       |  .             |                      [9]: 9 l 0x502-0x503 (1)
0x500|         0a                                    |   .            |                      [10]: 10 l 0x503-0x504 (1)
0x500|            0b                                 |    .           |                      [11]: 11 l 0x504-0x505 (1)
0x500|               0c                              |     .          |                      [12]: 12 l 0x505-0x506 (1)
0x500|                  0d                           |      .         |                      [13]: 13 l 0x506-0x507 (1)
0x500|                     0e                        |       .        |                      [14]: 14 l 0x507-0x508 (1)
0x500|                        0f                     |        .       |                      [15]: 15 l 0x508-0x509 (1)
     |                                               |                |                  [3]{}: in 0x509-0x50a (1)
0x500|                           0b                  |         .      |                    opcode: "end" (0xb) 0x509-0x50a (1)
     |                                               |                |            [30]{}: code 0x50a-0x523 (25)
0x500|                              18               |          .     |              size: 24 (valid) 0x50a-0x50b (1)
     |                                               |                |              code{}: 0x50b-0x523 (24)
     |                                               |                |                t{}: 0x50b-0x50c (1)
0x500|                                 00            |           .    |                  n: 0 (valid) 0x50b-0x50c (1)
     |                                               |                |                  x[0:0]: 0x50c-0x50c (0)
     |                                               |                |                e[0:4]: 0x50c-0x523 (23)
     |                                               |                |                  [0]{}: in 0x50c-0x50e (2)
0x500|                                    20         |                |                    opcode: "local.get" (0x20) 0x50c-0x50d (1)
0x500|                                       00      |             .  |                    x: 0 (valid) 0x50d-0x50e (1)
     |                                               |                |                  [1]{}: in 0x50e-0x510 (2)
0x500|                                          20   |                |                    opcode: "local.get" (0x20) 0x50e-0x50f (1)
0x500|                                             01|               .|                    x: 1 (valid) 0x50f-0x510 (1)
     |                                               |                |                  [2]{}: in 0x510-0x522 (18)
0x510|fd                                             |.               |                    opcode: "vector" (0xfd) 0x510-0x511 (1)
0x510|   0d                                          | .              |                    v_opcode: "i8x16.shuffle" (13) 0x511-0x512 (1)
     |                                               |                |                    laneidx[0:16]: 0x512-0x522 (16)
0x510|      10                                       |  .             |                      [0]: 16 l 0x512-0x513 (1)
0x510|         11                                    |   .            |                      [1]: 17 l 0x513-0x514 (1)
0x510|            12                                 |    .           |                      [2]: 18 l 0x514-0x515 (1)
0x510|               13                              |     .          |                      [3]: 19 l 0x515-0x516 (1)
0x510|                  14                           |      .         |                      [4]: 20 l 0x516-0x517 (1)
0x510|                     15                        |       .        |                      [5]: 21 l 0x517-0x518 (1)
0x510|                        16                     |        .       |                      [6]: 22 l 0x518-0x519 (1)
0x510|                           17                  |         .      |                      [7]: 23 l 0x519-0x51a (1)
0x510|                              18               |          .     |                      [8]: 24 l 0x51a-0x51b (1)
0x510|                                 19            |           .    |                      [9]: 25 l 0x51b-0x51c (1)
0x510|                                    1a         |            .   |                      [10]: 26 l 0x51c-0x51d (1)
0x510|                                       1b      |             .  |                      [11]: 27 l 0x51d-0x51e (1)
0x510|                                          1c   |              . |                      [12]: 28 l 0x51e-0x51f (1)
0x510|                                             1d|               .|                      [13]: 29 l 0x51f-0x520 (1)
0x520|1e                                             |.               |                      [14]: 30 l 0x520-0x521 (1)
0x520|   1f                                          | .              |                      [15]: 31 l 0x521-0x522 (1)
     |                                               |                |                  [3]{}: in 0x522-0x523 (1)
0x520|      0b                                       |  .             |                    opcode: "end" (0xb) 0x522-0x523 (1)
     |                                               |                |            [31]{}: code 0x523-0x53c (25)
0x520|         18                                    |   .            |              size: 24 (valid) 0x523-0x524 (1)
     |                                               |                |              code{}: 0x524-0x53c (24)
     |                                               |                |                t{}: 0x524-0x525 (1)
0x520|            00                                 |    .           |                  n: 0 (valid) 0x524-0x525 (1)
     |                                               |                |                  x[0:0]: 0x525-0x525 (0)
     |                                               |                |                e[0:4]: 0x525-0x53c (23)
     |                                               |                |                  [0]{}: in 0x525-0x527 (2)
0x520|               20                              |                |                    opcode: "local.get" (0x20) 0x525-0x526 (1)
0x520|                  00                           |      .         |                    x: 0 (valid) 0x526-0x527 (1)
     |                                               |                |                  [1]{}: in 0x527-0x529 (2)
0x520|                     20                        |                |                    opcode: "local.get" (0x20) 0x527-0x528 (1)
0x520|                        01                     |        .       |                    x: 1 (valid) 0x528-0x529 (1)
     |                                               |                |                  [2]{}: in 0x529-0x53b (18)
0x520|                           fd                  |         .      |                    opcode: "vector" (0xfd) 0x529-0x52a (1)
0x520|                              0d               |          .     |                    v_opcode: "i8x16.shuffle" (13) 0x52a-0x52b (1)
     |                                               |                |                    laneidx[0:16]: 0x52b-0x53b (16)
0x520|                                 1f            |           .    |                      [0]: 31 l 0x52b-0x52c (1)
0x520|                                    1e         |            .   |                      [1]: 30 l 0x52c-0x52d (1)
0x520|                                       1d      |             .  |                      [2]: 29 l 0x52d-0x52e (1)
0x520|                                          1c   |              . |                      [3]: 28 l 0x52e-0x52f (1)
0x520|                                             1b|               .|                      [4]: 27 l 0x52f-0x530 (1)
0x530|1a                                             |.               |                      [5]: 26 l 0x530-0x531 (1)
0x530|   19                                          | .              |                      [6]: 25 l 0x531-0x532 (1)
0x530|      18                                       |  .             |                      [7]: 24 l 0x532-0x533 (1)
0x530|         17                                    |   .            |                      [8]: 23 l 0x533-0x534 (1)
0x530|            16                                 |    .           |                      [9]: 22 l 0x534-0x535 (1)
0x530|               15                              |     .          |                      [10]: 21 l 0x535-0x536 (1)
0x530|                  14                           |      .         |                      [11]: 20 l 0x536-0x537 (1)
0x530|                     13                        |       .        |                      [12]: 19 l 0x537-0x538 (1)
0x530|                        12                     |        .       |                      [13]: 18 l 0x538-0x539 (1)
0x530|                           11                  |         .      |                      [14]: 17 l 0x539-0x53a (1)
0x530|                              10               |          .     |                      [15]: 16 l 0x53a-0x53b (1)
     |                                               |                |                  [3]{}: in 0x53b-0x53c (1)
0x530|                                 0b            |           .    |                    opcode: "end" (0xb) 0x53b-0x53c (1)
     |                                               |                |            [32]{}: code 0x53c-0x555 (25)
0x530|                                    18         |            .   |              size: 24 (valid) 0x53c-0x53d (1)
     |                                               |                |              code{}: 0x53d-0x555 (24)
     |                                               |                |                t{}: 0x53d-0x53e (1)
0x530|                                       00      |             .  |                  n: 0 (valid) 0x53d-0x53e (1)
     |                                               |                |                  x[0:0]: 0x53e-0x53e (0)
     |                                               |                |                e[0:4]: 0x53e-0x555 (23)
     |                                               |                |                  [0]{}: in 0x53e-0x540 (2)
0x530|                                          20   |                |                    opcode: "local.get" (0x20) 0x53e-0x53f (1)
0x530|                                             00|               .|                    x: 0 (valid) 0x53f-0x540 (1)
     |                                               |                |                  [1]{}: in 0x540-0x542 (2)
0x540|20                                             |                |                    opcode: "local.get" (0x20) 0x540-0x541 (1)
0x540|   01                                          | .              |                    x: 1 (valid) 0x541-0x542 (1)
     |                                               |                |                  [2]{}: in 0x542-0x554 (18)
0x540|      fd                                       |  .             |                    opcode: "vector" (0xfd) 0x542-0x543 (1)
0x540|         0d                                    |   .            |                    v_opcode: "i8x16.shuffle" (13) 0x543-0x544 (1)
     |                                               |                |                    laneidx[0:16]: 0x544-0x554 (16)
0x540|            0f                                 |    .           |                      [0]: 15 l 0x544-0x545 (1)
0x540|               0e                              |     .          |                      [1]: 14 l 0x545-0x546 (1)
0x540|                  0d                           |      .         |                      [2]: 13 l 0x546-0x547 (1)
0x540|                     0c                        |       .        |                      [3]: 12 l 0x547-0x548 (1)
0x540|                        0b                     |        .       |                      [4]: 11 l 0x548-0x549 (1)
0x540|                           0a                  |         .      |                      [5]: 10 l 0x549-0x54a (1)
0x540|                              09               |          .     |                      [6]: 9 l 0x54a-0x54b (1)
0x540|                                 08            |           .    |                      [7]: 8 l 0x54b-0x54c (1)
0x540|                                    07         |            .   |                      [8]: 7 l 0x54c-0x54d (1)
0x540|                                       06      |             .  |                      [9]: 6 l 0x54d-0x54e (1)
0x540|                                          05   |              . |                      [10]: 5 l 0x54e-0x54f (1)
0x540|                                             04|               .|                      [11]: 4 l 0x54f-0x550 (1)
0x550|03                                             |.               |                      [12]: 3 l 0x550-0x551 (1)
0x550|   02                                          | .              |                      [13]: 2 l 0x551-0x552 (1)
0x550|      01                                       |  .             |                      [14]: 1 l 0x552-0x553 (1)
0x550|         00                                    |   .            |                      [15]: 0 l 0x553-0x554 (1)
     |                                               |                |                  [3]{}: in 0x554-0x555 (1)
0x550|            0b                                 |    .           |                    opcode: "end" (0xb) 0x554-0x555 (1)
     |                                               |                |            [33]{}: code 0x555-0x56e (25)
0x550|               18                              |     .          |              size: 24 (valid) 0x555-0x556 (1)
     |                                               |                |              code{}: 0x556-0x56e (24)
     |                                               |                |                t{}: 0x556-0x557 (1)
0x550|                  00                           |      .         |                  n: 0 (valid) 0x556-0x557 (1)
     |                                               |                |                  x[0:0]: 0x557-0x557 (0)
     |                                               |                |                e[0:4]: 0x557-0x56e (23)
     |                                               |                |                  [0]{}: in 0x557-0x559 (2)
0x550|                     20                        |                |                    opcode: "local.get" (0x20) 0x557-0x558 (1)
0x550|                        00                     |        .       |                    x: 0 (valid) 0x558-0x559 (1)
     |                                               |                |                  [1]{}: in 0x559-0x55b (2)
0x550|                           20                  |                |                    opcode: "local.get" (0x20) 0x559-0x55a (1)
0x550|                              01               |          .     |                    x: 1 (valid) 0x55a-0x55b (1)
     |                                               |                |                  [2]{}: in 0x55b-0x56d (18)
0x550|                                 fd            |           .    |                    opcode: "vector" (0xfd) 0x55b-0x55c (1)
0x550|                                    0d         |            .   |                    v_opcode: "i8x16.shuffle" (13) 0x55c-0x55d (1)
     |                                               |                |                    laneidx[0:16]: 0x55d-0x56d (16)
0x550|                                       00      |             .  |                      [0]: 0 l 0x55d-0x55e (1)
0x550|                                          00   |              . |                      [1]: 0 l 0x55e-0x55f (1)
0x550|                                             00|               .|                      [2]: 0 l 0x55f-0x560 (1)
0x560|00                                             |.               |                      [3]: 0 l 0x560-0x561 (1)
0x560|   00                                          | .              |                      [4]: 0 l 0x561-0x562 (1)
0x560|      00                                       |  .             |                      [5]: 0 l 0x562-0x563 (1)
0x560|         00                                    |   .            |                      [6]: 0 l 0x563-0x564 (1)
0x560|            00                                 |    .           |                      [7]: 0 l 0x564-0x565 (1)
0x560|               00                              |     .          |                      [8]: 0 l 0x565-0x566 (1)
0x560|                  00                           |      .         |                      [9]: 0 l 0x566-0x567 (1)
0x560|                     00                        |       .        |                      [10]: 0 l 0x567-0x568 (1)
0x560|                        00                     |        .       |                      [11]: 0 l 0x568-0x569 (1)
0x560|                           00                  |         .      |                      [12]: 0 l 0x569-0x56a (1)
0x560|                              00               |          .     |                      [13]: 0 l 0x56a-0x56b (1)
0x560|                                 00            |           .    |                      [14]: 0 l 0x56b-0x56c (1)
0x560|                                    00         |            .   |                      [15]: 0 l 0x56c-0x56d (1)
     |                                               |                |                  [3]{}: in 0x56d-0x56e (1)
0x560|                                       0b      |             .  |                    opcode: "end" (0xb) 0x56d-0x56e (1)
     |                                               |                |            [34]{}: code 0x56e-0x587 (25)
0x560|                                          18   |              . |              size: 24 (valid) 0x56e-0x56f (1)
     |                                               |                |              code{}: 0x56f-0x587 (24)
     |                                               |                |                t{}: 0x56f-0x570 (1)
0x560|                                             00|               .|                  n: 0 (valid) 0x56f-0x570 (1)
     |                                               |                |                  x[0:0]: 0x570-0x570 (0)
     |                                               |                |                e[0:4]: 0x570-0x587 (23)
     |                                               |                |                  [0]{}: in 0x570-0x572 (2)
0x570|20                                             |                |                    opcode: "local.get" (0x20) 0x570-0x571 (1)
0x570|   00                                          | .              |                    x: 0 (valid) 0x571-0x572 (1)
     |                                               |                |                  [1]{}: in 0x572-0x574 (2)
0x570|      20                                       |                |                    opcode: "local.get" (0x20) 0x572-0x573 (1)
0x570|         01                                    |   .            |                    x: 1 (valid) 0x573-0x574 (1)
     |                                               |                |                  [2]{}: in 0x574-0x586 (18)
0x570|            fd                                 |    .           |                    opcode: "vector" (0xfd) 0x574-0x575 (1)
0x570|               0d                              |     .          |                    v_opcode: "i8x16.shuffle" (13) 0x575-0x576 (1)
     |                                               |                |                    laneidx[0:16]: 0x576-0x586 (16)
0x570|                  10                           |      .         |                      [0]: 16 l 0x576-0x577 (1)
0x570|                     10                        |       .        |                      [1]: 16 l 0x577-0x578 (1)
0x570|                        10                     |        .       |                      [2]: 16 l 0x578-0x579 (1)
0x570|                           10                  |         .      |                      [3]: 16 l 0x579-0x57a (1)
0x570|                              10               |          .     |                      [4]: 16 l 0x57a-0x57b (1)
0x570|                                 10            |           .    |                      [5]: 16 l 0x57b-0x57c (1)
0x570|                                    10         |            .   |                      [6]: 16 l 0x57c-0x57d (1)
0x570|                                       10      |             .  |                      [7]: 16 l 0x57d-0x57e (1)
0x570|                                          10   |              . |                      [8]: 16 l 0x57e-0x57f (1)
0x570|                                             10|               .|                      [9]: 16 l 0x57f-0x580 (1)
0x580|10                                             |.               |                      [10]: 16 l 0x580-0x581 (1)
0x580|   10                                          | .              |                      [11]: 16 l 0x581-0x582 (1)
0x580|      10                                       |  .             |                      [12]: 16 l 0x582-0x583 (1)
0x580|         10                                    |   .            |                      [13]: 16 l 0x583-0x584 (1)
0x580|            10                                 |    .           |                      [14]: 16 l 0x584-0x585 (1)
0x580|               10                              |     .          |                      [15]: 16 l 0x585-0x586 (1)
     |                                               |                |                  [3]{}: in 0x586-0x587 (1)
0x580|                  0b                           |      .         |                    opcode: "end" (0xb) 0x586-0x587 (1)
     |                                               |                |            [35]{}: code 0x587-0x5a0 (25)
0x580|                     18                        |       .        |              size: 24 (valid) 0x587-0x588 (1)
     |                                               |                |              code{}: 0x588-0x5a0 (24)
     |                                               |                |                t{}: 0x588-0x589 (1)
0x580|                        00                     |        .       |                  n: 0 (valid) 0x588-0x589 (1)
     |                                               |                |                  x[0:0]: 0x589-0x589 (0)
     |                                               |                |                e[0:4]: 0x589-0x5a0 (23)
     |                                               |                |                  [0]{}: in 0x589-0x58b (2)
0x580|                           20                  |                |                    opcode: "local.get" (0x20) 0x589-0x58a (1)
0x580|                              00               |          .     |                    x: 0 (valid) 0x58a-0x58b (1)
     |                                               |                |                  [1]{}: in 0x58b-0x58d (2)
0x580|                                 20            |                |                    opcode: "local.get" (0x20) 0x58b-0x58c (1)
0x580|                                    01         |            .   |                    x: 1 (valid) 0x58c-0x58d (1)
     |                                               |                |                  [2]{}: in 0x58d-0x59f (18)
0x580|                                       fd      |             .  |                    opcode: "vector" (0xfd) 0x58d-0x58e (1)
0x580|                                          0d   |              . |                    v_opcode: "i8x16.shuffle" (13) 0x58e-0x58f (1)
     |                                               |                |                    laneidx[0:16]: 0x58f-0x59f (16)
0x580|                                             00|               .|                      [0]: 0 l 0x58f-0x590 (1)
0x590|00                                             |.               |                      [1]: 0 l 0x590-0x591 (1)
0x590|   00                                          | .              |                      [2]: 0 l 0x591-0x592 (1)
0x590|      00                                       |  .             |                      [3]: 0 l 0x592-0x593 (1)
0x590|         00                                    |   .            |                      [4]: 0 l 0x593-0x594 (1)
0x590|            00                                 |    .           |                      [5]: 0 l 0x594-0x595 (1)
0x590|               00                              |     .          |                      [6]: 0 l 0x595-0x596 (1)
0x590|                  00                           |      .         |                      [7]: 0 l 0x596-0x597 (1)
0x590|                     10                        |       .        |                      [8]: 16 l 0x597-0x598 (1)
0x590|                        10                     |        .       |                      [9]: 16 l 0x598-0x599 (1)
0x590|                           10                  |         .      |                      [10]: 16 l 0x599-0x59a (1)
0x590|                              10               |          .     |                      [11]: 16 l 0x59a-0x59b (1)
0x590|                                 10            |           .    |                      [12]: 16 l 0x59b-0x59c (1)
0x590|                                    10         |            .   |                      [13]: 16 l 0x59c-0x59d (1)
0x590|                                       10      |             .  |                      [14]: 16 l 0x59d-0x59e (1)
0x590|                                          10   |              . |                      [15]: 16 l 0x59e-0x59f (1)
     |                                               |                |                  [3]{}: in 0x59f-0x5a0 (1)
0x590|                                             0b|               .|                    opcode: "end" (0xb) 0x59f-0x5a0 (1)
