$ fq -d wasm dv simd_f32x4-0.wasm
     |00 01 02 03 04 05 06 07 08 09 0a 0b 0c 0d 0e 0f|0123456789abcdef|.{}: simd_f32x4-0.wasm (wasm) 0x0-0x45f.7 (1120)
0x000|00 61 73 6d                                    |.asm            |  magic: raw bits (valid) 0x0-0x3.7 (4)
0x000|            01 00 00 00                        |    ....        |  version: 1 0x4-0x7.7 (4)
     |                                               |                |  sections[0:4]: 0x8-0x45f.7 (1112)
     |                                               |                |    [0]{}: section 0x8-0x19.7 (18)
0x000|                        01                     |        .       |      id: "type section" (1) 0x8-0x8.7 (1)
0x000|                           10                  |         .      |      size: 16 0x9-0x9.7 (1)
     |                                               |                |      content{}: 0xa-0x19.7 (16)
     |                                               |                |        ft{}: 0xa-0x19.7 (16)
0x000|                              03               |          .     |          n: 3 0xa-0xa.7 (1)
     |                                               |                |          x[0:3]: 0xb-0x19.7 (15)
     |                                               |                |            [0]{}: ft 0xb-0x10.7 (6)
0x000|                                 60            |           `    |              tag: 0x60 (valid) 0xb-0xb.7 (1)
     |                                               |                |              rt1{}: 0xc-0xe.7 (3)
0x000|                                    02         |            .   |                n: 2 0xc-0xc.7 (1)
     |                                               |                |                x[0:2]: 0xd-0xe.7 (2)
0x000|                                       7b      |             {  |                  [0]: "v128" (0x7b) t 0xd-0xd.7 (1)
0x000|                                          7b   |              { |                  [1]: "v128" (0x7b) t 0xe-0xe.7 (1)
     |                                               |                |              rt2{}: 0xf-0x10.7 (2)
0x000|                                             01|               .|                n: 1 0xf-0xf.7 (1)
     |                                               |                |                x[0:1]: 0x10-0x10.7 (1)
0x010|7b                                             |{               |                  [0]: "v128" (0x7b) t 0x10-0x10.7 (1)
     |                                               |                |            [1]{}: ft 0x11-0x15.7 (5)
0x010|   60                                          | `              |              tag: 0x60 (valid) 0x11-0x11.7 (1)
     |                                               |                |              rt1{}: 0x12-0x13.7 (2)
0x010|      01                                       |  .             |                n: 1 0x12-0x12.7 (1)
     |                                               |                |                x[0:1]: 0x13-0x13.7 (1)
0x010|         7b                                    |   {            |                  [0]: "v128" (0x7b) t 0x13-0x13.7 (1)
     |                                               |                |              rt2{}: 0x14-0x15.7 (2)
0x010|            01                                 |    .           |                n: 1 0x14-0x14.7 (1)
     |                                               |                |                x[0:1]: 0x15-0x15.7 (1)
0x010|               7b                              |     {          |                  [0]: "v128" (0x7b) t 0x15-0x15.7 (1)
     |                                               |                |            [2]{}: ft 0x16-0x19.7 (4)
0x010|                  60                           |      `         |              tag: 0x60 (valid) 0x16-0x16.7 (1)
     |                                               |                |              rt1{}: 0x17-0x17.7 (1)
0x010|                     00                        |       .        |                n: 0 0x17-0x17.7 (1)
     |                                               |                |                x[0:0]: 0x18-NA (0)
     |                                               |                |              rt2{}: 0x18-0x19.7 (2)
0x010|                        01                     |        .       |                n: 1 0x18-0x18.7 (1)
     |                                               |                |                x[0:1]: 0x19-0x19.7 (1)
0x010|                           7b                  |         {      |                  [0]: "v128" (0x7b) t 0x19-0x19.7 (1)
     |                                               |                |    [1]{}: section 0x1a-0x30.7 (23)
0x010|                              03               |          .     |      id: "function section" (3) 0x1a-0x1a.7 (1)
0x010|                                 15            |           .    |      size: 21 0x1b-0x1b.7 (1)
     |                                               |                |      content{}: 0x1c-0x30.7 (21)
     |                                               |                |        x{}: 0x1c-0x30.7 (21)
0x010|                                    14         |            .   |          n: 20 0x1c-0x1c.7 (1)
     |                                               |                |          x[0:20]: 0x1d-0x30.7 (20)
0x010|                                       00      |             .  |            [0]: 0 x 0x1d-0x1d.7 (1)
0x010|                                          00   |              . |            [1]: 0 x 0x1e-0x1e.7 (1)
0x010|                                             01|               .|            [2]: 1 x 0x1f-0x1f.7 (1)
0x020|02                                             |.               |            [3]: 2 x 0x20-0x20.7 (1)
0x020|   02                                          | .              |            [4]: 2 x 0x21-0x21.7 (1)
0x020|      02                                       |  .             |            [5]: 2 x 0x22-0x22.7 (1)
0x020|         02                                    |   .            |            [6]: 2 x 0x23-0x23.7 (1)
0x020|            01                                 |    .           |            [7]: 1 x 0x24-0x24.7 (1)
0x020|               01                              |     .          |            [8]: 1 x 0x25-0x25.7 (1)
0x020|                  01                           |      .         |            [9]: 1 x 0x26-0x26.7 (1)
0x020|                     01                        |       .        |            [10]: 1 x 0x27-0x27.7 (1)
0x020|                        02                     |        .       |            [11]: 2 x 0x28-0x28.7 (1)
0x020|                           02                  |         .      |            [12]: 2 x 0x29-0x29.7 (1)
0x020|                              02               |          .     |            [13]: 2 x 0x2a-0x2a.7 (1)
0x020|                                 02            |           .    |            [14]: 2 x 0x2b-0x2b.7 (1)
0x020|                                    01         |            .   |            [15]: 1 x 0x2c-0x2c.7 (1)
0x020|                                       01      |             .  |            [16]: 1 x 0x2d-0x2d.7 (1)
0x020|                                          01   |              . |            [17]: 1 x 0x2e-0x2e.7 (1)
0x020|                                             01|               .|            [18]: 1 x 0x2f-0x2f.7 (1)
0x030|02                                             |.               |            [19]: 2 x 0x30-0x30.7 (1)
     |                                               |                |    [2]{}: section 0x31-0x207.7 (471)
0x030|   07                                          | .              |      id: "export section" (7) 0x31-0x31.7 (1)
0x030|      d4 03                                    |  ..            |      size: 468 0x32-0x33.7 (2)
     |                                               |                |      content{}: 0x34-0x207.7 (468)
     |                                               |                |        ex{}: 0x34-0x207.7 (468)
0x030|            14                                 |    .           |          n: 20 0x34-0x34.7 (1)
     |                                               |                |          x[0:20]: 0x35-0x207.7 (467)
     |                                               |                |            [0]{}: ex 0x35-0x40.7 (12)
     |                                               |                |              nm{}: 0x35-0x3e.7 (10)
0x030|               09                              |     .          |                n: 9 0x35-0x35.7 (1)
0x030|                  66 33 32 78 34 2e 6d 69 6e   |      f32x4.min |                b: "f32x4.min" 0x36-0x3e.7 (9)
     |                                               |                |              d{}: 0x3f-0x40.7 (2)
0x030|                                             00|               .|                tag: "funcidx" (0x0) 0x3f-0x3f.7 (1)
0x040|00                                             |.               |                x: 0 0x40-0x40.7 (1)
     |                                               |                |            [1]{}: ex 0x41-0x4c.7 (12)
     |                                               |                |              nm{}: 0x41-0x4a.7 (10)
0x040|   09                                          | .              |                n: 9 0x41-0x41.7 (1)
0x040|      66 33 32 78 34 2e 6d 61 78               |  f32x4.max     |                b: "f32x4.max" 0x42-0x4a.7 (9)
     |                                               |                |              d{}: 0x4b-0x4c.7 (2)
0x040|                                 00            |           .    |                tag: "funcidx" (0x0) 0x4b-0x4b.7 (1)
0x040|                                    01         |            .   |                x: 1 0x4c-0x4c.7 (1)
     |                                               |                |            [2]{}: ex 0x4d-0x58.7 (12)
     |                                               |                |              nm{}: 0x4d-0x56.7 (10)
0x040|                                       09      |             .  |                n: 9 0x4d-0x4d.7 (1)
0x040|                                          66 33|              f3|                b: "f32x4.abs" 0x4e-0x56.7 (9)
0x050|32 78 34 2e 61 62 73                           |2x4.abs         |
     |                                               |                |              d{}: 0x57-0x58.7 (2)
0x050|                     00                        |       .        |                tag: "funcidx" (0x0) 0x57-0x57.7 (1)
0x050|                        02                     |        .       |                x: 2 0x58-0x58.7 (1)
     |                                               |                |            [3]{}: ex 0x59-0x71.7 (25)
     |                                               |                |              nm{}: 0x59-0x6f.7 (23)
0x050|                           16                  |         .      |                n: 22 0x59-0x59.7 (1)
0x050|                              66 33 32 78 34 2e|          f32x4.|                b: "f32x4.min_with_const_0" 0x5a-0x6f.7 (22)
0x060|6d 69 6e 5f 77 69 74 68 5f 63 6f 6e 73 74 5f 30|min_with_const_0|
     |                                               |                |              d{}: 0x70-0x71.7 (2)
0x070|00                                             |.               |                tag: "funcidx" (0x0) 0x70-0x70.7 (1)
0x070|   03                                          | .              |                x: 3 0x71-0x71.7 (1)
     |                                               |                |            [4]{}: ex 0x72-0x8a.7 (25)
     |                                               |                |              nm{}: 0x72-0x88.7 (23)
0x070|      16                                       |  .             |                n: 22 0x72-0x72.7 (1)
0x070|         66 33 32 78 34 2e 6d 69 6e 5f 77 69 74|   f32x4.min_wit|                b: "f32x4.min_with_const_1" 0x73-0x88.7 (22)
0x080|68 5f 63 6f 6e 73 74 5f 31                     |h_const_1       |
     |                                               |                |              d{}: 0x89-0x8a.7 (2)
0x080|                           00                  |         .      |                tag: "funcidx" (0x0) 0x89-0x89.7 (1)
0x080|                              04               |          .     |                x: 4 0x8a-0x8a.7 (1)
     |                                               |                |            [5]{}: ex 0x8b-0xa3.7 (25)
     |                                               |                |              nm{}: 0x8b-0xa1.7 (23)
0x080|                                 16            |           .    |                n: 22 0x8b-0x8b.7 (1)
0x080|                                    66 33 32 78|            f32x|                b: "f32x4.min_with_const_2" 0x8c-0xa1.7 (22)
0x090|34 2e 6d 69 6e 5f 77 69 74 68 5f 63 6f 6e 73 74|4.min_with_const|
0x0a0|5f 32                                          |_2              |
     |                                               |                |              d{}: 0xa2-0xa3.7 (2)
0x0a0|      00                                       |  .             |                tag: "funcidx" (0x0) 0xa2-0xa2.7 (1)
0x0a0|         05                                    |   .            |                x: 5 0xa3-0xa3.7 (1)
     |                                               |                |            [6]{}: ex 0xa4-0xbc.7 (25)
     |                                               |                |              nm{}: 0xa4-0xba.7 (23)
0x0a0|            16                                 |    .           |                n: 22 0xa4-0xa4.7 (1)
0x0a0|               66 33 32 78 34 2e 6d 69 6e 5f 77|     f32x4.min_w|                b: "f32x4.min_with_const_3" 0xa5-0xba.7 (22)
0x0b0|69 74 68 5f 63 6f 6e 73 74 5f 33               |ith_const_3     |
     |                                               |                |              d{}: 0xbb-0xbc.7 (2)
0x0b0|                                 00            |           .    |                tag: "funcidx" (0x0) 0xbb-0xbb.7 (1)
0x0b0|                                    06         |            .   |                x: 6 0xbc-0xbc.7 (1)
     |                                               |                |            [7]{}: ex 0xbd-0xd5.7 (25)
     |                                               |                |              nm{}: 0xbd-0xd3.7 (23)
0x0b0|                                       16      |             .  |                n: 22 0xbd-0xbd.7 (1)
0x0b0|                                          66 33|              f3|                b: "f32x4.min_with_const_5" 0xbe-0xd3.7 (22)
0x0c0|32 78 34 2e 6d 69 6e 5f 77 69 74 68 5f 63 6f 6e|2x4.min_with_con|
0x0d0|73 74 5f 35                                    |st_5            |
     |                                               |                |              d{}: 0xd4-0xd5.7 (2)
0x0d0|            00                                 |    .           |                tag: "funcidx" (0x0) 0xd4-0xd4.7 (1)
0x0d0|               07                              |     .          |                x: 7 0xd5-0xd5.7 (1)
     |                                               |                |            [8]{}: ex 0xd6-0xee.7 (25)
     |                                               |                |              nm{}: 0xd6-0xec.7 (23)
0x0d0|                  16                           |      .         |                n: 22 0xd6-0xd6.7 (1)
0x0d0|                     66 33 32 78 34 2e 6d 69 6e|       f32x4.min|                b: "f32x4.min_with_const_6" 0xd7-0xec.7 (22)
0x0e0|5f 77 69 74 68 5f 63 6f 6e 73 74 5f 36         |_with_const_6   |
     |                                               |                |              d{}: 0xed-0xee.7 (2)
0x0e0|                                       00      |             .  |                tag: "funcidx" (0x0) 0xed-0xed.7 (1)
0x0e0|                                          08   |              . |                x: 8 0xee-0xee.7 (1)
     |                                               |                |            [9]{}: ex 0xef-0x107.7 (25)
     |                                               |                |              nm{}: 0xef-0x105.7 (23)
0x0e0|                                             16|               .|                n: 22 0xef-0xef.7 (1)
0x0f0|66 33 32 78 34 2e 6d 69 6e 5f 77 69 74 68 5f 63|f32x4.min_with_c|                b: "f32x4.min_with_const_7" 0xf0-0x105.7 (22)
0x100|6f 6e 73 74 5f 37                              |onst_7          |
     |                                               |                |              d{}: 0x106-0x107.7 (2)
0x100|                  00                           |      .         |                tag: "funcidx" (0x0) 0x106-0x106.7 (1)
0x100|                     09                        |       .        |                x: 9 0x107-0x107.7 (1)
     |                                               |                |            [10]{}: ex 0x108-0x120.7 (25)
     |                                               |                |              nm{}: 0x108-0x11e.7 (23)
0x100|                        16                     |        .       |                n: 22 0x108-0x108.7 (1)
0x100|                           66 33 32 78 34 2e 6d|         f32x4.m|                b: "f32x4.min_with_const_8" 0x109-0x11e.7 (22)
0x110|69 6e 5f 77 69 74 68 5f 63 6f 6e 73 74 5f 38   |in_with_const_8 |
     |                                               |                |              d{}: 0x11f-0x120.7 (2)
0x110|                                             00|               .|                tag: "funcidx" (0x0) 0x11f-0x11f.7 (1)
0x120|0a                                             |.               |                x: 10 0x120-0x120.7 (1)
     |                                               |                |            [11]{}: ex 0x121-0x13a.7 (26)
     |                                               |                |              nm{}: 0x121-0x138.7 (24)
0x120|   17                                          | .              |                n: 23 0x121-0x121.7 (1)
0x120|      66 33 32 78 34 2e 6d 61 78 5f 77 69 74 68|  f32x4.max_with|                b: "f32x4.max_with_const_10" 0x122-0x138.7 (23)
0x130|5f 63 6f 6e 73 74 5f 31 30                     |_const_10       |
     |                                               |                |              d{}: 0x139-0x13a.7 (2)
0x130|                           00                  |         .      |                tag: "funcidx" (0x0) 0x139-0x139.7 (1)
0x130|                              0b               |          .     |                x: 11 0x13a-0x13a.7 (1)
     |                                               |                |            [12]{}: ex 0x13b-0x154.7 (26)
     |                                               |                |              nm{}: 0x13b-0x152.7 (24)
0x130|                                 17            |           .    |                n: 23 0x13b-0x13b.7 (1)
0x130|                                    66 33 32 78|            f32x|                b: "f32x4.max_with_const_11" 0x13c-0x152.7 (23)
0x140|34 2e 6d 61 78 5f 77 69 74 68 5f 63 6f 6e 73 74|4.max_with_const|
0x150|5f 31 31                                       |_11             |
     |                                               |                |              d{}: 0x153-0x154.7 (2)
0x150|         00                                    |   .            |                tag: "funcidx" (0x0) 0x153-0x153.7 (1)
0x150|            0c                                 |    .           |                x: 12 0x154-0x154.7 (1)
     |                                               |                |            [13]{}: ex 0x155-0x16e.7 (26)
     |                                               |                |              nm{}: 0x155-0x16c.7 (24)
0x150|               17                              |     .          |                n: 23 0x155-0x155.7 (1)
0x150|                  66 33 32 78 34 2e 6d 61 78 5f|      f32x4.max_|                b: "f32x4.max_with_const_12" 0x156-0x16c.7 (23)
0x160|77 69 74 68 5f 63 6f 6e 73 74 5f 31 32         |with_const_12   |
     |                                               |                |              d{}: 0x16d-0x16e.7 (2)
0x160|                                       00      |             .  |                tag: "funcidx" (0x0) 0x16d-0x16d.7 (1)
0x160|                                          0d   |              . |                x: 13 0x16e-0x16e.7 (1)
     |                                               |                |            [14]{}: ex 0x16f-0x188.7 (26)
     |                                               |                |              nm{}: 0x16f-0x186.7 (24)
0x160|                                             17|               .|                n: 23 0x16f-0x16f.7 (1)
0x170|66 33 32 78 34 2e 6d 61 78 5f 77 69 74 68 5f 63|f32x4.max_with_c|                b: "f32x4.max_with_const_13" 0x170-0x186.7 (23)
0x180|6f 6e 73 74 5f 31 33                           |onst_13         |
     |                                               |                |              d{}: 0x187-0x188.7 (2)
0x180|                     00                        |       .        |                tag: "funcidx" (0x0) 0x187-0x187.7 (1)
0x180|                        0e                     |        .       |                x: 14 0x188-0x188.7 (1)
     |                                               |                |            [15]{}: ex 0x189-0x1a2.7 (26)
     |                                               |                |              nm{}: 0x189-0x1a0.7 (24)
0x180|                           17                  |         .      |                n: 23 0x189-0x189.7 (1)
0x180|                              66 33 32 78 34 2e|          f32x4.|                b: "f32x4.max_with_const_15" 0x18a-0x1a0.7 (23)
0x190|6d 61 78 5f 77 69 74 68 5f 63 6f 6e 73 74 5f 31|max_with_const_1|
0x1a0|35                                             |5               |
     |                                               |                |              d{}: 0x1a1-0x1a2.7 (2)
0x1a0|   00                                          | .              |                tag: "funcidx" (0x0) 0x1a1-0x1a1.7 (1)
0x1a0|      0f                                       |  .             |                x: 15 0x1a2-0x1a2.7 (1)
     |                                               |                |            [16]{}: ex 0x1a3-0x1bc.7 (26)
     |                                               |                |              nm{}: 0x1a3-0x1ba.7 (24)
0x1a0|         17                                    |   .            |                n: 23 0x1a3-0x1a3.7 (1)
0x1a0|            66 33 32 78 34 2e 6d 61 78 5f 77 69|    f32x4.max_wi|                b: "f32x4.max_with_const_16" 0x1a4-0x1ba.7 (23)
0x1b0|74 68 5f 63 6f 6e 73 74 5f 31 36               |th_const_16     |
     |                                               |                |              d{}: 0x1bb-0x1bc.7 (2)
0x1b0|                                 00            |           .    |                tag: "funcidx" (0x0) 0x1bb-0x1bb.7 (1)
0x1b0|                                    10         |            .   |                x: 16 0x1bc-0x1bc.7 (1)
     |                                               |                |            [17]{}: ex 0x1bd-0x1d6.7 (26)
     |                                               |                |              nm{}: 0x1bd-0x1d4.7 (24)
0x1b0|                                       17      |             .  |                n: 23 0x1bd-0x1bd.7 (1)
0x1b0|                                          66 33|              f3|                b: "f32x4.max_with_const_17" 0x1be-0x1d4.7 (23)
0x1c0|32 78 34 2e 6d 61 78 5f 77 69 74 68 5f 63 6f 6e|2x4.max_with_con|
0x1d0|73 74 5f 31 37                                 |st_17           |
     |                                               |                |              d{}: 0x1d5-0x1d6.7 (2)
0x1d0|               00                              |     .          |                tag: "funcidx" (0x0) 0x1d5-0x1d5.7 (1)
0x1d0|                  11                           |      .         |                x: 17 0x1d6-0x1d6.7 (1)
     |                                               |                |            [18]{}: ex 0x1d7-0x1f0.7 (26)
     |                                               |                |              nm{}: 0x1d7-0x1ee.7 (24)
0x1d0|                     17                        |       .        |                n: 23 0x1d7-0x1d7.7 (1)
0x1d0|                        66 33 32 78 34 2e 6d 61|        f32x4.ma|                b: "f32x4.max_with_const_18" 0x1d8-0x1ee.7 (23)
0x1e0|78 5f 77 69 74 68 5f 63 6f 6e 73 74 5f 31 38   |x_with_const_18 |
     |                                               |                |              d{}: 0x1ef-0x1f0.7 (2)
0x1e0|                                             00|               .|                tag: "funcidx" (0x0) 0x1ef-0x1ef.7 (1)
0x1f0|12                                             |.               |                x: 18 0x1f0-0x1f0.7 (1)
     |                                               |                |            [19]{}: ex 0x1f1-0x207.7 (23)
     |                                               |                |              nm{}: 0x1f1-0x205.7 (21)
0x1f0|   14                                          | .              |                n: 20 0x1f1-0x1f1.7 (1)
0x1f0|      66 33 32 78 34 2e 61 62 73 5f 77 69 74 68|  f32x4.abs_with|                b: "f32x4.abs_with_const" 0x1f2-0x205.7 (20)
0x200|5f 63 6f 6e 73 74                              |_const          |
     |                                               |                |              d{}: 0x206-0x207.7 (2)
0x200|                  00                           |      .         |                tag: "funcidx" (0x0) 0x206-0x206.7 (1)
0x200|                     13                        |       .        |                x: 19 0x207-0x207.7 (1)
     |                                               |                |    [3]{}: section 0x208-0x45f.7 (600)
0x200|                        0a                     |        .       |      id: "code section" (10) 0x208-0x208.7 (1)
0x200|                           d5 04               |         ..     |      size: 597 0x209-0x20a.7 (2)
     |                                               |                |      content{}: 0x20b-0x45f.7 (597)
     |                                               |                |        code{}: 0x20b-0x45f.7 (597)
0x200|                                 14            |           .    |          n: 20 0x20b-0x20b.7 (1)
     |                                               |                |          x[0:20]: 0x20c-0x45f.7 (596)
     |                                               |                |            [0]{}: code 0x20c-0x215.7 (10)
0x200|                                    09         |            .   |              size: 9 0x20c-0x20c.7 (1)
     |                                               |                |              code{}: 0x20d-0x215.7 (9)
     |                                               |                |                t{}: 0x20d-0x20d.7 (1)
0x200|                                       00      |             .  |                  n: 0 0x20d-0x20d.7 (1)
     |                                               |                |                  x[0:0]: 0x20e-NA (0)
     |                                               |                |                e[0:4]: 0x20e-0x215.7 (8)
     |                                               |                |                  [0]{}: in 0x20e-0x20f.7 (2)
0x200|                                          20   |                |                    local.get: 0x20 (valid) 0x20e-0x20e.7 (1)
0x200|                                             00|               .|                    x: 0 0x20f-0x20f.7 (1)
     |                                               |                |                  [1]{}: in 0x210-0x211.7 (2)
0x210|20                                             |                |                    local.get: 0x20 (valid) 0x210-0x210.7 (1)
0x210|   01                                          | .              |                    x: 1 0x211-0x211.7 (1)
     |                                               |                |                  [2]{}: in 0x212-0x214.7 (3)
0x210|      fd                                       |  .             |                    prefix: 0xfd (valid) 0x212-0x212.7 (1)
0x210|         e8 01                                 |   ..           |                    f32x4.min: 232 (valid) 0x213-0x214.7 (2)
     |                                               |                |                  [3]{}: in 0x215-0x215.7 (1)
0x210|               0b                              |     .          |                    end: 0xb (valid) 0x215-0x215.7 (1)
     |                                               |                |            [1]{}: code 0x216-0x21f.7 (10)
0x210|                  09                           |      .         |              size: 9 0x216-0x216.7 (1)
     |                                               |                |              code{}: 0x217-0x21f.7 (9)
     |                                               |                |                t{}: 0x217-0x217.7 (1)
0x210|                     00                        |       .        |                  n: 0 0x217-0x217.7 (1)
     |                                               |                |                  x[0:0]: 0x218-NA (0)
     |                                               |                |                e[0:4]: 0x218-0x21f.7 (8)
     |                                               |                |                  [0]{}: in 0x218-0x219.7 (2)
0x210|                        20                     |                |                    local.get: 0x20 (valid) 0x218-0x218.7 (1)
0x210|                           00                  |         .      |                    x: 0 0x219-0x219.7 (1)
     |                                               |                |                  [1]{}: in 0x21a-0x21b.7 (2)
0x210|                              20               |                |                    local.get: 0x20 (valid) 0x21a-0x21a.7 (1)
0x210|                                 01            |           .    |                    x: 1 0x21b-0x21b.7 (1)
     |                                               |                |                  [2]{}: in 0x21c-0x21e.7 (3)
0x210|                                    fd         |            .   |                    prefix: 0xfd (valid) 0x21c-0x21c.7 (1)
0x210|                                       e9 01   |             .. |                    f32x4.max: 233 (valid) 0x21d-0x21e.7 (2)
     |                                               |                |                  [3]{}: in 0x21f-0x21f.7 (1)
0x210|                                             0b|               .|                    end: 0xb (valid) 0x21f-0x21f.7 (1)
     |                                               |                |            [2]{}: code 0x220-0x227.7 (8)
0x220|07                                             |.               |              size: 7 0x220-0x220.7 (1)
     |                                               |                |              code{}: 0x221-0x227.7 (7)
     |                                               |                |                t{}: 0x221-0x221.7 (1)
0x220|   00                                          | .              |                  n: 0 0x221-0x221.7 (1)
     |                                               |                |                  x[0:0]: 0x222-NA (0)
     |                                               |                |                e[0:3]: 0x222-0x227.7 (6)
     |                                               |                |                  [0]{}: in 0x222-0x223.7 (2)
0x220|      20                                       |                |                    local.get: 0x20 (valid) 0x222-0x222.7 (1)
0x220|         00                                    |   .            |                    x: 0 0x223-0x223.7 (1)
     |                                               |                |                  [1]{}: in 0x224-0x226.7 (3)
0x220|            fd                                 |    .           |                    prefix: 0xfd (valid) 0x224-0x224.7 (1)
0x220|               e0 01                           |     ..         |                    f32x4.abs: 224 (valid) 0x225-0x226.7 (2)
     |                                               |                |                  [2]{}: in 0x227-0x227.7 (1)
0x220|                     0b                        |       .        |                    end: 0xb (valid) 0x227-0x227.7 (1)
     |                                               |                |            [3]{}: code 0x228-0x251.7 (42)
0x220|                        29                     |        )       |              size: 41 0x228-0x228.7 (1)
     |                                               |                |              code{}: 0x229-0x251.7 (41)
     |                                               |                |                t{}: 0x229-0x229.7 (1)
0x220|                           00                  |         .      |                  n: 0 0x229-0x229.7 (1)
     |                                               |                |                  x[0:0]: 0x22a-NA (0)
     |                                               |                |                e[0:4]: 0x22a-0x251.7 (40)
     |                                               |                |                  [0]{}: in 0x22a-0x23b.7 (18)
0x220|                              fd               |          .     |                    prefix: 0xfd (valid) 0x22a-0x22a.7 (1)
0x220|                                 0c            |           .    |                    v128.const: 12 (valid) 0x22b-0x22b.7 (1)
0x220|                                    00 00 00 00|            ....|                    bytes: raw bits 0x22c-0x23b.7 (16)
0x230|00 00 80 3f 00 00 00 40 00 00 40 c0            |...?...@..@.    |
     |                                               |                |                  [1]{}: in 0x23c-0x24d.7 (18)
0x230|                                    fd         |            .   |                    prefix: 0xfd (valid) 0x23c-0x23c.7 (1)
0x230|                                       0c      |             .  |                    v128.const: 12 (valid) 0x23d-0x23d.7 (1)
0x230|                                          00 00|              ..|                    bytes: raw bits 0x23e-0x24d.7 (16)
0x240|00 00 00 00 00 40 00 00 80 3f 00 00 40 40      |.....@...?..@@  |
     |                                               |                |                  [2]{}: in 0x24e-0x250.7 (3)
0x240|                                          fd   |              . |                    prefix: 0xfd (valid) 0x24e-0x24e.7 (1)
0x240|                                             e8|               .|                    f32x4.min: 232 (valid) 0x24f-0x250.7 (2)
0x250|01                                             |.               |
     |                                               |                |                  [3]{}: in 0x251-0x251.7 (1)
0x250|   0b                                          | .              |                    end: 0xb (valid) 0x251-0x251.7 (1)
     |                                               |                |            [4]{}: code 0x252-0x27b.7 (42)
0x250|      29                                       |  )             |              size: 41 0x252-0x252.7 (1)
     |                                               |                |              code{}: 0x253-0x27b.7 (41)
     |                                               |                |                t{}: 0x253-0x253.7 (1)
0x250|         00                                    |   .            |                  n: 0 0x253-0x253.7 (1)
     |                                               |                |                  x[0:0]: 0x254-NA (0)
     |                                               |                |                e[0:4]: 0x254-0x27b.7 (40)
     |                                               |                |                  [0]{}: in 0x254-0x265.7 (18)
0x250|            fd                                 |    .           |                    prefix: 0xfd (valid) 0x254-0x254.7 (1)
0x250|               0c                              |     .          |                    v128.const: 12 (valid) 0x255-0x255.7 (1)
0x250|                  00 00 00 00 00 00 80 3f 00 00|      .......?..|                    bytes: raw bits 0x256-0x265.7 (16)
0x260|00 40 00 00 40 40                              |.@..@@          |
     |                                               |                |                  [1]{}: in 0x266-0x277.7 (18)
0x260|                  fd                           |      .         |                    prefix: 0xfd (valid) 0x266-0x266.7 (1)
0x260|                     0c                        |       .        |                    v128.const: 12 (valid) 0x267-0x267.7 (1)
0x260|                        00 00 00 00 00 00 80 3f|        .......?|                    bytes: raw bits 0x268-0x277.7 (16)
0x270|00 00 00 40 00 00 40 40                        |...@..@@        |
     |                                               |                |                  [2]{}: in 0x278-0x27a.7 (3)
0x270|                        fd                     |        .       |                    prefix: 0xfd (valid) 0x278-0x278.7 (1)
0x270|                           e8 01               |         ..     |                    f32x4.min: 232 (valid) 0x279-0x27a.7 (2)
     |                                               |                |                  [3]{}: in 0x27b-0x27b.7 (1)
0x270|                                 0b            |           .    |                    end: 0xb (valid) 0x27b-0x27b.7 (1)
     |                                               |                |            [5]{}: code 0x27c-0x2a5.7 (42)
0x270|                                    29         |            )   |              size: 41 0x27c-0x27c.7 (1)
     |                                               |                |              code{}: 0x27d-0x2a5.7 (41)
     |                                               |                |                t{}: 0x27d-0x27d.7 (1)
0x270|                                       00      |             .  |                  n: 0 0x27d-0x27d.7 (1)
     |                                               |                |                  x[0:0]: 0x27e-NA (0)
     |                                               |                |                e[0:4]: 0x27e-0x2a5.7 (40)
     |                                               |                |                  [0]{}: in 0x27e-0x28f.7 (18)
0x270|                                          fd   |              . |                    prefix: 0xfd (valid) 0x27e-0x27e.7 (1)
0x270|                                             0c|               .|                    v128.const: 12 (valid) 0x27f-0x27f.7 (1)
0x280|00 00 00 00 00 00 80 3f 00 00 00 40 00 00 00 4f|.......?...@...O|                    bytes: raw bits 0x280-0x28f.7 (16)
     |                                               |                |                  [1]{}: in 0x290-0x2a1.7 (18)
0x290|fd                                             |.               |                    prefix: 0xfd (valid) 0x290-0x290.7 (1)
0x290|   0c                                          | .              |                    v128.const: 12 (valid) 0x291-0x291.7 (1)
0x290|      00 00 00 00 00 00 00 40 00 00 80 3f 00 00|  .......@...?..|                    bytes: raw bits 0x292-0x2a1.7 (16)
0x2a0|00 4f                                          |.O              |
     |                                               |                |                  [2]{}: in 0x2a2-0x2a4.7 (3)
0x2a0|      fd                                       |  .             |                    prefix: 0xfd (valid) 0x2a2-0x2a2.7 (1)
0x2a0|         e8 01                                 |   ..           |                    f32x4.min: 232 (valid) 0x2a3-0x2a4.7 (2)
     |                                               |                |                  [3]{}: in 0x2a5-0x2a5.7 (1)
0x2a0|               0b                              |     .          |                    end: 0xb (valid) 0x2a5-0x2a5.7 (1)
     |                                               |                |            [6]{}: code 0x2a6-0x2cf.7 (42)
0x2a0|                  29                           |      )         |              size: 41 0x2a6-0x2a6.7 (1)
     |                                               |                |              code{}: 0x2a7-0x2cf.7 (41)
     |                                               |                |                t{}: 0x2a7-0x2a7.7 (1)
0x2a0|                     00                        |       .        |                  n: 0 0x2a7-0x2a7.7 (1)
     |                                               |                |                  x[0:0]: 0x2a8-NA (0)
     |                                               |                |                e[0:4]: 0x2a8-0x2cf.7 (40)
     |                                               |                |                  [0]{}: in 0x2a8-0x2b9.7 (18)
0x2a0|                        fd                     |        .       |                    prefix: 0xfd (valid) 0x2a8-0x2a8.7 (1)
0x2a0|                           0c                  |         .      |                    v128.const: 12 (valid) 0x2a9-0x2a9.7 (1)
0x2a0|                              00 00 00 00 00 00|          ......|                    bytes: raw bits 0x2aa-0x2b9.7 (16)
0x2b0|80 3f 00 00 00 40 00 00 00 4f                  |.?...@...O      |
     |                                               |                |                  [1]{}: in 0x2ba-0x2cb.7 (18)
0x2b0|                              fd               |          .     |                    prefix: 0xfd (valid) 0x2ba-0x2ba.7 (1)
0x2b0|                                 0c            |           .    |                    v128.const: 12 (valid) 0x2bb-0x2bb.7 (1)
0x2b0|                                    00 00 00 00|            ....|                    bytes: raw bits 0x2bc-0x2cb.7 (16)
0x2c0|00 00 80 3f 00 00 00 40 00 00 00 4f            |...?...@...O    |
     |                                               |                |                  [2]{}: in 0x2cc-0x2ce.7 (3)
0x2c0|                                    fd         |            .   |                    prefix: 0xfd (valid) 0x2cc-0x2cc.7 (1)
0x2c0|                                       e8 01   |             .. |                    f32x4.min: 232 (valid) 0x2cd-0x2ce.7 (2)
     |                                               |                |                  [3]{}: in 0x2cf-0x2cf.7 (1)
0x2c0|                                             0b|               .|                    end: 0xb (valid) 0x2cf-0x2cf.7 (1)
     |                                               |                |            [7]{}: code 0x2d0-0x2e9.7 (26)
0x2d0|19                                             |.               |              size: 25 0x2d0-0x2d0.7 (1)
     |                                               |                |              code{}: 0x2d1-0x2e9.7 (25)
     |                                               |                |                t{}: 0x2d1-0x2d1.7 (1)
0x2d0|   00                                          | .              |                  n: 0 0x2d1-0x2d1.7 (1)
     |                                               |                |                  x[0:0]: 0x2d2-NA (0)
     |                                               |                |                e[0:4]: 0x2d2-0x2e9.7 (24)
     |                                               |                |                  [0]{}: in 0x2d2-0x2d3.7 (2)
0x2d0|      20                                       |                |                    local.get: 0x20 (valid) 0x2d2-0x2d2.7 (1)
0x2d0|         00                                    |   .            |                    x: 0 0x2d3-0x2d3.7 (1)
     |                                               |                |                  [1]{}: in 0x2d4-0x2e5.7 (18)
0x2d0|            fd                                 |    .           |                    prefix: 0xfd (valid) 0x2d4-0x2d4.7 (1)
0x2d0|               0c                              |     .          |                    v128.const: 12 (valid) 0x2d5-0x2d5.7 (1)
0x2d0|                  00 00 00 00 00 00 80 3f 00 00|      .......?..|                    bytes: raw bits 0x2d6-0x2e5.7 (16)
0x2e0|00 40 00 00 40 c0                              |.@..@.          |
     |                                               |                |                  [2]{}: in 0x2e6-0x2e8.7 (3)
0x2e0|                  fd                           |      .         |                    prefix: 0xfd (valid) 0x2e6-0x2e6.7 (1)
0x2e0|                     e8 01                     |       ..       |                    f32x4.min: 232 (valid) 0x2e7-0x2e8.7 (2)
     |                                               |                |                  [3]{}: in 0x2e9-0x2e9.7 (1)
0x2e0|                           0b                  |         .      |                    end: 0xb (valid) 0x2e9-0x2e9.7 (1)
     |                                               |                |            [8]{}: code 0x2ea-0x303.7 (26)
0x2e0|                              19               |          .     |              size: 25 0x2ea-0x2ea.7 (1)
     |                                               |                |              code{}: 0x2eb-0x303.7 (25)
     |                                               |                |                t{}: 0x2eb-0x2eb.7 (1)
0x2e0|                                 00            |           .    |                  n: 0 0x2eb-0x2eb.7 (1)
     |                                               |                |                  x[0:0]: 0x2ec-NA (0)
     |                                               |                |                e[0:4]: 0x2ec-0x303.7 (24)
     |                                               |                |                  [0]{}: in 0x2ec-0x2fd.7 (18)
0x2e0|                                    fd         |            .   |                    prefix: 0xfd (valid) 0x2ec-0x2ec.7 (1)
0x2e0|                                       0c      |             .  |                    v128.const: 12 (valid) 0x2ed-0x2ed.7 (1)
0x2e0|                                          00 00|              ..|                    bytes: raw bits 0x2ee-0x2fd.7 (16)
0x2f0|00 00 00 00 80 3f 00 00 00 40 00 00 40 40      |.....?...@..@@  |
     |                                               |                |                  [1]{}: in 0x2fe-0x2ff.7 (2)
0x2f0|                                          20   |                |                    local.get: 0x20 (valid) 0x2fe-0x2fe.7 (1)
0x2f0|                                             00|               .|                    x: 0 0x2ff-0x2ff.7 (1)
     |                                               |                |                  [2]{}: in 0x300-0x302.7 (3)
0x300|fd                                             |.               |                    prefix: 0xfd (valid) 0x300-0x300.7 (1)
0x300|   e8 01                                       | ..             |                    f32x4.min: 232 (valid) 0x301-0x302.7 (2)
     |                                               |                |                  [3]{}: in 0x303-0x303.7 (1)
0x300|         0b                                    |   .            |                    end: 0xb (valid) 0x303-0x303.7 (1)
     |                                               |                |            [9]{}: code 0x304-0x31d.7 (26)
0x300|            19                                 |    .           |              size: 25 0x304-0x304.7 (1)
     |                                               |                |              code{}: 0x305-0x31d.7 (25)
     |                                               |                |                t{}: 0x305-0x305.7 (1)
0x300|               00                              |     .          |                  n: 0 0x305-0x305.7 (1)
     |                                               |                |                  x[0:0]: 0x306-NA (0)
     |                                               |                |                e[0:4]: 0x306-0x31d.7 (24)
     |                                               |                |                  [0]{}: in 0x306-0x317.7 (18)
0x300|                  fd                           |      .         |                    prefix: 0xfd (valid) 0x306-0x306.7 (1)
0x300|                     0c                        |       .        |                    v128.const: 12 (valid) 0x307-0x307.7 (1)
0x300|                        00 00 00 00 00 00 80 3f|        .......?|                    bytes: raw bits 0x308-0x317.7 (16)
0x310|00 00 00 40 00 00 00 4f                        |...@...O        |
     |                                               |                |                  [1]{}: in 0x318-0x319.7 (2)
0x310|                        20                     |                |                    local.get: 0x20 (valid) 0x318-0x318.7 (1)
0x310|                           00                  |         .      |                    x: 0 0x319-0x319.7 (1)
     |                                               |                |                  [2]{}: in 0x31a-0x31c.7 (3)
0x310|                              fd               |          .     |                    prefix: 0xfd (valid) 0x31a-0x31a.7 (1)
0x310|                                 e8 01         |           ..   |                    f32x4.min: 232 (valid) 0x31b-0x31c.7 (2)
     |                                               |                |                  [3]{}: in 0x31d-0x31d.7 (1)
0x310|                                       0b      |             .  |                    end: 0xb (valid) 0x31d-0x31d.7 (1)
     |                                               |                |            [10]{}: code 0x31e-0x337.7 (26)
0x310|                                          19   |              . |              size: 25 0x31e-0x31e.7 (1)
     |                                               |                |              code{}: 0x31f-0x337.7 (25)
     |                                               |                |                t{}: 0x31f-0x31f.7 (1)
0x310|                                             00|               .|                  n: 0 0x31f-0x31f.7 (1)
     |                                               |                |                  x[0:0]: 0x320-NA (0)
     |                                               |                |                e[0:4]: 0x320-0x337.7 (24)
     |                                               |                |                  [0]{}: in 0x320-0x321.7 (2)
0x320|20                                             |                |                    local.get: 0x20 (valid) 0x320-0x320.7 (1)
0x320|   00                                          | .              |                    x: 0 0x321-0x321.7 (1)
     |                                               |                |                  [1]{}: in 0x322-0x333.7 (18)
0x320|      fd                                       |  .             |                    prefix: 0xfd (valid) 0x322-0x322.7 (1)
0x320|         0c                                    |   .            |                    v128.const: 12 (valid) 0x323-0x323.7 (1)
0x320|            00 00 00 00 00 00 80 3f 00 00 00 40|    .......?...@|                    bytes: raw bits 0x324-0x333.7 (16)
0x330|00 00 00 4f                                    |...O            |
     |                                               |                |                  [2]{}: in 0x334-0x336.7 (3)
0x330|            fd                                 |    .           |                    prefix: 0xfd (valid) 0x334-0x334.7 (1)
0x330|               e8 01                           |     ..         |                    f32x4.min: 232 (valid) 0x335-0x336.7 (2)
     |                                               |                |                  [3]{}: in 0x337-0x337.7 (1)
0x330|                     0b                        |       .        |                    end: 0xb (valid) 0x337-0x337.7 (1)
     |                                               |                |            [11]{}: code 0x338-0x361.7 (42)
0x330|                        29                     |        )       |              size: 41 0x338-0x338.7 (1)
     |                                               |                |              code{}: 0x339-0x361.7 (41)
     |                                               |                |                t{}: 0x339-0x339.7 (1)
0x330|                           00                  |         .      |                  n: 0 0x339-0x339.7 (1)
     |                                               |                |                  x[0:0]: 0x33a-NA (0)
     |                                               |                |                e[0:4]: 0x33a-0x361.7 (40)
     |                                               |                |                  [0]{}: in 0x33a-0x34b.7 (18)
0x330|                              fd               |          .     |                    prefix: 0xfd (valid) 0x33a-0x33a.7 (1)
0x330|                                 0c            |           .    |                    v128.const: 12 (valid) 0x33b-0x33b.7 (1)
0x330|                                    00 00 00 00|            ....|                    bytes: raw bits 0x33c-0x34b.7 (16)
0x340|00 00 80 3f 00 00 00 40 00 00 40 c0            |...?...@..@.    |
     |                                               |                |                  [1]{}: in 0x34c-0x35d.7 (18)
0x340|                                    fd         |            .   |                    prefix: 0xfd (valid) 0x34c-0x34c.7 (1)
0x340|                                       0c      |             .  |                    v128.const: 12 (valid) 0x34d-0x34d.7 (1)
0x340|                                          00 00|              ..|                    bytes: raw bits 0x34e-0x35d.7 (16)
0x350|00 00 00 00 00 40 00 00 80 3f 00 00 40 40      |.....@...?..@@  |
     |                                               |                |                  [2]{}: in 0x35e-0x360.7 (3)
0x350|                                          fd   |              . |                    prefix: 0xfd (valid) 0x35e-0x35e.7 (1)
0x350|                                             e9|               .|                    f32x4.max: 233 (valid) 0x35f-0x360.7 (2)
0x360|01                                             |.               |
     |                                               |                |                  [3]{}: in 0x361-0x361.7 (1)
0x360|   0b                                          | .              |                    end: 0xb (valid) 0x361-0x361.7 (1)
     |                                               |                |            [12]{}: code 0x362-0x38b.7 (42)
0x360|      29                                       |  )             |              size: 41 0x362-0x362.7 (1)
     |                                               |                |              code{}: 0x363-0x38b.7 (41)
     |                                               |                |                t{}: 0x363-0x363.7 (1)
0x360|         00                                    |   .            |                  n: 0 0x363-0x363.7 (1)
     |                                               |                |                  x[0:0]: 0x364-NA (0)
     |                                               |                |                e[0:4]: 0x364-0x38b.7 (40)
     |                                               |                |                  [0]{}: in 0x364-0x375.7 (18)
0x360|            fd                                 |    .           |                    prefix: 0xfd (valid) 0x364-0x364.7 (1)
0x360|               0c                              |     .          |                    v128.const: 12 (valid) 0x365-0x365.7 (1)
0x360|                  00 00 00 00 00 00 80 3f 00 00|      .......?..|                    bytes: raw bits 0x366-0x375.7 (16)
0x370|00 40 00 00 40 40                              |.@..@@          |
     |                                               |                |                  [1]{}: in 0x376-0x387.7 (18)
0x370|                  fd                           |      .         |                    prefix: 0xfd (valid) 0x376-0x376.7 (1)
0x370|                     0c                        |       .        |                    v128.const: 12 (valid) 0x377-0x377.7 (1)
0x370|                        00 00 00 00 00 00 80 3f|        .......?|                    bytes: raw bits 0x378-0x387.7 (16)
0x380|00 00 00 40 00 00 40 40                        |...@..@@        |
     |                                               |                |                  [2]{}: in 0x388-0x38a.7 (3)
0x380|                        fd                     |        .       |                    prefix: 0xfd (valid) 0x388-0x388.7 (1)
0x380|                           e9 01               |         ..     |                    f32x4.max: 233 (valid) 0x389-0x38a.7 (2)
     |                                               |                |                  [3]{}: in 0x38b-0x38b.7 (1)
0x380|                                 0b            |           .    |                    end: 0xb (valid) 0x38b-0x38b.7 (1)
     |                                               |                |            [13]{}: code 0x38c-0x3b5.7 (42)
0x380|                                    29         |            )   |              size: 41 0x38c-0x38c.7 (1)
     |                                               |                |              code{}: 0x38d-0x3b5.7 (41)
     |                                               |                |                t{}: 0x38d-0x38d.7 (1)
0x380|                                       00      |             .  |                  n: 0 0x38d-0x38d.7 (1)
     |                                               |                |                  x[0:0]: 0x38e-NA (0)
     |                                               |                |                e[0:4]: 0x38e-0x3b5.7 (40)
     |                                               |                |                  [0]{}: in 0x38e-0x39f.7 (18)
0x380|                                          fd   |              . |                    prefix: 0xfd (valid) 0x38e-0x38e.7 (1)
0x380|                                             0c|               .|                    v128.const: 12 (valid) 0x38f-0x38f.7 (1)
0x390|00 00 00 00 00 00 80 3f 00 00 00 40 00 00 00 4f|.......?...@...O|                    bytes: raw bits 0x390-0x39f.7 (16)
     |                                               |                |                  [1]{}: in 0x3a0-0x3b1.7 (18)
0x3a0|fd                                             |.               |                    prefix: 0xfd (valid) 0x3a0-0x3a0.7 (1)
0x3a0|   0c                                          | .              |                    v128.const: 12 (valid) 0x3a1-0x3a1.7 (1)
0x3a0|      00 00 00 00 00 00 00 40 00 00 80 3f 00 00|  .......@...?..|                    bytes: raw bits 0x3a2-0x3b1.7 (16)
0x3b0|00 4f                                          |.O              |
     |                                               |                |                  [2]{}: in 0x3b2-0x3b4.7 (3)
0x3b0|      fd                                       |  .             |                    prefix: 0xfd (valid) 0x3b2-0x3b2.7 (1)
0x3b0|         e9 01                                 |   ..           |                    f32x4.max: 233 (valid) 0x3b3-0x3b4.7 (2)
     |                                               |                |                  [3]{}: in 0x3b5-0x3b5.7 (1)
0x3b0|               0b                              |     .          |                    end: 0xb (valid) 0x3b5-0x3b5.7 (1)
     |                                               |                |            [14]{}: code 0x3b6-0x3df.7 (42)
0x3b0|                  29                           |      )         |              size: 41 0x3b6-0x3b6.7 (1)
     |                                               |                |              code{}: 0x3b7-0x3df.7 (41)
     |                                               |                |                t{}: 0x3b7-0x3b7.7 (1)
0x3b0|                     00                        |       .        |                  n: 0 0x3b7-0x3b7.7 (1)
     |                                               |                |                  x[0:0]: 0x3b8-NA (0)
     |                                               |                |                e[0:4]: 0x3b8-0x3df.7 (40)
     |                                               |                |                  [0]{}: in 0x3b8-0x3c9.7 (18)
0x3b0|                        fd                     |        .       |                    prefix: 0xfd (valid) 0x3b8-0x3b8.7 (1)
0x3b0|                           0c                  |         .      |                    v128.const: 12 (valid) 0x3b9-0x3b9.7 (1)
0x3b0|                              00 00 00 00 00 00|          ......|                    bytes: raw bits 0x3ba-0x3c9.7 (16)
0x3c0|80 3f 00 00 00 40 00 00 00 4f                  |.?...@...O      |
     |                                               |                |                  [1]{}: in 0x3ca-0x3db.7 (18)
0x3c0|                              fd               |          .     |                    prefix: 0xfd (valid) 0x3ca-0x3ca.7 (1)
0x3c0|                                 0c            |           .    |                    v128.const: 12 (valid) 0x3cb-0x3cb.7 (1)
0x3c0|                                    00 00 00 00|            ....|                    bytes: raw bits 0x3cc-0x3db.7 (16)
0x3d0|00 00 80 3f 00 00 00 40 00 00 00 4f            |...?...@...O    |
     |                                               |                |                  [2]{}: in 0x3dc-0x3de.7 (3)
0x3d0|                                    fd         |            .   |                    prefix: 0xfd (valid) 0x3dc-0x3dc.7 (1)
0x3d0|                                       e9 01   |             .. |                    f32x4.max: 233 (valid) 0x3dd-0x3de.7 (2)
     |                                               |                |                  [3]{}: in 0x3df-0x3df.7 (1)
0x3d0|                                             0b|               .|                    end: 0xb (valid) 0x3df-0x3df.7 (1)
     |                                               |                |            [15]{}: code 0x3e0-0x3f9.7 (26)
0x3e0|19                                             |.               |              size: 25 0x3e0-0x3e0.7 (1)
     |                                               |                |              code{}: 0x3e1-0x3f9.7 (25)
     |                                               |                |                t{}: 0x3e1-0x3e1.7 (1)
0x3e0|   00                                          | .              |                  n: 0 0x3e1-0x3e1.7 (1)
     |                                               |                |                  x[0:0]: 0x3e2-NA (0)
     |                                               |                |                e[0:4]: 0x3e2-0x3f9.7 (24)
     |                                               |                |                  [0]{}: in 0x3e2-0x3e3.7 (2)
0x3e0|      20                                       |                |                    local.get: 0x20 (valid) 0x3e2-0x3e2.7 (1)
0x3e0|         00                                    |   .            |                    x: 0 0x3e3-0x3e3.7 (1)
     |                                               |                |                  [1]{}: in 0x3e4-0x3f5.7 (18)
0x3e0|            fd                                 |    .           |                    prefix: 0xfd (valid) 0x3e4-0x3e4.7 (1)
0x3e0|               0c                              |     .          |                    v128.const: 12 (valid) 0x3e5-0x3e5.7 (1)
0x3e0|                  00 00 00 00 00 00 80 3f 00 00|      .......?..|                    bytes: raw bits 0x3e6-0x3f5.7 (16)
0x3f0|00 40 00 00 40 c0                              |.@..@.          |
     |                                               |                |                  [2]{}: in 0x3f6-0x3f8.7 (3)
0x3f0|                  fd                           |      .         |                    prefix: 0xfd (valid) 0x3f6-0x3f6.7 (1)
0x3f0|                     e9 01                     |       ..       |                    f32x4.max: 233 (valid) 0x3f7-0x3f8.7 (2)
     |                                               |                |                  [3]{}: in 0x3f9-0x3f9.7 (1)
0x3f0|                           0b                  |         .      |                    end: 0xb (valid) 0x3f9-0x3f9.7 (1)
     |                                               |                |            [16]{}: code 0x3fa-0x413.7 (26)
0x3f0|                              19               |          .     |              size: 25 0x3fa-0x3fa.7 (1)
     |                                               |                |              code{}: 0x3fb-0x413.7 (25)
     |                                               |                |                t{}: 0x3fb-0x3fb.7 (1)
0x3f0|                                 00            |           .    |                  n: 0 0x3fb-0x3fb.7 (1)
     |                                               |                |                  x[0:0]: 0x3fc-NA (0)
     |                                               |                |                e[0:4]: 0x3fc-0x413.7 (24)
     |                                               |                |                  [0]{}: in 0x3fc-0x40d.7 (18)
0x3f0|                                    fd         |            .   |                    prefix: 0xfd (valid) 0x3fc-0x3fc.7 (1)
0x3f0|                                       0c      |             .  |                    v128.const: 12 (valid) 0x3fd-0x3fd.7 (1)
0x3f0|                                          00 00|              ..|                    bytes: raw bits 0x3fe-0x40d.7 (16)
0x400|00 00 00 00 80 3f 00 00 00 40 00 00 40 40      |.....?...@..@@  |
     |                                               |                |                  [1]{}: in 0x40e-0x40f.7 (2)
0x400|                                          20   |                |                    local.get: 0x20 (valid) 0x40e-0x40e.7 (1)
0x400|                                             00|               .|                    x: 0 0x40f-0x40f.7 (1)
     |                                               |                |                  [2]{}: in 0x410-0x412.7 (3)
0x410|fd                                             |.               |                    prefix: 0xfd (valid) 0x410-0x410.7 (1)
0x410|   e9 01                                       | ..             |                    f32x4.max: 233 (valid) 0x411-0x412.7 (2)
     |                                               |                |                  [3]{}: in 0x413-0x413.7 (1)
0x410|         0b                                    |   .            |                    end: 0xb (valid) 0x413-0x413.7 (1)
     |                                               |                |            [17]{}: code 0x414-0x42d.7 (26)
0x410|            19                                 |    .           |              size: 25 0x414-0x414.7 (1)
     |                                               |                |              code{}: 0x415-0x42d.7 (25)
     |                                               |                |                t{}: 0x415-0x415.7 (1)
0x410|               00                              |     .          |                  n: 0 0x415-0x415.7 (1)
     |                                               |                |                  x[0:0]: 0x416-NA (0)
     |                                               |                |                e[0:4]: 0x416-0x42d.7 (24)
     |                                               |                |                  [0]{}: in 0x416-0x427.7 (18)
0x410|                  fd                           |      .         |                    prefix: 0xfd (valid) 0x416-0x416.7 (1)
0x410|                     0c                        |       .        |                    v128.const: 12 (valid) 0x417-0x417.7 (1)
0x410|                        00 00 00 00 00 00 80 3f|        .......?|                    bytes: raw bits 0x418-0x427.7 (16)
0x420|00 00 00 40 00 00 00 4f                        |...@...O        |
     |                                               |                |                  [1]{}: in 0x428-0x429.7 (2)
0x420|                        20                     |                |                    local.get: 0x20 (valid) 0x428-0x428.7 (1)
0x420|                           00                  |         .      |                    x: 0 0x429-0x429.7 (1)
     |                                               |                |                  [2]{}: in 0x42a-0x42c.7 (3)
0x420|                              fd               |          .     |                    prefix: 0xfd (valid) 0x42a-0x42a.7 (1)
0x420|                                 e9 01         |           ..   |                    f32x4.max: 233 (valid) 0x42b-0x42c.7 (2)
     |                                               |                |                  [3]{}: in 0x42d-0x42d.7 (1)
0x420|                                       0b      |             .  |                    end: 0xb (valid) 0x42d-0x42d.7 (1)
     |                                               |                |            [18]{}: code 0x42e-0x447.7 (26)
0x420|                                          19   |              . |              size: 25 0x42e-0x42e.7 (1)
     |                                               |                |              code{}: 0x42f-0x447.7 (25)
     |                                               |                |                t{}: 0x42f-0x42f.7 (1)
0x420|                                             00|               .|                  n: 0 0x42f-0x42f.7 (1)
     |                                               |                |                  x[0:0]: 0x430-NA (0)
     |                                               |                |                e[0:4]: 0x430-0x447.7 (24)
     |                                               |                |                  [0]{}: in 0x430-0x431.7 (2)
0x430|20                                             |                |                    local.get: 0x20 (valid) 0x430-0x430.7 (1)
0x430|   00                                          | .              |                    x: 0 0x431-0x431.7 (1)
     |                                               |                |                  [1]{}: in 0x432-0x443.7 (18)
0x430|      fd                                       |  .             |                    prefix: 0xfd (valid) 0x432-0x432.7 (1)
0x430|         0c                                    |   .            |                    v128.const: 12 (valid) 0x433-0x433.7 (1)
0x430|            00 00 00 00 00 00 80 3f 00 00 00 40|    .......?...@|                    bytes: raw bits 0x434-0x443.7 (16)
0x440|00 00 00 4f                                    |...O            |
     |                                               |                |                  [2]{}: in 0x444-0x446.7 (3)
0x440|            fd                                 |    .           |                    prefix: 0xfd (valid) 0x444-0x444.7 (1)
0x440|               e9 01                           |     ..         |                    f32x4.max: 233 (valid) 0x445-0x446.7 (2)
     |                                               |                |                  [3]{}: in 0x447-0x447.7 (1)
0x440|                     0b                        |       .        |                    end: 0xb (valid) 0x447-0x447.7 (1)
     |                                               |                |            [19]{}: code 0x448-0x45f.7 (24)
0x440|                        17                     |        .       |              size: 23 0x448-0x448.7 (1)
     |                                               |                |              code{}: 0x449-0x45f.7 (23)
     |                                               |                |                t{}: 0x449-0x449.7 (1)
0x440|                           00                  |         .      |                  n: 0 0x449-0x449.7 (1)
     |                                               |                |                  x[0:0]: 0x44a-NA (0)
     |                                               |                |                e[0:3]: 0x44a-0x45f.7 (22)
     |                                               |                |                  [0]{}: in 0x44a-0x45b.7 (18)
0x440|                              fd               |          .     |                    prefix: 0xfd (valid) 0x44a-0x44a.7 (1)
0x440|                                 0c            |           .    |                    v128.const: 12 (valid) 0x44b-0x44b.7 (1)
0x440|                                    00 00 00 80|            ....|                    bytes: raw bits 0x44c-0x45b.7 (16)
0x450|00 00 80 bf 00 00 00 c0 00 00 40 c0            |..........@.    |
     |                                               |                |                  [1]{}: in 0x45c-0x45e.7 (3)
0x450|                                    fd         |            .   |                    prefix: 0xfd (valid) 0x45c-0x45c.7 (1)
0x450|                                       e0 01   |             .. |                    f32x4.abs: 224 (valid) 0x45d-0x45e.7 (2)
     |                                               |                |                  [2]{}: in 0x45f-0x45f.7 (1)
0x450|                                             0b|               .|                    end: 0xb (valid) 0x45f-0x45f.7 (1)
