$ fq -d wasm dv simd_i16x8_arith2-1.wasm
     |00 01 02 03 04 05 06 07 08 09 0a 0b 0c 0d 0e 0f|0123456789abcdef|.{}: simd_i16x8_arith2-1.wasm (wasm) 0x0-0x5eb.7 (1516)
0x000|00 61 73 6d                                    |.asm            |  magic: raw bits (valid) 0x0-0x3.7 (4)
0x000|            01 00 00 00                        |    ....        |  version: 1 0x4-0x7.7 (4)
     |                                               |                |  sections[0:4]: 0x8-0x5eb.7 (1508)
     |                                               |                |    [0]{}: section 0x8-0x1c.7 (21)
0x000|                        01                     |        .       |      id: "type section" (1) 0x8-0x8.7 (1)
0x000|                           13                  |         .      |      size: 19 0x9-0x9.7 (1)
     |                                               |                |      content{}: 0xa-0x1c.7 (19)
     |                                               |                |        ft{}: 0xa-0x1c.7 (19)
0x000|                              03               |          .     |          n: 3 0xa-0xa.7 (1)
     |                                               |                |          x[0:3]: 0xb-0x1c.7 (18)
     |                                               |                |            [0]{}: ft 0xb-0x11.7 (7)
0x000|                                 60            |           `    |              tag: 0x60 (valid) 0xb-0xb.7 (1)
     |                                               |                |              rt1{}: 0xc-0xf.7 (4)
0x000|                                    03         |            .   |                n: 3 0xc-0xc.7 (1)
     |                                               |                |                x[0:3]: 0xd-0xf.7 (3)
0x000|                                       7b      |             {  |                  [0]: "v128" (0x7b) t 0xd-0xd.7 (1)
0x000|                                          7b   |              { |                  [1]: "v128" (0x7b) t 0xe-0xe.7 (1)
0x000|                                             7b|               {|                  [2]: "v128" (0x7b) t 0xf-0xf.7 (1)
     |                                               |                |              rt2{}: 0x10-0x11.7 (2)
0x010|01                                             |.               |                n: 1 0x10-0x10.7 (1)
     |                                               |                |                x[0:1]: 0x11-0x11.7 (1)
0x010|   7b                                          | {              |                  [0]: "v128" (0x7b) t 0x11-0x11.7 (1)
     |                                               |                |            [1]{}: ft 0x12-0x17.7 (6)
0x010|      60                                       |  `             |              tag: 0x60 (valid) 0x12-0x12.7 (1)
     |                                               |                |              rt1{}: 0x13-0x15.7 (3)
0x010|         02                                    |   .            |                n: 2 0x13-0x13.7 (1)
     |                                               |                |                x[0:2]: 0x14-0x15.7 (2)
0x010|            7b                                 |    {           |                  [0]: "v128" (0x7b) t 0x14-0x14.7 (1)
0x010|               7b                              |     {          |                  [1]: "v128" (0x7b) t 0x15-0x15.7 (1)
     |                                               |                |              rt2{}: 0x16-0x17.7 (2)
0x010|                  01                           |      .         |                n: 1 0x16-0x16.7 (1)
     |                                               |                |                x[0:1]: 0x17-0x17.7 (1)
0x010|                     7b                        |       {        |                  [0]: "v128" (0x7b) t 0x17-0x17.7 (1)
     |                                               |                |            [2]{}: ft 0x18-0x1c.7 (5)
0x010|                        60                     |        `       |              tag: 0x60 (valid) 0x18-0x18.7 (1)
     |                                               |                |              rt1{}: 0x19-0x1a.7 (2)
0x010|                           01                  |         .      |                n: 1 0x19-0x19.7 (1)
     |                                               |                |                x[0:1]: 0x1a-0x1a.7 (1)
0x010|                              7b               |          {     |                  [0]: "v128" (0x7b) t 0x1a-0x1a.7 (1)
     |                                               |                |              rt2{}: 0x1b-0x1c.7 (2)
0x010|                                 01            |           .    |                n: 1 0x1b-0x1b.7 (1)
     |                                               |                |                x[0:1]: 0x1c-0x1c.7 (1)
0x010|                                    7b         |            {   |                  [0]: "v128" (0x7b) t 0x1c-0x1c.7 (1)
     |                                               |                |    [1]{}: section 0x1d-0x43.7 (39)
0x010|                                       03      |             .  |      id: "function section" (3) 0x1d-0x1d.7 (1)
0x010|                                          25   |              % |      size: 37 0x1e-0x1e.7 (1)
     |                                               |                |      content{}: 0x1f-0x43.7 (37)
     |                                               |                |        x{}: 0x1f-0x43.7 (37)
0x010|                                             24|               $|          n: 36 0x1f-0x1f.7 (1)
     |                                               |                |          x[0:36]: 0x20-0x43.7 (36)
0x020|00                                             |.               |            [0]: 0 x 0x20-0x20.7 (1)
0x020|   00                                          | .              |            [1]: 0 x 0x21-0x21.7 (1)
0x020|      00                                       |  .             |            [2]: 0 x 0x22-0x22.7 (1)
0x020|         00                                    |   .            |            [3]: 0 x 0x23-0x23.7 (1)
0x020|            00                                 |    .           |            [4]: 0 x 0x24-0x24.7 (1)
0x020|               01                              |     .          |            [5]: 1 x 0x25-0x25.7 (1)
0x020|                  01                           |      .         |            [6]: 1 x 0x26-0x26.7 (1)
0x020|                     00                        |       .        |            [7]: 0 x 0x27-0x27.7 (1)
0x020|                        00                     |        .       |            [8]: 0 x 0x28-0x28.7 (1)
0x020|                           00                  |         .      |            [9]: 0 x 0x29-0x29.7 (1)
0x020|                              00               |          .     |            [10]: 0 x 0x2a-0x2a.7 (1)
0x020|                                 00            |           .    |            [11]: 0 x 0x2b-0x2b.7 (1)
0x020|                                    01         |            .   |            [12]: 1 x 0x2c-0x2c.7 (1)
0x020|                                       01      |             .  |            [13]: 1 x 0x2d-0x2d.7 (1)
0x020|                                          00   |              . |            [14]: 0 x 0x2e-0x2e.7 (1)
0x020|                                             00|               .|            [15]: 0 x 0x2f-0x2f.7 (1)
0x030|00                                             |.               |            [16]: 0 x 0x30-0x30.7 (1)
0x030|   00                                          | .              |            [17]: 0 x 0x31-0x31.7 (1)
0x030|      00                                       |  .             |            [18]: 0 x 0x32-0x32.7 (1)
0x030|         01                                    |   .            |            [19]: 1 x 0x33-0x33.7 (1)
0x030|            01                                 |    .           |            [20]: 1 x 0x34-0x34.7 (1)
0x030|               00                              |     .          |            [21]: 0 x 0x35-0x35.7 (1)
0x030|                  00                           |      .         |            [22]: 0 x 0x36-0x36.7 (1)
0x030|                     00                        |       .        |            [23]: 0 x 0x37-0x37.7 (1)
0x030|                        00                     |        .       |            [24]: 0 x 0x38-0x38.7 (1)
0x030|                           00                  |         .      |            [25]: 0 x 0x39-0x39.7 (1)
0x030|                              01               |          .     |            [26]: 1 x 0x3a-0x3a.7 (1)
0x030|                                 01            |           .    |            [27]: 1 x 0x3b-0x3b.7 (1)
0x030|                                    00         |            .   |            [28]: 0 x 0x3c-0x3c.7 (1)
0x030|                                       00      |             .  |            [29]: 0 x 0x3d-0x3d.7 (1)
0x030|                                          00   |              . |            [30]: 0 x 0x3e-0x3e.7 (1)
0x030|                                             00|               .|            [31]: 0 x 0x3f-0x3f.7 (1)
0x040|00                                             |.               |            [32]: 0 x 0x40-0x40.7 (1)
0x040|   01                                          | .              |            [33]: 1 x 0x41-0x41.7 (1)
0x040|      01                                       |  .             |            [34]: 1 x 0x42-0x42.7 (1)
0x040|         02                                    |   .            |            [35]: 2 x 0x43-0x43.7 (1)
     |                                               |                |    [2]{}: section 0x44-0x3e3.7 (928)
0x040|            07                                 |    .           |      id: "export section" (7) 0x44-0x44.7 (1)
0x040|               9d 07                           |     ..         |      size: 925 0x45-0x46.7 (2)
     |                                               |                |      content{}: 0x47-0x3e3.7 (925)
     |                                               |                |        ex{}: 0x47-0x3e3.7 (925)
0x040|                     24                        |       $        |          n: 36 0x47-0x47.7 (1)
     |                                               |                |          x[0:36]: 0x48-0x3e3.7 (924)
     |                                               |                |            [0]{}: ex 0x48-0x62.7 (27)
     |                                               |                |              nm{}: 0x48-0x60.7 (25)
0x040|                        18                     |        .       |                n: 24 0x48-0x48.7 (1)
0x040|                           69 31 36 78 38 2e 6d|         i16x8.m|                b: "i16x8.min_s-i16x8.avgr_u" 0x49-0x60.7 (24)
0x050|69 6e 5f 73 2d 69 31 36 78 38 2e 61 76 67 72 5f|in_s-i16x8.avgr_|
0x060|75                                             |u               |
     |                                               |                |              d{}: 0x61-0x62.7 (2)
0x060|   00                                          | .              |                tag: "funcidx" (0x0) 0x61-0x61.7 (1)
0x060|      00                                       |  .             |                x: 0 0x62-0x62.7 (1)
     |                                               |                |            [1]{}: ex 0x63-0x7c.7 (26)
     |                                               |                |              nm{}: 0x63-0x7a.7 (24)
0x060|         17                                    |   .            |                n: 23 0x63-0x63.7 (1)
0x060|            69 31 36 78 38 2e 6d 69 6e 5f 73 2d|    i16x8.min_s-|                b: "i16x8.min_s-i16x8.max_u" 0x64-0x7a.7 (23)
0x070|69 31 36 78 38 2e 6d 61 78 5f 75               |i16x8.max_u     |
     |                                               |                |              d{}: 0x7b-0x7c.7 (2)
0x070|                                 00            |           .    |                tag: "funcidx" (0x0) 0x7b-0x7b.7 (1)
0x070|                                    01         |            .   |                x: 1 0x7c-0x7c.7 (1)
     |                                               |                |            [2]{}: ex 0x7d-0x96.7 (26)
     |                                               |                |              nm{}: 0x7d-0x94.7 (24)
0x070|                                       17      |             .  |                n: 23 0x7d-0x7d.7 (1)
0x070|                                          69 31|              i1|                b: "i16x8.min_s-i16x8.max_s" 0x7e-0x94.7 (23)
0x080|36 78 38 2e 6d 69 6e 5f 73 2d 69 31 36 78 38 2e|6x8.min_s-i16x8.|
0x090|6d 61 78 5f 73                                 |max_s           |
     |                                               |                |              d{}: 0x95-0x96.7 (2)
0x090|               00                              |     .          |                tag: "funcidx" (0x0) 0x95-0x95.7 (1)
0x090|                  02                           |      .         |                x: 2 0x96-0x96.7 (1)
     |                                               |                |            [3]{}: ex 0x97-0xb0.7 (26)
     |                                               |                |              nm{}: 0x97-0xae.7 (24)
0x090|                     17                        |       .        |                n: 23 0x97-0x97.7 (1)
0x090|                        69 31 36 78 38 2e 6d 69|        i16x8.mi|                b: "i16x8.min_s-i16x8.min_u" 0x98-0xae.7 (23)
0x0a0|6e 5f 73 2d 69 31 36 78 38 2e 6d 69 6e 5f 75   |n_s-i16x8.min_u |
     |                                               |                |              d{}: 0xaf-0xb0.7 (2)
0x0a0|                                             00|               .|                tag: "funcidx" (0x0) 0xaf-0xaf.7 (1)
0x0b0|03                                             |.               |                x: 3 0xb0-0xb0.7 (1)
     |                                               |                |            [4]{}: ex 0xb1-0xca.7 (26)
     |                                               |                |              nm{}: 0xb1-0xc8.7 (24)
0x0b0|   17                                          | .              |                n: 23 0xb1-0xb1.7 (1)
0x0b0|      69 31 36 78 38 2e 6d 69 6e 5f 73 2d 69 31|  i16x8.min_s-i1|                b: "i16x8.min_s-i16x8.min_s" 0xb2-0xc8.7 (23)
0x0c0|36 78 38 2e 6d 69 6e 5f 73                     |6x8.min_s       |
     |                                               |                |              d{}: 0xc9-0xca.7 (2)
0x0c0|                           00                  |         .      |                tag: "funcidx" (0x0) 0xc9-0xc9.7 (1)
0x0c0|                              04               |          .     |                x: 4 0xca-0xca.7 (1)
     |                                               |                |            [5]{}: ex 0xcb-0xe2.7 (24)
     |                                               |                |              nm{}: 0xcb-0xe0.7 (22)
0x0c0|                                 15            |           .    |                n: 21 0xcb-0xcb.7 (1)
0x0c0|                                    69 31 36 78|            i16x|                b: "i16x8.min_s-i16x8.abs" 0xcc-0xe0.7 (21)
0x0d0|38 2e 6d 69 6e 5f 73 2d 69 31 36 78 38 2e 61 62|8.min_s-i16x8.ab|
0x0e0|73                                             |s               |
     |                                               |                |              d{}: 0xe1-0xe2.7 (2)
0x0e0|   00                                          | .              |                tag: "funcidx" (0x0) 0xe1-0xe1.7 (1)
0x0e0|      05                                       |  .             |                x: 5 0xe2-0xe2.7 (1)
     |                                               |                |            [6]{}: ex 0xe3-0xfa.7 (24)
     |                                               |                |              nm{}: 0xe3-0xf8.7 (22)
0x0e0|         15                                    |   .            |                n: 21 0xe3-0xe3.7 (1)
0x0e0|            69 31 36 78 38 2e 61 62 73 2d 69 31|    i16x8.abs-i1|                b: "i16x8.abs-i16x8.min_s" 0xe4-0xf8.7 (21)
0x0f0|36 78 38 2e 6d 69 6e 5f 73                     |6x8.min_s       |
     |                                               |                |              d{}: 0xf9-0xfa.7 (2)
0x0f0|                           00                  |         .      |                tag: "funcidx" (0x0) 0xf9-0xf9.7 (1)
0x0f0|                              06               |          .     |                x: 6 0xfa-0xfa.7 (1)
     |                                               |                |            [7]{}: ex 0xfb-0x115.7 (27)
     |                                               |                |              nm{}: 0xfb-0x113.7 (25)
0x0f0|                                 18            |           .    |                n: 24 0xfb-0xfb.7 (1)
0x0f0|                                    69 31 36 78|            i16x|                b: "i16x8.min_u-i16x8.avgr_u" 0xfc-0x113.7 (24)
0x100|38 2e 6d 69 6e 5f 75 2d 69 31 36 78 38 2e 61 76|8.min_u-i16x8.av|
0x110|67 72 5f 75                                    |gr_u            |
     |                                               |                |              d{}: 0x114-0x115.7 (2)
0x110|            00                                 |    .           |                tag: "funcidx" (0x0) 0x114-0x114.7 (1)
0x110|               07                              |     .          |                x: 7 0x115-0x115.7 (1)
     |                                               |                |            [8]{}: ex 0x116-0x12f.7 (26)
     |                                               |                |              nm{}: 0x116-0x12d.7 (24)
0x110|                  17                           |      .         |                n: 23 0x116-0x116.7 (1)
0x110|                     69 31 36 78 38 2e 6d 69 6e|       i16x8.min|                b: "i16x8.min_u-i16x8.max_u" 0x117-0x12d.7 (23)
0x120|5f 75 2d 69 31 36 78 38 2e 6d 61 78 5f 75      |_u-i16x8.max_u  |
     |                                               |                |              d{}: 0x12e-0x12f.7 (2)
0x120|                                          00   |              . |                tag: "funcidx" (0x0) 0x12e-0x12e.7 (1)
0x120|                                             08|               .|                x: 8 0x12f-0x12f.7 (1)
     |                                               |                |            [9]{}: ex 0x130-0x149.7 (26)
     |                                               |                |              nm{}: 0x130-0x147.7 (24)
0x130|17                                             |.               |                n: 23 0x130-0x130.7 (1)
0x130|   69 31 36 78 38 2e 6d 69 6e 5f 75 2d 69 31 36| i16x8.min_u-i16|                b: "i16x8.min_u-i16x8.max_s" 0x131-0x147.7 (23)
0x140|78 38 2e 6d 61 78 5f 73                        |x8.max_s        |
     |                                               |                |              d{}: 0x148-0x149.7 (2)
0x140|                        00                     |        .       |                tag: "funcidx" (0x0) 0x148-0x148.7 (1)
0x140|                           09                  |         .      |                x: 9 0x149-0x149.7 (1)
     |                                               |                |            [10]{}: ex 0x14a-0x163.7 (26)
     |                                               |                |              nm{}: 0x14a-0x161.7 (24)
0x140|                              17               |          .     |                n: 23 0x14a-0x14a.7 (1)
0x140|                                 69 31 36 78 38|           i16x8|                b: "i16x8.min_u-i16x8.min_u" 0x14b-0x161.7 (23)
0x150|2e 6d 69 6e 5f 75 2d 69 31 36 78 38 2e 6d 69 6e|.min_u-i16x8.min|
0x160|5f 75                                          |_u              |
     |                                               |                |              d{}: 0x162-0x163.7 (2)
0x160|      00                                       |  .             |                tag: "funcidx" (0x0) 0x162-0x162.7 (1)
0x160|         0a                                    |   .            |                x: 10 0x163-0x163.7 (1)
     |                                               |                |            [11]{}: ex 0x164-0x17d.7 (26)
     |                                               |                |              nm{}: 0x164-0x17b.7 (24)
0x160|            17                                 |    .           |                n: 23 0x164-0x164.7 (1)
0x160|               69 31 36 78 38 2e 6d 69 6e 5f 75|     i16x8.min_u|                b: "i16x8.min_u-i16x8.min_s" 0x165-0x17b.7 (23)
0x170|2d 69 31 36 78 38 2e 6d 69 6e 5f 73            |-i16x8.min_s    |
     |                                               |                |              d{}: 0x17c-0x17d.7 (2)
0x170|                                    00         |            .   |                tag: "funcidx" (0x0) 0x17c-0x17c.7 (1)
0x170|                                       0b      |             .  |                x: 11 0x17d-0x17d.7 (1)
     |                                               |                |            [12]{}: ex 0x17e-0x195.7 (24)
     |                                               |                |              nm{}: 0x17e-0x193.7 (22)
0x170|                                          15   |              . |                n: 21 0x17e-0x17e.7 (1)
0x170|                                             69|               i|                b: "i16x8.min_u-i16x8.abs" 0x17f-0x193.7 (21)
0x180|31 36 78 38 2e 6d 69 6e 5f 75 2d 69 31 36 78 38|16x8.min_u-i16x8|
0x190|2e 61 62 73                                    |.abs            |
     |                                               |                |              d{}: 0x194-0x195.7 (2)
0x190|            00                                 |    .           |                tag: "funcidx" (0x0) 0x194-0x194.7 (1)
0x190|               0c                              |     .          |                x: 12 0x195-0x195.7 (1)
     |                                               |                |            [13]{}: ex 0x196-0x1ad.7 (24)
     |                                               |                |              nm{}: 0x196-0x1ab.7 (22)
0x190|                  15                           |      .         |                n: 21 0x196-0x196.7 (1)
0x190|                     69 31 36 78 38 2e 61 62 73|       i16x8.abs|                b: "i16x8.abs-i16x8.min_u" 0x197-0x1ab.7 (21)
0x1a0|2d 69 31 36 78 38 2e 6d 69 6e 5f 75            |-i16x8.min_u    |
     |                                               |                |              d{}: 0x1ac-0x1ad.7 (2)
0x1a0|                                    00         |            .   |                tag: "funcidx" (0x0) 0x1ac-0x1ac.7 (1)
0x1a0|                                       0d      |             .  |                x: 13 0x1ad-0x1ad.7 (1)
     |                                               |                |            [14]{}: ex 0x1ae-0x1c8.7 (27)
     |                                               |                |              nm{}: 0x1ae-0x1c6.7 (25)
0x1a0|                                          18   |              . |                n: 24 0x1ae-0x1ae.7 (1)
0x1a0|                                             69|               i|                b: "i16x8.max_s-i16x8.avgr_u" 0x1af-0x1c6.7 (24)
0x1b0|31 36 78 38 2e 6d 61 78 5f 73 2d 69 31 36 78 38|16x8.max_s-i16x8|
0x1c0|2e 61 76 67 72 5f 75                           |.avgr_u         |
     |                                               |                |              d{}: 0x1c7-0x1c8.7 (2)
0x1c0|                     00                        |       .        |                tag: "funcidx" (0x0) 0x1c7-0x1c7.7 (1)
0x1c0|                        0e                     |        .       |                x: 14 0x1c8-0x1c8.7 (1)
     |                                               |                |            [15]{}: ex 0x1c9-0x1e2.7 (26)
     |                                               |                |              nm{}: 0x1c9-0x1e0.7 (24)
0x1c0|                           17                  |         .      |                n: 23 0x1c9-0x1c9.7 (1)
0x1c0|                              69 31 36 78 38 2e|          i16x8.|                b: "i16x8.max_s-i16x8.max_u" 0x1ca-0x1e0.7 (23)
0x1d0|6d 61 78 5f 73 2d 69 31 36 78 38 2e 6d 61 78 5f|max_s-i16x8.max_|
0x1e0|75                                             |u               |
     |                                               |                |              d{}: 0x1e1-0x1e2.7 (2)
0x1e0|   00                                          | .              |                tag: "funcidx" (0x0) 0x1e1-0x1e1.7 (1)
0x1e0|      0f                                       |  .             |                x: 15 0x1e2-0x1e2.7 (1)
     |                                               |                |            [16]{}: ex 0x1e3-0x1fc.7 (26)
     |                                               |                |              nm{}: 0x1e3-0x1fa.7 (24)
0x1e0|         17                                    |   .            |                n: 23 0x1e3-0x1e3.7 (1)
0x1e0|            69 31 36 78 38 2e 6d 61 78 5f 73 2d|    i16x8.max_s-|                b: "i16x8.max_s-i16x8.max_s" 0x1e4-0x1fa.7 (23)
0x1f0|69 31 36 78 38 2e 6d 61 78 5f 73               |i16x8.max_s     |
     |                                               |                |              d{}: 0x1fb-0x1fc.7 (2)
0x1f0|                                 00            |           .    |                tag: "funcidx" (0x0) 0x1fb-0x1fb.7 (1)
0x1f0|                                    10         |            .   |                x: 16 0x1fc-0x1fc.7 (1)
     |                                               |                |            [17]{}: ex 0x1fd-0x216.7 (26)
     |                                               |                |              nm{}: 0x1fd-0x214.7 (24)
0x1f0|                                       17      |             .  |                n: 23 0x1fd-0x1fd.7 (1)
0x1f0|                                          69 31|              i1|                b: "i16x8.max_s-i16x8.min_u" 0x1fe-0x214.7 (23)
0x200|36 78 38 2e 6d 61 78 5f 73 2d 69 31 36 78 38 2e|6x8.max_s-i16x8.|
0x210|6d 69 6e 5f 75                                 |min_u           |
     |                                               |                |              d{}: 0x215-0x216.7 (2)
0x210|               00                              |     .          |                tag: "funcidx" (0x0) 0x215-0x215.7 (1)
0x210|                  11                           |      .         |                x: 17 0x216-0x216.7 (1)
     |                                               |                |            [18]{}: ex 0x217-0x230.7 (26)
     |                                               |                |              nm{}: 0x217-0x22e.7 (24)
0x210|                     17                        |       .        |                n: 23 0x217-0x217.7 (1)
0x210|                        69 31 36 78 38 2e 6d 61|        i16x8.ma|                b: "i16x8.max_s-i16x8.min_s" 0x218-0x22e.7 (23)
0x220|78 5f 73 2d 69 31 36 78 38 2e 6d 69 6e 5f 73   |x_s-i16x8.min_s |
     |                                               |                |              d{}: 0x22f-0x230.7 (2)
0x220|                                             00|               .|                tag: "funcidx" (0x0) 0x22f-0x22f.7 (1)
0x230|12                                             |.               |                x: 18 0x230-0x230.7 (1)
     |                                               |                |            [19]{}: ex 0x231-0x248.7 (24)
     |                                               |                |              nm{}: 0x231-0x246.7 (22)
0x230|   15                                          | .              |                n: 21 0x231-0x231.7 (1)
0x230|      69 31 36 78 38 2e 6d 61 78 5f 73 2d 69 31|  i16x8.max_s-i1|                b: "i16x8.max_s-i16x8.abs" 0x232-0x246.7 (21)
0x240|36 78 38 2e 61 62 73                           |6x8.abs         |
     |                                               |                |              d{}: 0x247-0x248.7 (2)
0x240|                     00                        |       .        |                tag: "funcidx" (0x0) 0x247-0x247.7 (1)
0x240|                        13                     |        .       |                x: 19 0x248-0x248.7 (1)
     |                                               |                |            [20]{}: ex 0x249-0x260.7 (24)
     |                                               |                |              nm{}: 0x249-0x25e.7 (22)
0x240|                           15                  |         .      |                n: 21 0x249-0x249.7 (1)
0x240|                              69 31 36 78 38 2e|          i16x8.|                b: "i16x8.abs-i16x8.max_s" 0x24a-0x25e.7 (21)
0x250|61 62 73 2d 69 31 36 78 38 2e 6d 61 78 5f 73   |abs-i16x8.max_s |
     |                                               |                |              d{}: 0x25f-0x260.7 (2)
0x250|                                             00|               .|                tag: "funcidx" (0x0) 0x25f-0x25f.7 (1)
0x260|14                                             |.               |                x: 20 0x260-0x260.7 (1)
     |                                               |                |            [21]{}: ex 0x261-0x27b.7 (27)
     |                                               |                |              nm{}: 0x261-0x279.7 (25)
0x260|   18                                          | .              |                n: 24 0x261-0x261.7 (1)
0x260|      69 31 36 78 38 2e 6d 61 78 5f 75 2d 69 31|  i16x8.max_u-i1|                b: "i16x8.max_u-i16x8.avgr_u" 0x262-0x279.7 (24)
0x270|36 78 38 2e 61 76 67 72 5f 75                  |6x8.avgr_u      |
     |                                               |                |              d{}: 0x27a-0x27b.7 (2)
0x270|                              00               |          .     |                tag: "funcidx" (0x0) 0x27a-0x27a.7 (1)
0x270|                                 15            |           .    |                x: 21 0x27b-0x27b.7 (1)
     |                                               |                |            [22]{}: ex 0x27c-0x295.7 (26)
     |                                               |                |              nm{}: 0x27c-0x293.7 (24)
0x270|                                    17         |            .   |                n: 23 0x27c-0x27c.7 (1)
0x270|                                       69 31 36|             i16|                b: "i16x8.max_u-i16x8.max_u" 0x27d-0x293.7 (23)
0x280|78 38 2e 6d 61 78 5f 75 2d 69 31 36 78 38 2e 6d|x8.max_u-i16x8.m|
0x290|61 78 5f 75                                    |ax_u            |
     |                                               |                |              d{}: 0x294-0x295.7 (2)
0x290|            00                                 |    .           |                tag: "funcidx" (0x0) 0x294-0x294.7 (1)
0x290|               16                              |     .          |                x: 22 0x295-0x295.7 (1)
     |                                               |                |            [23]{}: ex 0x296-0x2af.7 (26)
     |                                               |                |              nm{}: 0x296-0x2ad.7 (24)
0x290|                  17                           |      .         |                n: 23 0x296-0x296.7 (1)
0x290|                     69 31 36 78 38 2e 6d 61 78|       i16x8.max|                b: "i16x8.max_u-i16x8.max_s" 0x297-0x2ad.7 (23)
0x2a0|5f 75 2d 69 31 36 78 38 2e 6d 61 78 5f 73      |_u-i16x8.max_s  |
     |                                               |                |              d{}: 0x2ae-0x2af.7 (2)
0x2a0|                                          00   |              . |                tag: "funcidx" (0x0) 0x2ae-0x2ae.7 (1)
0x2a0|                                             17|               .|                x: 23 0x2af-0x2af.7 (1)
     |                                               |                |            [24]{}: ex 0x2b0-0x2c9.7 (26)
     |                                               |                |              nm{}: 0x2b0-0x2c7.7 (24)
0x2b0|17                                             |.               |                n: 23 0x2b0-0x2b0.7 (1)
0x2b0|   69 31 36 78 38 2e 6d 61 78 5f 75 2d 69 31 36| i16x8.max_u-i16|                b: "i16x8.max_u-i16x8.min_u" 0x2b1-0x2c7.7 (23)
0x2c0|78 38 2e 6d 69 6e 5f 75                        |x8.min_u        |
     |                                               |                |              d{}: 0x2c8-0x2c9.7 (2)
0x2c0|                        00                     |        .       |                tag: "funcidx" (0x0) 0x2c8-0x2c8.7 (1)
0x2c0|                           18                  |         .      |                x: 24 0x2c9-0x2c9.7 (1)
     |                                               |                |            [25]{}: ex 0x2ca-0x2e3.7 (26)
     |                                               |                |              nm{}: 0x2ca-0x2e1.7 (24)
0x2c0|                              17               |          .     |                n: 23 0x2ca-0x2ca.7 (1)
0x2c0|                                 69 31 36 78 38|           i16x8|                b: "i16x8.max_u-i16x8.min_s" 0x2cb-0x2e1.7 (23)
0x2d0|2e 6d 61 78 5f 75 2d 69 31 36 78 38 2e 6d 69 6e|.max_u-i16x8.min|
0x2e0|5f 73                                          |_s              |
     |                                               |                |              d{}: 0x2e2-0x2e3.7 (2)
0x2e0|      00                                       |  .             |                tag: "funcidx" (0x0) 0x2e2-0x2e2.7 (1)
0x2e0|         19                                    |   .            |                x: 25 0x2e3-0x2e3.7 (1)
     |                                               |                |            [26]{}: ex 0x2e4-0x2fb.7 (24)
     |                                               |                |              nm{}: 0x2e4-0x2f9.7 (22)
0x2e0|            15                                 |    .           |                n: 21 0x2e4-0x2e4.7 (1)
0x2e0|               69 31 36 78 38 2e 6d 61 78 5f 75|     i16x8.max_u|                b: "i16x8.max_u-i16x8.abs" 0x2e5-0x2f9.7 (21)
0x2f0|2d 69 31 36 78 38 2e 61 62 73                  |-i16x8.abs      |
     |                                               |                |              d{}: 0x2fa-0x2fb.7 (2)
0x2f0|                              00               |          .     |                tag: "funcidx" (0x0) 0x2fa-0x2fa.7 (1)
0x2f0|                                 1a            |           .    |                x: 26 0x2fb-0x2fb.7 (1)
     |                                               |                |            [27]{}: ex 0x2fc-0x313.7 (24)
     |                                               |                |              nm{}: 0x2fc-0x311.7 (22)
0x2f0|                                    15         |            .   |                n: 21 0x2fc-0x2fc.7 (1)
0x2f0|                                       69 31 36|             i16|                b: "i16x8.abs-i16x8.max_u" 0x2fd-0x311.7 (21)
0x300|78 38 2e 61 62 73 2d 69 31 36 78 38 2e 6d 61 78|x8.abs-i16x8.max|
0x310|5f 75                                          |_u              |
     |                                               |                |              d{}: 0x312-0x313.7 (2)
0x310|      00                                       |  .             |                tag: "funcidx" (0x0) 0x312-0x312.7 (1)
0x310|         1b                                    |   .            |                x: 27 0x313-0x313.7 (1)
     |                                               |                |            [28]{}: ex 0x314-0x32f.7 (28)
     |                                               |                |              nm{}: 0x314-0x32d.7 (26)
0x310|            19                                 |    .           |                n: 25 0x314-0x314.7 (1)
0x310|               69 31 36 78 38 2e 61 76 67 72 5f|     i16x8.avgr_|                b: "i16x8.avgr_u-i16x8.avgr_u" 0x315-0x32d.7 (25)
0x320|75 2d 69 31 36 78 38 2e 61 76 67 72 5f 75      |u-i16x8.avgr_u  |
     |                                               |                |              d{}: 0x32e-0x32f.7 (2)
0x320|                                          00   |              . |                tag: "funcidx" (0x0) 0x32e-0x32e.7 (1)
0x320|                                             1c|               .|                x: 28 0x32f-0x32f.7 (1)
     |                                               |                |            [29]{}: ex 0x330-0x34a.7 (27)
     |                                               |                |              nm{}: 0x330-0x348.7 (25)
0x330|18                                             |.               |                n: 24 0x330-0x330.7 (1)
0x330|   69 31 36 78 38 2e 61 76 67 72 5f 75 2d 69 31| i16x8.avgr_u-i1|                b: "i16x8.avgr_u-i16x8.max_u" 0x331-0x348.7 (24)
0x340|36 78 38 2e 6d 61 78 5f 75                     |6x8.max_u       |
     |                                               |                |              d{}: 0x349-0x34a.7 (2)
0x340|                           00                  |         .      |                tag: "funcidx" (0x0) 0x349-0x349.7 (1)
0x340|                              1d               |          .     |                x: 29 0x34a-0x34a.7 (1)
     |                                               |                |            [30]{}: ex 0x34b-0x365.7 (27)
     |                                               |                |              nm{}: 0x34b-0x363.7 (25)
0x340|                                 18            |           .    |                n: 24 0x34b-0x34b.7 (1)
0x340|                                    69 31 36 78|            i16x|                b: "i16x8.avgr_u-i16x8.max_s" 0x34c-0x363.7 (24)
0x350|38 2e 61 76 67 72 5f 75 2d 69 31 36 78 38 2e 6d|8.avgr_u-i16x8.m|
0x360|61 78 5f 73                                    |ax_s            |
     |                                               |                |              d{}: 0x364-0x365.7 (2)
0x360|            00                                 |    .           |                tag: "funcidx" (0x0) 0x364-0x364.7 (1)
0x360|               1e                              |     .          |                x: 30 0x365-0x365.7 (1)
     |                                               |                |            [31]{}: ex 0x366-0x380.7 (27)
     |                                               |                |              nm{}: 0x366-0x37e.7 (25)
0x360|                  18                           |      .         |                n: 24 0x366-0x366.7 (1)
0x360|                     69 31 36 78 38 2e 61 76 67|       i16x8.avg|                b: "i16x8.avgr_u-i16x8.min_u" 0x367-0x37e.7 (24)
0x370|72 5f 75 2d 69 31 36 78 38 2e 6d 69 6e 5f 75   |r_u-i16x8.min_u |
     |                                               |                |              d{}: 0x37f-0x380.7 (2)
0x370|                                             00|               .|                tag: "funcidx" (0x0) 0x37f-0x37f.7 (1)
0x380|1f                                             |.               |                x: 31 0x380-0x380.7 (1)
     |                                               |                |            [32]{}: ex 0x381-0x39b.7 (27)
     |                                               |                |              nm{}: 0x381-0x399.7 (25)
0x380|   18                                          | .              |                n: 24 0x381-0x381.7 (1)
0x380|      69 31 36 78 38 2e 61 76 67 72 5f 75 2d 69|  i16x8.avgr_u-i|                b: "i16x8.avgr_u-i16x8.min_s" 0x382-0x399.7 (24)
0x390|31 36 78 38 2e 6d 69 6e 5f 73                  |16x8.min_s      |
     |                                               |                |              d{}: 0x39a-0x39b.7 (2)
0x390|                              00               |          .     |                tag: "funcidx" (0x0) 0x39a-0x39a.7 (1)
0x390|                                 20            |                |                x: 32 0x39b-0x39b.7 (1)
     |                                               |                |            [33]{}: ex 0x39c-0x3b4.7 (25)
     |                                               |                |              nm{}: 0x39c-0x3b2.7 (23)
0x390|                                    16         |            .   |                n: 22 0x39c-0x39c.7 (1)
0x390|                                       69 31 36|             i16|                b: "i16x8.avgr_u-i16x8.abs" 0x39d-0x3b2.7 (22)
0x3a0|78 38 2e 61 76 67 72 5f 75 2d 69 31 36 78 38 2e|x8.avgr_u-i16x8.|
0x3b0|61 62 73                                       |abs             |
     |                                               |                |              d{}: 0x3b3-0x3b4.7 (2)
0x3b0|         00                                    |   .            |                tag: "funcidx" (0x0) 0x3b3-0x3b3.7 (1)
0x3b0|            21                                 |    !           |                x: 33 0x3b4-0x3b4.7 (1)
     |                                               |                |            [34]{}: ex 0x3b5-0x3cd.7 (25)
     |                                               |                |              nm{}: 0x3b5-0x3cb.7 (23)
0x3b0|               16                              |     .          |                n: 22 0x3b5-0x3b5.7 (1)
0x3b0|                  69 31 36 78 38 2e 61 62 73 2d|      i16x8.abs-|                b: "i16x8.abs-i16x8.avgr_u" 0x3b6-0x3cb.7 (22)
0x3c0|69 31 36 78 38 2e 61 76 67 72 5f 75            |i16x8.avgr_u    |
     |                                               |                |              d{}: 0x3cc-0x3cd.7 (2)
0x3c0|                                    00         |            .   |                tag: "funcidx" (0x0) 0x3cc-0x3cc.7 (1)
0x3c0|                                       22      |             "  |                x: 34 0x3cd-0x3cd.7 (1)
     |                                               |                |            [35]{}: ex 0x3ce-0x3e3.7 (22)
     |                                               |                |              nm{}: 0x3ce-0x3e1.7 (20)
0x3c0|                                          13   |              . |                n: 19 0x3ce-0x3ce.7 (1)
0x3c0|                                             69|               i|                b: "i16x8.abs-i16x8.abs" 0x3cf-0x3e1.7 (19)
0x3d0|31 36 78 38 2e 61 62 73 2d 69 31 36 78 38 2e 61|16x8.abs-i16x8.a|
0x3e0|62 73                                          |bs              |
     |                                               |                |              d{}: 0x3e2-0x3e3.7 (2)
0x3e0|      00                                       |  .             |                tag: "funcidx" (0x0) 0x3e2-0x3e2.7 (1)
0x3e0|         23                                    |   #            |                x: 35 0x3e3-0x3e3.7 (1)
     |                                               |                |    [3]{}: section 0x3e4-0x5eb.7 (520)
0x3e0|            0a                                 |    .           |      id: "code section" (10) 0x3e4-0x3e4.7 (1)
0x3e0|               85 04                           |     ..         |      size: 517 0x3e5-0x3e6.7 (2)
     |                                               |                |      content{}: 0x3e7-0x5eb.7 (517)
     |                                               |                |        code{}: 0x3e7-0x5eb.7 (517)
0x3e0|                     24                        |       $        |          n: 36 0x3e7-0x3e7.7 (1)
     |                                               |                |          x[0:36]: 0x3e8-0x5eb.7 (516)
     |                                               |                |            [0]{}: code 0x3e8-0x3f6.7 (15)
0x3e0|                        0e                     |        .       |              size: 14 0x3e8-0x3e8.7 (1)
     |                                               |                |              code{}: 0x3e9-0x3f6.7 (14)
     |                                               |                |                t{}: 0x3e9-0x3e9.7 (1)
0x3e0|                           00                  |         .      |                  n: 0 0x3e9-0x3e9.7 (1)
     |                                               |                |                  x[0:0]: 0x3ea-NA (0)
     |                                               |                |                e[0:6]: 0x3ea-0x3f6.7 (13)
     |                                               |                |                  [0]{}: in 0x3ea-0x3eb.7 (2)
0x3e0|                              20               |                |                    local.get: 0x20 (valid) 0x3ea-0x3ea.7 (1)
0x3e0|                                 00            |           .    |                    x: 0 0x3eb-0x3eb.7 (1)
     |                                               |                |                  [1]{}: in 0x3ec-0x3ed.7 (2)
0x3e0|                                    20         |                |                    local.get: 0x20 (valid) 0x3ec-0x3ec.7 (1)
0x3e0|                                       01      |             .  |                    x: 1 0x3ed-0x3ed.7 (1)
     |                                               |                |                  [2]{}: in 0x3ee-0x3f0.7 (3)
0x3e0|                                          fd   |              . |                    prefix: 0xfd (valid) 0x3ee-0x3ee.7 (1)
0x3e0|                                             9b|               .|                    i16x8.avgr_u: 155 (valid) 0x3ef-0x3f0.7 (2)
0x3f0|01                                             |.               |
     |                                               |                |                  [3]{}: in 0x3f1-0x3f2.7 (2)
0x3f0|   20                                          |                |                    local.get: 0x20 (valid) 0x3f1-0x3f1.7 (1)
0x3f0|      02                                       |  .             |                    x: 2 0x3f2-0x3f2.7 (1)
     |                                               |                |                  [4]{}: in 0x3f3-0x3f5.7 (3)
0x3f0|         fd                                    |   .            |                    prefix: 0xfd (valid) 0x3f3-0x3f3.7 (1)
0x3f0|            96 01                              |    ..          |                    i16x8.min_s: 150 (valid) 0x3f4-0x3f5.7 (2)
     |                                               |                |                  [5]{}: in 0x3f6-0x3f6.7 (1)
0x3f0|                  0b                           |      .         |                    end: 0xb (valid) 0x3f6-0x3f6.7 (1)
     |                                               |                |            [1]{}: code 0x3f7-0x405.7 (15)
0x3f0|                     0e                        |       .        |              size: 14 0x3f7-0x3f7.7 (1)
     |                                               |                |              code{}: 0x3f8-0x405.7 (14)
     |                                               |                |                t{}: 0x3f8-0x3f8.7 (1)
0x3f0|                        00                     |        .       |                  n: 0 0x3f8-0x3f8.7 (1)
     |                                               |                |                  x[0:0]: 0x3f9-NA (0)
     |                                               |                |                e[0:6]: 0x3f9-0x405.7 (13)
     |                                               |                |                  [0]{}: in 0x3f9-0x3fa.7 (2)
0x3f0|                           20                  |                |                    local.get: 0x20 (valid) 0x3f9-0x3f9.7 (1)
0x3f0|                              00               |          .     |                    x: 0 0x3fa-0x3fa.7 (1)
     |                                               |                |                  [1]{}: in 0x3fb-0x3fc.7 (2)
0x3f0|                                 20            |                |                    local.get: 0x20 (valid) 0x3fb-0x3fb.7 (1)
0x3f0|                                    01         |            .   |                    x: 1 0x3fc-0x3fc.7 (1)
     |                                               |                |                  [2]{}: in 0x3fd-0x3ff.7 (3)
0x3f0|                                       fd      |             .  |                    prefix: 0xfd (valid) 0x3fd-0x3fd.7 (1)
0x3f0|                                          99 01|              ..|                    i16x8.max_u: 153 (valid) 0x3fe-0x3ff.7 (2)
     |                                               |                |                  [3]{}: in 0x400-0x401.7 (2)
0x400|20                                             |                |                    local.get: 0x20 (valid) 0x400-0x400.7 (1)
0x400|   02                                          | .              |                    x: 2 0x401-0x401.7 (1)
     |                                               |                |                  [4]{}: in 0x402-0x404.7 (3)
0x400|      fd                                       |  .             |                    prefix: 0xfd (valid) 0x402-0x402.7 (1)
0x400|         96 01                                 |   ..           |                    i16x8.min_s: 150 (valid) 0x403-0x404.7 (2)
     |                                               |                |                  [5]{}: in 0x405-0x405.7 (1)
0x400|               0b                              |     .          |                    end: 0xb (valid) 0x405-0x405.7 (1)
     |                                               |                |            [2]{}: code 0x406-0x414.7 (15)
0x400|                  0e                           |      .         |              size: 14 0x406-0x406.7 (1)
     |                                               |                |              code{}: 0x407-0x414.7 (14)
     |                                               |                |                t{}: 0x407-0x407.7 (1)
0x400|                     00                        |       .        |                  n: 0 0x407-0x407.7 (1)
     |                                               |                |                  x[0:0]: 0x408-NA (0)
     |                                               |                |                e[0:6]: 0x408-0x414.7 (13)
     |                                               |                |                  [0]{}: in 0x408-0x409.7 (2)
0x400|                        20                     |                |                    local.get: 0x20 (valid) 0x408-0x408.7 (1)
0x400|                           00                  |         .      |                    x: 0 0x409-0x409.7 (1)
     |                                               |                |                  [1]{}: in 0x40a-0x40b.7 (2)
0x400|                              20               |                |                    local.get: 0x20 (valid) 0x40a-0x40a.7 (1)
0x400|                                 01            |           .    |                    x: 1 0x40b-0x40b.7 (1)
     |                                               |                |                  [2]{}: in 0x40c-0x40e.7 (3)
0x400|                                    fd         |            .   |                    prefix: 0xfd (valid) 0x40c-0x40c.7 (1)
0x400|                                       98 01   |             .. |                    i16x8.max_s: 152 (valid) 0x40d-0x40e.7 (2)
     |                                               |                |                  [3]{}: in 0x40f-0x410.7 (2)
0x400|                                             20|                |                    local.get: 0x20 (valid) 0x40f-0x40f.7 (1)
0x410|02                                             |.               |                    x: 2 0x410-0x410.7 (1)
     |                                               |                |                  [4]{}: in 0x411-0x413.7 (3)
0x410|   fd                                          | .              |                    prefix: 0xfd (valid) 0x411-0x411.7 (1)
0x410|      96 01                                    |  ..            |                    i16x8.min_s: 150 (valid) 0x412-0x413.7 (2)
     |                                               |                |                  [5]{}: in 0x414-0x414.7 (1)
0x410|            0b                                 |    .           |                    end: 0xb (valid) 0x414-0x414.7 (1)
     |                                               |                |            [3]{}: code 0x415-0x423.7 (15)
0x410|               0e                              |     .          |              size: 14 0x415-0x415.7 (1)
     |                                               |                |              code{}: 0x416-0x423.7 (14)
     |                                               |                |                t{}: 0x416-0x416.7 (1)
0x410|                  00                           |      .         |                  n: 0 0x416-0x416.7 (1)
     |                                               |                |                  x[0:0]: 0x417-NA (0)
     |                                               |                |                e[0:6]: 0x417-0x423.7 (13)
     |                                               |                |                  [0]{}: in 0x417-0x418.7 (2)
0x410|                     20                        |                |                    local.get: 0x20 (valid) 0x417-0x417.7 (1)
0x410|                        00                     |        .       |                    x: 0 0x418-0x418.7 (1)
     |                                               |                |                  [1]{}: in 0x419-0x41a.7 (2)
0x410|                           20                  |                |                    local.get: 0x20 (valid) 0x419-0x419.7 (1)
0x410|                              01               |          .     |                    x: 1 0x41a-0x41a.7 (1)
     |                                               |                |                  [2]{}: in 0x41b-0x41d.7 (3)
0x410|                                 fd            |           .    |                    prefix: 0xfd (valid) 0x41b-0x41b.7 (1)
0x410|                                    97 01      |            ..  |                    i16x8.min_u: 151 (valid) 0x41c-0x41d.7 (2)
     |                                               |                |                  [3]{}: in 0x41e-0x41f.7 (2)
0x410|                                          20   |                |                    local.get: 0x20 (valid) 0x41e-0x41e.7 (1)
0x410|                                             02|               .|                    x: 2 0x41f-0x41f.7 (1)
     |                                               |                |                  [4]{}: in 0x420-0x422.7 (3)
0x420|fd                                             |.               |                    prefix: 0xfd (valid) 0x420-0x420.7 (1)
0x420|   96 01                                       | ..             |                    i16x8.min_s: 150 (valid) 0x421-0x422.7 (2)
     |                                               |                |                  [5]{}: in 0x423-0x423.7 (1)
0x420|         0b                                    |   .            |                    end: 0xb (valid) 0x423-0x423.7 (1)
     |                                               |                |            [4]{}: code 0x424-0x432.7 (15)
0x420|            0e                                 |    .           |              size: 14 0x424-0x424.7 (1)
     |                                               |                |              code{}: 0x425-0x432.7 (14)
     |                                               |                |                t{}: 0x425-0x425.7 (1)
0x420|               00                              |     .          |                  n: 0 0x425-0x425.7 (1)
     |                                               |                |                  x[0:0]: 0x426-NA (0)
     |                                               |                |                e[0:6]: 0x426-0x432.7 (13)
     |                                               |                |                  [0]{}: in 0x426-0x427.7 (2)
0x420|                  20                           |                |                    local.get: 0x20 (valid) 0x426-0x426.7 (1)
0x420|                     00                        |       .        |                    x: 0 0x427-0x427.7 (1)
     |                                               |                |                  [1]{}: in 0x428-0x429.7 (2)
0x420|                        20                     |                |                    local.get: 0x20 (valid) 0x428-0x428.7 (1)
0x420|                           01                  |         .      |                    x: 1 0x429-0x429.7 (1)
     |                                               |                |                  [2]{}: in 0x42a-0x42c.7 (3)
0x420|                              fd               |          .     |                    prefix: 0xfd (valid) 0x42a-0x42a.7 (1)
0x420|                                 96 01         |           ..   |                    i16x8.min_s: 150 (valid) 0x42b-0x42c.7 (2)
     |                                               |                |                  [3]{}: in 0x42d-0x42e.7 (2)
0x420|                                       20      |                |                    local.get: 0x20 (valid) 0x42d-0x42d.7 (1)
0x420|                                          02   |              . |                    x: 2 0x42e-0x42e.7 (1)
     |                                               |                |                  [4]{}: in 0x42f-0x431.7 (3)
0x420|                                             fd|               .|                    prefix: 0xfd (valid) 0x42f-0x42f.7 (1)
0x430|96 01                                          |..              |                    i16x8.min_s: 150 (valid) 0x430-0x431.7 (2)
     |                                               |                |                  [5]{}: in 0x432-0x432.7 (1)
0x430|      0b                                       |  .             |                    end: 0xb (valid) 0x432-0x432.7 (1)
     |                                               |                |            [5]{}: code 0x433-0x43f.7 (13)
0x430|         0c                                    |   .            |              size: 12 0x433-0x433.7 (1)
     |                                               |                |              code{}: 0x434-0x43f.7 (12)
     |                                               |                |                t{}: 0x434-0x434.7 (1)
0x430|            00                                 |    .           |                  n: 0 0x434-0x434.7 (1)
     |                                               |                |                  x[0:0]: 0x435-NA (0)
     |                                               |                |                e[0:5]: 0x435-0x43f.7 (11)
     |                                               |                |                  [0]{}: in 0x435-0x436.7 (2)
0x430|               20                              |                |                    local.get: 0x20 (valid) 0x435-0x435.7 (1)
0x430|                  00                           |      .         |                    x: 0 0x436-0x436.7 (1)
     |                                               |                |                  [1]{}: in 0x437-0x439.7 (3)
0x430|                     fd                        |       .        |                    prefix: 0xfd (valid) 0x437-0x437.7 (1)
0x430|                        80 01                  |        ..      |                    i16x8.abs: 128 (valid) 0x438-0x439.7 (2)
     |                                               |                |                  [2]{}: in 0x43a-0x43b.7 (2)
0x430|                              20               |                |                    local.get: 0x20 (valid) 0x43a-0x43a.7 (1)
0x430|                                 01            |           .    |                    x: 1 0x43b-0x43b.7 (1)
     |                                               |                |                  [3]{}: in 0x43c-0x43e.7 (3)
0x430|                                    fd         |            .   |                    prefix: 0xfd (valid) 0x43c-0x43c.7 (1)
0x430|                                       96 01   |             .. |                    i16x8.min_s: 150 (valid) 0x43d-0x43e.7 (2)
     |                                               |                |                  [4]{}: in 0x43f-0x43f.7 (1)
0x430|                                             0b|               .|                    end: 0xb (valid) 0x43f-0x43f.7 (1)
     |                                               |                |            [6]{}: code 0x440-0x44c.7 (13)
0x440|0c                                             |.               |              size: 12 0x440-0x440.7 (1)
     |                                               |                |              code{}: 0x441-0x44c.7 (12)
     |                                               |                |                t{}: 0x441-0x441.7 (1)
0x440|   00                                          | .              |                  n: 0 0x441-0x441.7 (1)
     |                                               |                |                  x[0:0]: 0x442-NA (0)
     |                                               |                |                e[0:5]: 0x442-0x44c.7 (11)
     |                                               |                |                  [0]{}: in 0x442-0x443.7 (2)
0x440|      20                                       |                |                    local.get: 0x20 (valid) 0x442-0x442.7 (1)
0x440|         00                                    |   .            |                    x: 0 0x443-0x443.7 (1)
     |                                               |                |                  [1]{}: in 0x444-0x445.7 (2)
0x440|            20                                 |                |                    local.get: 0x20 (valid) 0x444-0x444.7 (1)
0x440|               01                              |     .          |                    x: 1 0x445-0x445.7 (1)
     |                                               |                |                  [2]{}: in 0x446-0x448.7 (3)
0x440|                  fd                           |      .         |                    prefix: 0xfd (valid) 0x446-0x446.7 (1)
0x440|                     96 01                     |       ..       |                    i16x8.min_s: 150 (valid) 0x447-0x448.7 (2)
     |                                               |                |                  [3]{}: in 0x449-0x44b.7 (3)
0x440|                           fd                  |         .      |                    prefix: 0xfd (valid) 0x449-0x449.7 (1)
0x440|                              80 01            |          ..    |                    i16x8.abs: 128 (valid) 0x44a-0x44b.7 (2)
     |                                               |                |                  [4]{}: in 0x44c-0x44c.7 (1)
0x440|                                    0b         |            .   |                    end: 0xb (valid) 0x44c-0x44c.7 (1)
     |                                               |                |            [7]{}: code 0x44d-0x45b.7 (15)
0x440|                                       0e      |             .  |              size: 14 0x44d-0x44d.7 (1)
     |                                               |                |              code{}: 0x44e-0x45b.7 (14)
     |                                               |                |                t{}: 0x44e-0x44e.7 (1)
0x440|                                          00   |              . |                  n: 0 0x44e-0x44e.7 (1)
     |                                               |                |                  x[0:0]: 0x44f-NA (0)
     |                                               |                |                e[0:6]: 0x44f-0x45b.7 (13)
     |                                               |                |                  [0]{}: in 0x44f-0x450.7 (2)
0x440|                                             20|                |                    local.get: 0x20 (valid) 0x44f-0x44f.7 (1)
0x450|00                                             |.               |                    x: 0 0x450-0x450.7 (1)
     |                                               |                |                  [1]{}: in 0x451-0x452.7 (2)
0x450|   20                                          |                |                    local.get: 0x20 (valid) 0x451-0x451.7 (1)
0x450|      01                                       |  .             |                    x: 1 0x452-0x452.7 (1)
     |                                               |                |                  [2]{}: in 0x453-0x455.7 (3)
0x450|         fd                                    |   .            |                    prefix: 0xfd (valid) 0x453-0x453.7 (1)
0x450|            9b 01                              |    ..          |                    i16x8.avgr_u: 155 (valid) 0x454-0x455.7 (2)
     |                                               |                |                  [3]{}: in 0x456-0x457.7 (2)
0x450|                  20                           |                |                    local.get: 0x20 (valid) 0x456-0x456.7 (1)
0x450|                     02                        |       .        |                    x: 2 0x457-0x457.7 (1)
     |                                               |                |                  [4]{}: in 0x458-0x45a.7 (3)
0x450|                        fd                     |        .       |                    prefix: 0xfd (valid) 0x458-0x458.7 (1)
0x450|                           97 01               |         ..     |                    i16x8.min_u: 151 (valid) 0x459-0x45a.7 (2)
     |                                               |                |                  [5]{}: in 0x45b-0x45b.7 (1)
0x450|                                 0b            |           .    |                    end: 0xb (valid) 0x45b-0x45b.7 (1)
     |                                               |                |            [8]{}: code 0x45c-0x46a.7 (15)
0x450|                                    0e         |            .   |              size: 14 0x45c-0x45c.7 (1)
     |                                               |                |              code{}: 0x45d-0x46a.7 (14)
     |                                               |                |                t{}: 0x45d-0x45d.7 (1)
0x450|                                       00      |             .  |                  n: 0 0x45d-0x45d.7 (1)
     |                                               |                |                  x[0:0]: 0x45e-NA (0)
     |                                               |                |                e[0:6]: 0x45e-0x46a.7 (13)
     |                                               |                |                  [0]{}: in 0x45e-0x45f.7 (2)
0x450|                                          20   |                |                    local.get: 0x20 (valid) 0x45e-0x45e.7 (1)
0x450|                                             00|               .|                    x: 0 0x45f-0x45f.7 (1)
     |                                               |                |                  [1]{}: in 0x460-0x461.7 (2)
0x460|20                                             |                |                    local.get: 0x20 (valid) 0x460-0x460.7 (1)
0x460|   01                                          | .              |                    x: 1 0x461-0x461.7 (1)
     |                                               |                |                  [2]{}: in 0x462-0x464.7 (3)
0x460|      fd                                       |  .             |                    prefix: 0xfd (valid) 0x462-0x462.7 (1)
0x460|         99 01                                 |   ..           |                    i16x8.max_u: 153 (valid) 0x463-0x464.7 (2)
     |                                               |                |                  [3]{}: in 0x465-0x466.7 (2)
0x460|               20                              |                |                    local.get: 0x20 (valid) 0x465-0x465.7 (1)
0x460|                  02                           |      .         |                    x: 2 0x466-0x466.7 (1)
     |                                               |                |                  [4]{}: in 0x467-0x469.7 (3)
0x460|                     fd                        |       .        |                    prefix: 0xfd (valid) 0x467-0x467.7 (1)
0x460|                        97 01                  |        ..      |                    i16x8.min_u: 151 (valid) 0x468-0x469.7 (2)
     |                                               |                |                  [5]{}: in 0x46a-0x46a.7 (1)
0x460|                              0b               |          .     |                    end: 0xb (valid) 0x46a-0x46a.7 (1)
     |                                               |                |            [9]{}: code 0x46b-0x479.7 (15)
0x460|                                 0e            |           .    |              size: 14 0x46b-0x46b.7 (1)
     |                                               |                |              code{}: 0x46c-0x479.7 (14)
     |                                               |                |                t{}: 0x46c-0x46c.7 (1)
0x460|                                    00         |            .   |                  n: 0 0x46c-0x46c.7 (1)
     |                                               |                |                  x[0:0]: 0x46d-NA (0)
     |                                               |                |                e[0:6]: 0x46d-0x479.7 (13)
     |                                               |                |                  [0]{}: in 0x46d-0x46e.7 (2)
0x460|                                       20      |                |                    local.get: 0x20 (valid) 0x46d-0x46d.7 (1)
0x460|                                          00   |              . |                    x: 0 0x46e-0x46e.7 (1)
     |                                               |                |                  [1]{}: in 0x46f-0x470.7 (2)
0x460|                                             20|                |                    local.get: 0x20 (valid) 0x46f-0x46f.7 (1)
0x470|01                                             |.               |                    x: 1 0x470-0x470.7 (1)
     |                                               |                |                  [2]{}: in 0x471-0x473.7 (3)
0x470|   fd                                          | .              |                    prefix: 0xfd (valid) 0x471-0x471.7 (1)
0x470|      98 01                                    |  ..            |                    i16x8.max_s: 152 (valid) 0x472-0x473.7 (2)
     |                                               |                |                  [3]{}: in 0x474-0x475.7 (2)
0x470|            20                                 |                |                    local.get: 0x20 (valid) 0x474-0x474.7 (1)
0x470|               02                              |     .          |                    x: 2 0x475-0x475.7 (1)
     |                                               |                |                  [4]{}: in 0x476-0x478.7 (3)
0x470|                  fd                           |      .         |                    prefix: 0xfd (valid) 0x476-0x476.7 (1)
0x470|                     97 01                     |       ..       |                    i16x8.min_u: 151 (valid) 0x477-0x478.7 (2)
     |                                               |                |                  [5]{}: in 0x479-0x479.7 (1)
0x470|                           0b                  |         .      |                    end: 0xb (valid) 0x479-0x479.7 (1)
     |                                               |                |            [10]{}: code 0x47a-0x488.7 (15)
0x470|                              0e               |          .     |              size: 14 0x47a-0x47a.7 (1)
     |                                               |                |              code{}: 0x47b-0x488.7 (14)
     |                                               |                |                t{}: 0x47b-0x47b.7 (1)
0x470|                                 00            |           .    |                  n: 0 0x47b-0x47b.7 (1)
     |                                               |                |                  x[0:0]: 0x47c-NA (0)
     |                                               |                |                e[0:6]: 0x47c-0x488.7 (13)
     |                                               |                |                  [0]{}: in 0x47c-0x47d.7 (2)
0x470|                                    20         |                |                    local.get: 0x20 (valid) 0x47c-0x47c.7 (1)
0x470|                                       00      |             .  |                    x: 0 0x47d-0x47d.7 (1)
     |                                               |                |                  [1]{}: in 0x47e-0x47f.7 (2)
0x470|                                          20   |                |                    local.get: 0x20 (valid) 0x47e-0x47e.7 (1)
0x470|                                             01|               .|                    x: 1 0x47f-0x47f.7 (1)
     |                                               |                |                  [2]{}: in 0x480-0x482.7 (3)
0x480|fd                                             |.               |                    prefix: 0xfd (valid) 0x480-0x480.7 (1)
0x480|   97 01                                       | ..             |                    i16x8.min_u: 151 (valid) 0x481-0x482.7 (2)
     |                                               |                |                  [3]{}: in 0x483-0x484.7 (2)
0x480|         20                                    |                |                    local.get: 0x20 (valid) 0x483-0x483.7 (1)
0x480|            02                                 |    .           |                    x: 2 0x484-0x484.7 (1)
     |                                               |                |                  [4]{}: in 0x485-0x487.7 (3)
0x480|               fd                              |     .          |                    prefix: 0xfd (valid) 0x485-0x485.7 (1)
0x480|                  97 01                        |      ..        |                    i16x8.min_u: 151 (valid) 0x486-0x487.7 (2)
     |                                               |                |                  [5]{}: in 0x488-0x488.7 (1)
0x480|                        0b                     |        .       |                    end: 0xb (valid) 0x488-0x488.7 (1)
     |                                               |                |            [11]{}: code 0x489-0x497.7 (15)
0x480|                           0e                  |         .      |              size: 14 0x489-0x489.7 (1)
     |                                               |                |              code{}: 0x48a-0x497.7 (14)
     |                                               |                |                t{}: 0x48a-0x48a.7 (1)
0x480|                              00               |          .     |                  n: 0 0x48a-0x48a.7 (1)
     |                                               |                |                  x[0:0]: 0x48b-NA (0)
     |                                               |                |                e[0:6]: 0x48b-0x497.7 (13)
     |                                               |                |                  [0]{}: in 0x48b-0x48c.7 (2)
0x480|                                 20            |                |                    local.get: 0x20 (valid) 0x48b-0x48b.7 (1)
0x480|                                    00         |            .   |                    x: 0 0x48c-0x48c.7 (1)
     |                                               |                |                  [1]{}: in 0x48d-0x48e.7 (2)
0x480|                                       20      |                |                    local.get: 0x20 (valid) 0x48d-0x48d.7 (1)
0x480|                                          01   |              . |                    x: 1 0x48e-0x48e.7 (1)
     |                                               |                |                  [2]{}: in 0x48f-0x491.7 (3)
0x480|                                             fd|               .|                    prefix: 0xfd (valid) 0x48f-0x48f.7 (1)
0x490|96 01                                          |..              |                    i16x8.min_s: 150 (valid) 0x490-0x491.7 (2)
     |                                               |                |                  [3]{}: in 0x492-0x493.7 (2)
0x490|      20                                       |                |                    local.get: 0x20 (valid) 0x492-0x492.7 (1)
0x490|         02                                    |   .            |                    x: 2 0x493-0x493.7 (1)
     |                                               |                |                  [4]{}: in 0x494-0x496.7 (3)
0x490|            fd                                 |    .           |                    prefix: 0xfd (valid) 0x494-0x494.7 (1)
0x490|               97 01                           |     ..         |                    i16x8.min_u: 151 (valid) 0x495-0x496.7 (2)
     |                                               |                |                  [5]{}: in 0x497-0x497.7 (1)
0x490|                     0b                        |       .        |                    end: 0xb (valid) 0x497-0x497.7 (1)
     |                                               |                |            [12]{}: code 0x498-0x4a4.7 (13)
0x490|                        0c                     |        .       |              size: 12 0x498-0x498.7 (1)
     |                                               |                |              code{}: 0x499-0x4a4.7 (12)
     |                                               |                |                t{}: 0x499-0x499.7 (1)
0x490|                           00                  |         .      |                  n: 0 0x499-0x499.7 (1)
     |                                               |                |                  x[0:0]: 0x49a-NA (0)
     |                                               |                |                e[0:5]: 0x49a-0x4a4.7 (11)
     |                                               |                |                  [0]{}: in 0x49a-0x49b.7 (2)
0x490|                              20               |                |                    local.get: 0x20 (valid) 0x49a-0x49a.7 (1)
0x490|                                 00            |           .    |                    x: 0 0x49b-0x49b.7 (1)
     |                                               |                |                  [1]{}: in 0x49c-0x49e.7 (3)
0x490|                                    fd         |            .   |                    prefix: 0xfd (valid) 0x49c-0x49c.7 (1)
0x490|                                       80 01   |             .. |                    i16x8.abs: 128 (valid) 0x49d-0x49e.7 (2)
     |                                               |                |                  [2]{}: in 0x49f-0x4a0.7 (2)
0x490|                                             20|                |                    local.get: 0x20 (valid) 0x49f-0x49f.7 (1)
0x4a0|01                                             |.               |                    x: 1 0x4a0-0x4a0.7 (1)
     |                                               |                |                  [3]{}: in 0x4a1-0x4a3.7 (3)
0x4a0|   fd                                          | .              |                    prefix: 0xfd (valid) 0x4a1-0x4a1.7 (1)
0x4a0|      97 01                                    |  ..            |                    i16x8.min_u: 151 (valid) 0x4a2-0x4a3.7 (2)
     |                                               |                |                  [4]{}: in 0x4a4-0x4a4.7 (1)
0x4a0|            0b                                 |    .           |                    end: 0xb (valid) 0x4a4-0x4a4.7 (1)
     |                                               |                |            [13]{}: code 0x4a5-0x4b1.7 (13)
0x4a0|               0c                              |     .          |              size: 12 0x4a5-0x4a5.7 (1)
     |                                               |                |              code{}: 0x4a6-0x4b1.7 (12)
     |                                               |                |                t{}: 0x4a6-0x4a6.7 (1)
0x4a0|                  00                           |      .         |                  n: 0 0x4a6-0x4a6.7 (1)
     |                                               |                |                  x[0:0]: 0x4a7-NA (0)
     |                                               |                |                e[0:5]: 0x4a7-0x4b1.7 (11)
     |                                               |                |                  [0]{}: in 0x4a7-0x4a8.7 (2)
0x4a0|                     20                        |                |                    local.get: 0x20 (valid) 0x4a7-0x4a7.7 (1)
0x4a0|                        00                     |        .       |                    x: 0 0x4a8-0x4a8.7 (1)
     |                                               |                |                  [1]{}: in 0x4a9-0x4aa.7 (2)
0x4a0|                           20                  |                |                    local.get: 0x20 (valid) 0x4a9-0x4a9.7 (1)
0x4a0|                              01               |          .     |                    x: 1 0x4aa-0x4aa.7 (1)
     |                                               |                |                  [2]{}: in 0x4ab-0x4ad.7 (3)
0x4a0|                                 fd            |           .    |                    prefix: 0xfd (valid) 0x4ab-0x4ab.7 (1)
0x4a0|                                    97 01      |            ..  |                    i16x8.min_u: 151 (valid) 0x4ac-0x4ad.7 (2)
     |                                               |                |                  [3]{}: in 0x4ae-0x4b0.7 (3)
0x4a0|                                          fd   |              . |                    prefix: 0xfd (valid) 0x4ae-0x4ae.7 (1)
0x4a0|                                             80|               .|                    i16x8.abs: 128 (valid) 0x4af-0x4b0.7 (2)
0x4b0|01                                             |.               |
     |                                               |                |                  [4]{}: in 0x4b1-0x4b1.7 (1)
0x4b0|   0b                                          | .              |                    end: 0xb (valid) 0x4b1-0x4b1.7 (1)
     |                                               |                |            [14]{}: code 0x4b2-0x4c0.7 (15)
0x4b0|      0e                                       |  .             |              size: 14 0x4b2-0x4b2.7 (1)
     |                                               |                |              code{}: 0x4b3-0x4c0.7 (14)
     |                                               |                |                t{}: 0x4b3-0x4b3.7 (1)
0x4b0|         00                                    |   .            |                  n: 0 0x4b3-0x4b3.7 (1)
     |                                               |                |                  x[0:0]: 0x4b4-NA (0)
     |                                               |                |                e[0:6]: 0x4b4-0x4c0.7 (13)
     |                                               |                |                  [0]{}: in 0x4b4-0x4b5.7 (2)
0x4b0|            20                                 |                |                    local.get: 0x20 (valid) 0x4b4-0x4b4.7 (1)
0x4b0|               00                              |     .          |                    x: 0 0x4b5-0x4b5.7 (1)
     |                                               |                |                  [1]{}: in 0x4b6-0x4b7.7 (2)
0x4b0|                  20                           |                |                    local.get: 0x20 (valid) 0x4b6-0x4b6.7 (1)
0x4b0|                     01                        |       .        |                    x: 1 0x4b7-0x4b7.7 (1)
     |                                               |                |                  [2]{}: in 0x4b8-0x4ba.7 (3)
0x4b0|                        fd                     |        .       |                    prefix: 0xfd (valid) 0x4b8-0x4b8.7 (1)
0x4b0|                           9b 01               |         ..     |                    i16x8.avgr_u: 155 (valid) 0x4b9-0x4ba.7 (2)
     |                                               |                |                  [3]{}: in 0x4bb-0x4bc.7 (2)
0x4b0|                                 20            |                |                    local.get: 0x20 (valid) 0x4bb-0x4bb.7 (1)
0x4b0|                                    02         |            .   |                    x: 2 0x4bc-0x4bc.7 (1)
     |                                               |                |                  [4]{}: in 0x4bd-0x4bf.7 (3)
0x4b0|                                       fd      |             .  |                    prefix: 0xfd (valid) 0x4bd-0x4bd.7 (1)
0x4b0|                                          98 01|              ..|                    i16x8.max_s: 152 (valid) 0x4be-0x4bf.7 (2)
     |                                               |                |                  [5]{}: in 0x4c0-0x4c0.7 (1)
0x4c0|0b                                             |.               |                    end: 0xb (valid) 0x4c0-0x4c0.7 (1)
     |                                               |                |            [15]{}: code 0x4c1-0x4cf.7 (15)
0x4c0|   0e                                          | .              |              size: 14 0x4c1-0x4c1.7 (1)
     |                                               |                |              code{}: 0x4c2-0x4cf.7 (14)
     |                                               |                |                t{}: 0x4c2-0x4c2.7 (1)
0x4c0|      00                                       |  .             |                  n: 0 0x4c2-0x4c2.7 (1)
     |                                               |                |                  x[0:0]: 0x4c3-NA (0)
     |                                               |                |                e[0:6]: 0x4c3-0x4cf.7 (13)
     |                                               |                |                  [0]{}: in 0x4c3-0x4c4.7 (2)
0x4c0|         20                                    |                |                    local.get: 0x20 (valid) 0x4c3-0x4c3.7 (1)
0x4c0|            00                                 |    .           |                    x: 0 0x4c4-0x4c4.7 (1)
     |                                               |                |                  [1]{}: in 0x4c5-0x4c6.7 (2)
0x4c0|               20                              |                |                    local.get: 0x20 (valid) 0x4c5-0x4c5.7 (1)
0x4c0|                  01                           |      .         |                    x: 1 0x4c6-0x4c6.7 (1)
     |                                               |                |                  [2]{}: in 0x4c7-0x4c9.7 (3)
0x4c0|                     fd                        |       .        |                    prefix: 0xfd (valid) 0x4c7-0x4c7.7 (1)
0x4c0|                        99 01                  |        ..      |                    i16x8.max_u: 153 (valid) 0x4c8-0x4c9.7 (2)
     |                                               |                |                  [3]{}: in 0x4ca-0x4cb.7 (2)
0x4c0|                              20               |                |                    local.get: 0x20 (valid) 0x4ca-0x4ca.7 (1)
0x4c0|                                 02            |           .    |                    x: 2 0x4cb-0x4cb.7 (1)
     |                                               |                |                  [4]{}: in 0x4cc-0x4ce.7 (3)
0x4c0|                                    fd         |            .   |                    prefix: 0xfd (valid) 0x4cc-0x4cc.7 (1)
0x4c0|                                       98 01   |             .. |                    i16x8.max_s: 152 (valid) 0x4cd-0x4ce.7 (2)
     |                                               |                |                  [5]{}: in 0x4cf-0x4cf.7 (1)
0x4c0|                                             0b|               .|                    end: 0xb (valid) 0x4cf-0x4cf.7 (1)
     |                                               |                |            [16]{}: code 0x4d0-0x4de.7 (15)
0x4d0|0e                                             |.               |              size: 14 0x4d0-0x4d0.7 (1)
     |                                               |                |              code{}: 0x4d1-0x4de.7 (14)
     |                                               |                |                t{}: 0x4d1-0x4d1.7 (1)
0x4d0|   00                                          | .              |                  n: 0 0x4d1-0x4d1.7 (1)
     |                                               |                |                  x[0:0]: 0x4d2-NA (0)
     |                                               |                |                e[0:6]: 0x4d2-0x4de.7 (13)
     |                                               |                |                  [0]{}: in 0x4d2-0x4d3.7 (2)
0x4d0|      20                                       |                |                    local.get: 0x20 (valid) 0x4d2-0x4d2.7 (1)
0x4d0|         00                                    |   .            |                    x: 0 0x4d3-0x4d3.7 (1)
     |                                               |                |                  [1]{}: in 0x4d4-0x4d5.7 (2)
0x4d0|            20                                 |                |                    local.get: 0x20 (valid) 0x4d4-0x4d4.7 (1)
0x4d0|               01                              |     .          |                    x: 1 0x4d5-0x4d5.7 (1)
     |                                               |                |                  [2]{}: in 0x4d6-0x4d8.7 (3)
0x4d0|                  fd                           |      .         |                    prefix: 0xfd (valid) 0x4d6-0x4d6.7 (1)
0x4d0|                     98 01                     |       ..       |                    i16x8.max_s: 152 (valid) 0x4d7-0x4d8.7 (2)
     |                                               |                |                  [3]{}: in 0x4d9-0x4da.7 (2)
0x4d0|                           20                  |                |                    local.get: 0x20 (valid) 0x4d9-0x4d9.7 (1)
0x4d0|                              02               |          .     |                    x: 2 0x4da-0x4da.7 (1)
     |                                               |                |                  [4]{}: in 0x4db-0x4dd.7 (3)
0x4d0|                                 fd            |           .    |                    prefix: 0xfd (valid) 0x4db-0x4db.7 (1)
0x4d0|                                    98 01      |            ..  |                    i16x8.max_s: 152 (valid) 0x4dc-0x4dd.7 (2)
     |                                               |                |                  [5]{}: in 0x4de-0x4de.7 (1)
0x4d0|                                          0b   |              . |                    end: 0xb (valid) 0x4de-0x4de.7 (1)
     |                                               |                |            [17]{}: code 0x4df-0x4ed.7 (15)
0x4d0|                                             0e|               .|              size: 14 0x4df-0x4df.7 (1)
     |                                               |                |              code{}: 0x4e0-0x4ed.7 (14)
     |                                               |                |                t{}: 0x4e0-0x4e0.7 (1)
0x4e0|00                                             |.               |                  n: 0 0x4e0-0x4e0.7 (1)
     |                                               |                |                  x[0:0]: 0x4e1-NA (0)
     |                                               |                |                e[0:6]: 0x4e1-0x4ed.7 (13)
     |                                               |                |                  [0]{}: in 0x4e1-0x4e2.7 (2)
0x4e0|   20                                          |                |                    local.get: 0x20 (valid) 0x4e1-0x4e1.7 (1)
0x4e0|      00                                       |  .             |                    x: 0 0x4e2-0x4e2.7 (1)
     |                                               |                |                  [1]{}: in 0x4e3-0x4e4.7 (2)
0x4e0|         20                                    |                |                    local.get: 0x20 (valid) 0x4e3-0x4e3.7 (1)
0x4e0|            01                                 |    .           |                    x: 1 0x4e4-0x4e4.7 (1)
     |                                               |                |                  [2]{}: in 0x4e5-0x4e7.7 (3)
0x4e0|               fd                              |     .          |                    prefix: 0xfd (valid) 0x4e5-0x4e5.7 (1)
0x4e0|                  97 01                        |      ..        |                    i16x8.min_u: 151 (valid) 0x4e6-0x4e7.7 (2)
     |                                               |                |                  [3]{}: in 0x4e8-0x4e9.7 (2)
0x4e0|                        20                     |                |                    local.get: 0x20 (valid) 0x4e8-0x4e8.7 (1)
0x4e0|                           02                  |         .      |                    x: 2 0x4e9-0x4e9.7 (1)
     |                                               |                |                  [4]{}: in 0x4ea-0x4ec.7 (3)
0x4e0|                              fd               |          .     |                    prefix: 0xfd (valid) 0x4ea-0x4ea.7 (1)
0x4e0|                                 98 01         |           ..   |                    i16x8.max_s: 152 (valid) 0x4eb-0x4ec.7 (2)
     |                                               |                |                  [5]{}: in 0x4ed-0x4ed.7 (1)
0x4e0|                                       0b      |             .  |                    end: 0xb (valid) 0x4ed-0x4ed.7 (1)
     |                                               |                |            [18]{}: code 0x4ee-0x4fc.7 (15)
0x4e0|                                          0e   |              . |              size: 14 0x4ee-0x4ee.7 (1)
     |                                               |                |              code{}: 0x4ef-0x4fc.7 (14)
     |                                               |                |                t{}: 0x4ef-0x4ef.7 (1)
0x4e0|                                             00|               .|                  n: 0 0x4ef-0x4ef.7 (1)
     |                                               |                |                  x[0:0]: 0x4f0-NA (0)
     |                                               |                |                e[0:6]: 0x4f0-0x4fc.7 (13)
     |                                               |                |                  [0]{}: in 0x4f0-0x4f1.7 (2)
0x4f0|20                                             |                |                    local.get: 0x20 (valid) 0x4f0-0x4f0.7 (1)
0x4f0|   00                                          | .              |                    x: 0 0x4f1-0x4f1.7 (1)
     |                                               |                |                  [1]{}: in 0x4f2-0x4f3.7 (2)
0x4f0|      20                                       |                |                    local.get: 0x20 (valid) 0x4f2-0x4f2.7 (1)
0x4f0|         01                                    |   .            |                    x: 1 0x4f3-0x4f3.7 (1)
     |                                               |                |                  [2]{}: in 0x4f4-0x4f6.7 (3)
0x4f0|            fd                                 |    .           |                    prefix: 0xfd (valid) 0x4f4-0x4f4.7 (1)
0x4f0|               96 01                           |     ..         |                    i16x8.min_s: 150 (valid) 0x4f5-0x4f6.7 (2)
     |                                               |                |                  [3]{}: in 0x4f7-0x4f8.7 (2)
0x4f0|                     20                        |                |                    local.get: 0x20 (valid) 0x4f7-0x4f7.7 (1)
0x4f0|                        02                     |        .       |                    x: 2 0x4f8-0x4f8.7 (1)
     |                                               |                |                  [4]{}: in 0x4f9-0x4fb.7 (3)
0x4f0|                           fd                  |         .      |                    prefix: 0xfd (valid) 0x4f9-0x4f9.7 (1)
0x4f0|                              98 01            |          ..    |                    i16x8.max_s: 152 (valid) 0x4fa-0x4fb.7 (2)
     |                                               |                |                  [5]{}: in 0x4fc-0x4fc.7 (1)
0x4f0|                                    0b         |            .   |                    end: 0xb (valid) 0x4fc-0x4fc.7 (1)
     |                                               |                |            [19]{}: code 0x4fd-0x509.7 (13)
0x4f0|                                       0c      |             .  |              size: 12 0x4fd-0x4fd.7 (1)
     |                                               |                |              code{}: 0x4fe-0x509.7 (12)
     |                                               |                |                t{}: 0x4fe-0x4fe.7 (1)
0x4f0|                                          00   |              . |                  n: 0 0x4fe-0x4fe.7 (1)
     |                                               |                |                  x[0:0]: 0x4ff-NA (0)
     |                                               |                |                e[0:5]: 0x4ff-0x509.7 (11)
     |                                               |                |                  [0]{}: in 0x4ff-0x500.7 (2)
0x4f0|                                             20|                |                    local.get: 0x20 (valid) 0x4ff-0x4ff.7 (1)
0x500|00                                             |.               |                    x: 0 0x500-0x500.7 (1)
     |                                               |                |                  [1]{}: in 0x501-0x503.7 (3)
0x500|   fd                                          | .              |                    prefix: 0xfd (valid) 0x501-0x501.7 (1)
0x500|      80 01                                    |  ..            |                    i16x8.abs: 128 (valid) 0x502-0x503.7 (2)
     |                                               |                |                  [2]{}: in 0x504-0x505.7 (2)
0x500|            20                                 |                |                    local.get: 0x20 (valid) 0x504-0x504.7 (1)
0x500|               01                              |     .          |                    x: 1 0x505-0x505.7 (1)
     |                                               |                |                  [3]{}: in 0x506-0x508.7 (3)
0x500|                  fd                           |      .         |                    prefix: 0xfd (valid) 0x506-0x506.7 (1)
0x500|                     98 01                     |       ..       |                    i16x8.max_s: 152 (valid) 0x507-0x508.7 (2)
     |                                               |                |                  [4]{}: in 0x509-0x509.7 (1)
0x500|                           0b                  |         .      |                    end: 0xb (valid) 0x509-0x509.7 (1)
     |                                               |                |            [20]{}: code 0x50a-0x516.7 (13)
0x500|                              0c               |          .     |              size: 12 0x50a-0x50a.7 (1)
     |                                               |                |              code{}: 0x50b-0x516.7 (12)
     |                                               |                |                t{}: 0x50b-0x50b.7 (1)
0x500|                                 00            |           .    |                  n: 0 0x50b-0x50b.7 (1)
     |                                               |                |                  x[0:0]: 0x50c-NA (0)
     |                                               |                |                e[0:5]: 0x50c-0x516.7 (11)
     |                                               |                |                  [0]{}: in 0x50c-0x50d.7 (2)
0x500|                                    20         |                |                    local.get: 0x20 (valid) 0x50c-0x50c.7 (1)
0x500|                                       00      |             .  |                    x: 0 0x50d-0x50d.7 (1)
     |                                               |                |                  [1]{}: in 0x50e-0x50f.7 (2)
0x500|                                          20   |                |                    local.get: 0x20 (valid) 0x50e-0x50e.7 (1)
0x500|                                             01|               .|                    x: 1 0x50f-0x50f.7 (1)
     |                                               |                |                  [2]{}: in 0x510-0x512.7 (3)
0x510|fd                                             |.               |                    prefix: 0xfd (valid) 0x510-0x510.7 (1)
0x510|   98 01                                       | ..             |                    i16x8.max_s: 152 (valid) 0x511-0x512.7 (2)
     |                                               |                |                  [3]{}: in 0x513-0x515.7 (3)
0x510|         fd                                    |   .            |                    prefix: 0xfd (valid) 0x513-0x513.7 (1)
0x510|            80 01                              |    ..          |                    i16x8.abs: 128 (valid) 0x514-0x515.7 (2)
     |                                               |                |                  [4]{}: in 0x516-0x516.7 (1)
0x510|                  0b                           |      .         |                    end: 0xb (valid) 0x516-0x516.7 (1)
     |                                               |                |            [21]{}: code 0x517-0x525.7 (15)
0x510|                     0e                        |       .        |              size: 14 0x517-0x517.7 (1)
     |                                               |                |              code{}: 0x518-0x525.7 (14)
     |                                               |                |                t{}: 0x518-0x518.7 (1)
0x510|                        00                     |        .       |                  n: 0 0x518-0x518.7 (1)
     |                                               |                |                  x[0:0]: 0x519-NA (0)
     |                                               |                |                e[0:6]: 0x519-0x525.7 (13)
     |                                               |                |                  [0]{}: in 0x519-0x51a.7 (2)
0x510|                           20                  |                |                    local.get: 0x20 (valid) 0x519-0x519.7 (1)
0x510|                              00               |          .     |                    x: 0 0x51a-0x51a.7 (1)
     |                                               |                |                  [1]{}: in 0x51b-0x51c.7 (2)
0x510|                                 20            |                |                    local.get: 0x20 (valid) 0x51b-0x51b.7 (1)
0x510|                                    01         |            .   |                    x: 1 0x51c-0x51c.7 (1)
     |                                               |                |                  [2]{}: in 0x51d-0x51f.7 (3)
0x510|                                       fd      |             .  |                    prefix: 0xfd (valid) 0x51d-0x51d.7 (1)
0x510|                                          9b 01|              ..|                    i16x8.avgr_u: 155 (valid) 0x51e-0x51f.7 (2)
     |                                               |                |                  [3]{}: in 0x520-0x521.7 (2)
0x520|20                                             |                |                    local.get: 0x20 (valid) 0x520-0x520.7 (1)
0x520|   02                                          | .              |                    x: 2 0x521-0x521.7 (1)
     |                                               |                |                  [4]{}: in 0x522-0x524.7 (3)
0x520|      fd                                       |  .             |                    prefix: 0xfd (valid) 0x522-0x522.7 (1)
0x520|         99 01                                 |   ..           |                    i16x8.max_u: 153 (valid) 0x523-0x524.7 (2)
     |                                               |                |                  [5]{}: in 0x525-0x525.7 (1)
0x520|               0b                              |     .          |                    end: 0xb (valid) 0x525-0x525.7 (1)
     |                                               |                |            [22]{}: code 0x526-0x534.7 (15)
0x520|                  0e                           |      .         |              size: 14 0x526-0x526.7 (1)
     |                                               |                |              code{}: 0x527-0x534.7 (14)
     |                                               |                |                t{}: 0x527-0x527.7 (1)
0x520|                     00                        |       .        |                  n: 0 0x527-0x527.7 (1)
     |                                               |                |                  x[0:0]: 0x528-NA (0)
     |                                               |                |                e[0:6]: 0x528-0x534.7 (13)
     |                                               |                |                  [0]{}: in 0x528-0x529.7 (2)
0x520|                        20                     |                |                    local.get: 0x20 (valid) 0x528-0x528.7 (1)
0x520|                           00                  |         .      |                    x: 0 0x529-0x529.7 (1)
     |                                               |                |                  [1]{}: in 0x52a-0x52b.7 (2)
0x520|                              20               |                |                    local.get: 0x20 (valid) 0x52a-0x52a.7 (1)
0x520|                                 01            |           .    |                    x: 1 0x52b-0x52b.7 (1)
     |                                               |                |                  [2]{}: in 0x52c-0x52e.7 (3)
0x520|                                    fd         |            .   |                    prefix: 0xfd (valid) 0x52c-0x52c.7 (1)
0x520|                                       99 01   |             .. |                    i16x8.max_u: 153 (valid) 0x52d-0x52e.7 (2)
     |                                               |                |                  [3]{}: in 0x52f-0x530.7 (2)
0x520|                                             20|                |                    local.get: 0x20 (valid) 0x52f-0x52f.7 (1)
0x530|02                                             |.               |                    x: 2 0x530-0x530.7 (1)
     |                                               |                |                  [4]{}: in 0x531-0x533.7 (3)
0x530|   fd                                          | .              |                    prefix: 0xfd (valid) 0x531-0x531.7 (1)
0x530|      99 01                                    |  ..            |                    i16x8.max_u: 153 (valid) 0x532-0x533.7 (2)
     |                                               |                |                  [5]{}: in 0x534-0x534.7 (1)
0x530|            0b                                 |    .           |                    end: 0xb (valid) 0x534-0x534.7 (1)
     |                                               |                |            [23]{}: code 0x535-0x543.7 (15)
0x530|               0e                              |     .          |              size: 14 0x535-0x535.7 (1)
     |                                               |                |              code{}: 0x536-0x543.7 (14)
     |                                               |                |                t{}: 0x536-0x536.7 (1)
0x530|                  00                           |      .         |                  n: 0 0x536-0x536.7 (1)
     |                                               |                |                  x[0:0]: 0x537-NA (0)
     |                                               |                |                e[0:6]: 0x537-0x543.7 (13)
     |                                               |                |                  [0]{}: in 0x537-0x538.7 (2)
0x530|                     20                        |                |                    local.get: 0x20 (valid) 0x537-0x537.7 (1)
0x530|                        00                     |        .       |                    x: 0 0x538-0x538.7 (1)
     |                                               |                |                  [1]{}: in 0x539-0x53a.7 (2)
0x530|                           20                  |                |                    local.get: 0x20 (valid) 0x539-0x539.7 (1)
0x530|                              01               |          .     |                    x: 1 0x53a-0x53a.7 (1)
     |                                               |                |                  [2]{}: in 0x53b-0x53d.7 (3)
0x530|                                 fd            |           .    |                    prefix: 0xfd (valid) 0x53b-0x53b.7 (1)
0x530|                                    98 01      |            ..  |                    i16x8.max_s: 152 (valid) 0x53c-0x53d.7 (2)
     |                                               |                |                  [3]{}: in 0x53e-0x53f.7 (2)
0x530|                                          20   |                |                    local.get: 0x20 (valid) 0x53e-0x53e.7 (1)
0x530|                                             02|               .|                    x: 2 0x53f-0x53f.7 (1)
     |                                               |                |                  [4]{}: in 0x540-0x542.7 (3)
0x540|fd                                             |.               |                    prefix: 0xfd (valid) 0x540-0x540.7 (1)
0x540|   99 01                                       | ..             |                    i16x8.max_u: 153 (valid) 0x541-0x542.7 (2)
     |                                               |                |                  [5]{}: in 0x543-0x543.7 (1)
0x540|         0b                                    |   .            |                    end: 0xb (valid) 0x543-0x543.7 (1)
     |                                               |                |            [24]{}: code 0x544-0x552.7 (15)
0x540|            0e                                 |    .           |              size: 14 0x544-0x544.7 (1)
     |                                               |                |              code{}: 0x545-0x552.7 (14)
     |                                               |                |                t{}: 0x545-0x545.7 (1)
0x540|               00                              |     .          |                  n: 0 0x545-0x545.7 (1)
     |                                               |                |                  x[0:0]: 0x546-NA (0)
     |                                               |                |                e[0:6]: 0x546-0x552.7 (13)
     |                                               |                |                  [0]{}: in 0x546-0x547.7 (2)
0x540|                  20                           |                |                    local.get: 0x20 (valid) 0x546-0x546.7 (1)
0x540|                     00                        |       .        |                    x: 0 0x547-0x547.7 (1)
     |                                               |                |                  [1]{}: in 0x548-0x549.7 (2)
0x540|                        20                     |                |                    local.get: 0x20 (valid) 0x548-0x548.7 (1)
0x540|                           01                  |         .      |                    x: 1 0x549-0x549.7 (1)
     |                                               |                |                  [2]{}: in 0x54a-0x54c.7 (3)
0x540|                              fd               |          .     |                    prefix: 0xfd (valid) 0x54a-0x54a.7 (1)
0x540|                                 97 01         |           ..   |                    i16x8.min_u: 151 (valid) 0x54b-0x54c.7 (2)
     |                                               |                |                  [3]{}: in 0x54d-0x54e.7 (2)
0x540|                                       20      |                |                    local.get: 0x20 (valid) 0x54d-0x54d.7 (1)
0x540|                                          02   |              . |                    x: 2 0x54e-0x54e.7 (1)
     |                                               |                |                  [4]{}: in 0x54f-0x551.7 (3)
0x540|                                             fd|               .|                    prefix: 0xfd (valid) 0x54f-0x54f.7 (1)
0x550|99 01                                          |..              |                    i16x8.max_u: 153 (valid) 0x550-0x551.7 (2)
     |                                               |                |                  [5]{}: in 0x552-0x552.7 (1)
0x550|      0b                                       |  .             |                    end: 0xb (valid) 0x552-0x552.7 (1)
     |                                               |                |            [25]{}: code 0x553-0x561.7 (15)
0x550|         0e                                    |   .            |              size: 14 0x553-0x553.7 (1)
     |                                               |                |              code{}: 0x554-0x561.7 (14)
     |                                               |                |                t{}: 0x554-0x554.7 (1)
0x550|            00                                 |    .           |                  n: 0 0x554-0x554.7 (1)
     |                                               |                |                  x[0:0]: 0x555-NA (0)
     |                                               |                |                e[0:6]: 0x555-0x561.7 (13)
     |                                               |                |                  [0]{}: in 0x555-0x556.7 (2)
0x550|               20                              |                |                    local.get: 0x20 (valid) 0x555-0x555.7 (1)
0x550|                  00                           |      .         |                    x: 0 0x556-0x556.7 (1)
     |                                               |                |                  [1]{}: in 0x557-0x558.7 (2)
0x550|                     20                        |                |                    local.get: 0x20 (valid) 0x557-0x557.7 (1)
0x550|                        01                     |        .       |                    x: 1 0x558-0x558.7 (1)
     |                                               |                |                  [2]{}: in 0x559-0x55b.7 (3)
0x550|                           fd                  |         .      |                    prefix: 0xfd (valid) 0x559-0x559.7 (1)
0x550|                              96 01            |          ..    |                    i16x8.min_s: 150 (valid) 0x55a-0x55b.7 (2)
     |                                               |                |                  [3]{}: in 0x55c-0x55d.7 (2)
0x550|                                    20         |                |                    local.get: 0x20 (valid) 0x55c-0x55c.7 (1)
0x550|                                       02      |             .  |                    x: 2 0x55d-0x55d.7 (1)
     |                                               |                |                  [4]{}: in 0x55e-0x560.7 (3)
0x550|                                          fd   |              . |                    prefix: 0xfd (valid) 0x55e-0x55e.7 (1)
0x550|                                             99|               .|                    i16x8.max_u: 153 (valid) 0x55f-0x560.7 (2)
0x560|01                                             |.               |
     |                                               |                |                  [5]{}: in 0x561-0x561.7 (1)
0x560|   0b                                          | .              |                    end: 0xb (valid) 0x561-0x561.7 (1)
     |                                               |                |            [26]{}: code 0x562-0x56e.7 (13)
0x560|      0c                                       |  .             |              size: 12 0x562-0x562.7 (1)
     |                                               |                |              code{}: 0x563-0x56e.7 (12)
     |                                               |                |                t{}: 0x563-0x563.7 (1)
0x560|         00                                    |   .            |                  n: 0 0x563-0x563.7 (1)
     |                                               |                |                  x[0:0]: 0x564-NA (0)
     |                                               |                |                e[0:5]: 0x564-0x56e.7 (11)
     |                                               |                |                  [0]{}: in 0x564-0x565.7 (2)
0x560|            20                                 |                |                    local.get: 0x20 (valid) 0x564-0x564.7 (1)
0x560|               00                              |     .          |                    x: 0 0x565-0x565.7 (1)
     |                                               |                |                  [1]{}: in 0x566-0x568.7 (3)
0x560|                  fd                           |      .         |                    prefix: 0xfd (valid) 0x566-0x566.7 (1)
0x560|                     80 01                     |       ..       |                    i16x8.abs: 128 (valid) 0x567-0x568.7 (2)
     |                                               |                |                  [2]{}: in 0x569-0x56a.7 (2)
0x560|                           20                  |                |                    local.get: 0x20 (valid) 0x569-0x569.7 (1)
0x560|                              01               |          .     |                    x: 1 0x56a-0x56a.7 (1)
     |                                               |                |                  [3]{}: in 0x56b-0x56d.7 (3)
0x560|                                 fd            |           .    |                    prefix: 0xfd (valid) 0x56b-0x56b.7 (1)
0x560|                                    99 01      |            ..  |                    i16x8.max_u: 153 (valid) 0x56c-0x56d.7 (2)
     |                                               |                |                  [4]{}: in 0x56e-0x56e.7 (1)
0x560|                                          0b   |              . |                    end: 0xb (valid) 0x56e-0x56e.7 (1)
     |                                               |                |            [27]{}: code 0x56f-0x57b.7 (13)
0x560|                                             0c|               .|              size: 12 0x56f-0x56f.7 (1)
     |                                               |                |              code{}: 0x570-0x57b.7 (12)
     |                                               |                |                t{}: 0x570-0x570.7 (1)
0x570|00                                             |.               |                  n: 0 0x570-0x570.7 (1)
     |                                               |                |                  x[0:0]: 0x571-NA (0)
     |                                               |                |                e[0:5]: 0x571-0x57b.7 (11)
     |                                               |                |                  [0]{}: in 0x571-0x572.7 (2)
0x570|   20                                          |                |                    local.get: 0x20 (valid) 0x571-0x571.7 (1)
0x570|      00                                       |  .             |                    x: 0 0x572-0x572.7 (1)
     |                                               |                |                  [1]{}: in 0x573-0x574.7 (2)
0x570|         20                                    |                |                    local.get: 0x20 (valid) 0x573-0x573.7 (1)
0x570|            01                                 |    .           |                    x: 1 0x574-0x574.7 (1)
     |                                               |                |                  [2]{}: in 0x575-0x577.7 (3)
0x570|               fd                              |     .          |                    prefix: 0xfd (valid) 0x575-0x575.7 (1)
0x570|                  99 01                        |      ..        |                    i16x8.max_u: 153 (valid) 0x576-0x577.7 (2)
     |                                               |                |                  [3]{}: in 0x578-0x57a.7 (3)
0x570|                        fd                     |        .       |                    prefix: 0xfd (valid) 0x578-0x578.7 (1)
0x570|                           80 01               |         ..     |                    i16x8.abs: 128 (valid) 0x579-0x57a.7 (2)
     |                                               |                |                  [4]{}: in 0x57b-0x57b.7 (1)
0x570|                                 0b            |           .    |                    end: 0xb (valid) 0x57b-0x57b.7 (1)
     |                                               |                |            [28]{}: code 0x57c-0x58a.7 (15)
0x570|                                    0e         |            .   |              size: 14 0x57c-0x57c.7 (1)
     |                                               |                |              code{}: 0x57d-0x58a.7 (14)
     |                                               |                |                t{}: 0x57d-0x57d.7 (1)
0x570|                                       00      |             .  |                  n: 0 0x57d-0x57d.7 (1)
     |                                               |                |                  x[0:0]: 0x57e-NA (0)
     |                                               |                |                e[0:6]: 0x57e-0x58a.7 (13)
     |                                               |                |                  [0]{}: in 0x57e-0x57f.7 (2)
0x570|                                          20   |                |                    local.get: 0x20 (valid) 0x57e-0x57e.7 (1)
0x570|                                             00|               .|                    x: 0 0x57f-0x57f.7 (1)
     |                                               |                |                  [1]{}: in 0x580-0x581.7 (2)
0x580|20                                             |                |                    local.get: 0x20 (valid) 0x580-0x580.7 (1)
0x580|   01                                          | .              |                    x: 1 0x581-0x581.7 (1)
     |                                               |                |                  [2]{}: in 0x582-0x584.7 (3)
0x580|      fd                                       |  .             |                    prefix: 0xfd (valid) 0x582-0x582.7 (1)
0x580|         9b 01                                 |   ..           |                    i16x8.avgr_u: 155 (valid) 0x583-0x584.7 (2)
     |                                               |                |                  [3]{}: in 0x585-0x586.7 (2)
0x580|               20                              |                |                    local.get: 0x20 (valid) 0x585-0x585.7 (1)
0x580|                  02                           |      .         |                    x: 2 0x586-0x586.7 (1)
     |                                               |                |                  [4]{}: in 0x587-0x589.7 (3)
0x580|                     fd                        |       .        |                    prefix: 0xfd (valid) 0x587-0x587.7 (1)
0x580|                        9b 01                  |        ..      |                    i16x8.avgr_u: 155 (valid) 0x588-0x589.7 (2)
     |                                               |                |                  [5]{}: in 0x58a-0x58a.7 (1)
0x580|                              0b               |          .     |                    end: 0xb (valid) 0x58a-0x58a.7 (1)
     |                                               |                |            [29]{}: code 0x58b-0x599.7 (15)
0x580|                                 0e            |           .    |              size: 14 0x58b-0x58b.7 (1)
     |                                               |                |              code{}: 0x58c-0x599.7 (14)
     |                                               |                |                t{}: 0x58c-0x58c.7 (1)
0x580|                                    00         |            .   |                  n: 0 0x58c-0x58c.7 (1)
     |                                               |                |                  x[0:0]: 0x58d-NA (0)
     |                                               |                |                e[0:6]: 0x58d-0x599.7 (13)
     |                                               |                |                  [0]{}: in 0x58d-0x58e.7 (2)
0x580|                                       20      |                |                    local.get: 0x20 (valid) 0x58d-0x58d.7 (1)
0x580|                                          00   |              . |                    x: 0 0x58e-0x58e.7 (1)
     |                                               |                |                  [1]{}: in 0x58f-0x590.7 (2)
0x580|                                             20|                |                    local.get: 0x20 (valid) 0x58f-0x58f.7 (1)
0x590|01                                             |.               |                    x: 1 0x590-0x590.7 (1)
     |                                               |                |                  [2]{}: in 0x591-0x593.7 (3)
0x590|   fd                                          | .              |                    prefix: 0xfd (valid) 0x591-0x591.7 (1)
0x590|      99 01                                    |  ..            |                    i16x8.max_u: 153 (valid) 0x592-0x593.7 (2)
     |                                               |                |                  [3]{}: in 0x594-0x595.7 (2)
0x590|            20                                 |                |                    local.get: 0x20 (valid) 0x594-0x594.7 (1)
0x590|               02                              |     .          |                    x: 2 0x595-0x595.7 (1)
     |                                               |                |                  [4]{}: in 0x596-0x598.7 (3)
0x590|                  fd                           |      .         |                    prefix: 0xfd (valid) 0x596-0x596.7 (1)
0x590|                     9b 01                     |       ..       |                    i16x8.avgr_u: 155 (valid) 0x597-0x598.7 (2)
     |                                               |                |                  [5]{}: in 0x599-0x599.7 (1)
0x590|                           0b                  |         .      |                    end: 0xb (valid) 0x599-0x599.7 (1)
     |                                               |                |            [30]{}: code 0x59a-0x5a8.7 (15)
0x590|                              0e               |          .     |              size: 14 0x59a-0x59a.7 (1)
     |                                               |                |              code{}: 0x59b-0x5a8.7 (14)
     |                                               |                |                t{}: 0x59b-0x59b.7 (1)
0x590|                                 00            |           .    |                  n: 0 0x59b-0x59b.7 (1)
     |                                               |                |                  x[0:0]: 0x59c-NA (0)
     |                                               |                |                e[0:6]: 0x59c-0x5a8.7 (13)
     |                                               |                |                  [0]{}: in 0x59c-0x59d.7 (2)
0x590|                                    20         |                |                    local.get: 0x20 (valid) 0x59c-0x59c.7 (1)
0x590|                                       00      |             .  |                    x: 0 0x59d-0x59d.7 (1)
     |                                               |                |                  [1]{}: in 0x59e-0x59f.7 (2)
0x590|                                          20   |                |                    local.get: 0x20 (valid) 0x59e-0x59e.7 (1)
0x590|                                             01|               .|                    x: 1 0x59f-0x59f.7 (1)
     |                                               |                |                  [2]{}: in 0x5a0-0x5a2.7 (3)
0x5a0|fd                                             |.               |                    prefix: 0xfd (valid) 0x5a0-0x5a0.7 (1)
0x5a0|   98 01                                       | ..             |                    i16x8.max_s: 152 (valid) 0x5a1-0x5a2.7 (2)
     |                                               |                |                  [3]{}: in 0x5a3-0x5a4.7 (2)
0x5a0|         20                                    |                |                    local.get: 0x20 (valid) 0x5a3-0x5a3.7 (1)
0x5a0|            02                                 |    .           |                    x: 2 0x5a4-0x5a4.7 (1)
     |                                               |                |                  [4]{}: in 0x5a5-0x5a7.7 (3)
0x5a0|               fd                              |     .          |                    prefix: 0xfd (valid) 0x5a5-0x5a5.7 (1)
0x5a0|                  9b 01                        |      ..        |                    i16x8.avgr_u: 155 (valid) 0x5a6-0x5a7.7 (2)
     |                                               |                |                  [5]{}: in 0x5a8-0x5a8.7 (1)
0x5a0|                        0b                     |        .       |                    end: 0xb (valid) 0x5a8-0x5a8.7 (1)
     |                                               |                |            [31]{}: code 0x5a9-0x5b7.7 (15)
0x5a0|                           0e                  |         .      |              size: 14 0x5a9-0x5a9.7 (1)
     |                                               |                |              code{}: 0x5aa-0x5b7.7 (14)
     |                                               |                |                t{}: 0x5aa-0x5aa.7 (1)
0x5a0|                              00               |          .     |                  n: 0 0x5aa-0x5aa.7 (1)
     |                                               |                |                  x[0:0]: 0x5ab-NA (0)
     |                                               |                |                e[0:6]: 0x5ab-0x5b7.7 (13)
     |                                               |                |                  [0]{}: in 0x5ab-0x5ac.7 (2)
0x5a0|                                 20            |                |                    local.get: 0x20 (valid) 0x5ab-0x5ab.7 (1)
0x5a0|                                    00         |            .   |                    x: 0 0x5ac-0x5ac.7 (1)
     |                                               |                |                  [1]{}: in 0x5ad-0x5ae.7 (2)
0x5a0|                                       20      |                |                    local.get: 0x20 (valid) 0x5ad-0x5ad.7 (1)
0x5a0|                                          01   |              . |                    x: 1 0x5ae-0x5ae.7 (1)
     |                                               |                |                  [2]{}: in 0x5af-0x5b1.7 (3)
0x5a0|                                             fd|               .|                    prefix: 0xfd (valid) 0x5af-0x5af.7 (1)
0x5b0|97 01                                          |..              |                    i16x8.min_u: 151 (valid) 0x5b0-0x5b1.7 (2)
     |                                               |                |                  [3]{}: in 0x5b2-0x5b3.7 (2)
0x5b0|      20                                       |                |                    local.get: 0x20 (valid) 0x5b2-0x5b2.7 (1)
0x5b0|         02                                    |   .            |                    x: 2 0x5b3-0x5b3.7 (1)
     |                                               |                |                  [4]{}: in 0x5b4-0x5b6.7 (3)
0x5b0|            fd                                 |    .           |                    prefix: 0xfd (valid) 0x5b4-0x5b4.7 (1)
0x5b0|               9b 01                           |     ..         |                    i16x8.avgr_u: 155 (valid) 0x5b5-0x5b6.7 (2)
     |                                               |                |                  [5]{}: in 0x5b7-0x5b7.7 (1)
0x5b0|                     0b                        |       .        |                    end: 0xb (valid) 0x5b7-0x5b7.7 (1)
     |                                               |                |            [32]{}: code 0x5b8-0x5c6.7 (15)
0x5b0|                        0e                     |        .       |              size: 14 0x5b8-0x5b8.7 (1)
     |                                               |                |              code{}: 0x5b9-0x5c6.7 (14)
     |                                               |                |                t{}: 0x5b9-0x5b9.7 (1)
0x5b0|                           00                  |         .      |                  n: 0 0x5b9-0x5b9.7 (1)
     |                                               |                |                  x[0:0]: 0x5ba-NA (0)
     |                                               |                |                e[0:6]: 0x5ba-0x5c6.7 (13)
     |                                               |                |                  [0]{}: in 0x5ba-0x5bb.7 (2)
0x5b0|                              20               |                |                    local.get: 0x20 (valid) 0x5ba-0x5ba.7 (1)
0x5b0|                                 00            |           .    |                    x: 0 0x5bb-0x5bb.7 (1)
     |                                               |                |                  [1]{}: in 0x5bc-0x5bd.7 (2)
0x5b0|                                    20         |                |                    local.get: 0x20 (valid) 0x5bc-0x5bc.7 (1)
0x5b0|                                       01      |             .  |                    x: 1 0x5bd-0x5bd.7 (1)
     |                                               |                |                  [2]{}: in 0x5be-0x5c0.7 (3)
0x5b0|                                          fd   |              . |                    prefix: 0xfd (valid) 0x5be-0x5be.7 (1)
0x5b0|                                             96|               .|                    i16x8.min_s: 150 (valid) 0x5bf-0x5c0.7 (2)
0x5c0|01                                             |.               |
     |                                               |                |                  [3]{}: in 0x5c1-0x5c2.7 (2)
0x5c0|   20                                          |                |                    local.get: 0x20 (valid) 0x5c1-0x5c1.7 (1)
0x5c0|      02                                       |  .             |                    x: 2 0x5c2-0x5c2.7 (1)
     |                                               |                |                  [4]{}: in 0x5c3-0x5c5.7 (3)
0x5c0|         fd                                    |   .            |                    prefix: 0xfd (valid) 0x5c3-0x5c3.7 (1)
0x5c0|            9b 01                              |    ..          |                    i16x8.avgr_u: 155 (valid) 0x5c4-0x5c5.7 (2)
     |                                               |                |                  [5]{}: in 0x5c6-0x5c6.7 (1)
0x5c0|                  0b                           |      .         |                    end: 0xb (valid) 0x5c6-0x5c6.7 (1)
     |                                               |                |            [33]{}: code 0x5c7-0x5d3.7 (13)
0x5c0|                     0c                        |       .        |              size: 12 0x5c7-0x5c7.7 (1)
     |                                               |                |              code{}: 0x5c8-0x5d3.7 (12)
     |                                               |                |                t{}: 0x5c8-0x5c8.7 (1)
0x5c0|                        00                     |        .       |                  n: 0 0x5c8-0x5c8.7 (1)
     |                                               |                |                  x[0:0]: 0x5c9-NA (0)
     |                                               |                |                e[0:5]: 0x5c9-0x5d3.7 (11)
     |                                               |                |                  [0]{}: in 0x5c9-0x5ca.7 (2)
0x5c0|                           20                  |                |                    local.get: 0x20 (valid) 0x5c9-0x5c9.7 (1)
0x5c0|                              00               |          .     |                    x: 0 0x5ca-0x5ca.7 (1)
     |                                               |                |                  [1]{}: in 0x5cb-0x5cd.7 (3)
0x5c0|                                 fd            |           .    |                    prefix: 0xfd (valid) 0x5cb-0x5cb.7 (1)
0x5c0|                                    80 01      |            ..  |                    i16x8.abs: 128 (valid) 0x5cc-0x5cd.7 (2)
     |                                               |                |                  [2]{}: in 0x5ce-0x5cf.7 (2)
0x5c0|                                          20   |                |                    local.get: 0x20 (valid) 0x5ce-0x5ce.7 (1)
0x5c0|                                             01|               .|                    x: 1 0x5cf-0x5cf.7 (1)
     |                                               |                |                  [3]{}: in 0x5d0-0x5d2.7 (3)
0x5d0|fd                                             |.               |                    prefix: 0xfd (valid) 0x5d0-0x5d0.7 (1)
0x5d0|   9b 01                                       | ..             |                    i16x8.avgr_u: 155 (valid) 0x5d1-0x5d2.7 (2)
     |                                               |                |                  [4]{}: in 0x5d3-0x5d3.7 (1)
0x5d0|         0b                                    |   .            |                    end: 0xb (valid) 0x5d3-0x5d3.7 (1)
     |                                               |                |            [34]{}: code 0x5d4-0x5e0.7 (13)
0x5d0|            0c                                 |    .           |              size: 12 0x5d4-0x5d4.7 (1)
     |                                               |                |              code{}: 0x5d5-0x5e0.7 (12)
     |                                               |                |                t{}: 0x5d5-0x5d5.7 (1)
0x5d0|               00                              |     .          |                  n: 0 0x5d5-0x5d5.7 (1)
     |                                               |                |                  x[0:0]: 0x5d6-NA (0)
     |                                               |                |                e[0:5]: 0x5d6-0x5e0.7 (11)
     |                                               |                |                  [0]{}: in 0x5d6-0x5d7.7 (2)
0x5d0|                  20                           |                |                    local.get: 0x20 (valid) 0x5d6-0x5d6.7 (1)
0x5d0|                     00                        |       .        |                    x: 0 0x5d7-0x5d7.7 (1)
     |                                               |                |                  [1]{}: in 0x5d8-0x5d9.7 (2)
0x5d0|                        20                     |                |                    local.get: 0x20 (valid) 0x5d8-0x5d8.7 (1)
0x5d0|                           01                  |         .      |                    x: 1 0x5d9-0x5d9.7 (1)
     |                                               |                |                  [2]{}: in 0x5da-0x5dc.7 (3)
0x5d0|                              fd               |          .     |                    prefix: 0xfd (valid) 0x5da-0x5da.7 (1)
0x5d0|                                 9b 01         |           ..   |                    i16x8.avgr_u: 155 (valid) 0x5db-0x5dc.7 (2)
     |                                               |                |                  [3]{}: in 0x5dd-0x5df.7 (3)
0x5d0|                                       fd      |             .  |                    prefix: 0xfd (valid) 0x5dd-0x5dd.7 (1)
0x5d0|                                          80 01|              ..|                    i16x8.abs: 128 (valid) 0x5de-0x5df.7 (2)
     |                                               |                |                  [4]{}: in 0x5e0-0x5e0.7 (1)
0x5e0|0b                                             |.               |                    end: 0xb (valid) 0x5e0-0x5e0.7 (1)
     |                                               |                |            [35]{}: code 0x5e1-0x5eb.7 (11)
0x5e0|   0a                                          | .              |              size: 10 0x5e1-0x5e1.7 (1)
     |                                               |                |              code{}: 0x5e2-0x5eb.7 (10)
     |                                               |                |                t{}: 0x5e2-0x5e2.7 (1)
0x5e0|      00                                       |  .             |                  n: 0 0x5e2-0x5e2.7 (1)
     |                                               |                |                  x[0:0]: 0x5e3-NA (0)
     |                                               |                |                e[0:4]: 0x5e3-0x5eb.7 (9)
     |                                               |                |                  [0]{}: in 0x5e3-0x5e4.7 (2)
0x5e0|         20                                    |                |                    local.get: 0x20 (valid) 0x5e3-0x5e3.7 (1)
0x5e0|            00                                 |    .           |                    x: 0 0x5e4-0x5e4.7 (1)
     |                                               |                |                  [1]{}: in 0x5e5-0x5e7.7 (3)
0x5e0|               fd                              |     .          |                    prefix: 0xfd (valid) 0x5e5-0x5e5.7 (1)
0x5e0|                  80 01                        |      ..        |                    i16x8.abs: 128 (valid) 0x5e6-0x5e7.7 (2)
     |                                               |                |                  [2]{}: in 0x5e8-0x5ea.7 (3)
0x5e0|                        fd                     |        .       |                    prefix: 0xfd (valid) 0x5e8-0x5e8.7 (1)
0x5e0|                           80 01               |         ..     |                    i16x8.abs: 128 (valid) 0x5e9-0x5ea.7 (2)
     |                                               |                |                  [3]{}: in 0x5eb-0x5eb.7 (1)
0x5e0|                                 0b|           |           .|   |                    end: 0xb (valid) 0x5eb-0x5eb.7 (1)
