$ fq -d wasm dv simd_const-304.wasm
     |00 01 02 03 04 05 06 07 08 09 0a 0b 0c 0d 0e 0f|0123456789abcdef|.{}: simd_const-304.wasm (wasm) 0x0-0x3a0 (928)
0x000|00 61 73 6d                                    |.asm            |  magic: raw bits (valid) 0x0-0x4 (4)
0x000|            01 00 00 00                        |    ....        |  version: 1 0x4-0x8 (4)
     |                                               |                |  sections[0:4]: 0x8-0x3a0 (920)
     |                                               |                |    [0]{}: section 0x8-0xf (7)
0x000|                        01                     |        .       |      id: "type_section" (1) 0x8-0x9 (1)
0x000|                           05                  |         .      |      size: 5 (valid) 0x9-0xa (1)
     |                                               |                |      content{}: 0xa-0xf (5)
     |                                               |                |        ft{}: 0xa-0xf (5)
0x000|                              01               |          .     |          n: 1 (valid) 0xa-0xb (1)
     |                                               |                |          x[0:1]: 0xb-0xf (4)
     |                                               |                |            [0]{}: ft 0xb-0xf (4)
0x000|                                 60            |           `    |              tag: 0x60 (valid) 0xb-0xc (1)
     |                                               |                |              rt1{}: 0xc-0xd (1)
0x000|                                    00         |            .   |                n: 0 (valid) 0xc-0xd (1)
     |                                               |                |                x[0:0]: 0xd-0xd (0)
     |                                               |                |              rt2{}: 0xd-0xf (2)
0x000|                                       01      |             .  |                n: 1 (valid) 0xd-0xe (1)
     |                                               |                |                x[0:1]: 0xe-0xf (1)
0x000|                                          7b   |              { |                  [0]: "v128" (0x7b) t 0xe-0xf (1)
     |                                               |                |    [1]{}: section 0xf-0x28 (25)
0x000|                                             03|               .|      id: "function_section" (3) 0xf-0x10 (1)
0x010|17                                             |.               |      size: 23 (valid) 0x10-0x11 (1)
     |                                               |                |      content{}: 0x11-0x28 (23)
     |                                               |                |        x{}: 0x11-0x28 (23)
0x010|   16                                          | .              |          n: 22 (valid) 0x11-0x12 (1)
     |                                               |                |          x[0:22]: 0x12-0x28 (22)
0x010|      00                                       |  .             |            [0]: 0 x (valid) 0x12-0x13 (1)
0x010|         00                                    |   .            |            [1]: 0 x (valid) 0x13-0x14 (1)
0x010|            00                                 |    .           |            [2]: 0 x (valid) 0x14-0x15 (1)
0x010|               00                              |     .          |            [3]: 0 x (valid) 0x15-0x16 (1)
0x010|                  00                           |      .         |            [4]: 0 x (valid) 0x16-0x17 (1)
0x010|                     00                        |       .        |            [5]: 0 x (valid) 0x17-0x18 (1)
0x010|                        00                     |        .       |            [6]: 0 x (valid) 0x18-0x19 (1)
0x010|                           00                  |         .      |            [7]: 0 x (valid) 0x19-0x1a (1)
0x010|                              00               |          .     |            [8]: 0 x (valid) 0x1a-0x1b (1)
0x010|                                 00            |           .    |            [9]: 0 x (valid) 0x1b-0x1c (1)
0x010|                                    00         |            .   |            [10]: 0 x (valid) 0x1c-0x1d (1)
0x010|                                       00      |             .  |            [11]: 0 x (valid) 0x1d-0x1e (1)
0x010|                                          00   |              . |            [12]: 0 x (valid) 0x1e-0x1f (1)
0x010|                                             00|               .|            [13]: 0 x (valid) 0x1f-0x20 (1)
0x020|00                                             |.               |            [14]: 0 x (valid) 0x20-0x21 (1)
0x020|   00                                          | .              |            [15]: 0 x (valid) 0x21-0x22 (1)
0x020|      00                                       |  .             |            [16]: 0 x (valid) 0x22-0x23 (1)
0x020|         00                                    |   .            |            [17]: 0 x (valid) 0x23-0x24 (1)
0x020|            00                                 |    .           |            [18]: 0 x (valid) 0x24-0x25 (1)
0x020|               00                              |     .          |            [19]: 0 x (valid) 0x25-0x26 (1)
0x020|                  00                           |      .         |            [20]: 0 x (valid) 0x26-0x27 (1)
0x020|                     00                        |       .        |            [21]: 0 x (valid) 0x27-0x28 (1)
     |                                               |                |    [2]{}: section 0x28-0x196 (366)
0x020|                        07                     |        .       |      id: "export_section" (7) 0x28-0x29 (1)
0x020|                           eb 02               |         ..     |      size: 363 (valid) 0x29-0x2b (2)
     |                                               |                |      content{}: 0x2b-0x196 (363)
     |                                               |                |        ex{}: 0x2b-0x196 (363)
0x020|                                 16            |           .    |          n: 22 (valid) 0x2b-0x2c (1)
     |                                               |                |          x[0:22]: 0x2c-0x196 (362)
     |                                               |                |            [0]{}: ex 0x2c-0x39 (13)
     |                                               |                |              nm{}: 0x2c-0x37 (11)
0x020|                                    0a         |            .   |                n: 10 (valid) 0x2c-0x2d (1)
0x020|                                       69 33 32|             i32|                b: "i32x4.test" 0x2d-0x37 (10)
0x030|78 34 2e 74 65 73 74                           |x4.test         |
     |                                               |                |              d{}: 0x37-0x39 (2)
0x030|                     00                        |       .        |                tag: "funcidx" (0x0) 0x37-0x38 (1)
0x030|                        00                     |        .       |                x: 0 (valid) 0x38-0x39 (1)
     |                                               |                |            [1]{}: ex 0x39-0x46 (13)
     |                                               |                |              nm{}: 0x39-0x44 (11)
0x030|                           0a                  |         .      |                n: 10 (valid) 0x39-0x3a (1)
0x030|                              69 33 32 78 34 2e|          i32x4.|                b: "i32x4.smax" 0x3a-0x44 (10)
0x040|73 6d 61 78                                    |smax            |
     |                                               |                |              d{}: 0x44-0x46 (2)
0x040|            00                                 |    .           |                tag: "funcidx" (0x0) 0x44-0x45 (1)
0x040|               01                              |     .          |                x: 1 (valid) 0x45-0x46 (1)
     |                                               |                |            [2]{}: ex 0x46-0x57 (17)
     |                                               |                |              nm{}: 0x46-0x55 (15)
0x040|                  0e                           |      .         |                n: 14 (valid) 0x46-0x47 (1)
0x040|                     69 33 32 78 34 2e 6e 65 67|       i32x4.neg|                b: "i32x4.neg_smax" 0x47-0x55 (14)
0x050|5f 73 6d 61 78                                 |_smax           |
     |                                               |                |              d{}: 0x55-0x57 (2)
0x050|               00                              |     .          |                tag: "funcidx" (0x0) 0x55-0x56 (1)
0x050|                  02                           |      .         |                x: 2 (valid) 0x56-0x57 (1)
     |                                               |                |            [3]{}: ex 0x57-0x68 (17)
     |                                               |                |              nm{}: 0x57-0x66 (15)
0x050|                     0e                        |       .        |                n: 14 (valid) 0x57-0x58 (1)
0x050|                        69 33 32 78 34 2e 69 6e|        i32x4.in|                b: "i32x4.inc_smin" 0x58-0x66 (14)
0x060|63 5f 73 6d 69 6e                              |c_smin          |
     |                                               |                |              d{}: 0x66-0x68 (2)
0x060|                  00                           |      .         |                tag: "funcidx" (0x0) 0x66-0x67 (1)
0x060|                     03                        |       .        |                x: 3 (valid) 0x67-0x68 (1)
     |                                               |                |            [4]{}: ex 0x68-0x79 (17)
     |                                               |                |              nm{}: 0x68-0x77 (15)
0x060|                        0e                     |        .       |                n: 14 (valid) 0x68-0x69 (1)
0x060|                           69 33 32 78 34 2e 6e|         i32x4.n|                b: "i32x4.neg_zero" 0x69-0x77 (14)
0x070|65 67 5f 7a 65 72 6f                           |eg_zero         |
     |                                               |                |              d{}: 0x77-0x79 (2)
0x070|                     00                        |       .        |                tag: "funcidx" (0x0) 0x77-0x78 (1)
0x070|                        04                     |        .       |                x: 4 (valid) 0x78-0x79 (1)
     |                                               |                |            [5]{}: ex 0x79-0x8b (18)
     |                                               |                |              nm{}: 0x79-0x89 (16)
0x070|                           0f                  |         .      |                n: 15 (valid) 0x79-0x7a (1)
0x070|                              69 33 32 78 34 2e|          i32x4.|                b: "i32x4.not_octal" 0x7a-0x89 (15)
0x080|6e 6f 74 5f 6f 63 74 61 6c                     |not_octal       |
     |                                               |                |              d{}: 0x89-0x8b (2)
0x080|                           00                  |         .      |                tag: "funcidx" (0x0) 0x89-0x8a (1)
0x080|                              05               |          .     |                x: 5 (valid) 0x8a-0x8b (1)
     |                                               |                |            [6]{}: ex 0x8b-0x9d (18)
     |                                               |                |              nm{}: 0x8b-0x9b (16)
0x080|                                 0f            |           .    |                n: 15 (valid) 0x8b-0x8c (1)
0x080|                                    69 33 32 78|            i32x|                b: "i32x4.plus_sign" 0x8c-0x9b (15)
0x090|34 2e 70 6c 75 73 5f 73 69 67 6e               |4.plus_sign     |
     |                                               |                |              d{}: 0x9b-0x9d (2)
0x090|                                 00            |           .    |                tag: "funcidx" (0x0) 0x9b-0x9c (1)
0x090|                                    06         |            .   |                x: 6 (valid) 0x9c-0x9d (1)
     |                                               |                |            [7]{}: ex 0x9d-0xae (17)
     |                                               |                |              nm{}: 0x9d-0xac (15)
0x090|                                       0e      |             .  |                n: 14 (valid) 0x9d-0x9e (1)
0x090|                                          69 33|              i3|                b: "i32x4-dec-sep1" 0x9e-0xac (14)
0x0a0|32 78 34 2d 64 65 63 2d 73 65 70 31            |2x4-dec-sep1    |
     |                                               |                |              d{}: 0xac-0xae (2)
0x0a0|                                    00         |            .   |                tag: "funcidx" (0x0) 0xac-0xad (1)
0x0a0|                                       07      |             .  |                x: 7 (valid) 0xad-0xae (1)
     |                                               |                |            [8]{}: ex 0xae-0xbf (17)
     |                                               |                |              nm{}: 0xae-0xbd (15)
0x0a0|                                          0e   |              . |                n: 14 (valid) 0xae-0xaf (1)
0x0a0|                                             69|               i|                b: "i32x4-dec-sep2" 0xaf-0xbd (14)
0x0b0|33 32 78 34 2d 64 65 63 2d 73 65 70 32         |32x4-dec-sep2   |
     |                                               |                |              d{}: 0xbd-0xbf (2)
0x0b0|                                       00      |             .  |                tag: "funcidx" (0x0) 0xbd-0xbe (1)
0x0b0|                                          08   |              . |                x: 8 (valid) 0xbe-0xbf (1)
     |                                               |                |            [9]{}: ex 0xbf-0xd0 (17)
     |                                               |                |              nm{}: 0xbf-0xce (15)
0x0b0|                                             0e|               .|                n: 14 (valid) 0xbf-0xc0 (1)
0x0c0|69 33 32 78 34 2d 68 65 78 2d 73 65 70 31      |i32x4-hex-sep1  |                b: "i32x4-hex-sep1" 0xc0-0xce (14)
     |                                               |                |              d{}: 0xce-0xd0 (2)
0x0c0|                                          00   |              . |                tag: "funcidx" (0x0) 0xce-0xcf (1)
0x0c0|                                             09|               .|                x: 9 (valid) 0xcf-0xd0 (1)
     |                                               |                |            [10]{}: ex 0xd0-0xe1 (17)
     |                                               |                |              nm{}: 0xd0-0xdf (15)
0x0d0|0e                                             |.               |                n: 14 (valid) 0xd0-0xd1 (1)
0x0d0|   69 33 32 78 34 2d 68 65 78 2d 73 65 70 32   | i32x4-hex-sep2 |                b: "i32x4-hex-sep2" 0xd1-0xdf (14)
     |                                               |                |              d{}: 0xdf-0xe1 (2)
0x0d0|                                             00|               .|                tag: "funcidx" (0x0) 0xdf-0xe0 (1)
0x0e0|0a                                             |.               |                x: 10 (valid) 0xe0-0xe1 (1)
     |                                               |                |            [11]{}: ex 0xe1-0xee (13)
     |                                               |                |              nm{}: 0xe1-0xec (11)
0x0e0|   0a                                          | .              |                n: 10 (valid) 0xe1-0xe2 (1)
0x0e0|      69 36 34 78 32 2e 74 65 73 74            |  i64x2.test    |                b: "i64x2.test" 0xe2-0xec (10)
     |                                               |                |              d{}: 0xec-0xee (2)
0x0e0|                                    00         |            .   |                tag: "funcidx" (0x0) 0xec-0xed (1)
0x0e0|                                       0b      |             .  |                x: 11 (valid) 0xed-0xee (1)
     |                                               |                |            [12]{}: ex 0xee-0xfb (13)
     |                                               |                |              nm{}: 0xee-0xf9 (11)
0x0e0|                                          0a   |              . |                n: 10 (valid) 0xee-0xef (1)
0x0e0|                                             69|               i|                b: "i64x2.smax" 0xef-0xf9 (10)
0x0f0|36 34 78 32 2e 73 6d 61 78                     |64x2.smax       |
     |                                               |                |              d{}: 0xf9-0xfb (2)
0x0f0|                           00                  |         .      |                tag: "funcidx" (0x0) 0xf9-0xfa (1)
0x0f0|                              0c               |          .     |                x: 12 (valid) 0xfa-0xfb (1)
     |                                               |                |            [13]{}: ex 0xfb-0x10c (17)
     |                                               |                |              nm{}: 0xfb-0x10a (15)
0x0f0|                                 0e            |           .    |                n: 14 (valid) 0xfb-0xfc (1)
0x0f0|                                    69 36 34 78|            i64x|                b: "i64x2.neg_smax" 0xfc-0x10a (14)
0x100|32 2e 6e 65 67 5f 73 6d 61 78                  |2.neg_smax      |
     |                                               |                |              d{}: 0x10a-0x10c (2)
0x100|                              00               |          .     |                tag: "funcidx" (0x0) 0x10a-0x10b (1)
0x100|                                 0d            |           .    |                x: 13 (valid) 0x10b-0x10c (1)
     |                                               |                |            [14]{}: ex 0x10c-0x11d (17)
     |                                               |                |              nm{}: 0x10c-0x11b (15)
0x100|                                    0e         |            .   |                n: 14 (valid) 0x10c-0x10d (1)
0x100|                                       69 36 34|             i64|                b: "i64x2.inc_smin" 0x10d-0x11b (14)
0x110|78 32 2e 69 6e 63 5f 73 6d 69 6e               |x2.inc_smin     |
     |                                               |                |              d{}: 0x11b-0x11d (2)
0x110|                                 00            |           .    |                tag: "funcidx" (0x0) 0x11b-0x11c (1)
0x110|                                    0e         |            .   |                x: 14 (valid) 0x11c-0x11d (1)
     |                                               |                |            [15]{}: ex 0x11d-0x12e (17)
     |                                               |                |              nm{}: 0x11d-0x12c (15)
0x110|                                       0e      |             .  |                n: 14 (valid) 0x11d-0x11e (1)
0x110|                                          69 36|              i6|                b: "i64x2.neg_zero" 0x11e-0x12c (14)
0x120|34 78 32 2e 6e 65 67 5f 7a 65 72 6f            |4x2.neg_zero    |
     |                                               |                |              d{}: 0x12c-0x12e (2)
0x120|                                    00         |            .   |                tag: "funcidx" (0x0) 0x12c-0x12d (1)
0x120|                                       0f      |             .  |                x: 15 (valid) 0x12d-0x12e (1)
     |                                               |                |            [16]{}: ex 0x12e-0x140 (18)
     |                                               |                |              nm{}: 0x12e-0x13e (16)
0x120|                                          0f   |              . |                n: 15 (valid) 0x12e-0x12f (1)
0x120|                                             69|               i|                b: "i64x2.not_octal" 0x12f-0x13e (15)
0x130|36 34 78 32 2e 6e 6f 74 5f 6f 63 74 61 6c      |64x2.not_octal  |
     |                                               |                |              d{}: 0x13e-0x140 (2)
0x130|                                          00   |              . |                tag: "funcidx" (0x0) 0x13e-0x13f (1)
0x130|                                             10|               .|                x: 16 (valid) 0x13f-0x140 (1)
     |                                               |                |            [17]{}: ex 0x140-0x152 (18)
     |                                               |                |              nm{}: 0x140-0x150 (16)
0x140|0f                                             |.               |                n: 15 (valid) 0x140-0x141 (1)
0x140|   69 36 34 78 32 2e 70 6c 75 73 5f 73 69 67 6e| i64x2.plus_sign|                b: "i64x2.plus_sign" 0x141-0x150 (15)
     |                                               |                |              d{}: 0x150-0x152 (2)
0x150|00                                             |.               |                tag: "funcidx" (0x0) 0x150-0x151 (1)
0x150|   11                                          | .              |                x: 17 (valid) 0x151-0x152 (1)
     |                                               |                |            [18]{}: ex 0x152-0x163 (17)
     |                                               |                |              nm{}: 0x152-0x161 (15)
0x150|      0e                                       |  .             |                n: 14 (valid) 0x152-0x153 (1)
0x150|         69 36 34 78 32 2d 64 65 63 2d 73 65 70|   i64x2-dec-sep|                b: "i64x2-dec-sep1" 0x153-0x161 (14)
0x160|31                                             |1               |
     |                                               |                |              d{}: 0x161-0x163 (2)
0x160|   00                                          | .              |                tag: "funcidx" (0x0) 0x161-0x162 (1)
0x160|      12                                       |  .             |                x: 18 (valid) 0x162-0x163 (1)
     |                                               |                |            [19]{}: ex 0x163-0x174 (17)
     |                                               |                |              nm{}: 0x163-0x172 (15)
0x160|         0e                                    |   .            |                n: 14 (valid) 0x163-0x164 (1)
0x160|            69 36 34 78 32 2d 64 65 63 2d 73 65|    i64x2-dec-se|                b: "i64x2-dec-sep2" 0x164-0x172 (14)
0x170|70 32                                          |p2              |
     |                                               |                |              d{}: 0x172-0x174 (2)
0x170|      00                                       |  .             |                tag: "funcidx" (0x0) 0x172-0x173 (1)
0x170|         13                                    |   .            |                x: 19 (valid) 0x173-0x174 (1)
     |                                               |                |            [20]{}: ex 0x174-0x185 (17)
     |                                               |                |              nm{}: 0x174-0x183 (15)
0x170|            0e                                 |    .           |                n: 14 (valid) 0x174-0x175 (1)
0x170|               69 36 34 78 32 2d 68 65 78 2d 73|     i64x2-hex-s|                b: "i64x2-hex-sep1" 0x175-0x183 (14)
0x180|65 70 31                                       |ep1             |
     |                                               |                |              d{}: 0x183-0x185 (2)
0x180|         00                                    |   .            |                tag: "funcidx" (0x0) 0x183-0x184 (1)
0x180|            14                                 |    .           |                x: 20 (valid) 0x184-0x185 (1)
     |                                               |                |            [21]{}: ex 0x185-0x196 (17)
     |                                               |                |              nm{}: 0x185-0x194 (15)
0x180|               0e                              |     .          |                n: 14 (valid) 0x185-0x186 (1)
0x180|                  69 36 34 78 32 2d 68 65 78 2d|      i64x2-hex-|                b: "i64x2-hex-sep2" 0x186-0x194 (14)
0x190|73 65 70 32                                    |sep2            |
     |                                               |                |              d{}: 0x194-0x196 (2)
0x190|            00                                 |    .           |                tag: "funcidx" (0x0) 0x194-0x195 (1)
0x190|               15                              |     .          |                x: 21 (valid) 0x195-0x196 (1)
     |                                               |                |    [3]{}: section 0x196-0x3a0 (522)
0x190|                  0a                           |      .         |      id: "code_section" (10) 0x196-0x197 (1)
0x190|                     87 04                     |       ..       |      size: 519 (valid) 0x197-0x199 (2)
     |                                               |                |      content{}: 0x199-0x3a0 (519)
     |                                               |                |        code{}: 0x199-0x3a0 (519)
0x190|                           16                  |         .      |          n: 22 (valid) 0x199-0x19a (1)
     |                                               |                |          x[0:22]: 0x19a-0x3a0 (518)
     |                                               |                |            [0]{}: code 0x19a-0x1b0 (22)
0x190|                              15               |          .     |              size: 21 (valid) 0x19a-0x19b (1)
     |                                               |                |              code{}: 0x19b-0x1b0 (21)
     |                                               |                |                t{}: 0x19b-0x19c (1)
0x190|                                 00            |           .    |                  n: 0 (valid) 0x19b-0x19c (1)
     |                                               |                |                  x[0:0]: 0x19c-0x19c (0)
     |                                               |                |                e[0:3]: 0x19c-0x1b0 (20)
     |                                               |                |                  [0]{}: in 0x19c-0x1ae (18)
0x190|                                    fd         |            .   |                    opcode: "vector" (0xfd) 0x19c-0x19d (1)
0x190|                                       0c      |             .  |                    v_opcode: "v128.const" (12) 0x19d-0x19e (1)
0x190|                                          0d d0|              ..|                    bytes: raw bits 0x19e-0x1ae (16)
0x1a0|ad 0b 0d d0 ad 0b 0d d0 ad 0b 0d d0 ad 0b      |..............  |
     |                                               |                |                  [1]{}: in 0x1ae-0x1af (1)
0x1a0|                                          0f   |              . |                    opcode: "return" (0xf) 0x1ae-0x1af (1)
     |                                               |                |                  [2]{}: in 0x1af-0x1b0 (1)
0x1a0|                                             0b|               .|                    opcode: "end" (0xb) 0x1af-0x1b0 (1)
     |                                               |                |            [1]{}: code 0x1b0-0x1c6 (22)
0x1b0|15                                             |.               |              size: 21 (valid) 0x1b0-0x1b1 (1)
     |                                               |                |              code{}: 0x1b1-0x1c6 (21)
     |                                               |                |                t{}: 0x1b1-0x1b2 (1)
0x1b0|   00                                          | .              |                  n: 0 (valid) 0x1b1-0x1b2 (1)
     |                                               |                |                  x[0:0]: 0x1b2-0x1b2 (0)
     |                                               |                |                e[0:3]: 0x1b2-0x1c6 (20)
     |                                               |                |                  [0]{}: in 0x1b2-0x1c4 (18)
0x1b0|      fd                                       |  .             |                    opcode: "vector" (0xfd) 0x1b2-0x1b3 (1)
0x1b0|         0c                                    |   .            |                    v_opcode: "v128.const" (12) 0x1b3-0x1b4 (1)
0x1b0|            ff ff ff 7f ff ff ff 7f ff ff ff 7f|    ............|                    bytes: raw bits 0x1b4-0x1c4 (16)
0x1c0|ff ff ff 7f                                    |....            |
     |                                               |                |                  [1]{}: in 0x1c4-0x1c5 (1)
0x1c0|            0f                                 |    .           |                    opcode: "return" (0xf) 0x1c4-0x1c5 (1)
     |                                               |                |                  [2]{}: in 0x1c5-0x1c6 (1)
0x1c0|               0b                              |     .          |                    opcode: "end" (0xb) 0x1c5-0x1c6 (1)
     |                                               |                |            [2]{}: code 0x1c6-0x1dc (22)
0x1c0|                  15                           |      .         |              size: 21 (valid) 0x1c6-0x1c7 (1)
     |                                               |                |              code{}: 0x1c7-0x1dc (21)
     |                                               |                |                t{}: 0x1c7-0x1c8 (1)
0x1c0|                     00                        |       .        |                  n: 0 (valid) 0x1c7-0x1c8 (1)
     |                                               |                |                  x[0:0]: 0x1c8-0x1c8 (0)
     |                                               |                |                e[0:3]: 0x1c8-0x1dc (20)
     |                                               |                |                  [0]{}: in 0x1c8-0x1da (18)
0x1c0|                        fd                     |        .       |                    opcode: "vector" (0xfd) 0x1c8-0x1c9 (1)
0x1c0|                           0c                  |         .      |                    v_opcode: "v128.const" (12) 0x1c9-0x1ca (1)
0x1c0|                              01 00 00 80 01 00|          ......|                    bytes: raw bits 0x1ca-0x1da (16)
0x1d0|00 80 01 00 00 80 01 00 00 80                  |..........      |
     |                                               |                |                  [1]{}: in 0x1da-0x1db (1)
0x1d0|                              0f               |          .     |                    opcode: "return" (0xf) 0x1da-0x1db (1)
     |                                               |                |                  [2]{}: in 0x1db-0x1dc (1)
0x1d0|                                 0b            |           .    |                    opcode: "end" (0xb) 0x1db-0x1dc (1)
     |                                               |                |            [3]{}: code 0x1dc-0x207 (43)
0x1d0|                                    2a         |            *   |              size: 42 (valid) 0x1dc-0x1dd (1)
     |                                               |                |              code{}: 0x1dd-0x207 (42)
     |                                               |                |                t{}: 0x1dd-0x1de (1)
0x1d0|                                       00      |             .  |                  n: 0 (valid) 0x1dd-0x1de (1)
     |                                               |                |                  x[0:0]: 0x1de-0x1de (0)
     |                                               |                |                e[0:5]: 0x1de-0x207 (41)
     |                                               |                |                  [0]{}: in 0x1de-0x1f0 (18)
0x1d0|                                          fd   |              . |                    opcode: "vector" (0xfd) 0x1de-0x1df (1)
0x1d0|                                             0c|               .|                    v_opcode: "v128.const" (12) 0x1df-0x1e0 (1)
0x1e0|00 00 00 80 00 00 00 80 00 00 00 80 00 00 00 80|................|                    bytes: raw bits 0x1e0-0x1f0 (16)
     |                                               |                |                  [1]{}: in 0x1f0-0x202 (18)
0x1f0|fd                                             |.               |                    opcode: "vector" (0xfd) 0x1f0-0x1f1 (1)
0x1f0|   0c                                          | .              |                    v_opcode: "v128.const" (12) 0x1f1-0x1f2 (1)
0x1f0|      01 00 00 00 01 00 00 00 01 00 00 00 01 00|  ..............|                    bytes: raw bits 0x1f2-0x202 (16)
0x200|00 00                                          |..              |
     |                                               |                |                  [2]{}: in 0x202-0x205 (3)
0x200|      fd                                       |  .             |                    opcode: "vector" (0xfd) 0x202-0x203 (1)
0x200|         ae 01                                 |   ..           |                    v_opcode: "i32x4.add" (174) 0x203-0x205 (2)
     |                                               |                |                  [3]{}: in 0x205-0x206 (1)
0x200|               0f                              |     .          |                    opcode: "return" (0xf) 0x205-0x206 (1)
     |                                               |                |                  [4]{}: in 0x206-0x207 (1)
0x200|                  0b                           |      .         |                    opcode: "end" (0xb) 0x206-0x207 (1)
     |                                               |                |            [4]{}: code 0x207-0x21d (22)
0x200|                     15                        |       .        |              size: 21 (valid) 0x207-0x208 (1)
     |                                               |                |              code{}: 0x208-0x21d (21)
     |                                               |                |                t{}: 0x208-0x209 (1)
0x200|                        00                     |        .       |                  n: 0 (valid) 0x208-0x209 (1)
     |                                               |                |                  x[0:0]: 0x209-0x209 (0)
     |                                               |                |                e[0:3]: 0x209-0x21d (20)
     |                                               |                |                  [0]{}: in 0x209-0x21b (18)
0x200|                           fd                  |         .      |                    opcode: "vector" (0xfd) 0x209-0x20a (1)
0x200|                              0c               |          .     |                    v_opcode: "v128.const" (12) 0x20a-0x20b (1)
0x200|                                 00 00 00 00 00|           .....|                    bytes: raw bits 0x20b-0x21b (16)
0x210|00 00 00 00 00 00 00 00 00 00 00               |...........     |
     |                                               |                |                  [1]{}: in 0x21b-0x21c (1)
0x210|                                 0f            |           .    |                    opcode: "return" (0xf) 0x21b-0x21c (1)
     |                                               |                |                  [2]{}: in 0x21c-0x21d (1)
0x210|                                    0b         |            .   |                    opcode: "end" (0xb) 0x21c-0x21d (1)
     |                                               |                |            [5]{}: code 0x21d-0x233 (22)
0x210|                                       15      |             .  |              size: 21 (valid) 0x21d-0x21e (1)
     |                                               |                |              code{}: 0x21e-0x233 (21)
     |                                               |                |                t{}: 0x21e-0x21f (1)
0x210|                                          00   |              . |                  n: 0 (valid) 0x21e-0x21f (1)
     |                                               |                |                  x[0:0]: 0x21f-0x21f (0)
     |                                               |                |                e[0:3]: 0x21f-0x233 (20)
     |                                               |                |                  [0]{}: in 0x21f-0x231 (18)
0x210|                                             fd|               .|                    opcode: "vector" (0xfd) 0x21f-0x220 (1)
0x220|0c                                             |.               |                    v_opcode: "v128.const" (12) 0x220-0x221 (1)
0x220|   0a 00 00 00 0a 00 00 00 0a 00 00 00 0a 00 00| ...............|                    bytes: raw bits 0x221-0x231 (16)
0x230|00                                             |.               |
     |                                               |                |                  [1]{}: in 0x231-0x232 (1)
0x230|   0f                                          | .              |                    opcode: "return" (0xf) 0x231-0x232 (1)
     |                                               |                |                  [2]{}: in 0x232-0x233 (1)
0x230|      0b                                       |  .             |                    opcode: "end" (0xb) 0x232-0x233 (1)
     |                                               |                |            [6]{}: code 0x233-0x249 (22)
0x230|         15                                    |   .            |              size: 21 (valid) 0x233-0x234 (1)
     |                                               |                |              code{}: 0x234-0x249 (21)
     |                                               |                |                t{}: 0x234-0x235 (1)
0x230|            00                                 |    .           |                  n: 0 (valid) 0x234-0x235 (1)
     |                                               |                |                  x[0:0]: 0x235-0x235 (0)
     |                                               |                |                e[0:3]: 0x235-0x249 (20)
     |                                               |                |                  [0]{}: in 0x235-0x247 (18)
0x230|               fd                              |     .          |                    opcode: "vector" (0xfd) 0x235-0x236 (1)
0x230|                  0c                           |      .         |                    v_opcode: "v128.const" (12) 0x236-0x237 (1)
0x230|                     2a 00 00 00 2a 00 00 00 2a|       *...*...*|                    bytes: raw bits 0x237-0x247 (16)
0x240|00 00 00 2a 00 00 00                           |...*...         |
     |                                               |                |                  [1]{}: in 0x247-0x248 (1)
0x240|                     0f                        |       .        |                    opcode: "return" (0xf) 0x247-0x248 (1)
     |                                               |                |                  [2]{}: in 0x248-0x249 (1)
0x240|                        0b                     |        .       |                    opcode: "end" (0xb) 0x248-0x249 (1)
     |                                               |                |            [7]{}: code 0x249-0x25e (21)
0x240|                           14                  |         .      |              size: 20 (valid) 0x249-0x24a (1)
     |                                               |                |              code{}: 0x24a-0x25e (20)
     |                                               |                |                t{}: 0x24a-0x24b (1)
0x240|                              00               |          .     |                  n: 0 (valid) 0x24a-0x24b (1)
     |                                               |                |                  x[0:0]: 0x24b-0x24b (0)
     |                                               |                |                e[0:2]: 0x24b-0x25e (19)
     |                                               |                |                  [0]{}: in 0x24b-0x25d (18)
0x240|                                 fd            |           .    |                    opcode: "vector" (0xfd) 0x24b-0x24c (1)
0x240|                                    0c         |            .   |                    v_opcode: "v128.const" (12) 0x24c-0x24d (1)
0x240|                                       40 42 0f|             @B.|                    bytes: raw bits 0x24d-0x25d (16)
0x250|00 40 42 0f 00 40 42 0f 00 40 42 0f 00         |.@B..@B..@B..   |
     |                                               |                |                  [1]{}: in 0x25d-0x25e (1)
0x250|                                       0b      |             .  |                    opcode: "end" (0xb) 0x25d-0x25e (1)
     |                                               |                |            [8]{}: code 0x25e-0x273 (21)
0x250|                                          14   |              . |              size: 20 (valid) 0x25e-0x25f (1)
     |                                               |                |              code{}: 0x25f-0x273 (20)
     |                                               |                |                t{}: 0x25f-0x260 (1)
0x250|                                             00|               .|                  n: 0 (valid) 0x25f-0x260 (1)
     |                                               |                |                  x[0:0]: 0x260-0x260 (0)
     |                                               |                |                e[0:2]: 0x260-0x273 (19)
     |                                               |                |                  [0]{}: in 0x260-0x272 (18)
0x260|fd                                             |.               |                    opcode: "vector" (0xfd) 0x260-0x261 (1)
0x260|   0c                                          | .              |                    v_opcode: "v128.const" (12) 0x261-0x262 (1)
0x260|      e8 03 00 00 e8 03 00 00 e8 03 00 00 e8 03|  ..............|                    bytes: raw bits 0x262-0x272 (16)
0x270|00 00                                          |..              |
     |                                               |                |                  [1]{}: in 0x272-0x273 (1)
0x270|      0b                                       |  .             |                    opcode: "end" (0xb) 0x272-0x273 (1)
     |                                               |                |            [9]{}: code 0x273-0x288 (21)
0x270|         14                                    |   .            |              size: 20 (valid) 0x273-0x274 (1)
     |                                               |                |              code{}: 0x274-0x288 (20)
     |                                               |                |                t{}: 0x274-0x275 (1)
0x270|            00                                 |    .           |                  n: 0 (valid) 0x274-0x275 (1)
     |                                               |                |                  x[0:0]: 0x275-0x275 (0)
     |                                               |                |                e[0:2]: 0x275-0x288 (19)
     |                                               |                |                  [0]{}: in 0x275-0x287 (18)
0x270|               fd                              |     .          |                    opcode: "vector" (0xfd) 0x275-0x276 (1)
0x270|                  0c                           |      .         |                    v_opcode: "v128.const" (12) 0x276-0x277 (1)
0x270|                     99 00 0f 0a 99 00 0f 0a 99|       .........|                    bytes: raw bits 0x277-0x287 (16)
0x280|00 0f 0a 99 00 0f 0a                           |.......         |
     |                                               |                |                  [1]{}: in 0x287-0x288 (1)
0x280|                     0b                        |       .        |                    opcode: "end" (0xb) 0x287-0x288 (1)
     |                                               |                |            [10]{}: code 0x288-0x29d (21)
0x280|                        14                     |        .       |              size: 20 (valid) 0x288-0x289 (1)
     |                                               |                |              code{}: 0x289-0x29d (20)
     |                                               |                |                t{}: 0x289-0x28a (1)
0x280|                           00                  |         .      |                  n: 0 (valid) 0x289-0x28a (1)
     |                                               |                |                  x[0:0]: 0x28a-0x28a (0)
     |                                               |                |                e[0:2]: 0x28a-0x29d (19)
     |                                               |                |                  [0]{}: in 0x28a-0x29c (18)
0x280|                              fd               |          .     |                    opcode: "vector" (0xfd) 0x28a-0x28b (1)
0x280|                                 0c            |           .    |                    v_opcode: "v128.const" (12) 0x28b-0x28c (1)
0x280|                                    0f aa 01 00|            ....|                    bytes: raw bits 0x28c-0x29c (16)
0x290|0f aa 01 00 0f aa 01 00 0f aa 01 00            |............    |
     |                                               |                |                  [1]{}: in 0x29c-0x29d (1)
0x290|                                    0b         |            .   |                    opcode: "end" (0xb) 0x29c-0x29d (1)
     |                                               |                |            [11]{}: code 0x29d-0x2b3 (22)
0x290|                                       15      |             .  |              size: 21 (valid) 0x29d-0x29e (1)
     |                                               |                |              code{}: 0x29e-0x2b3 (21)
     |                                               |                |                t{}: 0x29e-0x29f (1)
0x290|                                          00   |              . |                  n: 0 (valid) 0x29e-0x29f (1)
     |                                               |                |                  x[0:0]: 0x29f-0x29f (0)
     |                                               |                |                e[0:3]: 0x29f-0x2b3 (20)
     |                                               |                |                  [0]{}: in 0x29f-0x2b1 (18)
0x290|                                             fd|               .|                    opcode: "vector" (0xfd) 0x29f-0x2a0 (1)
0x2a0|0c                                             |.               |                    v_opcode: "v128.const" (12) 0x2a0-0x2a1 (1)
0x2a0|   0d d0 ad 0b 0d d0 ad 0b 0d d0 ad 0b 0d d0 ad| ...............|                    bytes: raw bits 0x2a1-0x2b1 (16)
0x2b0|0b                                             |.               |
     |                                               |                |                  [1]{}: in 0x2b1-0x2b2 (1)
0x2b0|   0f                                          | .              |                    opcode: "return" (0xf) 0x2b1-0x2b2 (1)
     |                                               |                |                  [2]{}: in 0x2b2-0x2b3 (1)
0x2b0|      0b                                       |  .             |                    opcode: "end" (0xb) 0x2b2-0x2b3 (1)
     |                                               |                |            [12]{}: code 0x2b3-0x2c9 (22)
0x2b0|         15                                    |   .            |              size: 21 (valid) 0x2b3-0x2b4 (1)
     |                                               |                |              code{}: 0x2b4-0x2c9 (21)
     |                                               |                |                t{}: 0x2b4-0x2b5 (1)
0x2b0|            00                                 |    .           |                  n: 0 (valid) 0x2b4-0x2b5 (1)
     |                                               |                |                  x[0:0]: 0x2b5-0x2b5 (0)
     |                                               |                |                e[0:3]: 0x2b5-0x2c9 (20)
     |                                               |                |                  [0]{}: in 0x2b5-0x2c7 (18)
0x2b0|               fd                              |     .          |                    opcode: "vector" (0xfd) 0x2b5-0x2b6 (1)
0x2b0|                  0c                           |      .         |                    v_opcode: "v128.const" (12) 0x2b6-0x2b7 (1)
0x2b0|                     ff ff ff ff ff ff ff 7f ff|       .........|                    bytes: raw bits 0x2b7-0x2c7 (16)
0x2c0|ff ff ff ff ff ff 7f                           |.......         |
     |                                               |                |                  [1]{}: in 0x2c7-0x2c8 (1)
0x2c0|                     0f                        |       .        |                    opcode: "return" (0xf) 0x2c7-0x2c8 (1)
     |                                               |                |                  [2]{}: in 0x2c8-0x2c9 (1)
0x2c0|                        0b                     |        .       |                    opcode: "end" (0xb) 0x2c8-0x2c9 (1)
     |                                               |                |            [13]{}: code 0x2c9-0x2df (22)
0x2c0|                           15                  |         .      |              size: 21 (valid) 0x2c9-0x2ca (1)
     |                                               |                |              code{}: 0x2ca-0x2df (21)
     |                                               |                |                t{}: 0x2ca-0x2cb (1)
0x2c0|                              00               |          .     |                  n: 0 (valid) 0x2ca-0x2cb (1)
     |                                               |                |                  x[0:0]: 0x2cb-0x2cb (0)
     |                                               |                |                e[0:3]: 0x2cb-0x2df (20)
     |                                               |                |                  [0]{}: in 0x2cb-0x2dd (18)
0x2c0|                                 fd            |           .    |                    opcode: "vector" (0xfd) 0x2cb-0x2cc (1)
0x2c0|                                    0c         |            .   |                    v_opcode: "v128.const" (12) 0x2cc-0x2cd (1)
0x2c0|                                       01 00 00|             ...|                    bytes: raw bits 0x2cd-0x2dd (16)
0x2d0|00 00 00 00 80 01 00 00 00 00 00 00 80         |.............   |
     |                                               |                |                  [1]{}: in 0x2dd-0x2de (1)
0x2d0|                                       0f      |             .  |                    opcode: "return" (0xf) 0x2dd-0x2de (1)
     |                                               |                |                  [2]{}: in 0x2de-0x2df (1)
0x2d0|                                          0b   |              . |                    opcode: "end" (0xb) 0x2de-0x2df (1)
     |                                               |                |            [14]{}: code 0x2df-0x30a (43)
0x2d0|                                             2a|               *|              size: 42 (valid) 0x2df-0x2e0 (1)
     |                                               |                |              code{}: 0x2e0-0x30a (42)
     |                                               |                |                t{}: 0x2e0-0x2e1 (1)
0x2e0|00                                             |.               |                  n: 0 (valid) 0x2e0-0x2e1 (1)
     |                                               |                |                  x[0:0]: 0x2e1-0x2e1 (0)
     |                                               |                |                e[0:5]: 0x2e1-0x30a (41)
     |                                               |                |                  [0]{}: in 0x2e1-0x2f3 (18)
0x2e0|   fd                                          | .              |                    opcode: "vector" (0xfd) 0x2e1-0x2e2 (1)
0x2e0|      0c                                       |  .             |                    v_opcode: "v128.const" (12) 0x2e2-0x2e3 (1)
0x2e0|         00 00 00 00 00 00 00 80 00 00 00 00 00|   .............|                    bytes: raw bits 0x2e3-0x2f3 (16)
0x2f0|00 00 80                                       |...             |
     |                                               |                |                  [1]{}: in 0x2f3-0x305 (18)
0x2f0|         fd                                    |   .            |                    opcode: "vector" (0xfd) 0x2f3-0x2f4 (1)
0x2f0|            0c                                 |    .           |                    v_opcode: "v128.const" (12) 0x2f4-0x2f5 (1)
0x2f0|               01 00 00 00 00 00 00 00 01 00 00|     ...........|                    bytes: raw bits 0x2f5-0x305 (16)
0x300|00 00 00 00 00                                 |.....           |
     |                                               |                |                  [2]{}: in 0x305-0x308 (3)
0x300|               fd                              |     .          |                    opcode: "vector" (0xfd) 0x305-0x306 (1)
0x300|                  ce 01                        |      ..        |                    v_opcode: "i64x2.add" (206) 0x306-0x308 (2)
     |                                               |                |                  [3]{}: in 0x308-0x309 (1)
0x300|                        0f                     |        .       |                    opcode: "return" (0xf) 0x308-0x309 (1)
     |                                               |                |                  [4]{}: in 0x309-0x30a (1)
0x300|                           0b                  |         .      |                    opcode: "end" (0xb) 0x309-0x30a (1)
     |                                               |                |            [15]{}: code 0x30a-0x320 (22)
0x300|                              15               |          .     |              size: 21 (valid) 0x30a-0x30b (1)
     |                                               |                |              code{}: 0x30b-0x320 (21)
     |                                               |                |                t{}: 0x30b-0x30c (1)
0x300|                                 00            |           .    |                  n: 0 (valid) 0x30b-0x30c (1)
     |                                               |                |                  x[0:0]: 0x30c-0x30c (0)
     |                                               |                |                e[0:3]: 0x30c-0x320 (20)
     |                                               |                |                  [0]{}: in 0x30c-0x31e (18)
0x300|                                    fd         |            .   |                    opcode: "vector" (0xfd) 0x30c-0x30d (1)
0x300|                                       0c      |             .  |                    v_opcode: "v128.const" (12) 0x30d-0x30e (1)
0x300|                                          00 00|              ..|                    bytes: raw bits 0x30e-0x31e (16)
0x310|00 00 00 00 00 00 00 00 00 00 00 00 00 00      |..............  |
     |                                               |                |                  [1]{}: in 0x31e-0x31f (1)
0x310|                                          0f   |              . |                    opcode: "return" (0xf) 0x31e-0x31f (1)
     |                                               |                |                  [2]{}: in 0x31f-0x320 (1)
0x310|                                             0b|               .|                    opcode: "end" (0xb) 0x31f-0x320 (1)
     |                                               |                |            [16]{}: code 0x320-0x336 (22)
0x320|15                                             |.               |              size: 21 (valid) 0x320-0x321 (1)
     |                                               |                |              code{}: 0x321-0x336 (21)
     |                                               |                |                t{}: 0x321-0x322 (1)
0x320|   00                                          | .              |                  n: 0 (valid) 0x321-0x322 (1)
     |                                               |                |                  x[0:0]: 0x322-0x322 (0)
     |                                               |                |                e[0:3]: 0x322-0x336 (20)
     |                                               |                |                  [0]{}: in 0x322-0x334 (18)
0x320|      fd                                       |  .             |                    opcode: "vector" (0xfd) 0x322-0x323 (1)
0x320|         0c                                    |   .            |                    v_opcode: "v128.const" (12) 0x323-0x324 (1)
0x320|            1a 27 00 00 00 00 00 00 1a 27 00 00|    .'.......'..|                    bytes: raw bits 0x324-0x334 (16)
0x330|00 00 00 00                                    |....            |
     |                                               |                |                  [1]{}: in 0x334-0x335 (1)
0x330|            0f                                 |    .           |                    opcode: "return" (0xf) 0x334-0x335 (1)
     |                                               |                |                  [2]{}: in 0x335-0x336 (1)
0x330|               0b                              |     .          |                    opcode: "end" (0xb) 0x335-0x336 (1)
     |                                               |                |            [17]{}: code 0x336-0x34c (22)
0x330|                  15                           |      .         |              size: 21 (valid) 0x336-0x337 (1)
     |                                               |                |              code{}: 0x337-0x34c (21)
     |                                               |                |                t{}: 0x337-0x338 (1)
0x330|                     00                        |       .        |                  n: 0 (valid) 0x337-0x338 (1)
     |                                               |                |                  x[0:0]: 0x338-0x338 (0)
     |                                               |                |                e[0:3]: 0x338-0x34c (20)
     |                                               |                |                  [0]{}: in 0x338-0x34a (18)
0x330|                        fd                     |        .       |                    opcode: "vector" (0xfd) 0x338-0x339 (1)
0x330|                           0c                  |         .      |                    v_opcode: "v128.const" (12) 0x339-0x33a (1)
0x330|                              2a 00 00 00 00 00|          *.....|                    bytes: raw bits 0x33a-0x34a (16)
0x340|00 00 2a 00 00 00 00 00 00 00                  |..*.......      |
     |                                               |                |                  [1]{}: in 0x34a-0x34b (1)
0x340|                              0f               |          .     |                    opcode: "return" (0xf) 0x34a-0x34b (1)
     |                                               |                |                  [2]{}: in 0x34b-0x34c (1)
0x340|                                 0b            |           .    |                    opcode: "end" (0xb) 0x34b-0x34c (1)
     |                                               |                |            [18]{}: code 0x34c-0x361 (21)
0x340|                                    14         |            .   |              size: 20 (valid) 0x34c-0x34d (1)
     |                                               |                |              code{}: 0x34d-0x361 (20)
     |                                               |                |                t{}: 0x34d-0x34e (1)
0x340|                                       00      |             .  |                  n: 0 (valid) 0x34d-0x34e (1)
     |                                               |                |                  x[0:0]: 0x34e-0x34e (0)
     |                                               |                |                e[0:2]: 0x34e-0x361 (19)
     |                                               |                |                  [0]{}: in 0x34e-0x360 (18)
0x340|                                          fd   |              . |                    opcode: "vector" (0xfd) 0x34e-0x34f (1)
0x340|                                             0c|               .|                    v_opcode: "v128.const" (12) 0x34f-0x350 (1)
0x350|00 a0 72 4e 18 09 00 00 00 a0 72 4e 18 09 00 00|..rN......rN....|                    bytes: raw bits 0x350-0x360 (16)
     |                                               |                |                  [1]{}: in 0x360-0x361 (1)
0x360|0b                                             |.               |                    opcode: "end" (0xb) 0x360-0x361 (1)
     |                                               |                |            [19]{}: code 0x361-0x376 (21)
0x360|   14                                          | .              |              size: 20 (valid) 0x361-0x362 (1)
     |                                               |                |              code{}: 0x362-0x376 (20)
     |                                               |                |                t{}: 0x362-0x363 (1)
0x360|      00                                       |  .             |                  n: 0 (valid) 0x362-0x363 (1)
     |                                               |                |                  x[0:0]: 0x363-0x363 (0)
     |                                               |                |                e[0:2]: 0x363-0x376 (19)
     |                                               |                |                  [0]{}: in 0x363-0x375 (18)
0x360|         fd                                    |   .            |                    opcode: "vector" (0xfd) 0x363-0x364 (1)
0x360|            0c                                 |    .           |                    v_opcode: "v128.const" (12) 0x364-0x365 (1)
0x360|               80 96 98 00 00 00 00 00 80 96 98|     ...........|                    bytes: raw bits 0x365-0x375 (16)
0x370|00 00 00 00 00                                 |.....           |
     |                                               |                |                  [1]{}: in 0x375-0x376 (1)
0x370|               0b                              |     .          |                    opcode: "end" (0xb) 0x375-0x376 (1)
     |                                               |                |            [20]{}: code 0x376-0x38b (21)
0x370|                  14                           |      .         |              size: 20 (valid) 0x376-0x377 (1)
     |                                               |                |              code{}: 0x377-0x38b (20)
     |                                               |                |                t{}: 0x377-0x378 (1)
0x370|                     00                        |       .        |                  n: 0 (valid) 0x377-0x378 (1)
     |                                               |                |                  x[0:0]: 0x378-0x378 (0)
     |                                               |                |                e[0:2]: 0x378-0x38b (19)
     |                                               |                |                  [0]{}: in 0x378-0x38a (18)
0x370|                        fd                     |        .       |                    opcode: "vector" (0xfd) 0x378-0x379 (1)
0x370|                           0c                  |         .      |                    v_opcode: "v128.const" (12) 0x379-0x37a (1)
0x370|                              99 00 0f 0a 99 00|          ......|                    bytes: raw bits 0x37a-0x38a (16)
0x380|0f 0a 99 00 0f 0a 99 00 0f 0a                  |..........      |
     |                                               |                |                  [1]{}: in 0x38a-0x38b (1)
0x380|                              0b               |          .     |                    opcode: "end" (0xb) 0x38a-0x38b (1)
     |                                               |                |            [21]{}: code 0x38b-0x3a0 (21)
0x380|                                 14            |           .    |              size: 20 (valid) 0x38b-0x38c (1)
     |                                               |                |              code{}: 0x38c-0x3a0 (20)
     |                                               |                |                t{}: 0x38c-0x38d (1)
0x380|                                    00         |            .   |                  n: 0 (valid) 0x38c-0x38d (1)
     |                                               |                |                  x[0:0]: 0x38d-0x38d (0)
     |                                               |                |                e[0:2]: 0x38d-0x3a0 (19)
     |                                               |                |                  [0]{}: in 0x38d-0x39f (18)
0x380|                                       fd      |             .  |                    opcode: "vector" (0xfd) 0x38d-0x38e (1)
0x380|                                          0c   |              . |                    v_opcode: "v128.const" (12) 0x38e-0x38f (1)
0x380|                                             0f|               .|                    bytes: raw bits 0x38f-0x39f (16)
0x390|aa f1 a0 1a 00 00 00 0f aa f1 a0 1a 00 00 00   |............... |
     |                                               |                |                  [1]{}: in 0x39f-0x3a0 (1)
0x390|                                             0b|               .|                    opcode: "end" (0xb) 0x39f-0x3a0 (1)
