$ fq -d wasm dv simd_f64x2_cmp-0.wasm
    |00 01 02 03 04 05 06 07 08 09 0a 0b 0c 0d 0e 0f|0123456789abcdef|.{}: simd_f64x2_cmp-0.wasm (wasm) 0x0-0x97.7 (152)
0x00|00 61 73 6d                                    |.asm            |  magic: raw bits (valid) 0x0-0x3.7 (4)
0x00|            01 00 00 00                        |    ....        |  version: 1 0x4-0x7.7 (4)
    |                                               |                |  sections[0:4]: 0x8-0x97.7 (144)
    |                                               |                |    [0]{}: section 0x8-0x10.7 (9)
0x00|                        01                     |        .       |      id: "type_section" (1) 0x8-0x8.7 (1)
0x00|                           07                  |         .      |      size: 7 (valid) 0x9-0x9.7 (1)
    |                                               |                |      content{}: 0xa-0x10.7 (7)
    |                                               |                |        ft{}: 0xa-0x10.7 (7)
0x00|                              01               |          .     |          n: 1 (valid) 0xa-0xa.7 (1)
    |                                               |                |          x[0:1]: 0xb-0x10.7 (6)
    |                                               |                |            [0]{}: ft 0xb-0x10.7 (6)
0x00|                                 60            |           `    |              tag: 0x60 (valid) 0xb-0xb.7 (1)
    |                                               |                |              rt1{}: 0xc-0xe.7 (3)
0x00|                                    02         |            .   |                n: 2 (valid) 0xc-0xc.7 (1)
    |                                               |                |                x[0:2]: 0xd-0xe.7 (2)
0x00|                                       7b      |             {  |                  [0]: "v128" (0x7b) t 0xd-0xd.7 (1)
0x00|                                          7b   |              { |                  [1]: "v128" (0x7b) t 0xe-0xe.7 (1)
    |                                               |                |              rt2{}: 0xf-0x10.7 (2)
0x00|                                             01|               .|                n: 1 (valid) 0xf-0xf.7 (1)
    |                                               |                |                x[0:1]: 0x10-0x10.7 (1)
0x10|7b                                             |{               |                  [0]: "v128" (0x7b) t 0x10-0x10.7 (1)
    |                                               |                |    [1]{}: section 0x11-0x19.7 (9)
0x10|   03                                          | .              |      id: "function_section" (3) 0x11-0x11.7 (1)
0x10|      07                                       |  .             |      size: 7 (valid) 0x12-0x12.7 (1)
    |                                               |                |      content{}: 0x13-0x19.7 (7)
    |                                               |                |        x{}: 0x13-0x19.7 (7)
0x10|         06                                    |   .            |          n: 6 (valid) 0x13-0x13.7 (1)
    |                                               |                |          x[0:6]: 0x14-0x19.7 (6)
0x10|            00                                 |    .           |            [0]: 0 x (valid) 0x14-0x14.7 (1)
0x10|               00                              |     .          |            [1]: 0 x (valid) 0x15-0x15.7 (1)
0x10|                  00                           |      .         |            [2]: 0 x (valid) 0x16-0x16.7 (1)
0x10|                     00                        |       .        |            [3]: 0 x (valid) 0x17-0x17.7 (1)
0x10|                        00                     |        .       |            [4]: 0 x (valid) 0x18-0x18.7 (1)
0x10|                           00                  |         .      |            [5]: 0 x (valid) 0x19-0x19.7 (1)
    |                                               |                |    [2]{}: section 0x1a-0x5e.7 (69)
0x10|                              07               |          .     |      id: "export_section" (7) 0x1a-0x1a.7 (1)
0x10|                                 43            |           C    |      size: 67 (valid) 0x1b-0x1b.7 (1)
    |                                               |                |      content{}: 0x1c-0x5e.7 (67)
    |                                               |                |        ex{}: 0x1c-0x5e.7 (67)
0x10|                                    06         |            .   |          n: 6 (valid) 0x1c-0x1c.7 (1)
    |                                               |                |          x[0:6]: 0x1d-0x5e.7 (66)
    |                                               |                |            [0]{}: ex 0x1d-0x27.7 (11)
    |                                               |                |              nm{}: 0x1d-0x25.7 (9)
0x10|                                       08      |             .  |                n: 8 (valid) 0x1d-0x1d.7 (1)
0x10|                                          66 36|              f6|                b: "f64x2.eq" 0x1e-0x25.7 (8)
0x20|34 78 32 2e 65 71                              |4x2.eq          |
    |                                               |                |              d{}: 0x26-0x27.7 (2)
0x20|                  00                           |      .         |                tag: "funcidx" (0x0) 0x26-0x26.7 (1)
0x20|                     00                        |       .        |                x: 0 (valid) 0x27-0x27.7 (1)
    |                                               |                |            [1]{}: ex 0x28-0x32.7 (11)
    |                                               |                |              nm{}: 0x28-0x30.7 (9)
0x20|                        08                     |        .       |                n: 8 (valid) 0x28-0x28.7 (1)
0x20|                           66 36 34 78 32 2e 6e|         f64x2.n|                b: "f64x2.ne" 0x29-0x30.7 (8)
0x30|65                                             |e               |
    |                                               |                |              d{}: 0x31-0x32.7 (2)
0x30|   00                                          | .              |                tag: "funcidx" (0x0) 0x31-0x31.7 (1)
0x30|      01                                       |  .             |                x: 1 (valid) 0x32-0x32.7 (1)
    |                                               |                |            [2]{}: ex 0x33-0x3d.7 (11)
    |                                               |                |              nm{}: 0x33-0x3b.7 (9)
0x30|         08                                    |   .            |                n: 8 (valid) 0x33-0x33.7 (1)
0x30|            66 36 34 78 32 2e 6c 74            |    f64x2.lt    |                b: "f64x2.lt" 0x34-0x3b.7 (8)
    |                                               |                |              d{}: 0x3c-0x3d.7 (2)
0x30|                                    00         |            .   |                tag: "funcidx" (0x0) 0x3c-0x3c.7 (1)
0x30|                                       02      |             .  |                x: 2 (valid) 0x3d-0x3d.7 (1)
    |                                               |                |            [3]{}: ex 0x3e-0x48.7 (11)
    |                                               |                |              nm{}: 0x3e-0x46.7 (9)
0x30|                                          08   |              . |                n: 8 (valid) 0x3e-0x3e.7 (1)
0x30|                                             66|               f|                b: "f64x2.le" 0x3f-0x46.7 (8)
0x40|36 34 78 32 2e 6c 65                           |64x2.le         |
    |                                               |                |              d{}: 0x47-0x48.7 (2)
0x40|                     00                        |       .        |                tag: "funcidx" (0x0) 0x47-0x47.7 (1)
0x40|                        03                     |        .       |                x: 3 (valid) 0x48-0x48.7 (1)
    |                                               |                |            [4]{}: ex 0x49-0x53.7 (11)
    |                                               |                |              nm{}: 0x49-0x51.7 (9)
0x40|                           08                  |         .      |                n: 8 (valid) 0x49-0x49.7 (1)
0x40|                              66 36 34 78 32 2e|          f64x2.|                b: "f64x2.gt" 0x4a-0x51.7 (8)
0x50|67 74                                          |gt              |
    |                                               |                |              d{}: 0x52-0x53.7 (2)
0x50|      00                                       |  .             |                tag: "funcidx" (0x0) 0x52-0x52.7 (1)
0x50|         04                                    |   .            |                x: 4 (valid) 0x53-0x53.7 (1)
    |                                               |                |            [5]{}: ex 0x54-0x5e.7 (11)
    |                                               |                |              nm{}: 0x54-0x5c.7 (9)
0x50|            08                                 |    .           |                n: 8 (valid) 0x54-0x54.7 (1)
0x50|               66 36 34 78 32 2e 67 65         |     f64x2.ge   |                b: "f64x2.ge" 0x55-0x5c.7 (8)
    |                                               |                |              d{}: 0x5d-0x5e.7 (2)
0x50|                                       00      |             .  |                tag: "funcidx" (0x0) 0x5d-0x5d.7 (1)
0x50|                                          05   |              . |                x: 5 (valid) 0x5e-0x5e.7 (1)
    |                                               |                |    [3]{}: section 0x5f-0x97.7 (57)
0x50|                                             0a|               .|      id: "code_section" (10) 0x5f-0x5f.7 (1)
0x60|37                                             |7               |      size: 55 (valid) 0x60-0x60.7 (1)
    |                                               |                |      content{}: 0x61-0x97.7 (55)
    |                                               |                |        code{}: 0x61-0x97.7 (55)
0x60|   06                                          | .              |          n: 6 (valid) 0x61-0x61.7 (1)
    |                                               |                |          x[0:6]: 0x62-0x97.7 (54)
    |                                               |                |            [0]{}: code 0x62-0x6a.7 (9)
0x60|      08                                       |  .             |              size: 8 (valid) 0x62-0x62.7 (1)
    |                                               |                |              code{}: 0x63-0x6a.7 (8)
    |                                               |                |                t{}: 0x63-0x63.7 (1)
0x60|         00                                    |   .            |                  n: 0 (valid) 0x63-0x63.7 (1)
    |                                               |                |                  x[0:0]: 0x64-NA (0)
    |                                               |                |                e[0:4]: 0x64-0x6a.7 (7)
    |                                               |                |                  [0]{}: in 0x64-0x65.7 (2)
0x60|            20                                 |                |                    opcode: "local.get" (0x20) 0x64-0x64.7 (1)
0x60|               00                              |     .          |                    x: 0 (valid) 0x65-0x65.7 (1)
    |                                               |                |                  [1]{}: in 0x66-0x67.7 (2)
0x60|                  20                           |                |                    opcode: "local.get" (0x20) 0x66-0x66.7 (1)
0x60|                     01                        |       .        |                    x: 1 (valid) 0x67-0x67.7 (1)
    |                                               |                |                  [2]{}: in 0x68-0x69.7 (2)
0x60|                        fd                     |        .       |                    opcode: "vector" (0xfd) 0x68-0x68.7 (1)
0x60|                           47                  |         G      |                    v_opcode: "f64x2.eq" (71) 0x69-0x69.7 (1)
    |                                               |                |                  [3]{}: in 0x6a-0x6a.7 (1)
0x60|                              0b               |          .     |                    opcode: "end" (0xb) 0x6a-0x6a.7 (1)
    |                                               |                |            [1]{}: code 0x6b-0x73.7 (9)
0x60|                                 08            |           .    |              size: 8 (valid) 0x6b-0x6b.7 (1)
    |                                               |                |              code{}: 0x6c-0x73.7 (8)
    |                                               |                |                t{}: 0x6c-0x6c.7 (1)
0x60|                                    00         |            .   |                  n: 0 (valid) 0x6c-0x6c.7 (1)
    |                                               |                |                  x[0:0]: 0x6d-NA (0)
    |                                               |                |                e[0:4]: 0x6d-0x73.7 (7)
    |                                               |                |                  [0]{}: in 0x6d-0x6e.7 (2)
0x60|                                       20      |                |                    opcode: "local.get" (0x20) 0x6d-0x6d.7 (1)
0x60|                                          00   |              . |                    x: 0 (valid) 0x6e-0x6e.7 (1)
    |                                               |                |                  [1]{}: in 0x6f-0x70.7 (2)
0x60|                                             20|                |                    opcode: "local.get" (0x20) 0x6f-0x6f.7 (1)
0x70|01                                             |.               |                    x: 1 (valid) 0x70-0x70.7 (1)
    |                                               |                |                  [2]{}: in 0x71-0x72.7 (2)
0x70|   fd                                          | .              |                    opcode: "vector" (0xfd) 0x71-0x71.7 (1)
0x70|      48                                       |  H             |                    v_opcode: "f64x2.ne" (72) 0x72-0x72.7 (1)
    |                                               |                |                  [3]{}: in 0x73-0x73.7 (1)
0x70|         0b                                    |   .            |                    opcode: "end" (0xb) 0x73-0x73.7 (1)
    |                                               |                |            [2]{}: code 0x74-0x7c.7 (9)
0x70|            08                                 |    .           |              size: 8 (valid) 0x74-0x74.7 (1)
    |                                               |                |              code{}: 0x75-0x7c.7 (8)
    |                                               |                |                t{}: 0x75-0x75.7 (1)
0x70|               00                              |     .          |                  n: 0 (valid) 0x75-0x75.7 (1)
    |                                               |                |                  x[0:0]: 0x76-NA (0)
    |                                               |                |                e[0:4]: 0x76-0x7c.7 (7)
    |                                               |                |                  [0]{}: in 0x76-0x77.7 (2)
0x70|                  20                           |                |                    opcode: "local.get" (0x20) 0x76-0x76.7 (1)
0x70|                     00                        |       .        |                    x: 0 (valid) 0x77-0x77.7 (1)
    |                                               |                |                  [1]{}: in 0x78-0x79.7 (2)
0x70|                        20                     |                |                    opcode: "local.get" (0x20) 0x78-0x78.7 (1)
0x70|                           01                  |         .      |                    x: 1 (valid) 0x79-0x79.7 (1)
    |                                               |                |                  [2]{}: in 0x7a-0x7b.7 (2)
0x70|                              fd               |          .     |                    opcode: "vector" (0xfd) 0x7a-0x7a.7 (1)
0x70|                                 49            |           I    |                    v_opcode: "f64x2.lt" (73) 0x7b-0x7b.7 (1)
    |                                               |                |                  [3]{}: in 0x7c-0x7c.7 (1)
0x70|                                    0b         |            .   |                    opcode: "end" (0xb) 0x7c-0x7c.7 (1)
    |                                               |                |            [3]{}: code 0x7d-0x85.7 (9)
0x70|                                       08      |             .  |              size: 8 (valid) 0x7d-0x7d.7 (1)
    |                                               |                |              code{}: 0x7e-0x85.7 (8)
    |                                               |                |                t{}: 0x7e-0x7e.7 (1)
0x70|                                          00   |              . |                  n: 0 (valid) 0x7e-0x7e.7 (1)
    |                                               |                |                  x[0:0]: 0x7f-NA (0)
    |                                               |                |                e[0:4]: 0x7f-0x85.7 (7)
    |                                               |                |                  [0]{}: in 0x7f-0x80.7 (2)
0x70|                                             20|                |                    opcode: "local.get" (0x20) 0x7f-0x7f.7 (1)
0x80|00                                             |.               |                    x: 0 (valid) 0x80-0x80.7 (1)
    |                                               |                |                  [1]{}: in 0x81-0x82.7 (2)
0x80|   20                                          |                |                    opcode: "local.get" (0x20) 0x81-0x81.7 (1)
0x80|      01                                       |  .             |                    x: 1 (valid) 0x82-0x82.7 (1)
    |                                               |                |                  [2]{}: in 0x83-0x84.7 (2)
0x80|         fd                                    |   .            |                    opcode: "vector" (0xfd) 0x83-0x83.7 (1)
0x80|            4b                                 |    K           |                    v_opcode: "f64x2.le" (75) 0x84-0x84.7 (1)
    |                                               |                |                  [3]{}: in 0x85-0x85.7 (1)
0x80|               0b                              |     .          |                    opcode: "end" (0xb) 0x85-0x85.7 (1)
    |                                               |                |            [4]{}: code 0x86-0x8e.7 (9)
0x80|                  08                           |      .         |              size: 8 (valid) 0x86-0x86.7 (1)
    |                                               |                |              code{}: 0x87-0x8e.7 (8)
    |                                               |                |                t{}: 0x87-0x87.7 (1)
0x80|                     00                        |       .        |                  n: 0 (valid) 0x87-0x87.7 (1)
    |                                               |                |                  x[0:0]: 0x88-NA (0)
    |                                               |                |                e[0:4]: 0x88-0x8e.7 (7)
    |                                               |                |                  [0]{}: in 0x88-0x89.7 (2)
0x80|                        20                     |                |                    opcode: "local.get" (0x20) 0x88-0x88.7 (1)
0x80|                           00                  |         .      |                    x: 0 (valid) 0x89-0x89.7 (1)
    |                                               |                |                  [1]{}: in 0x8a-0x8b.7 (2)
0x80|                              20               |                |                    opcode: "local.get" (0x20) 0x8a-0x8a.7 (1)
0x80|                                 01            |           .    |                    x: 1 (valid) 0x8b-0x8b.7 (1)
    |                                               |                |                  [2]{}: in 0x8c-0x8d.7 (2)
0x80|                                    fd         |            .   |                    opcode: "vector" (0xfd) 0x8c-0x8c.7 (1)
0x80|                                       4a      |             J  |                    v_opcode: "f64x2.gt" (74) 0x8d-0x8d.7 (1)
    |                                               |                |                  [3]{}: in 0x8e-0x8e.7 (1)
0x80|                                          0b   |              . |                    opcode: "end" (0xb) 0x8e-0x8e.7 (1)
    |                                               |                |            [5]{}: code 0x8f-0x97.7 (9)
0x80|                                             08|               .|              size: 8 (valid) 0x8f-0x8f.7 (1)
    |                                               |                |              code{}: 0x90-0x97.7 (8)
    |                                               |                |                t{}: 0x90-0x90.7 (1)
0x90|00                                             |.               |                  n: 0 (valid) 0x90-0x90.7 (1)
    |                                               |                |                  x[0:0]: 0x91-NA (0)
    |                                               |                |                e[0:4]: 0x91-0x97.7 (7)
    |                                               |                |                  [0]{}: in 0x91-0x92.7 (2)
0x90|   20                                          |                |                    opcode: "local.get" (0x20) 0x91-0x91.7 (1)
0x90|      00                                       |  .             |                    x: 0 (valid) 0x92-0x92.7 (1)
    |                                               |                |                  [1]{}: in 0x93-0x94.7 (2)
0x90|         20                                    |                |                    opcode: "local.get" (0x20) 0x93-0x93.7 (1)
0x90|            01                                 |    .           |                    x: 1 (valid) 0x94-0x94.7 (1)
    |                                               |                |                  [2]{}: in 0x95-0x96.7 (2)
0x90|               fd                              |     .          |                    opcode: "vector" (0xfd) 0x95-0x95.7 (1)
0x90|                  4c                           |      L         |                    v_opcode: "f64x2.ge" (76) 0x96-0x96.7 (1)
    |                                               |                |                  [3]{}: in 0x97-0x97.7 (1)
0x90|                     0b|                       |       .|       |                    opcode: "end" (0xb) 0x97-0x97.7 (1)
