$ fq -d wasm dv simd_f32x4_pmin_pmax-0.wasm
    |00 01 02 03 04 05 06 07 08 09 0a 0b 0c 0d 0e 0f|0123456789abcdef|.{}: simd_f32x4_pmin_pmax-0.wasm (wasm) 0x0-0x4a (74)
0x00|00 61 73 6d                                    |.asm            |  magic: raw bits (valid) 0x0-0x4 (4)
0x00|            01 00 00 00                        |    ....        |  version: 1 0x4-0x8 (4)
    |                                               |                |  sections[0:4]: 0x8-0x4a (66)
    |                                               |                |    [0]{}: section 0x8-0x11 (9)
0x00|                        01                     |        .       |      id: "type_section" (1) 0x8-0x9 (1)
0x00|                           07                  |         .      |      size: 7 (valid) 0x9-0xa (1)
    |                                               |                |      content{}: 0xa-0x11 (7)
    |                                               |                |        ft{}: 0xa-0x11 (7)
0x00|                              01               |          .     |          n: 1 (valid) 0xa-0xb (1)
    |                                               |                |          x[0:1]: 0xb-0x11 (6)
    |                                               |                |            [0]{}: ft 0xb-0x11 (6)
0x00|                                 60            |           `    |              tag: 0x60 (valid) 0xb-0xc (1)
    |                                               |                |              rt1{}: 0xc-0xf (3)
0x00|                                    02         |            .   |                n: 2 (valid) 0xc-0xd (1)
    |                                               |                |                x[0:2]: 0xd-0xf (2)
0x00|                                       7b      |             {  |                  [0]: "v128" (0x7b) t 0xd-0xe (1)
0x00|                                          7b   |              { |                  [1]: "v128" (0x7b) t 0xe-0xf (1)
    |                                               |                |              rt2{}: 0xf-0x11 (2)
0x00|                                             01|               .|                n: 1 (valid) 0xf-0x10 (1)
    |                                               |                |                x[0:1]: 0x10-0x11 (1)
0x10|7b                                             |{               |                  [0]: "v128" (0x7b) t 0x10-0x11 (1)
    |                                               |                |    [1]{}: section 0x11-0x16 (5)
0x10|   03                                          | .              |      id: "function_section" (3) 0x11-0x12 (1)
0x10|      03                                       |  .             |      size: 3 (valid) 0x12-0x13 (1)
    |                                               |                |      content{}: 0x13-0x16 (3)
    |                                               |                |        x{}: 0x13-0x16 (3)
0x10|         02                                    |   .            |          n: 2 (valid) 0x13-0x14 (1)
    |                                               |                |          x[0:2]: 0x14-0x16 (2)
0x10|            00                                 |    .           |            [0]: 0 x (valid) 0x14-0x15 (1)
0x10|               00                              |     .          |            [1]: 0 x (valid) 0x15-0x16 (1)
    |                                               |                |    [2]{}: section 0x16-0x33 (29)
0x10|                  07                           |      .         |      id: "export_section" (7) 0x16-0x17 (1)
0x10|                     1b                        |       .        |      size: 27 (valid) 0x17-0x18 (1)
    |                                               |                |      content{}: 0x18-0x33 (27)
    |                                               |                |        ex{}: 0x18-0x33 (27)
0x10|                        02                     |        .       |          n: 2 (valid) 0x18-0x19 (1)
    |                                               |                |          x[0:2]: 0x19-0x33 (26)
    |                                               |                |            [0]{}: ex 0x19-0x26 (13)
    |                                               |                |              nm{}: 0x19-0x24 (11)
0x10|                           0a                  |         .      |                n: 10 (valid) 0x19-0x1a (1)
0x10|                              66 33 32 78 34 2e|          f32x4.|                b: "f32x4.pmin" 0x1a-0x24 (10)
0x20|70 6d 69 6e                                    |pmin            |
    |                                               |                |              d{}: 0x24-0x26 (2)
0x20|            00                                 |    .           |                tag: "funcidx" (0x0) 0x24-0x25 (1)
0x20|               00                              |     .          |                x: 0 (valid) 0x25-0x26 (1)
    |                                               |                |            [1]{}: ex 0x26-0x33 (13)
    |                                               |                |              nm{}: 0x26-0x31 (11)
0x20|                  0a                           |      .         |                n: 10 (valid) 0x26-0x27 (1)
0x20|                     66 33 32 78 34 2e 70 6d 61|       f32x4.pma|                b: "f32x4.pmax" 0x27-0x31 (10)
0x30|78                                             |x               |
    |                                               |                |              d{}: 0x31-0x33 (2)
0x30|   00                                          | .              |                tag: "funcidx" (0x0) 0x31-0x32 (1)
0x30|      01                                       |  .             |                x: 1 (valid) 0x32-0x33 (1)
    |                                               |                |    [3]{}: section 0x33-0x4a (23)
0x30|         0a                                    |   .            |      id: "code_section" (10) 0x33-0x34 (1)
0x30|            15                                 |    .           |      size: 21 (valid) 0x34-0x35 (1)
    |                                               |                |      content{}: 0x35-0x4a (21)
    |                                               |                |        code{}: 0x35-0x4a (21)
0x30|               02                              |     .          |          n: 2 (valid) 0x35-0x36 (1)
    |                                               |                |          x[0:2]: 0x36-0x4a (20)
    |                                               |                |            [0]{}: code 0x36-0x40 (10)
0x30|                  09                           |      .         |              size: 9 (valid) 0x36-0x37 (1)
    |                                               |                |              code{}: 0x37-0x40 (9)
    |                                               |                |                t{}: 0x37-0x38 (1)
0x30|                     00                        |       .        |                  n: 0 (valid) 0x37-0x38 (1)
    |                                               |                |                  x[0:0]: 0x38-0x38 (0)
    |                                               |                |                e[0:4]: 0x38-0x40 (8)
    |                                               |                |                  [0]{}: in 0x38-0x3a (2)
0x30|                        20                     |                |                    opcode: "local.get" (0x20) 0x38-0x39 (1)
0x30|                           00                  |         .      |                    x: 0 (valid) 0x39-0x3a (1)
    |                                               |                |                  [1]{}: in 0x3a-0x3c (2)
0x30|                              20               |                |                    opcode: "local.get" (0x20) 0x3a-0x3b (1)
0x30|                                 01            |           .    |                    x: 1 (valid) 0x3b-0x3c (1)
    |                                               |                |                  [2]{}: in 0x3c-0x3f (3)
0x30|                                    fd         |            .   |                    opcode: "vector" (0xfd) 0x3c-0x3d (1)
0x30|                                       ea 01   |             .. |                    v_opcode: "f32x4.pmin" (234) 0x3d-0x3f (2)
    |                                               |                |                  [3]{}: in 0x3f-0x40 (1)
0x30|                                             0b|               .|                    opcode: "end" (0xb) 0x3f-0x40 (1)
    |                                               |                |            [1]{}: code 0x40-0x4a (10)
0x40|09                                             |.               |              size: 9 (valid) 0x40-0x41 (1)
    |                                               |                |              code{}: 0x41-0x4a (9)
    |                                               |                |                t{}: 0x41-0x42 (1)
0x40|   00                                          | .              |                  n: 0 (valid) 0x41-0x42 (1)
    |                                               |                |                  x[0:0]: 0x42-0x42 (0)
    |                                               |                |                e[0:4]: 0x42-0x4a (8)
    |                                               |                |                  [0]{}: in 0x42-0x44 (2)
0x40|      20                                       |                |                    opcode: "local.get" (0x20) 0x42-0x43 (1)
0x40|         00                                    |   .            |                    x: 0 (valid) 0x43-0x44 (1)
    |                                               |                |                  [1]{}: in 0x44-0x46 (2)
0x40|            20                                 |                |                    opcode: "local.get" (0x20) 0x44-0x45 (1)
0x40|               01                              |     .          |                    x: 1 (valid) 0x45-0x46 (1)
    |                                               |                |                  [2]{}: in 0x46-0x49 (3)
0x40|                  fd                           |      .         |                    opcode: "vector" (0xfd) 0x46-0x47 (1)
0x40|                     eb 01                     |       ..       |                    v_opcode: "f32x4.pmax" (235) 0x47-0x49 (2)
    |                                               |                |                  [3]{}: in 0x49-0x4a (1)
0x40|                           0b|                 |         .|     |                    opcode: "end" (0xb) 0x49-0x4a (1)
