$ fq -d wasm dv simd_address-0.wasm
     |00 01 02 03 04 05 06 07 08 09 0a 0b 0c 0d 0e 0f|0123456789abcdef|.{}: simd_address-0.wasm (wasm) 0x0-0x223.7 (548)
0x000|00 61 73 6d                                    |.asm            |  magic: raw bits (valid) 0x0-0x3.7 (4)
0x000|            01 00 00 00                        |    ....        |  version: 1 0x4-0x7.7 (4)
     |                                               |                |  sections[0:6]: 0x8-0x223.7 (540)
     |                                               |                |    [0]{}: section 0x8-0x17.7 (16)
0x000|                        01                     |        .       |      id: "type section" (1) 0x8-0x8.7 (1)
0x000|                           0e                  |         .      |      size: 14 0x9-0x9.7 (1)
     |                                               |                |      content{}: 0xa-0x17.7 (14)
     |                                               |                |        ft{}: 0xa-0x17.7 (14)
0x000|                              03               |          .     |          n: 3 0xa-0xa.7 (1)
     |                                               |                |          x[0:3]: 0xb-0x17.7 (13)
     |                                               |                |            [0]{}: ft 0xb-0xf.7 (5)
0x000|                                 60            |           `    |              tag: 0x60 (valid) 0xb-0xb.7 (1)
     |                                               |                |              rt1{}: 0xc-0xd.7 (2)
0x000|                                    01         |            .   |                n: 1 0xc-0xc.7 (1)
     |                                               |                |                x[0:1]: 0xd-0xd.7 (1)
0x000|                                       7f      |             .  |                  [0]: "i32" (0x7f) t 0xd-0xd.7 (1)
     |                                               |                |              rt2{}: 0xe-0xf.7 (2)
0x000|                                          01   |              . |                n: 1 0xe-0xe.7 (1)
     |                                               |                |                x[0:1]: 0xf-0xf.7 (1)
0x000|                                             7b|               {|                  [0]: "v128" (0x7b) t 0xf-0xf.7 (1)
     |                                               |                |            [1]{}: ft 0x10-0x13.7 (4)
0x010|60                                             |`               |              tag: 0x60 (valid) 0x10-0x10.7 (1)
     |                                               |                |              rt1{}: 0x11-0x11.7 (1)
0x010|   00                                          | .              |                n: 0 0x11-0x11.7 (1)
     |                                               |                |                x[0:0]: 0x12-NA (0)
     |                                               |                |              rt2{}: 0x12-0x13.7 (2)
0x010|      01                                       |  .             |                n: 1 0x12-0x12.7 (1)
     |                                               |                |                x[0:1]: 0x13-0x13.7 (1)
0x010|         7b                                    |   {            |                  [0]: "v128" (0x7b) t 0x13-0x13.7 (1)
     |                                               |                |            [2]{}: ft 0x14-0x17.7 (4)
0x010|            60                                 |    `           |              tag: 0x60 (valid) 0x14-0x14.7 (1)
     |                                               |                |              rt1{}: 0x15-0x16.7 (2)
0x010|               01                              |     .          |                n: 1 0x15-0x15.7 (1)
     |                                               |                |                x[0:1]: 0x16-0x16.7 (1)
0x010|                  7f                           |      .         |                  [0]: "i32" (0x7f) t 0x16-0x16.7 (1)
     |                                               |                |              rt2{}: 0x17-0x17.7 (1)
0x010|                     00                        |       .        |                n: 0 0x17-0x17.7 (1)
     |                                               |                |                x[0:0]: 0x18-NA (0)
     |                                               |                |    [1]{}: section 0x18-0x26.7 (15)
0x010|                        03                     |        .       |      id: "function section" (3) 0x18-0x18.7 (1)
0x010|                           0d                  |         .      |      size: 13 0x19-0x19.7 (1)
     |                                               |                |      content{}: 0x1a-0x26.7 (13)
     |                                               |                |        x{}: 0x1a-0x26.7 (13)
0x010|                              0c               |          .     |          n: 12 0x1a-0x1a.7 (1)
     |                                               |                |          x[0:12]: 0x1b-0x26.7 (12)
0x010|                                 00            |           .    |            [0]: 0 x 0x1b-0x1b.7 (1)
0x010|                                    00         |            .   |            [1]: 0 x 0x1c-0x1c.7 (1)
0x010|                                       00      |             .  |            [2]: 0 x 0x1d-0x1d.7 (1)
0x010|                                          00   |              . |            [3]: 0 x 0x1e-0x1e.7 (1)
0x010|                                             00|               .|            [4]: 0 x 0x1f-0x1f.7 (1)
0x020|01                                             |.               |            [5]: 1 x 0x20-0x20.7 (1)
0x020|   01                                          | .              |            [6]: 1 x 0x21-0x21.7 (1)
0x020|      01                                       |  .             |            [7]: 1 x 0x22-0x22.7 (1)
0x020|         01                                    |   .            |            [8]: 1 x 0x23-0x23.7 (1)
0x020|            01                                 |    .           |            [9]: 1 x 0x24-0x24.7 (1)
0x020|               01                              |     .          |            [10]: 1 x 0x25-0x25.7 (1)
0x020|                  02                           |      .         |            [11]: 2 x 0x26-0x26.7 (1)
     |                                               |                |    [2]{}: section 0x27-0x2b.7 (5)
0x020|                     05                        |       .        |      id: "memory section" (5) 0x27-0x27.7 (1)
0x020|                        03                     |        .       |      size: 3 0x28-0x28.7 (1)
     |                                               |                |      content{}: 0x29-0x2b.7 (3)
     |                                               |                |        mem{}: 0x29-0x2b.7 (3)
0x020|                           01                  |         .      |          n: 1 0x29-0x29.7 (1)
     |                                               |                |          x[0:1]: 0x2a-0x2b.7 (2)
     |                                               |                |            [0]{}: mem 0x2a-0x2b.7 (2)
     |                                               |                |              lim{}: 0x2a-0x2b.7 (2)
0x020|                              00               |          .     |                tag: 0x0 0x2a-0x2a.7 (1)
0x020|                                 01            |           .    |                n: 1 0x2b-0x2b.7 (1)
     |                                               |                |    [3]{}: section 0x2c-0xde.7 (179)
0x020|                                    07         |            .   |      id: "export section" (7) 0x2c-0x2c.7 (1)
0x020|                                       b0 01   |             .. |      size: 176 0x2d-0x2e.7 (2)
     |                                               |                |      content{}: 0x2f-0xde.7 (176)
     |                                               |                |        ex{}: 0x2f-0xde.7 (176)
0x020|                                             0c|               .|          n: 12 0x2f-0x2f.7 (1)
     |                                               |                |          x[0:12]: 0x30-0xde.7 (175)
     |                                               |                |            [0]{}: ex 0x30-0x3d.7 (14)
     |                                               |                |              nm{}: 0x30-0x3b.7 (12)
0x030|0b                                             |.               |                n: 11 0x30-0x30.7 (1)
0x030|   6c 6f 61 64 5f 64 61 74 61 5f 31            | load_data_1    |                b: "load_data_1" 0x31-0x3b.7 (11)
     |                                               |                |              d{}: 0x3c-0x3d.7 (2)
0x030|                                    00         |            .   |                tag: "funcidx" (0x0) 0x3c-0x3c.7 (1)
0x030|                                       00      |             .  |                x: 0 0x3d-0x3d.7 (1)
     |                                               |                |            [1]{}: ex 0x3e-0x4b.7 (14)
     |                                               |                |              nm{}: 0x3e-0x49.7 (12)
0x030|                                          0b   |              . |                n: 11 0x3e-0x3e.7 (1)
0x030|                                             6c|               l|                b: "load_data_2" 0x3f-0x49.7 (11)
0x040|6f 61 64 5f 64 61 74 61 5f 32                  |oad_data_2      |
     |                                               |                |              d{}: 0x4a-0x4b.7 (2)
0x040|                              00               |          .     |                tag: "funcidx" (0x0) 0x4a-0x4a.7 (1)
0x040|                                 01            |           .    |                x: 1 0x4b-0x4b.7 (1)
     |                                               |                |            [2]{}: ex 0x4c-0x59.7 (14)
     |                                               |                |              nm{}: 0x4c-0x57.7 (12)
0x040|                                    0b         |            .   |                n: 11 0x4c-0x4c.7 (1)
0x040|                                       6c 6f 61|             loa|                b: "load_data_3" 0x4d-0x57.7 (11)
0x050|64 5f 64 61 74 61 5f 33                        |d_data_3        |
     |                                               |                |              d{}: 0x58-0x59.7 (2)
0x050|                        00                     |        .       |                tag: "funcidx" (0x0) 0x58-0x58.7 (1)
0x050|                           02                  |         .      |                x: 2 0x59-0x59.7 (1)
     |                                               |                |            [3]{}: ex 0x5a-0x67.7 (14)
     |                                               |                |              nm{}: 0x5a-0x65.7 (12)
0x050|                              0b               |          .     |                n: 11 0x5a-0x5a.7 (1)
0x050|                                 6c 6f 61 64 5f|           load_|                b: "load_data_4" 0x5b-0x65.7 (11)
0x060|64 61 74 61 5f 34                              |data_4          |
     |                                               |                |              d{}: 0x66-0x67.7 (2)
0x060|                  00                           |      .         |                tag: "funcidx" (0x0) 0x66-0x66.7 (1)
0x060|                     03                        |       .        |                x: 3 0x67-0x67.7 (1)
     |                                               |                |            [4]{}: ex 0x68-0x75.7 (14)
     |                                               |                |              nm{}: 0x68-0x73.7 (12)
0x060|                        0b                     |        .       |                n: 11 0x68-0x68.7 (1)
0x060|                           6c 6f 61 64 5f 64 61|         load_da|                b: "load_data_5" 0x69-0x73.7 (11)
0x070|74 61 5f 35                                    |ta_5            |
     |                                               |                |              d{}: 0x74-0x75.7 (2)
0x070|            00                                 |    .           |                tag: "funcidx" (0x0) 0x74-0x74.7 (1)
0x070|               04                              |     .          |                x: 4 0x75-0x75.7 (1)
     |                                               |                |            [5]{}: ex 0x76-0x84.7 (15)
     |                                               |                |              nm{}: 0x76-0x82.7 (13)
0x070|                  0c                           |      .         |                n: 12 0x76-0x76.7 (1)
0x070|                     73 74 6f 72 65 5f 64 61 74|       store_dat|                b: "store_data_0" 0x77-0x82.7 (12)
0x080|61 5f 30                                       |a_0             |
     |                                               |                |              d{}: 0x83-0x84.7 (2)
0x080|         00                                    |   .            |                tag: "funcidx" (0x0) 0x83-0x83.7 (1)
0x080|            05                                 |    .           |                x: 5 0x84-0x84.7 (1)
     |                                               |                |            [6]{}: ex 0x85-0x93.7 (15)
     |                                               |                |              nm{}: 0x85-0x91.7 (13)
0x080|               0c                              |     .          |                n: 12 0x85-0x85.7 (1)
0x080|                  73 74 6f 72 65 5f 64 61 74 61|      store_data|                b: "store_data_1" 0x86-0x91.7 (12)
0x090|5f 31                                          |_1              |
     |                                               |                |              d{}: 0x92-0x93.7 (2)
0x090|      00                                       |  .             |                tag: "funcidx" (0x0) 0x92-0x92.7 (1)
0x090|         06                                    |   .            |                x: 6 0x93-0x93.7 (1)
     |                                               |                |            [7]{}: ex 0x94-0xa2.7 (15)
     |                                               |                |              nm{}: 0x94-0xa0.7 (13)
0x090|            0c                                 |    .           |                n: 12 0x94-0x94.7 (1)
0x090|               73 74 6f 72 65 5f 64 61 74 61 5f|     store_data_|                b: "store_data_2" 0x95-0xa0.7 (12)
0x0a0|32                                             |2               |
     |                                               |                |              d{}: 0xa1-0xa2.7 (2)
0x0a0|   00                                          | .              |                tag: "funcidx" (0x0) 0xa1-0xa1.7 (1)
0x0a0|      07                                       |  .             |                x: 7 0xa2-0xa2.7 (1)
     |                                               |                |            [8]{}: ex 0xa3-0xb1.7 (15)
     |                                               |                |              nm{}: 0xa3-0xaf.7 (13)
0x0a0|         0c                                    |   .            |                n: 12 0xa3-0xa3.7 (1)
0x0a0|            73 74 6f 72 65 5f 64 61 74 61 5f 33|    store_data_3|                b: "store_data_3" 0xa4-0xaf.7 (12)
     |                                               |                |              d{}: 0xb0-0xb1.7 (2)
0x0b0|00                                             |.               |                tag: "funcidx" (0x0) 0xb0-0xb0.7 (1)
0x0b0|   08                                          | .              |                x: 8 0xb1-0xb1.7 (1)
     |                                               |                |            [9]{}: ex 0xb2-0xc0.7 (15)
     |                                               |                |              nm{}: 0xb2-0xbe.7 (13)
0x0b0|      0c                                       |  .             |                n: 12 0xb2-0xb2.7 (1)
0x0b0|         73 74 6f 72 65 5f 64 61 74 61 5f 34   |   store_data_4 |                b: "store_data_4" 0xb3-0xbe.7 (12)
     |                                               |                |              d{}: 0xbf-0xc0.7 (2)
0x0b0|                                             00|               .|                tag: "funcidx" (0x0) 0xbf-0xbf.7 (1)
0x0c0|09                                             |.               |                x: 9 0xc0-0xc0.7 (1)
     |                                               |                |            [10]{}: ex 0xc1-0xcf.7 (15)
     |                                               |                |              nm{}: 0xc1-0xcd.7 (13)
0x0c0|   0c                                          | .              |                n: 12 0xc1-0xc1.7 (1)
0x0c0|      73 74 6f 72 65 5f 64 61 74 61 5f 35      |  store_data_5  |                b: "store_data_5" 0xc2-0xcd.7 (12)
     |                                               |                |              d{}: 0xce-0xcf.7 (2)
0x0c0|                                          00   |              . |                tag: "funcidx" (0x0) 0xce-0xce.7 (1)
0x0c0|                                             0a|               .|                x: 10 0xcf-0xcf.7 (1)
     |                                               |                |            [11]{}: ex 0xd0-0xde.7 (15)
     |                                               |                |              nm{}: 0xd0-0xdc.7 (13)
0x0d0|0c                                             |.               |                n: 12 0xd0-0xd0.7 (1)
0x0d0|   73 74 6f 72 65 5f 64 61 74 61 5f 36         | store_data_6   |                b: "store_data_6" 0xd1-0xdc.7 (12)
     |                                               |                |              d{}: 0xdd-0xde.7 (2)
0x0d0|                                       00      |             .  |                tag: "funcidx" (0x0) 0xdd-0xdd.7 (1)
0x0d0|                                          0b   |              . |                x: 11 0xde-0xde.7 (1)
     |                                               |                |    [4]{}: section 0xdf-0x1f4.7 (278)
0x0d0|                                             0a|               .|      id: "code section" (10) 0xdf-0xdf.7 (1)
0x0e0|93 02                                          |..              |      size: 275 0xe0-0xe1.7 (2)
     |                                               |                |      content{}: 0xe2-0x1f4.7 (275)
     |                                               |                |        code{}: 0xe2-0x1f4.7 (275)
0x0e0|      0c                                       |  .             |          n: 12 0xe2-0xe2.7 (1)
     |                                               |                |          x[0:12]: 0xe3-0x1f4.7 (274)
     |                                               |                |            [0]{}: code 0xe3-0xeb.7 (9)
0x0e0|         08                                    |   .            |              size: 8 0xe3-0xe3.7 (1)
     |                                               |                |              code{}: 0xe4-0xeb.7 (8)
     |                                               |                |                t{}: 0xe4-0xe4.7 (1)
0x0e0|            00                                 |    .           |                  n: 0 0xe4-0xe4.7 (1)
     |                                               |                |                  x[0:0]: 0xe5-NA (0)
     |                                               |                |                e[0:3]: 0xe5-0xeb.7 (7)
     |                                               |                |                  [0]{}: in 0xe5-0xe6.7 (2)
0x0e0|               20                              |                |                    local.get: 0x20 (valid) 0xe5-0xe5.7 (1)
0x0e0|                  00                           |      .         |                    x: 0 0xe6-0xe6.7 (1)
     |                                               |                |                  [1]{}: in 0xe7-0xea.7 (4)
0x0e0|                     fd                        |       .        |                    prefix: 0xfd (valid) 0xe7-0xe7.7 (1)
0x0e0|                        00                     |        .       |                    v128.load: 0 (valid) 0xe8-0xe8.7 (1)
     |                                               |                |                    m{}: 0xe9-0xea.7 (2)
0x0e0|                           04                  |         .      |                      a: 4 0xe9-0xe9.7 (1)
0x0e0|                              00               |          .     |                      o: 0 0xea-0xea.7 (1)
     |                                               |                |                  [2]{}: in 0xeb-0xeb.7 (1)
0x0e0|                                 0b            |           .    |                    end: 0xb (valid) 0xeb-0xeb.7 (1)
     |                                               |                |            [1]{}: code 0xec-0xf4.7 (9)
0x0e0|                                    08         |            .   |              size: 8 0xec-0xec.7 (1)
     |                                               |                |              code{}: 0xed-0xf4.7 (8)
     |                                               |                |                t{}: 0xed-0xed.7 (1)
0x0e0|                                       00      |             .  |                  n: 0 0xed-0xed.7 (1)
     |                                               |                |                  x[0:0]: 0xee-NA (0)
     |                                               |                |                e[0:3]: 0xee-0xf4.7 (7)
     |                                               |                |                  [0]{}: in 0xee-0xef.7 (2)
0x0e0|                                          20   |                |                    local.get: 0x20 (valid) 0xee-0xee.7 (1)
0x0e0|                                             00|               .|                    x: 0 0xef-0xef.7 (1)
     |                                               |                |                  [1]{}: in 0xf0-0xf3.7 (4)
0x0f0|fd                                             |.               |                    prefix: 0xfd (valid) 0xf0-0xf0.7 (1)
0x0f0|   00                                          | .              |                    v128.load: 0 (valid) 0xf1-0xf1.7 (1)
     |                                               |                |                    m{}: 0xf2-0xf3.7 (2)
0x0f0|      00                                       |  .             |                      a: 0 0xf2-0xf2.7 (1)
0x0f0|         00                                    |   .            |                      o: 0 0xf3-0xf3.7 (1)
     |                                               |                |                  [2]{}: in 0xf4-0xf4.7 (1)
0x0f0|            0b                                 |    .           |                    end: 0xb (valid) 0xf4-0xf4.7 (1)
     |                                               |                |            [2]{}: code 0xf5-0xfd.7 (9)
0x0f0|               08                              |     .          |              size: 8 0xf5-0xf5.7 (1)
     |                                               |                |              code{}: 0xf6-0xfd.7 (8)
     |                                               |                |                t{}: 0xf6-0xf6.7 (1)
0x0f0|                  00                           |      .         |                  n: 0 0xf6-0xf6.7 (1)
     |                                               |                |                  x[0:0]: 0xf7-NA (0)
     |                                               |                |                e[0:3]: 0xf7-0xfd.7 (7)
     |                                               |                |                  [0]{}: in 0xf7-0xf8.7 (2)
0x0f0|                     20                        |                |                    local.get: 0x20 (valid) 0xf7-0xf7.7 (1)
0x0f0|                        00                     |        .       |                    x: 0 0xf8-0xf8.7 (1)
     |                                               |                |                  [1]{}: in 0xf9-0xfc.7 (4)
0x0f0|                           fd                  |         .      |                    prefix: 0xfd (valid) 0xf9-0xf9.7 (1)
0x0f0|                              00               |          .     |                    v128.load: 0 (valid) 0xfa-0xfa.7 (1)
     |                                               |                |                    m{}: 0xfb-0xfc.7 (2)
0x0f0|                                 00            |           .    |                      a: 0 0xfb-0xfb.7 (1)
0x0f0|                                    01         |            .   |                      o: 1 0xfc-0xfc.7 (1)
     |                                               |                |                  [2]{}: in 0xfd-0xfd.7 (1)
0x0f0|                                       0b      |             .  |                    end: 0xb (valid) 0xfd-0xfd.7 (1)
     |                                               |                |            [3]{}: code 0xfe-0x106.7 (9)
0x0f0|                                          08   |              . |              size: 8 0xfe-0xfe.7 (1)
     |                                               |                |              code{}: 0xff-0x106.7 (8)
     |                                               |                |                t{}: 0xff-0xff.7 (1)
0x0f0|                                             00|               .|                  n: 0 0xff-0xff.7 (1)
     |                                               |                |                  x[0:0]: 0x100-NA (0)
     |                                               |                |                e[0:3]: 0x100-0x106.7 (7)
     |                                               |                |                  [0]{}: in 0x100-0x101.7 (2)
0x100|20                                             |                |                    local.get: 0x20 (valid) 0x100-0x100.7 (1)
0x100|   00                                          | .              |                    x: 0 0x101-0x101.7 (1)
     |                                               |                |                  [1]{}: in 0x102-0x105.7 (4)
0x100|      fd                                       |  .             |                    prefix: 0xfd (valid) 0x102-0x102.7 (1)
0x100|         00                                    |   .            |                    v128.load: 0 (valid) 0x103-0x103.7 (1)
     |                                               |                |                    m{}: 0x104-0x105.7 (2)
0x100|            00                                 |    .           |                      a: 0 0x104-0x104.7 (1)
0x100|               02                              |     .          |                      o: 2 0x105-0x105.7 (1)
     |                                               |                |                  [2]{}: in 0x106-0x106.7 (1)
0x100|                  0b                           |      .         |                    end: 0xb (valid) 0x106-0x106.7 (1)
     |                                               |                |            [4]{}: code 0x107-0x10f.7 (9)
0x100|                     08                        |       .        |              size: 8 0x107-0x107.7 (1)
     |                                               |                |              code{}: 0x108-0x10f.7 (8)
     |                                               |                |                t{}: 0x108-0x108.7 (1)
0x100|                        00                     |        .       |                  n: 0 0x108-0x108.7 (1)
     |                                               |                |                  x[0:0]: 0x109-NA (0)
     |                                               |                |                e[0:3]: 0x109-0x10f.7 (7)
     |                                               |                |                  [0]{}: in 0x109-0x10a.7 (2)
0x100|                           20                  |                |                    local.get: 0x20 (valid) 0x109-0x109.7 (1)
0x100|                              00               |          .     |                    x: 0 0x10a-0x10a.7 (1)
     |                                               |                |                  [1]{}: in 0x10b-0x10e.7 (4)
0x100|                                 fd            |           .    |                    prefix: 0xfd (valid) 0x10b-0x10b.7 (1)
0x100|                                    00         |            .   |                    v128.load: 0 (valid) 0x10c-0x10c.7 (1)
     |                                               |                |                    m{}: 0x10d-0x10e.7 (2)
0x100|                                       00      |             .  |                      a: 0 0x10d-0x10d.7 (1)
0x100|                                          0f   |              . |                      o: 15 0x10e-0x10e.7 (1)
     |                                               |                |                  [2]{}: in 0x10f-0x10f.7 (1)
0x100|                                             0b|               .|                    end: 0xb (valid) 0x10f-0x10f.7 (1)
     |                                               |                |            [5]{}: code 0x110-0x130.7 (33)
0x110|20                                             |                |              size: 32 0x110-0x110.7 (1)
     |                                               |                |              code{}: 0x111-0x130.7 (32)
     |                                               |                |                t{}: 0x111-0x111.7 (1)
0x110|   00                                          | .              |                  n: 0 0x111-0x111.7 (1)
     |                                               |                |                  x[0:0]: 0x112-NA (0)
     |                                               |                |                e[0:6]: 0x112-0x130.7 (31)
     |                                               |                |                  [0]{}: in 0x112-0x113.7 (2)
0x110|      41                                       |  A             |                    i32.const: 0x41 (valid) 0x112-0x112.7 (1)
0x110|         00                                    |   .            |                    n: 0 0x113-0x113.7 (1)
     |                                               |                |                  [1]{}: in 0x114-0x125.7 (18)
0x110|            fd                                 |    .           |                    prefix: 0xfd (valid) 0x114-0x114.7 (1)
0x110|               0c                              |     .          |                    v128.const: 12 (valid) 0x115-0x115.7 (1)
0x110|                  00 00 00 00 00 00 80 3f 00 00|      .......?..|                    bytes: raw bits 0x116-0x125.7 (16)
0x120|00 40 00 00 40 40                              |.@..@@          |
     |                                               |                |                  [2]{}: in 0x126-0x129.7 (4)
0x120|                  fd                           |      .         |                    prefix: 0xfd (valid) 0x126-0x126.7 (1)
0x120|                     0b                        |       .        |                    v128.store: 11 (valid) 0x127-0x127.7 (1)
     |                                               |                |                    m{}: 0x128-0x129.7 (2)
0x120|                        04                     |        .       |                      a: 4 0x128-0x128.7 (1)
0x120|                           00                  |         .      |                      o: 0 0x129-0x129.7 (1)
     |                                               |                |                  [3]{}: in 0x12a-0x12b.7 (2)
0x120|                              41               |          A     |                    i32.const: 0x41 (valid) 0x12a-0x12a.7 (1)
0x120|                                 00            |           .    |                    n: 0 0x12b-0x12b.7 (1)
     |                                               |                |                  [4]{}: in 0x12c-0x12f.7 (4)
0x120|                                    fd         |            .   |                    prefix: 0xfd (valid) 0x12c-0x12c.7 (1)
0x120|                                       00      |             .  |                    v128.load: 0 (valid) 0x12d-0x12d.7 (1)
     |                                               |                |                    m{}: 0x12e-0x12f.7 (2)
0x120|                                          04   |              . |                      a: 4 0x12e-0x12e.7 (1)
0x120|                                             00|               .|                      o: 0 0x12f-0x12f.7 (1)
     |                                               |                |                  [5]{}: in 0x130-0x130.7 (1)
0x130|0b                                             |.               |                    end: 0xb (valid) 0x130-0x130.7 (1)
     |                                               |                |            [6]{}: code 0x131-0x151.7 (33)
0x130|   20                                          |                |              size: 32 0x131-0x131.7 (1)
     |                                               |                |              code{}: 0x132-0x151.7 (32)
     |                                               |                |                t{}: 0x132-0x132.7 (1)
0x130|      00                                       |  .             |                  n: 0 0x132-0x132.7 (1)
     |                                               |                |                  x[0:0]: 0x133-NA (0)
     |                                               |                |                e[0:6]: 0x133-0x151.7 (31)
     |                                               |                |                  [0]{}: in 0x133-0x134.7 (2)
0x130|         41                                    |   A            |                    i32.const: 0x41 (valid) 0x133-0x133.7 (1)
0x130|            00                                 |    .           |                    n: 0 0x134-0x134.7 (1)
     |                                               |                |                  [1]{}: in 0x135-0x146.7 (18)
0x130|               fd                              |     .          |                    prefix: 0xfd (valid) 0x135-0x135.7 (1)
0x130|                  0c                           |      .         |                    v128.const: 12 (valid) 0x136-0x136.7 (1)
0x130|                     00 00 00 00 01 00 00 00 02|       .........|                    bytes: raw bits 0x137-0x146.7 (16)
0x140|00 00 00 03 00 00 00                           |.......         |
     |                                               |                |                  [2]{}: in 0x147-0x14a.7 (4)
0x140|                     fd                        |       .        |                    prefix: 0xfd (valid) 0x147-0x147.7 (1)
0x140|                        0b                     |        .       |                    v128.store: 11 (valid) 0x148-0x148.7 (1)
     |                                               |                |                    m{}: 0x149-0x14a.7 (2)
0x140|                           00                  |         .      |                      a: 0 0x149-0x149.7 (1)
0x140|                              00               |          .     |                      o: 0 0x14a-0x14a.7 (1)
     |                                               |                |                  [3]{}: in 0x14b-0x14c.7 (2)
0x140|                                 41            |           A    |                    i32.const: 0x41 (valid) 0x14b-0x14b.7 (1)
0x140|                                    00         |            .   |                    n: 0 0x14c-0x14c.7 (1)
     |                                               |                |                  [4]{}: in 0x14d-0x150.7 (4)
0x140|                                       fd      |             .  |                    prefix: 0xfd (valid) 0x14d-0x14d.7 (1)
0x140|                                          00   |              . |                    v128.load: 0 (valid) 0x14e-0x14e.7 (1)
     |                                               |                |                    m{}: 0x14f-0x150.7 (2)
0x140|                                             00|               .|                      a: 0 0x14f-0x14f.7 (1)
0x150|00                                             |.               |                      o: 0 0x150-0x150.7 (1)
     |                                               |                |                  [5]{}: in 0x151-0x151.7 (1)
0x150|   0b                                          | .              |                    end: 0xb (valid) 0x151-0x151.7 (1)
     |                                               |                |            [7]{}: code 0x152-0x172.7 (33)
0x150|      20                                       |                |              size: 32 0x152-0x152.7 (1)
     |                                               |                |              code{}: 0x153-0x172.7 (32)
     |                                               |                |                t{}: 0x153-0x153.7 (1)
0x150|         00                                    |   .            |                  n: 0 0x153-0x153.7 (1)
     |                                               |                |                  x[0:0]: 0x154-NA (0)
     |                                               |                |                e[0:6]: 0x154-0x172.7 (31)
     |                                               |                |                  [0]{}: in 0x154-0x155.7 (2)
0x150|            41                                 |    A           |                    i32.const: 0x41 (valid) 0x154-0x154.7 (1)
0x150|               00                              |     .          |                    n: 0 0x155-0x155.7 (1)
     |                                               |                |                  [1]{}: in 0x156-0x167.7 (18)
0x150|                  fd                           |      .         |                    prefix: 0xfd (valid) 0x156-0x156.7 (1)
0x150|                     0c                        |       .        |                    v128.const: 12 (valid) 0x157-0x157.7 (1)
0x150|                        00 00 01 00 02 00 03 00|        ........|                    bytes: raw bits 0x158-0x167.7 (16)
0x160|04 00 05 00 06 00 07 00                        |........        |
     |                                               |                |                  [2]{}: in 0x168-0x16b.7 (4)
0x160|                        fd                     |        .       |                    prefix: 0xfd (valid) 0x168-0x168.7 (1)
0x160|                           0b                  |         .      |                    v128.store: 11 (valid) 0x169-0x169.7 (1)
     |                                               |                |                    m{}: 0x16a-0x16b.7 (2)
0x160|                              00               |          .     |                      a: 0 0x16a-0x16a.7 (1)
0x160|                                 01            |           .    |                      o: 1 0x16b-0x16b.7 (1)
     |                                               |                |                  [3]{}: in 0x16c-0x16d.7 (2)
0x160|                                    41         |            A   |                    i32.const: 0x41 (valid) 0x16c-0x16c.7 (1)
0x160|                                       00      |             .  |                    n: 0 0x16d-0x16d.7 (1)
     |                                               |                |                  [4]{}: in 0x16e-0x171.7 (4)
0x160|                                          fd   |              . |                    prefix: 0xfd (valid) 0x16e-0x16e.7 (1)
0x160|                                             00|               .|                    v128.load: 0 (valid) 0x16f-0x16f.7 (1)
     |                                               |                |                    m{}: 0x170-0x171.7 (2)
0x170|00                                             |.               |                      a: 0 0x170-0x170.7 (1)
0x170|   01                                          | .              |                      o: 1 0x171-0x171.7 (1)
     |                                               |                |                  [5]{}: in 0x172-0x172.7 (1)
0x170|      0b                                       |  .             |                    end: 0xb (valid) 0x172-0x172.7 (1)
     |                                               |                |            [8]{}: code 0x173-0x193.7 (33)
0x170|         20                                    |                |              size: 32 0x173-0x173.7 (1)
     |                                               |                |              code{}: 0x174-0x193.7 (32)
     |                                               |                |                t{}: 0x174-0x174.7 (1)
0x170|            00                                 |    .           |                  n: 0 0x174-0x174.7 (1)
     |                                               |                |                  x[0:0]: 0x175-NA (0)
     |                                               |                |                e[0:6]: 0x175-0x193.7 (31)
     |                                               |                |                  [0]{}: in 0x175-0x176.7 (2)
0x170|               41                              |     A          |                    i32.const: 0x41 (valid) 0x175-0x175.7 (1)
0x170|                  00                           |      .         |                    n: 0 0x176-0x176.7 (1)
     |                                               |                |                  [1]{}: in 0x177-0x188.7 (18)
0x170|                     fd                        |       .        |                    prefix: 0xfd (valid) 0x177-0x177.7 (1)
0x170|                        0c                     |        .       |                    v128.const: 12 (valid) 0x178-0x178.7 (1)
0x170|                           00 01 02 03 04 05 06|         .......|                    bytes: raw bits 0x179-0x188.7 (16)
0x180|07 08 09 0a 0b 0c 0d 0e 0f                     |.........       |
     |                                               |                |                  [2]{}: in 0x189-0x18c.7 (4)
0x180|                           fd                  |         .      |                    prefix: 0xfd (valid) 0x189-0x189.7 (1)
0x180|                              0b               |          .     |                    v128.store: 11 (valid) 0x18a-0x18a.7 (1)
     |                                               |                |                    m{}: 0x18b-0x18c.7 (2)
0x180|                                 00            |           .    |                      a: 0 0x18b-0x18b.7 (1)
0x180|                                    02         |            .   |                      o: 2 0x18c-0x18c.7 (1)
     |                                               |                |                  [3]{}: in 0x18d-0x18e.7 (2)
0x180|                                       41      |             A  |                    i32.const: 0x41 (valid) 0x18d-0x18d.7 (1)
0x180|                                          00   |              . |                    n: 0 0x18e-0x18e.7 (1)
     |                                               |                |                  [4]{}: in 0x18f-0x192.7 (4)
0x180|                                             fd|               .|                    prefix: 0xfd (valid) 0x18f-0x18f.7 (1)
0x190|00                                             |.               |                    v128.load: 0 (valid) 0x190-0x190.7 (1)
     |                                               |                |                    m{}: 0x191-0x192.7 (2)
0x190|   00                                          | .              |                      a: 0 0x191-0x191.7 (1)
0x190|      02                                       |  .             |                      o: 2 0x192-0x192.7 (1)
     |                                               |                |                  [5]{}: in 0x193-0x193.7 (1)
0x190|         0b                                    |   .            |                    end: 0xb (valid) 0x193-0x193.7 (1)
     |                                               |                |            [9]{}: code 0x194-0x1b4.7 (33)
0x190|            20                                 |                |              size: 32 0x194-0x194.7 (1)
     |                                               |                |              code{}: 0x195-0x1b4.7 (32)
     |                                               |                |                t{}: 0x195-0x195.7 (1)
0x190|               00                              |     .          |                  n: 0 0x195-0x195.7 (1)
     |                                               |                |                  x[0:0]: 0x196-NA (0)
     |                                               |                |                e[0:6]: 0x196-0x1b4.7 (31)
     |                                               |                |                  [0]{}: in 0x196-0x197.7 (2)
0x190|                  41                           |      A         |                    i32.const: 0x41 (valid) 0x196-0x196.7 (1)
0x190|                     00                        |       .        |                    n: 0 0x197-0x197.7 (1)
     |                                               |                |                  [1]{}: in 0x198-0x1a9.7 (18)
0x190|                        fd                     |        .       |                    prefix: 0xfd (valid) 0x198-0x198.7 (1)
0x190|                           0c                  |         .      |                    v128.const: 12 (valid) 0x199-0x199.7 (1)
0x190|                              00 00 00 00 01 00|          ......|                    bytes: raw bits 0x19a-0x1a9.7 (16)
0x1a0|00 00 02 00 00 00 03 00 00 00                  |..........      |
     |                                               |                |                  [2]{}: in 0x1aa-0x1ad.7 (4)
0x1a0|                              fd               |          .     |                    prefix: 0xfd (valid) 0x1aa-0x1aa.7 (1)
0x1a0|                                 0b            |           .    |                    v128.store: 11 (valid) 0x1ab-0x1ab.7 (1)
     |                                               |                |                    m{}: 0x1ac-0x1ad.7 (2)
0x1a0|                                    00         |            .   |                      a: 0 0x1ac-0x1ac.7 (1)
0x1a0|                                       0f      |             .  |                      o: 15 0x1ad-0x1ad.7 (1)
     |                                               |                |                  [3]{}: in 0x1ae-0x1af.7 (2)
0x1a0|                                          41   |              A |                    i32.const: 0x41 (valid) 0x1ae-0x1ae.7 (1)
0x1a0|                                             00|               .|                    n: 0 0x1af-0x1af.7 (1)
     |                                               |                |                  [4]{}: in 0x1b0-0x1b3.7 (4)
0x1b0|fd                                             |.               |                    prefix: 0xfd (valid) 0x1b0-0x1b0.7 (1)
0x1b0|   00                                          | .              |                    v128.load: 0 (valid) 0x1b1-0x1b1.7 (1)
     |                                               |                |                    m{}: 0x1b2-0x1b3.7 (2)
0x1b0|      04                                       |  .             |                      a: 4 0x1b2-0x1b2.7 (1)
0x1b0|         0f                                    |   .            |                      o: 15 0x1b3-0x1b3.7 (1)
     |                                               |                |                  [5]{}: in 0x1b4-0x1b4.7 (1)
0x1b0|            0b                                 |    .           |                    end: 0xb (valid) 0x1b4-0x1b4.7 (1)
     |                                               |                |            [10]{}: code 0x1b5-0x1d9.7 (37)
0x1b0|               24                              |     $          |              size: 36 0x1b5-0x1b5.7 (1)
     |                                               |                |              code{}: 0x1b6-0x1d9.7 (36)
     |                                               |                |                t{}: 0x1b6-0x1b6.7 (1)
0x1b0|                  00                           |      .         |                  n: 0 0x1b6-0x1b6.7 (1)
     |                                               |                |                  x[0:0]: 0x1b7-NA (0)
     |                                               |                |                e[0:6]: 0x1b7-0x1d9.7 (35)
     |                                               |                |                  [0]{}: in 0x1b7-0x1b8.7 (2)
0x1b0|                     41                        |       A        |                    i32.const: 0x41 (valid) 0x1b7-0x1b7.7 (1)
0x1b0|                        00                     |        .       |                    n: 0 0x1b8-0x1b8.7 (1)
     |                                               |                |                  [1]{}: in 0x1b9-0x1ca.7 (18)
0x1b0|                           fd                  |         .      |                    prefix: 0xfd (valid) 0x1b9-0x1b9.7 (1)
0x1b0|                              0c               |          .     |                    v128.const: 12 (valid) 0x1ba-0x1ba.7 (1)
0x1b0|                                 00 00 00 00 01|           .....|                    bytes: raw bits 0x1bb-0x1ca.7 (16)
0x1c0|00 00 00 02 00 00 00 03 00 00 00               |...........     |
     |                                               |                |                  [2]{}: in 0x1cb-0x1d0.7 (6)
0x1c0|                                 fd            |           .    |                    prefix: 0xfd (valid) 0x1cb-0x1cb.7 (1)
0x1c0|                                    0b         |            .   |                    v128.store: 11 (valid) 0x1cc-0x1cc.7 (1)
     |                                               |                |                    m{}: 0x1cd-0x1d0.7 (4)
0x1c0|                                       00      |             .  |                      a: 0 0x1cd-0x1cd.7 (1)
0x1c0|                                          f0 ff|              ..|                      o: 65520 0x1ce-0x1d0.7 (3)
0x1d0|03                                             |.               |
     |                                               |                |                  [3]{}: in 0x1d1-0x1d2.7 (2)
0x1d0|   41                                          | A              |                    i32.const: 0x41 (valid) 0x1d1-0x1d1.7 (1)
0x1d0|      00                                       |  .             |                    n: 0 0x1d2-0x1d2.7 (1)
     |                                               |                |                  [4]{}: in 0x1d3-0x1d8.7 (6)
0x1d0|         fd                                    |   .            |                    prefix: 0xfd (valid) 0x1d3-0x1d3.7 (1)
0x1d0|            00                                 |    .           |                    v128.load: 0 (valid) 0x1d4-0x1d4.7 (1)
     |                                               |                |                    m{}: 0x1d5-0x1d8.7 (4)
0x1d0|               04                              |     .          |                      a: 4 0x1d5-0x1d5.7 (1)
0x1d0|                  f0 ff 03                     |      ...       |                      o: 65520 0x1d6-0x1d8.7 (3)
     |                                               |                |                  [5]{}: in 0x1d9-0x1d9.7 (1)
0x1d0|                           0b                  |         .      |                    end: 0xb (valid) 0x1d9-0x1d9.7 (1)
     |                                               |                |            [11]{}: code 0x1da-0x1f4.7 (27)
0x1d0|                              1a               |          .     |              size: 26 0x1da-0x1da.7 (1)
     |                                               |                |              code{}: 0x1db-0x1f4.7 (26)
     |                                               |                |                t{}: 0x1db-0x1db.7 (1)
0x1d0|                                 00            |           .    |                  n: 0 0x1db-0x1db.7 (1)
     |                                               |                |                  x[0:0]: 0x1dc-NA (0)
     |                                               |                |                e[0:4]: 0x1dc-0x1f4.7 (25)
     |                                               |                |                  [0]{}: in 0x1dc-0x1dd.7 (2)
0x1d0|                                    20         |                |                    local.get: 0x20 (valid) 0x1dc-0x1dc.7 (1)
0x1d0|                                       00      |             .  |                    x: 0 0x1dd-0x1dd.7 (1)
     |                                               |                |                  [1]{}: in 0x1de-0x1ef.7 (18)
0x1d0|                                          fd   |              . |                    prefix: 0xfd (valid) 0x1de-0x1de.7 (1)
0x1d0|                                             0c|               .|                    v128.const: 12 (valid) 0x1df-0x1df.7 (1)
0x1e0|00 00 00 00 01 00 00 00 02 00 00 00 03 00 00 00|................|                    bytes: raw bits 0x1e0-0x1ef.7 (16)
     |                                               |                |                  [2]{}: in 0x1f0-0x1f3.7 (4)
0x1f0|fd                                             |.               |                    prefix: 0xfd (valid) 0x1f0-0x1f0.7 (1)
0x1f0|   0b                                          | .              |                    v128.store: 11 (valid) 0x1f1-0x1f1.7 (1)
     |                                               |                |                    m{}: 0x1f2-0x1f3.7 (2)
0x1f0|      00                                       |  .             |                      a: 0 0x1f2-0x1f2.7 (1)
0x1f0|         01                                    |   .            |                      o: 1 0x1f3-0x1f3.7 (1)
     |                                               |                |                  [3]{}: in 0x1f4-0x1f4.7 (1)
0x1f0|            0b                                 |    .           |                    end: 0xb (valid) 0x1f4-0x1f4.7 (1)
     |                                               |                |    [5]{}: section 0x1f5-0x223.7 (47)
0x1f0|               0b                              |     .          |      id: "data section" (11) 0x1f5-0x1f5.7 (1)
0x1f0|                  2d                           |      -         |      size: 45 0x1f6-0x1f6.7 (1)
     |                                               |                |      content{}: 0x1f7-0x223.7 (45)
     |                                               |                |        seg{}: 0x1f7-0x223.7 (45)
0x1f0|                     02                        |       .        |          n: 2 0x1f7-0x1f7.7 (1)
     |                                               |                |          x[0:2]: 0x1f8-0x223.7 (44)
     |                                               |                |            [0]{}: seg 0x1f8-0x20c.7 (21)
0x1f0|                        00                     |        .       |              tag: 0 0x1f8-0x1f8.7 (1)
     |                                               |                |              e[0:2]: 0x1f9-0x1fb.7 (3)
     |                                               |                |                [0]{}: in 0x1f9-0x1fa.7 (2)
0x1f0|                           41                  |         A      |                  i32.const: 0x41 (valid) 0x1f9-0x1f9.7 (1)
0x1f0|                              00               |          .     |                  n: 0 0x1fa-0x1fa.7 (1)
     |                                               |                |                [1]{}: in 0x1fb-0x1fb.7 (1)
0x1f0|                                 0b            |           .    |                  end: 0xb (valid) 0x1fb-0x1fb.7 (1)
     |                                               |                |              b{}: 0x1fc-0x20c.7 (17)
0x1f0|                                    10         |            .   |                n: 16 0x1fc-0x1fc.7 (1)
0x1f0|                                       00 01 02|             ...|                x: raw bits 0x1fd-0x20c.7 (16)
0x200|03 04 05 06 07 08 09 10 11 12 13 14 15         |.............   |
     |                                               |                |            [1]{}: seg 0x20d-0x223.7 (23)
0x200|                                       00      |             .  |              tag: 0 0x20d-0x20d.7 (1)
     |                                               |                |              e[0:2]: 0x20e-0x212.7 (5)
     |                                               |                |                [0]{}: in 0x20e-0x211.7 (4)
0x200|                                          41   |              A |                  i32.const: 0x41 (valid) 0x20e-0x20e.7 (1)
0x200|                                             e1|               .|                  n: 65505 0x20f-0x211.7 (3)
0x210|ff 03                                          |..              |
     |                                               |                |                [1]{}: in 0x212-0x212.7 (1)
0x210|      0b                                       |  .             |                  end: 0xb (valid) 0x212-0x212.7 (1)
     |                                               |                |              b{}: 0x213-0x223.7 (17)
0x210|         10                                    |   .            |                n: 16 0x213-0x213.7 (1)
0x210|            16 17 18 19 20 21 22 23 24 25 26 27|    .... !"#$%&'|                x: raw bits 0x214-0x223.7 (16)
0x220|28 29 30 31|                                   |()01|           |
