$ fq -d wasm dv simd_f32x4_rounding-0.wasm
    |00 01 02 03 04 05 06 07 08 09 0a 0b 0c 0d 0e 0f|0123456789abcdef|.{}: simd_f32x4_rounding-0.wasm (wasm) 0x0-0x71.7 (114)
0x00|00 61 73 6d                                    |.asm            |  magic: raw bits (valid) 0x0-0x3.7 (4)
0x00|            01 00 00 00                        |    ....        |  version: 1 0x4-0x7.7 (4)
    |                                               |                |  sections[0:4]: 0x8-0x71.7 (106)
    |                                               |                |    [0]{}: section 0x8-0xf.7 (8)
0x00|                        01                     |        .       |      id: "type section" (1) 0x8-0x8.7 (1)
0x00|                           06                  |         .      |      size: 6 0x9-0x9.7 (1)
    |                                               |                |      content{}: 0xa-0xf.7 (6)
    |                                               |                |        ft{}: 0xa-0xf.7 (6)
0x00|                              01               |          .     |          n: 1 0xa-0xa.7 (1)
    |                                               |                |          x[0:1]: 0xb-0xf.7 (5)
    |                                               |                |            [0]{}: ft 0xb-0xf.7 (5)
0x00|                                 60            |           `    |              tag: 0x60 (valid) 0xb-0xb.7 (1)
    |                                               |                |              rt1{}: 0xc-0xd.7 (2)
0x00|                                    01         |            .   |                n: 1 0xc-0xc.7 (1)
    |                                               |                |                x[0:1]: 0xd-0xd.7 (1)
0x00|                                       7b      |             {  |                  [0]: "v128" (0x7b) t 0xd-0xd.7 (1)
    |                                               |                |              rt2{}: 0xe-0xf.7 (2)
0x00|                                          01   |              . |                n: 1 0xe-0xe.7 (1)
    |                                               |                |                x[0:1]: 0xf-0xf.7 (1)
0x00|                                             7b|               {|                  [0]: "v128" (0x7b) t 0xf-0xf.7 (1)
    |                                               |                |    [1]{}: section 0x10-0x16.7 (7)
0x10|03                                             |.               |      id: "function section" (3) 0x10-0x10.7 (1)
0x10|   05                                          | .              |      size: 5 0x11-0x11.7 (1)
    |                                               |                |      content{}: 0x12-0x16.7 (5)
    |                                               |                |        x{}: 0x12-0x16.7 (5)
0x10|      04                                       |  .             |          n: 4 0x12-0x12.7 (1)
    |                                               |                |          x[0:4]: 0x13-0x16.7 (4)
0x10|         00                                    |   .            |            [0]: 0 x 0x13-0x13.7 (1)
0x10|            00                                 |    .           |            [1]: 0 x 0x14-0x14.7 (1)
0x10|               00                              |     .          |            [2]: 0 x 0x15-0x15.7 (1)
0x10|                  00                           |      .         |            [3]: 0 x 0x16-0x16.7 (1)
    |                                               |                |    [2]{}: section 0x17-0x52.7 (60)
0x10|                     07                        |       .        |      id: "export section" (7) 0x17-0x17.7 (1)
0x10|                        3a                     |        :       |      size: 58 0x18-0x18.7 (1)
    |                                               |                |      content{}: 0x19-0x52.7 (58)
    |                                               |                |        ex{}: 0x19-0x52.7 (58)
0x10|                           04                  |         .      |          n: 4 0x19-0x19.7 (1)
    |                                               |                |          x[0:4]: 0x1a-0x52.7 (57)
    |                                               |                |            [0]{}: ex 0x1a-0x26.7 (13)
    |                                               |                |              nm{}: 0x1a-0x24.7 (11)
0x10|                              0a               |          .     |                n: 10 0x1a-0x1a.7 (1)
0x10|                                 66 33 32 78 34|           f32x4|                b: "f32x4.ceil" 0x1b-0x24.7 (10)
0x20|2e 63 65 69 6c                                 |.ceil           |
    |                                               |                |              d{}: 0x25-0x26.7 (2)
0x20|               00                              |     .          |                tag: "funcidx" (0x0) 0x25-0x25.7 (1)
0x20|                  00                           |      .         |                x: 0 0x26-0x26.7 (1)
    |                                               |                |            [1]{}: ex 0x27-0x34.7 (14)
    |                                               |                |              nm{}: 0x27-0x32.7 (12)
0x20|                     0b                        |       .        |                n: 11 0x27-0x27.7 (1)
0x20|                        66 33 32 78 34 2e 66 6c|        f32x4.fl|                b: "f32x4.floor" 0x28-0x32.7 (11)
0x30|6f 6f 72                                       |oor             |
    |                                               |                |              d{}: 0x33-0x34.7 (2)
0x30|         00                                    |   .            |                tag: "funcidx" (0x0) 0x33-0x33.7 (1)
0x30|            01                                 |    .           |                x: 1 0x34-0x34.7 (1)
    |                                               |                |            [2]{}: ex 0x35-0x42.7 (14)
    |                                               |                |              nm{}: 0x35-0x40.7 (12)
0x30|               0b                              |     .          |                n: 11 0x35-0x35.7 (1)
0x30|                  66 33 32 78 34 2e 74 72 75 6e|      f32x4.trun|                b: "f32x4.trunc" 0x36-0x40.7 (11)
0x40|63                                             |c               |
    |                                               |                |              d{}: 0x41-0x42.7 (2)
0x40|   00                                          | .              |                tag: "funcidx" (0x0) 0x41-0x41.7 (1)
0x40|      02                                       |  .             |                x: 2 0x42-0x42.7 (1)
    |                                               |                |            [3]{}: ex 0x43-0x52.7 (16)
    |                                               |                |              nm{}: 0x43-0x50.7 (14)
0x40|         0d                                    |   .            |                n: 13 0x43-0x43.7 (1)
0x40|            66 33 32 78 34 2e 6e 65 61 72 65 73|    f32x4.neares|                b: "f32x4.nearest" 0x44-0x50.7 (13)
0x50|74                                             |t               |
    |                                               |                |              d{}: 0x51-0x52.7 (2)
0x50|   00                                          | .              |                tag: "funcidx" (0x0) 0x51-0x51.7 (1)
0x50|      03                                       |  .             |                x: 3 0x52-0x52.7 (1)
    |                                               |                |    [3]{}: section 0x53-0x71.7 (31)
0x50|         0a                                    |   .            |      id: "code section" (10) 0x53-0x53.7 (1)
0x50|            1d                                 |    .           |      size: 29 0x54-0x54.7 (1)
    |                                               |                |      content{}: 0x55-0x71.7 (29)
    |                                               |                |        code{}: 0x55-0x71.7 (29)
0x50|               04                              |     .          |          n: 4 0x55-0x55.7 (1)
    |                                               |                |          x[0:4]: 0x56-0x71.7 (28)
    |                                               |                |            [0]{}: code 0x56-0x5c.7 (7)
0x50|                  06                           |      .         |              size: 6 0x56-0x56.7 (1)
    |                                               |                |              code{}: 0x57-0x5c.7 (6)
    |                                               |                |                t{}: 0x57-0x57.7 (1)
0x50|                     00                        |       .        |                  n: 0 0x57-0x57.7 (1)
    |                                               |                |                  x[0:0]: 0x58-NA (0)
    |                                               |                |                e[0:3]: 0x58-0x5c.7 (5)
    |                                               |                |                  [0]{}: in 0x58-0x59.7 (2)
0x50|                        20                     |                |                    local.get: 0x20 (valid) 0x58-0x58.7 (1)
0x50|                           00                  |         .      |                    x: 0 0x59-0x59.7 (1)
    |                                               |                |                  [1]{}: in 0x5a-0x5b.7 (2)
0x50|                              fd               |          .     |                    prefix: 0xfd (valid) 0x5a-0x5a.7 (1)
0x50|                                 67            |           g    |                    f32x4.ceil: 103 (valid) 0x5b-0x5b.7 (1)
    |                                               |                |                  [2]{}: in 0x5c-0x5c.7 (1)
0x50|                                    0b         |            .   |                    end: 0xb (valid) 0x5c-0x5c.7 (1)
    |                                               |                |            [1]{}: code 0x5d-0x63.7 (7)
0x50|                                       06      |             .  |              size: 6 0x5d-0x5d.7 (1)
    |                                               |                |              code{}: 0x5e-0x63.7 (6)
    |                                               |                |                t{}: 0x5e-0x5e.7 (1)
0x50|                                          00   |              . |                  n: 0 0x5e-0x5e.7 (1)
    |                                               |                |                  x[0:0]: 0x5f-NA (0)
    |                                               |                |                e[0:3]: 0x5f-0x63.7 (5)
    |                                               |                |                  [0]{}: in 0x5f-0x60.7 (2)
0x50|                                             20|                |                    local.get: 0x20 (valid) 0x5f-0x5f.7 (1)
0x60|00                                             |.               |                    x: 0 0x60-0x60.7 (1)
    |                                               |                |                  [1]{}: in 0x61-0x62.7 (2)
0x60|   fd                                          | .              |                    prefix: 0xfd (valid) 0x61-0x61.7 (1)
0x60|      68                                       |  h             |                    f32x4.floor: 104 (valid) 0x62-0x62.7 (1)
    |                                               |                |                  [2]{}: in 0x63-0x63.7 (1)
0x60|         0b                                    |   .            |                    end: 0xb (valid) 0x63-0x63.7 (1)
    |                                               |                |            [2]{}: code 0x64-0x6a.7 (7)
0x60|            06                                 |    .           |              size: 6 0x64-0x64.7 (1)
    |                                               |                |              code{}: 0x65-0x6a.7 (6)
    |                                               |                |                t{}: 0x65-0x65.7 (1)
0x60|               00                              |     .          |                  n: 0 0x65-0x65.7 (1)
    |                                               |                |                  x[0:0]: 0x66-NA (0)
    |                                               |                |                e[0:3]: 0x66-0x6a.7 (5)
    |                                               |                |                  [0]{}: in 0x66-0x67.7 (2)
0x60|                  20                           |                |                    local.get: 0x20 (valid) 0x66-0x66.7 (1)
0x60|                     00                        |       .        |                    x: 0 0x67-0x67.7 (1)
    |                                               |                |                  [1]{}: in 0x68-0x69.7 (2)
0x60|                        fd                     |        .       |                    prefix: 0xfd (valid) 0x68-0x68.7 (1)
0x60|                           69                  |         i      |                    f32x4.trunc: 105 (valid) 0x69-0x69.7 (1)
    |                                               |                |                  [2]{}: in 0x6a-0x6a.7 (1)
0x60|                              0b               |          .     |                    end: 0xb (valid) 0x6a-0x6a.7 (1)
    |                                               |                |            [3]{}: code 0x6b-0x71.7 (7)
0x60|                                 06            |           .    |              size: 6 0x6b-0x6b.7 (1)
    |                                               |                |              code{}: 0x6c-0x71.7 (6)
    |                                               |                |                t{}: 0x6c-0x6c.7 (1)
0x60|                                    00         |            .   |                  n: 0 0x6c-0x6c.7 (1)
    |                                               |                |                  x[0:0]: 0x6d-NA (0)
    |                                               |                |                e[0:3]: 0x6d-0x71.7 (5)
    |                                               |                |                  [0]{}: in 0x6d-0x6e.7 (2)
0x60|                                       20      |                |                    local.get: 0x20 (valid) 0x6d-0x6d.7 (1)
0x60|                                          00   |              . |                    x: 0 0x6e-0x6e.7 (1)
    |                                               |                |                  [1]{}: in 0x6f-0x70.7 (2)
0x60|                                             fd|               .|                    prefix: 0xfd (valid) 0x6f-0x6f.7 (1)
0x70|6a                                             |j               |                    f32x4.nearest: 106 (valid) 0x70-0x70.7 (1)
    |                                               |                |                  [2]{}: in 0x71-0x71.7 (1)
0x70|   0b|                                         | .|             |                    end: 0xb (valid) 0x71-0x71.7 (1)
