$ fq -d wasm dv simd_const-305.wasm
     |00 01 02 03 04 05 06 07 08 09 0a 0b 0c 0d 0e 0f|0123456789abcdef|.{}: simd_const-305.wasm (wasm) 0x0-0x2fd.7 (766)
0x000|00 61 73 6d                                    |.asm            |  magic: raw bits (valid) 0x0-0x3.7 (4)
0x000|            01 00 00 00                        |    ....        |  version: 1 0x4-0x7.7 (4)
     |                                               |                |  sections[0:4]: 0x8-0x2fd.7 (758)
     |                                               |                |    [0]{}: section 0x8-0xe.7 (7)
0x000|                        01                     |        .       |      id: "type section" (1) 0x8-0x8.7 (1)
0x000|                           05                  |         .      |      size: 5 0x9-0x9.7 (1)
     |                                               |                |      content{}: 0xa-0xe.7 (5)
     |                                               |                |        ft{}: 0xa-0xe.7 (5)
0x000|                              01               |          .     |          n: 1 0xa-0xa.7 (1)
     |                                               |                |          x[0:1]: 0xb-0xe.7 (4)
     |                                               |                |            [0]{}: ft 0xb-0xe.7 (4)
0x000|                                 60            |           `    |              tag: 0x60 (valid) 0xb-0xb.7 (1)
     |                                               |                |              rt1{}: 0xc-0xc.7 (1)
0x000|                                    00         |            .   |                n: 0 0xc-0xc.7 (1)
     |                                               |                |                x[0:0]: 0xd-NA (0)
     |                                               |                |              rt2{}: 0xd-0xe.7 (2)
0x000|                                       01      |             .  |                n: 1 0xd-0xd.7 (1)
     |                                               |                |                x[0:1]: 0xe-0xe.7 (1)
0x000|                                          7b   |              { |                  [0]: "v128" (0x7b) t 0xe-0xe.7 (1)
     |                                               |                |    [1]{}: section 0xf-0x25.7 (23)
0x000|                                             03|               .|      id: "function section" (3) 0xf-0xf.7 (1)
0x010|15                                             |.               |      size: 21 0x10-0x10.7 (1)
     |                                               |                |      content{}: 0x11-0x25.7 (21)
     |                                               |                |        x{}: 0x11-0x25.7 (21)
0x010|   14                                          | .              |          n: 20 0x11-0x11.7 (1)
     |                                               |                |          x[0:20]: 0x12-0x25.7 (20)
0x010|      00                                       |  .             |            [0]: 0 x 0x12-0x12.7 (1)
0x010|         00                                    |   .            |            [1]: 0 x 0x13-0x13.7 (1)
0x010|            00                                 |    .           |            [2]: 0 x 0x14-0x14.7 (1)
0x010|               00                              |     .          |            [3]: 0 x 0x15-0x15.7 (1)
0x010|                  00                           |      .         |            [4]: 0 x 0x16-0x16.7 (1)
0x010|                     00                        |       .        |            [5]: 0 x 0x17-0x17.7 (1)
0x010|                        00                     |        .       |            [6]: 0 x 0x18-0x18.7 (1)
0x010|                           00                  |         .      |            [7]: 0 x 0x19-0x19.7 (1)
0x010|                              00               |          .     |            [8]: 0 x 0x1a-0x1a.7 (1)
0x010|                                 00            |           .    |            [9]: 0 x 0x1b-0x1b.7 (1)
0x010|                                    00         |            .   |            [10]: 0 x 0x1c-0x1c.7 (1)
0x010|                                       00      |             .  |            [11]: 0 x 0x1d-0x1d.7 (1)
0x010|                                          00   |              . |            [12]: 0 x 0x1e-0x1e.7 (1)
0x010|                                             00|               .|            [13]: 0 x 0x1f-0x1f.7 (1)
0x020|00                                             |.               |            [14]: 0 x 0x20-0x20.7 (1)
0x020|   00                                          | .              |            [15]: 0 x 0x21-0x21.7 (1)
0x020|      00                                       |  .             |            [16]: 0 x 0x22-0x22.7 (1)
0x020|         00                                    |   .            |            [17]: 0 x 0x23-0x23.7 (1)
0x020|            00                                 |    .           |            [18]: 0 x 0x24-0x24.7 (1)
0x020|               00                              |     .          |            [19]: 0 x 0x25-0x25.7 (1)
     |                                               |                |    [2]{}: section 0x26-0x155.7 (304)
0x020|                  07                           |      .         |      id: "export section" (7) 0x26-0x26.7 (1)
0x020|                     ad 02                     |       ..       |      size: 301 0x27-0x28.7 (2)
     |                                               |                |      content{}: 0x29-0x155.7 (301)
     |                                               |                |        ex{}: 0x29-0x155.7 (301)
0x020|                           14                  |         .      |          n: 20 0x29-0x29.7 (1)
     |                                               |                |          x[0:20]: 0x2a-0x155.7 (300)
     |                                               |                |            [0]{}: ex 0x2a-0x38.7 (15)
     |                                               |                |              nm{}: 0x2a-0x36.7 (13)
0x020|                              0c               |          .     |                n: 12 0x2a-0x2a.7 (1)
0x020|                                 66 33 32 2d 64|           f32-d|                b: "f32-dec-sep1" 0x2b-0x36.7 (12)
0x030|65 63 2d 73 65 70 31                           |ec-sep1         |
     |                                               |                |              d{}: 0x37-0x38.7 (2)
0x030|                     00                        |       .        |                tag: "funcidx" (0x0) 0x37-0x37.7 (1)
0x030|                        00                     |        .       |                x: 0 0x38-0x38.7 (1)
     |                                               |                |            [1]{}: ex 0x39-0x47.7 (15)
     |                                               |                |              nm{}: 0x39-0x45.7 (13)
0x030|                           0c                  |         .      |                n: 12 0x39-0x39.7 (1)
0x030|                              66 33 32 2d 64 65|          f32-de|                b: "f32-dec-sep2" 0x3a-0x45.7 (12)
0x040|63 2d 73 65 70 32                              |c-sep2          |
     |                                               |                |              d{}: 0x46-0x47.7 (2)
0x040|                  00                           |      .         |                tag: "funcidx" (0x0) 0x46-0x46.7 (1)
0x040|                     01                        |       .        |                x: 1 0x47-0x47.7 (1)
     |                                               |                |            [2]{}: ex 0x48-0x56.7 (15)
     |                                               |                |              nm{}: 0x48-0x54.7 (13)
0x040|                        0c                     |        .       |                n: 12 0x48-0x48.7 (1)
0x040|                           66 33 32 2d 64 65 63|         f32-dec|                b: "f32-dec-sep3" 0x49-0x54.7 (12)
0x050|2d 73 65 70 33                                 |-sep3           |
     |                                               |                |              d{}: 0x55-0x56.7 (2)
0x050|               00                              |     .          |                tag: "funcidx" (0x0) 0x55-0x55.7 (1)
0x050|                  02                           |      .         |                x: 2 0x56-0x56.7 (1)
     |                                               |                |            [3]{}: ex 0x57-0x65.7 (15)
     |                                               |                |              nm{}: 0x57-0x63.7 (13)
0x050|                     0c                        |       .        |                n: 12 0x57-0x57.7 (1)
0x050|                        66 33 32 2d 64 65 63 2d|        f32-dec-|                b: "f32-dec-sep4" 0x58-0x63.7 (12)
0x060|73 65 70 34                                    |sep4            |
     |                                               |                |              d{}: 0x64-0x65.7 (2)
0x060|            00                                 |    .           |                tag: "funcidx" (0x0) 0x64-0x64.7 (1)
0x060|               03                              |     .          |                x: 3 0x65-0x65.7 (1)
     |                                               |                |            [4]{}: ex 0x66-0x74.7 (15)
     |                                               |                |              nm{}: 0x66-0x72.7 (13)
0x060|                  0c                           |      .         |                n: 12 0x66-0x66.7 (1)
0x060|                     66 33 32 2d 64 65 63 2d 73|       f32-dec-s|                b: "f32-dec-sep5" 0x67-0x72.7 (12)
0x070|65 70 35                                       |ep5             |
     |                                               |                |              d{}: 0x73-0x74.7 (2)
0x070|         00                                    |   .            |                tag: "funcidx" (0x0) 0x73-0x73.7 (1)
0x070|            04                                 |    .           |                x: 4 0x74-0x74.7 (1)
     |                                               |                |            [5]{}: ex 0x75-0x83.7 (15)
     |                                               |                |              nm{}: 0x75-0x81.7 (13)
0x070|               0c                              |     .          |                n: 12 0x75-0x75.7 (1)
0x070|                  66 33 32 2d 68 65 78 2d 73 65|      f32-hex-se|                b: "f32-hex-sep1" 0x76-0x81.7 (12)
0x080|70 31                                          |p1              |
     |                                               |                |              d{}: 0x82-0x83.7 (2)
0x080|      00                                       |  .             |                tag: "funcidx" (0x0) 0x82-0x82.7 (1)
0x080|         05                                    |   .            |                x: 5 0x83-0x83.7 (1)
     |                                               |                |            [6]{}: ex 0x84-0x92.7 (15)
     |                                               |                |              nm{}: 0x84-0x90.7 (13)
0x080|            0c                                 |    .           |                n: 12 0x84-0x84.7 (1)
0x080|               66 33 32 2d 68 65 78 2d 73 65 70|     f32-hex-sep|                b: "f32-hex-sep2" 0x85-0x90.7 (12)
0x090|32                                             |2               |
     |                                               |                |              d{}: 0x91-0x92.7 (2)
0x090|   00                                          | .              |                tag: "funcidx" (0x0) 0x91-0x91.7 (1)
0x090|      06                                       |  .             |                x: 6 0x92-0x92.7 (1)
     |                                               |                |            [7]{}: ex 0x93-0xa1.7 (15)
     |                                               |                |              nm{}: 0x93-0x9f.7 (13)
0x090|         0c                                    |   .            |                n: 12 0x93-0x93.7 (1)
0x090|            66 33 32 2d 68 65 78 2d 73 65 70 33|    f32-hex-sep3|                b: "f32-hex-sep3" 0x94-0x9f.7 (12)
     |                                               |                |              d{}: 0xa0-0xa1.7 (2)
0x0a0|00                                             |.               |                tag: "funcidx" (0x0) 0xa0-0xa0.7 (1)
0x0a0|   07                                          | .              |                x: 7 0xa1-0xa1.7 (1)
     |                                               |                |            [8]{}: ex 0xa2-0xb0.7 (15)
     |                                               |                |              nm{}: 0xa2-0xae.7 (13)
0x0a0|      0c                                       |  .             |                n: 12 0xa2-0xa2.7 (1)
0x0a0|         66 33 32 2d 68 65 78 2d 73 65 70 34   |   f32-hex-sep4 |                b: "f32-hex-sep4" 0xa3-0xae.7 (12)
     |                                               |                |              d{}: 0xaf-0xb0.7 (2)
0x0a0|                                             00|               .|                tag: "funcidx" (0x0) 0xaf-0xaf.7 (1)
0x0b0|08                                             |.               |                x: 8 0xb0-0xb0.7 (1)
     |                                               |                |            [9]{}: ex 0xb1-0xbf.7 (15)
     |                                               |                |              nm{}: 0xb1-0xbd.7 (13)
0x0b0|   0c                                          | .              |                n: 12 0xb1-0xb1.7 (1)
0x0b0|      66 33 32 2d 68 65 78 2d 73 65 70 35      |  f32-hex-sep5  |                b: "f32-hex-sep5" 0xb2-0xbd.7 (12)
     |                                               |                |              d{}: 0xbe-0xbf.7 (2)
0x0b0|                                          00   |              . |                tag: "funcidx" (0x0) 0xbe-0xbe.7 (1)
0x0b0|                                             09|               .|                x: 9 0xbf-0xbf.7 (1)
     |                                               |                |            [10]{}: ex 0xc0-0xce.7 (15)
     |                                               |                |              nm{}: 0xc0-0xcc.7 (13)
0x0c0|0c                                             |.               |                n: 12 0xc0-0xc0.7 (1)
0x0c0|   66 36 34 2d 64 65 63 2d 73 65 70 31         | f64-dec-sep1   |                b: "f64-dec-sep1" 0xc1-0xcc.7 (12)
     |                                               |                |              d{}: 0xcd-0xce.7 (2)
0x0c0|                                       00      |             .  |                tag: "funcidx" (0x0) 0xcd-0xcd.7 (1)
0x0c0|                                          0a   |              . |                x: 10 0xce-0xce.7 (1)
     |                                               |                |            [11]{}: ex 0xcf-0xdd.7 (15)
     |                                               |                |              nm{}: 0xcf-0xdb.7 (13)
0x0c0|                                             0c|               .|                n: 12 0xcf-0xcf.7 (1)
0x0d0|66 36 34 2d 64 65 63 2d 73 65 70 32            |f64-dec-sep2    |                b: "f64-dec-sep2" 0xd0-0xdb.7 (12)
     |                                               |                |              d{}: 0xdc-0xdd.7 (2)
0x0d0|                                    00         |            .   |                tag: "funcidx" (0x0) 0xdc-0xdc.7 (1)
0x0d0|                                       0b      |             .  |                x: 11 0xdd-0xdd.7 (1)
     |                                               |                |            [12]{}: ex 0xde-0xec.7 (15)
     |                                               |                |              nm{}: 0xde-0xea.7 (13)
0x0d0|                                          0c   |              . |                n: 12 0xde-0xde.7 (1)
0x0d0|                                             66|               f|                b: "f64-dec-sep3" 0xdf-0xea.7 (12)
0x0e0|36 34 2d 64 65 63 2d 73 65 70 33               |64-dec-sep3     |
     |                                               |                |              d{}: 0xeb-0xec.7 (2)
0x0e0|                                 00            |           .    |                tag: "funcidx" (0x0) 0xeb-0xeb.7 (1)
0x0e0|                                    0c         |            .   |                x: 12 0xec-0xec.7 (1)
     |                                               |                |            [13]{}: ex 0xed-0xfb.7 (15)
     |                                               |                |              nm{}: 0xed-0xf9.7 (13)
0x0e0|                                       0c      |             .  |                n: 12 0xed-0xed.7 (1)
0x0e0|                                          66 36|              f6|                b: "f64-dec-sep4" 0xee-0xf9.7 (12)
0x0f0|34 2d 64 65 63 2d 73 65 70 34                  |4-dec-sep4      |
     |                                               |                |              d{}: 0xfa-0xfb.7 (2)
0x0f0|                              00               |          .     |                tag: "funcidx" (0x0) 0xfa-0xfa.7 (1)
0x0f0|                                 0d            |           .    |                x: 13 0xfb-0xfb.7 (1)
     |                                               |                |            [14]{}: ex 0xfc-0x10a.7 (15)
     |                                               |                |              nm{}: 0xfc-0x108.7 (13)
0x0f0|                                    0c         |            .   |                n: 12 0xfc-0xfc.7 (1)
0x0f0|                                       66 36 34|             f64|                b: "f64-dec-sep5" 0xfd-0x108.7 (12)
0x100|2d 64 65 63 2d 73 65 70 35                     |-dec-sep5       |
     |                                               |                |              d{}: 0x109-0x10a.7 (2)
0x100|                           00                  |         .      |                tag: "funcidx" (0x0) 0x109-0x109.7 (1)
0x100|                              0e               |          .     |                x: 14 0x10a-0x10a.7 (1)
     |                                               |                |            [15]{}: ex 0x10b-0x119.7 (15)
     |                                               |                |              nm{}: 0x10b-0x117.7 (13)
0x100|                                 0c            |           .    |                n: 12 0x10b-0x10b.7 (1)
0x100|                                    66 36 34 2d|            f64-|                b: "f64-hex-sep1" 0x10c-0x117.7 (12)
0x110|68 65 78 2d 73 65 70 31                        |hex-sep1        |
     |                                               |                |              d{}: 0x118-0x119.7 (2)
0x110|                        00                     |        .       |                tag: "funcidx" (0x0) 0x118-0x118.7 (1)
0x110|                           0f                  |         .      |                x: 15 0x119-0x119.7 (1)
     |                                               |                |            [16]{}: ex 0x11a-0x128.7 (15)
     |                                               |                |              nm{}: 0x11a-0x126.7 (13)
0x110|                              0c               |          .     |                n: 12 0x11a-0x11a.7 (1)
0x110|                                 66 36 34 2d 68|           f64-h|                b: "f64-hex-sep2" 0x11b-0x126.7 (12)
0x120|65 78 2d 73 65 70 32                           |ex-sep2         |
     |                                               |                |              d{}: 0x127-0x128.7 (2)
0x120|                     00                        |       .        |                tag: "funcidx" (0x0) 0x127-0x127.7 (1)
0x120|                        10                     |        .       |                x: 16 0x128-0x128.7 (1)
     |                                               |                |            [17]{}: ex 0x129-0x137.7 (15)
     |                                               |                |              nm{}: 0x129-0x135.7 (13)
0x120|                           0c                  |         .      |                n: 12 0x129-0x129.7 (1)
0x120|                              66 36 34 2d 68 65|          f64-he|                b: "f64-hex-sep3" 0x12a-0x135.7 (12)
0x130|78 2d 73 65 70 33                              |x-sep3          |
     |                                               |                |              d{}: 0x136-0x137.7 (2)
0x130|                  00                           |      .         |                tag: "funcidx" (0x0) 0x136-0x136.7 (1)
0x130|                     11                        |       .        |                x: 17 0x137-0x137.7 (1)
     |                                               |                |            [18]{}: ex 0x138-0x146.7 (15)
     |                                               |                |              nm{}: 0x138-0x144.7 (13)
0x130|                        0c                     |        .       |                n: 12 0x138-0x138.7 (1)
0x130|                           66 36 34 2d 68 65 78|         f64-hex|                b: "f64-hex-sep4" 0x139-0x144.7 (12)
0x140|2d 73 65 70 34                                 |-sep4           |
     |                                               |                |              d{}: 0x145-0x146.7 (2)
0x140|               00                              |     .          |                tag: "funcidx" (0x0) 0x145-0x145.7 (1)
0x140|                  12                           |      .         |                x: 18 0x146-0x146.7 (1)
     |                                               |                |            [19]{}: ex 0x147-0x155.7 (15)
     |                                               |                |              nm{}: 0x147-0x153.7 (13)
0x140|                     0c                        |       .        |                n: 12 0x147-0x147.7 (1)
0x140|                        66 36 34 2d 68 65 78 2d|        f64-hex-|                b: "f64-hex-sep5" 0x148-0x153.7 (12)
0x150|73 65 70 35                                    |sep5            |
     |                                               |                |              d{}: 0x154-0x155.7 (2)
0x150|            00                                 |    .           |                tag: "funcidx" (0x0) 0x154-0x154.7 (1)
0x150|               13                              |     .          |                x: 19 0x155-0x155.7 (1)
     |                                               |                |    [3]{}: section 0x156-0x2fd.7 (424)
0x150|                  0a                           |      .         |      id: "code section" (10) 0x156-0x156.7 (1)
0x150|                     a5 03                     |       ..       |      size: 421 0x157-0x158.7 (2)
     |                                               |                |      content{}: 0x159-0x2fd.7 (421)
     |                                               |                |        code{}: 0x159-0x2fd.7 (421)
0x150|                           14                  |         .      |          n: 20 0x159-0x159.7 (1)
     |                                               |                |          x[0:20]: 0x15a-0x2fd.7 (420)
     |                                               |                |            [0]{}: code 0x15a-0x16e.7 (21)
0x150|                              14               |          .     |              size: 20 0x15a-0x15a.7 (1)
     |                                               |                |              code{}: 0x15b-0x16e.7 (20)
     |                                               |                |                t{}: 0x15b-0x15b.7 (1)
0x150|                                 00            |           .    |                  n: 0 0x15b-0x15b.7 (1)
     |                                               |                |                  x[0:0]: 0x15c-NA (0)
     |                                               |                |                e[0:2]: 0x15c-0x16e.7 (19)
     |                                               |                |                  [0]{}: in 0x15c-0x16d.7 (18)
0x150|                                    fd         |            .   |                    prefix: 0xfd (valid) 0x15c-0x15c.7 (1)
0x150|                                       0c      |             .  |                    v128.const: 12 (valid) 0x15d-0x15d.7 (1)
0x150|                                          00 24|              .$|                    bytes: raw bits 0x15e-0x16d.7 (16)
0x160|74 49 00 24 74 49 00 24 74 49 00 24 74 49      |tI.$tI.$tI.$tI  |
     |                                               |                |                  [1]{}: in 0x16e-0x16e.7 (1)
0x160|                                          0b   |              . |                    end: 0xb (valid) 0x16e-0x16e.7 (1)
     |                                               |                |            [1]{}: code 0x16f-0x183.7 (21)
0x160|                                             14|               .|              size: 20 0x16f-0x16f.7 (1)
     |                                               |                |              code{}: 0x170-0x183.7 (20)
     |                                               |                |                t{}: 0x170-0x170.7 (1)
0x170|00                                             |.               |                  n: 0 0x170-0x170.7 (1)
     |                                               |                |                  x[0:0]: 0x171-NA (0)
     |                                               |                |                e[0:2]: 0x171-0x183.7 (19)
     |                                               |                |                  [0]{}: in 0x171-0x182.7 (18)
0x170|   fd                                          | .              |                    prefix: 0xfd (valid) 0x171-0x171.7 (1)
0x170|      0c                                       |  .             |                    v128.const: 12 (valid) 0x172-0x172.7 (1)
0x170|         00 00 7a 44 00 00 7a 44 00 00 7a 44 00|   ..zD..zD..zD.|                    bytes: raw bits 0x173-0x182.7 (16)
0x180|00 7a 44                                       |.zD             |
     |                                               |                |                  [1]{}: in 0x183-0x183.7 (1)
0x180|         0b                                    |   .            |                    end: 0xb (valid) 0x183-0x183.7 (1)
     |                                               |                |            [2]{}: code 0x184-0x198.7 (21)
0x180|            14                                 |    .           |              size: 20 0x184-0x184.7 (1)
     |                                               |                |              code{}: 0x185-0x198.7 (20)
     |                                               |                |                t{}: 0x185-0x185.7 (1)
0x180|               00                              |     .          |                  n: 0 0x185-0x185.7 (1)
     |                                               |                |                  x[0:0]: 0x186-NA (0)
     |                                               |                |                e[0:2]: 0x186-0x198.7 (19)
     |                                               |                |                  [0]{}: in 0x186-0x197.7 (18)
0x180|                  fd                           |      .         |                    prefix: 0xfd (valid) 0x186-0x186.7 (1)
0x180|                     0c                        |       .        |                    v128.const: 12 (valid) 0x187-0x187.7 (1)
0x180|                        10 c9 7a 44 10 c9 7a 44|        ..zD..zD|                    bytes: raw bits 0x188-0x197.7 (16)
0x190|10 c9 7a 44 10 c9 7a 44                        |..zD..zD        |
     |                                               |                |                  [1]{}: in 0x198-0x198.7 (1)
0x190|                        0b                     |        .       |                    end: 0xb (valid) 0x198-0x198.7 (1)
     |                                               |                |            [3]{}: code 0x199-0x1ad.7 (21)
0x190|                           14                  |         .      |              size: 20 0x199-0x199.7 (1)
     |                                               |                |              code{}: 0x19a-0x1ad.7 (20)
     |                                               |                |                t{}: 0x19a-0x19a.7 (1)
0x190|                              00               |          .     |                  n: 0 0x19a-0x19a.7 (1)
     |                                               |                |                  x[0:0]: 0x19b-NA (0)
     |                                               |                |                e[0:2]: 0x19b-0x1ad.7 (19)
     |                                               |                |                  [0]{}: in 0x19b-0x1ac.7 (18)
0x190|                                 fd            |           .    |                    prefix: 0xfd (valid) 0x19b-0x19b.7 (1)
0x190|                                    0c         |            .   |                    v128.const: 12 (valid) 0x19c-0x19c.7 (1)
0x190|                                       96 19 61|             ..a|                    bytes: raw bits 0x19d-0x1ac.7 (16)
0x1a0|58 96 19 61 58 96 19 61 58 96 19 61 58         |X..aX..aX..aX   |
     |                                               |                |                  [1]{}: in 0x1ad-0x1ad.7 (1)
0x1a0|                                       0b      |             .  |                    end: 0xb (valid) 0x1ad-0x1ad.7 (1)
     |                                               |                |            [4]{}: code 0x1ae-0x1c2.7 (21)
0x1a0|                                          14   |              . |              size: 20 0x1ae-0x1ae.7 (1)
     |                                               |                |              code{}: 0x1af-0x1c2.7 (20)
     |                                               |                |                t{}: 0x1af-0x1af.7 (1)
0x1a0|                                             00|               .|                  n: 0 0x1af-0x1af.7 (1)
     |                                               |                |                  x[0:0]: 0x1b0-NA (0)
     |                                               |                |                e[0:2]: 0x1b0-0x1c2.7 (19)
     |                                               |                |                  [0]{}: in 0x1b0-0x1c1.7 (18)
0x1b0|fd                                             |.               |                    prefix: 0xfd (valid) 0x1b0-0x1b0.7 (1)
0x1b0|   0c                                          | .              |                    v128.const: 12 (valid) 0x1b1-0x1b1.7 (1)
0x1b0|      74 ae 1d 6e 74 ae 1d 6e 74 ae 1d 6e 74 ae|  t..nt..nt..nt.|                    bytes: raw bits 0x1b2-0x1c1.7 (16)
0x1c0|1d 6e                                          |.n              |
     |                                               |                |                  [1]{}: in 0x1c2-0x1c2.7 (1)
0x1c0|      0b                                       |  .             |                    end: 0xb (valid) 0x1c2-0x1c2.7 (1)
     |                                               |                |            [5]{}: code 0x1c3-0x1d7.7 (21)
0x1c0|         14                                    |   .            |              size: 20 0x1c3-0x1c3.7 (1)
     |                                               |                |              code{}: 0x1c4-0x1d7.7 (20)
     |                                               |                |                t{}: 0x1c4-0x1c4.7 (1)
0x1c0|            00                                 |    .           |                  n: 0 0x1c4-0x1c4.7 (1)
     |                                               |                |                  x[0:0]: 0x1c5-NA (0)
     |                                               |                |                e[0:2]: 0x1c5-0x1d7.7 (19)
     |                                               |                |                  [0]{}: in 0x1c5-0x1d6.7 (18)
0x1c0|               fd                              |     .          |                    prefix: 0xfd (valid) 0x1c5-0x1c5.7 (1)
0x1c0|                  0c                           |      .         |                    v128.const: 12 (valid) 0x1c6-0x1c6.7 (1)
0x1c0|                     0a f0 20 4d 0a f0 20 4d 0a|       .. M.. M.|                    bytes: raw bits 0x1c7-0x1d6.7 (16)
0x1d0|f0 20 4d 0a f0 20 4d                           |. M.. M         |
     |                                               |                |                  [1]{}: in 0x1d7-0x1d7.7 (1)
0x1d0|                     0b                        |       .        |                    end: 0xb (valid) 0x1d7-0x1d7.7 (1)
     |                                               |                |            [6]{}: code 0x1d8-0x1ec.7 (21)
0x1d0|                        14                     |        .       |              size: 20 0x1d8-0x1d8.7 (1)
     |                                               |                |              code{}: 0x1d9-0x1ec.7 (20)
     |                                               |                |                t{}: 0x1d9-0x1d9.7 (1)
0x1d0|                           00                  |         .      |                  n: 0 0x1d9-0x1d9.7 (1)
     |                                               |                |                  x[0:0]: 0x1da-NA (0)
     |                                               |                |                e[0:2]: 0x1da-0x1ec.7 (19)
     |                                               |                |                  [0]{}: in 0x1da-0x1eb.7 (18)
0x1d0|                              fd               |          .     |                    prefix: 0xfd (valid) 0x1da-0x1da.7 (1)
0x1d0|                                 0c            |           .    |                    v128.const: 12 (valid) 0x1db-0x1db.7 (1)
0x1d0|                                    80 07 d5 47|            ...G|                    bytes: raw bits 0x1dc-0x1eb.7 (16)
0x1e0|80 07 d5 47 80 07 d5 47 80 07 d5 47            |...G...G...G    |
     |                                               |                |                  [1]{}: in 0x1ec-0x1ec.7 (1)
0x1e0|                                    0b         |            .   |                    end: 0xb (valid) 0x1ec-0x1ec.7 (1)
     |                                               |                |            [7]{}: code 0x1ed-0x201.7 (21)
0x1e0|                                       14      |             .  |              size: 20 0x1ed-0x1ed.7 (1)
     |                                               |                |              code{}: 0x1ee-0x201.7 (20)
     |                                               |                |                t{}: 0x1ee-0x1ee.7 (1)
0x1e0|                                          00   |              . |                  n: 0 0x1ee-0x1ee.7 (1)
     |                                               |                |                  x[0:0]: 0x1ef-NA (0)
     |                                               |                |                e[0:2]: 0x1ef-0x201.7 (19)
     |                                               |                |                  [0]{}: in 0x1ef-0x200.7 (18)
0x1e0|                                             fd|               .|                    prefix: 0xfd (valid) 0x1ef-0x1ef.7 (1)
0x1f0|0c                                             |.               |                    v128.const: 12 (valid) 0x1f0-0x1f0.7 (1)
0x1f0|   f1 ff 20 47 f1 ff 20 47 f1 ff 20 47 f1 ff 20| .. G.. G.. G.. |                    bytes: raw bits 0x1f1-0x200.7 (16)
0x200|47                                             |G               |
     |                                               |                |                  [1]{}: in 0x201-0x201.7 (1)
0x200|   0b                                          | .              |                    end: 0xb (valid) 0x201-0x201.7 (1)
     |                                               |                |            [8]{}: code 0x202-0x216.7 (21)
0x200|      14                                       |  .             |              size: 20 0x202-0x202.7 (1)
     |                                               |                |              code{}: 0x203-0x216.7 (20)
     |                                               |                |                t{}: 0x203-0x203.7 (1)
0x200|         00                                    |   .            |                  n: 0 0x203-0x203.7 (1)
     |                                               |                |                  x[0:0]: 0x204-NA (0)
     |                                               |                |                e[0:2]: 0x204-0x216.7 (19)
     |                                               |                |                  [0]{}: in 0x204-0x215.7 (18)
0x200|            fd                                 |    .           |                    prefix: 0xfd (valid) 0x204-0x204.7 (1)
0x200|               0c                              |     .          |                    v128.const: 12 (valid) 0x205-0x205.7 (1)
0x200|                  00 00 f0 49 00 00 f0 49 00 00|      ...I...I..|                    bytes: raw bits 0x206-0x215.7 (16)
0x210|f0 49 00 00 f0 49                              |.I...I          |
     |                                               |                |                  [1]{}: in 0x216-0x216.7 (1)
0x210|                  0b                           |      .         |                    end: 0xb (valid) 0x216-0x216.7 (1)
     |                                               |                |            [9]{}: code 0x217-0x22b.7 (21)
0x210|                     14                        |       .        |              size: 20 0x217-0x217.7 (1)
     |                                               |                |              code{}: 0x218-0x22b.7 (20)
     |                                               |                |                t{}: 0x218-0x218.7 (1)
0x210|                        00                     |        .       |                  n: 0 0x218-0x218.7 (1)
     |                                               |                |                  x[0:0]: 0x219-NA (0)
     |                                               |                |                e[0:2]: 0x219-0x22b.7 (19)
     |                                               |                |                  [0]{}: in 0x219-0x22a.7 (18)
0x210|                           fd                  |         .      |                    prefix: 0xfd (valid) 0x219-0x219.7 (1)
0x210|                              0c               |          .     |                    v128.const: 12 (valid) 0x21a-0x21a.7 (1)
0x210|                                 28 c0 ab 55 28|           (..U(|                    bytes: raw bits 0x21b-0x22a.7 (16)
0x220|c0 ab 55 28 c0 ab 55 28 c0 ab 55               |..U(..U(..U     |
     |                                               |                |                  [1]{}: in 0x22b-0x22b.7 (1)
0x220|                                 0b            |           .    |                    end: 0xb (valid) 0x22b-0x22b.7 (1)
     |                                               |                |            [10]{}: code 0x22c-0x240.7 (21)
0x220|                                    14         |            .   |              size: 20 0x22c-0x22c.7 (1)
     |                                               |                |              code{}: 0x22d-0x240.7 (20)
     |                                               |                |                t{}: 0x22d-0x22d.7 (1)
0x220|                                       00      |             .  |                  n: 0 0x22d-0x22d.7 (1)
     |                                               |                |                  x[0:0]: 0x22e-NA (0)
     |                                               |                |                e[0:2]: 0x22e-0x240.7 (19)
     |                                               |                |                  [0]{}: in 0x22e-0x23f.7 (18)
0x220|                                          fd   |              . |                    prefix: 0xfd (valid) 0x22e-0x22e.7 (1)
0x220|                                             0c|               .|                    v128.const: 12 (valid) 0x22f-0x22f.7 (1)
0x230|00 00 00 00 80 84 2e 41 00 00 00 00 80 84 2e 41|.......A.......A|                    bytes: raw bits 0x230-0x23f.7 (16)
     |                                               |                |                  [1]{}: in 0x240-0x240.7 (1)
0x240|0b                                             |.               |                    end: 0xb (valid) 0x240-0x240.7 (1)
     |                                               |                |            [11]{}: code 0x241-0x255.7 (21)
0x240|   14                                          | .              |              size: 20 0x241-0x241.7 (1)
     |                                               |                |              code{}: 0x242-0x255.7 (20)
     |                                               |                |                t{}: 0x242-0x242.7 (1)
0x240|      00                                       |  .             |                  n: 0 0x242-0x242.7 (1)
     |                                               |                |                  x[0:0]: 0x243-NA (0)
     |                                               |                |                e[0:2]: 0x243-0x255.7 (19)
     |                                               |                |                  [0]{}: in 0x243-0x254.7 (18)
0x240|         fd                                    |   .            |                    prefix: 0xfd (valid) 0x243-0x243.7 (1)
0x240|            0c                                 |    .           |                    v128.const: 12 (valid) 0x244-0x244.7 (1)
0x240|               00 00 00 00 00 40 8f 40 00 00 00|     .....@.@...|                    bytes: raw bits 0x245-0x254.7 (16)
0x250|00 00 40 8f 40                                 |..@.@           |
     |                                               |                |                  [1]{}: in 0x255-0x255.7 (1)
0x250|               0b                              |     .          |                    end: 0xb (valid) 0x255-0x255.7 (1)
     |                                               |                |            [12]{}: code 0x256-0x26a.7 (21)
0x250|                  14                           |      .         |              size: 20 0x256-0x256.7 (1)
     |                                               |                |              code{}: 0x257-0x26a.7 (20)
     |                                               |                |                t{}: 0x257-0x257.7 (1)
0x250|                     00                        |       .        |                  n: 0 0x257-0x257.7 (1)
     |                                               |                |                  x[0:0]: 0x258-NA (0)
     |                                               |                |                e[0:2]: 0x258-0x26a.7 (19)
     |                                               |                |                  [0]{}: in 0x258-0x269.7 (18)
0x250|                        fd                     |        .       |                    prefix: 0xfd (valid) 0x258-0x258.7 (1)
0x250|                           0c                  |         .      |                    v128.const: 12 (valid) 0x259-0x259.7 (1)
0x250|                              00 8b fc fa 21 59|          ....!Y|                    bytes: raw bits 0x25a-0x269.7 (16)
0x260|8f 40 00 8b fc fa 21 59 8f 40                  |.@....!Y.@      |
     |                                               |                |                  [1]{}: in 0x26a-0x26a.7 (1)
0x260|                              0b               |          .     |                    end: 0xb (valid) 0x26a-0x26a.7 (1)
     |                                               |                |            [13]{}: code 0x26b-0x27f.7 (21)
0x260|                                 14            |           .    |              size: 20 0x26b-0x26b.7 (1)
     |                                               |                |              code{}: 0x26c-0x27f.7 (20)
     |                                               |                |                t{}: 0x26c-0x26c.7 (1)
0x260|                                    00         |            .   |                  n: 0 0x26c-0x26c.7 (1)
     |                                               |                |                  x[0:0]: 0x26d-NA (0)
     |                                               |                |                e[0:2]: 0x26d-0x27f.7 (19)
     |                                               |                |                  [0]{}: in 0x26d-0x27e.7 (18)
0x260|                                       fd      |             .  |                    prefix: 0xfd (valid) 0x26d-0x26d.7 (1)
0x260|                                          0c   |              . |                    v128.const: 12 (valid) 0x26e-0x26e.7 (1)
0x260|                                             00|               .|                    bytes: raw bits 0x26f-0x27e.7 (16)
0x270|00 9f b2 32 23 0c 43 00 00 9f b2 32 23 0c 43   |...2#.C....2#.C |
     |                                               |                |                  [1]{}: in 0x27f-0x27f.7 (1)
0x270|                                             0b|               .|                    end: 0xb (valid) 0x27f-0x27f.7 (1)
     |                                               |                |            [14]{}: code 0x280-0x294.7 (21)
0x280|14                                             |.               |              size: 20 0x280-0x280.7 (1)
     |                                               |                |              code{}: 0x281-0x294.7 (20)
     |                                               |                |                t{}: 0x281-0x281.7 (1)
0x280|   00                                          | .              |                  n: 0 0x281-0x281.7 (1)
     |                                               |                |                  x[0:0]: 0x282-NA (0)
     |                                               |                |                e[0:2]: 0x282-0x294.7 (19)
     |                                               |                |                  [0]{}: in 0x282-0x293.7 (18)
0x280|      fd                                       |  .             |                    prefix: 0xfd (valid) 0x282-0x282.7 (1)
0x280|         0c                                    |   .            |                    v128.const: 12 (valid) 0x283-0x283.7 (1)
0x280|            9c de 5b 72 ce b5 c3 45 9c de 5b 72|    ..[r...E..[r|                    bytes: raw bits 0x284-0x293.7 (16)
0x290|ce b5 c3 45                                    |...E            |
     |                                               |                |                  [1]{}: in 0x294-0x294.7 (1)
0x290|            0b                                 |    .           |                    end: 0xb (valid) 0x294-0x294.7 (1)
     |                                               |                |            [15]{}: code 0x295-0x2a9.7 (21)
0x290|               14                              |     .          |              size: 20 0x295-0x295.7 (1)
     |                                               |                |              code{}: 0x296-0x2a9.7 (20)
     |                                               |                |                t{}: 0x296-0x296.7 (1)
0x290|                  00                           |      .         |                  n: 0 0x296-0x296.7 (1)
     |                                               |                |                  x[0:0]: 0x297-NA (0)
     |                                               |                |                e[0:2]: 0x297-0x2a9.7 (19)
     |                                               |                |                  [0]{}: in 0x297-0x2a8.7 (18)
0x290|                     fd                        |       .        |                    prefix: 0xfd (valid) 0x297-0x297.7 (1)
0x290|                        0c                     |        .       |                    v128.const: 12 (valid) 0x298-0x298.7 (1)
0x290|                           00 00 00 32 01 1e a4|         ...2...|                    bytes: raw bits 0x299-0x2a8.7 (16)
0x2a0|41 00 00 00 32 01 1e a4 41                     |A...2...A       |
     |                                               |                |                  [1]{}: in 0x2a9-0x2a9.7 (1)
0x2a0|                           0b                  |         .      |                    end: 0xb (valid) 0x2a9-0x2a9.7 (1)
     |                                               |                |            [16]{}: code 0x2aa-0x2be.7 (21)
0x2a0|                              14               |          .     |              size: 20 0x2aa-0x2aa.7 (1)
     |                                               |                |              code{}: 0x2ab-0x2be.7 (20)
     |                                               |                |                t{}: 0x2ab-0x2ab.7 (1)
0x2a0|                                 00            |           .    |                  n: 0 0x2ab-0x2ab.7 (1)
     |                                               |                |                  x[0:0]: 0x2ac-NA (0)
     |                                               |                |                e[0:2]: 0x2ac-0x2be.7 (19)
     |                                               |                |                  [0]{}: in 0x2ac-0x2bd.7 (18)
0x2a0|                                    fd         |            .   |                    prefix: 0xfd (valid) 0x2ac-0x2ac.7 (1)
0x2a0|                                       0c      |             .  |                    v128.const: 12 (valid) 0x2ad-0x2ad.7 (1)
0x2a0|                                          00 00|              ..|                    bytes: raw bits 0x2ae-0x2bd.7 (16)
0x2b0|00 00 f0 a0 fa 40 00 00 00 00 f0 a0 fa 40      |.....@.......@  |
     |                                               |                |                  [1]{}: in 0x2be-0x2be.7 (1)
0x2b0|                                          0b   |              . |                    end: 0xb (valid) 0x2be-0x2be.7 (1)
     |                                               |                |            [17]{}: code 0x2bf-0x2d3.7 (21)
0x2b0|                                             14|               .|              size: 20 0x2bf-0x2bf.7 (1)
     |                                               |                |              code{}: 0x2c0-0x2d3.7 (20)
     |                                               |                |                t{}: 0x2c0-0x2c0.7 (1)
0x2c0|00                                             |.               |                  n: 0 0x2c0-0x2c0.7 (1)
     |                                               |                |                  x[0:0]: 0x2c1-NA (0)
     |                                               |                |                e[0:2]: 0x2c1-0x2d3.7 (19)
     |                                               |                |                  [0]{}: in 0x2c1-0x2d2.7 (18)
0x2c0|   fd                                          | .              |                    prefix: 0xfd (valid) 0x2c1-0x2c1.7 (1)
0x2c0|      0c                                       |  .             |                    v128.const: 12 (valid) 0x2c2-0x2c2.7 (1)
0x2c0|         40 b3 34 28 fe 1f e4 40 40 b3 34 28 fe|   @.4(...@@.4(.|                    bytes: raw bits 0x2c3-0x2d2.7 (16)
0x2d0|1f e4 40                                       |..@             |
     |                                               |                |                  [1]{}: in 0x2d3-0x2d3.7 (1)
0x2d0|         0b                                    |   .            |                    end: 0xb (valid) 0x2d3-0x2d3.7 (1)
     |                                               |                |            [18]{}: code 0x2d4-0x2e8.7 (21)
0x2d0|            14                                 |    .           |              size: 20 0x2d4-0x2d4.7 (1)
     |                                               |                |              code{}: 0x2d5-0x2e8.7 (20)
     |                                               |                |                t{}: 0x2d5-0x2d5.7 (1)
0x2d0|               00                              |     .          |                  n: 0 0x2d5-0x2d5.7 (1)
     |                                               |                |                  x[0:0]: 0x2d6-NA (0)
     |                                               |                |                e[0:2]: 0x2d6-0x2e8.7 (19)
     |                                               |                |                  [0]{}: in 0x2d6-0x2e7.7 (18)
0x2d0|                  fd                           |      .         |                    prefix: 0xfd (valid) 0x2d6-0x2d6.7 (1)
0x2d0|                     0c                        |       .        |                    v128.const: 12 (valid) 0x2d7-0x2d7.7 (1)
0x2d0|                        00 00 00 00 00 00 3e 41|        ......>A|                    bytes: raw bits 0x2d8-0x2e7.7 (16)
0x2e0|00 00 00 00 00 00 3e 41                        |......>A        |
     |                                               |                |                  [1]{}: in 0x2e8-0x2e8.7 (1)
0x2e0|                        0b                     |        .       |                    end: 0xb (valid) 0x2e8-0x2e8.7 (1)
     |                                               |                |            [19]{}: code 0x2e9-0x2fd.7 (21)
0x2e0|                           14                  |         .      |              size: 20 0x2e9-0x2e9.7 (1)
     |                                               |                |              code{}: 0x2ea-0x2fd.7 (20)
     |                                               |                |                t{}: 0x2ea-0x2ea.7 (1)
0x2e0|                              00               |          .     |                  n: 0 0x2ea-0x2ea.7 (1)
     |                                               |                |                  x[0:0]: 0x2eb-NA (0)
     |                                               |                |                e[0:2]: 0x2eb-0x2fd.7 (19)
     |                                               |                |                  [0]{}: in 0x2eb-0x2fc.7 (18)
0x2e0|                                 fd            |           .    |                    prefix: 0xfd (valid) 0x2eb-0x2eb.7 (1)
0x2e0|                                    0c         |            .   |                    v128.const: 12 (valid) 0x2ec-0x2ec.7 (1)
0x2e0|                                       00 70 9f|             .p.|                    bytes: raw bits 0x2ed-0x2fc.7 (16)
0x2f0|0f 05 78 b5 42 00 70 9f 0f 05 78 b5 42         |..x.B.p...x.B   |
     |                                               |                |                  [1]{}: in 0x2fd-0x2fd.7 (1)
0x2f0|                                       0b|     |             .| |                    end: 0xb (valid) 0x2fd-0x2fd.7 (1)
