$ fq -d wasm dv simd_f32x4-0.wasm
     |00 01 02 03 04 05 06 07 08 09 0a 0b 0c 0d 0e 0f|0123456789abcdef|.{}: simd_f32x4-0.wasm (wasm) 0x0-0x460 (1120)
0x000|00 61 73 6d                                    |.asm            |  magic: raw bits (valid) 0x0-0x4 (4)
0x000|            01 00 00 00                        |    ....        |  version: 1 0x4-0x8 (4)
     |                                               |                |  sections[0:4]: 0x8-0x460 (1112)
     |                                               |                |    [0]{}: section 0x8-0x1a (18)
0x000|                        01                     |        .       |      id: "type_section" (1) 0x8-0x9 (1)
0x000|                           10                  |         .      |      size: 16 (valid) 0x9-0xa (1)
     |                                               |                |      content{}: 0xa-0x1a (16)
     |                                               |                |        ft{}: 0xa-0x1a (16)
0x000|                              03               |          .     |          n: 3 (valid) 0xa-0xb (1)
     |                                               |                |          x[0:3]: 0xb-0x1a (15)
     |                                               |                |            [0]{}: ft 0xb-0x11 (6)
0x000|                                 60            |           `    |              tag: 0x60 (valid) 0xb-0xc (1)
     |                                               |                |              rt1{}: 0xc-0xf (3)
0x000|                                    02         |            .   |                n: 2 (valid) 0xc-0xd (1)
     |                                               |                |                x[0:2]: 0xd-0xf (2)
0x000|                                       7b      |             {  |                  [0]: "v128" (0x7b) t 0xd-0xe (1)
0x000|                                          7b   |              { |                  [1]: "v128" (0x7b) t 0xe-0xf (1)
     |                                               |                |              rt2{}: 0xf-0x11 (2)
0x000|                                             01|               .|                n: 1 (valid) 0xf-0x10 (1)
     |                                               |                |                x[0:1]: 0x10-0x11 (1)
0x010|7b                                             |{               |                  [0]: "v128" (0x7b) t 0x10-0x11 (1)
     |                                               |                |            [1]{}: ft 0x11-0x16 (5)
0x010|   60                                          | `              |              tag: 0x60 (valid) 0x11-0x12 (1)
     |                                               |                |              rt1{}: 0x12-0x14 (2)
0x010|      01                                       |  .             |                n: 1 (valid) 0x12-0x13 (1)
     |                                               |                |                x[0:1]: 0x13-0x14 (1)
0x010|         7b                                    |   {            |                  [0]: "v128" (0x7b) t 0x13-0x14 (1)
     |                                               |                |              rt2{}: 0x14-0x16 (2)
0x010|            01                                 |    .           |                n: 1 (valid) 0x14-0x15 (1)
     |                                               |                |                x[0:1]: 0x15-0x16 (1)
0x010|               7b                              |     {          |                  [0]: "v128" (0x7b) t 0x15-0x16 (1)
     |                                               |                |            [2]{}: ft 0x16-0x1a (4)
0x010|                  60                           |      `         |              tag: 0x60 (valid) 0x16-0x17 (1)
     |                                               |                |              rt1{}: 0x17-0x18 (1)
0x010|                     00                        |       .        |                n: 0 (valid) 0x17-0x18 (1)
     |                                               |                |                x[0:0]: 0x18-0x18 (0)
     |                                               |                |              rt2{}: 0x18-0x1a (2)
0x010|                        01                     |        .       |                n: 1 (valid) 0x18-0x19 (1)
     |                                               |                |                x[0:1]: 0x19-0x1a (1)
0x010|                           7b                  |         {      |                  [0]: "v128" (0x7b) t 0x19-0x1a (1)
     |                                               |                |    [1]{}: section 0x1a-0x31 (23)
0x010|                              03               |          .     |      id: "function_section" (3) 0x1a-0x1b (1)
0x010|                                 15            |           .    |      size: 21 (valid) 0x1b-0x1c (1)
     |                                               |                |      content{}: 0x1c-0x31 (21)
     |                                               |                |        x{}: 0x1c-0x31 (21)
0x010|                                    14         |            .   |          n: 20 (valid) 0x1c-0x1d (1)
     |                                               |                |          x[0:20]: 0x1d-0x31 (20)
0x010|                                       00      |             .  |            [0]: 0 x (valid) 0x1d-0x1e (1)
0x010|                                          00   |              . |            [1]: 0 x (valid) 0x1e-0x1f (1)
0x010|                                             01|               .|            [2]: 1 x (valid) 0x1f-0x20 (1)
0x020|02                                             |.               |            [3]: 2 x (valid) 0x20-0x21 (1)
0x020|   02                                          | .              |            [4]: 2 x (valid) 0x21-0x22 (1)
0x020|      02                                       |  .             |            [5]: 2 x (valid) 0x22-0x23 (1)
0x020|         02                                    |   .            |            [6]: 2 x (valid) 0x23-0x24 (1)
0x020|            01                                 |    .           |            [7]: 1 x (valid) 0x24-0x25 (1)
0x020|               01                              |     .          |            [8]: 1 x (valid) 0x25-0x26 (1)
0x020|                  01                           |      .         |            [9]: 1 x (valid) 0x26-0x27 (1)
0x020|                     01                        |       .        |            [10]: 1 x (valid) 0x27-0x28 (1)
0x020|                        02                     |        .       |            [11]: 2 x (valid) 0x28-0x29 (1)
0x020|                           02                  |         .      |            [12]: 2 x (valid) 0x29-0x2a (1)
0x020|                              02               |          .     |            [13]: 2 x (valid) 0x2a-0x2b (1)
0x020|                                 02            |           .    |            [14]: 2 x (valid) 0x2b-0x2c (1)
0x020|                                    01         |            .   |            [15]: 1 x (valid) 0x2c-0x2d (1)
0x020|                                       01      |             .  |            [16]: 1 x (valid) 0x2d-0x2e (1)
0x020|                                          01   |              . |            [17]: 1 x (valid) 0x2e-0x2f (1)
0x020|                                             01|               .|            [18]: 1 x (valid) 0x2f-0x30 (1)
0x030|02                                             |.               |            [19]: 2 x (valid) 0x30-0x31 (1)
     |                                               |                |    [2]{}: section 0x31-0x208 (471)
0x030|   07                                          | .              |      id: "export_section" (7) 0x31-0x32 (1)
0x030|      d4 03                                    |  ..            |      size: 468 (valid) 0x32-0x34 (2)
     |                                               |                |      content{}: 0x34-0x208 (468)
     |                                               |                |        ex{}: 0x34-0x208 (468)
0x030|            14                                 |    .           |          n: 20 (valid) 0x34-0x35 (1)
     |                                               |                |          x[0:20]: 0x35-0x208 (467)
     |                                               |                |            [0]{}: ex 0x35-0x41 (12)
     |                                               |                |              nm{}: 0x35-0x3f (10)
0x030|               09                              |     .          |                n: 9 (valid) 0x35-0x36 (1)
0x030|                  66 33 32 78 34 2e 6d 69 6e   |      f32x4.min |                b: "f32x4.min" 0x36-0x3f (9)
     |                                               |                |              d{}: 0x3f-0x41 (2)
0x030|                                             00|               .|                tag: "funcidx" (0x0) 0x3f-0x40 (1)
0x040|00                                             |.               |                x: 0 (valid) 0x40-0x41 (1)
     |                                               |                |            [1]{}: ex 0x41-0x4d (12)
     |                                               |                |              nm{}: 0x41-0x4b (10)
0x040|   09                                          | .              |                n: 9 (valid) 0x41-0x42 (1)
0x040|      66 33 32 78 34 2e 6d 61 78               |  f32x4.max     |                b: "f32x4.max" 0x42-0x4b (9)
     |                                               |                |              d{}: 0x4b-0x4d (2)
0x040|                                 00            |           .    |                tag: "funcidx" (0x0) 0x4b-0x4c (1)
0x040|                                    01         |            .   |                x: 1 (valid) 0x4c-0x4d (1)
     |                                               |                |            [2]{}: ex 0x4d-0x59 (12)
     |                                               |                |              nm{}: 0x4d-0x57 (10)
0x040|                                       09      |             .  |                n: 9 (valid) 0x4d-0x4e (1)
0x040|                                          66 33|              f3|                b: "f32x4.abs" 0x4e-0x57 (9)
0x050|32 78 34 2e 61 62 73                           |2x4.abs         |
     |                                               |                |              d{}: 0x57-0x59 (2)
0x050|                     00                        |       .        |                tag: "funcidx" (0x0) 0x57-0x58 (1)
0x050|                        02                     |        .       |                x: 2 (valid) 0x58-0x59 (1)
     |                                               |                |            [3]{}: ex 0x59-0x72 (25)
     |                                               |                |              nm{}: 0x59-0x70 (23)
0x050|                           16                  |         .      |                n: 22 (valid) 0x59-0x5a (1)
0x050|                              66 33 32 78 34 2e|          f32x4.|                b: "f32x4.min_with_const_0" 0x5a-0x70 (22)
0x060|6d 69 6e 5f 77 69 74 68 5f 63 6f 6e 73 74 5f 30|min_with_const_0|
     |                                               |                |              d{}: 0x70-0x72 (2)
0x070|00                                             |.               |                tag: "funcidx" (0x0) 0x70-0x71 (1)
0x070|   03                                          | .              |                x: 3 (valid) 0x71-0x72 (1)
     |                                               |                |            [4]{}: ex 0x72-0x8b (25)
     |                                               |                |              nm{}: 0x72-0x89 (23)
0x070|      16                                       |  .             |                n: 22 (valid) 0x72-0x73 (1)
0x070|         66 33 32 78 34 2e 6d 69 6e 5f 77 69 74|   f32x4.min_wit|                b: "f32x4.min_with_const_1" 0x73-0x89 (22)
0x080|68 5f 63 6f 6e 73 74 5f 31                     |h_const_1       |
     |                                               |                |              d{}: 0x89-0x8b (2)
0x080|                           00                  |         .      |                tag: "funcidx" (0x0) 0x89-0x8a (1)
0x080|                              04               |          .     |                x: 4 (valid) 0x8a-0x8b (1)
     |                                               |                |            [5]{}: ex 0x8b-0xa4 (25)
     |                                               |                |              nm{}: 0x8b-0xa2 (23)
0x080|                                 16            |           .    |                n: 22 (valid) 0x8b-0x8c (1)
0x080|                                    66 33 32 78|            f32x|                b: "f32x4.min_with_const_2" 0x8c-0xa2 (22)
0x090|34 2e 6d 69 6e 5f 77 69 74 68 5f 63 6f 6e 73 74|4.min_with_const|
0x0a0|5f 32                                          |_2              |
     |                                               |                |              d{}: 0xa2-0xa4 (2)
0x0a0|      00                                       |  .             |                tag: "funcidx" (0x0) 0xa2-0xa3 (1)
0x0a0|         05                                    |   .            |                x: 5 (valid) 0xa3-0xa4 (1)
     |                                               |                |            [6]{}: ex 0xa4-0xbd (25)
     |                                               |                |              nm{}: 0xa4-0xbb (23)
0x0a0|            16                                 |    .           |                n: 22 (valid) 0xa4-0xa5 (1)
0x0a0|               66 33 32 78 34 2e 6d 69 6e 5f 77|     f32x4.min_w|                b: "f32x4.min_with_const_3" 0xa5-0xbb (22)
0x0b0|69 74 68 5f 63 6f 6e 73 74 5f 33               |ith_const_3     |
     |                                               |                |              d{}: 0xbb-0xbd (2)
0x0b0|                                 00            |           .    |                tag: "funcidx" (0x0) 0xbb-0xbc (1)
0x0b0|                                    06         |            .   |                x: 6 (valid) 0xbc-0xbd (1)
     |                                               |                |            [7]{}: ex 0xbd-0xd6 (25)
     |                                               |                |              nm{}: 0xbd-0xd4 (23)
0x0b0|                                       16      |             .  |                n: 22 (valid) 0xbd-0xbe (1)
0x0b0|                                          66 33|              f3|                b: "f32x4.min_with_const_5" 0xbe-0xd4 (22)
0x0c0|32 78 34 2e 6d 69 6e 5f 77 69 74 68 5f 63 6f 6e|2x4.min_with_con|
0x0d0|73 74 5f 35                                    |st_5            |
     |                                               |                |              d{}: 0xd4-0xd6 (2)
0x0d0|            00                                 |    .           |                tag: "funcidx" (0x0) 0xd4-0xd5 (1)
0x0d0|               07                              |     .          |                x: 7 (valid) 0xd5-0xd6 (1)
     |                                               |                |            [8]{}: ex 0xd6-0xef (25)
     |                                               |                |              nm{}: 0xd6-0xed (23)
0x0d0|                  16                           |      .         |                n: 22 (valid) 0xd6-0xd7 (1)
0x0d0|                     66 33 32 78 34 2e 6d 69 6e|       f32x4.min|                b: "f32x4.min_with_const_6" 0xd7-0xed (22)
0x0e0|5f 77 69 74 68 5f 63 6f 6e 73 74 5f 36         |_with_const_6   |
     |                                               |                |              d{}: 0xed-0xef (2)
0x0e0|                                       00      |             .  |                tag: "funcidx" (0x0) 0xed-0xee (1)
0x0e0|                                          08   |              . |                x: 8 (valid) 0xee-0xef (1)
     |                                               |                |            [9]{}: ex 0xef-0x108 (25)
     |                                               |                |              nm{}: 0xef-0x106 (23)
0x0e0|                                             16|               .|                n: 22 (valid) 0xef-0xf0 (1)
0x0f0|66 33 32 78 34 2e 6d 69 6e 5f 77 69 74 68 5f 63|f32x4.min_with_c|                b: "f32x4.min_with_const_7" 0xf0-0x106 (22)
0x100|6f 6e 73 74 5f 37                              |onst_7          |
     |                                               |                |              d{}: 0x106-0x108 (2)
0x100|                  00                           |      .         |                tag: "funcidx" (0x0) 0x106-0x107 (1)
0x100|                     09                        |       .        |                x: 9 (valid) 0x107-0x108 (1)
     |                                               |                |            [10]{}: ex 0x108-0x121 (25)
     |                                               |                |              nm{}: 0x108-0x11f (23)
0x100|                        16                     |        .       |                n: 22 (valid) 0x108-0x109 (1)
0x100|                           66 33 32 78 34 2e 6d|         f32x4.m|                b: "f32x4.min_with_const_8" 0x109-0x11f (22)
0x110|69 6e 5f 77 69 74 68 5f 63 6f 6e 73 74 5f 38   |in_with_const_8 |
     |                                               |                |              d{}: 0x11f-0x121 (2)
0x110|                                             00|               .|                tag: "funcidx" (0x0) 0x11f-0x120 (1)
0x120|0a                                             |.               |                x: 10 (valid) 0x120-0x121 (1)
     |                                               |                |            [11]{}: ex 0x121-0x13b (26)
     |                                               |                |              nm{}: 0x121-0x139 (24)
0x120|   17                                          | .              |                n: 23 (valid) 0x121-0x122 (1)
0x120|      66 33 32 78 34 2e 6d 61 78 5f 77 69 74 68|  f32x4.max_with|                b: "f32x4.max_with_const_10" 0x122-0x139 (23)
0x130|5f 63 6f 6e 73 74 5f 31 30                     |_const_10       |
     |                                               |                |              d{}: 0x139-0x13b (2)
0x130|                           00                  |         .      |                tag: "funcidx" (0x0) 0x139-0x13a (1)
0x130|                              0b               |          .     |                x: 11 (valid) 0x13a-0x13b (1)
     |                                               |                |            [12]{}: ex 0x13b-0x155 (26)
     |                                               |                |              nm{}: 0x13b-0x153 (24)
0x130|                                 17            |           .    |                n: 23 (valid) 0x13b-0x13c (1)
0x130|                                    66 33 32 78|            f32x|                b: "f32x4.max_with_const_11" 0x13c-0x153 (23)
0x140|34 2e 6d 61 78 5f 77 69 74 68 5f 63 6f 6e 73 74|4.max_with_const|
0x150|5f 31 31                                       |_11             |
     |                                               |                |              d{}: 0x153-0x155 (2)
0x150|         00                                    |   .            |                tag: "funcidx" (0x0) 0x153-0x154 (1)
0x150|            0c                                 |    .           |                x: 12 (valid) 0x154-0x155 (1)
     |                                               |                |            [13]{}: ex 0x155-0x16f (26)
     |                                               |                |              nm{}: 0x155-0x16d (24)
0x150|               17                              |     .          |                n: 23 (valid) 0x155-0x156 (1)
0x150|                  66 33 32 78 34 2e 6d 61 78 5f|      f32x4.max_|                b: "f32x4.max_with_const_12" 0x156-0x16d (23)
0x160|77 69 74 68 5f 63 6f 6e 73 74 5f 31 32         |with_const_12   |
     |                                               |                |              d{}: 0x16d-0x16f (2)
0x160|                                       00      |             .  |                tag: "funcidx" (0x0) 0x16d-0x16e (1)
0x160|                                          0d   |              . |                x: 13 (valid) 0x16e-0x16f (1)
     |                                               |                |            [14]{}: ex 0x16f-0x189 (26)
     |                                               |                |              nm{}: 0x16f-0x187 (24)
0x160|                                             17|               .|                n: 23 (valid) 0x16f-0x170 (1)
0x170|66 33 32 78 34 2e 6d 61 78 5f 77 69 74 68 5f 63|f32x4.max_with_c|                b: "f32x4.max_with_const_13" 0x170-0x187 (23)
0x180|6f 6e 73 74 5f 31 33                           |onst_13         |
     |                                               |                |              d{}: 0x187-0x189 (2)
0x180|                     00                        |       .        |                tag: "funcidx" (0x0) 0x187-0x188 (1)
0x180|                        0e                     |        .       |                x: 14 (valid) 0x188-0x189 (1)
     |                                               |                |            [15]{}: ex 0x189-0x1a3 (26)
     |                                               |                |              nm{}: 0x189-0x1a1 (24)
0x180|                           17                  |         .      |                n: 23 (valid) 0x189-0x18a (1)
0x180|                              66 33 32 78 34 2e|          f32x4.|                b: "f32x4.max_with_const_15" 0x18a-0x1a1 (23)
0x190|6d 61 78 5f 77 69 74 68 5f 63 6f 6e 73 74 5f 31|max_with_const_1|
0x1a0|35                                             |5               |
     |                                               |                |              d{}: 0x1a1-0x1a3 (2)
0x1a0|   00                                          | .              |                tag: "funcidx" (0x0) 0x1a1-0x1a2 (1)
0x1a0|      0f                                       |  .             |                x: 15 (valid) 0x1a2-0x1a3 (1)
     |                                               |                |            [16]{}: ex 0x1a3-0x1bd (26)
     |                                               |                |              nm{}: 0x1a3-0x1bb (24)
0x1a0|         17                                    |   .            |                n: 23 (valid) 0x1a3-0x1a4 (1)
0x1a0|            66 33 32 78 34 2e 6d 61 78 5f 77 69|    f32x4.max_wi|                b: "f32x4.max_with_const_16" 0x1a4-0x1bb (23)
0x1b0|74 68 5f 63 6f 6e 73 74 5f 31 36               |th_const_16     |
     |                                               |                |              d{}: 0x1bb-0x1bd (2)
0x1b0|                                 00            |           .    |                tag: "funcidx" (0x0) 0x1bb-0x1bc (1)
0x1b0|                                    10         |            .   |                x: 16 (valid) 0x1bc-0x1bd (1)
     |                                               |                |            [17]{}: ex 0x1bd-0x1d7 (26)
     |                                               |                |              nm{}: 0x1bd-0x1d5 (24)
0x1b0|                                       17      |             .  |                n: 23 (valid) 0x1bd-0x1be (1)
0x1b0|                                          66 33|              f3|                b: "f32x4.max_with_const_17" 0x1be-0x1d5 (23)
0x1c0|32 78 34 2e 6d 61 78 5f 77 69 74 68 5f 63 6f 6e|2x4.max_with_con|
0x1d0|73 74 5f 31 37                                 |st_17           |
     |                                               |                |              d{}: 0x1d5-0x1d7 (2)
0x1d0|               00                              |     .          |                tag: "funcidx" (0x0) 0x1d5-0x1d6 (1)
0x1d0|                  11                           |      .         |                x: 17 (valid) 0x1d6-0x1d7 (1)
     |                                               |                |            [18]{}: ex 0x1d7-0x1f1 (26)
     |                                               |                |              nm{}: 0x1d7-0x1ef (24)
0x1d0|                     17                        |       .        |                n: 23 (valid) 0x1d7-0x1d8 (1)
0x1d0|                        66 33 32 78 34 2e 6d 61|        f32x4.ma|                b: "f32x4.max_with_const_18" 0x1d8-0x1ef (23)
0x1e0|78 5f 77 69 74 68 5f 63 6f 6e 73 74 5f 31 38   |x_with_const_18 |
     |                                               |                |              d{}: 0x1ef-0x1f1 (2)
0x1e0|                                             00|               .|                tag: "funcidx" (0x0) 0x1ef-0x1f0 (1)
0x1f0|12                                             |.               |                x: 18 (valid) 0x1f0-0x1f1 (1)
     |                                               |                |            [19]{}: ex 0x1f1-0x208 (23)
     |                                               |                |              nm{}: 0x1f1-0x206 (21)
0x1f0|   14                                          | .              |                n: 20 (valid) 0x1f1-0x1f2 (1)
0x1f0|      66 33 32 78 34 2e 61 62 73 5f 77 69 74 68|  f32x4.abs_with|                b: "f32x4.abs_with_const" 0x1f2-0x206 (20)
0x200|5f 63 6f 6e 73 74                              |_const          |
     |                                               |                |              d{}: 0x206-0x208 (2)
0x200|                  00                           |      .         |                tag: "funcidx" (0x0) 0x206-0x207 (1)
0x200|                     13                        |       .        |                x: 19 (valid) 0x207-0x208 (1)
     |                                               |                |    [3]{}: section 0x208-0x460 (600)
0x200|                        0a                     |        .       |      id: "code_section" (10) 0x208-0x209 (1)
0x200|                           d5 04               |         ..     |      size: 597 (valid) 0x209-0x20b (2)
     |                                               |                |      content{}: 0x20b-0x460 (597)
     |                                               |                |        code{}: 0x20b-0x460 (597)
0x200|                                 14            |           .    |          n: 20 (valid) 0x20b-0x20c (1)
     |                                               |                |          x[0:20]: 0x20c-0x460 (596)
     |                                               |                |            [0]{}: code 0x20c-0x216 (10)
0x200|                                    09         |            .   |              size: 9 (valid) 0x20c-0x20d (1)
     |                                               |                |              code{}: 0x20d-0x216 (9)
     |                                               |                |                t{}: 0x20d-0x20e (1)
0x200|                                       00      |             .  |                  n: 0 (valid) 0x20d-0x20e (1)
     |                                               |                |                  x[0:0]: 0x20e-0x20e (0)
     |                                               |                |                e[0:4]: 0x20e-0x216 (8)
     |                                               |                |                  [0]{}: in 0x20e-0x210 (2)
0x200|                                          20   |                |                    opcode: "local.get" (0x20) 0x20e-0x20f (1)
0x200|                                             00|               .|                    x: 0 (valid) 0x20f-0x210 (1)
     |                                               |                |                  [1]{}: in 0x210-0x212 (2)
0x210|20                                             |                |                    opcode: "local.get" (0x20) 0x210-0x211 (1)
0x210|   01                                          | .              |                    x: 1 (valid) 0x211-0x212 (1)
     |                                               |                |                  [2]{}: in 0x212-0x215 (3)
0x210|      fd                                       |  .             |                    opcode: "vector" (0xfd) 0x212-0x213 (1)
0x210|         e8 01                                 |   ..           |                    v_opcode: "f32x4.min" (232) 0x213-0x215 (2)
     |                                               |                |                  [3]{}: in 0x215-0x216 (1)
0x210|               0b                              |     .          |                    opcode: "end" (0xb) 0x215-0x216 (1)
     |                                               |                |            [1]{}: code 0x216-0x220 (10)
0x210|                  09                           |      .         |              size: 9 (valid) 0x216-0x217 (1)
     |                                               |                |              code{}: 0x217-0x220 (9)
     |                                               |                |                t{}: 0x217-0x218 (1)
0x210|                     00                        |       .        |                  n: 0 (valid) 0x217-0x218 (1)
     |                                               |                |                  x[0:0]: 0x218-0x218 (0)
     |                                               |                |                e[0:4]: 0x218-0x220 (8)
     |                                               |                |                  [0]{}: in 0x218-0x21a (2)
0x210|                        20                     |                |                    opcode: "local.get" (0x20) 0x218-0x219 (1)
0x210|                           00                  |         .      |                    x: 0 (valid) 0x219-0x21a (1)
     |                                               |                |                  [1]{}: in 0x21a-0x21c (2)
0x210|                              20               |                |                    opcode: "local.get" (0x20) 0x21a-0x21b (1)
0x210|                                 01            |           .    |                    x: 1 (valid) 0x21b-0x21c (1)
     |                                               |                |                  [2]{}: in 0x21c-0x21f (3)
0x210|                                    fd         |            .   |                    opcode: "vector" (0xfd) 0x21c-0x21d (1)
0x210|                                       e9 01   |             .. |                    v_opcode: "f32x4.max" (233) 0x21d-0x21f (2)
     |                                               |                |                  [3]{}: in 0x21f-0x220 (1)
0x210|                                             0b|               .|                    opcode: "end" (0xb) 0x21f-0x220 (1)
     |                                               |                |            [2]{}: code 0x220-0x228 (8)
0x220|07                                             |.               |              size: 7 (valid) 0x220-0x221 (1)
     |                                               |                |              code{}: 0x221-0x228 (7)
     |                                               |                |                t{}: 0x221-0x222 (1)
0x220|   00                                          | .              |                  n: 0 (valid) 0x221-0x222 (1)
     |                                               |                |                  x[0:0]: 0x222-0x222 (0)
     |                                               |                |                e[0:3]: 0x222-0x228 (6)
     |                                               |                |                  [0]{}: in 0x222-0x224 (2)
0x220|      20                                       |                |                    opcode: "local.get" (0x20) 0x222-0x223 (1)
0x220|         00                                    |   .            |                    x: 0 (valid) 0x223-0x224 (1)
     |                                               |                |                  [1]{}: in 0x224-0x227 (3)
0x220|            fd                                 |    .           |                    opcode: "vector" (0xfd) 0x224-0x225 (1)
0x220|               e0 01                           |     ..         |                    v_opcode: "f32x4.abs" (224) 0x225-0x227 (2)
     |                                               |                |                  [2]{}: in 0x227-0x228 (1)
0x220|                     0b                        |       .        |                    opcode: "end" (0xb) 0x227-0x228 (1)
     |                                               |                |            [3]{}: code 0x228-0x252 (42)
0x220|                        29                     |        )       |              size: 41 (valid) 0x228-0x229 (1)
     |                                               |                |              code{}: 0x229-0x252 (41)
     |                                               |                |                t{}: 0x229-0x22a (1)
0x220|                           00                  |         .      |                  n: 0 (valid) 0x229-0x22a (1)
     |                                               |                |                  x[0:0]: 0x22a-0x22a (0)
     |                                               |                |                e[0:4]: 0x22a-0x252 (40)
     |                                               |                |                  [0]{}: in 0x22a-0x23c (18)
0x220|                              fd               |          .     |                    opcode: "vector" (0xfd) 0x22a-0x22b (1)
0x220|                                 0c            |           .    |                    v_opcode: "v128.const" (12) 0x22b-0x22c (1)
0x220|                                    00 00 00 00|            ....|                    bytes: raw bits 0x22c-0x23c (16)
0x230|00 00 80 3f 00 00 00 40 00 00 40 c0            |...?...@..@.    |
     |                                               |                |                  [1]{}: in 0x23c-0x24e (18)
0x230|                                    fd         |            .   |                    opcode: "vector" (0xfd) 0x23c-0x23d (1)
0x230|                                       0c      |             .  |                    v_opcode: "v128.const" (12) 0x23d-0x23e (1)
0x230|                                          00 00|              ..|                    bytes: raw bits 0x23e-0x24e (16)
0x240|00 00 00 00 00 40 00 00 80 3f 00 00 40 40      |.....@...?..@@  |
     |                                               |                |                  [2]{}: in 0x24e-0x251 (3)
0x240|                                          fd   |              . |                    opcode: "vector" (0xfd) 0x24e-0x24f (1)
0x240|                                             e8|               .|                    v_opcode: "f32x4.min" (232) 0x24f-0x251 (2)
0x250|01                                             |.               |
     |                                               |                |                  [3]{}: in 0x251-0x252 (1)
0x250|   0b                                          | .              |                    opcode: "end" (0xb) 0x251-0x252 (1)
     |                                               |                |            [4]{}: code 0x252-0x27c (42)
0x250|      29                                       |  )             |              size: 41 (valid) 0x252-0x253 (1)
     |                                               |                |              code{}: 0x253-0x27c (41)
     |                                               |                |                t{}: 0x253-0x254 (1)
0x250|         00                                    |   .            |                  n: 0 (valid) 0x253-0x254 (1)
     |                                               |                |                  x[0:0]: 0x254-0x254 (0)
     |                                               |                |                e[0:4]: 0x254-0x27c (40)
     |                                               |                |                  [0]{}: in 0x254-0x266 (18)
0x250|            fd                                 |    .           |                    opcode: "vector" (0xfd) 0x254-0x255 (1)
0x250|               0c                              |     .          |                    v_opcode: "v128.const" (12) 0x255-0x256 (1)
0x250|                  00 00 00 00 00 00 80 3f 00 00|      .......?..|                    bytes: raw bits 0x256-0x266 (16)
0x260|00 40 00 00 40 40                              |.@..@@          |
     |                                               |                |                  [1]{}: in 0x266-0x278 (18)
0x260|                  fd                           |      .         |                    opcode: "vector" (0xfd) 0x266-0x267 (1)
0x260|                     0c                        |       .        |                    v_opcode: "v128.const" (12) 0x267-0x268 (1)
0x260|                        00 00 00 00 00 00 80 3f|        .......?|                    bytes: raw bits 0x268-0x278 (16)
0x270|00 00 00 40 00 00 40 40                        |...@..@@        |
     |                                               |                |                  [2]{}: in 0x278-0x27b (3)
0x270|                        fd                     |        .       |                    opcode: "vector" (0xfd) 0x278-0x279 (1)
0x270|                           e8 01               |         ..     |                    v_opcode: "f32x4.min" (232) 0x279-0x27b (2)
     |                                               |                |                  [3]{}: in 0x27b-0x27c (1)
0x270|                                 0b            |           .    |                    opcode: "end" (0xb) 0x27b-0x27c (1)
     |                                               |                |            [5]{}: code 0x27c-0x2a6 (42)
0x270|                                    29         |            )   |              size: 41 (valid) 0x27c-0x27d (1)
     |                                               |                |              code{}: 0x27d-0x2a6 (41)
     |                                               |                |                t{}: 0x27d-0x27e (1)
0x270|                                       00      |             .  |                  n: 0 (valid) 0x27d-0x27e (1)
     |                                               |                |                  x[0:0]: 0x27e-0x27e (0)
     |                                               |                |                e[0:4]: 0x27e-0x2a6 (40)
     |                                               |                |                  [0]{}: in 0x27e-0x290 (18)
0x270|                                          fd   |              . |                    opcode: "vector" (0xfd) 0x27e-0x27f (1)
0x270|                                             0c|               .|                    v_opcode: "v128.const" (12) 0x27f-0x280 (1)
0x280|00 00 00 00 00 00 80 3f 00 00 00 40 00 00 00 4f|.......?...@...O|                    bytes: raw bits 0x280-0x290 (16)
     |                                               |                |                  [1]{}: in 0x290-0x2a2 (18)
0x290|fd                                             |.               |                    opcode: "vector" (0xfd) 0x290-0x291 (1)
0x290|   0c                                          | .              |                    v_opcode: "v128.const" (12) 0x291-0x292 (1)
0x290|      00 00 00 00 00 00 00 40 00 00 80 3f 00 00|  .......@...?..|                    bytes: raw bits 0x292-0x2a2 (16)
0x2a0|00 4f                                          |.O              |
     |                                               |                |                  [2]{}: in 0x2a2-0x2a5 (3)
0x2a0|      fd                                       |  .             |                    opcode: "vector" (0xfd) 0x2a2-0x2a3 (1)
0x2a0|         e8 01                                 |   ..           |                    v_opcode: "f32x4.min" (232) 0x2a3-0x2a5 (2)
     |                                               |                |                  [3]{}: in 0x2a5-0x2a6 (1)
0x2a0|               0b                              |     .          |                    opcode: "end" (0xb) 0x2a5-0x2a6 (1)
     |                                               |                |            [6]{}: code 0x2a6-0x2d0 (42)
0x2a0|                  29                           |      )         |              size: 41 (valid) 0x2a6-0x2a7 (1)
     |                                               |                |              code{}: 0x2a7-0x2d0 (41)
     |                                               |                |                t{}: 0x2a7-0x2a8 (1)
0x2a0|                     00                        |       .        |                  n: 0 (valid) 0x2a7-0x2a8 (1)
     |                                               |                |                  x[0:0]: 0x2a8-0x2a8 (0)
     |                                               |                |                e[0:4]: 0x2a8-0x2d0 (40)
     |                                               |                |                  [0]{}: in 0x2a8-0x2ba (18)
0x2a0|                        fd                     |        .       |                    opcode: "vector" (0xfd) 0x2a8-0x2a9 (1)
0x2a0|                           0c                  |         .      |                    v_opcode: "v128.const" (12) 0x2a9-0x2aa (1)
0x2a0|                              00 00 00 00 00 00|          ......|                    bytes: raw bits 0x2aa-0x2ba (16)
0x2b0|80 3f 00 00 00 40 00 00 00 4f                  |.?...@...O      |
     |                                               |                |                  [1]{}: in 0x2ba-0x2cc (18)
0x2b0|                              fd               |          .     |                    opcode: "vector" (0xfd) 0x2ba-0x2bb (1)
0x2b0|                                 0c            |           .    |                    v_opcode: "v128.const" (12) 0x2bb-0x2bc (1)
0x2b0|                                    00 00 00 00|            ....|                    bytes: raw bits 0x2bc-0x2cc (16)
0x2c0|00 00 80 3f 00 00 00 40 00 00 00 4f            |...?...@...O    |
     |                                               |                |                  [2]{}: in 0x2cc-0x2cf (3)
0x2c0|                                    fd         |            .   |                    opcode: "vector" (0xfd) 0x2cc-0x2cd (1)
0x2c0|                                       e8 01   |             .. |                    v_opcode: "f32x4.min" (232) 0x2cd-0x2cf (2)
     |                                               |                |                  [3]{}: in 0x2cf-0x2d0 (1)
0x2c0|                                             0b|               .|                    opcode: "end" (0xb) 0x2cf-0x2d0 (1)
     |                                               |                |            [7]{}: code 0x2d0-0x2ea (26)
0x2d0|19                                             |.               |              size: 25 (valid) 0x2d0-0x2d1 (1)
     |                                               |                |              code{}: 0x2d1-0x2ea (25)
     |                                               |                |                t{}: 0x2d1-0x2d2 (1)
0x2d0|   00                                          | .              |                  n: 0 (valid) 0x2d1-0x2d2 (1)
     |                                               |                |                  x[0:0]: 0x2d2-0x2d2 (0)
     |                                               |                |                e[0:4]: 0x2d2-0x2ea (24)
     |                                               |                |                  [0]{}: in 0x2d2-0x2d4 (2)
0x2d0|      20                                       |                |                    opcode: "local.get" (0x20) 0x2d2-0x2d3 (1)
0x2d0|         00                                    |   .            |                    x: 0 (valid) 0x2d3-0x2d4 (1)
     |                                               |                |                  [1]{}: in 0x2d4-0x2e6 (18)
0x2d0|            fd                                 |    .           |                    opcode: "vector" (0xfd) 0x2d4-0x2d5 (1)
0x2d0|               0c                              |     .          |                    v_opcode: "v128.const" (12) 0x2d5-0x2d6 (1)
0x2d0|                  00 00 00 00 00 00 80 3f 00 00|      .......?..|                    bytes: raw bits 0x2d6-0x2e6 (16)
0x2e0|00 40 00 00 40 c0                              |.@..@.          |
     |                                               |                |                  [2]{}: in 0x2e6-0x2e9 (3)
0x2e0|                  fd                           |      .         |                    opcode: "vector" (0xfd) 0x2e6-0x2e7 (1)
0x2e0|                     e8 01                     |       ..       |                    v_opcode: "f32x4.min" (232) 0x2e7-0x2e9 (2)
     |                                               |                |                  [3]{}: in 0x2e9-0x2ea (1)
0x2e0|                           0b                  |         .      |                    opcode: "end" (0xb) 0x2e9-0x2ea (1)
     |                                               |                |            [8]{}: code 0x2ea-0x304 (26)
0x2e0|                              19               |          .     |              size: 25 (valid) 0x2ea-0x2eb (1)
     |                                               |                |              code{}: 0x2eb-0x304 (25)
     |                                               |                |                t{}: 0x2eb-0x2ec (1)
0x2e0|                                 00            |           .    |                  n: 0 (valid) 0x2eb-0x2ec (1)
     |                                               |                |                  x[0:0]: 0x2ec-0x2ec (0)
     |                                               |                |                e[0:4]: 0x2ec-0x304 (24)
     |                                               |                |                  [0]{}: in 0x2ec-0x2fe (18)
0x2e0|                                    fd         |            .   |                    opcode: "vector" (0xfd) 0x2ec-0x2ed (1)
0x2e0|                                       0c      |             .  |                    v_opcode: "v128.const" (12) 0x2ed-0x2ee (1)
0x2e0|                                          00 00|              ..|                    bytes: raw bits 0x2ee-0x2fe (16)
0x2f0|00 00 00 00 80 3f 00 00 00 40 00 00 40 40      |.....?...@..@@  |
     |                                               |                |                  [1]{}: in 0x2fe-0x300 (2)
0x2f0|                                          20   |                |                    opcode: "local.get" (0x20) 0x2fe-0x2ff (1)
0x2f0|                                             00|               .|                    x: 0 (valid) 0x2ff-0x300 (1)
     |                                               |                |                  [2]{}: in 0x300-0x303 (3)
0x300|fd                                             |.               |                    opcode: "vector" (0xfd) 0x300-0x301 (1)
0x300|   e8 01                                       | ..             |                    v_opcode: "f32x4.min" (232) 0x301-0x303 (2)
     |                                               |                |                  [3]{}: in 0x303-0x304 (1)
0x300|         0b                                    |   .            |                    opcode: "end" (0xb) 0x303-0x304 (1)
     |                                               |                |            [9]{}: code 0x304-0x31e (26)
0x300|            19                                 |    .           |              size: 25 (valid) 0x304-0x305 (1)
     |                                               |                |              code{}: 0x305-0x31e (25)
     |                                               |                |                t{}: 0x305-0x306 (1)
0x300|               00                              |     .          |                  n: 0 (valid) 0x305-0x306 (1)
     |                                               |                |                  x[0:0]: 0x306-0x306 (0)
     |                                               |                |                e[0:4]: 0x306-0x31e (24)
     |                                               |                |                  [0]{}: in 0x306-0x318 (18)
0x300|                  fd                           |      .         |                    opcode: "vector" (0xfd) 0x306-0x307 (1)
0x300|                     0c                        |       .        |                    v_opcode: "v128.const" (12) 0x307-0x308 (1)
0x300|                        00 00 00 00 00 00 80 3f|        .......?|                    bytes: raw bits 0x308-0x318 (16)
0x310|00 00 00 40 00 00 00 4f                        |...@...O        |
     |                                               |                |                  [1]{}: in 0x318-0x31a (2)
0x310|                        20                     |                |                    opcode: "local.get" (0x20) 0x318-0x319 (1)
0x310|                           00                  |         .      |                    x: 0 (valid) 0x319-0x31a (1)
     |                                               |                |                  [2]{}: in 0x31a-0x31d (3)
0x310|                              fd               |          .     |                    opcode: "vector" (0xfd) 0x31a-0x31b (1)
0x310|                                 e8 01         |           ..   |                    v_opcode: "f32x4.min" (232) 0x31b-0x31d (2)
     |                                               |                |                  [3]{}: in 0x31d-0x31e (1)
0x310|                                       0b      |             .  |                    opcode: "end" (0xb) 0x31d-0x31e (1)
     |                                               |                |            [10]{}: code 0x31e-0x338 (26)
0x310|                                          19   |              . |              size: 25 (valid) 0x31e-0x31f (1)
     |                                               |                |              code{}: 0x31f-0x338 (25)
     |                                               |                |                t{}: 0x31f-0x320 (1)
0x310|                                             00|               .|                  n: 0 (valid) 0x31f-0x320 (1)
     |                                               |                |                  x[0:0]: 0x320-0x320 (0)
     |                                               |                |                e[0:4]: 0x320-0x338 (24)
     |                                               |                |                  [0]{}: in 0x320-0x322 (2)
0x320|20                                             |                |                    opcode: "local.get" (0x20) 0x320-0x321 (1)
0x320|   00                                          | .              |                    x: 0 (valid) 0x321-0x322 (1)
     |                                               |                |                  [1]{}: in 0x322-0x334 (18)
0x320|      fd                                       |  .             |                    opcode: "vector" (0xfd) 0x322-0x323 (1)
0x320|         0c                                    |   .            |                    v_opcode: "v128.const" (12) 0x323-0x324 (1)
0x320|            00 00 00 00 00 00 80 3f 00 00 00 40|    .......?...@|                    bytes: raw bits 0x324-0x334 (16)
0x330|00 00 00 4f                                    |...O            |
     |                                               |                |                  [2]{}: in 0x334-0x337 (3)
0x330|            fd                                 |    .           |                    opcode: "vector" (0xfd) 0x334-0x335 (1)
0x330|               e8 01                           |     ..         |                    v_opcode: "f32x4.min" (232) 0x335-0x337 (2)
     |                                               |                |                  [3]{}: in 0x337-0x338 (1)
0x330|                     0b                        |       .        |                    opcode: "end" (0xb) 0x337-0x338 (1)
     |                                               |                |            [11]{}: code 0x338-0x362 (42)
0x330|                        29                     |        )       |              size: 41 (valid) 0x338-0x339 (1)
     |                                               |                |              code{}: 0x339-0x362 (41)
     |                                               |                |                t{}: 0x339-0x33a (1)
0x330|                           00                  |         .      |                  n: 0 (valid) 0x339-0x33a (1)
     |                                               |                |                  x[0:0]: 0x33a-0x33a (0)
     |                                               |                |                e[0:4]: 0x33a-0x362 (40)
     |                                               |                |                  [0]{}: in 0x33a-0x34c (18)
0x330|                              fd               |          .     |                    opcode: "vector" (0xfd) 0x33a-0x33b (1)
0x330|                                 0c            |           .    |                    v_opcode: "v128.const" (12) 0x33b-0x33c (1)
0x330|                                    00 00 00 00|            ....|                    bytes: raw bits 0x33c-0x34c (16)
0x340|00 00 80 3f 00 00 00 40 00 00 40 c0            |...?...@..@.    |
     |                                               |                |                  [1]{}: in 0x34c-0x35e (18)
0x340|                                    fd         |            .   |                    opcode: "vector" (0xfd) 0x34c-0x34d (1)
0x340|                                       0c      |             .  |                    v_opcode: "v128.const" (12) 0x34d-0x34e (1)
0x340|                                          00 00|              ..|                    bytes: raw bits 0x34e-0x35e (16)
0x350|00 00 00 00 00 40 00 00 80 3f 00 00 40 40      |.....@...?..@@  |
     |                                               |                |                  [2]{}: in 0x35e-0x361 (3)
0x350|                                          fd   |              . |                    opcode: "vector" (0xfd) 0x35e-0x35f (1)
0x350|                                             e9|               .|                    v_opcode: "f32x4.max" (233) 0x35f-0x361 (2)
0x360|01                                             |.               |
     |                                               |                |                  [3]{}: in 0x361-0x362 (1)
0x360|   0b                                          | .              |                    opcode: "end" (0xb) 0x361-0x362 (1)
     |                                               |                |            [12]{}: code 0x362-0x38c (42)
0x360|      29                                       |  )             |              size: 41 (valid) 0x362-0x363 (1)
     |                                               |                |              code{}: 0x363-0x38c (41)
     |                                               |                |                t{}: 0x363-0x364 (1)
0x360|         00                                    |   .            |                  n: 0 (valid) 0x363-0x364 (1)
     |                                               |                |                  x[0:0]: 0x364-0x364 (0)
     |                                               |                |                e[0:4]: 0x364-0x38c (40)
     |                                               |                |                  [0]{}: in 0x364-0x376 (18)
0x360|            fd                                 |    .           |                    opcode: "vector" (0xfd) 0x364-0x365 (1)
0x360|               0c                              |     .          |                    v_opcode: "v128.const" (12) 0x365-0x366 (1)
0x360|                  00 00 00 00 00 00 80 3f 00 00|      .......?..|                    bytes: raw bits 0x366-0x376 (16)
0x370|00 40 00 00 40 40                              |.@..@@          |
     |                                               |                |                  [1]{}: in 0x376-0x388 (18)
0x370|                  fd                           |      .         |                    opcode: "vector" (0xfd) 0x376-0x377 (1)
0x370|                     0c                        |       .        |                    v_opcode: "v128.const" (12) 0x377-0x378 (1)
0x370|                        00 00 00 00 00 00 80 3f|        .......?|                    bytes: raw bits 0x378-0x388 (16)
0x380|00 00 00 40 00 00 40 40                        |...@..@@        |
     |                                               |                |                  [2]{}: in 0x388-0x38b (3)
0x380|                        fd                     |        .       |                    opcode: "vector" (0xfd) 0x388-0x389 (1)
0x380|                           e9 01               |         ..     |                    v_opcode: "f32x4.max" (233) 0x389-0x38b (2)
     |                                               |                |                  [3]{}: in 0x38b-0x38c (1)
0x380|                                 0b            |           .    |                    opcode: "end" (0xb) 0x38b-0x38c (1)
     |                                               |                |            [13]{}: code 0x38c-0x3b6 (42)
0x380|                                    29         |            )   |              size: 41 (valid) 0x38c-0x38d (1)
     |                                               |                |              code{}: 0x38d-0x3b6 (41)
     |                                               |                |                t{}: 0x38d-0x38e (1)
0x380|                                       00      |             .  |                  n: 0 (valid) 0x38d-0x38e (1)
     |                                               |                |                  x[0:0]: 0x38e-0x38e (0)
     |                                               |                |                e[0:4]: 0x38e-0x3b6 (40)
     |                                               |                |                  [0]{}: in 0x38e-0x3a0 (18)
0x380|                                          fd   |              . |                    opcode: "vector" (0xfd) 0x38e-0x38f (1)
0x380|                                             0c|               .|                    v_opcode: "v128.const" (12) 0x38f-0x390 (1)
0x390|00 00 00 00 00 00 80 3f 00 00 00 40 00 00 00 4f|.......?...@...O|                    bytes: raw bits 0x390-0x3a0 (16)
     |                                               |                |                  [1]{}: in 0x3a0-0x3b2 (18)
0x3a0|fd                                             |.               |                    opcode: "vector" (0xfd) 0x3a0-0x3a1 (1)
0x3a0|   0c                                          | .              |                    v_opcode: "v128.const" (12) 0x3a1-0x3a2 (1)
0x3a0|      00 00 00 00 00 00 00 40 00 00 80 3f 00 00|  .......@...?..|                    bytes: raw bits 0x3a2-0x3b2 (16)
0x3b0|00 4f                                          |.O              |
     |                                               |                |                  [2]{}: in 0x3b2-0x3b5 (3)
0x3b0|      fd                                       |  .             |                    opcode: "vector" (0xfd) 0x3b2-0x3b3 (1)
0x3b0|         e9 01                                 |   ..           |                    v_opcode: "f32x4.max" (233) 0x3b3-0x3b5 (2)
     |                                               |                |                  [3]{}: in 0x3b5-0x3b6 (1)
0x3b0|               0b                              |     .          |                    opcode: "end" (0xb) 0x3b5-0x3b6 (1)
     |                                               |                |            [14]{}: code 0x3b6-0x3e0 (42)
0x3b0|                  29                           |      )         |              size: 41 (valid) 0x3b6-0x3b7 (1)
     |                                               |                |              code{}: 0x3b7-0x3e0 (41)
     |                                               |                |                t{}: 0x3b7-0x3b8 (1)
0x3b0|                     00                        |       .        |                  n: 0 (valid) 0x3b7-0x3b8 (1)
     |                                               |                |                  x[0:0]: 0x3b8-0x3b8 (0)
     |                                               |                |                e[0:4]: 0x3b8-0x3e0 (40)
     |                                               |                |                  [0]{}: in 0x3b8-0x3ca (18)
0x3b0|                        fd                     |        .       |                    opcode: "vector" (0xfd) 0x3b8-0x3b9 (1)
0x3b0|                           0c                  |         .      |                    v_opcode: "v128.const" (12) 0x3b9-0x3ba (1)
0x3b0|                              00 00 00 00 00 00|          ......|                    bytes: raw bits 0x3ba-0x3ca (16)
0x3c0|80 3f 00 00 00 40 00 00 00 4f                  |.?...@...O      |
     |                                               |                |                  [1]{}: in 0x3ca-0x3dc (18)
0x3c0|                              fd               |          .     |                    opcode: "vector" (0xfd) 0x3ca-0x3cb (1)
0x3c0|                                 0c            |           .    |                    v_opcode: "v128.const" (12) 0x3cb-0x3cc (1)
0x3c0|                                    00 00 00 00|            ....|                    bytes: raw bits 0x3cc-0x3dc (16)
0x3d0|00 00 80 3f 00 00 00 40 00 00 00 4f            |...?...@...O    |
     |                                               |                |                  [2]{}: in 0x3dc-0x3df (3)
0x3d0|                                    fd         |            .   |                    opcode: "vector" (0xfd) 0x3dc-0x3dd (1)
0x3d0|                                       e9 01   |             .. |                    v_opcode: "f32x4.max" (233) 0x3dd-0x3df (2)
     |                                               |                |                  [3]{}: in 0x3df-0x3e0 (1)
0x3d0|                                             0b|               .|                    opcode: "end" (0xb) 0x3df-0x3e0 (1)
     |                                               |                |            [15]{}: code 0x3e0-0x3fa (26)
0x3e0|19                                             |.               |              size: 25 (valid) 0x3e0-0x3e1 (1)
     |                                               |                |              code{}: 0x3e1-0x3fa (25)
     |                                               |                |                t{}: 0x3e1-0x3e2 (1)
0x3e0|   00                                          | .              |                  n: 0 (valid) 0x3e1-0x3e2 (1)
     |                                               |                |                  x[0:0]: 0x3e2-0x3e2 (0)
     |                                               |                |                e[0:4]: 0x3e2-0x3fa (24)
     |                                               |                |                  [0]{}: in 0x3e2-0x3e4 (2)
0x3e0|      20                                       |                |                    opcode: "local.get" (0x20) 0x3e2-0x3e3 (1)
0x3e0|         00                                    |   .            |                    x: 0 (valid) 0x3e3-0x3e4 (1)
     |                                               |                |                  [1]{}: in 0x3e4-0x3f6 (18)
0x3e0|            fd                                 |    .           |                    opcode: "vector" (0xfd) 0x3e4-0x3e5 (1)
0x3e0|               0c                              |     .          |                    v_opcode: "v128.const" (12) 0x3e5-0x3e6 (1)
0x3e0|                  00 00 00 00 00 00 80 3f 00 00|      .......?..|                    bytes: raw bits 0x3e6-0x3f6 (16)
0x3f0|00 40 00 00 40 c0                              |.@..@.          |
     |                                               |                |                  [2]{}: in 0x3f6-0x3f9 (3)
0x3f0|                  fd                           |      .         |                    opcode: "vector" (0xfd) 0x3f6-0x3f7 (1)
0x3f0|                     e9 01                     |       ..       |                    v_opcode: "f32x4.max" (233) 0x3f7-0x3f9 (2)
     |                                               |                |                  [3]{}: in 0x3f9-0x3fa (1)
0x3f0|                           0b                  |         .      |                    opcode: "end" (0xb) 0x3f9-0x3fa (1)
     |                                               |                |            [16]{}: code 0x3fa-0x414 (26)
0x3f0|                              19               |          .     |              size: 25 (valid) 0x3fa-0x3fb (1)
     |                                               |                |              code{}: 0x3fb-0x414 (25)
     |                                               |                |                t{}: 0x3fb-0x3fc (1)
0x3f0|                                 00            |           .    |                  n: 0 (valid) 0x3fb-0x3fc (1)
     |                                               |                |                  x[0:0]: 0x3fc-0x3fc (0)
     |                                               |                |                e[0:4]: 0x3fc-0x414 (24)
     |                                               |                |                  [0]{}: in 0x3fc-0x40e (18)
0x3f0|                                    fd         |            .   |                    opcode: "vector" (0xfd) 0x3fc-0x3fd (1)
0x3f0|                                       0c      |             .  |                    v_opcode: "v128.const" (12) 0x3fd-0x3fe (1)
0x3f0|                                          00 00|              ..|                    bytes: raw bits 0x3fe-0x40e (16)
0x400|00 00 00 00 80 3f 00 00 00 40 00 00 40 40      |.....?...@..@@  |
     |                                               |                |                  [1]{}: in 0x40e-0x410 (2)
0x400|                                          20   |                |                    opcode: "local.get" (0x20) 0x40e-0x40f (1)
0x400|                                             00|               .|                    x: 0 (valid) 0x40f-0x410 (1)
     |                                               |                |                  [2]{}: in 0x410-0x413 (3)
0x410|fd                                             |.               |                    opcode: "vector" (0xfd) 0x410-0x411 (1)
0x410|   e9 01                                       | ..             |                    v_opcode: "f32x4.max" (233) 0x411-0x413 (2)
     |                                               |                |                  [3]{}: in 0x413-0x414 (1)
0x410|         0b                                    |   .            |                    opcode: "end" (0xb) 0x413-0x414 (1)
     |                                               |                |            [17]{}: code 0x414-0x42e (26)
0x410|            19                                 |    .           |              size: 25 (valid) 0x414-0x415 (1)
     |                                               |                |              code{}: 0x415-0x42e (25)
     |                                               |                |                t{}: 0x415-0x416 (1)
0x410|               00                              |     .          |                  n: 0 (valid) 0x415-0x416 (1)
     |                                               |                |                  x[0:0]: 0x416-0x416 (0)
     |                                               |                |                e[0:4]: 0x416-0x42e (24)
     |                                               |                |                  [0]{}: in 0x416-0x428 (18)
0x410|                  fd                           |      .         |                    opcode: "vector" (0xfd) 0x416-0x417 (1)
0x410|                     0c                        |       .        |                    v_opcode: "v128.const" (12) 0x417-0x418 (1)
0x410|                        00 00 00 00 00 00 80 3f|        .......?|                    bytes: raw bits 0x418-0x428 (16)
0x420|00 00 00 40 00 00 00 4f                        |...@...O        |
     |                                               |                |                  [1]{}: in 0x428-0x42a (2)
0x420|                        20                     |                |                    opcode: "local.get" (0x20) 0x428-0x429 (1)
0x420|                           00                  |         .      |                    x: 0 (valid) 0x429-0x42a (1)
     |                                               |                |                  [2]{}: in 0x42a-0x42d (3)
0x420|                              fd               |          .     |                    opcode: "vector" (0xfd) 0x42a-0x42b (1)
0x420|                                 e9 01         |           ..   |                    v_opcode: "f32x4.max" (233) 0x42b-0x42d (2)
     |                                               |                |                  [3]{}: in 0x42d-0x42e (1)
0x420|                                       0b      |             .  |                    opcode: "end" (0xb) 0x42d-0x42e (1)
     |                                               |                |            [18]{}: code 0x42e-0x448 (26)
0x420|                                          19   |              . |              size: 25 (valid) 0x42e-0x42f (1)
     |                                               |                |              code{}: 0x42f-0x448 (25)
     |                                               |                |                t{}: 0x42f-0x430 (1)
0x420|                                             00|               .|                  n: 0 (valid) 0x42f-0x430 (1)
     |                                               |                |                  x[0:0]: 0x430-0x430 (0)
     |                                               |                |                e[0:4]: 0x430-0x448 (24)
     |                                               |                |                  [0]{}: in 0x430-0x432 (2)
0x430|20                                             |                |                    opcode: "local.get" (0x20) 0x430-0x431 (1)
0x430|   00                                          | .              |                    x: 0 (valid) 0x431-0x432 (1)
     |                                               |                |                  [1]{}: in 0x432-0x444 (18)
0x430|      fd                                       |  .             |                    opcode: "vector" (0xfd) 0x432-0x433 (1)
0x430|         0c                                    |   .            |                    v_opcode: "v128.const" (12) 0x433-0x434 (1)
0x430|            00 00 00 00 00 00 80 3f 00 00 00 40|    .......?...@|                    bytes: raw bits 0x434-0x444 (16)
0x440|00 00 00 4f                                    |...O            |
     |                                               |                |                  [2]{}: in 0x444-0x447 (3)
0x440|            fd                                 |    .           |                    opcode: "vector" (0xfd) 0x444-0x445 (1)
0x440|               e9 01                           |     ..         |                    v_opcode: "f32x4.max" (233) 0x445-0x447 (2)
     |                                               |                |                  [3]{}: in 0x447-0x448 (1)
0x440|                     0b                        |       .        |                    opcode: "end" (0xb) 0x447-0x448 (1)
     |                                               |                |            [19]{}: code 0x448-0x460 (24)
0x440|                        17                     |        .       |              size: 23 (valid) 0x448-0x449 (1)
     |                                               |                |              code{}: 0x449-0x460 (23)
     |                                               |                |                t{}: 0x449-0x44a (1)
0x440|                           00                  |         .      |                  n: 0 (valid) 0x449-0x44a (1)
     |                                               |                |                  x[0:0]: 0x44a-0x44a (0)
     |                                               |                |                e[0:3]: 0x44a-0x460 (22)
     |                                               |                |                  [0]{}: in 0x44a-0x45c (18)
0x440|                              fd               |          .     |                    opcode: "vector" (0xfd) 0x44a-0x44b (1)
0x440|                                 0c            |           .    |                    v_opcode: "v128.const" (12) 0x44b-0x44c (1)
0x440|                                    00 00 00 80|            ....|                    bytes: raw bits 0x44c-0x45c (16)
0x450|00 00 80 bf 00 00 00 c0 00 00 40 c0            |..........@.    |
     |                                               |                |                  [1]{}: in 0x45c-0x45f (3)
0x450|                                    fd         |            .   |                    opcode: "vector" (0xfd) 0x45c-0x45d (1)
0x450|                                       e0 01   |             .. |                    v_opcode: "f32x4.abs" (224) 0x45d-0x45f (2)
     |                                               |                |                  [2]{}: in 0x45f-0x460 (1)
0x450|                                             0b|               .|                    opcode: "end" (0xb) 0x45f-0x460 (1)
