$ fq -d wasm dv simd_boolean-1.wasm
     |00 01 02 03 04 05 06 07 08 09 0a 0b 0c 0d 0e 0f|0123456789abcdef|.{}: simd_boolean-1.wasm (wasm) 0x0-0xc5a.7 (3163)
0x000|00 61 73 6d                                    |.asm            |  magic: raw bits (valid) 0x0-0x3.7 (4)
0x000|            01 00 00 00                        |    ....        |  version: 1 0x4-0x7.7 (4)
     |                                               |                |  sections[0:5]: 0x8-0xc5a.7 (3155)
     |                                               |                |    [0]{}: section 0x8-0x1c.7 (21)
0x000|                        01                     |        .       |      id: "type section" (1) 0x8-0x8.7 (1)
0x000|                           13                  |         .      |      size: 19 0x9-0x9.7 (1)
     |                                               |                |      content{}: 0xa-0x1c.7 (19)
     |                                               |                |        ft{}: 0xa-0x1c.7 (19)
0x000|                              03               |          .     |          n: 3 0xa-0xa.7 (1)
     |                                               |                |          x[0:3]: 0xb-0x1c.7 (18)
     |                                               |                |            [0]{}: ft 0xb-0xf.7 (5)
0x000|                                 60            |           `    |              tag: 0x60 (valid) 0xb-0xb.7 (1)
     |                                               |                |              rt1{}: 0xc-0xd.7 (2)
0x000|                                    01         |            .   |                n: 1 0xc-0xc.7 (1)
     |                                               |                |                x[0:1]: 0xd-0xd.7 (1)
0x000|                                       7b      |             {  |                  [0]: "v128" (0x7b) t 0xd-0xd.7 (1)
     |                                               |                |              rt2{}: 0xe-0xf.7 (2)
0x000|                                          01   |              . |                n: 1 0xe-0xe.7 (1)
     |                                               |                |                x[0:1]: 0xf-0xf.7 (1)
0x000|                                             7f|               .|                  [0]: "i32" (0x7f) t 0xf-0xf.7 (1)
     |                                               |                |            [1]{}: ft 0x10-0x15.7 (6)
0x010|60                                             |`               |              tag: 0x60 (valid) 0x10-0x10.7 (1)
     |                                               |                |              rt1{}: 0x11-0x13.7 (3)
0x010|   02                                          | .              |                n: 2 0x11-0x11.7 (1)
     |                                               |                |                x[0:2]: 0x12-0x13.7 (2)
0x010|      7b                                       |  {             |                  [0]: "v128" (0x7b) t 0x12-0x12.7 (1)
0x010|         7b                                    |   {            |                  [1]: "v128" (0x7b) t 0x13-0x13.7 (1)
     |                                               |                |              rt2{}: 0x14-0x15.7 (2)
0x010|            01                                 |    .           |                n: 1 0x14-0x14.7 (1)
     |                                               |                |                x[0:1]: 0x15-0x15.7 (1)
0x010|               7f                              |     .          |                  [0]: "i32" (0x7f) t 0x15-0x15.7 (1)
     |                                               |                |            [2]{}: ft 0x16-0x1c.7 (7)
0x010|                  60                           |      `         |              tag: 0x60 (valid) 0x16-0x16.7 (1)
     |                                               |                |              rt1{}: 0x17-0x1a.7 (4)
0x010|                     03                        |       .        |                n: 3 0x17-0x17.7 (1)
     |                                               |                |                x[0:3]: 0x18-0x1a.7 (3)
0x010|                        7b                     |        {       |                  [0]: "v128" (0x7b) t 0x18-0x18.7 (1)
0x010|                           7b                  |         {      |                  [1]: "v128" (0x7b) t 0x19-0x19.7 (1)
0x010|                              7b               |          {     |                  [2]: "v128" (0x7b) t 0x1a-0x1a.7 (1)
     |                                               |                |              rt2{}: 0x1b-0x1c.7 (2)
0x010|                                 01            |           .    |                n: 1 0x1b-0x1b.7 (1)
     |                                               |                |                x[0:1]: 0x1c-0x1c.7 (1)
0x010|                                    7f         |            .   |                  [0]: "i32" (0x7f) t 0x1c-0x1c.7 (1)
     |                                               |                |    [1]{}: section 0x1d-0x61.7 (69)
0x010|                                       03      |             .  |      id: "function section" (3) 0x1d-0x1d.7 (1)
0x010|                                          43   |              C |      size: 67 0x1e-0x1e.7 (1)
     |                                               |                |      content{}: 0x1f-0x61.7 (67)
     |                                               |                |        x{}: 0x1f-0x61.7 (67)
0x010|                                             42|               B|          n: 66 0x1f-0x1f.7 (1)
     |                                               |                |          x[0:66]: 0x20-0x61.7 (66)
0x020|00                                             |.               |            [0]: 0 x 0x20-0x20.7 (1)
0x020|   00                                          | .              |            [1]: 0 x 0x21-0x21.7 (1)
0x020|      00                                       |  .             |            [2]: 0 x 0x22-0x22.7 (1)
0x020|         00                                    |   .            |            [3]: 0 x 0x23-0x23.7 (1)
0x020|            00                                 |    .           |            [4]: 0 x 0x24-0x24.7 (1)
0x020|               00                              |     .          |            [5]: 0 x 0x25-0x25.7 (1)
0x020|                  00                           |      .         |            [6]: 0 x 0x26-0x26.7 (1)
0x020|                     00                        |       .        |            [7]: 0 x 0x27-0x27.7 (1)
0x020|                        00                     |        .       |            [8]: 0 x 0x28-0x28.7 (1)
0x020|                           00                  |         .      |            [9]: 0 x 0x29-0x29.7 (1)
0x020|                              00               |          .     |            [10]: 0 x 0x2a-0x2a.7 (1)
0x020|                                 00            |           .    |            [11]: 0 x 0x2b-0x2b.7 (1)
0x020|                                    00         |            .   |            [12]: 0 x 0x2c-0x2c.7 (1)
0x020|                                       00      |             .  |            [13]: 0 x 0x2d-0x2d.7 (1)
0x020|                                          00   |              . |            [14]: 0 x 0x2e-0x2e.7 (1)
0x020|                                             00|               .|            [15]: 0 x 0x2f-0x2f.7 (1)
0x030|00                                             |.               |            [16]: 0 x 0x30-0x30.7 (1)
0x030|   00                                          | .              |            [17]: 0 x 0x31-0x31.7 (1)
0x030|      01                                       |  .             |            [18]: 1 x 0x32-0x32.7 (1)
0x030|         01                                    |   .            |            [19]: 1 x 0x33-0x33.7 (1)
0x030|            01                                 |    .           |            [20]: 1 x 0x34-0x34.7 (1)
0x030|               01                              |     .          |            [21]: 1 x 0x35-0x35.7 (1)
0x030|                  01                           |      .         |            [22]: 1 x 0x36-0x36.7 (1)
0x030|                     01                        |       .        |            [23]: 1 x 0x37-0x37.7 (1)
0x030|                        01                     |        .       |            [24]: 1 x 0x38-0x38.7 (1)
0x030|                           01                  |         .      |            [25]: 1 x 0x39-0x39.7 (1)
0x030|                              01               |          .     |            [26]: 1 x 0x3a-0x3a.7 (1)
0x030|                                 01            |           .    |            [27]: 1 x 0x3b-0x3b.7 (1)
0x030|                                    01         |            .   |            [28]: 1 x 0x3c-0x3c.7 (1)
0x030|                                       01      |             .  |            [29]: 1 x 0x3d-0x3d.7 (1)
0x030|                                          01   |              . |            [30]: 1 x 0x3e-0x3e.7 (1)
0x030|                                             01|               .|            [31]: 1 x 0x3f-0x3f.7 (1)
0x040|01                                             |.               |            [32]: 1 x 0x40-0x40.7 (1)
0x040|   01                                          | .              |            [33]: 1 x 0x41-0x41.7 (1)
0x040|      01                                       |  .             |            [34]: 1 x 0x42-0x42.7 (1)
0x040|         01                                    |   .            |            [35]: 1 x 0x43-0x43.7 (1)
0x040|            00                                 |    .           |            [36]: 0 x 0x44-0x44.7 (1)
0x040|               00                              |     .          |            [37]: 0 x 0x45-0x45.7 (1)
0x040|                  00                           |      .         |            [38]: 0 x 0x46-0x46.7 (1)
0x040|                     01                        |       .        |            [39]: 1 x 0x47-0x47.7 (1)
0x040|                        01                     |        .       |            [40]: 1 x 0x48-0x48.7 (1)
0x040|                           01                  |         .      |            [41]: 1 x 0x49-0x49.7 (1)
0x040|                              01               |          .     |            [42]: 1 x 0x4a-0x4a.7 (1)
0x040|                                 01            |           .    |            [43]: 1 x 0x4b-0x4b.7 (1)
0x040|                                    01         |            .   |            [44]: 1 x 0x4c-0x4c.7 (1)
0x040|                                       01      |             .  |            [45]: 1 x 0x4d-0x4d.7 (1)
0x040|                                          01   |              . |            [46]: 1 x 0x4e-0x4e.7 (1)
0x040|                                             01|               .|            [47]: 1 x 0x4f-0x4f.7 (1)
0x050|02                                             |.               |            [48]: 2 x 0x50-0x50.7 (1)
0x050|   02                                          | .              |            [49]: 2 x 0x51-0x51.7 (1)
0x050|      02                                       |  .             |            [50]: 2 x 0x52-0x52.7 (1)
0x050|         00                                    |   .            |            [51]: 0 x 0x53-0x53.7 (1)
0x050|            00                                 |    .           |            [52]: 0 x 0x54-0x54.7 (1)
0x050|               00                              |     .          |            [53]: 0 x 0x55-0x55.7 (1)
0x050|                  01                           |      .         |            [54]: 1 x 0x56-0x56.7 (1)
0x050|                     01                        |       .        |            [55]: 1 x 0x57-0x57.7 (1)
0x050|                        01                     |        .       |            [56]: 1 x 0x58-0x58.7 (1)
0x050|                           01                  |         .      |            [57]: 1 x 0x59-0x59.7 (1)
0x050|                              01               |          .     |            [58]: 1 x 0x5a-0x5a.7 (1)
0x050|                                 01            |           .    |            [59]: 1 x 0x5b-0x5b.7 (1)
0x050|                                    01         |            .   |            [60]: 1 x 0x5c-0x5c.7 (1)
0x050|                                       01      |             .  |            [61]: 1 x 0x5d-0x5d.7 (1)
0x050|                                          01   |              . |            [62]: 1 x 0x5e-0x5e.7 (1)
0x050|                                             02|               .|            [63]: 2 x 0x5f-0x5f.7 (1)
0x060|02                                             |.               |            [64]: 2 x 0x60-0x60.7 (1)
0x060|   02                                          | .              |            [65]: 2 x 0x61-0x61.7 (1)
     |                                               |                |    [2]{}: section 0x62-0x66.7 (5)
0x060|      05                                       |  .             |      id: "memory section" (5) 0x62-0x62.7 (1)
0x060|         03                                    |   .            |      size: 3 0x63-0x63.7 (1)
     |                                               |                |      content{}: 0x64-0x66.7 (3)
     |                                               |                |        mem{}: 0x64-0x66.7 (3)
0x060|            01                                 |    .           |          n: 1 0x64-0x64.7 (1)
     |                                               |                |          x[0:1]: 0x65-0x66.7 (2)
     |                                               |                |            [0]{}: mem 0x65-0x66.7 (2)
     |                                               |                |              lim{}: 0x65-0x66.7 (2)
0x060|               00                              |     .          |                tag: 0x0 0x65-0x65.7 (1)
0x060|                  01                           |      .         |                n: 1 0x66-0x66.7 (1)
     |                                               |                |    [3]{}: section 0x67-0x8ce.7 (2152)
0x060|                     07                        |       .        |      id: "export section" (7) 0x67-0x67.7 (1)
0x060|                        e5 10                  |        ..      |      size: 2149 0x68-0x69.7 (2)
     |                                               |                |      content{}: 0x6a-0x8ce.7 (2149)
     |                                               |                |        ex{}: 0x6a-0x8ce.7 (2149)
0x060|                              42               |          B     |          n: 66 0x6a-0x6a.7 (1)
     |                                               |                |          x[0:66]: 0x6b-0x8ce.7 (2148)
     |                                               |                |            [0]{}: ex 0x6b-0x86.7 (28)
     |                                               |                |              nm{}: 0x6b-0x84.7 (26)
0x060|                                 19            |           .    |                n: 25 0x6b-0x6b.7 (1)
0x060|                                    69 38 78 31|            i8x1|                b: "i8x16_any_true_as_if_cond" 0x6c-0x84.7 (25)
0x070|36 5f 61 6e 79 5f 74 72 75 65 5f 61 73 5f 69 66|6_any_true_as_if|
0x080|5f 63 6f 6e 64                                 |_cond           |
     |                                               |                |              d{}: 0x85-0x86.7 (2)
0x080|               00                              |     .          |                tag: "funcidx" (0x0) 0x85-0x85.7 (1)
0x080|                  00                           |      .         |                x: 0 0x86-0x86.7 (1)
     |                                               |                |            [1]{}: ex 0x87-0xa2.7 (28)
     |                                               |                |              nm{}: 0x87-0xa0.7 (26)
0x080|                     19                        |       .        |                n: 25 0x87-0x87.7 (1)
0x080|                        69 31 36 78 38 5f 61 6e|        i16x8_an|                b: "i16x8_any_true_as_if_cond" 0x88-0xa0.7 (25)
0x090|79 5f 74 72 75 65 5f 61 73 5f 69 66 5f 63 6f 6e|y_true_as_if_con|
0x0a0|64                                             |d               |
     |                                               |                |              d{}: 0xa1-0xa2.7 (2)
0x0a0|   00                                          | .              |                tag: "funcidx" (0x0) 0xa1-0xa1.7 (1)
0x0a0|      01                                       |  .             |                x: 1 0xa2-0xa2.7 (1)
     |                                               |                |            [2]{}: ex 0xa3-0xbe.7 (28)
     |                                               |                |              nm{}: 0xa3-0xbc.7 (26)
0x0a0|         19                                    |   .            |                n: 25 0xa3-0xa3.7 (1)
0x0a0|            69 33 32 78 34 5f 61 6e 79 5f 74 72|    i32x4_any_tr|                b: "i32x4_any_true_as_if_cond" 0xa4-0xbc.7 (25)
0x0b0|75 65 5f 61 73 5f 69 66 5f 63 6f 6e 64         |ue_as_if_cond   |
     |                                               |                |              d{}: 0xbd-0xbe.7 (2)
0x0b0|                                       00      |             .  |                tag: "funcidx" (0x0) 0xbd-0xbd.7 (1)
0x0b0|                                          02   |              . |                x: 2 0xbe-0xbe.7 (1)
     |                                               |                |            [3]{}: ex 0xbf-0xda.7 (28)
     |                                               |                |              nm{}: 0xbf-0xd8.7 (26)
0x0b0|                                             19|               .|                n: 25 0xbf-0xbf.7 (1)
0x0c0|69 38 78 31 36 5f 61 6c 6c 5f 74 72 75 65 5f 61|i8x16_all_true_a|                b: "i8x16_all_true_as_if_cond" 0xc0-0xd8.7 (25)
0x0d0|73 5f 69 66 5f 63 6f 6e 64                     |s_if_cond       |
     |                                               |                |              d{}: 0xd9-0xda.7 (2)
0x0d0|                           00                  |         .      |                tag: "funcidx" (0x0) 0xd9-0xd9.7 (1)
0x0d0|                              03               |          .     |                x: 3 0xda-0xda.7 (1)
     |                                               |                |            [4]{}: ex 0xdb-0xf6.7 (28)
     |                                               |                |              nm{}: 0xdb-0xf4.7 (26)
0x0d0|                                 19            |           .    |                n: 25 0xdb-0xdb.7 (1)
0x0d0|                                    69 31 36 78|            i16x|                b: "i16x8_all_true_as_if_cond" 0xdc-0xf4.7 (25)
0x0e0|38 5f 61 6c 6c 5f 74 72 75 65 5f 61 73 5f 69 66|8_all_true_as_if|
0x0f0|5f 63 6f 6e 64                                 |_cond           |
     |                                               |                |              d{}: 0xf5-0xf6.7 (2)
0x0f0|               00                              |     .          |                tag: "funcidx" (0x0) 0xf5-0xf5.7 (1)
0x0f0|                  04                           |      .         |                x: 4 0xf6-0xf6.7 (1)
     |                                               |                |            [5]{}: ex 0xf7-0x112.7 (28)
     |                                               |                |              nm{}: 0xf7-0x110.7 (26)
0x0f0|                     19                        |       .        |                n: 25 0xf7-0xf7.7 (1)
0x0f0|                        69 33 32 78 34 5f 61 6c|        i32x4_al|                b: "i32x4_all_true_as_if_cond" 0xf8-0x110.7 (25)
0x100|6c 5f 74 72 75 65 5f 61 73 5f 69 66 5f 63 6f 6e|l_true_as_if_con|
0x110|64                                             |d               |
     |                                               |                |              d{}: 0x111-0x112.7 (2)
0x110|   00                                          | .              |                tag: "funcidx" (0x0) 0x111-0x111.7 (1)
0x110|      05                                       |  .             |                x: 5 0x112-0x112.7 (1)
     |                                               |                |            [6]{}: ex 0x113-0x132.7 (32)
     |                                               |                |              nm{}: 0x113-0x130.7 (30)
0x110|         1d                                    |   .            |                n: 29 0x113-0x113.7 (1)
0x110|            69 38 78 31 36 5f 61 6e 79 5f 74 72|    i8x16_any_tr|                b: "i8x16_any_true_as_select_cond" 0x114-0x130.7 (29)
0x120|75 65 5f 61 73 5f 73 65 6c 65 63 74 5f 63 6f 6e|ue_as_select_con|
0x130|64                                             |d               |
     |                                               |                |              d{}: 0x131-0x132.7 (2)
0x130|   00                                          | .              |                tag: "funcidx" (0x0) 0x131-0x131.7 (1)
0x130|      06                                       |  .             |                x: 6 0x132-0x132.7 (1)
     |                                               |                |            [7]{}: ex 0x133-0x152.7 (32)
     |                                               |                |              nm{}: 0x133-0x150.7 (30)
0x130|         1d                                    |   .            |                n: 29 0x133-0x133.7 (1)
0x130|            69 31 36 78 38 5f 61 6e 79 5f 74 72|    i16x8_any_tr|                b: "i16x8_any_true_as_select_cond" 0x134-0x150.7 (29)
0x140|75 65 5f 61 73 5f 73 65 6c 65 63 74 5f 63 6f 6e|ue_as_select_con|
0x150|64                                             |d               |
     |                                               |                |              d{}: 0x151-0x152.7 (2)
0x150|   00                                          | .              |                tag: "funcidx" (0x0) 0x151-0x151.7 (1)
0x150|      07                                       |  .             |                x: 7 0x152-0x152.7 (1)
     |                                               |                |            [8]{}: ex 0x153-0x172.7 (32)
     |                                               |                |              nm{}: 0x153-0x170.7 (30)
0x150|         1d                                    |   .            |                n: 29 0x153-0x153.7 (1)
0x150|            69 33 32 78 34 5f 61 6e 79 5f 74 72|    i32x4_any_tr|                b: "i32x4_any_true_as_select_cond" 0x154-0x170.7 (29)
0x160|75 65 5f 61 73 5f 73 65 6c 65 63 74 5f 63 6f 6e|ue_as_select_con|
0x170|64                                             |d               |
     |                                               |                |              d{}: 0x171-0x172.7 (2)
0x170|   00                                          | .              |                tag: "funcidx" (0x0) 0x171-0x171.7 (1)
0x170|      08                                       |  .             |                x: 8 0x172-0x172.7 (1)
     |                                               |                |            [9]{}: ex 0x173-0x192.7 (32)
     |                                               |                |              nm{}: 0x173-0x190.7 (30)
0x170|         1d                                    |   .            |                n: 29 0x173-0x173.7 (1)
0x170|            69 38 78 31 36 5f 61 6c 6c 5f 74 72|    i8x16_all_tr|                b: "i8x16_all_true_as_select_cond" 0x174-0x190.7 (29)
0x180|75 65 5f 61 73 5f 73 65 6c 65 63 74 5f 63 6f 6e|ue_as_select_con|
0x190|64                                             |d               |
     |                                               |                |              d{}: 0x191-0x192.7 (2)
0x190|   00                                          | .              |                tag: "funcidx" (0x0) 0x191-0x191.7 (1)
0x190|      09                                       |  .             |                x: 9 0x192-0x192.7 (1)
     |                                               |                |            [10]{}: ex 0x193-0x1b2.7 (32)
     |                                               |                |              nm{}: 0x193-0x1b0.7 (30)
0x190|         1d                                    |   .            |                n: 29 0x193-0x193.7 (1)
0x190|            69 31 36 78 38 5f 61 6c 6c 5f 74 72|    i16x8_all_tr|                b: "i16x8_all_true_as_select_cond" 0x194-0x1b0.7 (29)
0x1a0|75 65 5f 61 73 5f 73 65 6c 65 63 74 5f 63 6f 6e|ue_as_select_con|
0x1b0|64                                             |d               |
     |                                               |                |              d{}: 0x1b1-0x1b2.7 (2)
0x1b0|   00                                          | .              |                tag: "funcidx" (0x0) 0x1b1-0x1b1.7 (1)
0x1b0|      0a                                       |  .             |                x: 10 0x1b2-0x1b2.7 (1)
     |                                               |                |            [11]{}: ex 0x1b3-0x1d2.7 (32)
     |                                               |                |              nm{}: 0x1b3-0x1d0.7 (30)
0x1b0|         1d                                    |   .            |                n: 29 0x1b3-0x1b3.7 (1)
0x1b0|            69 33 32 78 34 5f 61 6c 6c 5f 74 72|    i32x4_all_tr|                b: "i32x4_all_true_as_select_cond" 0x1b4-0x1d0.7 (29)
0x1c0|75 65 5f 61 73 5f 73 65 6c 65 63 74 5f 63 6f 6e|ue_as_select_con|
0x1d0|64                                             |d               |
     |                                               |                |              d{}: 0x1d1-0x1d2.7 (2)
0x1d0|   00                                          | .              |                tag: "funcidx" (0x0) 0x1d1-0x1d1.7 (1)
0x1d0|      0b                                       |  .             |                x: 11 0x1d2-0x1d2.7 (1)
     |                                               |                |            [12]{}: ex 0x1d3-0x1f1.7 (31)
     |                                               |                |              nm{}: 0x1d3-0x1ef.7 (29)
0x1d0|         1c                                    |   .            |                n: 28 0x1d3-0x1d3.7 (1)
0x1d0|            69 38 78 31 36 5f 61 6e 79 5f 74 72|    i8x16_any_tr|                b: "i8x16_any_true_as_br_if_cond" 0x1d4-0x1ef.7 (28)
0x1e0|75 65 5f 61 73 5f 62 72 5f 69 66 5f 63 6f 6e 64|ue_as_br_if_cond|
     |                                               |                |              d{}: 0x1f0-0x1f1.7 (2)
0x1f0|00                                             |.               |                tag: "funcidx" (0x0) 0x1f0-0x1f0.7 (1)
0x1f0|   0c                                          | .              |                x: 12 0x1f1-0x1f1.7 (1)
     |                                               |                |            [13]{}: ex 0x1f2-0x210.7 (31)
     |                                               |                |              nm{}: 0x1f2-0x20e.7 (29)
0x1f0|      1c                                       |  .             |                n: 28 0x1f2-0x1f2.7 (1)
0x1f0|         69 31 36 78 38 5f 61 6e 79 5f 74 72 75|   i16x8_any_tru|                b: "i16x8_any_true_as_br_if_cond" 0x1f3-0x20e.7 (28)
0x200|65 5f 61 73 5f 62 72 5f 69 66 5f 63 6f 6e 64   |e_as_br_if_cond |
     |                                               |                |              d{}: 0x20f-0x210.7 (2)
0x200|                                             00|               .|                tag: "funcidx" (0x0) 0x20f-0x20f.7 (1)
0x210|0d                                             |.               |                x: 13 0x210-0x210.7 (1)
     |                                               |                |            [14]{}: ex 0x211-0x22f.7 (31)
     |                                               |                |              nm{}: 0x211-0x22d.7 (29)
0x210|   1c                                          | .              |                n: 28 0x211-0x211.7 (1)
0x210|      69 33 32 78 34 5f 61 6e 79 5f 74 72 75 65|  i32x4_any_true|                b: "i32x4_any_true_as_br_if_cond" 0x212-0x22d.7 (28)
0x220|5f 61 73 5f 62 72 5f 69 66 5f 63 6f 6e 64      |_as_br_if_cond  |
     |                                               |                |              d{}: 0x22e-0x22f.7 (2)
0x220|                                          00   |              . |                tag: "funcidx" (0x0) 0x22e-0x22e.7 (1)
0x220|                                             0e|               .|                x: 14 0x22f-0x22f.7 (1)
     |                                               |                |            [15]{}: ex 0x230-0x24e.7 (31)
     |                                               |                |              nm{}: 0x230-0x24c.7 (29)
0x230|1c                                             |.               |                n: 28 0x230-0x230.7 (1)
0x230|   69 38 78 31 36 5f 61 6c 6c 5f 74 72 75 65 5f| i8x16_all_true_|                b: "i8x16_all_true_as_br_if_cond" 0x231-0x24c.7 (28)
0x240|61 73 5f 62 72 5f 69 66 5f 63 6f 6e 64         |as_br_if_cond   |
     |                                               |                |              d{}: 0x24d-0x24e.7 (2)
0x240|                                       00      |             .  |                tag: "funcidx" (0x0) 0x24d-0x24d.7 (1)
0x240|                                          0f   |              . |                x: 15 0x24e-0x24e.7 (1)
     |                                               |                |            [16]{}: ex 0x24f-0x26d.7 (31)
     |                                               |                |              nm{}: 0x24f-0x26b.7 (29)
0x240|                                             1c|               .|                n: 28 0x24f-0x24f.7 (1)
0x250|69 31 36 78 38 5f 61 6c 6c 5f 74 72 75 65 5f 61|i16x8_all_true_a|                b: "i16x8_all_true_as_br_if_cond" 0x250-0x26b.7 (28)
0x260|73 5f 62 72 5f 69 66 5f 63 6f 6e 64            |s_br_if_cond    |
     |                                               |                |              d{}: 0x26c-0x26d.7 (2)
0x260|                                    00         |            .   |                tag: "funcidx" (0x0) 0x26c-0x26c.7 (1)
0x260|                                       10      |             .  |                x: 16 0x26d-0x26d.7 (1)
     |                                               |                |            [17]{}: ex 0x26e-0x28c.7 (31)
     |                                               |                |              nm{}: 0x26e-0x28a.7 (29)
0x260|                                          1c   |              . |                n: 28 0x26e-0x26e.7 (1)
0x260|                                             69|               i|                b: "i32x4_all_true_as_br_if_cond" 0x26f-0x28a.7 (28)
0x270|33 32 78 34 5f 61 6c 6c 5f 74 72 75 65 5f 61 73|32x4_all_true_as|
0x280|5f 62 72 5f 69 66 5f 63 6f 6e 64               |_br_if_cond     |
     |                                               |                |              d{}: 0x28b-0x28c.7 (2)
0x280|                                 00            |           .    |                tag: "funcidx" (0x0) 0x28b-0x28b.7 (1)
0x280|                                    11         |            .   |                x: 17 0x28c-0x28c.7 (1)
     |                                               |                |            [18]{}: ex 0x28d-0x2b0.7 (36)
     |                                               |                |              nm{}: 0x28d-0x2ae.7 (34)
0x280|                                       21      |             !  |                n: 33 0x28d-0x28d.7 (1)
0x280|                                          69 38|              i8|                b: "i8x16_any_true_as_i32.and_operand" 0x28e-0x2ae.7 (33)
0x290|78 31 36 5f 61 6e 79 5f 74 72 75 65 5f 61 73 5f|x16_any_true_as_|
0x2a0|69 33 32 2e 61 6e 64 5f 6f 70 65 72 61 6e 64   |i32.and_operand |
     |                                               |                |              d{}: 0x2af-0x2b0.7 (2)
0x2a0|                                             00|               .|                tag: "funcidx" (0x0) 0x2af-0x2af.7 (1)
0x2b0|12                                             |.               |                x: 18 0x2b0-0x2b0.7 (1)
     |                                               |                |            [19]{}: ex 0x2b1-0x2d4.7 (36)
     |                                               |                |              nm{}: 0x2b1-0x2d2.7 (34)
0x2b0|   21                                          | !              |                n: 33 0x2b1-0x2b1.7 (1)
0x2b0|      69 31 36 78 38 5f 61 6e 79 5f 74 72 75 65|  i16x8_any_true|                b: "i16x8_any_true_as_i32.and_operand" 0x2b2-0x2d2.7 (33)
0x2c0|5f 61 73 5f 69 33 32 2e 61 6e 64 5f 6f 70 65 72|_as_i32.and_oper|
0x2d0|61 6e 64                                       |and             |
     |                                               |                |              d{}: 0x2d3-0x2d4.7 (2)
0x2d0|         00                                    |   .            |                tag: "funcidx" (0x0) 0x2d3-0x2d3.7 (1)
0x2d0|            13                                 |    .           |                x: 19 0x2d4-0x2d4.7 (1)
     |                                               |                |            [20]{}: ex 0x2d5-0x2f8.7 (36)
     |                                               |                |              nm{}: 0x2d5-0x2f6.7 (34)
0x2d0|               21                              |     !          |                n: 33 0x2d5-0x2d5.7 (1)
0x2d0|                  69 33 32 78 34 5f 61 6e 79 5f|      i32x4_any_|                b: "i32x4_any_true_as_i32.and_operand" 0x2d6-0x2f6.7 (33)
0x2e0|74 72 75 65 5f 61 73 5f 69 33 32 2e 61 6e 64 5f|true_as_i32.and_|
0x2f0|6f 70 65 72 61 6e 64                           |operand         |
     |                                               |                |              d{}: 0x2f7-0x2f8.7 (2)
0x2f0|                     00                        |       .        |                tag: "funcidx" (0x0) 0x2f7-0x2f7.7 (1)
0x2f0|                        14                     |        .       |                x: 20 0x2f8-0x2f8.7 (1)
     |                                               |                |            [21]{}: ex 0x2f9-0x31b.7 (35)
     |                                               |                |              nm{}: 0x2f9-0x319.7 (33)
0x2f0|                           20                  |                |                n: 32 0x2f9-0x2f9.7 (1)
0x2f0|                              69 38 78 31 36 5f|          i8x16_|                b: "i8x16_any_true_as_i32.or_operand" 0x2fa-0x319.7 (32)
0x300|61 6e 79 5f 74 72 75 65 5f 61 73 5f 69 33 32 2e|any_true_as_i32.|
0x310|6f 72 5f 6f 70 65 72 61 6e 64                  |or_operand      |
     |                                               |                |              d{}: 0x31a-0x31b.7 (2)
0x310|                              00               |          .     |                tag: "funcidx" (0x0) 0x31a-0x31a.7 (1)
0x310|                                 15            |           .    |                x: 21 0x31b-0x31b.7 (1)
     |                                               |                |            [22]{}: ex 0x31c-0x33e.7 (35)
     |                                               |                |              nm{}: 0x31c-0x33c.7 (33)
0x310|                                    20         |                |                n: 32 0x31c-0x31c.7 (1)
0x310|                                       69 31 36|             i16|                b: "i16x8_any_true_as_i32.or_operand" 0x31d-0x33c.7 (32)
0x320|78 38 5f 61 6e 79 5f 74 72 75 65 5f 61 73 5f 69|x8_any_true_as_i|
0x330|33 32 2e 6f 72 5f 6f 70 65 72 61 6e 64         |32.or_operand   |
     |                                               |                |              d{}: 0x33d-0x33e.7 (2)
0x330|                                       00      |             .  |                tag: "funcidx" (0x0) 0x33d-0x33d.7 (1)
0x330|                                          16   |              . |                x: 22 0x33e-0x33e.7 (1)
     |                                               |                |            [23]{}: ex 0x33f-0x361.7 (35)
     |                                               |                |              nm{}: 0x33f-0x35f.7 (33)
0x330|                                             20|                |                n: 32 0x33f-0x33f.7 (1)
0x340|69 33 32 78 34 5f 61 6e 79 5f 74 72 75 65 5f 61|i32x4_any_true_a|                b: "i32x4_any_true_as_i32.or_operand" 0x340-0x35f.7 (32)
0x350|73 5f 69 33 32 2e 6f 72 5f 6f 70 65 72 61 6e 64|s_i32.or_operand|
     |                                               |                |              d{}: 0x360-0x361.7 (2)
0x360|00                                             |.               |                tag: "funcidx" (0x0) 0x360-0x360.7 (1)
0x360|   17                                          | .              |                x: 23 0x361-0x361.7 (1)
     |                                               |                |            [24]{}: ex 0x362-0x385.7 (36)
     |                                               |                |              nm{}: 0x362-0x383.7 (34)
0x360|      21                                       |  !             |                n: 33 0x362-0x362.7 (1)
0x360|         69 38 78 31 36 5f 61 6e 79 5f 74 72 75|   i8x16_any_tru|                b: "i8x16_any_true_as_i32.xor_operand" 0x363-0x383.7 (33)
0x370|65 5f 61 73 5f 69 33 32 2e 78 6f 72 5f 6f 70 65|e_as_i32.xor_ope|
0x380|72 61 6e 64                                    |rand            |
     |                                               |                |              d{}: 0x384-0x385.7 (2)
0x380|            00                                 |    .           |                tag: "funcidx" (0x0) 0x384-0x384.7 (1)
0x380|               18                              |     .          |                x: 24 0x385-0x385.7 (1)
     |                                               |                |            [25]{}: ex 0x386-0x3a9.7 (36)
     |                                               |                |              nm{}: 0x386-0x3a7.7 (34)
0x380|                  21                           |      !         |                n: 33 0x386-0x386.7 (1)
0x380|                     69 31 36 78 38 5f 61 6e 79|       i16x8_any|                b: "i16x8_any_true_as_i32.xor_operand" 0x387-0x3a7.7 (33)
0x390|5f 74 72 75 65 5f 61 73 5f 69 33 32 2e 78 6f 72|_true_as_i32.xor|
0x3a0|5f 6f 70 65 72 61 6e 64                        |_operand        |
     |                                               |                |              d{}: 0x3a8-0x3a9.7 (2)
0x3a0|                        00                     |        .       |                tag: "funcidx" (0x0) 0x3a8-0x3a8.7 (1)
0x3a0|                           19                  |         .      |                x: 25 0x3a9-0x3a9.7 (1)
     |                                               |                |            [26]{}: ex 0x3aa-0x3cd.7 (36)
     |                                               |                |              nm{}: 0x3aa-0x3cb.7 (34)
0x3a0|                              21               |          !     |                n: 33 0x3aa-0x3aa.7 (1)
0x3a0|                                 69 33 32 78 34|           i32x4|                b: "i32x4_any_true_as_i32.xor_operand" 0x3ab-0x3cb.7 (33)
0x3b0|5f 61 6e 79 5f 74 72 75 65 5f 61 73 5f 69 33 32|_any_true_as_i32|
0x3c0|2e 78 6f 72 5f 6f 70 65 72 61 6e 64            |.xor_operand    |
     |                                               |                |              d{}: 0x3cc-0x3cd.7 (2)
0x3c0|                                    00         |            .   |                tag: "funcidx" (0x0) 0x3cc-0x3cc.7 (1)
0x3c0|                                       1a      |             .  |                x: 26 0x3cd-0x3cd.7 (1)
     |                                               |                |            [27]{}: ex 0x3ce-0x3f1.7 (36)
     |                                               |                |              nm{}: 0x3ce-0x3ef.7 (34)
0x3c0|                                          21   |              ! |                n: 33 0x3ce-0x3ce.7 (1)
0x3c0|                                             69|               i|                b: "i8x16_all_true_as_i32.and_operand" 0x3cf-0x3ef.7 (33)
0x3d0|38 78 31 36 5f 61 6c 6c 5f 74 72 75 65 5f 61 73|8x16_all_true_as|
0x3e0|5f 69 33 32 2e 61 6e 64 5f 6f 70 65 72 61 6e 64|_i32.and_operand|
     |                                               |                |              d{}: 0x3f0-0x3f1.7 (2)
0x3f0|00                                             |.               |                tag: "funcidx" (0x0) 0x3f0-0x3f0.7 (1)
0x3f0|   1b                                          | .              |                x: 27 0x3f1-0x3f1.7 (1)
     |                                               |                |            [28]{}: ex 0x3f2-0x415.7 (36)
     |                                               |                |              nm{}: 0x3f2-0x413.7 (34)
0x3f0|      21                                       |  !             |                n: 33 0x3f2-0x3f2.7 (1)
0x3f0|         69 31 36 78 38 5f 61 6c 6c 5f 74 72 75|   i16x8_all_tru|                b: "i16x8_all_true_as_i32.and_operand" 0x3f3-0x413.7 (33)
0x400|65 5f 61 73 5f 69 33 32 2e 61 6e 64 5f 6f 70 65|e_as_i32.and_ope|
0x410|72 61 6e 64                                    |rand            |
     |                                               |                |              d{}: 0x414-0x415.7 (2)
0x410|            00                                 |    .           |                tag: "funcidx" (0x0) 0x414-0x414.7 (1)
0x410|               1c                              |     .          |                x: 28 0x415-0x415.7 (1)
     |                                               |                |            [29]{}: ex 0x416-0x439.7 (36)
     |                                               |                |              nm{}: 0x416-0x437.7 (34)
0x410|                  21                           |      !         |                n: 33 0x416-0x416.7 (1)
0x410|                     69 33 32 78 34 5f 61 6c 6c|       i32x4_all|                b: "i32x4_all_true_as_i32.and_operand" 0x417-0x437.7 (33)
0x420|5f 74 72 75 65 5f 61 73 5f 69 33 32 2e 61 6e 64|_true_as_i32.and|
0x430|5f 6f 70 65 72 61 6e 64                        |_operand        |
     |                                               |                |              d{}: 0x438-0x439.7 (2)
0x430|                        00                     |        .       |                tag: "funcidx" (0x0) 0x438-0x438.7 (1)
0x430|                           1d                  |         .      |                x: 29 0x439-0x439.7 (1)
     |                                               |                |            [30]{}: ex 0x43a-0x45c.7 (35)
     |                                               |                |              nm{}: 0x43a-0x45a.7 (33)
0x430|                              20               |                |                n: 32 0x43a-0x43a.7 (1)
0x430|                                 69 38 78 31 36|           i8x16|                b: "i8x16_all_true_as_i32.or_operand" 0x43b-0x45a.7 (32)
0x440|5f 61 6c 6c 5f 74 72 75 65 5f 61 73 5f 69 33 32|_all_true_as_i32|
0x450|2e 6f 72 5f 6f 70 65 72 61 6e 64               |.or_operand     |
     |                                               |                |              d{}: 0x45b-0x45c.7 (2)
0x450|                                 00            |           .    |                tag: "funcidx" (0x0) 0x45b-0x45b.7 (1)
0x450|                                    1e         |            .   |                x: 30 0x45c-0x45c.7 (1)
     |                                               |                |            [31]{}: ex 0x45d-0x47f.7 (35)
     |                                               |                |              nm{}: 0x45d-0x47d.7 (33)
0x450|                                       20      |                |                n: 32 0x45d-0x45d.7 (1)
0x450|                                          69 31|              i1|                b: "i16x8_all_true_as_i32.or_operand" 0x45e-0x47d.7 (32)
0x460|36 78 38 5f 61 6c 6c 5f 74 72 75 65 5f 61 73 5f|6x8_all_true_as_|
0x470|69 33 32 2e 6f 72 5f 6f 70 65 72 61 6e 64      |i32.or_operand  |
     |                                               |                |              d{}: 0x47e-0x47f.7 (2)
0x470|                                          00   |              . |                tag: "funcidx" (0x0) 0x47e-0x47e.7 (1)
0x470|                                             1f|               .|                x: 31 0x47f-0x47f.7 (1)
     |                                               |                |            [32]{}: ex 0x480-0x4a2.7 (35)
     |                                               |                |              nm{}: 0x480-0x4a0.7 (33)
0x480|20                                             |                |                n: 32 0x480-0x480.7 (1)
0x480|   69 33 32 78 34 5f 61 6c 6c 5f 74 72 75 65 5f| i32x4_all_true_|                b: "i32x4_all_true_as_i32.or_operand" 0x481-0x4a0.7 (32)
0x490|61 73 5f 69 33 32 2e 6f 72 5f 6f 70 65 72 61 6e|as_i32.or_operan|
0x4a0|64                                             |d               |
     |                                               |                |              d{}: 0x4a1-0x4a2.7 (2)
0x4a0|   00                                          | .              |                tag: "funcidx" (0x0) 0x4a1-0x4a1.7 (1)
0x4a0|      20                                       |                |                x: 32 0x4a2-0x4a2.7 (1)
     |                                               |                |            [33]{}: ex 0x4a3-0x4c6.7 (36)
     |                                               |                |              nm{}: 0x4a3-0x4c4.7 (34)
0x4a0|         21                                    |   !            |                n: 33 0x4a3-0x4a3.7 (1)
0x4a0|            69 38 78 31 36 5f 61 6c 6c 5f 74 72|    i8x16_all_tr|                b: "i8x16_all_true_as_i32.xor_operand" 0x4a4-0x4c4.7 (33)
0x4b0|75 65 5f 61 73 5f 69 33 32 2e 78 6f 72 5f 6f 70|ue_as_i32.xor_op|
0x4c0|65 72 61 6e 64                                 |erand           |
     |                                               |                |              d{}: 0x4c5-0x4c6.7 (2)
0x4c0|               00                              |     .          |                tag: "funcidx" (0x0) 0x4c5-0x4c5.7 (1)
0x4c0|                  21                           |      !         |                x: 33 0x4c6-0x4c6.7 (1)
     |                                               |                |            [34]{}: ex 0x4c7-0x4ea.7 (36)
     |                                               |                |              nm{}: 0x4c7-0x4e8.7 (34)
0x4c0|                     21                        |       !        |                n: 33 0x4c7-0x4c7.7 (1)
0x4c0|                        69 31 36 78 38 5f 61 6c|        i16x8_al|                b: "i16x8_all_true_as_i32.xor_operand" 0x4c8-0x4e8.7 (33)
0x4d0|6c 5f 74 72 75 65 5f 61 73 5f 69 33 32 2e 78 6f|l_true_as_i32.xo|
0x4e0|72 5f 6f 70 65 72 61 6e 64                     |r_operand       |
     |                                               |                |              d{}: 0x4e9-0x4ea.7 (2)
0x4e0|                           00                  |         .      |                tag: "funcidx" (0x0) 0x4e9-0x4e9.7 (1)
0x4e0|                              22               |          "     |                x: 34 0x4ea-0x4ea.7 (1)
     |                                               |                |            [35]{}: ex 0x4eb-0x50e.7 (36)
     |                                               |                |              nm{}: 0x4eb-0x50c.7 (34)
0x4e0|                                 21            |           !    |                n: 33 0x4eb-0x4eb.7 (1)
0x4e0|                                    69 33 32 78|            i32x|                b: "i32x4_all_true_as_i32.xor_operand" 0x4ec-0x50c.7 (33)
0x4f0|34 5f 61 6c 6c 5f 74 72 75 65 5f 61 73 5f 69 33|4_all_true_as_i3|
0x500|32 2e 78 6f 72 5f 6f 70 65 72 61 6e 64         |2.xor_operand   |
     |                                               |                |              d{}: 0x50d-0x50e.7 (2)
0x500|                                       00      |             .  |                tag: "funcidx" (0x0) 0x50d-0x50d.7 (1)
0x500|                                          23   |              # |                x: 35 0x50e-0x50e.7 (1)
     |                                               |                |            [36]{}: ex 0x50f-0x52d.7 (31)
     |                                               |                |              nm{}: 0x50f-0x52b.7 (29)
0x500|                                             1c|               .|                n: 28 0x50f-0x50f.7 (1)
0x510|69 38 78 31 36 5f 61 6e 79 5f 74 72 75 65 5f 77|i8x16_any_true_w|                b: "i8x16_any_true_with_v128.not" 0x510-0x52b.7 (28)
0x520|69 74 68 5f 76 31 32 38 2e 6e 6f 74            |ith_v128.not    |
     |                                               |                |              d{}: 0x52c-0x52d.7 (2)
0x520|                                    00         |            .   |                tag: "funcidx" (0x0) 0x52c-0x52c.7 (1)
0x520|                                       24      |             $  |                x: 36 0x52d-0x52d.7 (1)
     |                                               |                |            [37]{}: ex 0x52e-0x54c.7 (31)
     |                                               |                |              nm{}: 0x52e-0x54a.7 (29)
0x520|                                          1c   |              . |                n: 28 0x52e-0x52e.7 (1)
0x520|                                             69|               i|                b: "i16x8_any_true_with_v128.not" 0x52f-0x54a.7 (28)
0x530|31 36 78 38 5f 61 6e 79 5f 74 72 75 65 5f 77 69|16x8_any_true_wi|
0x540|74 68 5f 76 31 32 38 2e 6e 6f 74               |th_v128.not     |
     |                                               |                |              d{}: 0x54b-0x54c.7 (2)
0x540|                                 00            |           .    |                tag: "funcidx" (0x0) 0x54b-0x54b.7 (1)
0x540|                                    25         |            %   |                x: 37 0x54c-0x54c.7 (1)
     |                                               |                |            [38]{}: ex 0x54d-0x56b.7 (31)
     |                                               |                |              nm{}: 0x54d-0x569.7 (29)
0x540|                                       1c      |             .  |                n: 28 0x54d-0x54d.7 (1)
0x540|                                          69 33|              i3|                b: "i32x4_any_true_with_v128.not" 0x54e-0x569.7 (28)
0x550|32 78 34 5f 61 6e 79 5f 74 72 75 65 5f 77 69 74|2x4_any_true_wit|
0x560|68 5f 76 31 32 38 2e 6e 6f 74                  |h_v128.not      |
     |                                               |                |              d{}: 0x56a-0x56b.7 (2)
0x560|                              00               |          .     |                tag: "funcidx" (0x0) 0x56a-0x56a.7 (1)
0x560|                                 26            |           &    |                x: 38 0x56b-0x56b.7 (1)
     |                                               |                |            [39]{}: ex 0x56c-0x58a.7 (31)
     |                                               |                |              nm{}: 0x56c-0x588.7 (29)
0x560|                                    1c         |            .   |                n: 28 0x56c-0x56c.7 (1)
0x560|                                       69 38 78|             i8x|                b: "i8x16_any_true_with_v128.and" 0x56d-0x588.7 (28)
0x570|31 36 5f 61 6e 79 5f 74 72 75 65 5f 77 69 74 68|16_any_true_with|
0x580|5f 76 31 32 38 2e 61 6e 64                     |_v128.and       |
     |                                               |                |              d{}: 0x589-0x58a.7 (2)
0x580|                           00                  |         .      |                tag: "funcidx" (0x0) 0x589-0x589.7 (1)
0x580|                              27               |          '     |                x: 39 0x58a-0x58a.7 (1)
     |                                               |                |            [40]{}: ex 0x58b-0x5a9.7 (31)
     |                                               |                |              nm{}: 0x58b-0x5a7.7 (29)
0x580|                                 1c            |           .    |                n: 28 0x58b-0x58b.7 (1)
0x580|                                    69 31 36 78|            i16x|                b: "i16x8_any_true_with_v128.and" 0x58c-0x5a7.7 (28)
0x590|38 5f 61 6e 79 5f 74 72 75 65 5f 77 69 74 68 5f|8_any_true_with_|
0x5a0|76 31 32 38 2e 61 6e 64                        |v128.and        |
     |                                               |                |              d{}: 0x5a8-0x5a9.7 (2)
0x5a0|                        00                     |        .       |                tag: "funcidx" (0x0) 0x5a8-0x5a8.7 (1)
0x5a0|                           28                  |         (      |                x: 40 0x5a9-0x5a9.7 (1)
     |                                               |                |            [41]{}: ex 0x5aa-0x5c8.7 (31)
     |                                               |                |              nm{}: 0x5aa-0x5c6.7 (29)
0x5a0|                              1c               |          .     |                n: 28 0x5aa-0x5aa.7 (1)
0x5a0|                                 69 33 32 78 34|           i32x4|                b: "i32x4_any_true_with_v128.and" 0x5ab-0x5c6.7 (28)
0x5b0|5f 61 6e 79 5f 74 72 75 65 5f 77 69 74 68 5f 76|_any_true_with_v|
0x5c0|31 32 38 2e 61 6e 64                           |128.and         |
     |                                               |                |              d{}: 0x5c7-0x5c8.7 (2)
0x5c0|                     00                        |       .        |                tag: "funcidx" (0x0) 0x5c7-0x5c7.7 (1)
0x5c0|                        29                     |        )       |                x: 41 0x5c8-0x5c8.7 (1)
     |                                               |                |            [42]{}: ex 0x5c9-0x5e6.7 (30)
     |                                               |                |              nm{}: 0x5c9-0x5e4.7 (28)
0x5c0|                           1b                  |         .      |                n: 27 0x5c9-0x5c9.7 (1)
0x5c0|                              69 38 78 31 36 5f|          i8x16_|                b: "i8x16_any_true_with_v128.or" 0x5ca-0x5e4.7 (27)
0x5d0|61 6e 79 5f 74 72 75 65 5f 77 69 74 68 5f 76 31|any_true_with_v1|
0x5e0|32 38 2e 6f 72                                 |28.or           |
     |                                               |                |              d{}: 0x5e5-0x5e6.7 (2)
0x5e0|               00                              |     .          |                tag: "funcidx" (0x0) 0x5e5-0x5e5.7 (1)
0x5e0|                  2a                           |      *         |                x: 42 0x5e6-0x5e6.7 (1)
     |                                               |                |            [43]{}: ex 0x5e7-0x604.7 (30)
     |                                               |                |              nm{}: 0x5e7-0x602.7 (28)
0x5e0|                     1b                        |       .        |                n: 27 0x5e7-0x5e7.7 (1)
0x5e0|                        69 31 36 78 38 5f 61 6e|        i16x8_an|                b: "i16x8_any_true_with_v128.or" 0x5e8-0x602.7 (27)
0x5f0|79 5f 74 72 75 65 5f 77 69 74 68 5f 76 31 32 38|y_true_with_v128|
0x600|2e 6f 72                                       |.or             |
     |                                               |                |              d{}: 0x603-0x604.7 (2)
0x600|         00                                    |   .            |                tag: "funcidx" (0x0) 0x603-0x603.7 (1)
0x600|            2b                                 |    +           |                x: 43 0x604-0x604.7 (1)
     |                                               |                |            [44]{}: ex 0x605-0x622.7 (30)
     |                                               |                |              nm{}: 0x605-0x620.7 (28)
0x600|               1b                              |     .          |                n: 27 0x605-0x605.7 (1)
0x600|                  69 33 32 78 34 5f 61 6e 79 5f|      i32x4_any_|                b: "i32x4_any_true_with_v128.or" 0x606-0x620.7 (27)
0x610|74 72 75 65 5f 77 69 74 68 5f 76 31 32 38 2e 6f|true_with_v128.o|
0x620|72                                             |r               |
     |                                               |                |              d{}: 0x621-0x622.7 (2)
0x620|   00                                          | .              |                tag: "funcidx" (0x0) 0x621-0x621.7 (1)
0x620|      2c                                       |  ,             |                x: 44 0x622-0x622.7 (1)
     |                                               |                |            [45]{}: ex 0x623-0x641.7 (31)
     |                                               |                |              nm{}: 0x623-0x63f.7 (29)
0x620|         1c                                    |   .            |                n: 28 0x623-0x623.7 (1)
0x620|            69 38 78 31 36 5f 61 6e 79 5f 74 72|    i8x16_any_tr|                b: "i8x16_any_true_with_v128.xor" 0x624-0x63f.7 (28)
0x630|75 65 5f 77 69 74 68 5f 76 31 32 38 2e 78 6f 72|ue_with_v128.xor|
     |                                               |                |              d{}: 0x640-0x641.7 (2)
0x640|00                                             |.               |                tag: "funcidx" (0x0) 0x640-0x640.7 (1)
0x640|   2d                                          | -              |                x: 45 0x641-0x641.7 (1)
     |                                               |                |            [46]{}: ex 0x642-0x660.7 (31)
     |                                               |                |              nm{}: 0x642-0x65e.7 (29)
0x640|      1c                                       |  .             |                n: 28 0x642-0x642.7 (1)
0x640|         69 31 36 78 38 5f 61 6e 79 5f 74 72 75|   i16x8_any_tru|                b: "i16x8_any_true_with_v128.xor" 0x643-0x65e.7 (28)
0x650|65 5f 77 69 74 68 5f 76 31 32 38 2e 78 6f 72   |e_with_v128.xor |
     |                                               |                |              d{}: 0x65f-0x660.7 (2)
0x650|                                             00|               .|                tag: "funcidx" (0x0) 0x65f-0x65f.7 (1)
0x660|2e                                             |.               |                x: 46 0x660-0x660.7 (1)
     |                                               |                |            [47]{}: ex 0x661-0x67f.7 (31)
     |                                               |                |              nm{}: 0x661-0x67d.7 (29)
0x660|   1c                                          | .              |                n: 28 0x661-0x661.7 (1)
0x660|      69 33 32 78 34 5f 61 6e 79 5f 74 72 75 65|  i32x4_any_true|                b: "i32x4_any_true_with_v128.xor" 0x662-0x67d.7 (28)
0x670|5f 77 69 74 68 5f 76 31 32 38 2e 78 6f 72      |_with_v128.xor  |
     |                                               |                |              d{}: 0x67e-0x67f.7 (2)
0x670|                                          00   |              . |                tag: "funcidx" (0x0) 0x67e-0x67e.7 (1)
0x670|                                             2f|               /|                x: 47 0x67f-0x67f.7 (1)
     |                                               |                |            [48]{}: ex 0x680-0x6a4.7 (37)
     |                                               |                |              nm{}: 0x680-0x6a2.7 (35)
0x680|22                                             |"               |                n: 34 0x680-0x680.7 (1)
0x680|   69 38 78 31 36 5f 61 6e 79 5f 74 72 75 65 5f| i8x16_any_true_|                b: "i8x16_any_true_with_v128.bitselect" 0x681-0x6a2.7 (34)
0x690|77 69 74 68 5f 76 31 32 38 2e 62 69 74 73 65 6c|with_v128.bitsel|
0x6a0|65 63 74                                       |ect             |
     |                                               |                |              d{}: 0x6a3-0x6a4.7 (2)
0x6a0|         00                                    |   .            |                tag: "funcidx" (0x0) 0x6a3-0x6a3.7 (1)
0x6a0|            30                                 |    0           |                x: 48 0x6a4-0x6a4.7 (1)
     |                                               |                |            [49]{}: ex 0x6a5-0x6c9.7 (37)
     |                                               |                |              nm{}: 0x6a5-0x6c7.7 (35)
0x6a0|               22                              |     "          |                n: 34 0x6a5-0x6a5.7 (1)
0x6a0|                  69 31 36 78 38 5f 61 6e 79 5f|      i16x8_any_|                b: "i16x8_any_true_with_v128.bitselect" 0x6a6-0x6c7.7 (34)
0x6b0|74 72 75 65 5f 77 69 74 68 5f 76 31 32 38 2e 62|true_with_v128.b|
0x6c0|69 74 73 65 6c 65 63 74                        |itselect        |
     |                                               |                |              d{}: 0x6c8-0x6c9.7 (2)
0x6c0|                        00                     |        .       |                tag: "funcidx" (0x0) 0x6c8-0x6c8.7 (1)
0x6c0|                           31                  |         1      |                x: 49 0x6c9-0x6c9.7 (1)
     |                                               |                |            [50]{}: ex 0x6ca-0x6ee.7 (37)
     |                                               |                |              nm{}: 0x6ca-0x6ec.7 (35)
0x6c0|                              22               |          "     |                n: 34 0x6ca-0x6ca.7 (1)
0x6c0|                                 69 33 32 78 34|           i32x4|                b: "i32x4_any_true_with_v128.bitselect" 0x6cb-0x6ec.7 (34)
0x6d0|5f 61 6e 79 5f 74 72 75 65 5f 77 69 74 68 5f 76|_any_true_with_v|
0x6e0|31 32 38 2e 62 69 74 73 65 6c 65 63 74         |128.bitselect   |
     |                                               |                |              d{}: 0x6ed-0x6ee.7 (2)
0x6e0|                                       00      |             .  |                tag: "funcidx" (0x0) 0x6ed-0x6ed.7 (1)
0x6e0|                                          32   |              2 |                x: 50 0x6ee-0x6ee.7 (1)
     |                                               |                |            [51]{}: ex 0x6ef-0x70d.7 (31)
     |                                               |                |              nm{}: 0x6ef-0x70b.7 (29)
0x6e0|                                             1c|               .|                n: 28 0x6ef-0x6ef.7 (1)
0x6f0|69 38 78 31 36 5f 61 6c 6c 5f 74 72 75 65 5f 77|i8x16_all_true_w|                b: "i8x16_all_true_with_v128.not" 0x6f0-0x70b.7 (28)
0x700|69 74 68 5f 76 31 32 38 2e 6e 6f 74            |ith_v128.not    |
     |                                               |                |              d{}: 0x70c-0x70d.7 (2)
0x700|                                    00         |            .   |                tag: "funcidx" (0x0) 0x70c-0x70c.7 (1)
0x700|                                       33      |             3  |                x: 51 0x70d-0x70d.7 (1)
     |                                               |                |            [52]{}: ex 0x70e-0x72c.7 (31)
     |                                               |                |              nm{}: 0x70e-0x72a.7 (29)
0x700|                                          1c   |              . |                n: 28 0x70e-0x70e.7 (1)
0x700|                                             69|               i|                b: "i16x8_all_true_with_v128.not" 0x70f-0x72a.7 (28)
0x710|31 36 78 38 5f 61 6c 6c 5f 74 72 75 65 5f 77 69|16x8_all_true_wi|
0x720|74 68 5f 76 31 32 38 2e 6e 6f 74               |th_v128.not     |
     |                                               |                |              d{}: 0x72b-0x72c.7 (2)
0x720|                                 00            |           .    |                tag: "funcidx" (0x0) 0x72b-0x72b.7 (1)
0x720|                                    34         |            4   |                x: 52 0x72c-0x72c.7 (1)
     |                                               |                |            [53]{}: ex 0x72d-0x74b.7 (31)
     |                                               |                |              nm{}: 0x72d-0x749.7 (29)
0x720|                                       1c      |             .  |                n: 28 0x72d-0x72d.7 (1)
0x720|                                          69 33|              i3|                b: "i32x4_all_true_with_v128.not" 0x72e-0x749.7 (28)
0x730|32 78 34 5f 61 6c 6c 5f 74 72 75 65 5f 77 69 74|2x4_all_true_wit|
0x740|68 5f 76 31 32 38 2e 6e 6f 74                  |h_v128.not      |
     |                                               |                |              d{}: 0x74a-0x74b.7 (2)
0x740|                              00               |          .     |                tag: "funcidx" (0x0) 0x74a-0x74a.7 (1)
0x740|                                 35            |           5    |                x: 53 0x74b-0x74b.7 (1)
     |                                               |                |            [54]{}: ex 0x74c-0x76a.7 (31)
     |                                               |                |              nm{}: 0x74c-0x768.7 (29)
0x740|                                    1c         |            .   |                n: 28 0x74c-0x74c.7 (1)
0x740|                                       69 38 78|             i8x|                b: "i8x16_all_true_with_v128.and" 0x74d-0x768.7 (28)
0x750|31 36 5f 61 6c 6c 5f 74 72 75 65 5f 77 69 74 68|16_all_true_with|
0x760|5f 76 31 32 38 2e 61 6e 64                     |_v128.and       |
     |                                               |                |              d{}: 0x769-0x76a.7 (2)
0x760|                           00                  |         .      |                tag: "funcidx" (0x0) 0x769-0x769.7 (1)
0x760|                              36               |          6     |                x: 54 0x76a-0x76a.7 (1)
     |                                               |                |            [55]{}: ex 0x76b-0x789.7 (31)
     |                                               |                |              nm{}: 0x76b-0x787.7 (29)
0x760|                                 1c            |           .    |                n: 28 0x76b-0x76b.7 (1)
0x760|                                    69 31 36 78|            i16x|                b: "i16x8_all_true_with_v128.and" 0x76c-0x787.7 (28)
0x770|38 5f 61 6c 6c 5f 74 72 75 65 5f 77 69 74 68 5f|8_all_true_with_|
0x780|76 31 32 38 2e 61 6e 64                        |v128.and        |
     |                                               |                |              d{}: 0x788-0x789.7 (2)
0x780|                        00                     |        .       |                tag: "funcidx" (0x0) 0x788-0x788.7 (1)
0x780|                           37                  |         7      |                x: 55 0x789-0x789.7 (1)
     |                                               |                |            [56]{}: ex 0x78a-0x7a8.7 (31)
     |                                               |                |              nm{}: 0x78a-0x7a6.7 (29)
0x780|                              1c               |          .     |                n: 28 0x78a-0x78a.7 (1)
0x780|                                 69 33 32 78 34|           i32x4|                b: "i32x4_all_true_with_v128.and" 0x78b-0x7a6.7 (28)
0x790|5f 61 6c 6c 5f 74 72 75 65 5f 77 69 74 68 5f 76|_all_true_with_v|
0x7a0|31 32 38 2e 61 6e 64                           |128.and         |
     |                                               |                |              d{}: 0x7a7-0x7a8.7 (2)
0x7a0|                     00                        |       .        |                tag: "funcidx" (0x0) 0x7a7-0x7a7.7 (1)
0x7a0|                        38                     |        8       |                x: 56 0x7a8-0x7a8.7 (1)
     |                                               |                |            [57]{}: ex 0x7a9-0x7c6.7 (30)
     |                                               |                |              nm{}: 0x7a9-0x7c4.7 (28)
0x7a0|                           1b                  |         .      |                n: 27 0x7a9-0x7a9.7 (1)
0x7a0|                              69 38 78 31 36 5f|          i8x16_|                b: "i8x16_all_true_with_v128.or" 0x7aa-0x7c4.7 (27)
0x7b0|61 6c 6c 5f 74 72 75 65 5f 77 69 74 68 5f 76 31|all_true_with_v1|
0x7c0|32 38 2e 6f 72                                 |28.or           |
     |                                               |                |              d{}: 0x7c5-0x7c6.7 (2)
0x7c0|               00                              |     .          |                tag: "funcidx" (0x0) 0x7c5-0x7c5.7 (1)
0x7c0|                  39                           |      9         |                x: 57 0x7c6-0x7c6.7 (1)
     |                                               |                |            [58]{}: ex 0x7c7-0x7e4.7 (30)
     |                                               |                |              nm{}: 0x7c7-0x7e2.7 (28)
0x7c0|                     1b                        |       .        |                n: 27 0x7c7-0x7c7.7 (1)
0x7c0|                        69 31 36 78 38 5f 61 6c|        i16x8_al|                b: "i16x8_all_true_with_v128.or" 0x7c8-0x7e2.7 (27)
0x7d0|6c 5f 74 72 75 65 5f 77 69 74 68 5f 76 31 32 38|l_true_with_v128|
0x7e0|2e 6f 72                                       |.or             |
     |                                               |                |              d{}: 0x7e3-0x7e4.7 (2)
0x7e0|         00                                    |   .            |                tag: "funcidx" (0x0) 0x7e3-0x7e3.7 (1)
0x7e0|            3a                                 |    :           |                x: 58 0x7e4-0x7e4.7 (1)
     |                                               |                |            [59]{}: ex 0x7e5-0x802.7 (30)
     |                                               |                |              nm{}: 0x7e5-0x800.7 (28)
0x7e0|               1b                              |     .          |                n: 27 0x7e5-0x7e5.7 (1)
0x7e0|                  69 33 32 78 34 5f 61 6c 6c 5f|      i32x4_all_|                b: "i32x4_all_true_with_v128.or" 0x7e6-0x800.7 (27)
0x7f0|74 72 75 65 5f 77 69 74 68 5f 76 31 32 38 2e 6f|true_with_v128.o|
0x800|72                                             |r               |
     |                                               |                |              d{}: 0x801-0x802.7 (2)
0x800|   00                                          | .              |                tag: "funcidx" (0x0) 0x801-0x801.7 (1)
0x800|      3b                                       |  ;             |                x: 59 0x802-0x802.7 (1)
     |                                               |                |            [60]{}: ex 0x803-0x821.7 (31)
     |                                               |                |              nm{}: 0x803-0x81f.7 (29)
0x800|         1c                                    |   .            |                n: 28 0x803-0x803.7 (1)
0x800|            69 38 78 31 36 5f 61 6c 6c 5f 74 72|    i8x16_all_tr|                b: "i8x16_all_true_with_v128.xor" 0x804-0x81f.7 (28)
0x810|75 65 5f 77 69 74 68 5f 76 31 32 38 2e 78 6f 72|ue_with_v128.xor|
     |                                               |                |              d{}: 0x820-0x821.7 (2)
0x820|00                                             |.               |                tag: "funcidx" (0x0) 0x820-0x820.7 (1)
0x820|   3c                                          | <              |                x: 60 0x821-0x821.7 (1)
     |                                               |                |            [61]{}: ex 0x822-0x840.7 (31)
     |                                               |                |              nm{}: 0x822-0x83e.7 (29)
0x820|      1c                                       |  .             |                n: 28 0x822-0x822.7 (1)
0x820|         69 31 36 78 38 5f 61 6c 6c 5f 74 72 75|   i16x8_all_tru|                b: "i16x8_all_true_with_v128.xor" 0x823-0x83e.7 (28)
0x830|65 5f 77 69 74 68 5f 76 31 32 38 2e 78 6f 72   |e_with_v128.xor |
     |                                               |                |              d{}: 0x83f-0x840.7 (2)
0x830|                                             00|               .|                tag: "funcidx" (0x0) 0x83f-0x83f.7 (1)
0x840|3d                                             |=               |                x: 61 0x840-0x840.7 (1)
     |                                               |                |            [62]{}: ex 0x841-0x85f.7 (31)
     |                                               |                |              nm{}: 0x841-0x85d.7 (29)
0x840|   1c                                          | .              |                n: 28 0x841-0x841.7 (1)
0x840|      69 33 32 78 34 5f 61 6c 6c 5f 74 72 75 65|  i32x4_all_true|                b: "i32x4_all_true_with_v128.xor" 0x842-0x85d.7 (28)
0x850|5f 77 69 74 68 5f 76 31 32 38 2e 78 6f 72      |_with_v128.xor  |
     |                                               |                |              d{}: 0x85e-0x85f.7 (2)
0x850|                                          00   |              . |                tag: "funcidx" (0x0) 0x85e-0x85e.7 (1)
0x850|                                             3e|               >|                x: 62 0x85f-0x85f.7 (1)
     |                                               |                |            [63]{}: ex 0x860-0x884.7 (37)
     |                                               |                |              nm{}: 0x860-0x882.7 (35)
0x860|22                                             |"               |                n: 34 0x860-0x860.7 (1)
0x860|   69 38 78 31 36 5f 61 6c 6c 5f 74 72 75 65 5f| i8x16_all_true_|                b: "i8x16_all_true_with_v128.bitselect" 0x861-0x882.7 (34)
0x870|77 69 74 68 5f 76 31 32 38 2e 62 69 74 73 65 6c|with_v128.bitsel|
0x880|65 63 74                                       |ect             |
     |                                               |                |              d{}: 0x883-0x884.7 (2)
0x880|         00                                    |   .            |                tag: "funcidx" (0x0) 0x883-0x883.7 (1)
0x880|            3f                                 |    ?           |                x: 63 0x884-0x884.7 (1)
     |                                               |                |            [64]{}: ex 0x885-0x8a9.7 (37)
     |                                               |                |              nm{}: 0x885-0x8a7.7 (35)
0x880|               22                              |     "          |                n: 34 0x885-0x885.7 (1)
0x880|                  69 31 36 78 38 5f 61 6c 6c 5f|      i16x8_all_|                b: "i16x8_all_true_with_v128.bitselect" 0x886-0x8a7.7 (34)
0x890|74 72 75 65 5f 77 69 74 68 5f 76 31 32 38 2e 62|true_with_v128.b|
0x8a0|69 74 73 65 6c 65 63 74                        |itselect        |
     |                                               |                |              d{}: 0x8a8-0x8a9.7 (2)
0x8a0|                        00                     |        .       |                tag: "funcidx" (0x0) 0x8a8-0x8a8.7 (1)
0x8a0|                           40                  |         @      |                x: 64 0x8a9-0x8a9.7 (1)
     |                                               |                |            [65]{}: ex 0x8aa-0x8ce.7 (37)
     |                                               |                |              nm{}: 0x8aa-0x8cc.7 (35)
0x8a0|                              22               |          "     |                n: 34 0x8aa-0x8aa.7 (1)
0x8a0|                                 69 33 32 78 34|           i32x4|                b: "i32x4_all_true_with_v128.bitselect" 0x8ab-0x8cc.7 (34)
0x8b0|5f 61 6c 6c 5f 74 72 75 65 5f 77 69 74 68 5f 76|_all_true_with_v|
0x8c0|31 32 38 2e 62 69 74 73 65 6c 65 63 74         |128.bitselect   |
     |                                               |                |              d{}: 0x8cd-0x8ce.7 (2)
0x8c0|                                       00      |             .  |                tag: "funcidx" (0x0) 0x8cd-0x8cd.7 (1)
0x8c0|                                          41   |              A |                x: 65 0x8ce-0x8ce.7 (1)
     |                                               |                |    [4]{}: section 0x8cf-0xc5a.7 (908)
0x8c0|                                             0a|               .|      id: "code section" (10) 0x8cf-0x8cf.7 (1)
0x8d0|89 07                                          |..              |      size: 905 0x8d0-0x8d1.7 (2)
     |                                               |                |      content{}: 0x8d2-0xc5a.7 (905)
     |                                               |                |        code{}: 0x8d2-0xc5a.7 (905)
0x8d0|      42                                       |  B             |          n: 66 0x8d2-0x8d2.7 (1)
     |                                               |                |          x[0:66]: 0x8d3-0xc5a.7 (904)
     |                                               |                |            [0]{}: code 0x8d3-0x8e1.7 (15)
0x8d0|         0e                                    |   .            |              size: 14 0x8d3-0x8d3.7 (1)
     |                                               |                |              code{}: 0x8d4-0x8e1.7 (14)
     |                                               |                |                t{}: 0x8d4-0x8d4.7 (1)
0x8d0|            00                                 |    .           |                  n: 0 0x8d4-0x8d4.7 (1)
     |                                               |                |                  x[0:0]: 0x8d5-NA (0)
     |                                               |                |                e[0:4]: 0x8d5-0x8e1.7 (13)
     |                                               |                |                  [0]{}: in 0x8d5-0x8d6.7 (2)
0x8d0|               20                              |                |                    local.get: 0x20 (valid) 0x8d5-0x8d5.7 (1)
0x8d0|                  00                           |      .         |                    x: 0 0x8d6-0x8d6.7 (1)
     |                                               |                |                  [1]{}: in 0x8d7-0x8d8.7 (2)
0x8d0|                     fd                        |       .        |                    prefix: 0xfd (valid) 0x8d7-0x8d7.7 (1)
0x8d0|                        53                     |        S       |                    v128.any_true: 83 (valid) 0x8d8-0x8d8.7 (1)
     |                                               |                |                  [2]{}: in 0x8d9-0x8e0.7 (8)
0x8d0|                           04                  |         .      |                    if: 0x4 (valid) 0x8d9-0x8d9.7 (1)
0x8d0|                              7f               |          .     |                    bt: "i32" (127) 0x8da-0x8da.7 (1)
     |                                               |                |                    in1[0:1]: 0x8db-0x8dc.7 (2)
     |                                               |                |                      [0]{}: instr 0x8db-0x8dc.7 (2)
0x8d0|                                 41            |           A    |                        i32.const: 0x41 (valid) 0x8db-0x8db.7 (1)
0x8d0|                                    01         |            .   |                        n: 1 0x8dc-0x8dc.7 (1)
0x8d0|                                       05      |             .  |                    else: 0x5 (valid) 0x8dd-0x8dd.7 (1)
     |                                               |                |                    in2[0:1]: 0x8de-0x8df.7 (2)
     |                                               |                |                      [0]{}: instr 0x8de-0x8df.7 (2)
0x8d0|                                          41   |              A |                        i32.const: 0x41 (valid) 0x8de-0x8de.7 (1)
0x8d0|                                             00|               .|                        n: 0 0x8df-0x8df.7 (1)
0x8e0|0b                                             |.               |                    end: 11 (valid) 0x8e0-0x8e0.7 (1)
     |                                               |                |                  [3]{}: in 0x8e1-0x8e1.7 (1)
0x8e0|   0b                                          | .              |                    end: 0xb (valid) 0x8e1-0x8e1.7 (1)
     |                                               |                |            [1]{}: code 0x8e2-0x8f0.7 (15)
0x8e0|      0e                                       |  .             |              size: 14 0x8e2-0x8e2.7 (1)
     |                                               |                |              code{}: 0x8e3-0x8f0.7 (14)
     |                                               |                |                t{}: 0x8e3-0x8e3.7 (1)
0x8e0|         00                                    |   .            |                  n: 0 0x8e3-0x8e3.7 (1)
     |                                               |                |                  x[0:0]: 0x8e4-NA (0)
     |                                               |                |                e[0:4]: 0x8e4-0x8f0.7 (13)
     |                                               |                |                  [0]{}: in 0x8e4-0x8e5.7 (2)
0x8e0|            20                                 |                |                    local.get: 0x20 (valid) 0x8e4-0x8e4.7 (1)
0x8e0|               00                              |     .          |                    x: 0 0x8e5-0x8e5.7 (1)
     |                                               |                |                  [1]{}: in 0x8e6-0x8e7.7 (2)
0x8e0|                  fd                           |      .         |                    prefix: 0xfd (valid) 0x8e6-0x8e6.7 (1)
0x8e0|                     53                        |       S        |                    v128.any_true: 83 (valid) 0x8e7-0x8e7.7 (1)
     |                                               |                |                  [2]{}: in 0x8e8-0x8ef.7 (8)
0x8e0|                        04                     |        .       |                    if: 0x4 (valid) 0x8e8-0x8e8.7 (1)
0x8e0|                           7f                  |         .      |                    bt: "i32" (127) 0x8e9-0x8e9.7 (1)
     |                                               |                |                    in1[0:1]: 0x8ea-0x8eb.7 (2)
     |                                               |                |                      [0]{}: instr 0x8ea-0x8eb.7 (2)
0x8e0|                              41               |          A     |                        i32.const: 0x41 (valid) 0x8ea-0x8ea.7 (1)
0x8e0|                                 01            |           .    |                        n: 1 0x8eb-0x8eb.7 (1)
0x8e0|                                    05         |            .   |                    else: 0x5 (valid) 0x8ec-0x8ec.7 (1)
     |                                               |                |                    in2[0:1]: 0x8ed-0x8ee.7 (2)
     |                                               |                |                      [0]{}: instr 0x8ed-0x8ee.7 (2)
0x8e0|                                       41      |             A  |                        i32.const: 0x41 (valid) 0x8ed-0x8ed.7 (1)
0x8e0|                                          00   |              . |                        n: 0 0x8ee-0x8ee.7 (1)
0x8e0|                                             0b|               .|                    end: 11 (valid) 0x8ef-0x8ef.7 (1)
     |                                               |                |                  [3]{}: in 0x8f0-0x8f0.7 (1)
0x8f0|0b                                             |.               |                    end: 0xb (valid) 0x8f0-0x8f0.7 (1)
     |                                               |                |            [2]{}: code 0x8f1-0x8ff.7 (15)
0x8f0|   0e                                          | .              |              size: 14 0x8f1-0x8f1.7 (1)
     |                                               |                |              code{}: 0x8f2-0x8ff.7 (14)
     |                                               |                |                t{}: 0x8f2-0x8f2.7 (1)
0x8f0|      00                                       |  .             |                  n: 0 0x8f2-0x8f2.7 (1)
     |                                               |                |                  x[0:0]: 0x8f3-NA (0)
     |                                               |                |                e[0:4]: 0x8f3-0x8ff.7 (13)
     |                                               |                |                  [0]{}: in 0x8f3-0x8f4.7 (2)
0x8f0|         20                                    |                |                    local.get: 0x20 (valid) 0x8f3-0x8f3.7 (1)
0x8f0|            00                                 |    .           |                    x: 0 0x8f4-0x8f4.7 (1)
     |                                               |                |                  [1]{}: in 0x8f5-0x8f6.7 (2)
0x8f0|               fd                              |     .          |                    prefix: 0xfd (valid) 0x8f5-0x8f5.7 (1)
0x8f0|                  53                           |      S         |                    v128.any_true: 83 (valid) 0x8f6-0x8f6.7 (1)
     |                                               |                |                  [2]{}: in 0x8f7-0x8fe.7 (8)
0x8f0|                     04                        |       .        |                    if: 0x4 (valid) 0x8f7-0x8f7.7 (1)
0x8f0|                        7f                     |        .       |                    bt: "i32" (127) 0x8f8-0x8f8.7 (1)
     |                                               |                |                    in1[0:1]: 0x8f9-0x8fa.7 (2)
     |                                               |                |                      [0]{}: instr 0x8f9-0x8fa.7 (2)
0x8f0|                           41                  |         A      |                        i32.const: 0x41 (valid) 0x8f9-0x8f9.7 (1)
0x8f0|                              01               |          .     |                        n: 1 0x8fa-0x8fa.7 (1)
0x8f0|                                 05            |           .    |                    else: 0x5 (valid) 0x8fb-0x8fb.7 (1)
     |                                               |                |                    in2[0:1]: 0x8fc-0x8fd.7 (2)
     |                                               |                |                      [0]{}: instr 0x8fc-0x8fd.7 (2)
0x8f0|                                    41         |            A   |                        i32.const: 0x41 (valid) 0x8fc-0x8fc.7 (1)
0x8f0|                                       00      |             .  |                        n: 0 0x8fd-0x8fd.7 (1)
0x8f0|                                          0b   |              . |                    end: 11 (valid) 0x8fe-0x8fe.7 (1)
     |                                               |                |                  [3]{}: in 0x8ff-0x8ff.7 (1)
0x8f0|                                             0b|               .|                    end: 0xb (valid) 0x8ff-0x8ff.7 (1)
     |                                               |                |            [3]{}: code 0x900-0x90e.7 (15)
0x900|0e                                             |.               |              size: 14 0x900-0x900.7 (1)
     |                                               |                |              code{}: 0x901-0x90e.7 (14)
     |                                               |                |                t{}: 0x901-0x901.7 (1)
0x900|   00                                          | .              |                  n: 0 0x901-0x901.7 (1)
     |                                               |                |                  x[0:0]: 0x902-NA (0)
     |                                               |                |                e[0:4]: 0x902-0x90e.7 (13)
     |                                               |                |                  [0]{}: in 0x902-0x903.7 (2)
0x900|      20                                       |                |                    local.get: 0x20 (valid) 0x902-0x902.7 (1)
0x900|         00                                    |   .            |                    x: 0 0x903-0x903.7 (1)
     |                                               |                |                  [1]{}: in 0x904-0x905.7 (2)
0x900|            fd                                 |    .           |                    prefix: 0xfd (valid) 0x904-0x904.7 (1)
0x900|               63                              |     c          |                    i8x16.all_true: 99 (valid) 0x905-0x905.7 (1)
     |                                               |                |                  [2]{}: in 0x906-0x90d.7 (8)
0x900|                  04                           |      .         |                    if: 0x4 (valid) 0x906-0x906.7 (1)
0x900|                     7f                        |       .        |                    bt: "i32" (127) 0x907-0x907.7 (1)
     |                                               |                |                    in1[0:1]: 0x908-0x909.7 (2)
     |                                               |                |                      [0]{}: instr 0x908-0x909.7 (2)
0x900|                        41                     |        A       |                        i32.const: 0x41 (valid) 0x908-0x908.7 (1)
0x900|                           01                  |         .      |                        n: 1 0x909-0x909.7 (1)
0x900|                              05               |          .     |                    else: 0x5 (valid) 0x90a-0x90a.7 (1)
     |                                               |                |                    in2[0:1]: 0x90b-0x90c.7 (2)
     |                                               |                |                      [0]{}: instr 0x90b-0x90c.7 (2)
0x900|                                 41            |           A    |                        i32.const: 0x41 (valid) 0x90b-0x90b.7 (1)
0x900|                                    00         |            .   |                        n: 0 0x90c-0x90c.7 (1)
0x900|                                       0b      |             .  |                    end: 11 (valid) 0x90d-0x90d.7 (1)
     |                                               |                |                  [3]{}: in 0x90e-0x90e.7 (1)
0x900|                                          0b   |              . |                    end: 0xb (valid) 0x90e-0x90e.7 (1)
     |                                               |                |            [4]{}: code 0x90f-0x91e.7 (16)
0x900|                                             0f|               .|              size: 15 0x90f-0x90f.7 (1)
     |                                               |                |              code{}: 0x910-0x91e.7 (15)
     |                                               |                |                t{}: 0x910-0x910.7 (1)
0x910|00                                             |.               |                  n: 0 0x910-0x910.7 (1)
     |                                               |                |                  x[0:0]: 0x911-NA (0)
     |                                               |                |                e[0:4]: 0x911-0x91e.7 (14)
     |                                               |                |                  [0]{}: in 0x911-0x912.7 (2)
0x910|   20                                          |                |                    local.get: 0x20 (valid) 0x911-0x911.7 (1)
0x910|      00                                       |  .             |                    x: 0 0x912-0x912.7 (1)
     |                                               |                |                  [1]{}: in 0x913-0x915.7 (3)
0x910|         fd                                    |   .            |                    prefix: 0xfd (valid) 0x913-0x913.7 (1)
0x910|            83 01                              |    ..          |                    i16x8.all_true: 131 (valid) 0x914-0x915.7 (2)
     |                                               |                |                  [2]{}: in 0x916-0x91d.7 (8)
0x910|                  04                           |      .         |                    if: 0x4 (valid) 0x916-0x916.7 (1)
0x910|                     7f                        |       .        |                    bt: "i32" (127) 0x917-0x917.7 (1)
     |                                               |                |                    in1[0:1]: 0x918-0x919.7 (2)
     |                                               |                |                      [0]{}: instr 0x918-0x919.7 (2)
0x910|                        41                     |        A       |                        i32.const: 0x41 (valid) 0x918-0x918.7 (1)
0x910|                           01                  |         .      |                        n: 1 0x919-0x919.7 (1)
0x910|                              05               |          .     |                    else: 0x5 (valid) 0x91a-0x91a.7 (1)
     |                                               |                |                    in2[0:1]: 0x91b-0x91c.7 (2)
     |                                               |                |                      [0]{}: instr 0x91b-0x91c.7 (2)
0x910|                                 41            |           A    |                        i32.const: 0x41 (valid) 0x91b-0x91b.7 (1)
0x910|                                    00         |            .   |                        n: 0 0x91c-0x91c.7 (1)
0x910|                                       0b      |             .  |                    end: 11 (valid) 0x91d-0x91d.7 (1)
     |                                               |                |                  [3]{}: in 0x91e-0x91e.7 (1)
0x910|                                          0b   |              . |                    end: 0xb (valid) 0x91e-0x91e.7 (1)
     |                                               |                |            [5]{}: code 0x91f-0x92e.7 (16)
0x910|                                             0f|               .|              size: 15 0x91f-0x91f.7 (1)
     |                                               |                |              code{}: 0x920-0x92e.7 (15)
     |                                               |                |                t{}: 0x920-0x920.7 (1)
0x920|00                                             |.               |                  n: 0 0x920-0x920.7 (1)
     |                                               |                |                  x[0:0]: 0x921-NA (0)
     |                                               |                |                e[0:4]: 0x921-0x92e.7 (14)
     |                                               |                |                  [0]{}: in 0x921-0x922.7 (2)
0x920|   20                                          |                |                    local.get: 0x20 (valid) 0x921-0x921.7 (1)
0x920|      00                                       |  .             |                    x: 0 0x922-0x922.7 (1)
     |                                               |                |                  [1]{}: in 0x923-0x925.7 (3)
0x920|         fd                                    |   .            |                    prefix: 0xfd (valid) 0x923-0x923.7 (1)
0x920|            a3 01                              |    ..          |                    i32x4.all_true: 163 (valid) 0x924-0x925.7 (2)
     |                                               |                |                  [2]{}: in 0x926-0x92d.7 (8)
0x920|                  04                           |      .         |                    if: 0x4 (valid) 0x926-0x926.7 (1)
0x920|                     7f                        |       .        |                    bt: "i32" (127) 0x927-0x927.7 (1)
     |                                               |                |                    in1[0:1]: 0x928-0x929.7 (2)
     |                                               |                |                      [0]{}: instr 0x928-0x929.7 (2)
0x920|                        41                     |        A       |                        i32.const: 0x41 (valid) 0x928-0x928.7 (1)
0x920|                           01                  |         .      |                        n: 1 0x929-0x929.7 (1)
0x920|                              05               |          .     |                    else: 0x5 (valid) 0x92a-0x92a.7 (1)
     |                                               |                |                    in2[0:1]: 0x92b-0x92c.7 (2)
     |                                               |                |                      [0]{}: instr 0x92b-0x92c.7 (2)
0x920|                                 41            |           A    |                        i32.const: 0x41 (valid) 0x92b-0x92b.7 (1)
0x920|                                    00         |            .   |                        n: 0 0x92c-0x92c.7 (1)
0x920|                                       0b      |             .  |                    end: 11 (valid) 0x92d-0x92d.7 (1)
     |                                               |                |                  [3]{}: in 0x92e-0x92e.7 (1)
0x920|                                          0b   |              . |                    end: 0xb (valid) 0x92e-0x92e.7 (1)
     |                                               |                |            [6]{}: code 0x92f-0x93a.7 (12)
0x920|                                             0b|               .|              size: 11 0x92f-0x92f.7 (1)
     |                                               |                |              code{}: 0x930-0x93a.7 (11)
     |                                               |                |                t{}: 0x930-0x930.7 (1)
0x930|00                                             |.               |                  n: 0 0x930-0x930.7 (1)
     |                                               |                |                  x[0:0]: 0x931-NA (0)
     |                                               |                |                e[0:6]: 0x931-0x93a.7 (10)
     |                                               |                |                  [0]{}: in 0x931-0x932.7 (2)
0x930|   41                                          | A              |                    i32.const: 0x41 (valid) 0x931-0x931.7 (1)
0x930|      01                                       |  .             |                    n: 1 0x932-0x932.7 (1)
     |                                               |                |                  [1]{}: in 0x933-0x934.7 (2)
0x930|         41                                    |   A            |                    i32.const: 0x41 (valid) 0x933-0x933.7 (1)
0x930|            00                                 |    .           |                    n: 0 0x934-0x934.7 (1)
     |                                               |                |                  [2]{}: in 0x935-0x936.7 (2)
0x930|               20                              |                |                    local.get: 0x20 (valid) 0x935-0x935.7 (1)
0x930|                  00                           |      .         |                    x: 0 0x936-0x936.7 (1)
     |                                               |                |                  [3]{}: in 0x937-0x938.7 (2)
0x930|                     fd                        |       .        |                    prefix: 0xfd (valid) 0x937-0x937.7 (1)
0x930|                        53                     |        S       |                    v128.any_true: 83 (valid) 0x938-0x938.7 (1)
     |                                               |                |                  [4]{}: in 0x939-0x939.7 (1)
0x930|                           1b                  |         .      |                    select: 0x1b (valid) 0x939-0x939.7 (1)
     |                                               |                |                  [5]{}: in 0x93a-0x93a.7 (1)
0x930|                              0b               |          .     |                    end: 0xb (valid) 0x93a-0x93a.7 (1)
     |                                               |                |            [7]{}: code 0x93b-0x946.7 (12)
0x930|                                 0b            |           .    |              size: 11 0x93b-0x93b.7 (1)
     |                                               |                |              code{}: 0x93c-0x946.7 (11)
     |                                               |                |                t{}: 0x93c-0x93c.7 (1)
0x930|                                    00         |            .   |                  n: 0 0x93c-0x93c.7 (1)
     |                                               |                |                  x[0:0]: 0x93d-NA (0)
     |                                               |                |                e[0:6]: 0x93d-0x946.7 (10)
     |                                               |                |                  [0]{}: in 0x93d-0x93e.7 (2)
0x930|                                       41      |             A  |                    i32.const: 0x41 (valid) 0x93d-0x93d.7 (1)
0x930|                                          01   |              . |                    n: 1 0x93e-0x93e.7 (1)
     |                                               |                |                  [1]{}: in 0x93f-0x940.7 (2)
0x930|                                             41|               A|                    i32.const: 0x41 (valid) 0x93f-0x93f.7 (1)
0x940|00                                             |.               |                    n: 0 0x940-0x940.7 (1)
     |                                               |                |                  [2]{}: in 0x941-0x942.7 (2)
0x940|   20                                          |                |                    local.get: 0x20 (valid) 0x941-0x941.7 (1)
0x940|      00                                       |  .             |                    x: 0 0x942-0x942.7 (1)
     |                                               |                |                  [3]{}: in 0x943-0x944.7 (2)
0x940|         fd                                    |   .            |                    prefix: 0xfd (valid) 0x943-0x943.7 (1)
0x940|            53                                 |    S           |                    v128.any_true: 83 (valid) 0x944-0x944.7 (1)
     |                                               |                |                  [4]{}: in 0x945-0x945.7 (1)
0x940|               1b                              |     .          |                    select: 0x1b (valid) 0x945-0x945.7 (1)
     |                                               |                |                  [5]{}: in 0x946-0x946.7 (1)
0x940|                  0b                           |      .         |                    end: 0xb (valid) 0x946-0x946.7 (1)
     |                                               |                |            [8]{}: code 0x947-0x952.7 (12)
0x940|                     0b                        |       .        |              size: 11 0x947-0x947.7 (1)
     |                                               |                |              code{}: 0x948-0x952.7 (11)
     |                                               |                |                t{}: 0x948-0x948.7 (1)
0x940|                        00                     |        .       |                  n: 0 0x948-0x948.7 (1)
     |                                               |                |                  x[0:0]: 0x949-NA (0)
     |                                               |                |                e[0:6]: 0x949-0x952.7 (10)
     |                                               |                |                  [0]{}: in 0x949-0x94a.7 (2)
0x940|                           41                  |         A      |                    i32.const: 0x41 (valid) 0x949-0x949.7 (1)
0x940|                              01               |          .     |                    n: 1 0x94a-0x94a.7 (1)
     |                                               |                |                  [1]{}: in 0x94b-0x94c.7 (2)
0x940|                                 41            |           A    |                    i32.const: 0x41 (valid) 0x94b-0x94b.7 (1)
0x940|                                    00         |            .   |                    n: 0 0x94c-0x94c.7 (1)
     |                                               |                |                  [2]{}: in 0x94d-0x94e.7 (2)
0x940|                                       20      |                |                    local.get: 0x20 (valid) 0x94d-0x94d.7 (1)
0x940|                                          00   |              . |                    x: 0 0x94e-0x94e.7 (1)
     |                                               |                |                  [3]{}: in 0x94f-0x950.7 (2)
0x940|                                             fd|               .|                    prefix: 0xfd (valid) 0x94f-0x94f.7 (1)
0x950|53                                             |S               |                    v128.any_true: 83 (valid) 0x950-0x950.7 (1)
     |                                               |                |                  [4]{}: in 0x951-0x951.7 (1)
0x950|   1b                                          | .              |                    select: 0x1b (valid) 0x951-0x951.7 (1)
     |                                               |                |                  [5]{}: in 0x952-0x952.7 (1)
0x950|      0b                                       |  .             |                    end: 0xb (valid) 0x952-0x952.7 (1)
     |                                               |                |            [9]{}: code 0x953-0x95e.7 (12)
0x950|         0b                                    |   .            |              size: 11 0x953-0x953.7 (1)
     |                                               |                |              code{}: 0x954-0x95e.7 (11)
     |                                               |                |                t{}: 0x954-0x954.7 (1)
0x950|            00                                 |    .           |                  n: 0 0x954-0x954.7 (1)
     |                                               |                |                  x[0:0]: 0x955-NA (0)
     |                                               |                |                e[0:6]: 0x955-0x95e.7 (10)
     |                                               |                |                  [0]{}: in 0x955-0x956.7 (2)
0x950|               41                              |     A          |                    i32.const: 0x41 (valid) 0x955-0x955.7 (1)
0x950|                  01                           |      .         |                    n: 1 0x956-0x956.7 (1)
     |                                               |                |                  [1]{}: in 0x957-0x958.7 (2)
0x950|                     41                        |       A        |                    i32.const: 0x41 (valid) 0x957-0x957.7 (1)
0x950|                        00                     |        .       |                    n: 0 0x958-0x958.7 (1)
     |                                               |                |                  [2]{}: in 0x959-0x95a.7 (2)
0x950|                           20                  |                |                    local.get: 0x20 (valid) 0x959-0x959.7 (1)
0x950|                              00               |          .     |                    x: 0 0x95a-0x95a.7 (1)
     |                                               |                |                  [3]{}: in 0x95b-0x95c.7 (2)
0x950|                                 fd            |           .    |                    prefix: 0xfd (valid) 0x95b-0x95b.7 (1)
0x950|                                    63         |            c   |                    i8x16.all_true: 99 (valid) 0x95c-0x95c.7 (1)
     |                                               |                |                  [4]{}: in 0x95d-0x95d.7 (1)
0x950|                                       1b      |             .  |                    select: 0x1b (valid) 0x95d-0x95d.7 (1)
     |                                               |                |                  [5]{}: in 0x95e-0x95e.7 (1)
0x950|                                          0b   |              . |                    end: 0xb (valid) 0x95e-0x95e.7 (1)
     |                                               |                |            [10]{}: code 0x95f-0x96b.7 (13)
0x950|                                             0c|               .|              size: 12 0x95f-0x95f.7 (1)
     |                                               |                |              code{}: 0x960-0x96b.7 (12)
     |                                               |                |                t{}: 0x960-0x960.7 (1)
0x960|00                                             |.               |                  n: 0 0x960-0x960.7 (1)
     |                                               |                |                  x[0:0]: 0x961-NA (0)
     |                                               |                |                e[0:6]: 0x961-0x96b.7 (11)
     |                                               |                |                  [0]{}: in 0x961-0x962.7 (2)
0x960|   41                                          | A              |                    i32.const: 0x41 (valid) 0x961-0x961.7 (1)
0x960|      01                                       |  .             |                    n: 1 0x962-0x962.7 (1)
     |                                               |                |                  [1]{}: in 0x963-0x964.7 (2)
0x960|         41                                    |   A            |                    i32.const: 0x41 (valid) 0x963-0x963.7 (1)
0x960|            00                                 |    .           |                    n: 0 0x964-0x964.7 (1)
     |                                               |                |                  [2]{}: in 0x965-0x966.7 (2)
0x960|               20                              |                |                    local.get: 0x20 (valid) 0x965-0x965.7 (1)
0x960|                  00                           |      .         |                    x: 0 0x966-0x966.7 (1)
     |                                               |                |                  [3]{}: in 0x967-0x969.7 (3)
0x960|                     fd                        |       .        |                    prefix: 0xfd (valid) 0x967-0x967.7 (1)
0x960|                        83 01                  |        ..      |                    i16x8.all_true: 131 (valid) 0x968-0x969.7 (2)
     |                                               |                |                  [4]{}: in 0x96a-0x96a.7 (1)
0x960|                              1b               |          .     |                    select: 0x1b (valid) 0x96a-0x96a.7 (1)
     |                                               |                |                  [5]{}: in 0x96b-0x96b.7 (1)
0x960|                                 0b            |           .    |                    end: 0xb (valid) 0x96b-0x96b.7 (1)
     |                                               |                |            [11]{}: code 0x96c-0x978.7 (13)
0x960|                                    0c         |            .   |              size: 12 0x96c-0x96c.7 (1)
     |                                               |                |              code{}: 0x96d-0x978.7 (12)
     |                                               |                |                t{}: 0x96d-0x96d.7 (1)
0x960|                                       00      |             .  |                  n: 0 0x96d-0x96d.7 (1)
     |                                               |                |                  x[0:0]: 0x96e-NA (0)
     |                                               |                |                e[0:6]: 0x96e-0x978.7 (11)
     |                                               |                |                  [0]{}: in 0x96e-0x96f.7 (2)
0x960|                                          41   |              A |                    i32.const: 0x41 (valid) 0x96e-0x96e.7 (1)
0x960|                                             01|               .|                    n: 1 0x96f-0x96f.7 (1)
     |                                               |                |                  [1]{}: in 0x970-0x971.7 (2)
0x970|41                                             |A               |                    i32.const: 0x41 (valid) 0x970-0x970.7 (1)
0x970|   00                                          | .              |                    n: 0 0x971-0x971.7 (1)
     |                                               |                |                  [2]{}: in 0x972-0x973.7 (2)
0x970|      20                                       |                |                    local.get: 0x20 (valid) 0x972-0x972.7 (1)
0x970|         00                                    |   .            |                    x: 0 0x973-0x973.7 (1)
     |                                               |                |                  [3]{}: in 0x974-0x976.7 (3)
0x970|            fd                                 |    .           |                    prefix: 0xfd (valid) 0x974-0x974.7 (1)
0x970|               a3 01                           |     ..         |                    i32x4.all_true: 163 (valid) 0x975-0x976.7 (2)
     |                                               |                |                  [4]{}: in 0x977-0x977.7 (1)
0x970|                     1b                        |       .        |                    select: 0x1b (valid) 0x977-0x977.7 (1)
     |                                               |                |                  [5]{}: in 0x978-0x978.7 (1)
0x970|                        0b                     |        .       |                    end: 0xb (valid) 0x978-0x978.7 (1)
     |                                               |                |            [12]{}: code 0x979-0x994.7 (28)
0x970|                           1b                  |         .      |              size: 27 0x979-0x979.7 (1)
     |                                               |                |              code{}: 0x97a-0x994.7 (27)
     |                                               |                |                t{}: 0x97a-0x97c.7 (3)
0x970|                              01               |          .     |                  n: 1 0x97a-0x97a.7 (1)
     |                                               |                |                  x[0:1]: 0x97b-0x97c.7 (2)
     |                                               |                |                    [0]{}: t 0x97b-0x97c.7 (2)
0x970|                                 01            |           .    |                      n: 1 0x97b-0x97b.7 (1)
0x970|                                    7f         |            .   |                      t: "i32" (0x7f) 0x97c-0x97c.7 (1)
     |                                               |                |                e[0:5]: 0x97d-0x994.7 (24)
     |                                               |                |                  [0]{}: in 0x97d-0x97e.7 (2)
0x970|                                       41      |             A  |                    i32.const: 0x41 (valid) 0x97d-0x97d.7 (1)
0x970|                                          02   |              . |                    n: 2 0x97e-0x97e.7 (1)
     |                                               |                |                  [1]{}: in 0x97f-0x980.7 (2)
0x970|                                             21|               !|                    local.set: 0x21 (valid) 0x97f-0x97f.7 (1)
0x980|01                                             |.               |                    x: 1 0x980-0x980.7 (1)
     |                                               |                |                  [2]{}: in 0x981-0x991.7 (17)
0x980|   02                                          | .              |                    block: 0x2 (valid) 0x981-0x981.7 (1)
0x980|      40                                       |  @             |                    bt: "ε" (64) 0x982-0x982.7 (1)
     |                                               |                |                    instructions[0:7]: 0x983-0x990.7 (14)
     |                                               |                |                      [0]{}: instr 0x983-0x984.7 (2)
0x980|         41                                    |   A            |                        i32.const: 0x41 (valid) 0x983-0x983.7 (1)
0x980|            01                                 |    .           |                        n: 1 0x984-0x984.7 (1)
     |                                               |                |                      [1]{}: instr 0x985-0x986.7 (2)
0x980|               21                              |     !          |                        local.set: 0x21 (valid) 0x985-0x985.7 (1)
0x980|                  01                           |      .         |                        x: 1 0x986-0x986.7 (1)
     |                                               |                |                      [2]{}: instr 0x987-0x988.7 (2)
0x980|                     20                        |                |                        local.get: 0x20 (valid) 0x987-0x987.7 (1)
0x980|                        00                     |        .       |                        x: 0 0x988-0x988.7 (1)
     |                                               |                |                      [3]{}: instr 0x989-0x98a.7 (2)
0x980|                           fd                  |         .      |                        prefix: 0xfd (valid) 0x989-0x989.7 (1)
0x980|                              53               |          S     |                        v128.any_true: 83 (valid) 0x98a-0x98a.7 (1)
     |                                               |                |                      [4]{}: instr 0x98b-0x98c.7 (2)
0x980|                                 0d            |           .    |                        br_if: 0xd (valid) 0x98b-0x98b.7 (1)
0x980|                                    00         |            .   |                        l: 0 0x98c-0x98c.7 (1)
     |                                               |                |                      [5]{}: instr 0x98d-0x98e.7 (2)
0x980|                                       41      |             A  |                        i32.const: 0x41 (valid) 0x98d-0x98d.7 (1)
0x980|                                          00   |              . |                        n: 0 0x98e-0x98e.7 (1)
     |                                               |                |                      [6]{}: instr 0x98f-0x990.7 (2)
0x980|                                             21|               !|                        local.set: 0x21 (valid) 0x98f-0x98f.7 (1)
0x990|01                                             |.               |                        x: 1 0x990-0x990.7 (1)
0x990|   0b                                          | .              |                    end: 11 (valid) 0x991-0x991.7 (1)
     |                                               |                |                  [3]{}: in 0x992-0x993.7 (2)
0x990|      20                                       |                |                    local.get: 0x20 (valid) 0x992-0x992.7 (1)
0x990|         01                                    |   .            |                    x: 1 0x993-0x993.7 (1)
     |                                               |                |                  [4]{}: in 0x994-0x994.7 (1)
0x990|            0b                                 |    .           |                    end: 0xb (valid) 0x994-0x994.7 (1)
     |                                               |                |            [13]{}: code 0x995-0x9b0.7 (28)
0x990|               1b                              |     .          |              size: 27 0x995-0x995.7 (1)
     |                                               |                |              code{}: 0x996-0x9b0.7 (27)
     |                                               |                |                t{}: 0x996-0x998.7 (3)
0x990|                  01                           |      .         |                  n: 1 0x996-0x996.7 (1)
     |                                               |                |                  x[0:1]: 0x997-0x998.7 (2)
     |                                               |                |                    [0]{}: t 0x997-0x998.7 (2)
0x990|                     01                        |       .        |                      n: 1 0x997-0x997.7 (1)
0x990|                        7f                     |        .       |                      t: "i32" (0x7f) 0x998-0x998.7 (1)
     |                                               |                |                e[0:5]: 0x999-0x9b0.7 (24)
     |                                               |                |                  [0]{}: in 0x999-0x99a.7 (2)
0x990|                           41                  |         A      |                    i32.const: 0x41 (valid) 0x999-0x999.7 (1)
0x990|                              02               |          .     |                    n: 2 0x99a-0x99a.7 (1)
     |                                               |                |                  [1]{}: in 0x99b-0x99c.7 (2)
0x990|                                 21            |           !    |                    local.set: 0x21 (valid) 0x99b-0x99b.7 (1)
0x990|                                    01         |            .   |                    x: 1 0x99c-0x99c.7 (1)
     |                                               |                |                  [2]{}: in 0x99d-0x9ad.7 (17)
0x990|                                       02      |             .  |                    block: 0x2 (valid) 0x99d-0x99d.7 (1)
0x990|                                          40   |              @ |                    bt: "ε" (64) 0x99e-0x99e.7 (1)
     |                                               |                |                    instructions[0:7]: 0x99f-0x9ac.7 (14)
     |                                               |                |                      [0]{}: instr 0x99f-0x9a0.7 (2)
0x990|                                             41|               A|                        i32.const: 0x41 (valid) 0x99f-0x99f.7 (1)
0x9a0|01                                             |.               |                        n: 1 0x9a0-0x9a0.7 (1)
     |                                               |                |                      [1]{}: instr 0x9a1-0x9a2.7 (2)
0x9a0|   21                                          | !              |                        local.set: 0x21 (valid) 0x9a1-0x9a1.7 (1)
0x9a0|      01                                       |  .             |                        x: 1 0x9a2-0x9a2.7 (1)
     |                                               |                |                      [2]{}: instr 0x9a3-0x9a4.7 (2)
0x9a0|         20                                    |                |                        local.get: 0x20 (valid) 0x9a3-0x9a3.7 (1)
0x9a0|            00                                 |    .           |                        x: 0 0x9a4-0x9a4.7 (1)
     |                                               |                |                      [3]{}: instr 0x9a5-0x9a6.7 (2)
0x9a0|               fd                              |     .          |                        prefix: 0xfd (valid) 0x9a5-0x9a5.7 (1)
0x9a0|                  53                           |      S         |                        v128.any_true: 83 (valid) 0x9a6-0x9a6.7 (1)
     |                                               |                |                      [4]{}: instr 0x9a7-0x9a8.7 (2)
0x9a0|                     0d                        |       .        |                        br_if: 0xd (valid) 0x9a7-0x9a7.7 (1)
0x9a0|                        00                     |        .       |                        l: 0 0x9a8-0x9a8.7 (1)
     |                                               |                |                      [5]{}: instr 0x9a9-0x9aa.7 (2)
0x9a0|                           41                  |         A      |                        i32.const: 0x41 (valid) 0x9a9-0x9a9.7 (1)
0x9a0|                              00               |          .     |                        n: 0 0x9aa-0x9aa.7 (1)
     |                                               |                |                      [6]{}: instr 0x9ab-0x9ac.7 (2)
0x9a0|                                 21            |           !    |                        local.set: 0x21 (valid) 0x9ab-0x9ab.7 (1)
0x9a0|                                    01         |            .   |                        x: 1 0x9ac-0x9ac.7 (1)
0x9a0|                                       0b      |             .  |                    end: 11 (valid) 0x9ad-0x9ad.7 (1)
     |                                               |                |                  [3]{}: in 0x9ae-0x9af.7 (2)
0x9a0|                                          20   |                |                    local.get: 0x20 (valid) 0x9ae-0x9ae.7 (1)
0x9a0|                                             01|               .|                    x: 1 0x9af-0x9af.7 (1)
     |                                               |                |                  [4]{}: in 0x9b0-0x9b0.7 (1)
0x9b0|0b                                             |.               |                    end: 0xb (valid) 0x9b0-0x9b0.7 (1)
     |                                               |                |            [14]{}: code 0x9b1-0x9cc.7 (28)
0x9b0|   1b                                          | .              |              size: 27 0x9b1-0x9b1.7 (1)
     |                                               |                |              code{}: 0x9b2-0x9cc.7 (27)
     |                                               |                |                t{}: 0x9b2-0x9b4.7 (3)
0x9b0|      01                                       |  .             |                  n: 1 0x9b2-0x9b2.7 (1)
     |                                               |                |                  x[0:1]: 0x9b3-0x9b4.7 (2)
     |                                               |                |                    [0]{}: t 0x9b3-0x9b4.7 (2)
0x9b0|         01                                    |   .            |                      n: 1 0x9b3-0x9b3.7 (1)
0x9b0|            7f                                 |    .           |                      t: "i32" (0x7f) 0x9b4-0x9b4.7 (1)
     |                                               |                |                e[0:5]: 0x9b5-0x9cc.7 (24)
     |                                               |                |                  [0]{}: in 0x9b5-0x9b6.7 (2)
0x9b0|               41                              |     A          |                    i32.const: 0x41 (valid) 0x9b5-0x9b5.7 (1)
0x9b0|                  02                           |      .         |                    n: 2 0x9b6-0x9b6.7 (1)
     |                                               |                |                  [1]{}: in 0x9b7-0x9b8.7 (2)
0x9b0|                     21                        |       !        |                    local.set: 0x21 (valid) 0x9b7-0x9b7.7 (1)
0x9b0|                        01                     |        .       |                    x: 1 0x9b8-0x9b8.7 (1)
     |                                               |                |                  [2]{}: in 0x9b9-0x9c9.7 (17)
0x9b0|                           02                  |         .      |                    block: 0x2 (valid) 0x9b9-0x9b9.7 (1)
0x9b0|                              40               |          @     |                    bt: "ε" (64) 0x9ba-0x9ba.7 (1)
     |                                               |                |                    instructions[0:7]: 0x9bb-0x9c8.7 (14)
     |                                               |                |                      [0]{}: instr 0x9bb-0x9bc.7 (2)
0x9b0|                                 41            |           A    |                        i32.const: 0x41 (valid) 0x9bb-0x9bb.7 (1)
0x9b0|                                    01         |            .   |                        n: 1 0x9bc-0x9bc.7 (1)
     |                                               |                |                      [1]{}: instr 0x9bd-0x9be.7 (2)
0x9b0|                                       21      |             !  |                        local.set: 0x21 (valid) 0x9bd-0x9bd.7 (1)
0x9b0|                                          01   |              . |                        x: 1 0x9be-0x9be.7 (1)
     |                                               |                |                      [2]{}: instr 0x9bf-0x9c0.7 (2)
0x9b0|                                             20|                |                        local.get: 0x20 (valid) 0x9bf-0x9bf.7 (1)
0x9c0|00                                             |.               |                        x: 0 0x9c0-0x9c0.7 (1)
     |                                               |                |                      [3]{}: instr 0x9c1-0x9c2.7 (2)
0x9c0|   fd                                          | .              |                        prefix: 0xfd (valid) 0x9c1-0x9c1.7 (1)
0x9c0|      53                                       |  S             |                        v128.any_true: 83 (valid) 0x9c2-0x9c2.7 (1)
     |                                               |                |                      [4]{}: instr 0x9c3-0x9c4.7 (2)
0x9c0|         0d                                    |   .            |                        br_if: 0xd (valid) 0x9c3-0x9c3.7 (1)
0x9c0|            00                                 |    .           |                        l: 0 0x9c4-0x9c4.7 (1)
     |                                               |                |                      [5]{}: instr 0x9c5-0x9c6.7 (2)
0x9c0|               41                              |     A          |                        i32.const: 0x41 (valid) 0x9c5-0x9c5.7 (1)
0x9c0|                  00                           |      .         |                        n: 0 0x9c6-0x9c6.7 (1)
     |                                               |                |                      [6]{}: instr 0x9c7-0x9c8.7 (2)
0x9c0|                     21                        |       !        |                        local.set: 0x21 (valid) 0x9c7-0x9c7.7 (1)
0x9c0|                        01                     |        .       |                        x: 1 0x9c8-0x9c8.7 (1)
0x9c0|                           0b                  |         .      |                    end: 11 (valid) 0x9c9-0x9c9.7 (1)
     |                                               |                |                  [3]{}: in 0x9ca-0x9cb.7 (2)
0x9c0|                              20               |                |                    local.get: 0x20 (valid) 0x9ca-0x9ca.7 (1)
0x9c0|                                 01            |           .    |                    x: 1 0x9cb-0x9cb.7 (1)
     |                                               |                |                  [4]{}: in 0x9cc-0x9cc.7 (1)
0x9c0|                                    0b         |            .   |                    end: 0xb (valid) 0x9cc-0x9cc.7 (1)
     |                                               |                |            [15]{}: code 0x9cd-0x9e8.7 (28)
0x9c0|                                       1b      |             .  |              size: 27 0x9cd-0x9cd.7 (1)
     |                                               |                |              code{}: 0x9ce-0x9e8.7 (27)
     |                                               |                |                t{}: 0x9ce-0x9d0.7 (3)
0x9c0|                                          01   |              . |                  n: 1 0x9ce-0x9ce.7 (1)
     |                                               |                |                  x[0:1]: 0x9cf-0x9d0.7 (2)
     |                                               |                |                    [0]{}: t 0x9cf-0x9d0.7 (2)
0x9c0|                                             01|               .|                      n: 1 0x9cf-0x9cf.7 (1)
0x9d0|7f                                             |.               |                      t: "i32" (0x7f) 0x9d0-0x9d0.7 (1)
     |                                               |                |                e[0:5]: 0x9d1-0x9e8.7 (24)
     |                                               |                |                  [0]{}: in 0x9d1-0x9d2.7 (2)
0x9d0|   41                                          | A              |                    i32.const: 0x41 (valid) 0x9d1-0x9d1.7 (1)
0x9d0|      02                                       |  .             |                    n: 2 0x9d2-0x9d2.7 (1)
     |                                               |                |                  [1]{}: in 0x9d3-0x9d4.7 (2)
0x9d0|         21                                    |   !            |                    local.set: 0x21 (valid) 0x9d3-0x9d3.7 (1)
0x9d0|            01                                 |    .           |                    x: 1 0x9d4-0x9d4.7 (1)
     |                                               |                |                  [2]{}: in 0x9d5-0x9e5.7 (17)
0x9d0|               02                              |     .          |                    block: 0x2 (valid) 0x9d5-0x9d5.7 (1)
0x9d0|                  40                           |      @         |                    bt: "ε" (64) 0x9d6-0x9d6.7 (1)
     |                                               |                |                    instructions[0:7]: 0x9d7-0x9e4.7 (14)
     |                                               |                |                      [0]{}: instr 0x9d7-0x9d8.7 (2)
0x9d0|                     41                        |       A        |                        i32.const: 0x41 (valid) 0x9d7-0x9d7.7 (1)
0x9d0|                        01                     |        .       |                        n: 1 0x9d8-0x9d8.7 (1)
     |                                               |                |                      [1]{}: instr 0x9d9-0x9da.7 (2)
0x9d0|                           21                  |         !      |                        local.set: 0x21 (valid) 0x9d9-0x9d9.7 (1)
0x9d0|                              01               |          .     |                        x: 1 0x9da-0x9da.7 (1)
     |                                               |                |                      [2]{}: instr 0x9db-0x9dc.7 (2)
0x9d0|                                 20            |                |                        local.get: 0x20 (valid) 0x9db-0x9db.7 (1)
0x9d0|                                    00         |            .   |                        x: 0 0x9dc-0x9dc.7 (1)
     |                                               |                |                      [3]{}: instr 0x9dd-0x9de.7 (2)
0x9d0|                                       fd      |             .  |                        prefix: 0xfd (valid) 0x9dd-0x9dd.7 (1)
0x9d0|                                          63   |              c |                        i8x16.all_true: 99 (valid) 0x9de-0x9de.7 (1)
     |                                               |                |                      [4]{}: instr 0x9df-0x9e0.7 (2)
0x9d0|                                             0d|               .|                        br_if: 0xd (valid) 0x9df-0x9df.7 (1)
0x9e0|00                                             |.               |                        l: 0 0x9e0-0x9e0.7 (1)
     |                                               |                |                      [5]{}: instr 0x9e1-0x9e2.7 (2)
0x9e0|   41                                          | A              |                        i32.const: 0x41 (valid) 0x9e1-0x9e1.7 (1)
0x9e0|      00                                       |  .             |                        n: 0 0x9e2-0x9e2.7 (1)
     |                                               |                |                      [6]{}: instr 0x9e3-0x9e4.7 (2)
0x9e0|         21                                    |   !            |                        local.set: 0x21 (valid) 0x9e3-0x9e3.7 (1)
0x9e0|            01                                 |    .           |                        x: 1 0x9e4-0x9e4.7 (1)
0x9e0|               0b                              |     .          |                    end: 11 (valid) 0x9e5-0x9e5.7 (1)
     |                                               |                |                  [3]{}: in 0x9e6-0x9e7.7 (2)
0x9e0|                  20                           |                |                    local.get: 0x20 (valid) 0x9e6-0x9e6.7 (1)
0x9e0|                     01                        |       .        |                    x: 1 0x9e7-0x9e7.7 (1)
     |                                               |                |                  [4]{}: in 0x9e8-0x9e8.7 (1)
0x9e0|                        0b                     |        .       |                    end: 0xb (valid) 0x9e8-0x9e8.7 (1)
     |                                               |                |            [16]{}: code 0x9e9-0xa05.7 (29)
0x9e0|                           1c                  |         .      |              size: 28 0x9e9-0x9e9.7 (1)
     |                                               |                |              code{}: 0x9ea-0xa05.7 (28)
     |                                               |                |                t{}: 0x9ea-0x9ec.7 (3)
0x9e0|                              01               |          .     |                  n: 1 0x9ea-0x9ea.7 (1)
     |                                               |                |                  x[0:1]: 0x9eb-0x9ec.7 (2)
     |                                               |                |                    [0]{}: t 0x9eb-0x9ec.7 (2)
0x9e0|                                 01            |           .    |                      n: 1 0x9eb-0x9eb.7 (1)
0x9e0|                                    7f         |            .   |                      t: "i32" (0x7f) 0x9ec-0x9ec.7 (1)
     |                                               |                |                e[0:5]: 0x9ed-0xa05.7 (25)
     |                                               |                |                  [0]{}: in 0x9ed-0x9ee.7 (2)
0x9e0|                                       41      |             A  |                    i32.const: 0x41 (valid) 0x9ed-0x9ed.7 (1)
0x9e0|                                          02   |              . |                    n: 2 0x9ee-0x9ee.7 (1)
     |                                               |                |                  [1]{}: in 0x9ef-0x9f0.7 (2)
0x9e0|                                             21|               !|                    local.set: 0x21 (valid) 0x9ef-0x9ef.7 (1)
0x9f0|01                                             |.               |                    x: 1 0x9f0-0x9f0.7 (1)
     |                                               |                |                  [2]{}: in 0x9f1-0xa02.7 (18)
0x9f0|   02                                          | .              |                    block: 0x2 (valid) 0x9f1-0x9f1.7 (1)
0x9f0|      40                                       |  @             |                    bt: "ε" (64) 0x9f2-0x9f2.7 (1)
     |                                               |                |                    instructions[0:7]: 0x9f3-0xa01.7 (15)
     |                                               |                |                      [0]{}: instr 0x9f3-0x9f4.7 (2)
0x9f0|         41                                    |   A            |                        i32.const: 0x41 (valid) 0x9f3-0x9f3.7 (1)
0x9f0|            01                                 |    .           |                        n: 1 0x9f4-0x9f4.7 (1)
     |                                               |                |                      [1]{}: instr 0x9f5-0x9f6.7 (2)
0x9f0|               21                              |     !          |                        local.set: 0x21 (valid) 0x9f5-0x9f5.7 (1)
0x9f0|                  01                           |      .         |                        x: 1 0x9f6-0x9f6.7 (1)
     |                                               |                |                      [2]{}: instr 0x9f7-0x9f8.7 (2)
0x9f0|                     20                        |                |                        local.get: 0x20 (valid) 0x9f7-0x9f7.7 (1)
0x9f0|                        00                     |        .       |                        x: 0 0x9f8-0x9f8.7 (1)
     |                                               |                |                      [3]{}: instr 0x9f9-0x9fb.7 (3)
0x9f0|                           fd                  |         .      |                        prefix: 0xfd (valid) 0x9f9-0x9f9.7 (1)
0x9f0|                              83 01            |          ..    |                        i16x8.all_true: 131 (valid) 0x9fa-0x9fb.7 (2)
     |                                               |                |                      [4]{}: instr 0x9fc-0x9fd.7 (2)
0x9f0|                                    0d         |            .   |                        br_if: 0xd (valid) 0x9fc-0x9fc.7 (1)
0x9f0|                                       00      |             .  |                        l: 0 0x9fd-0x9fd.7 (1)
     |                                               |                |                      [5]{}: instr 0x9fe-0x9ff.7 (2)
0x9f0|                                          41   |              A |                        i32.const: 0x41 (valid) 0x9fe-0x9fe.7 (1)
0x9f0|                                             00|               .|                        n: 0 0x9ff-0x9ff.7 (1)
     |                                               |                |                      [6]{}: instr 0xa00-0xa01.7 (2)
0xa00|21                                             |!               |                        local.set: 0x21 (valid) 0xa00-0xa00.7 (1)
0xa00|   01                                          | .              |                        x: 1 0xa01-0xa01.7 (1)
0xa00|      0b                                       |  .             |                    end: 11 (valid) 0xa02-0xa02.7 (1)
     |                                               |                |                  [3]{}: in 0xa03-0xa04.7 (2)
0xa00|         20                                    |                |                    local.get: 0x20 (valid) 0xa03-0xa03.7 (1)
0xa00|            01                                 |    .           |                    x: 1 0xa04-0xa04.7 (1)
     |                                               |                |                  [4]{}: in 0xa05-0xa05.7 (1)
0xa00|               0b                              |     .          |                    end: 0xb (valid) 0xa05-0xa05.7 (1)
     |                                               |                |            [17]{}: code 0xa06-0xa22.7 (29)
0xa00|                  1c                           |      .         |              size: 28 0xa06-0xa06.7 (1)
     |                                               |                |              code{}: 0xa07-0xa22.7 (28)
     |                                               |                |                t{}: 0xa07-0xa09.7 (3)
0xa00|                     01                        |       .        |                  n: 1 0xa07-0xa07.7 (1)
     |                                               |                |                  x[0:1]: 0xa08-0xa09.7 (2)
     |                                               |                |                    [0]{}: t 0xa08-0xa09.7 (2)
0xa00|                        01                     |        .       |                      n: 1 0xa08-0xa08.7 (1)
0xa00|                           7f                  |         .      |                      t: "i32" (0x7f) 0xa09-0xa09.7 (1)
     |                                               |                |                e[0:5]: 0xa0a-0xa22.7 (25)
     |                                               |                |                  [0]{}: in 0xa0a-0xa0b.7 (2)
0xa00|                              41               |          A     |                    i32.const: 0x41 (valid) 0xa0a-0xa0a.7 (1)
0xa00|                                 02            |           .    |                    n: 2 0xa0b-0xa0b.7 (1)
     |                                               |                |                  [1]{}: in 0xa0c-0xa0d.7 (2)
0xa00|                                    21         |            !   |                    local.set: 0x21 (valid) 0xa0c-0xa0c.7 (1)
0xa00|                                       01      |             .  |                    x: 1 0xa0d-0xa0d.7 (1)
     |                                               |                |                  [2]{}: in 0xa0e-0xa1f.7 (18)
0xa00|                                          02   |              . |                    block: 0x2 (valid) 0xa0e-0xa0e.7 (1)
0xa00|                                             40|               @|                    bt: "ε" (64) 0xa0f-0xa0f.7 (1)
     |                                               |                |                    instructions[0:7]: 0xa10-0xa1e.7 (15)
     |                                               |                |                      [0]{}: instr 0xa10-0xa11.7 (2)
0xa10|41                                             |A               |                        i32.const: 0x41 (valid) 0xa10-0xa10.7 (1)
0xa10|   01                                          | .              |                        n: 1 0xa11-0xa11.7 (1)
     |                                               |                |                      [1]{}: instr 0xa12-0xa13.7 (2)
0xa10|      21                                       |  !             |                        local.set: 0x21 (valid) 0xa12-0xa12.7 (1)
0xa10|         01                                    |   .            |                        x: 1 0xa13-0xa13.7 (1)
     |                                               |                |                      [2]{}: instr 0xa14-0xa15.7 (2)
0xa10|            20                                 |                |                        local.get: 0x20 (valid) 0xa14-0xa14.7 (1)
0xa10|               00                              |     .          |                        x: 0 0xa15-0xa15.7 (1)
     |                                               |                |                      [3]{}: instr 0xa16-0xa18.7 (3)
0xa10|                  fd                           |      .         |                        prefix: 0xfd (valid) 0xa16-0xa16.7 (1)
0xa10|                     a3 01                     |       ..       |                        i32x4.all_true: 163 (valid) 0xa17-0xa18.7 (2)
     |                                               |                |                      [4]{}: instr 0xa19-0xa1a.7 (2)
0xa10|                           0d                  |         .      |                        br_if: 0xd (valid) 0xa19-0xa19.7 (1)
0xa10|                              00               |          .     |                        l: 0 0xa1a-0xa1a.7 (1)
     |                                               |                |                      [5]{}: instr 0xa1b-0xa1c.7 (2)
0xa10|                                 41            |           A    |                        i32.const: 0x41 (valid) 0xa1b-0xa1b.7 (1)
0xa10|                                    00         |            .   |                        n: 0 0xa1c-0xa1c.7 (1)
     |                                               |                |                      [6]{}: instr 0xa1d-0xa1e.7 (2)
0xa10|                                       21      |             !  |                        local.set: 0x21 (valid) 0xa1d-0xa1d.7 (1)
0xa10|                                          01   |              . |                        x: 1 0xa1e-0xa1e.7 (1)
0xa10|                                             0b|               .|                    end: 11 (valid) 0xa1f-0xa1f.7 (1)
     |                                               |                |                  [3]{}: in 0xa20-0xa21.7 (2)
0xa20|20                                             |                |                    local.get: 0x20 (valid) 0xa20-0xa20.7 (1)
0xa20|   01                                          | .              |                    x: 1 0xa21-0xa21.7 (1)
     |                                               |                |                  [4]{}: in 0xa22-0xa22.7 (1)
0xa20|      0b                                       |  .             |                    end: 0xb (valid) 0xa22-0xa22.7 (1)
     |                                               |                |            [18]{}: code 0xa23-0xa2e.7 (12)
0xa20|         0b                                    |   .            |              size: 11 0xa23-0xa23.7 (1)
     |                                               |                |              code{}: 0xa24-0xa2e.7 (11)
     |                                               |                |                t{}: 0xa24-0xa24.7 (1)
0xa20|            00                                 |    .           |                  n: 0 0xa24-0xa24.7 (1)
     |                                               |                |                  x[0:0]: 0xa25-NA (0)
     |                                               |                |                e[0:6]: 0xa25-0xa2e.7 (10)
     |                                               |                |                  [0]{}: in 0xa25-0xa26.7 (2)
0xa20|               20                              |                |                    local.get: 0x20 (valid) 0xa25-0xa25.7 (1)
0xa20|                  00                           |      .         |                    x: 0 0xa26-0xa26.7 (1)
     |                                               |                |                  [1]{}: in 0xa27-0xa28.7 (2)
0xa20|                     fd                        |       .        |                    prefix: 0xfd (valid) 0xa27-0xa27.7 (1)
0xa20|                        53                     |        S       |                    v128.any_true: 83 (valid) 0xa28-0xa28.7 (1)
     |                                               |                |                  [2]{}: in 0xa29-0xa2a.7 (2)
0xa20|                           20                  |                |                    local.get: 0x20 (valid) 0xa29-0xa29.7 (1)
0xa20|                              01               |          .     |                    x: 1 0xa2a-0xa2a.7 (1)
     |                                               |                |                  [3]{}: in 0xa2b-0xa2c.7 (2)
0xa20|                                 fd            |           .    |                    prefix: 0xfd (valid) 0xa2b-0xa2b.7 (1)
0xa20|                                    53         |            S   |                    v128.any_true: 83 (valid) 0xa2c-0xa2c.7 (1)
     |                                               |                |                  [4]{}: in 0xa2d-0xa2d.7 (1)
0xa20|                                       71      |             q  |                    i32.and: 0x71 (valid) 0xa2d-0xa2d.7 (1)
     |                                               |                |                  [5]{}: in 0xa2e-0xa2e.7 (1)
0xa20|                                          0b   |              . |                    end: 0xb (valid) 0xa2e-0xa2e.7 (1)
     |                                               |                |            [19]{}: code 0xa2f-0xa3a.7 (12)
0xa20|                                             0b|               .|              size: 11 0xa2f-0xa2f.7 (1)
     |                                               |                |              code{}: 0xa30-0xa3a.7 (11)
     |                                               |                |                t{}: 0xa30-0xa30.7 (1)
0xa30|00                                             |.               |                  n: 0 0xa30-0xa30.7 (1)
     |                                               |                |                  x[0:0]: 0xa31-NA (0)
     |                                               |                |                e[0:6]: 0xa31-0xa3a.7 (10)
     |                                               |                |                  [0]{}: in 0xa31-0xa32.7 (2)
0xa30|   20                                          |                |                    local.get: 0x20 (valid) 0xa31-0xa31.7 (1)
0xa30|      00                                       |  .             |                    x: 0 0xa32-0xa32.7 (1)
     |                                               |                |                  [1]{}: in 0xa33-0xa34.7 (2)
0xa30|         fd                                    |   .            |                    prefix: 0xfd (valid) 0xa33-0xa33.7 (1)
0xa30|            53                                 |    S           |                    v128.any_true: 83 (valid) 0xa34-0xa34.7 (1)
     |                                               |                |                  [2]{}: in 0xa35-0xa36.7 (2)
0xa30|               20                              |                |                    local.get: 0x20 (valid) 0xa35-0xa35.7 (1)
0xa30|                  01                           |      .         |                    x: 1 0xa36-0xa36.7 (1)
     |                                               |                |                  [3]{}: in 0xa37-0xa38.7 (2)
0xa30|                     fd                        |       .        |                    prefix: 0xfd (valid) 0xa37-0xa37.7 (1)
0xa30|                        53                     |        S       |                    v128.any_true: 83 (valid) 0xa38-0xa38.7 (1)
     |                                               |                |                  [4]{}: in 0xa39-0xa39.7 (1)
0xa30|                           71                  |         q      |                    i32.and: 0x71 (valid) 0xa39-0xa39.7 (1)
     |                                               |                |                  [5]{}: in 0xa3a-0xa3a.7 (1)
0xa30|                              0b               |          .     |                    end: 0xb (valid) 0xa3a-0xa3a.7 (1)
     |                                               |                |            [20]{}: code 0xa3b-0xa46.7 (12)
0xa30|                                 0b            |           .    |              size: 11 0xa3b-0xa3b.7 (1)
     |                                               |                |              code{}: 0xa3c-0xa46.7 (11)
     |                                               |                |                t{}: 0xa3c-0xa3c.7 (1)
0xa30|                                    00         |            .   |                  n: 0 0xa3c-0xa3c.7 (1)
     |                                               |                |                  x[0:0]: 0xa3d-NA (0)
     |                                               |                |                e[0:6]: 0xa3d-0xa46.7 (10)
     |                                               |                |                  [0]{}: in 0xa3d-0xa3e.7 (2)
0xa30|                                       20      |                |                    local.get: 0x20 (valid) 0xa3d-0xa3d.7 (1)
0xa30|                                          00   |              . |                    x: 0 0xa3e-0xa3e.7 (1)
     |                                               |                |                  [1]{}: in 0xa3f-0xa40.7 (2)
0xa30|                                             fd|               .|                    prefix: 0xfd (valid) 0xa3f-0xa3f.7 (1)
0xa40|53                                             |S               |                    v128.any_true: 83 (valid) 0xa40-0xa40.7 (1)
     |                                               |                |                  [2]{}: in 0xa41-0xa42.7 (2)
0xa40|   20                                          |                |                    local.get: 0x20 (valid) 0xa41-0xa41.7 (1)
0xa40|      01                                       |  .             |                    x: 1 0xa42-0xa42.7 (1)
     |                                               |                |                  [3]{}: in 0xa43-0xa44.7 (2)
0xa40|         fd                                    |   .            |                    prefix: 0xfd (valid) 0xa43-0xa43.7 (1)
0xa40|            53                                 |    S           |                    v128.any_true: 83 (valid) 0xa44-0xa44.7 (1)
     |                                               |                |                  [4]{}: in 0xa45-0xa45.7 (1)
0xa40|               71                              |     q          |                    i32.and: 0x71 (valid) 0xa45-0xa45.7 (1)
     |                                               |                |                  [5]{}: in 0xa46-0xa46.7 (1)
0xa40|                  0b                           |      .         |                    end: 0xb (valid) 0xa46-0xa46.7 (1)
     |                                               |                |            [21]{}: code 0xa47-0xa52.7 (12)
0xa40|                     0b                        |       .        |              size: 11 0xa47-0xa47.7 (1)
     |                                               |                |              code{}: 0xa48-0xa52.7 (11)
     |                                               |                |                t{}: 0xa48-0xa48.7 (1)
0xa40|                        00                     |        .       |                  n: 0 0xa48-0xa48.7 (1)
     |                                               |                |                  x[0:0]: 0xa49-NA (0)
     |                                               |                |                e[0:6]: 0xa49-0xa52.7 (10)
     |                                               |                |                  [0]{}: in 0xa49-0xa4a.7 (2)
0xa40|                           20                  |                |                    local.get: 0x20 (valid) 0xa49-0xa49.7 (1)
0xa40|                              00               |          .     |                    x: 0 0xa4a-0xa4a.7 (1)
     |                                               |                |                  [1]{}: in 0xa4b-0xa4c.7 (2)
0xa40|                                 fd            |           .    |                    prefix: 0xfd (valid) 0xa4b-0xa4b.7 (1)
0xa40|                                    53         |            S   |                    v128.any_true: 83 (valid) 0xa4c-0xa4c.7 (1)
     |                                               |                |                  [2]{}: in 0xa4d-0xa4e.7 (2)
0xa40|                                       20      |                |                    local.get: 0x20 (valid) 0xa4d-0xa4d.7 (1)
0xa40|                                          01   |              . |                    x: 1 0xa4e-0xa4e.7 (1)
     |                                               |                |                  [3]{}: in 0xa4f-0xa50.7 (2)
0xa40|                                             fd|               .|                    prefix: 0xfd (valid) 0xa4f-0xa4f.7 (1)
0xa50|53                                             |S               |                    v128.any_true: 83 (valid) 0xa50-0xa50.7 (1)
     |                                               |                |                  [4]{}: in 0xa51-0xa51.7 (1)
0xa50|   72                                          | r              |                    i32.or: 0x72 (valid) 0xa51-0xa51.7 (1)
     |                                               |                |                  [5]{}: in 0xa52-0xa52.7 (1)
0xa50|      0b                                       |  .             |                    end: 0xb (valid) 0xa52-0xa52.7 (1)
     |                                               |                |            [22]{}: code 0xa53-0xa5e.7 (12)
0xa50|         0b                                    |   .            |              size: 11 0xa53-0xa53.7 (1)
     |                                               |                |              code{}: 0xa54-0xa5e.7 (11)
     |                                               |                |                t{}: 0xa54-0xa54.7 (1)
0xa50|            00                                 |    .           |                  n: 0 0xa54-0xa54.7 (1)
     |                                               |                |                  x[0:0]: 0xa55-NA (0)
     |                                               |                |                e[0:6]: 0xa55-0xa5e.7 (10)
     |                                               |                |                  [0]{}: in 0xa55-0xa56.7 (2)
0xa50|               20                              |                |                    local.get: 0x20 (valid) 0xa55-0xa55.7 (1)
0xa50|                  00                           |      .         |                    x: 0 0xa56-0xa56.7 (1)
     |                                               |                |                  [1]{}: in 0xa57-0xa58.7 (2)
0xa50|                     fd                        |       .        |                    prefix: 0xfd (valid) 0xa57-0xa57.7 (1)
0xa50|                        53                     |        S       |                    v128.any_true: 83 (valid) 0xa58-0xa58.7 (1)
     |                                               |                |                  [2]{}: in 0xa59-0xa5a.7 (2)
0xa50|                           20                  |                |                    local.get: 0x20 (valid) 0xa59-0xa59.7 (1)
0xa50|                              01               |          .     |                    x: 1 0xa5a-0xa5a.7 (1)
     |                                               |                |                  [3]{}: in 0xa5b-0xa5c.7 (2)
0xa50|                                 fd            |           .    |                    prefix: 0xfd (valid) 0xa5b-0xa5b.7 (1)
0xa50|                                    53         |            S   |                    v128.any_true: 83 (valid) 0xa5c-0xa5c.7 (1)
     |                                               |                |                  [4]{}: in 0xa5d-0xa5d.7 (1)
0xa50|                                       72      |             r  |                    i32.or: 0x72 (valid) 0xa5d-0xa5d.7 (1)
     |                                               |                |                  [5]{}: in 0xa5e-0xa5e.7 (1)
0xa50|                                          0b   |              . |                    end: 0xb (valid) 0xa5e-0xa5e.7 (1)
     |                                               |                |            [23]{}: code 0xa5f-0xa6a.7 (12)
0xa50|                                             0b|               .|              size: 11 0xa5f-0xa5f.7 (1)
     |                                               |                |              code{}: 0xa60-0xa6a.7 (11)
     |                                               |                |                t{}: 0xa60-0xa60.7 (1)
0xa60|00                                             |.               |                  n: 0 0xa60-0xa60.7 (1)
     |                                               |                |                  x[0:0]: 0xa61-NA (0)
     |                                               |                |                e[0:6]: 0xa61-0xa6a.7 (10)
     |                                               |                |                  [0]{}: in 0xa61-0xa62.7 (2)
0xa60|   20                                          |                |                    local.get: 0x20 (valid) 0xa61-0xa61.7 (1)
0xa60|      00                                       |  .             |                    x: 0 0xa62-0xa62.7 (1)
     |                                               |                |                  [1]{}: in 0xa63-0xa64.7 (2)
0xa60|         fd                                    |   .            |                    prefix: 0xfd (valid) 0xa63-0xa63.7 (1)
0xa60|            53                                 |    S           |                    v128.any_true: 83 (valid) 0xa64-0xa64.7 (1)
     |                                               |                |                  [2]{}: in 0xa65-0xa66.7 (2)
0xa60|               20                              |                |                    local.get: 0x20 (valid) 0xa65-0xa65.7 (1)
0xa60|                  01                           |      .         |                    x: 1 0xa66-0xa66.7 (1)
     |                                               |                |                  [3]{}: in 0xa67-0xa68.7 (2)
0xa60|                     fd                        |       .        |                    prefix: 0xfd (valid) 0xa67-0xa67.7 (1)
0xa60|                        53                     |        S       |                    v128.any_true: 83 (valid) 0xa68-0xa68.7 (1)
     |                                               |                |                  [4]{}: in 0xa69-0xa69.7 (1)
0xa60|                           72                  |         r      |                    i32.or: 0x72 (valid) 0xa69-0xa69.7 (1)
     |                                               |                |                  [5]{}: in 0xa6a-0xa6a.7 (1)
0xa60|                              0b               |          .     |                    end: 0xb (valid) 0xa6a-0xa6a.7 (1)
     |                                               |                |            [24]{}: code 0xa6b-0xa76.7 (12)
0xa60|                                 0b            |           .    |              size: 11 0xa6b-0xa6b.7 (1)
     |                                               |                |              code{}: 0xa6c-0xa76.7 (11)
     |                                               |                |                t{}: 0xa6c-0xa6c.7 (1)
0xa60|                                    00         |            .   |                  n: 0 0xa6c-0xa6c.7 (1)
     |                                               |                |                  x[0:0]: 0xa6d-NA (0)
     |                                               |                |                e[0:6]: 0xa6d-0xa76.7 (10)
     |                                               |                |                  [0]{}: in 0xa6d-0xa6e.7 (2)
0xa60|                                       20      |                |                    local.get: 0x20 (valid) 0xa6d-0xa6d.7 (1)
0xa60|                                          00   |              . |                    x: 0 0xa6e-0xa6e.7 (1)
     |                                               |                |                  [1]{}: in 0xa6f-0xa70.7 (2)
0xa60|                                             fd|               .|                    prefix: 0xfd (valid) 0xa6f-0xa6f.7 (1)
0xa70|53                                             |S               |                    v128.any_true: 83 (valid) 0xa70-0xa70.7 (1)
     |                                               |                |                  [2]{}: in 0xa71-0xa72.7 (2)
0xa70|   20                                          |                |                    local.get: 0x20 (valid) 0xa71-0xa71.7 (1)
0xa70|      01                                       |  .             |                    x: 1 0xa72-0xa72.7 (1)
     |                                               |                |                  [3]{}: in 0xa73-0xa74.7 (2)
0xa70|         fd                                    |   .            |                    prefix: 0xfd (valid) 0xa73-0xa73.7 (1)
0xa70|            53                                 |    S           |                    v128.any_true: 83 (valid) 0xa74-0xa74.7 (1)
     |                                               |                |                  [4]{}: in 0xa75-0xa75.7 (1)
0xa70|               73                              |     s          |                    i32.xor: 0x73 (valid) 0xa75-0xa75.7 (1)
     |                                               |                |                  [5]{}: in 0xa76-0xa76.7 (1)
0xa70|                  0b                           |      .         |                    end: 0xb (valid) 0xa76-0xa76.7 (1)
     |                                               |                |            [25]{}: code 0xa77-0xa82.7 (12)
0xa70|                     0b                        |       .        |              size: 11 0xa77-0xa77.7 (1)
     |                                               |                |              code{}: 0xa78-0xa82.7 (11)
     |                                               |                |                t{}: 0xa78-0xa78.7 (1)
0xa70|                        00                     |        .       |                  n: 0 0xa78-0xa78.7 (1)
     |                                               |                |                  x[0:0]: 0xa79-NA (0)
     |                                               |                |                e[0:6]: 0xa79-0xa82.7 (10)
     |                                               |                |                  [0]{}: in 0xa79-0xa7a.7 (2)
0xa70|                           20                  |                |                    local.get: 0x20 (valid) 0xa79-0xa79.7 (1)
0xa70|                              00               |          .     |                    x: 0 0xa7a-0xa7a.7 (1)
     |                                               |                |                  [1]{}: in 0xa7b-0xa7c.7 (2)
0xa70|                                 fd            |           .    |                    prefix: 0xfd (valid) 0xa7b-0xa7b.7 (1)
0xa70|                                    53         |            S   |                    v128.any_true: 83 (valid) 0xa7c-0xa7c.7 (1)
     |                                               |                |                  [2]{}: in 0xa7d-0xa7e.7 (2)
0xa70|                                       20      |                |                    local.get: 0x20 (valid) 0xa7d-0xa7d.7 (1)
0xa70|                                          01   |              . |                    x: 1 0xa7e-0xa7e.7 (1)
     |                                               |                |                  [3]{}: in 0xa7f-0xa80.7 (2)
0xa70|                                             fd|               .|                    prefix: 0xfd (valid) 0xa7f-0xa7f.7 (1)
0xa80|53                                             |S               |                    v128.any_true: 83 (valid) 0xa80-0xa80.7 (1)
     |                                               |                |                  [4]{}: in 0xa81-0xa81.7 (1)
0xa80|   73                                          | s              |                    i32.xor: 0x73 (valid) 0xa81-0xa81.7 (1)
     |                                               |                |                  [5]{}: in 0xa82-0xa82.7 (1)
0xa80|      0b                                       |  .             |                    end: 0xb (valid) 0xa82-0xa82.7 (1)
     |                                               |                |            [26]{}: code 0xa83-0xa8e.7 (12)
0xa80|         0b                                    |   .            |              size: 11 0xa83-0xa83.7 (1)
     |                                               |                |              code{}: 0xa84-0xa8e.7 (11)
     |                                               |                |                t{}: 0xa84-0xa84.7 (1)
0xa80|            00                                 |    .           |                  n: 0 0xa84-0xa84.7 (1)
     |                                               |                |                  x[0:0]: 0xa85-NA (0)
     |                                               |                |                e[0:6]: 0xa85-0xa8e.7 (10)
     |                                               |                |                  [0]{}: in 0xa85-0xa86.7 (2)
0xa80|               20                              |                |                    local.get: 0x20 (valid) 0xa85-0xa85.7 (1)
0xa80|                  00                           |      .         |                    x: 0 0xa86-0xa86.7 (1)
     |                                               |                |                  [1]{}: in 0xa87-0xa88.7 (2)
0xa80|                     fd                        |       .        |                    prefix: 0xfd (valid) 0xa87-0xa87.7 (1)
0xa80|                        53                     |        S       |                    v128.any_true: 83 (valid) 0xa88-0xa88.7 (1)
     |                                               |                |                  [2]{}: in 0xa89-0xa8a.7 (2)
0xa80|                           20                  |                |                    local.get: 0x20 (valid) 0xa89-0xa89.7 (1)
0xa80|                              01               |          .     |                    x: 1 0xa8a-0xa8a.7 (1)
     |                                               |                |                  [3]{}: in 0xa8b-0xa8c.7 (2)
0xa80|                                 fd            |           .    |                    prefix: 0xfd (valid) 0xa8b-0xa8b.7 (1)
0xa80|                                    53         |            S   |                    v128.any_true: 83 (valid) 0xa8c-0xa8c.7 (1)
     |                                               |                |                  [4]{}: in 0xa8d-0xa8d.7 (1)
0xa80|                                       73      |             s  |                    i32.xor: 0x73 (valid) 0xa8d-0xa8d.7 (1)
     |                                               |                |                  [5]{}: in 0xa8e-0xa8e.7 (1)
0xa80|                                          0b   |              . |                    end: 0xb (valid) 0xa8e-0xa8e.7 (1)
     |                                               |                |            [27]{}: code 0xa8f-0xa9a.7 (12)
0xa80|                                             0b|               .|              size: 11 0xa8f-0xa8f.7 (1)
     |                                               |                |              code{}: 0xa90-0xa9a.7 (11)
     |                                               |                |                t{}: 0xa90-0xa90.7 (1)
0xa90|00                                             |.               |                  n: 0 0xa90-0xa90.7 (1)
     |                                               |                |                  x[0:0]: 0xa91-NA (0)
     |                                               |                |                e[0:6]: 0xa91-0xa9a.7 (10)
     |                                               |                |                  [0]{}: in 0xa91-0xa92.7 (2)
0xa90|   20                                          |                |                    local.get: 0x20 (valid) 0xa91-0xa91.7 (1)
0xa90|      00                                       |  .             |                    x: 0 0xa92-0xa92.7 (1)
     |                                               |                |                  [1]{}: in 0xa93-0xa94.7 (2)
0xa90|         fd                                    |   .            |                    prefix: 0xfd (valid) 0xa93-0xa93.7 (1)
0xa90|            63                                 |    c           |                    i8x16.all_true: 99 (valid) 0xa94-0xa94.7 (1)
     |                                               |                |                  [2]{}: in 0xa95-0xa96.7 (2)
0xa90|               20                              |                |                    local.get: 0x20 (valid) 0xa95-0xa95.7 (1)
0xa90|                  01                           |      .         |                    x: 1 0xa96-0xa96.7 (1)
     |                                               |                |                  [3]{}: in 0xa97-0xa98.7 (2)
0xa90|                     fd                        |       .        |                    prefix: 0xfd (valid) 0xa97-0xa97.7 (1)
0xa90|                        63                     |        c       |                    i8x16.all_true: 99 (valid) 0xa98-0xa98.7 (1)
     |                                               |                |                  [4]{}: in 0xa99-0xa99.7 (1)
0xa90|                           71                  |         q      |                    i32.and: 0x71 (valid) 0xa99-0xa99.7 (1)
     |                                               |                |                  [5]{}: in 0xa9a-0xa9a.7 (1)
0xa90|                              0b               |          .     |                    end: 0xb (valid) 0xa9a-0xa9a.7 (1)
     |                                               |                |            [28]{}: code 0xa9b-0xaa8.7 (14)
0xa90|                                 0d            |           .    |              size: 13 0xa9b-0xa9b.7 (1)
     |                                               |                |              code{}: 0xa9c-0xaa8.7 (13)
     |                                               |                |                t{}: 0xa9c-0xa9c.7 (1)
0xa90|                                    00         |            .   |                  n: 0 0xa9c-0xa9c.7 (1)
     |                                               |                |                  x[0:0]: 0xa9d-NA (0)
     |                                               |                |                e[0:6]: 0xa9d-0xaa8.7 (12)
     |                                               |                |                  [0]{}: in 0xa9d-0xa9e.7 (2)
0xa90|                                       20      |                |                    local.get: 0x20 (valid) 0xa9d-0xa9d.7 (1)
0xa90|                                          00   |              . |                    x: 0 0xa9e-0xa9e.7 (1)
     |                                               |                |                  [1]{}: in 0xa9f-0xaa1.7 (3)
0xa90|                                             fd|               .|                    prefix: 0xfd (valid) 0xa9f-0xa9f.7 (1)
0xaa0|83 01                                          |..              |                    i16x8.all_true: 131 (valid) 0xaa0-0xaa1.7 (2)
     |                                               |                |                  [2]{}: in 0xaa2-0xaa3.7 (2)
0xaa0|      20                                       |                |                    local.get: 0x20 (valid) 0xaa2-0xaa2.7 (1)
0xaa0|         01                                    |   .            |                    x: 1 0xaa3-0xaa3.7 (1)
     |                                               |                |                  [3]{}: in 0xaa4-0xaa6.7 (3)
0xaa0|            fd                                 |    .           |                    prefix: 0xfd (valid) 0xaa4-0xaa4.7 (1)
0xaa0|               83 01                           |     ..         |                    i16x8.all_true: 131 (valid) 0xaa5-0xaa6.7 (2)
     |                                               |                |                  [4]{}: in 0xaa7-0xaa7.7 (1)
0xaa0|                     71                        |       q        |                    i32.and: 0x71 (valid) 0xaa7-0xaa7.7 (1)
     |                                               |                |                  [5]{}: in 0xaa8-0xaa8.7 (1)
0xaa0|                        0b                     |        .       |                    end: 0xb (valid) 0xaa8-0xaa8.7 (1)
     |                                               |                |            [29]{}: code 0xaa9-0xab6.7 (14)
0xaa0|                           0d                  |         .      |              size: 13 0xaa9-0xaa9.7 (1)
     |                                               |                |              code{}: 0xaaa-0xab6.7 (13)
     |                                               |                |                t{}: 0xaaa-0xaaa.7 (1)
0xaa0|                              00               |          .     |                  n: 0 0xaaa-0xaaa.7 (1)
     |                                               |                |                  x[0:0]: 0xaab-NA (0)
     |                                               |                |                e[0:6]: 0xaab-0xab6.7 (12)
     |                                               |                |                  [0]{}: in 0xaab-0xaac.7 (2)
0xaa0|                                 20            |                |                    local.get: 0x20 (valid) 0xaab-0xaab.7 (1)
0xaa0|                                    00         |            .   |                    x: 0 0xaac-0xaac.7 (1)
     |                                               |                |                  [1]{}: in 0xaad-0xaaf.7 (3)
0xaa0|                                       fd      |             .  |                    prefix: 0xfd (valid) 0xaad-0xaad.7 (1)
0xaa0|                                          a3 01|              ..|                    i32x4.all_true: 163 (valid) 0xaae-0xaaf.7 (2)
     |                                               |                |                  [2]{}: in 0xab0-0xab1.7 (2)
0xab0|20                                             |                |                    local.get: 0x20 (valid) 0xab0-0xab0.7 (1)
0xab0|   01                                          | .              |                    x: 1 0xab1-0xab1.7 (1)
     |                                               |                |                  [3]{}: in 0xab2-0xab4.7 (3)
0xab0|      fd                                       |  .             |                    prefix: 0xfd (valid) 0xab2-0xab2.7 (1)
0xab0|         a3 01                                 |   ..           |                    i32x4.all_true: 163 (valid) 0xab3-0xab4.7 (2)
     |                                               |                |                  [4]{}: in 0xab5-0xab5.7 (1)
0xab0|               71                              |     q          |                    i32.and: 0x71 (valid) 0xab5-0xab5.7 (1)
     |                                               |                |                  [5]{}: in 0xab6-0xab6.7 (1)
0xab0|                  0b                           |      .         |                    end: 0xb (valid) 0xab6-0xab6.7 (1)
     |                                               |                |            [30]{}: code 0xab7-0xac2.7 (12)
0xab0|                     0b                        |       .        |              size: 11 0xab7-0xab7.7 (1)
     |                                               |                |              code{}: 0xab8-0xac2.7 (11)
     |                                               |                |                t{}: 0xab8-0xab8.7 (1)
0xab0|                        00                     |        .       |                  n: 0 0xab8-0xab8.7 (1)
     |                                               |                |                  x[0:0]: 0xab9-NA (0)
     |                                               |                |                e[0:6]: 0xab9-0xac2.7 (10)
     |                                               |                |                  [0]{}: in 0xab9-0xaba.7 (2)
0xab0|                           20                  |                |                    local.get: 0x20 (valid) 0xab9-0xab9.7 (1)
0xab0|                              00               |          .     |                    x: 0 0xaba-0xaba.7 (1)
     |                                               |                |                  [1]{}: in 0xabb-0xabc.7 (2)
0xab0|                                 fd            |           .    |                    prefix: 0xfd (valid) 0xabb-0xabb.7 (1)
0xab0|                                    63         |            c   |                    i8x16.all_true: 99 (valid) 0xabc-0xabc.7 (1)
     |                                               |                |                  [2]{}: in 0xabd-0xabe.7 (2)
0xab0|                                       20      |                |                    local.get: 0x20 (valid) 0xabd-0xabd.7 (1)
0xab0|                                          01   |              . |                    x: 1 0xabe-0xabe.7 (1)
     |                                               |                |                  [3]{}: in 0xabf-0xac0.7 (2)
0xab0|                                             fd|               .|                    prefix: 0xfd (valid) 0xabf-0xabf.7 (1)
0xac0|63                                             |c               |                    i8x16.all_true: 99 (valid) 0xac0-0xac0.7 (1)
     |                                               |                |                  [4]{}: in 0xac1-0xac1.7 (1)
0xac0|   72                                          | r              |                    i32.or: 0x72 (valid) 0xac1-0xac1.7 (1)
     |                                               |                |                  [5]{}: in 0xac2-0xac2.7 (1)
0xac0|      0b                                       |  .             |                    end: 0xb (valid) 0xac2-0xac2.7 (1)
     |                                               |                |            [31]{}: code 0xac3-0xad0.7 (14)
0xac0|         0d                                    |   .            |              size: 13 0xac3-0xac3.7 (1)
     |                                               |                |              code{}: 0xac4-0xad0.7 (13)
     |                                               |                |                t{}: 0xac4-0xac4.7 (1)
0xac0|            00                                 |    .           |                  n: 0 0xac4-0xac4.7 (1)
     |                                               |                |                  x[0:0]: 0xac5-NA (0)
     |                                               |                |                e[0:6]: 0xac5-0xad0.7 (12)
     |                                               |                |                  [0]{}: in 0xac5-0xac6.7 (2)
0xac0|               20                              |                |                    local.get: 0x20 (valid) 0xac5-0xac5.7 (1)
0xac0|                  00                           |      .         |                    x: 0 0xac6-0xac6.7 (1)
     |                                               |                |                  [1]{}: in 0xac7-0xac9.7 (3)
0xac0|                     fd                        |       .        |                    prefix: 0xfd (valid) 0xac7-0xac7.7 (1)
0xac0|                        83 01                  |        ..      |                    i16x8.all_true: 131 (valid) 0xac8-0xac9.7 (2)
     |                                               |                |                  [2]{}: in 0xaca-0xacb.7 (2)
0xac0|                              20               |                |                    local.get: 0x20 (valid) 0xaca-0xaca.7 (1)
0xac0|                                 01            |           .    |                    x: 1 0xacb-0xacb.7 (1)
     |                                               |                |                  [3]{}: in 0xacc-0xace.7 (3)
0xac0|                                    fd         |            .   |                    prefix: 0xfd (valid) 0xacc-0xacc.7 (1)
0xac0|                                       83 01   |             .. |                    i16x8.all_true: 131 (valid) 0xacd-0xace.7 (2)
     |                                               |                |                  [4]{}: in 0xacf-0xacf.7 (1)
0xac0|                                             72|               r|                    i32.or: 0x72 (valid) 0xacf-0xacf.7 (1)
     |                                               |                |                  [5]{}: in 0xad0-0xad0.7 (1)
0xad0|0b                                             |.               |                    end: 0xb (valid) 0xad0-0xad0.7 (1)
     |                                               |                |            [32]{}: code 0xad1-0xade.7 (14)
0xad0|   0d                                          | .              |              size: 13 0xad1-0xad1.7 (1)
     |                                               |                |              code{}: 0xad2-0xade.7 (13)
     |                                               |                |                t{}: 0xad2-0xad2.7 (1)
0xad0|      00                                       |  .             |                  n: 0 0xad2-0xad2.7 (1)
     |                                               |                |                  x[0:0]: 0xad3-NA (0)
     |                                               |                |                e[0:6]: 0xad3-0xade.7 (12)
     |                                               |                |                  [0]{}: in 0xad3-0xad4.7 (2)
0xad0|         20                                    |                |                    local.get: 0x20 (valid) 0xad3-0xad3.7 (1)
0xad0|            00                                 |    .           |                    x: 0 0xad4-0xad4.7 (1)
     |                                               |                |                  [1]{}: in 0xad5-0xad7.7 (3)
0xad0|               fd                              |     .          |                    prefix: 0xfd (valid) 0xad5-0xad5.7 (1)
0xad0|                  a3 01                        |      ..        |                    i32x4.all_true: 163 (valid) 0xad6-0xad7.7 (2)
     |                                               |                |                  [2]{}: in 0xad8-0xad9.7 (2)
0xad0|                        20                     |                |                    local.get: 0x20 (valid) 0xad8-0xad8.7 (1)
0xad0|                           01                  |         .      |                    x: 1 0xad9-0xad9.7 (1)
     |                                               |                |                  [3]{}: in 0xada-0xadc.7 (3)
0xad0|                              fd               |          .     |                    prefix: 0xfd (valid) 0xada-0xada.7 (1)
0xad0|                                 a3 01         |           ..   |                    i32x4.all_true: 163 (valid) 0xadb-0xadc.7 (2)
     |                                               |                |                  [4]{}: in 0xadd-0xadd.7 (1)
0xad0|                                       72      |             r  |                    i32.or: 0x72 (valid) 0xadd-0xadd.7 (1)
     |                                               |                |                  [5]{}: in 0xade-0xade.7 (1)
0xad0|                                          0b   |              . |                    end: 0xb (valid) 0xade-0xade.7 (1)
     |                                               |                |            [33]{}: code 0xadf-0xaea.7 (12)
0xad0|                                             0b|               .|              size: 11 0xadf-0xadf.7 (1)
     |                                               |                |              code{}: 0xae0-0xaea.7 (11)
     |                                               |                |                t{}: 0xae0-0xae0.7 (1)
0xae0|00                                             |.               |                  n: 0 0xae0-0xae0.7 (1)
     |                                               |                |                  x[0:0]: 0xae1-NA (0)
     |                                               |                |                e[0:6]: 0xae1-0xaea.7 (10)
     |                                               |                |                  [0]{}: in 0xae1-0xae2.7 (2)
0xae0|   20                                          |                |                    local.get: 0x20 (valid) 0xae1-0xae1.7 (1)
0xae0|      00                                       |  .             |                    x: 0 0xae2-0xae2.7 (1)
     |                                               |                |                  [1]{}: in 0xae3-0xae4.7 (2)
0xae0|         fd                                    |   .            |                    prefix: 0xfd (valid) 0xae3-0xae3.7 (1)
0xae0|            63                                 |    c           |                    i8x16.all_true: 99 (valid) 0xae4-0xae4.7 (1)
     |                                               |                |                  [2]{}: in 0xae5-0xae6.7 (2)
0xae0|               20                              |                |                    local.get: 0x20 (valid) 0xae5-0xae5.7 (1)
0xae0|                  01                           |      .         |                    x: 1 0xae6-0xae6.7 (1)
     |                                               |                |                  [3]{}: in 0xae7-0xae8.7 (2)
0xae0|                     fd                        |       .        |                    prefix: 0xfd (valid) 0xae7-0xae7.7 (1)
0xae0|                        63                     |        c       |                    i8x16.all_true: 99 (valid) 0xae8-0xae8.7 (1)
     |                                               |                |                  [4]{}: in 0xae9-0xae9.7 (1)
0xae0|                           73                  |         s      |                    i32.xor: 0x73 (valid) 0xae9-0xae9.7 (1)
     |                                               |                |                  [5]{}: in 0xaea-0xaea.7 (1)
0xae0|                              0b               |          .     |                    end: 0xb (valid) 0xaea-0xaea.7 (1)
     |                                               |                |            [34]{}: code 0xaeb-0xaf8.7 (14)
0xae0|                                 0d            |           .    |              size: 13 0xaeb-0xaeb.7 (1)
     |                                               |                |              code{}: 0xaec-0xaf8.7 (13)
     |                                               |                |                t{}: 0xaec-0xaec.7 (1)
0xae0|                                    00         |            .   |                  n: 0 0xaec-0xaec.7 (1)
     |                                               |                |                  x[0:0]: 0xaed-NA (0)
     |                                               |                |                e[0:6]: 0xaed-0xaf8.7 (12)
     |                                               |                |                  [0]{}: in 0xaed-0xaee.7 (2)
0xae0|                                       20      |                |                    local.get: 0x20 (valid) 0xaed-0xaed.7 (1)
0xae0|                                          00   |              . |                    x: 0 0xaee-0xaee.7 (1)
     |                                               |                |                  [1]{}: in 0xaef-0xaf1.7 (3)
0xae0|                                             fd|               .|                    prefix: 0xfd (valid) 0xaef-0xaef.7 (1)
0xaf0|83 01                                          |..              |                    i16x8.all_true: 131 (valid) 0xaf0-0xaf1.7 (2)
     |                                               |                |                  [2]{}: in 0xaf2-0xaf3.7 (2)
0xaf0|      20                                       |                |                    local.get: 0x20 (valid) 0xaf2-0xaf2.7 (1)
0xaf0|         01                                    |   .            |                    x: 1 0xaf3-0xaf3.7 (1)
     |                                               |                |                  [3]{}: in 0xaf4-0xaf6.7 (3)
0xaf0|            fd                                 |    .           |                    prefix: 0xfd (valid) 0xaf4-0xaf4.7 (1)
0xaf0|               83 01                           |     ..         |                    i16x8.all_true: 131 (valid) 0xaf5-0xaf6.7 (2)
     |                                               |                |                  [4]{}: in 0xaf7-0xaf7.7 (1)
0xaf0|                     73                        |       s        |                    i32.xor: 0x73 (valid) 0xaf7-0xaf7.7 (1)
     |                                               |                |                  [5]{}: in 0xaf8-0xaf8.7 (1)
0xaf0|                        0b                     |        .       |                    end: 0xb (valid) 0xaf8-0xaf8.7 (1)
     |                                               |                |            [35]{}: code 0xaf9-0xb06.7 (14)
0xaf0|                           0d                  |         .      |              size: 13 0xaf9-0xaf9.7 (1)
     |                                               |                |              code{}: 0xafa-0xb06.7 (13)
     |                                               |                |                t{}: 0xafa-0xafa.7 (1)
0xaf0|                              00               |          .     |                  n: 0 0xafa-0xafa.7 (1)
     |                                               |                |                  x[0:0]: 0xafb-NA (0)
     |                                               |                |                e[0:6]: 0xafb-0xb06.7 (12)
     |                                               |                |                  [0]{}: in 0xafb-0xafc.7 (2)
0xaf0|                                 20            |                |                    local.get: 0x20 (valid) 0xafb-0xafb.7 (1)
0xaf0|                                    00         |            .   |                    x: 0 0xafc-0xafc.7 (1)
     |                                               |                |                  [1]{}: in 0xafd-0xaff.7 (3)
0xaf0|                                       fd      |             .  |                    prefix: 0xfd (valid) 0xafd-0xafd.7 (1)
0xaf0|                                          a3 01|              ..|                    i32x4.all_true: 163 (valid) 0xafe-0xaff.7 (2)
     |                                               |                |                  [2]{}: in 0xb00-0xb01.7 (2)
0xb00|20                                             |                |                    local.get: 0x20 (valid) 0xb00-0xb00.7 (1)
0xb00|   01                                          | .              |                    x: 1 0xb01-0xb01.7 (1)
     |                                               |                |                  [3]{}: in 0xb02-0xb04.7 (3)
0xb00|      fd                                       |  .             |                    prefix: 0xfd (valid) 0xb02-0xb02.7 (1)
0xb00|         a3 01                                 |   ..           |                    i32x4.all_true: 163 (valid) 0xb03-0xb04.7 (2)
     |                                               |                |                  [4]{}: in 0xb05-0xb05.7 (1)
0xb00|               73                              |     s          |                    i32.xor: 0x73 (valid) 0xb05-0xb05.7 (1)
     |                                               |                |                  [5]{}: in 0xb06-0xb06.7 (1)
0xb00|                  0b                           |      .         |                    end: 0xb (valid) 0xb06-0xb06.7 (1)
     |                                               |                |            [36]{}: code 0xb07-0xb0f.7 (9)
0xb00|                     08                        |       .        |              size: 8 0xb07-0xb07.7 (1)
     |                                               |                |              code{}: 0xb08-0xb0f.7 (8)
     |                                               |                |                t{}: 0xb08-0xb08.7 (1)
0xb00|                        00                     |        .       |                  n: 0 0xb08-0xb08.7 (1)
     |                                               |                |                  x[0:0]: 0xb09-NA (0)
     |                                               |                |                e[0:4]: 0xb09-0xb0f.7 (7)
     |                                               |                |                  [0]{}: in 0xb09-0xb0a.7 (2)
0xb00|                           20                  |                |                    local.get: 0x20 (valid) 0xb09-0xb09.7 (1)
0xb00|                              00               |          .     |                    x: 0 0xb0a-0xb0a.7 (1)
     |                                               |                |                  [1]{}: in 0xb0b-0xb0c.7 (2)
0xb00|                                 fd            |           .    |                    prefix: 0xfd (valid) 0xb0b-0xb0b.7 (1)
0xb00|                                    4d         |            M   |                    v128.not: 77 (valid) 0xb0c-0xb0c.7 (1)
     |                                               |                |                  [2]{}: in 0xb0d-0xb0e.7 (2)
0xb00|                                       fd      |             .  |                    prefix: 0xfd (valid) 0xb0d-0xb0d.7 (1)
0xb00|                                          53   |              S |                    v128.any_true: 83 (valid) 0xb0e-0xb0e.7 (1)
     |                                               |                |                  [3]{}: in 0xb0f-0xb0f.7 (1)
0xb00|                                             0b|               .|                    end: 0xb (valid) 0xb0f-0xb0f.7 (1)
     |                                               |                |            [37]{}: code 0xb10-0xb18.7 (9)
0xb10|08                                             |.               |              size: 8 0xb10-0xb10.7 (1)
     |                                               |                |              code{}: 0xb11-0xb18.7 (8)
     |                                               |                |                t{}: 0xb11-0xb11.7 (1)
0xb10|   00                                          | .              |                  n: 0 0xb11-0xb11.7 (1)
     |                                               |                |                  x[0:0]: 0xb12-NA (0)
     |                                               |                |                e[0:4]: 0xb12-0xb18.7 (7)
     |                                               |                |                  [0]{}: in 0xb12-0xb13.7 (2)
0xb10|      20                                       |                |                    local.get: 0x20 (valid) 0xb12-0xb12.7 (1)
0xb10|         00                                    |   .            |                    x: 0 0xb13-0xb13.7 (1)
     |                                               |                |                  [1]{}: in 0xb14-0xb15.7 (2)
0xb10|            fd                                 |    .           |                    prefix: 0xfd (valid) 0xb14-0xb14.7 (1)
0xb10|               4d                              |     M          |                    v128.not: 77 (valid) 0xb15-0xb15.7 (1)
     |                                               |                |                  [2]{}: in 0xb16-0xb17.7 (2)
0xb10|                  fd                           |      .         |                    prefix: 0xfd (valid) 0xb16-0xb16.7 (1)
0xb10|                     53                        |       S        |                    v128.any_true: 83 (valid) 0xb17-0xb17.7 (1)
     |                                               |                |                  [3]{}: in 0xb18-0xb18.7 (1)
0xb10|                        0b                     |        .       |                    end: 0xb (valid) 0xb18-0xb18.7 (1)
     |                                               |                |            [38]{}: code 0xb19-0xb21.7 (9)
0xb10|                           08                  |         .      |              size: 8 0xb19-0xb19.7 (1)
     |                                               |                |              code{}: 0xb1a-0xb21.7 (8)
     |                                               |                |                t{}: 0xb1a-0xb1a.7 (1)
0xb10|                              00               |          .     |                  n: 0 0xb1a-0xb1a.7 (1)
     |                                               |                |                  x[0:0]: 0xb1b-NA (0)
     |                                               |                |                e[0:4]: 0xb1b-0xb21.7 (7)
     |                                               |                |                  [0]{}: in 0xb1b-0xb1c.7 (2)
0xb10|                                 20            |                |                    local.get: 0x20 (valid) 0xb1b-0xb1b.7 (1)
0xb10|                                    00         |            .   |                    x: 0 0xb1c-0xb1c.7 (1)
     |                                               |                |                  [1]{}: in 0xb1d-0xb1e.7 (2)
0xb10|                                       fd      |             .  |                    prefix: 0xfd (valid) 0xb1d-0xb1d.7 (1)
0xb10|                                          4d   |              M |                    v128.not: 77 (valid) 0xb1e-0xb1e.7 (1)
     |                                               |                |                  [2]{}: in 0xb1f-0xb20.7 (2)
0xb10|                                             fd|               .|                    prefix: 0xfd (valid) 0xb1f-0xb1f.7 (1)
0xb20|53                                             |S               |                    v128.any_true: 83 (valid) 0xb20-0xb20.7 (1)
     |                                               |                |                  [3]{}: in 0xb21-0xb21.7 (1)
0xb20|   0b                                          | .              |                    end: 0xb (valid) 0xb21-0xb21.7 (1)
     |                                               |                |            [39]{}: code 0xb22-0xb2c.7 (11)
0xb20|      0a                                       |  .             |              size: 10 0xb22-0xb22.7 (1)
     |                                               |                |              code{}: 0xb23-0xb2c.7 (10)
     |                                               |                |                t{}: 0xb23-0xb23.7 (1)
0xb20|         00                                    |   .            |                  n: 0 0xb23-0xb23.7 (1)
     |                                               |                |                  x[0:0]: 0xb24-NA (0)
     |                                               |                |                e[0:5]: 0xb24-0xb2c.7 (9)
     |                                               |                |                  [0]{}: in 0xb24-0xb25.7 (2)
0xb20|            20                                 |                |                    local.get: 0x20 (valid) 0xb24-0xb24.7 (1)
0xb20|               00                              |     .          |                    x: 0 0xb25-0xb25.7 (1)
     |                                               |                |                  [1]{}: in 0xb26-0xb27.7 (2)
0xb20|                  20                           |                |                    local.get: 0x20 (valid) 0xb26-0xb26.7 (1)
0xb20|                     01                        |       .        |                    x: 1 0xb27-0xb27.7 (1)
     |                                               |                |                  [2]{}: in 0xb28-0xb29.7 (2)
0xb20|                        fd                     |        .       |                    prefix: 0xfd (valid) 0xb28-0xb28.7 (1)
0xb20|                           4e                  |         N      |                    v128.and: 78 (valid) 0xb29-0xb29.7 (1)
     |                                               |                |                  [3]{}: in 0xb2a-0xb2b.7 (2)
0xb20|                              fd               |          .     |                    prefix: 0xfd (valid) 0xb2a-0xb2a.7 (1)
0xb20|                                 53            |           S    |                    v128.any_true: 83 (valid) 0xb2b-0xb2b.7 (1)
     |                                               |                |                  [4]{}: in 0xb2c-0xb2c.7 (1)
0xb20|                                    0b         |            .   |                    end: 0xb (valid) 0xb2c-0xb2c.7 (1)
     |                                               |                |            [40]{}: code 0xb2d-0xb37.7 (11)
0xb20|                                       0a      |             .  |              size: 10 0xb2d-0xb2d.7 (1)
     |                                               |                |              code{}: 0xb2e-0xb37.7 (10)
     |                                               |                |                t{}: 0xb2e-0xb2e.7 (1)
0xb20|                                          00   |              . |                  n: 0 0xb2e-0xb2e.7 (1)
     |                                               |                |                  x[0:0]: 0xb2f-NA (0)
     |                                               |                |                e[0:5]: 0xb2f-0xb37.7 (9)
     |                                               |                |                  [0]{}: in 0xb2f-0xb30.7 (2)
0xb20|                                             20|                |                    local.get: 0x20 (valid) 0xb2f-0xb2f.7 (1)
0xb30|00                                             |.               |                    x: 0 0xb30-0xb30.7 (1)
     |                                               |                |                  [1]{}: in 0xb31-0xb32.7 (2)
0xb30|   20                                          |                |                    local.get: 0x20 (valid) 0xb31-0xb31.7 (1)
0xb30|      01                                       |  .             |                    x: 1 0xb32-0xb32.7 (1)
     |                                               |                |                  [2]{}: in 0xb33-0xb34.7 (2)
0xb30|         fd                                    |   .            |                    prefix: 0xfd (valid) 0xb33-0xb33.7 (1)
0xb30|            4e                                 |    N           |                    v128.and: 78 (valid) 0xb34-0xb34.7 (1)
     |                                               |                |                  [3]{}: in 0xb35-0xb36.7 (2)
0xb30|               fd                              |     .          |                    prefix: 0xfd (valid) 0xb35-0xb35.7 (1)
0xb30|                  53                           |      S         |                    v128.any_true: 83 (valid) 0xb36-0xb36.7 (1)
     |                                               |                |                  [4]{}: in 0xb37-0xb37.7 (1)
0xb30|                     0b                        |       .        |                    end: 0xb (valid) 0xb37-0xb37.7 (1)
     |                                               |                |            [41]{}: code 0xb38-0xb42.7 (11)
0xb30|                        0a                     |        .       |              size: 10 0xb38-0xb38.7 (1)
     |                                               |                |              code{}: 0xb39-0xb42.7 (10)
     |                                               |                |                t{}: 0xb39-0xb39.7 (1)
0xb30|                           00                  |         .      |                  n: 0 0xb39-0xb39.7 (1)
     |                                               |                |                  x[0:0]: 0xb3a-NA (0)
     |                                               |                |                e[0:5]: 0xb3a-0xb42.7 (9)
     |                                               |                |                  [0]{}: in 0xb3a-0xb3b.7 (2)
0xb30|                              20               |                |                    local.get: 0x20 (valid) 0xb3a-0xb3a.7 (1)
0xb30|                                 00            |           .    |                    x: 0 0xb3b-0xb3b.7 (1)
     |                                               |                |                  [1]{}: in 0xb3c-0xb3d.7 (2)
0xb30|                                    20         |                |                    local.get: 0x20 (valid) 0xb3c-0xb3c.7 (1)
0xb30|                                       01      |             .  |                    x: 1 0xb3d-0xb3d.7 (1)
     |                                               |                |                  [2]{}: in 0xb3e-0xb3f.7 (2)
0xb30|                                          fd   |              . |                    prefix: 0xfd (valid) 0xb3e-0xb3e.7 (1)
0xb30|                                             4e|               N|                    v128.and: 78 (valid) 0xb3f-0xb3f.7 (1)
     |                                               |                |                  [3]{}: in 0xb40-0xb41.7 (2)
0xb40|fd                                             |.               |                    prefix: 0xfd (valid) 0xb40-0xb40.7 (1)
0xb40|   53                                          | S              |                    v128.any_true: 83 (valid) 0xb41-0xb41.7 (1)
     |                                               |                |                  [4]{}: in 0xb42-0xb42.7 (1)
0xb40|      0b                                       |  .             |                    end: 0xb (valid) 0xb42-0xb42.7 (1)
     |                                               |                |            [42]{}: code 0xb43-0xb4d.7 (11)
0xb40|         0a                                    |   .            |              size: 10 0xb43-0xb43.7 (1)
     |                                               |                |              code{}: 0xb44-0xb4d.7 (10)
     |                                               |                |                t{}: 0xb44-0xb44.7 (1)
0xb40|            00                                 |    .           |                  n: 0 0xb44-0xb44.7 (1)
     |                                               |                |                  x[0:0]: 0xb45-NA (0)
     |                                               |                |                e[0:5]: 0xb45-0xb4d.7 (9)
     |                                               |                |                  [0]{}: in 0xb45-0xb46.7 (2)
0xb40|               20                              |                |                    local.get: 0x20 (valid) 0xb45-0xb45.7 (1)
0xb40|                  00                           |      .         |                    x: 0 0xb46-0xb46.7 (1)
     |                                               |                |                  [1]{}: in 0xb47-0xb48.7 (2)
0xb40|                     20                        |                |                    local.get: 0x20 (valid) 0xb47-0xb47.7 (1)
0xb40|                        01                     |        .       |                    x: 1 0xb48-0xb48.7 (1)
     |                                               |                |                  [2]{}: in 0xb49-0xb4a.7 (2)
0xb40|                           fd                  |         .      |                    prefix: 0xfd (valid) 0xb49-0xb49.7 (1)
0xb40|                              50               |          P     |                    v128.or: 80 (valid) 0xb4a-0xb4a.7 (1)
     |                                               |                |                  [3]{}: in 0xb4b-0xb4c.7 (2)
0xb40|                                 fd            |           .    |                    prefix: 0xfd (valid) 0xb4b-0xb4b.7 (1)
0xb40|                                    53         |            S   |                    v128.any_true: 83 (valid) 0xb4c-0xb4c.7 (1)
     |                                               |                |                  [4]{}: in 0xb4d-0xb4d.7 (1)
0xb40|                                       0b      |             .  |                    end: 0xb (valid) 0xb4d-0xb4d.7 (1)
     |                                               |                |            [43]{}: code 0xb4e-0xb58.7 (11)
0xb40|                                          0a   |              . |              size: 10 0xb4e-0xb4e.7 (1)
     |                                               |                |              code{}: 0xb4f-0xb58.7 (10)
     |                                               |                |                t{}: 0xb4f-0xb4f.7 (1)
0xb40|                                             00|               .|                  n: 0 0xb4f-0xb4f.7 (1)
     |                                               |                |                  x[0:0]: 0xb50-NA (0)
     |                                               |                |                e[0:5]: 0xb50-0xb58.7 (9)
     |                                               |                |                  [0]{}: in 0xb50-0xb51.7 (2)
0xb50|20                                             |                |                    local.get: 0x20 (valid) 0xb50-0xb50.7 (1)
0xb50|   00                                          | .              |                    x: 0 0xb51-0xb51.7 (1)
     |                                               |                |                  [1]{}: in 0xb52-0xb53.7 (2)
0xb50|      20                                       |                |                    local.get: 0x20 (valid) 0xb52-0xb52.7 (1)
0xb50|         01                                    |   .            |                    x: 1 0xb53-0xb53.7 (1)
     |                                               |                |                  [2]{}: in 0xb54-0xb55.7 (2)
0xb50|            fd                                 |    .           |                    prefix: 0xfd (valid) 0xb54-0xb54.7 (1)
0xb50|               50                              |     P          |                    v128.or: 80 (valid) 0xb55-0xb55.7 (1)
     |                                               |                |                  [3]{}: in 0xb56-0xb57.7 (2)
0xb50|                  fd                           |      .         |                    prefix: 0xfd (valid) 0xb56-0xb56.7 (1)
0xb50|                     53                        |       S        |                    v128.any_true: 83 (valid) 0xb57-0xb57.7 (1)
     |                                               |                |                  [4]{}: in 0xb58-0xb58.7 (1)
0xb50|                        0b                     |        .       |                    end: 0xb (valid) 0xb58-0xb58.7 (1)
     |                                               |                |            [44]{}: code 0xb59-0xb63.7 (11)
0xb50|                           0a                  |         .      |              size: 10 0xb59-0xb59.7 (1)
     |                                               |                |              code{}: 0xb5a-0xb63.7 (10)
     |                                               |                |                t{}: 0xb5a-0xb5a.7 (1)
0xb50|                              00               |          .     |                  n: 0 0xb5a-0xb5a.7 (1)
     |                                               |                |                  x[0:0]: 0xb5b-NA (0)
     |                                               |                |                e[0:5]: 0xb5b-0xb63.7 (9)
     |                                               |                |                  [0]{}: in 0xb5b-0xb5c.7 (2)
0xb50|                                 20            |                |                    local.get: 0x20 (valid) 0xb5b-0xb5b.7 (1)
0xb50|                                    00         |            .   |                    x: 0 0xb5c-0xb5c.7 (1)
     |                                               |                |                  [1]{}: in 0xb5d-0xb5e.7 (2)
0xb50|                                       20      |                |                    local.get: 0x20 (valid) 0xb5d-0xb5d.7 (1)
0xb50|                                          01   |              . |                    x: 1 0xb5e-0xb5e.7 (1)
     |                                               |                |                  [2]{}: in 0xb5f-0xb60.7 (2)
0xb50|                                             fd|               .|                    prefix: 0xfd (valid) 0xb5f-0xb5f.7 (1)
0xb60|50                                             |P               |                    v128.or: 80 (valid) 0xb60-0xb60.7 (1)
     |                                               |                |                  [3]{}: in 0xb61-0xb62.7 (2)
0xb60|   fd                                          | .              |                    prefix: 0xfd (valid) 0xb61-0xb61.7 (1)
0xb60|      53                                       |  S             |                    v128.any_true: 83 (valid) 0xb62-0xb62.7 (1)
     |                                               |                |                  [4]{}: in 0xb63-0xb63.7 (1)
0xb60|         0b                                    |   .            |                    end: 0xb (valid) 0xb63-0xb63.7 (1)
     |                                               |                |            [45]{}: code 0xb64-0xb6e.7 (11)
0xb60|            0a                                 |    .           |              size: 10 0xb64-0xb64.7 (1)
     |                                               |                |              code{}: 0xb65-0xb6e.7 (10)
     |                                               |                |                t{}: 0xb65-0xb65.7 (1)
0xb60|               00                              |     .          |                  n: 0 0xb65-0xb65.7 (1)
     |                                               |                |                  x[0:0]: 0xb66-NA (0)
     |                                               |                |                e[0:5]: 0xb66-0xb6e.7 (9)
     |                                               |                |                  [0]{}: in 0xb66-0xb67.7 (2)
0xb60|                  20                           |                |                    local.get: 0x20 (valid) 0xb66-0xb66.7 (1)
0xb60|                     00                        |       .        |                    x: 0 0xb67-0xb67.7 (1)
     |                                               |                |                  [1]{}: in 0xb68-0xb69.7 (2)
0xb60|                        20                     |                |                    local.get: 0x20 (valid) 0xb68-0xb68.7 (1)
0xb60|                           01                  |         .      |                    x: 1 0xb69-0xb69.7 (1)
     |                                               |                |                  [2]{}: in 0xb6a-0xb6b.7 (2)
0xb60|                              fd               |          .     |                    prefix: 0xfd (valid) 0xb6a-0xb6a.7 (1)
0xb60|                                 51            |           Q    |                    v128.xor: 81 (valid) 0xb6b-0xb6b.7 (1)
     |                                               |                |                  [3]{}: in 0xb6c-0xb6d.7 (2)
0xb60|                                    fd         |            .   |                    prefix: 0xfd (valid) 0xb6c-0xb6c.7 (1)
0xb60|                                       53      |             S  |                    v128.any_true: 83 (valid) 0xb6d-0xb6d.7 (1)
     |                                               |                |                  [4]{}: in 0xb6e-0xb6e.7 (1)
0xb60|                                          0b   |              . |                    end: 0xb (valid) 0xb6e-0xb6e.7 (1)
     |                                               |                |            [46]{}: code 0xb6f-0xb79.7 (11)
0xb60|                                             0a|               .|              size: 10 0xb6f-0xb6f.7 (1)
     |                                               |                |              code{}: 0xb70-0xb79.7 (10)
     |                                               |                |                t{}: 0xb70-0xb70.7 (1)
0xb70|00                                             |.               |                  n: 0 0xb70-0xb70.7 (1)
     |                                               |                |                  x[0:0]: 0xb71-NA (0)
     |                                               |                |                e[0:5]: 0xb71-0xb79.7 (9)
     |                                               |                |                  [0]{}: in 0xb71-0xb72.7 (2)
0xb70|   20                                          |                |                    local.get: 0x20 (valid) 0xb71-0xb71.7 (1)
0xb70|      00                                       |  .             |                    x: 0 0xb72-0xb72.7 (1)
     |                                               |                |                  [1]{}: in 0xb73-0xb74.7 (2)
0xb70|         20                                    |                |                    local.get: 0x20 (valid) 0xb73-0xb73.7 (1)
0xb70|            01                                 |    .           |                    x: 1 0xb74-0xb74.7 (1)
     |                                               |                |                  [2]{}: in 0xb75-0xb76.7 (2)
0xb70|               fd                              |     .          |                    prefix: 0xfd (valid) 0xb75-0xb75.7 (1)
0xb70|                  51                           |      Q         |                    v128.xor: 81 (valid) 0xb76-0xb76.7 (1)
     |                                               |                |                  [3]{}: in 0xb77-0xb78.7 (2)
0xb70|                     fd                        |       .        |                    prefix: 0xfd (valid) 0xb77-0xb77.7 (1)
0xb70|                        53                     |        S       |                    v128.any_true: 83 (valid) 0xb78-0xb78.7 (1)
     |                                               |                |                  [4]{}: in 0xb79-0xb79.7 (1)
0xb70|                           0b                  |         .      |                    end: 0xb (valid) 0xb79-0xb79.7 (1)
     |                                               |                |            [47]{}: code 0xb7a-0xb84.7 (11)
0xb70|                              0a               |          .     |              size: 10 0xb7a-0xb7a.7 (1)
     |                                               |                |              code{}: 0xb7b-0xb84.7 (10)
     |                                               |                |                t{}: 0xb7b-0xb7b.7 (1)
0xb70|                                 00            |           .    |                  n: 0 0xb7b-0xb7b.7 (1)
     |                                               |                |                  x[0:0]: 0xb7c-NA (0)
     |                                               |                |                e[0:5]: 0xb7c-0xb84.7 (9)
     |                                               |                |                  [0]{}: in 0xb7c-0xb7d.7 (2)
0xb70|                                    20         |                |                    local.get: 0x20 (valid) 0xb7c-0xb7c.7 (1)
0xb70|                                       00      |             .  |                    x: 0 0xb7d-0xb7d.7 (1)
     |                                               |                |                  [1]{}: in 0xb7e-0xb7f.7 (2)
0xb70|                                          20   |                |                    local.get: 0x20 (valid) 0xb7e-0xb7e.7 (1)
0xb70|                                             01|               .|                    x: 1 0xb7f-0xb7f.7 (1)
     |                                               |                |                  [2]{}: in 0xb80-0xb81.7 (2)
0xb80|fd                                             |.               |                    prefix: 0xfd (valid) 0xb80-0xb80.7 (1)
0xb80|   51                                          | Q              |                    v128.xor: 81 (valid) 0xb81-0xb81.7 (1)
     |                                               |                |                  [3]{}: in 0xb82-0xb83.7 (2)
0xb80|      fd                                       |  .             |                    prefix: 0xfd (valid) 0xb82-0xb82.7 (1)
0xb80|         53                                    |   S            |                    v128.any_true: 83 (valid) 0xb83-0xb83.7 (1)
     |                                               |                |                  [4]{}: in 0xb84-0xb84.7 (1)
0xb80|            0b                                 |    .           |                    end: 0xb (valid) 0xb84-0xb84.7 (1)
     |                                               |                |            [48]{}: code 0xb85-0xb91.7 (13)
0xb80|               0c                              |     .          |              size: 12 0xb85-0xb85.7 (1)
     |                                               |                |              code{}: 0xb86-0xb91.7 (12)
     |                                               |                |                t{}: 0xb86-0xb86.7 (1)
0xb80|                  00                           |      .         |                  n: 0 0xb86-0xb86.7 (1)
     |                                               |                |                  x[0:0]: 0xb87-NA (0)
     |                                               |                |                e[0:6]: 0xb87-0xb91.7 (11)
     |                                               |                |                  [0]{}: in 0xb87-0xb88.7 (2)
0xb80|                     20                        |                |                    local.get: 0x20 (valid) 0xb87-0xb87.7 (1)
0xb80|                        00                     |        .       |                    x: 0 0xb88-0xb88.7 (1)
     |                                               |                |                  [1]{}: in 0xb89-0xb8a.7 (2)
0xb80|                           20                  |                |                    local.get: 0x20 (valid) 0xb89-0xb89.7 (1)
0xb80|                              01               |          .     |                    x: 1 0xb8a-0xb8a.7 (1)
     |                                               |                |                  [2]{}: in 0xb8b-0xb8c.7 (2)
0xb80|                                 20            |                |                    local.get: 0x20 (valid) 0xb8b-0xb8b.7 (1)
0xb80|                                    02         |            .   |                    x: 2 0xb8c-0xb8c.7 (1)
     |                                               |                |                  [3]{}: in 0xb8d-0xb8e.7 (2)
0xb80|                                       fd      |             .  |                    prefix: 0xfd (valid) 0xb8d-0xb8d.7 (1)
0xb80|                                          52   |              R |                    v128.bitselect: 82 (valid) 0xb8e-0xb8e.7 (1)
     |                                               |                |                  [4]{}: in 0xb8f-0xb90.7 (2)
0xb80|                                             fd|               .|                    prefix: 0xfd (valid) 0xb8f-0xb8f.7 (1)
0xb90|53                                             |S               |                    v128.any_true: 83 (valid) 0xb90-0xb90.7 (1)
     |                                               |                |                  [5]{}: in 0xb91-0xb91.7 (1)
0xb90|   0b                                          | .              |                    end: 0xb (valid) 0xb91-0xb91.7 (1)
     |                                               |                |            [49]{}: code 0xb92-0xb9e.7 (13)
0xb90|      0c                                       |  .             |              size: 12 0xb92-0xb92.7 (1)
     |                                               |                |              code{}: 0xb93-0xb9e.7 (12)
     |                                               |                |                t{}: 0xb93-0xb93.7 (1)
0xb90|         00                                    |   .            |                  n: 0 0xb93-0xb93.7 (1)
     |                                               |                |                  x[0:0]: 0xb94-NA (0)
     |                                               |                |                e[0:6]: 0xb94-0xb9e.7 (11)
     |                                               |                |                  [0]{}: in 0xb94-0xb95.7 (2)
0xb90|            20                                 |                |                    local.get: 0x20 (valid) 0xb94-0xb94.7 (1)
0xb90|               00                              |     .          |                    x: 0 0xb95-0xb95.7 (1)
     |                                               |                |                  [1]{}: in 0xb96-0xb97.7 (2)
0xb90|                  20                           |                |                    local.get: 0x20 (valid) 0xb96-0xb96.7 (1)
0xb90|                     01                        |       .        |                    x: 1 0xb97-0xb97.7 (1)
     |                                               |                |                  [2]{}: in 0xb98-0xb99.7 (2)
0xb90|                        20                     |                |                    local.get: 0x20 (valid) 0xb98-0xb98.7 (1)
0xb90|                           02                  |         .      |                    x: 2 0xb99-0xb99.7 (1)
     |                                               |                |                  [3]{}: in 0xb9a-0xb9b.7 (2)
0xb90|                              fd               |          .     |                    prefix: 0xfd (valid) 0xb9a-0xb9a.7 (1)
0xb90|                                 52            |           R    |                    v128.bitselect: 82 (valid) 0xb9b-0xb9b.7 (1)
     |                                               |                |                  [4]{}: in 0xb9c-0xb9d.7 (2)
0xb90|                                    fd         |            .   |                    prefix: 0xfd (valid) 0xb9c-0xb9c.7 (1)
0xb90|                                       53      |             S  |                    v128.any_true: 83 (valid) 0xb9d-0xb9d.7 (1)
     |                                               |                |                  [5]{}: in 0xb9e-0xb9e.7 (1)
0xb90|                                          0b   |              . |                    end: 0xb (valid) 0xb9e-0xb9e.7 (1)
     |                                               |                |            [50]{}: code 0xb9f-0xbab.7 (13)
0xb90|                                             0c|               .|              size: 12 0xb9f-0xb9f.7 (1)
     |                                               |                |              code{}: 0xba0-0xbab.7 (12)
     |                                               |                |                t{}: 0xba0-0xba0.7 (1)
0xba0|00                                             |.               |                  n: 0 0xba0-0xba0.7 (1)
     |                                               |                |                  x[0:0]: 0xba1-NA (0)
     |                                               |                |                e[0:6]: 0xba1-0xbab.7 (11)
     |                                               |                |                  [0]{}: in 0xba1-0xba2.7 (2)
0xba0|   20                                          |                |                    local.get: 0x20 (valid) 0xba1-0xba1.7 (1)
0xba0|      00                                       |  .             |                    x: 0 0xba2-0xba2.7 (1)
     |                                               |                |                  [1]{}: in 0xba3-0xba4.7 (2)
0xba0|         20                                    |                |                    local.get: 0x20 (valid) 0xba3-0xba3.7 (1)
0xba0|            01                                 |    .           |                    x: 1 0xba4-0xba4.7 (1)
     |                                               |                |                  [2]{}: in 0xba5-0xba6.7 (2)
0xba0|               20                              |                |                    local.get: 0x20 (valid) 0xba5-0xba5.7 (1)
0xba0|                  02                           |      .         |                    x: 2 0xba6-0xba6.7 (1)
     |                                               |                |                  [3]{}: in 0xba7-0xba8.7 (2)
0xba0|                     fd                        |       .        |                    prefix: 0xfd (valid) 0xba7-0xba7.7 (1)
0xba0|                        52                     |        R       |                    v128.bitselect: 82 (valid) 0xba8-0xba8.7 (1)
     |                                               |                |                  [4]{}: in 0xba9-0xbaa.7 (2)
0xba0|                           fd                  |         .      |                    prefix: 0xfd (valid) 0xba9-0xba9.7 (1)
0xba0|                              53               |          S     |                    v128.any_true: 83 (valid) 0xbaa-0xbaa.7 (1)
     |                                               |                |                  [5]{}: in 0xbab-0xbab.7 (1)
0xba0|                                 0b            |           .    |                    end: 0xb (valid) 0xbab-0xbab.7 (1)
     |                                               |                |            [51]{}: code 0xbac-0xbb4.7 (9)
0xba0|                                    08         |            .   |              size: 8 0xbac-0xbac.7 (1)
     |                                               |                |              code{}: 0xbad-0xbb4.7 (8)
     |                                               |                |                t{}: 0xbad-0xbad.7 (1)
0xba0|                                       00      |             .  |                  n: 0 0xbad-0xbad.7 (1)
     |                                               |                |                  x[0:0]: 0xbae-NA (0)
     |                                               |                |                e[0:4]: 0xbae-0xbb4.7 (7)
     |                                               |                |                  [0]{}: in 0xbae-0xbaf.7 (2)
0xba0|                                          20   |                |                    local.get: 0x20 (valid) 0xbae-0xbae.7 (1)
0xba0|                                             00|               .|                    x: 0 0xbaf-0xbaf.7 (1)
     |                                               |                |                  [1]{}: in 0xbb0-0xbb1.7 (2)
0xbb0|fd                                             |.               |                    prefix: 0xfd (valid) 0xbb0-0xbb0.7 (1)
0xbb0|   4d                                          | M              |                    v128.not: 77 (valid) 0xbb1-0xbb1.7 (1)
     |                                               |                |                  [2]{}: in 0xbb2-0xbb3.7 (2)
0xbb0|      fd                                       |  .             |                    prefix: 0xfd (valid) 0xbb2-0xbb2.7 (1)
0xbb0|         63                                    |   c            |                    i8x16.all_true: 99 (valid) 0xbb3-0xbb3.7 (1)
     |                                               |                |                  [3]{}: in 0xbb4-0xbb4.7 (1)
0xbb0|            0b                                 |    .           |                    end: 0xb (valid) 0xbb4-0xbb4.7 (1)
     |                                               |                |            [52]{}: code 0xbb5-0xbbe.7 (10)
0xbb0|               09                              |     .          |              size: 9 0xbb5-0xbb5.7 (1)
     |                                               |                |              code{}: 0xbb6-0xbbe.7 (9)
     |                                               |                |                t{}: 0xbb6-0xbb6.7 (1)
0xbb0|                  00                           |      .         |                  n: 0 0xbb6-0xbb6.7 (1)
     |                                               |                |                  x[0:0]: 0xbb7-NA (0)
     |                                               |                |                e[0:4]: 0xbb7-0xbbe.7 (8)
     |                                               |                |                  [0]{}: in 0xbb7-0xbb8.7 (2)
0xbb0|                     20                        |                |                    local.get: 0x20 (valid) 0xbb7-0xbb7.7 (1)
0xbb0|                        00                     |        .       |                    x: 0 0xbb8-0xbb8.7 (1)
     |                                               |                |                  [1]{}: in 0xbb9-0xbba.7 (2)
0xbb0|                           fd                  |         .      |                    prefix: 0xfd (valid) 0xbb9-0xbb9.7 (1)
0xbb0|                              4d               |          M     |                    v128.not: 77 (valid) 0xbba-0xbba.7 (1)
     |                                               |                |                  [2]{}: in 0xbbb-0xbbd.7 (3)
0xbb0|                                 fd            |           .    |                    prefix: 0xfd (valid) 0xbbb-0xbbb.7 (1)
0xbb0|                                    83 01      |            ..  |                    i16x8.all_true: 131 (valid) 0xbbc-0xbbd.7 (2)
     |                                               |                |                  [3]{}: in 0xbbe-0xbbe.7 (1)
0xbb0|                                          0b   |              . |                    end: 0xb (valid) 0xbbe-0xbbe.7 (1)
     |                                               |                |            [53]{}: code 0xbbf-0xbc8.7 (10)
0xbb0|                                             09|               .|              size: 9 0xbbf-0xbbf.7 (1)
     |                                               |                |              code{}: 0xbc0-0xbc8.7 (9)
     |                                               |                |                t{}: 0xbc0-0xbc0.7 (1)
0xbc0|00                                             |.               |                  n: 0 0xbc0-0xbc0.7 (1)
     |                                               |                |                  x[0:0]: 0xbc1-NA (0)
     |                                               |                |                e[0:4]: 0xbc1-0xbc8.7 (8)
     |                                               |                |                  [0]{}: in 0xbc1-0xbc2.7 (2)
0xbc0|   20                                          |                |                    local.get: 0x20 (valid) 0xbc1-0xbc1.7 (1)
0xbc0|      00                                       |  .             |                    x: 0 0xbc2-0xbc2.7 (1)
     |                                               |                |                  [1]{}: in 0xbc3-0xbc4.7 (2)
0xbc0|         fd                                    |   .            |                    prefix: 0xfd (valid) 0xbc3-0xbc3.7 (1)
0xbc0|            4d                                 |    M           |                    v128.not: 77 (valid) 0xbc4-0xbc4.7 (1)
     |                                               |                |                  [2]{}: in 0xbc5-0xbc7.7 (3)
0xbc0|               fd                              |     .          |                    prefix: 0xfd (valid) 0xbc5-0xbc5.7 (1)
0xbc0|                  a3 01                        |      ..        |                    i32x4.all_true: 163 (valid) 0xbc6-0xbc7.7 (2)
     |                                               |                |                  [3]{}: in 0xbc8-0xbc8.7 (1)
0xbc0|                        0b                     |        .       |                    end: 0xb (valid) 0xbc8-0xbc8.7 (1)
     |                                               |                |            [54]{}: code 0xbc9-0xbd3.7 (11)
0xbc0|                           0a                  |         .      |              size: 10 0xbc9-0xbc9.7 (1)
     |                                               |                |              code{}: 0xbca-0xbd3.7 (10)
     |                                               |                |                t{}: 0xbca-0xbca.7 (1)
0xbc0|                              00               |          .     |                  n: 0 0xbca-0xbca.7 (1)
     |                                               |                |                  x[0:0]: 0xbcb-NA (0)
     |                                               |                |                e[0:5]: 0xbcb-0xbd3.7 (9)
     |                                               |                |                  [0]{}: in 0xbcb-0xbcc.7 (2)
0xbc0|                                 20            |                |                    local.get: 0x20 (valid) 0xbcb-0xbcb.7 (1)
0xbc0|                                    00         |            .   |                    x: 0 0xbcc-0xbcc.7 (1)
     |                                               |                |                  [1]{}: in 0xbcd-0xbce.7 (2)
0xbc0|                                       20      |                |                    local.get: 0x20 (valid) 0xbcd-0xbcd.7 (1)
0xbc0|                                          01   |              . |                    x: 1 0xbce-0xbce.7 (1)
     |                                               |                |                  [2]{}: in 0xbcf-0xbd0.7 (2)
0xbc0|                                             fd|               .|                    prefix: 0xfd (valid) 0xbcf-0xbcf.7 (1)
0xbd0|4e                                             |N               |                    v128.and: 78 (valid) 0xbd0-0xbd0.7 (1)
     |                                               |                |                  [3]{}: in 0xbd1-0xbd2.7 (2)
0xbd0|   fd                                          | .              |                    prefix: 0xfd (valid) 0xbd1-0xbd1.7 (1)
0xbd0|      63                                       |  c             |                    i8x16.all_true: 99 (valid) 0xbd2-0xbd2.7 (1)
     |                                               |                |                  [4]{}: in 0xbd3-0xbd3.7 (1)
0xbd0|         0b                                    |   .            |                    end: 0xb (valid) 0xbd3-0xbd3.7 (1)
     |                                               |                |            [55]{}: code 0xbd4-0xbdf.7 (12)
0xbd0|            0b                                 |    .           |              size: 11 0xbd4-0xbd4.7 (1)
     |                                               |                |              code{}: 0xbd5-0xbdf.7 (11)
     |                                               |                |                t{}: 0xbd5-0xbd5.7 (1)
0xbd0|               00                              |     .          |                  n: 0 0xbd5-0xbd5.7 (1)
     |                                               |                |                  x[0:0]: 0xbd6-NA (0)
     |                                               |                |                e[0:5]: 0xbd6-0xbdf.7 (10)
     |                                               |                |                  [0]{}: in 0xbd6-0xbd7.7 (2)
0xbd0|                  20                           |                |                    local.get: 0x20 (valid) 0xbd6-0xbd6.7 (1)
0xbd0|                     00                        |       .        |                    x: 0 0xbd7-0xbd7.7 (1)
     |                                               |                |                  [1]{}: in 0xbd8-0xbd9.7 (2)
0xbd0|                        20                     |                |                    local.get: 0x20 (valid) 0xbd8-0xbd8.7 (1)
0xbd0|                           01                  |         .      |                    x: 1 0xbd9-0xbd9.7 (1)
     |                                               |                |                  [2]{}: in 0xbda-0xbdb.7 (2)
0xbd0|                              fd               |          .     |                    prefix: 0xfd (valid) 0xbda-0xbda.7 (1)
0xbd0|                                 4e            |           N    |                    v128.and: 78 (valid) 0xbdb-0xbdb.7 (1)
     |                                               |                |                  [3]{}: in 0xbdc-0xbde.7 (3)
0xbd0|                                    fd         |            .   |                    prefix: 0xfd (valid) 0xbdc-0xbdc.7 (1)
0xbd0|                                       83 01   |             .. |                    i16x8.all_true: 131 (valid) 0xbdd-0xbde.7 (2)
     |                                               |                |                  [4]{}: in 0xbdf-0xbdf.7 (1)
0xbd0|                                             0b|               .|                    end: 0xb (valid) 0xbdf-0xbdf.7 (1)
     |                                               |                |            [56]{}: code 0xbe0-0xbeb.7 (12)
0xbe0|0b                                             |.               |              size: 11 0xbe0-0xbe0.7 (1)
     |                                               |                |              code{}: 0xbe1-0xbeb.7 (11)
     |                                               |                |                t{}: 0xbe1-0xbe1.7 (1)
0xbe0|   00                                          | .              |                  n: 0 0xbe1-0xbe1.7 (1)
     |                                               |                |                  x[0:0]: 0xbe2-NA (0)
     |                                               |                |                e[0:5]: 0xbe2-0xbeb.7 (10)
     |                                               |                |                  [0]{}: in 0xbe2-0xbe3.7 (2)
0xbe0|      20                                       |                |                    local.get: 0x20 (valid) 0xbe2-0xbe2.7 (1)
0xbe0|         00                                    |   .            |                    x: 0 0xbe3-0xbe3.7 (1)
     |                                               |                |                  [1]{}: in 0xbe4-0xbe5.7 (2)
0xbe0|            20                                 |                |                    local.get: 0x20 (valid) 0xbe4-0xbe4.7 (1)
0xbe0|               01                              |     .          |                    x: 1 0xbe5-0xbe5.7 (1)
     |                                               |                |                  [2]{}: in 0xbe6-0xbe7.7 (2)
0xbe0|                  fd                           |      .         |                    prefix: 0xfd (valid) 0xbe6-0xbe6.7 (1)
0xbe0|                     4e                        |       N        |                    v128.and: 78 (valid) 0xbe7-0xbe7.7 (1)
     |                                               |                |                  [3]{}: in 0xbe8-0xbea.7 (3)
0xbe0|                        fd                     |        .       |                    prefix: 0xfd (valid) 0xbe8-0xbe8.7 (1)
0xbe0|                           a3 01               |         ..     |                    i32x4.all_true: 163 (valid) 0xbe9-0xbea.7 (2)
     |                                               |                |                  [4]{}: in 0xbeb-0xbeb.7 (1)
0xbe0|                                 0b            |           .    |                    end: 0xb (valid) 0xbeb-0xbeb.7 (1)
     |                                               |                |            [57]{}: code 0xbec-0xbf6.7 (11)
0xbe0|                                    0a         |            .   |              size: 10 0xbec-0xbec.7 (1)
     |                                               |                |              code{}: 0xbed-0xbf6.7 (10)
     |                                               |                |                t{}: 0xbed-0xbed.7 (1)
0xbe0|                                       00      |             .  |                  n: 0 0xbed-0xbed.7 (1)
     |                                               |                |                  x[0:0]: 0xbee-NA (0)
     |                                               |                |                e[0:5]: 0xbee-0xbf6.7 (9)
     |                                               |                |                  [0]{}: in 0xbee-0xbef.7 (2)
0xbe0|                                          20   |                |                    local.get: 0x20 (valid) 0xbee-0xbee.7 (1)
0xbe0|                                             00|               .|                    x: 0 0xbef-0xbef.7 (1)
     |                                               |                |                  [1]{}: in 0xbf0-0xbf1.7 (2)
0xbf0|20                                             |                |                    local.get: 0x20 (valid) 0xbf0-0xbf0.7 (1)
0xbf0|   01                                          | .              |                    x: 1 0xbf1-0xbf1.7 (1)
     |                                               |                |                  [2]{}: in 0xbf2-0xbf3.7 (2)
0xbf0|      fd                                       |  .             |                    prefix: 0xfd (valid) 0xbf2-0xbf2.7 (1)
0xbf0|         50                                    |   P            |                    v128.or: 80 (valid) 0xbf3-0xbf3.7 (1)
     |                                               |                |                  [3]{}: in 0xbf4-0xbf5.7 (2)
0xbf0|            fd                                 |    .           |                    prefix: 0xfd (valid) 0xbf4-0xbf4.7 (1)
0xbf0|               63                              |     c          |                    i8x16.all_true: 99 (valid) 0xbf5-0xbf5.7 (1)
     |                                               |                |                  [4]{}: in 0xbf6-0xbf6.7 (1)
0xbf0|                  0b                           |      .         |                    end: 0xb (valid) 0xbf6-0xbf6.7 (1)
     |                                               |                |            [58]{}: code 0xbf7-0xc02.7 (12)
0xbf0|                     0b                        |       .        |              size: 11 0xbf7-0xbf7.7 (1)
     |                                               |                |              code{}: 0xbf8-0xc02.7 (11)
     |                                               |                |                t{}: 0xbf8-0xbf8.7 (1)
0xbf0|                        00                     |        .       |                  n: 0 0xbf8-0xbf8.7 (1)
     |                                               |                |                  x[0:0]: 0xbf9-NA (0)
     |                                               |                |                e[0:5]: 0xbf9-0xc02.7 (10)
     |                                               |                |                  [0]{}: in 0xbf9-0xbfa.7 (2)
0xbf0|                           20                  |                |                    local.get: 0x20 (valid) 0xbf9-0xbf9.7 (1)
0xbf0|                              00               |          .     |                    x: 0 0xbfa-0xbfa.7 (1)
     |                                               |                |                  [1]{}: in 0xbfb-0xbfc.7 (2)
0xbf0|                                 20            |                |                    local.get: 0x20 (valid) 0xbfb-0xbfb.7 (1)
0xbf0|                                    01         |            .   |                    x: 1 0xbfc-0xbfc.7 (1)
     |                                               |                |                  [2]{}: in 0xbfd-0xbfe.7 (2)
0xbf0|                                       fd      |             .  |                    prefix: 0xfd (valid) 0xbfd-0xbfd.7 (1)
0xbf0|                                          50   |              P |                    v128.or: 80 (valid) 0xbfe-0xbfe.7 (1)
     |                                               |                |                  [3]{}: in 0xbff-0xc01.7 (3)
0xbf0|                                             fd|               .|                    prefix: 0xfd (valid) 0xbff-0xbff.7 (1)
0xc00|83 01                                          |..              |                    i16x8.all_true: 131 (valid) 0xc00-0xc01.7 (2)
     |                                               |                |                  [4]{}: in 0xc02-0xc02.7 (1)
0xc00|      0b                                       |  .             |                    end: 0xb (valid) 0xc02-0xc02.7 (1)
     |                                               |                |            [59]{}: code 0xc03-0xc0e.7 (12)
0xc00|         0b                                    |   .            |              size: 11 0xc03-0xc03.7 (1)
     |                                               |                |              code{}: 0xc04-0xc0e.7 (11)
     |                                               |                |                t{}: 0xc04-0xc04.7 (1)
0xc00|            00                                 |    .           |                  n: 0 0xc04-0xc04.7 (1)
     |                                               |                |                  x[0:0]: 0xc05-NA (0)
     |                                               |                |                e[0:5]: 0xc05-0xc0e.7 (10)
     |                                               |                |                  [0]{}: in 0xc05-0xc06.7 (2)
0xc00|               20                              |                |                    local.get: 0x20 (valid) 0xc05-0xc05.7 (1)
0xc00|                  00                           |      .         |                    x: 0 0xc06-0xc06.7 (1)
     |                                               |                |                  [1]{}: in 0xc07-0xc08.7 (2)
0xc00|                     20                        |                |                    local.get: 0x20 (valid) 0xc07-0xc07.7 (1)
0xc00|                        01                     |        .       |                    x: 1 0xc08-0xc08.7 (1)
     |                                               |                |                  [2]{}: in 0xc09-0xc0a.7 (2)
0xc00|                           fd                  |         .      |                    prefix: 0xfd (valid) 0xc09-0xc09.7 (1)
0xc00|                              50               |          P     |                    v128.or: 80 (valid) 0xc0a-0xc0a.7 (1)
     |                                               |                |                  [3]{}: in 0xc0b-0xc0d.7 (3)
0xc00|                                 fd            |           .    |                    prefix: 0xfd (valid) 0xc0b-0xc0b.7 (1)
0xc00|                                    a3 01      |            ..  |                    i32x4.all_true: 163 (valid) 0xc0c-0xc0d.7 (2)
     |                                               |                |                  [4]{}: in 0xc0e-0xc0e.7 (1)
0xc00|                                          0b   |              . |                    end: 0xb (valid) 0xc0e-0xc0e.7 (1)
     |                                               |                |            [60]{}: code 0xc0f-0xc19.7 (11)
0xc00|                                             0a|               .|              size: 10 0xc0f-0xc0f.7 (1)
     |                                               |                |              code{}: 0xc10-0xc19.7 (10)
     |                                               |                |                t{}: 0xc10-0xc10.7 (1)
0xc10|00                                             |.               |                  n: 0 0xc10-0xc10.7 (1)
     |                                               |                |                  x[0:0]: 0xc11-NA (0)
     |                                               |                |                e[0:5]: 0xc11-0xc19.7 (9)
     |                                               |                |                  [0]{}: in 0xc11-0xc12.7 (2)
0xc10|   20                                          |                |                    local.get: 0x20 (valid) 0xc11-0xc11.7 (1)
0xc10|      00                                       |  .             |                    x: 0 0xc12-0xc12.7 (1)
     |                                               |                |                  [1]{}: in 0xc13-0xc14.7 (2)
0xc10|         20                                    |                |                    local.get: 0x20 (valid) 0xc13-0xc13.7 (1)
0xc10|            01                                 |    .           |                    x: 1 0xc14-0xc14.7 (1)
     |                                               |                |                  [2]{}: in 0xc15-0xc16.7 (2)
0xc10|               fd                              |     .          |                    prefix: 0xfd (valid) 0xc15-0xc15.7 (1)
0xc10|                  51                           |      Q         |                    v128.xor: 81 (valid) 0xc16-0xc16.7 (1)
     |                                               |                |                  [3]{}: in 0xc17-0xc18.7 (2)
0xc10|                     fd                        |       .        |                    prefix: 0xfd (valid) 0xc17-0xc17.7 (1)
0xc10|                        63                     |        c       |                    i8x16.all_true: 99 (valid) 0xc18-0xc18.7 (1)
     |                                               |                |                  [4]{}: in 0xc19-0xc19.7 (1)
0xc10|                           0b                  |         .      |                    end: 0xb (valid) 0xc19-0xc19.7 (1)
     |                                               |                |            [61]{}: code 0xc1a-0xc25.7 (12)
0xc10|                              0b               |          .     |              size: 11 0xc1a-0xc1a.7 (1)
     |                                               |                |              code{}: 0xc1b-0xc25.7 (11)
     |                                               |                |                t{}: 0xc1b-0xc1b.7 (1)
0xc10|                                 00            |           .    |                  n: 0 0xc1b-0xc1b.7 (1)
     |                                               |                |                  x[0:0]: 0xc1c-NA (0)
     |                                               |                |                e[0:5]: 0xc1c-0xc25.7 (10)
     |                                               |                |                  [0]{}: in 0xc1c-0xc1d.7 (2)
0xc10|                                    20         |                |                    local.get: 0x20 (valid) 0xc1c-0xc1c.7 (1)
0xc10|                                       00      |             .  |                    x: 0 0xc1d-0xc1d.7 (1)
     |                                               |                |                  [1]{}: in 0xc1e-0xc1f.7 (2)
0xc10|                                          20   |                |                    local.get: 0x20 (valid) 0xc1e-0xc1e.7 (1)
0xc10|                                             01|               .|                    x: 1 0xc1f-0xc1f.7 (1)
     |                                               |                |                  [2]{}: in 0xc20-0xc21.7 (2)
0xc20|fd                                             |.               |                    prefix: 0xfd (valid) 0xc20-0xc20.7 (1)
0xc20|   51                                          | Q              |                    v128.xor: 81 (valid) 0xc21-0xc21.7 (1)
     |                                               |                |                  [3]{}: in 0xc22-0xc24.7 (3)
0xc20|      fd                                       |  .             |                    prefix: 0xfd (valid) 0xc22-0xc22.7 (1)
0xc20|         83 01                                 |   ..           |                    i16x8.all_true: 131 (valid) 0xc23-0xc24.7 (2)
     |                                               |                |                  [4]{}: in 0xc25-0xc25.7 (1)
0xc20|               0b                              |     .          |                    end: 0xb (valid) 0xc25-0xc25.7 (1)
     |                                               |                |            [62]{}: code 0xc26-0xc31.7 (12)
0xc20|                  0b                           |      .         |              size: 11 0xc26-0xc26.7 (1)
     |                                               |                |              code{}: 0xc27-0xc31.7 (11)
     |                                               |                |                t{}: 0xc27-0xc27.7 (1)
0xc20|                     00                        |       .        |                  n: 0 0xc27-0xc27.7 (1)
     |                                               |                |                  x[0:0]: 0xc28-NA (0)
     |                                               |                |                e[0:5]: 0xc28-0xc31.7 (10)
     |                                               |                |                  [0]{}: in 0xc28-0xc29.7 (2)
0xc20|                        20                     |                |                    local.get: 0x20 (valid) 0xc28-0xc28.7 (1)
0xc20|                           00                  |         .      |                    x: 0 0xc29-0xc29.7 (1)
     |                                               |                |                  [1]{}: in 0xc2a-0xc2b.7 (2)
0xc20|                              20               |                |                    local.get: 0x20 (valid) 0xc2a-0xc2a.7 (1)
0xc20|                                 01            |           .    |                    x: 1 0xc2b-0xc2b.7 (1)
     |                                               |                |                  [2]{}: in 0xc2c-0xc2d.7 (2)
0xc20|                                    fd         |            .   |                    prefix: 0xfd (valid) 0xc2c-0xc2c.7 (1)
0xc20|                                       51      |             Q  |                    v128.xor: 81 (valid) 0xc2d-0xc2d.7 (1)
     |                                               |                |                  [3]{}: in 0xc2e-0xc30.7 (3)
0xc20|                                          fd   |              . |                    prefix: 0xfd (valid) 0xc2e-0xc2e.7 (1)
0xc20|                                             a3|               .|                    i32x4.all_true: 163 (valid) 0xc2f-0xc30.7 (2)
0xc30|01                                             |.               |
     |                                               |                |                  [4]{}: in 0xc31-0xc31.7 (1)
0xc30|   0b                                          | .              |                    end: 0xb (valid) 0xc31-0xc31.7 (1)
     |                                               |                |            [63]{}: code 0xc32-0xc3e.7 (13)
0xc30|      0c                                       |  .             |              size: 12 0xc32-0xc32.7 (1)
     |                                               |                |              code{}: 0xc33-0xc3e.7 (12)
     |                                               |                |                t{}: 0xc33-0xc33.7 (1)
0xc30|         00                                    |   .            |                  n: 0 0xc33-0xc33.7 (1)
     |                                               |                |                  x[0:0]: 0xc34-NA (0)
     |                                               |                |                e[0:6]: 0xc34-0xc3e.7 (11)
     |                                               |                |                  [0]{}: in 0xc34-0xc35.7 (2)
0xc30|            20                                 |                |                    local.get: 0x20 (valid) 0xc34-0xc34.7 (1)
0xc30|               00                              |     .          |                    x: 0 0xc35-0xc35.7 (1)
     |                                               |                |                  [1]{}: in 0xc36-0xc37.7 (2)
0xc30|                  20                           |                |                    local.get: 0x20 (valid) 0xc36-0xc36.7 (1)
0xc30|                     01                        |       .        |                    x: 1 0xc37-0xc37.7 (1)
     |                                               |                |                  [2]{}: in 0xc38-0xc39.7 (2)
0xc30|                        20                     |                |                    local.get: 0x20 (valid) 0xc38-0xc38.7 (1)
0xc30|                           02                  |         .      |                    x: 2 0xc39-0xc39.7 (1)
     |                                               |                |                  [3]{}: in 0xc3a-0xc3b.7 (2)
0xc30|                              fd               |          .     |                    prefix: 0xfd (valid) 0xc3a-0xc3a.7 (1)
0xc30|                                 52            |           R    |                    v128.bitselect: 82 (valid) 0xc3b-0xc3b.7 (1)
     |                                               |                |                  [4]{}: in 0xc3c-0xc3d.7 (2)
0xc30|                                    fd         |            .   |                    prefix: 0xfd (valid) 0xc3c-0xc3c.7 (1)
0xc30|                                       63      |             c  |                    i8x16.all_true: 99 (valid) 0xc3d-0xc3d.7 (1)
     |                                               |                |                  [5]{}: in 0xc3e-0xc3e.7 (1)
0xc30|                                          0b   |              . |                    end: 0xb (valid) 0xc3e-0xc3e.7 (1)
     |                                               |                |            [64]{}: code 0xc3f-0xc4c.7 (14)
0xc30|                                             0d|               .|              size: 13 0xc3f-0xc3f.7 (1)
     |                                               |                |              code{}: 0xc40-0xc4c.7 (13)
     |                                               |                |                t{}: 0xc40-0xc40.7 (1)
0xc40|00                                             |.               |                  n: 0 0xc40-0xc40.7 (1)
     |                                               |                |                  x[0:0]: 0xc41-NA (0)
     |                                               |                |                e[0:6]: 0xc41-0xc4c.7 (12)
     |                                               |                |                  [0]{}: in 0xc41-0xc42.7 (2)
0xc40|   20                                          |                |                    local.get: 0x20 (valid) 0xc41-0xc41.7 (1)
0xc40|      00                                       |  .             |                    x: 0 0xc42-0xc42.7 (1)
     |                                               |                |                  [1]{}: in 0xc43-0xc44.7 (2)
0xc40|         20                                    |                |                    local.get: 0x20 (valid) 0xc43-0xc43.7 (1)
0xc40|            01                                 |    .           |                    x: 1 0xc44-0xc44.7 (1)
     |                                               |                |                  [2]{}: in 0xc45-0xc46.7 (2)
0xc40|               20                              |                |                    local.get: 0x20 (valid) 0xc45-0xc45.7 (1)
0xc40|                  02                           |      .         |                    x: 2 0xc46-0xc46.7 (1)
     |                                               |                |                  [3]{}: in 0xc47-0xc48.7 (2)
0xc40|                     fd                        |       .        |                    prefix: 0xfd (valid) 0xc47-0xc47.7 (1)
0xc40|                        52                     |        R       |                    v128.bitselect: 82 (valid) 0xc48-0xc48.7 (1)
     |                                               |                |                  [4]{}: in 0xc49-0xc4b.7 (3)
0xc40|                           fd                  |         .      |                    prefix: 0xfd (valid) 0xc49-0xc49.7 (1)
0xc40|                              83 01            |          ..    |                    i16x8.all_true: 131 (valid) 0xc4a-0xc4b.7 (2)
     |                                               |                |                  [5]{}: in 0xc4c-0xc4c.7 (1)
0xc40|                                    0b         |            .   |                    end: 0xb (valid) 0xc4c-0xc4c.7 (1)
     |                                               |                |            [65]{}: code 0xc4d-0xc5a.7 (14)
0xc40|                                       0d      |             .  |              size: 13 0xc4d-0xc4d.7 (1)
     |                                               |                |              code{}: 0xc4e-0xc5a.7 (13)
     |                                               |                |                t{}: 0xc4e-0xc4e.7 (1)
0xc40|                                          00   |              . |                  n: 0 0xc4e-0xc4e.7 (1)
     |                                               |                |                  x[0:0]: 0xc4f-NA (0)
     |                                               |                |                e[0:6]: 0xc4f-0xc5a.7 (12)
     |                                               |                |                  [0]{}: in 0xc4f-0xc50.7 (2)
0xc40|                                             20|                |                    local.get: 0x20 (valid) 0xc4f-0xc4f.7 (1)
0xc50|00                                             |.               |                    x: 0 0xc50-0xc50.7 (1)
     |                                               |                |                  [1]{}: in 0xc51-0xc52.7 (2)
0xc50|   20                                          |                |                    local.get: 0x20 (valid) 0xc51-0xc51.7 (1)
0xc50|      01                                       |  .             |                    x: 1 0xc52-0xc52.7 (1)
     |                                               |                |                  [2]{}: in 0xc53-0xc54.7 (2)
0xc50|         20                                    |                |                    local.get: 0x20 (valid) 0xc53-0xc53.7 (1)
0xc50|            02                                 |    .           |                    x: 2 0xc54-0xc54.7 (1)
     |                                               |                |                  [3]{}: in 0xc55-0xc56.7 (2)
0xc50|               fd                              |     .          |                    prefix: 0xfd (valid) 0xc55-0xc55.7 (1)
0xc50|                  52                           |      R         |                    v128.bitselect: 82 (valid) 0xc56-0xc56.7 (1)
     |                                               |                |                  [4]{}: in 0xc57-0xc59.7 (3)
0xc50|                     fd                        |       .        |                    prefix: 0xfd (valid) 0xc57-0xc57.7 (1)
0xc50|                        a3 01                  |        ..      |                    i32x4.all_true: 163 (valid) 0xc58-0xc59.7 (2)
     |                                               |                |                  [5]{}: in 0xc5a-0xc5a.7 (1)
0xc50|                              0b|              |          .|    |                    end: 0xb (valid) 0xc5a-0xc5a.7 (1)
