$ fq -d wasm dv simd_load_splat-0.wasm
     |00 01 02 03 04 05 06 07 08 09 0a 0b 0c 0d 0e 0f|0123456789abcdef|.{}: simd_load_splat-0.wasm (wasm) 0x0-0x3a1.7 (930)
0x000|00 61 73 6d                                    |.asm            |  magic: raw bits (valid) 0x0-0x3.7 (4)
0x000|            01 00 00 00                        |    ....        |  version: 1 0x4-0x7.7 (4)
     |                                               |                |  sections[0:6]: 0x8-0x3a1.7 (922)
     |                                               |                |    [0]{}: section 0x8-0xf.7 (8)
0x000|                        01                     |        .       |      id: "type section" (1) 0x8-0x8.7 (1)
0x000|                           06                  |         .      |      size: 6 0x9-0x9.7 (1)
     |                                               |                |      content{}: 0xa-0xf.7 (6)
     |                                               |                |        ft{}: 0xa-0xf.7 (6)
0x000|                              01               |          .     |          n: 1 0xa-0xa.7 (1)
     |                                               |                |          x[0:1]: 0xb-0xf.7 (5)
     |                                               |                |            [0]{}: ft 0xb-0xf.7 (5)
0x000|                                 60            |           `    |              tag: 0x60 (valid) 0xb-0xb.7 (1)
     |                                               |                |              rt1{}: 0xc-0xd.7 (2)
0x000|                                    01         |            .   |                n: 1 0xc-0xc.7 (1)
     |                                               |                |                x[0:1]: 0xd-0xd.7 (1)
0x000|                                       7f      |             .  |                  [0]: "i32" (0x7f) t 0xd-0xd.7 (1)
     |                                               |                |              rt2{}: 0xe-0xf.7 (2)
0x000|                                          01   |              . |                n: 1 0xe-0xe.7 (1)
     |                                               |                |                x[0:1]: 0xf-0xf.7 (1)
0x000|                                             7b|               {|                  [0]: "v128" (0x7b) t 0xf-0xf.7 (1)
     |                                               |                |    [1]{}: section 0x10-0x2e.7 (31)
0x010|03                                             |.               |      id: "function section" (3) 0x10-0x10.7 (1)
0x010|   1d                                          | .              |      size: 29 0x11-0x11.7 (1)
     |                                               |                |      content{}: 0x12-0x2e.7 (29)
     |                                               |                |        x{}: 0x12-0x2e.7 (29)
0x010|      1c                                       |  .             |          n: 28 0x12-0x12.7 (1)
     |                                               |                |          x[0:28]: 0x13-0x2e.7 (28)
0x010|         00                                    |   .            |            [0]: 0 x 0x13-0x13.7 (1)
0x010|            00                                 |    .           |            [1]: 0 x 0x14-0x14.7 (1)
0x010|               00                              |     .          |            [2]: 0 x 0x15-0x15.7 (1)
0x010|                  00                           |      .         |            [3]: 0 x 0x16-0x16.7 (1)
0x010|                     00                        |       .        |            [4]: 0 x 0x17-0x17.7 (1)
0x010|                        00                     |        .       |            [5]: 0 x 0x18-0x18.7 (1)
0x010|                           00                  |         .      |            [6]: 0 x 0x19-0x19.7 (1)
0x010|                              00               |          .     |            [7]: 0 x 0x1a-0x1a.7 (1)
0x010|                                 00            |           .    |            [8]: 0 x 0x1b-0x1b.7 (1)
0x010|                                    00         |            .   |            [9]: 0 x 0x1c-0x1c.7 (1)
0x010|                                       00      |             .  |            [10]: 0 x 0x1d-0x1d.7 (1)
0x010|                                          00   |              . |            [11]: 0 x 0x1e-0x1e.7 (1)
0x010|                                             00|               .|            [12]: 0 x 0x1f-0x1f.7 (1)
0x020|00                                             |.               |            [13]: 0 x 0x20-0x20.7 (1)
0x020|   00                                          | .              |            [14]: 0 x 0x21-0x21.7 (1)
0x020|      00                                       |  .             |            [15]: 0 x 0x22-0x22.7 (1)
0x020|         00                                    |   .            |            [16]: 0 x 0x23-0x23.7 (1)
0x020|            00                                 |    .           |            [17]: 0 x 0x24-0x24.7 (1)
0x020|               00                              |     .          |            [18]: 0 x 0x25-0x25.7 (1)
0x020|                  00                           |      .         |            [19]: 0 x 0x26-0x26.7 (1)
0x020|                     00                        |       .        |            [20]: 0 x 0x27-0x27.7 (1)
0x020|                        00                     |        .       |            [21]: 0 x 0x28-0x28.7 (1)
0x020|                           00                  |         .      |            [22]: 0 x 0x29-0x29.7 (1)
0x020|                              00               |          .     |            [23]: 0 x 0x2a-0x2a.7 (1)
0x020|                                 00            |           .    |            [24]: 0 x 0x2b-0x2b.7 (1)
0x020|                                    00         |            .   |            [25]: 0 x 0x2c-0x2c.7 (1)
0x020|                                       00      |             .  |            [26]: 0 x 0x2d-0x2d.7 (1)
0x020|                                          00   |              . |            [27]: 0 x 0x2e-0x2e.7 (1)
     |                                               |                |    [2]{}: section 0x2f-0x33.7 (5)
0x020|                                             05|               .|      id: "memory section" (5) 0x2f-0x2f.7 (1)
0x030|03                                             |.               |      size: 3 0x30-0x30.7 (1)
     |                                               |                |      content{}: 0x31-0x33.7 (3)
     |                                               |                |        mem{}: 0x31-0x33.7 (3)
0x030|   01                                          | .              |          n: 1 0x31-0x31.7 (1)
     |                                               |                |          x[0:1]: 0x32-0x33.7 (2)
     |                                               |                |            [0]{}: mem 0x32-0x33.7 (2)
     |                                               |                |              lim{}: 0x32-0x33.7 (2)
0x030|      00                                       |  .             |                tag: 0x0 0x32-0x32.7 (1)
0x030|         01                                    |   .            |                n: 1 0x33-0x33.7 (1)
     |                                               |                |    [3]{}: section 0x34-0x26a.7 (567)
0x030|            07                                 |    .           |      id: "export section" (7) 0x34-0x34.7 (1)
0x030|               b4 04                           |     ..         |      size: 564 0x35-0x36.7 (2)
     |                                               |                |      content{}: 0x37-0x26a.7 (564)
     |                                               |                |        ex{}: 0x37-0x26a.7 (564)
0x030|                     1c                        |       .        |          n: 28 0x37-0x37.7 (1)
     |                                               |                |          x[0:28]: 0x38-0x26a.7 (563)
     |                                               |                |            [0]{}: ex 0x38-0x4a.7 (19)
     |                                               |                |              nm{}: 0x38-0x48.7 (17)
0x030|                        10                     |        .       |                n: 16 0x38-0x38.7 (1)
0x030|                           76 31 32 38 2e 6c 6f|         v128.lo|                b: "v128.load8_splat" 0x39-0x48.7 (16)
0x040|61 64 38 5f 73 70 6c 61 74                     |ad8_splat       |
     |                                               |                |              d{}: 0x49-0x4a.7 (2)
0x040|                           00                  |         .      |                tag: "funcidx" (0x0) 0x49-0x49.7 (1)
0x040|                              00               |          .     |                x: 0 0x4a-0x4a.7 (1)
     |                                               |                |            [1]{}: ex 0x4b-0x5e.7 (20)
     |                                               |                |              nm{}: 0x4b-0x5c.7 (18)
0x040|                                 11            |           .    |                n: 17 0x4b-0x4b.7 (1)
0x040|                                    76 31 32 38|            v128|                b: "v128.load16_splat" 0x4c-0x5c.7 (17)
0x050|2e 6c 6f 61 64 31 36 5f 73 70 6c 61 74         |.load16_splat   |
     |                                               |                |              d{}: 0x5d-0x5e.7 (2)
0x050|                                       00      |             .  |                tag: "funcidx" (0x0) 0x5d-0x5d.7 (1)
0x050|                                          01   |              . |                x: 1 0x5e-0x5e.7 (1)
     |                                               |                |            [2]{}: ex 0x5f-0x72.7 (20)
     |                                               |                |              nm{}: 0x5f-0x70.7 (18)
0x050|                                             11|               .|                n: 17 0x5f-0x5f.7 (1)
0x060|76 31 32 38 2e 6c 6f 61 64 33 32 5f 73 70 6c 61|v128.load32_spla|                b: "v128.load32_splat" 0x60-0x70.7 (17)
0x070|74                                             |t               |
     |                                               |                |              d{}: 0x71-0x72.7 (2)
0x070|   00                                          | .              |                tag: "funcidx" (0x0) 0x71-0x71.7 (1)
0x070|      02                                       |  .             |                x: 2 0x72-0x72.7 (1)
     |                                               |                |            [3]{}: ex 0x73-0x86.7 (20)
     |                                               |                |              nm{}: 0x73-0x84.7 (18)
0x070|         11                                    |   .            |                n: 17 0x73-0x73.7 (1)
0x070|            76 31 32 38 2e 6c 6f 61 64 36 34 5f|    v128.load64_|                b: "v128.load64_splat" 0x74-0x84.7 (17)
0x080|73 70 6c 61 74                                 |splat           |
     |                                               |                |              d{}: 0x85-0x86.7 (2)
0x080|               00                              |     .          |                tag: "funcidx" (0x0) 0x85-0x85.7 (1)
0x080|                  03                           |      .         |                x: 3 0x86-0x86.7 (1)
     |                                               |                |            [4]{}: ex 0x87-0x96.7 (16)
     |                                               |                |              nm{}: 0x87-0x94.7 (14)
0x080|                     0d                        |       .        |                n: 13 0x87-0x87.7 (1)
0x080|                        76 38 78 31 36 2e 6f 66|        v8x16.of|                b: "v8x16.offset0" 0x88-0x94.7 (13)
0x090|66 73 65 74 30                                 |fset0           |
     |                                               |                |              d{}: 0x95-0x96.7 (2)
0x090|               00                              |     .          |                tag: "funcidx" (0x0) 0x95-0x95.7 (1)
0x090|                  04                           |      .         |                x: 4 0x96-0x96.7 (1)
     |                                               |                |            [5]{}: ex 0x97-0xa5.7 (15)
     |                                               |                |              nm{}: 0x97-0xa3.7 (13)
0x090|                     0c                        |       .        |                n: 12 0x97-0x97.7 (1)
0x090|                        76 38 78 31 36 2e 61 6c|        v8x16.al|                b: "v8x16.align1" 0x98-0xa3.7 (12)
0x0a0|69 67 6e 31                                    |ign1            |
     |                                               |                |              d{}: 0xa4-0xa5.7 (2)
0x0a0|            00                                 |    .           |                tag: "funcidx" (0x0) 0xa4-0xa4.7 (1)
0x0a0|               05                              |     .          |                x: 5 0xa5-0xa5.7 (1)
     |                                               |                |            [6]{}: ex 0xa6-0xbc.7 (23)
     |                                               |                |              nm{}: 0xa6-0xba.7 (21)
0x0a0|                  14                           |      .         |                n: 20 0xa6-0xa6.7 (1)
0x0a0|                     76 38 78 31 36 2e 6f 66 66|       v8x16.off|                b: "v8x16.offset1_align1" 0xa7-0xba.7 (20)
0x0b0|73 65 74 31 5f 61 6c 69 67 6e 31               |set1_align1     |
     |                                               |                |              d{}: 0xbb-0xbc.7 (2)
0x0b0|                                 00            |           .    |                tag: "funcidx" (0x0) 0xbb-0xbb.7 (1)
0x0b0|                                    06         |            .   |                x: 6 0xbc-0xbc.7 (1)
     |                                               |                |            [7]{}: ex 0xbd-0xd3.7 (23)
     |                                               |                |              nm{}: 0xbd-0xd1.7 (21)
0x0b0|                                       14      |             .  |                n: 20 0xbd-0xbd.7 (1)
0x0b0|                                          76 38|              v8|                b: "v8x16.offset2_align1" 0xbe-0xd1.7 (20)
0x0c0|78 31 36 2e 6f 66 66 73 65 74 32 5f 61 6c 69 67|x16.offset2_alig|
0x0d0|6e 31                                          |n1              |
     |                                               |                |              d{}: 0xd2-0xd3.7 (2)
0x0d0|      00                                       |  .             |                tag: "funcidx" (0x0) 0xd2-0xd2.7 (1)
0x0d0|         07                                    |   .            |                x: 7 0xd3-0xd3.7 (1)
     |                                               |                |            [8]{}: ex 0xd4-0xeb.7 (24)
     |                                               |                |              nm{}: 0xd4-0xe9.7 (22)
0x0d0|            15                                 |    .           |                n: 21 0xd4-0xd4.7 (1)
0x0d0|               76 38 78 31 36 2e 6f 66 66 73 65|     v8x16.offse|                b: "v8x16.offset15_align1" 0xd5-0xe9.7 (21)
0x0e0|74 31 35 5f 61 6c 69 67 6e 31                  |t15_align1      |
     |                                               |                |              d{}: 0xea-0xeb.7 (2)
0x0e0|                              00               |          .     |                tag: "funcidx" (0x0) 0xea-0xea.7 (1)
0x0e0|                                 08            |           .    |                x: 8 0xeb-0xeb.7 (1)
     |                                               |                |            [9]{}: ex 0xec-0xfb.7 (16)
     |                                               |                |              nm{}: 0xec-0xf9.7 (14)
0x0e0|                                    0d         |            .   |                n: 13 0xec-0xec.7 (1)
0x0e0|                                       76 31 36|             v16|                b: "v16x8.offset0" 0xed-0xf9.7 (13)
0x0f0|78 38 2e 6f 66 66 73 65 74 30                  |x8.offset0      |
     |                                               |                |              d{}: 0xfa-0xfb.7 (2)
0x0f0|                              00               |          .     |                tag: "funcidx" (0x0) 0xfa-0xfa.7 (1)
0x0f0|                                 09            |           .    |                x: 9 0xfb-0xfb.7 (1)
     |                                               |                |            [10]{}: ex 0xfc-0x10a.7 (15)
     |                                               |                |              nm{}: 0xfc-0x108.7 (13)
0x0f0|                                    0c         |            .   |                n: 12 0xfc-0xfc.7 (1)
0x0f0|                                       76 31 36|             v16|                b: "v16x8.align1" 0xfd-0x108.7 (12)
0x100|78 38 2e 61 6c 69 67 6e 31                     |x8.align1       |
     |                                               |                |              d{}: 0x109-0x10a.7 (2)
0x100|                           00                  |         .      |                tag: "funcidx" (0x0) 0x109-0x109.7 (1)
0x100|                              0a               |          .     |                x: 10 0x10a-0x10a.7 (1)
     |                                               |                |            [11]{}: ex 0x10b-0x121.7 (23)
     |                                               |                |              nm{}: 0x10b-0x11f.7 (21)
0x100|                                 14            |           .    |                n: 20 0x10b-0x10b.7 (1)
0x100|                                    76 31 36 78|            v16x|                b: "v16x8.offset1_align1" 0x10c-0x11f.7 (20)
0x110|38 2e 6f 66 66 73 65 74 31 5f 61 6c 69 67 6e 31|8.offset1_align1|
     |                                               |                |              d{}: 0x120-0x121.7 (2)
0x120|00                                             |.               |                tag: "funcidx" (0x0) 0x120-0x120.7 (1)
0x120|   0b                                          | .              |                x: 11 0x121-0x121.7 (1)
     |                                               |                |            [12]{}: ex 0x122-0x138.7 (23)
     |                                               |                |              nm{}: 0x122-0x136.7 (21)
0x120|      14                                       |  .             |                n: 20 0x122-0x122.7 (1)
0x120|         76 31 36 78 38 2e 6f 66 66 73 65 74 32|   v16x8.offset2|                b: "v16x8.offset2_align1" 0x123-0x136.7 (20)
0x130|5f 61 6c 69 67 6e 31                           |_align1         |
     |                                               |                |              d{}: 0x137-0x138.7 (2)
0x130|                     00                        |       .        |                tag: "funcidx" (0x0) 0x137-0x137.7 (1)
0x130|                        0c                     |        .       |                x: 12 0x138-0x138.7 (1)
     |                                               |                |            [13]{}: ex 0x139-0x150.7 (24)
     |                                               |                |              nm{}: 0x139-0x14e.7 (22)
0x130|                           15                  |         .      |                n: 21 0x139-0x139.7 (1)
0x130|                              76 31 36 78 38 2e|          v16x8.|                b: "v16x8.offset15_align2" 0x13a-0x14e.7 (21)
0x140|6f 66 66 73 65 74 31 35 5f 61 6c 69 67 6e 32   |offset15_align2 |
     |                                               |                |              d{}: 0x14f-0x150.7 (2)
0x140|                                             00|               .|                tag: "funcidx" (0x0) 0x14f-0x14f.7 (1)
0x150|0d                                             |.               |                x: 13 0x150-0x150.7 (1)
     |                                               |                |            [14]{}: ex 0x151-0x160.7 (16)
     |                                               |                |              nm{}: 0x151-0x15e.7 (14)
0x150|   0d                                          | .              |                n: 13 0x151-0x151.7 (1)
0x150|      76 33 32 78 34 2e 6f 66 66 73 65 74 30   |  v32x4.offset0 |                b: "v32x4.offset0" 0x152-0x15e.7 (13)
     |                                               |                |              d{}: 0x15f-0x160.7 (2)
0x150|                                             00|               .|                tag: "funcidx" (0x0) 0x15f-0x15f.7 (1)
0x160|0e                                             |.               |                x: 14 0x160-0x160.7 (1)
     |                                               |                |            [15]{}: ex 0x161-0x16f.7 (15)
     |                                               |                |              nm{}: 0x161-0x16d.7 (13)
0x160|   0c                                          | .              |                n: 12 0x161-0x161.7 (1)
0x160|      76 33 32 78 34 2e 61 6c 69 67 6e 31      |  v32x4.align1  |                b: "v32x4.align1" 0x162-0x16d.7 (12)
     |                                               |                |              d{}: 0x16e-0x16f.7 (2)
0x160|                                          00   |              . |                tag: "funcidx" (0x0) 0x16e-0x16e.7 (1)
0x160|                                             0f|               .|                x: 15 0x16f-0x16f.7 (1)
     |                                               |                |            [16]{}: ex 0x170-0x186.7 (23)
     |                                               |                |              nm{}: 0x170-0x184.7 (21)
0x170|14                                             |.               |                n: 20 0x170-0x170.7 (1)
0x170|   76 33 32 78 34 2e 6f 66 66 73 65 74 31 5f 61| v32x4.offset1_a|                b: "v32x4.offset1_align1" 0x171-0x184.7 (20)
0x180|6c 69 67 6e 31                                 |lign1           |
     |                                               |                |              d{}: 0x185-0x186.7 (2)
0x180|               00                              |     .          |                tag: "funcidx" (0x0) 0x185-0x185.7 (1)
0x180|                  10                           |      .         |                x: 16 0x186-0x186.7 (1)
     |                                               |                |            [17]{}: ex 0x187-0x19d.7 (23)
     |                                               |                |              nm{}: 0x187-0x19b.7 (21)
0x180|                     14                        |       .        |                n: 20 0x187-0x187.7 (1)
0x180|                        76 33 32 78 34 2e 6f 66|        v32x4.of|                b: "v32x4.offset2_align2" 0x188-0x19b.7 (20)
0x190|66 73 65 74 32 5f 61 6c 69 67 6e 32            |fset2_align2    |
     |                                               |                |              d{}: 0x19c-0x19d.7 (2)
0x190|                                    00         |            .   |                tag: "funcidx" (0x0) 0x19c-0x19c.7 (1)
0x190|                                       11      |             .  |                x: 17 0x19d-0x19d.7 (1)
     |                                               |                |            [18]{}: ex 0x19e-0x1b5.7 (24)
     |                                               |                |              nm{}: 0x19e-0x1b3.7 (22)
0x190|                                          15   |              . |                n: 21 0x19e-0x19e.7 (1)
0x190|                                             76|               v|                b: "v32x4.offset15_align4" 0x19f-0x1b3.7 (21)
0x1a0|33 32 78 34 2e 6f 66 66 73 65 74 31 35 5f 61 6c|32x4.offset15_al|
0x1b0|69 67 6e 34                                    |ign4            |
     |                                               |                |              d{}: 0x1b4-0x1b5.7 (2)
0x1b0|            00                                 |    .           |                tag: "funcidx" (0x0) 0x1b4-0x1b4.7 (1)
0x1b0|               12                              |     .          |                x: 18 0x1b5-0x1b5.7 (1)
     |                                               |                |            [19]{}: ex 0x1b6-0x1c5.7 (16)
     |                                               |                |              nm{}: 0x1b6-0x1c3.7 (14)
0x1b0|                  0d                           |      .         |                n: 13 0x1b6-0x1b6.7 (1)
0x1b0|                     76 36 34 78 32 2e 6f 66 66|       v64x2.off|                b: "v64x2.offset0" 0x1b7-0x1c3.7 (13)
0x1c0|73 65 74 30                                    |set0            |
     |                                               |                |              d{}: 0x1c4-0x1c5.7 (2)
0x1c0|            00                                 |    .           |                tag: "funcidx" (0x0) 0x1c4-0x1c4.7 (1)
0x1c0|               13                              |     .          |                x: 19 0x1c5-0x1c5.7 (1)
     |                                               |                |            [20]{}: ex 0x1c6-0x1d4.7 (15)
     |                                               |                |              nm{}: 0x1c6-0x1d2.7 (13)
0x1c0|                  0c                           |      .         |                n: 12 0x1c6-0x1c6.7 (1)
0x1c0|                     76 36 34 78 32 2e 61 6c 69|       v64x2.ali|                b: "v64x2.align1" 0x1c7-0x1d2.7 (12)
0x1d0|67 6e 31                                       |gn1             |
     |                                               |                |              d{}: 0x1d3-0x1d4.7 (2)
0x1d0|         00                                    |   .            |                tag: "funcidx" (0x0) 0x1d3-0x1d3.7 (1)
0x1d0|            14                                 |    .           |                x: 20 0x1d4-0x1d4.7 (1)
     |                                               |                |            [21]{}: ex 0x1d5-0x1eb.7 (23)
     |                                               |                |              nm{}: 0x1d5-0x1e9.7 (21)
0x1d0|               14                              |     .          |                n: 20 0x1d5-0x1d5.7 (1)
0x1d0|                  76 36 34 78 32 2e 6f 66 66 73|      v64x2.offs|                b: "v64x2.offset1_align2" 0x1d6-0x1e9.7 (20)
0x1e0|65 74 31 5f 61 6c 69 67 6e 32                  |et1_align2      |
     |                                               |                |              d{}: 0x1ea-0x1eb.7 (2)
0x1e0|                              00               |          .     |                tag: "funcidx" (0x0) 0x1ea-0x1ea.7 (1)
0x1e0|                                 15            |           .    |                x: 21 0x1eb-0x1eb.7 (1)
     |                                               |                |            [22]{}: ex 0x1ec-0x202.7 (23)
     |                                               |                |              nm{}: 0x1ec-0x200.7 (21)
0x1e0|                                    14         |            .   |                n: 20 0x1ec-0x1ec.7 (1)
0x1e0|                                       76 36 34|             v64|                b: "v64x2.offset2_align4" 0x1ed-0x200.7 (20)
0x1f0|78 32 2e 6f 66 66 73 65 74 32 5f 61 6c 69 67 6e|x2.offset2_align|
0x200|34                                             |4               |
     |                                               |                |              d{}: 0x201-0x202.7 (2)
0x200|   00                                          | .              |                tag: "funcidx" (0x0) 0x201-0x201.7 (1)
0x200|      16                                       |  .             |                x: 22 0x202-0x202.7 (1)
     |                                               |                |            [23]{}: ex 0x203-0x21a.7 (24)
     |                                               |                |              nm{}: 0x203-0x218.7 (22)
0x200|         15                                    |   .            |                n: 21 0x203-0x203.7 (1)
0x200|            76 36 34 78 32 2e 6f 66 66 73 65 74|    v64x2.offset|                b: "v64x2.offset15_align8" 0x204-0x218.7 (21)
0x210|31 35 5f 61 6c 69 67 6e 38                     |15_align8       |
     |                                               |                |              d{}: 0x219-0x21a.7 (2)
0x210|                           00                  |         .      |                tag: "funcidx" (0x0) 0x219-0x219.7 (1)
0x210|                              17               |          .     |                x: 23 0x21a-0x21a.7 (1)
     |                                               |                |            [24]{}: ex 0x21b-0x22e.7 (20)
     |                                               |                |              nm{}: 0x21b-0x22c.7 (18)
0x210|                                 11            |           .    |                n: 17 0x21b-0x21b.7 (1)
0x210|                                    76 38 78 31|            v8x1|                b: "v8x16.offset65536" 0x21c-0x22c.7 (17)
0x220|36 2e 6f 66 66 73 65 74 36 35 35 33 36         |6.offset65536   |
     |                                               |                |              d{}: 0x22d-0x22e.7 (2)
0x220|                                       00      |             .  |                tag: "funcidx" (0x0) 0x22d-0x22d.7 (1)
0x220|                                          18   |              . |                x: 24 0x22e-0x22e.7 (1)
     |                                               |                |            [25]{}: ex 0x22f-0x242.7 (20)
     |                                               |                |              nm{}: 0x22f-0x240.7 (18)
0x220|                                             11|               .|                n: 17 0x22f-0x22f.7 (1)
0x230|76 31 36 78 38 2e 6f 66 66 73 65 74 36 35 35 33|v16x8.offset6553|                b: "v16x8.offset65535" 0x230-0x240.7 (17)
0x240|35                                             |5               |
     |                                               |                |              d{}: 0x241-0x242.7 (2)
0x240|   00                                          | .              |                tag: "funcidx" (0x0) 0x241-0x241.7 (1)
0x240|      19                                       |  .             |                x: 25 0x242-0x242.7 (1)
     |                                               |                |            [26]{}: ex 0x243-0x256.7 (20)
     |                                               |                |              nm{}: 0x243-0x254.7 (18)
0x240|         11                                    |   .            |                n: 17 0x243-0x243.7 (1)
0x240|            76 33 32 78 34 2e 6f 66 66 73 65 74|    v32x4.offset|                b: "v32x4.offset65533" 0x244-0x254.7 (17)
0x250|36 35 35 33 33                                 |65533           |
     |                                               |                |              d{}: 0x255-0x256.7 (2)
0x250|               00                              |     .          |                tag: "funcidx" (0x0) 0x255-0x255.7 (1)
0x250|                  1a                           |      .         |                x: 26 0x256-0x256.7 (1)
     |                                               |                |            [27]{}: ex 0x257-0x26a.7 (20)
     |                                               |                |              nm{}: 0x257-0x268.7 (18)
0x250|                     11                        |       .        |                n: 17 0x257-0x257.7 (1)
0x250|                        76 36 34 78 32 2e 6f 66|        v64x2.of|                b: "v64x2.offset65529" 0x258-0x268.7 (17)
0x260|66 73 65 74 36 35 35 32 39                     |fset65529       |
     |                                               |                |              d{}: 0x269-0x26a.7 (2)
0x260|                           00                  |         .      |                tag: "funcidx" (0x0) 0x269-0x269.7 (1)
0x260|                              1b               |          .     |                x: 27 0x26a-0x26a.7 (1)
     |                                               |                |    [4]{}: section 0x26b-0x372.7 (264)
0x260|                                 0a            |           .    |      id: "code section" (10) 0x26b-0x26b.7 (1)
0x260|                                    85 02      |            ..  |      size: 261 0x26c-0x26d.7 (2)
     |                                               |                |      content{}: 0x26e-0x372.7 (261)
     |                                               |                |        code{}: 0x26e-0x372.7 (261)
0x260|                                          1c   |              . |          n: 28 0x26e-0x26e.7 (1)
     |                                               |                |          x[0:28]: 0x26f-0x372.7 (260)
     |                                               |                |            [0]{}: code 0x26f-0x277.7 (9)
0x260|                                             08|               .|              size: 8 0x26f-0x26f.7 (1)
     |                                               |                |              code{}: 0x270-0x277.7 (8)
     |                                               |                |                t{}: 0x270-0x270.7 (1)
0x270|00                                             |.               |                  n: 0 0x270-0x270.7 (1)
     |                                               |                |                  x[0:0]: 0x271-NA (0)
     |                                               |                |                e[0:3]: 0x271-0x277.7 (7)
     |                                               |                |                  [0]{}: in 0x271-0x272.7 (2)
0x270|   20                                          |                |                    local.get: 0x20 (valid) 0x271-0x271.7 (1)
0x270|      00                                       |  .             |                    x: 0 0x272-0x272.7 (1)
     |                                               |                |                  [1]{}: in 0x273-0x276.7 (4)
0x270|         fd                                    |   .            |                    prefix: 0xfd (valid) 0x273-0x273.7 (1)
0x270|            07                                 |    .           |                    v128.load8_splat: 7 (valid) 0x274-0x274.7 (1)
     |                                               |                |                    m{}: 0x275-0x276.7 (2)
0x270|               00                              |     .          |                      a: 0 0x275-0x275.7 (1)
0x270|                  00                           |      .         |                      o: 0 0x276-0x276.7 (1)
     |                                               |                |                  [2]{}: in 0x277-0x277.7 (1)
0x270|                     0b                        |       .        |                    end: 0xb (valid) 0x277-0x277.7 (1)
     |                                               |                |            [1]{}: code 0x278-0x280.7 (9)
0x270|                        08                     |        .       |              size: 8 0x278-0x278.7 (1)
     |                                               |                |              code{}: 0x279-0x280.7 (8)
     |                                               |                |                t{}: 0x279-0x279.7 (1)
0x270|                           00                  |         .      |                  n: 0 0x279-0x279.7 (1)
     |                                               |                |                  x[0:0]: 0x27a-NA (0)
     |                                               |                |                e[0:3]: 0x27a-0x280.7 (7)
     |                                               |                |                  [0]{}: in 0x27a-0x27b.7 (2)
0x270|                              20               |                |                    local.get: 0x20 (valid) 0x27a-0x27a.7 (1)
0x270|                                 00            |           .    |                    x: 0 0x27b-0x27b.7 (1)
     |                                               |                |                  [1]{}: in 0x27c-0x27f.7 (4)
0x270|                                    fd         |            .   |                    prefix: 0xfd (valid) 0x27c-0x27c.7 (1)
0x270|                                       08      |             .  |                    v128.load16_splat: 8 (valid) 0x27d-0x27d.7 (1)
     |                                               |                |                    m{}: 0x27e-0x27f.7 (2)
0x270|                                          01   |              . |                      a: 1 0x27e-0x27e.7 (1)
0x270|                                             00|               .|                      o: 0 0x27f-0x27f.7 (1)
     |                                               |                |                  [2]{}: in 0x280-0x280.7 (1)
0x280|0b                                             |.               |                    end: 0xb (valid) 0x280-0x280.7 (1)
     |                                               |                |            [2]{}: code 0x281-0x289.7 (9)
0x280|   08                                          | .              |              size: 8 0x281-0x281.7 (1)
     |                                               |                |              code{}: 0x282-0x289.7 (8)
     |                                               |                |                t{}: 0x282-0x282.7 (1)
0x280|      00                                       |  .             |                  n: 0 0x282-0x282.7 (1)
     |                                               |                |                  x[0:0]: 0x283-NA (0)
     |                                               |                |                e[0:3]: 0x283-0x289.7 (7)
     |                                               |                |                  [0]{}: in 0x283-0x284.7 (2)
0x280|         20                                    |                |                    local.get: 0x20 (valid) 0x283-0x283.7 (1)
0x280|            00                                 |    .           |                    x: 0 0x284-0x284.7 (1)
     |                                               |                |                  [1]{}: in 0x285-0x288.7 (4)
0x280|               fd                              |     .          |                    prefix: 0xfd (valid) 0x285-0x285.7 (1)
0x280|                  09                           |      .         |                    v128.load32_splat: 9 (valid) 0x286-0x286.7 (1)
     |                                               |                |                    m{}: 0x287-0x288.7 (2)
0x280|                     02                        |       .        |                      a: 2 0x287-0x287.7 (1)
0x280|                        00                     |        .       |                      o: 0 0x288-0x288.7 (1)
     |                                               |                |                  [2]{}: in 0x289-0x289.7 (1)
0x280|                           0b                  |         .      |                    end: 0xb (valid) 0x289-0x289.7 (1)
     |                                               |                |            [3]{}: code 0x28a-0x292.7 (9)
0x280|                              08               |          .     |              size: 8 0x28a-0x28a.7 (1)
     |                                               |                |              code{}: 0x28b-0x292.7 (8)
     |                                               |                |                t{}: 0x28b-0x28b.7 (1)
0x280|                                 00            |           .    |                  n: 0 0x28b-0x28b.7 (1)
     |                                               |                |                  x[0:0]: 0x28c-NA (0)
     |                                               |                |                e[0:3]: 0x28c-0x292.7 (7)
     |                                               |                |                  [0]{}: in 0x28c-0x28d.7 (2)
0x280|                                    20         |                |                    local.get: 0x20 (valid) 0x28c-0x28c.7 (1)
0x280|                                       00      |             .  |                    x: 0 0x28d-0x28d.7 (1)
     |                                               |                |                  [1]{}: in 0x28e-0x291.7 (4)
0x280|                                          fd   |              . |                    prefix: 0xfd (valid) 0x28e-0x28e.7 (1)
0x280|                                             0a|               .|                    v128.load64_splat: 10 (valid) 0x28f-0x28f.7 (1)
     |                                               |                |                    m{}: 0x290-0x291.7 (2)
0x290|03                                             |.               |                      a: 3 0x290-0x290.7 (1)
0x290|   00                                          | .              |                      o: 0 0x291-0x291.7 (1)
     |                                               |                |                  [2]{}: in 0x292-0x292.7 (1)
0x290|      0b                                       |  .             |                    end: 0xb (valid) 0x292-0x292.7 (1)
     |                                               |                |            [4]{}: code 0x293-0x29b.7 (9)
0x290|         08                                    |   .            |              size: 8 0x293-0x293.7 (1)
     |                                               |                |              code{}: 0x294-0x29b.7 (8)
     |                                               |                |                t{}: 0x294-0x294.7 (1)
0x290|            00                                 |    .           |                  n: 0 0x294-0x294.7 (1)
     |                                               |                |                  x[0:0]: 0x295-NA (0)
     |                                               |                |                e[0:3]: 0x295-0x29b.7 (7)
     |                                               |                |                  [0]{}: in 0x295-0x296.7 (2)
0x290|               20                              |                |                    local.get: 0x20 (valid) 0x295-0x295.7 (1)
0x290|                  00                           |      .         |                    x: 0 0x296-0x296.7 (1)
     |                                               |                |                  [1]{}: in 0x297-0x29a.7 (4)
0x290|                     fd                        |       .        |                    prefix: 0xfd (valid) 0x297-0x297.7 (1)
0x290|                        07                     |        .       |                    v128.load8_splat: 7 (valid) 0x298-0x298.7 (1)
     |                                               |                |                    m{}: 0x299-0x29a.7 (2)
0x290|                           00                  |         .      |                      a: 0 0x299-0x299.7 (1)
0x290|                              00               |          .     |                      o: 0 0x29a-0x29a.7 (1)
     |                                               |                |                  [2]{}: in 0x29b-0x29b.7 (1)
0x290|                                 0b            |           .    |                    end: 0xb (valid) 0x29b-0x29b.7 (1)
     |                                               |                |            [5]{}: code 0x29c-0x2a4.7 (9)
0x290|                                    08         |            .   |              size: 8 0x29c-0x29c.7 (1)
     |                                               |                |              code{}: 0x29d-0x2a4.7 (8)
     |                                               |                |                t{}: 0x29d-0x29d.7 (1)
0x290|                                       00      |             .  |                  n: 0 0x29d-0x29d.7 (1)
     |                                               |                |                  x[0:0]: 0x29e-NA (0)
     |                                               |                |                e[0:3]: 0x29e-0x2a4.7 (7)
     |                                               |                |                  [0]{}: in 0x29e-0x29f.7 (2)
0x290|                                          20   |                |                    local.get: 0x20 (valid) 0x29e-0x29e.7 (1)
0x290|                                             00|               .|                    x: 0 0x29f-0x29f.7 (1)
     |                                               |                |                  [1]{}: in 0x2a0-0x2a3.7 (4)
0x2a0|fd                                             |.               |                    prefix: 0xfd (valid) 0x2a0-0x2a0.7 (1)
0x2a0|   07                                          | .              |                    v128.load8_splat: 7 (valid) 0x2a1-0x2a1.7 (1)
     |                                               |                |                    m{}: 0x2a2-0x2a3.7 (2)
0x2a0|      00                                       |  .             |                      a: 0 0x2a2-0x2a2.7 (1)
0x2a0|         00                                    |   .            |                      o: 0 0x2a3-0x2a3.7 (1)
     |                                               |                |                  [2]{}: in 0x2a4-0x2a4.7 (1)
0x2a0|            0b                                 |    .           |                    end: 0xb (valid) 0x2a4-0x2a4.7 (1)
     |                                               |                |            [6]{}: code 0x2a5-0x2ad.7 (9)
0x2a0|               08                              |     .          |              size: 8 0x2a5-0x2a5.7 (1)
     |                                               |                |              code{}: 0x2a6-0x2ad.7 (8)
     |                                               |                |                t{}: 0x2a6-0x2a6.7 (1)
0x2a0|                  00                           |      .         |                  n: 0 0x2a6-0x2a6.7 (1)
     |                                               |                |                  x[0:0]: 0x2a7-NA (0)
     |                                               |                |                e[0:3]: 0x2a7-0x2ad.7 (7)
     |                                               |                |                  [0]{}: in 0x2a7-0x2a8.7 (2)
0x2a0|                     20                        |                |                    local.get: 0x20 (valid) 0x2a7-0x2a7.7 (1)
0x2a0|                        00                     |        .       |                    x: 0 0x2a8-0x2a8.7 (1)
     |                                               |                |                  [1]{}: in 0x2a9-0x2ac.7 (4)
0x2a0|                           fd                  |         .      |                    prefix: 0xfd (valid) 0x2a9-0x2a9.7 (1)
0x2a0|                              07               |          .     |                    v128.load8_splat: 7 (valid) 0x2aa-0x2aa.7 (1)
     |                                               |                |                    m{}: 0x2ab-0x2ac.7 (2)
0x2a0|                                 00            |           .    |                      a: 0 0x2ab-0x2ab.7 (1)
0x2a0|                                    01         |            .   |                      o: 1 0x2ac-0x2ac.7 (1)
     |                                               |                |                  [2]{}: in 0x2ad-0x2ad.7 (1)
0x2a0|                                       0b      |             .  |                    end: 0xb (valid) 0x2ad-0x2ad.7 (1)
     |                                               |                |            [7]{}: code 0x2ae-0x2b6.7 (9)
0x2a0|                                          08   |              . |              size: 8 0x2ae-0x2ae.7 (1)
     |                                               |                |              code{}: 0x2af-0x2b6.7 (8)
     |                                               |                |                t{}: 0x2af-0x2af.7 (1)
0x2a0|                                             00|               .|                  n: 0 0x2af-0x2af.7 (1)
     |                                               |                |                  x[0:0]: 0x2b0-NA (0)
     |                                               |                |                e[0:3]: 0x2b0-0x2b6.7 (7)
     |                                               |                |                  [0]{}: in 0x2b0-0x2b1.7 (2)
0x2b0|20                                             |                |                    local.get: 0x20 (valid) 0x2b0-0x2b0.7 (1)
0x2b0|   00                                          | .              |                    x: 0 0x2b1-0x2b1.7 (1)
     |                                               |                |                  [1]{}: in 0x2b2-0x2b5.7 (4)
0x2b0|      fd                                       |  .             |                    prefix: 0xfd (valid) 0x2b2-0x2b2.7 (1)
0x2b0|         07                                    |   .            |                    v128.load8_splat: 7 (valid) 0x2b3-0x2b3.7 (1)
     |                                               |                |                    m{}: 0x2b4-0x2b5.7 (2)
0x2b0|            00                                 |    .           |                      a: 0 0x2b4-0x2b4.7 (1)
0x2b0|               02                              |     .          |                      o: 2 0x2b5-0x2b5.7 (1)
     |                                               |                |                  [2]{}: in 0x2b6-0x2b6.7 (1)
0x2b0|                  0b                           |      .         |                    end: 0xb (valid) 0x2b6-0x2b6.7 (1)
     |                                               |                |            [8]{}: code 0x2b7-0x2bf.7 (9)
0x2b0|                     08                        |       .        |              size: 8 0x2b7-0x2b7.7 (1)
     |                                               |                |              code{}: 0x2b8-0x2bf.7 (8)
     |                                               |                |                t{}: 0x2b8-0x2b8.7 (1)
0x2b0|                        00                     |        .       |                  n: 0 0x2b8-0x2b8.7 (1)
     |                                               |                |                  x[0:0]: 0x2b9-NA (0)
     |                                               |                |                e[0:3]: 0x2b9-0x2bf.7 (7)
     |                                               |                |                  [0]{}: in 0x2b9-0x2ba.7 (2)
0x2b0|                           20                  |                |                    local.get: 0x20 (valid) 0x2b9-0x2b9.7 (1)
0x2b0|                              00               |          .     |                    x: 0 0x2ba-0x2ba.7 (1)
     |                                               |                |                  [1]{}: in 0x2bb-0x2be.7 (4)
0x2b0|                                 fd            |           .    |                    prefix: 0xfd (valid) 0x2bb-0x2bb.7 (1)
0x2b0|                                    07         |            .   |                    v128.load8_splat: 7 (valid) 0x2bc-0x2bc.7 (1)
     |                                               |                |                    m{}: 0x2bd-0x2be.7 (2)
0x2b0|                                       00      |             .  |                      a: 0 0x2bd-0x2bd.7 (1)
0x2b0|                                          0f   |              . |                      o: 15 0x2be-0x2be.7 (1)
     |                                               |                |                  [2]{}: in 0x2bf-0x2bf.7 (1)
0x2b0|                                             0b|               .|                    end: 0xb (valid) 0x2bf-0x2bf.7 (1)
     |                                               |                |            [9]{}: code 0x2c0-0x2c8.7 (9)
0x2c0|08                                             |.               |              size: 8 0x2c0-0x2c0.7 (1)
     |                                               |                |              code{}: 0x2c1-0x2c8.7 (8)
     |                                               |                |                t{}: 0x2c1-0x2c1.7 (1)
0x2c0|   00                                          | .              |                  n: 0 0x2c1-0x2c1.7 (1)
     |                                               |                |                  x[0:0]: 0x2c2-NA (0)
     |                                               |                |                e[0:3]: 0x2c2-0x2c8.7 (7)
     |                                               |                |                  [0]{}: in 0x2c2-0x2c3.7 (2)
0x2c0|      20                                       |                |                    local.get: 0x20 (valid) 0x2c2-0x2c2.7 (1)
0x2c0|         00                                    |   .            |                    x: 0 0x2c3-0x2c3.7 (1)
     |                                               |                |                  [1]{}: in 0x2c4-0x2c7.7 (4)
0x2c0|            fd                                 |    .           |                    prefix: 0xfd (valid) 0x2c4-0x2c4.7 (1)
0x2c0|               08                              |     .          |                    v128.load16_splat: 8 (valid) 0x2c5-0x2c5.7 (1)
     |                                               |                |                    m{}: 0x2c6-0x2c7.7 (2)
0x2c0|                  01                           |      .         |                      a: 1 0x2c6-0x2c6.7 (1)
0x2c0|                     00                        |       .        |                      o: 0 0x2c7-0x2c7.7 (1)
     |                                               |                |                  [2]{}: in 0x2c8-0x2c8.7 (1)
0x2c0|                        0b                     |        .       |                    end: 0xb (valid) 0x2c8-0x2c8.7 (1)
     |                                               |                |            [10]{}: code 0x2c9-0x2d1.7 (9)
0x2c0|                           08                  |         .      |              size: 8 0x2c9-0x2c9.7 (1)
     |                                               |                |              code{}: 0x2ca-0x2d1.7 (8)
     |                                               |                |                t{}: 0x2ca-0x2ca.7 (1)
0x2c0|                              00               |          .     |                  n: 0 0x2ca-0x2ca.7 (1)
     |                                               |                |                  x[0:0]: 0x2cb-NA (0)
     |                                               |                |                e[0:3]: 0x2cb-0x2d1.7 (7)
     |                                               |                |                  [0]{}: in 0x2cb-0x2cc.7 (2)
0x2c0|                                 20            |                |                    local.get: 0x20 (valid) 0x2cb-0x2cb.7 (1)
0x2c0|                                    00         |            .   |                    x: 0 0x2cc-0x2cc.7 (1)
     |                                               |                |                  [1]{}: in 0x2cd-0x2d0.7 (4)
0x2c0|                                       fd      |             .  |                    prefix: 0xfd (valid) 0x2cd-0x2cd.7 (1)
0x2c0|                                          08   |              . |                    v128.load16_splat: 8 (valid) 0x2ce-0x2ce.7 (1)
     |                                               |                |                    m{}: 0x2cf-0x2d0.7 (2)
0x2c0|                                             00|               .|                      a: 0 0x2cf-0x2cf.7 (1)
0x2d0|00                                             |.               |                      o: 0 0x2d0-0x2d0.7 (1)
     |                                               |                |                  [2]{}: in 0x2d1-0x2d1.7 (1)
0x2d0|   0b                                          | .              |                    end: 0xb (valid) 0x2d1-0x2d1.7 (1)
     |                                               |                |            [11]{}: code 0x2d2-0x2da.7 (9)
0x2d0|      08                                       |  .             |              size: 8 0x2d2-0x2d2.7 (1)
     |                                               |                |              code{}: 0x2d3-0x2da.7 (8)
     |                                               |                |                t{}: 0x2d3-0x2d3.7 (1)
0x2d0|         00                                    |   .            |                  n: 0 0x2d3-0x2d3.7 (1)
     |                                               |                |                  x[0:0]: 0x2d4-NA (0)
     |                                               |                |                e[0:3]: 0x2d4-0x2da.7 (7)
     |                                               |                |                  [0]{}: in 0x2d4-0x2d5.7 (2)
0x2d0|            20                                 |                |                    local.get: 0x20 (valid) 0x2d4-0x2d4.7 (1)
0x2d0|               00                              |     .          |                    x: 0 0x2d5-0x2d5.7 (1)
     |                                               |                |                  [1]{}: in 0x2d6-0x2d9.7 (4)
0x2d0|                  fd                           |      .         |                    prefix: 0xfd (valid) 0x2d6-0x2d6.7 (1)
0x2d0|                     08                        |       .        |                    v128.load16_splat: 8 (valid) 0x2d7-0x2d7.7 (1)
     |                                               |                |                    m{}: 0x2d8-0x2d9.7 (2)
0x2d0|                        00                     |        .       |                      a: 0 0x2d8-0x2d8.7 (1)
0x2d0|                           01                  |         .      |                      o: 1 0x2d9-0x2d9.7 (1)
     |                                               |                |                  [2]{}: in 0x2da-0x2da.7 (1)
0x2d0|                              0b               |          .     |                    end: 0xb (valid) 0x2da-0x2da.7 (1)
     |                                               |                |            [12]{}: code 0x2db-0x2e3.7 (9)
0x2d0|                                 08            |           .    |              size: 8 0x2db-0x2db.7 (1)
     |                                               |                |              code{}: 0x2dc-0x2e3.7 (8)
     |                                               |                |                t{}: 0x2dc-0x2dc.7 (1)
0x2d0|                                    00         |            .   |                  n: 0 0x2dc-0x2dc.7 (1)
     |                                               |                |                  x[0:0]: 0x2dd-NA (0)
     |                                               |                |                e[0:3]: 0x2dd-0x2e3.7 (7)
     |                                               |                |                  [0]{}: in 0x2dd-0x2de.7 (2)
0x2d0|                                       20      |                |                    local.get: 0x20 (valid) 0x2dd-0x2dd.7 (1)
0x2d0|                                          00   |              . |                    x: 0 0x2de-0x2de.7 (1)
     |                                               |                |                  [1]{}: in 0x2df-0x2e2.7 (4)
0x2d0|                                             fd|               .|                    prefix: 0xfd (valid) 0x2df-0x2df.7 (1)
0x2e0|08                                             |.               |                    v128.load16_splat: 8 (valid) 0x2e0-0x2e0.7 (1)
     |                                               |                |                    m{}: 0x2e1-0x2e2.7 (2)
0x2e0|   00                                          | .              |                      a: 0 0x2e1-0x2e1.7 (1)
0x2e0|      02                                       |  .             |                      o: 2 0x2e2-0x2e2.7 (1)
     |                                               |                |                  [2]{}: in 0x2e3-0x2e3.7 (1)
0x2e0|         0b                                    |   .            |                    end: 0xb (valid) 0x2e3-0x2e3.7 (1)
     |                                               |                |            [13]{}: code 0x2e4-0x2ec.7 (9)
0x2e0|            08                                 |    .           |              size: 8 0x2e4-0x2e4.7 (1)
     |                                               |                |              code{}: 0x2e5-0x2ec.7 (8)
     |                                               |                |                t{}: 0x2e5-0x2e5.7 (1)
0x2e0|               00                              |     .          |                  n: 0 0x2e5-0x2e5.7 (1)
     |                                               |                |                  x[0:0]: 0x2e6-NA (0)
     |                                               |                |                e[0:3]: 0x2e6-0x2ec.7 (7)
     |                                               |                |                  [0]{}: in 0x2e6-0x2e7.7 (2)
0x2e0|                  20                           |                |                    local.get: 0x20 (valid) 0x2e6-0x2e6.7 (1)
0x2e0|                     00                        |       .        |                    x: 0 0x2e7-0x2e7.7 (1)
     |                                               |                |                  [1]{}: in 0x2e8-0x2eb.7 (4)
0x2e0|                        fd                     |        .       |                    prefix: 0xfd (valid) 0x2e8-0x2e8.7 (1)
0x2e0|                           08                  |         .      |                    v128.load16_splat: 8 (valid) 0x2e9-0x2e9.7 (1)
     |                                               |                |                    m{}: 0x2ea-0x2eb.7 (2)
0x2e0|                              01               |          .     |                      a: 1 0x2ea-0x2ea.7 (1)
0x2e0|                                 0f            |           .    |                      o: 15 0x2eb-0x2eb.7 (1)
     |                                               |                |                  [2]{}: in 0x2ec-0x2ec.7 (1)
0x2e0|                                    0b         |            .   |                    end: 0xb (valid) 0x2ec-0x2ec.7 (1)
     |                                               |                |            [14]{}: code 0x2ed-0x2f5.7 (9)
0x2e0|                                       08      |             .  |              size: 8 0x2ed-0x2ed.7 (1)
     |                                               |                |              code{}: 0x2ee-0x2f5.7 (8)
     |                                               |                |                t{}: 0x2ee-0x2ee.7 (1)
0x2e0|                                          00   |              . |                  n: 0 0x2ee-0x2ee.7 (1)
     |                                               |                |                  x[0:0]: 0x2ef-NA (0)
     |                                               |                |                e[0:3]: 0x2ef-0x2f5.7 (7)
     |                                               |                |                  [0]{}: in 0x2ef-0x2f0.7 (2)
0x2e0|                                             20|                |                    local.get: 0x20 (valid) 0x2ef-0x2ef.7 (1)
0x2f0|00                                             |.               |                    x: 0 0x2f0-0x2f0.7 (1)
     |                                               |                |                  [1]{}: in 0x2f1-0x2f4.7 (4)
0x2f0|   fd                                          | .              |                    prefix: 0xfd (valid) 0x2f1-0x2f1.7 (1)
0x2f0|      09                                       |  .             |                    v128.load32_splat: 9 (valid) 0x2f2-0x2f2.7 (1)
     |                                               |                |                    m{}: 0x2f3-0x2f4.7 (2)
0x2f0|         02                                    |   .            |                      a: 2 0x2f3-0x2f3.7 (1)
0x2f0|            00                                 |    .           |                      o: 0 0x2f4-0x2f4.7 (1)
     |                                               |                |                  [2]{}: in 0x2f5-0x2f5.7 (1)
0x2f0|               0b                              |     .          |                    end: 0xb (valid) 0x2f5-0x2f5.7 (1)
     |                                               |                |            [15]{}: code 0x2f6-0x2fe.7 (9)
0x2f0|                  08                           |      .         |              size: 8 0x2f6-0x2f6.7 (1)
     |                                               |                |              code{}: 0x2f7-0x2fe.7 (8)
     |                                               |                |                t{}: 0x2f7-0x2f7.7 (1)
0x2f0|                     00                        |       .        |                  n: 0 0x2f7-0x2f7.7 (1)
     |                                               |                |                  x[0:0]: 0x2f8-NA (0)
     |                                               |                |                e[0:3]: 0x2f8-0x2fe.7 (7)
     |                                               |                |                  [0]{}: in 0x2f8-0x2f9.7 (2)
0x2f0|                        20                     |                |                    local.get: 0x20 (valid) 0x2f8-0x2f8.7 (1)
0x2f0|                           00                  |         .      |                    x: 0 0x2f9-0x2f9.7 (1)
     |                                               |                |                  [1]{}: in 0x2fa-0x2fd.7 (4)
0x2f0|                              fd               |          .     |                    prefix: 0xfd (valid) 0x2fa-0x2fa.7 (1)
0x2f0|                                 09            |           .    |                    v128.load32_splat: 9 (valid) 0x2fb-0x2fb.7 (1)
     |                                               |                |                    m{}: 0x2fc-0x2fd.7 (2)
0x2f0|                                    00         |            .   |                      a: 0 0x2fc-0x2fc.7 (1)
0x2f0|                                       00      |             .  |                      o: 0 0x2fd-0x2fd.7 (1)
     |                                               |                |                  [2]{}: in 0x2fe-0x2fe.7 (1)
0x2f0|                                          0b   |              . |                    end: 0xb (valid) 0x2fe-0x2fe.7 (1)
     |                                               |                |            [16]{}: code 0x2ff-0x307.7 (9)
0x2f0|                                             08|               .|              size: 8 0x2ff-0x2ff.7 (1)
     |                                               |                |              code{}: 0x300-0x307.7 (8)
     |                                               |                |                t{}: 0x300-0x300.7 (1)
0x300|00                                             |.               |                  n: 0 0x300-0x300.7 (1)
     |                                               |                |                  x[0:0]: 0x301-NA (0)
     |                                               |                |                e[0:3]: 0x301-0x307.7 (7)
     |                                               |                |                  [0]{}: in 0x301-0x302.7 (2)
0x300|   20                                          |                |                    local.get: 0x20 (valid) 0x301-0x301.7 (1)
0x300|      00                                       |  .             |                    x: 0 0x302-0x302.7 (1)
     |                                               |                |                  [1]{}: in 0x303-0x306.7 (4)
0x300|         fd                                    |   .            |                    prefix: 0xfd (valid) 0x303-0x303.7 (1)
0x300|            09                                 |    .           |                    v128.load32_splat: 9 (valid) 0x304-0x304.7 (1)
     |                                               |                |                    m{}: 0x305-0x306.7 (2)
0x300|               00                              |     .          |                      a: 0 0x305-0x305.7 (1)
0x300|                  01                           |      .         |                      o: 1 0x306-0x306.7 (1)
     |                                               |                |                  [2]{}: in 0x307-0x307.7 (1)
0x300|                     0b                        |       .        |                    end: 0xb (valid) 0x307-0x307.7 (1)
     |                                               |                |            [17]{}: code 0x308-0x310.7 (9)
0x300|                        08                     |        .       |              size: 8 0x308-0x308.7 (1)
     |                                               |                |              code{}: 0x309-0x310.7 (8)
     |                                               |                |                t{}: 0x309-0x309.7 (1)
0x300|                           00                  |         .      |                  n: 0 0x309-0x309.7 (1)
     |                                               |                |                  x[0:0]: 0x30a-NA (0)
     |                                               |                |                e[0:3]: 0x30a-0x310.7 (7)
     |                                               |                |                  [0]{}: in 0x30a-0x30b.7 (2)
0x300|                              20               |                |                    local.get: 0x20 (valid) 0x30a-0x30a.7 (1)
0x300|                                 00            |           .    |                    x: 0 0x30b-0x30b.7 (1)
     |                                               |                |                  [1]{}: in 0x30c-0x30f.7 (4)
0x300|                                    fd         |            .   |                    prefix: 0xfd (valid) 0x30c-0x30c.7 (1)
0x300|                                       09      |             .  |                    v128.load32_splat: 9 (valid) 0x30d-0x30d.7 (1)
     |                                               |                |                    m{}: 0x30e-0x30f.7 (2)
0x300|                                          01   |              . |                      a: 1 0x30e-0x30e.7 (1)
0x300|                                             02|               .|                      o: 2 0x30f-0x30f.7 (1)
     |                                               |                |                  [2]{}: in 0x310-0x310.7 (1)
0x310|0b                                             |.               |                    end: 0xb (valid) 0x310-0x310.7 (1)
     |                                               |                |            [18]{}: code 0x311-0x319.7 (9)
0x310|   08                                          | .              |              size: 8 0x311-0x311.7 (1)
     |                                               |                |              code{}: 0x312-0x319.7 (8)
     |                                               |                |                t{}: 0x312-0x312.7 (1)
0x310|      00                                       |  .             |                  n: 0 0x312-0x312.7 (1)
     |                                               |                |                  x[0:0]: 0x313-NA (0)
     |                                               |                |                e[0:3]: 0x313-0x319.7 (7)
     |                                               |                |                  [0]{}: in 0x313-0x314.7 (2)
0x310|         20                                    |                |                    local.get: 0x20 (valid) 0x313-0x313.7 (1)
0x310|            00                                 |    .           |                    x: 0 0x314-0x314.7 (1)
     |                                               |                |                  [1]{}: in 0x315-0x318.7 (4)
0x310|               fd                              |     .          |                    prefix: 0xfd (valid) 0x315-0x315.7 (1)
0x310|                  09                           |      .         |                    v128.load32_splat: 9 (valid) 0x316-0x316.7 (1)
     |                                               |                |                    m{}: 0x317-0x318.7 (2)
0x310|                     02                        |       .        |                      a: 2 0x317-0x317.7 (1)
0x310|                        0f                     |        .       |                      o: 15 0x318-0x318.7 (1)
     |                                               |                |                  [2]{}: in 0x319-0x319.7 (1)
0x310|                           0b                  |         .      |                    end: 0xb (valid) 0x319-0x319.7 (1)
     |                                               |                |            [19]{}: code 0x31a-0x322.7 (9)
0x310|                              08               |          .     |              size: 8 0x31a-0x31a.7 (1)
     |                                               |                |              code{}: 0x31b-0x322.7 (8)
     |                                               |                |                t{}: 0x31b-0x31b.7 (1)
0x310|                                 00            |           .    |                  n: 0 0x31b-0x31b.7 (1)
     |                                               |                |                  x[0:0]: 0x31c-NA (0)
     |                                               |                |                e[0:3]: 0x31c-0x322.7 (7)
     |                                               |                |                  [0]{}: in 0x31c-0x31d.7 (2)
0x310|                                    20         |                |                    local.get: 0x20 (valid) 0x31c-0x31c.7 (1)
0x310|                                       00      |             .  |                    x: 0 0x31d-0x31d.7 (1)
     |                                               |                |                  [1]{}: in 0x31e-0x321.7 (4)
0x310|                                          fd   |              . |                    prefix: 0xfd (valid) 0x31e-0x31e.7 (1)
0x310|                                             0a|               .|                    v128.load64_splat: 10 (valid) 0x31f-0x31f.7 (1)
     |                                               |                |                    m{}: 0x320-0x321.7 (2)
0x320|03                                             |.               |                      a: 3 0x320-0x320.7 (1)
0x320|   00                                          | .              |                      o: 0 0x321-0x321.7 (1)
     |                                               |                |                  [2]{}: in 0x322-0x322.7 (1)
0x320|      0b                                       |  .             |                    end: 0xb (valid) 0x322-0x322.7 (1)
     |                                               |                |            [20]{}: code 0x323-0x32b.7 (9)
0x320|         08                                    |   .            |              size: 8 0x323-0x323.7 (1)
     |                                               |                |              code{}: 0x324-0x32b.7 (8)
     |                                               |                |                t{}: 0x324-0x324.7 (1)
0x320|            00                                 |    .           |                  n: 0 0x324-0x324.7 (1)
     |                                               |                |                  x[0:0]: 0x325-NA (0)
     |                                               |                |                e[0:3]: 0x325-0x32b.7 (7)
     |                                               |                |                  [0]{}: in 0x325-0x326.7 (2)
0x320|               20                              |                |                    local.get: 0x20 (valid) 0x325-0x325.7 (1)
0x320|                  00                           |      .         |                    x: 0 0x326-0x326.7 (1)
     |                                               |                |                  [1]{}: in 0x327-0x32a.7 (4)
0x320|                     fd                        |       .        |                    prefix: 0xfd (valid) 0x327-0x327.7 (1)
0x320|                        0a                     |        .       |                    v128.load64_splat: 10 (valid) 0x328-0x328.7 (1)
     |                                               |                |                    m{}: 0x329-0x32a.7 (2)
0x320|                           00                  |         .      |                      a: 0 0x329-0x329.7 (1)
0x320|                              00               |          .     |                      o: 0 0x32a-0x32a.7 (1)
     |                                               |                |                  [2]{}: in 0x32b-0x32b.7 (1)
0x320|                                 0b            |           .    |                    end: 0xb (valid) 0x32b-0x32b.7 (1)
     |                                               |                |            [21]{}: code 0x32c-0x334.7 (9)
0x320|                                    08         |            .   |              size: 8 0x32c-0x32c.7 (1)
     |                                               |                |              code{}: 0x32d-0x334.7 (8)
     |                                               |                |                t{}: 0x32d-0x32d.7 (1)
0x320|                                       00      |             .  |                  n: 0 0x32d-0x32d.7 (1)
     |                                               |                |                  x[0:0]: 0x32e-NA (0)
     |                                               |                |                e[0:3]: 0x32e-0x334.7 (7)
     |                                               |                |                  [0]{}: in 0x32e-0x32f.7 (2)
0x320|                                          20   |                |                    local.get: 0x20 (valid) 0x32e-0x32e.7 (1)
0x320|                                             00|               .|                    x: 0 0x32f-0x32f.7 (1)
     |                                               |                |                  [1]{}: in 0x330-0x333.7 (4)
0x330|fd                                             |.               |                    prefix: 0xfd (valid) 0x330-0x330.7 (1)
0x330|   0a                                          | .              |                    v128.load64_splat: 10 (valid) 0x331-0x331.7 (1)
     |                                               |                |                    m{}: 0x332-0x333.7 (2)
0x330|      01                                       |  .             |                      a: 1 0x332-0x332.7 (1)
0x330|         01                                    |   .            |                      o: 1 0x333-0x333.7 (1)
     |                                               |                |                  [2]{}: in 0x334-0x334.7 (1)
0x330|            0b                                 |    .           |                    end: 0xb (valid) 0x334-0x334.7 (1)
     |                                               |                |            [22]{}: code 0x335-0x33d.7 (9)
0x330|               08                              |     .          |              size: 8 0x335-0x335.7 (1)
     |                                               |                |              code{}: 0x336-0x33d.7 (8)
     |                                               |                |                t{}: 0x336-0x336.7 (1)
0x330|                  00                           |      .         |                  n: 0 0x336-0x336.7 (1)
     |                                               |                |                  x[0:0]: 0x337-NA (0)
     |                                               |                |                e[0:3]: 0x337-0x33d.7 (7)
     |                                               |                |                  [0]{}: in 0x337-0x338.7 (2)
0x330|                     20                        |                |                    local.get: 0x20 (valid) 0x337-0x337.7 (1)
0x330|                        00                     |        .       |                    x: 0 0x338-0x338.7 (1)
     |                                               |                |                  [1]{}: in 0x339-0x33c.7 (4)
0x330|                           fd                  |         .      |                    prefix: 0xfd (valid) 0x339-0x339.7 (1)
0x330|                              0a               |          .     |                    v128.load64_splat: 10 (valid) 0x33a-0x33a.7 (1)
     |                                               |                |                    m{}: 0x33b-0x33c.7 (2)
0x330|                                 02            |           .    |                      a: 2 0x33b-0x33b.7 (1)
0x330|                                    02         |            .   |                      o: 2 0x33c-0x33c.7 (1)
     |                                               |                |                  [2]{}: in 0x33d-0x33d.7 (1)
0x330|                                       0b      |             .  |                    end: 0xb (valid) 0x33d-0x33d.7 (1)
     |                                               |                |            [23]{}: code 0x33e-0x346.7 (9)
0x330|                                          08   |              . |              size: 8 0x33e-0x33e.7 (1)
     |                                               |                |              code{}: 0x33f-0x346.7 (8)
     |                                               |                |                t{}: 0x33f-0x33f.7 (1)
0x330|                                             00|               .|                  n: 0 0x33f-0x33f.7 (1)
     |                                               |                |                  x[0:0]: 0x340-NA (0)
     |                                               |                |                e[0:3]: 0x340-0x346.7 (7)
     |                                               |                |                  [0]{}: in 0x340-0x341.7 (2)
0x340|20                                             |                |                    local.get: 0x20 (valid) 0x340-0x340.7 (1)
0x340|   00                                          | .              |                    x: 0 0x341-0x341.7 (1)
     |                                               |                |                  [1]{}: in 0x342-0x345.7 (4)
0x340|      fd                                       |  .             |                    prefix: 0xfd (valid) 0x342-0x342.7 (1)
0x340|         0a                                    |   .            |                    v128.load64_splat: 10 (valid) 0x343-0x343.7 (1)
     |                                               |                |                    m{}: 0x344-0x345.7 (2)
0x340|            03                                 |    .           |                      a: 3 0x344-0x344.7 (1)
0x340|               0f                              |     .          |                      o: 15 0x345-0x345.7 (1)
     |                                               |                |                  [2]{}: in 0x346-0x346.7 (1)
0x340|                  0b                           |      .         |                    end: 0xb (valid) 0x346-0x346.7 (1)
     |                                               |                |            [24]{}: code 0x347-0x351.7 (11)
0x340|                     0a                        |       .        |              size: 10 0x347-0x347.7 (1)
     |                                               |                |              code{}: 0x348-0x351.7 (10)
     |                                               |                |                t{}: 0x348-0x348.7 (1)
0x340|                        00                     |        .       |                  n: 0 0x348-0x348.7 (1)
     |                                               |                |                  x[0:0]: 0x349-NA (0)
     |                                               |                |                e[0:3]: 0x349-0x351.7 (9)
     |                                               |                |                  [0]{}: in 0x349-0x34a.7 (2)
0x340|                           20                  |                |                    local.get: 0x20 (valid) 0x349-0x349.7 (1)
0x340|                              00               |          .     |                    x: 0 0x34a-0x34a.7 (1)
     |                                               |                |                  [1]{}: in 0x34b-0x350.7 (6)
0x340|                                 fd            |           .    |                    prefix: 0xfd (valid) 0x34b-0x34b.7 (1)
0x340|                                    07         |            .   |                    v128.load8_splat: 7 (valid) 0x34c-0x34c.7 (1)
     |                                               |                |                    m{}: 0x34d-0x350.7 (4)
0x340|                                       00      |             .  |                      a: 0 0x34d-0x34d.7 (1)
0x340|                                          80 80|              ..|                      o: 65536 0x34e-0x350.7 (3)
0x350|04                                             |.               |
     |                                               |                |                  [2]{}: in 0x351-0x351.7 (1)
0x350|   0b                                          | .              |                    end: 0xb (valid) 0x351-0x351.7 (1)
     |                                               |                |            [25]{}: code 0x352-0x35c.7 (11)
0x350|      0a                                       |  .             |              size: 10 0x352-0x352.7 (1)
     |                                               |                |              code{}: 0x353-0x35c.7 (10)
     |                                               |                |                t{}: 0x353-0x353.7 (1)
0x350|         00                                    |   .            |                  n: 0 0x353-0x353.7 (1)
     |                                               |                |                  x[0:0]: 0x354-NA (0)
     |                                               |                |                e[0:3]: 0x354-0x35c.7 (9)
     |                                               |                |                  [0]{}: in 0x354-0x355.7 (2)
0x350|            20                                 |                |                    local.get: 0x20 (valid) 0x354-0x354.7 (1)
0x350|               00                              |     .          |                    x: 0 0x355-0x355.7 (1)
     |                                               |                |                  [1]{}: in 0x356-0x35b.7 (6)
0x350|                  fd                           |      .         |                    prefix: 0xfd (valid) 0x356-0x356.7 (1)
0x350|                     08                        |       .        |                    v128.load16_splat: 8 (valid) 0x357-0x357.7 (1)
     |                                               |                |                    m{}: 0x358-0x35b.7 (4)
0x350|                        01                     |        .       |                      a: 1 0x358-0x358.7 (1)
0x350|                           ff ff 03            |         ...    |                      o: 65535 0x359-0x35b.7 (3)
     |                                               |                |                  [2]{}: in 0x35c-0x35c.7 (1)
0x350|                                    0b         |            .   |                    end: 0xb (valid) 0x35c-0x35c.7 (1)
     |                                               |                |            [26]{}: code 0x35d-0x367.7 (11)
0x350|                                       0a      |             .  |              size: 10 0x35d-0x35d.7 (1)
     |                                               |                |              code{}: 0x35e-0x367.7 (10)
     |                                               |                |                t{}: 0x35e-0x35e.7 (1)
0x350|                                          00   |              . |                  n: 0 0x35e-0x35e.7 (1)
     |                                               |                |                  x[0:0]: 0x35f-NA (0)
     |                                               |                |                e[0:3]: 0x35f-0x367.7 (9)
     |                                               |                |                  [0]{}: in 0x35f-0x360.7 (2)
0x350|                                             20|                |                    local.get: 0x20 (valid) 0x35f-0x35f.7 (1)
0x360|00                                             |.               |                    x: 0 0x360-0x360.7 (1)
     |                                               |                |                  [1]{}: in 0x361-0x366.7 (6)
0x360|   fd                                          | .              |                    prefix: 0xfd (valid) 0x361-0x361.7 (1)
0x360|      09                                       |  .             |                    v128.load32_splat: 9 (valid) 0x362-0x362.7 (1)
     |                                               |                |                    m{}: 0x363-0x366.7 (4)
0x360|         02                                    |   .            |                      a: 2 0x363-0x363.7 (1)
0x360|            fd ff 03                           |    ...         |                      o: 65533 0x364-0x366.7 (3)
     |                                               |                |                  [2]{}: in 0x367-0x367.7 (1)
0x360|                     0b                        |       .        |                    end: 0xb (valid) 0x367-0x367.7 (1)
     |                                               |                |            [27]{}: code 0x368-0x372.7 (11)
0x360|                        0a                     |        .       |              size: 10 0x368-0x368.7 (1)
     |                                               |                |              code{}: 0x369-0x372.7 (10)
     |                                               |                |                t{}: 0x369-0x369.7 (1)
0x360|                           00                  |         .      |                  n: 0 0x369-0x369.7 (1)
     |                                               |                |                  x[0:0]: 0x36a-NA (0)
     |                                               |                |                e[0:3]: 0x36a-0x372.7 (9)
     |                                               |                |                  [0]{}: in 0x36a-0x36b.7 (2)
0x360|                              20               |                |                    local.get: 0x20 (valid) 0x36a-0x36a.7 (1)
0x360|                                 00            |           .    |                    x: 0 0x36b-0x36b.7 (1)
     |                                               |                |                  [1]{}: in 0x36c-0x371.7 (6)
0x360|                                    fd         |            .   |                    prefix: 0xfd (valid) 0x36c-0x36c.7 (1)
0x360|                                       0a      |             .  |                    v128.load64_splat: 10 (valid) 0x36d-0x36d.7 (1)
     |                                               |                |                    m{}: 0x36e-0x371.7 (4)
0x360|                                          03   |              . |                      a: 3 0x36e-0x36e.7 (1)
0x360|                                             f9|               .|                      o: 65529 0x36f-0x371.7 (3)
0x370|ff 03                                          |..              |
     |                                               |                |                  [2]{}: in 0x372-0x372.7 (1)
0x370|      0b                                       |  .             |                    end: 0xb (valid) 0x372-0x372.7 (1)
     |                                               |                |    [5]{}: section 0x373-0x3a1.7 (47)
0x370|         0b                                    |   .            |      id: "data section" (11) 0x373-0x373.7 (1)
0x370|            2d                                 |    -           |      size: 45 0x374-0x374.7 (1)
     |                                               |                |      content{}: 0x375-0x3a1.7 (45)
     |                                               |                |        seg{}: 0x375-0x3a1.7 (45)
0x370|               02                              |     .          |          n: 2 0x375-0x375.7 (1)
     |                                               |                |          x[0:2]: 0x376-0x3a1.7 (44)
     |                                               |                |            [0]{}: seg 0x376-0x38a.7 (21)
0x370|                  00                           |      .         |              tag: 0 0x376-0x376.7 (1)
     |                                               |                |              e[0:2]: 0x377-0x379.7 (3)
     |                                               |                |                [0]{}: in 0x377-0x378.7 (2)
0x370|                     41                        |       A        |                  i32.const: 0x41 (valid) 0x377-0x377.7 (1)
0x370|                        00                     |        .       |                  n: 0 0x378-0x378.7 (1)
     |                                               |                |                [1]{}: in 0x379-0x379.7 (1)
0x370|                           0b                  |         .      |                  end: 0xb (valid) 0x379-0x379.7 (1)
     |                                               |                |              b{}: 0x37a-0x38a.7 (17)
0x370|                              10               |          .     |                n: 16 0x37a-0x37a.7 (1)
0x370|                                 00 01 02 03 04|           .....|                x: raw bits 0x37b-0x38a.7 (16)
0x380|05 06 07 08 09 0a 0b 0c 0d 0e 0f               |...........     |
     |                                               |                |            [1]{}: seg 0x38b-0x3a1.7 (23)
0x380|                                 00            |           .    |              tag: 0 0x38b-0x38b.7 (1)
     |                                               |                |              e[0:2]: 0x38c-0x390.7 (5)
     |                                               |                |                [0]{}: in 0x38c-0x38f.7 (4)
0x380|                                    41         |            A   |                  i32.const: 0x41 (valid) 0x38c-0x38c.7 (1)
0x380|                                       f0 ff 03|             ...|                  n: 65520 0x38d-0x38f.7 (3)
     |                                               |                |                [1]{}: in 0x390-0x390.7 (1)
0x390|0b                                             |.               |                  end: 0xb (valid) 0x390-0x390.7 (1)
     |                                               |                |              b{}: 0x391-0x3a1.7 (17)
0x390|   10                                          | .              |                n: 16 0x391-0x391.7 (1)
0x390|      10 11 12 13 14 15 16 17 18 19 1a 1b 1c 1d|  ..............|                x: raw bits 0x392-0x3a1.7 (16)
0x3a0|1e 1f|                                         |..|             |
