$ fq -d wasm dv simd_boolean-0.wasm
     |00 01 02 03 04 05 06 07 08 09 0a 0b 0c 0d 0e 0f|0123456789abcdef|.{}: simd_boolean-0.wasm (wasm) 0x0-0x12f (303)
0x000|00 61 73 6d                                    |.asm            |  magic: raw bits (valid) 0x0-0x4 (4)
0x000|            01 00 00 00                        |    ....        |  version: 1 0x4-0x8 (4)
     |                                               |                |  sections[0:4]: 0x8-0x12f (295)
     |                                               |                |    [0]{}: section 0x8-0x10 (8)
0x000|                        01                     |        .       |      id: "type_section" (1) 0x8-0x9 (1)
0x000|                           06                  |         .      |      size: 6 (valid) 0x9-0xa (1)
     |                                               |                |      content{}: 0xa-0x10 (6)
     |                                               |                |        ft{}: 0xa-0x10 (6)
0x000|                              01               |          .     |          n: 1 (valid) 0xa-0xb (1)
     |                                               |                |          x[0:1]: 0xb-0x10 (5)
     |                                               |                |            [0]{}: ft 0xb-0x10 (5)
0x000|                                 60            |           `    |              tag: 0x60 (valid) 0xb-0xc (1)
     |                                               |                |              rt1{}: 0xc-0xe (2)
0x000|                                    01         |            .   |                n: 1 (valid) 0xc-0xd (1)
     |                                               |                |                x[0:1]: 0xd-0xe (1)
0x000|                                       7b      |             {  |                  [0]: "v128" (0x7b) t 0xd-0xe (1)
     |                                               |                |              rt2{}: 0xe-0x10 (2)
0x000|                                          01   |              . |                n: 1 (valid) 0xe-0xf (1)
     |                                               |                |                x[0:1]: 0xf-0x10 (1)
0x000|                                             7f|               .|                  [0]: "i32" (0x7f) t 0xf-0x10 (1)
     |                                               |                |    [1]{}: section 0x10-0x1e (14)
0x010|03                                             |.               |      id: "function_section" (3) 0x10-0x11 (1)
0x010|   0c                                          | .              |      size: 12 (valid) 0x11-0x12 (1)
     |                                               |                |      content{}: 0x12-0x1e (12)
     |                                               |                |        x{}: 0x12-0x1e (12)
0x010|      0b                                       |  .             |          n: 11 (valid) 0x12-0x13 (1)
     |                                               |                |          x[0:11]: 0x13-0x1e (11)
0x010|         00                                    |   .            |            [0]: 0 x (valid) 0x13-0x14 (1)
0x010|            00                                 |    .           |            [1]: 0 x (valid) 0x14-0x15 (1)
0x010|               00                              |     .          |            [2]: 0 x (valid) 0x15-0x16 (1)
0x010|                  00                           |      .         |            [3]: 0 x (valid) 0x16-0x17 (1)
0x010|                     00                        |       .        |            [4]: 0 x (valid) 0x17-0x18 (1)
0x010|                        00                     |        .       |            [5]: 0 x (valid) 0x18-0x19 (1)
0x010|                           00                  |         .      |            [6]: 0 x (valid) 0x19-0x1a (1)
0x010|                              00               |          .     |            [7]: 0 x (valid) 0x1a-0x1b (1)
0x010|                                 00            |           .    |            [8]: 0 x (valid) 0x1b-0x1c (1)
0x010|                                    00         |            .   |            [9]: 0 x (valid) 0x1c-0x1d (1)
0x010|                                       00      |             .  |            [10]: 0 x (valid) 0x1d-0x1e (1)
     |                                               |                |    [2]{}: section 0x1e-0xd9 (187)
0x010|                                          07   |              . |      id: "export_section" (7) 0x1e-0x1f (1)
0x010|                                             b8|               .|      size: 184 (valid) 0x1f-0x21 (2)
0x020|01                                             |.               |
     |                                               |                |      content{}: 0x21-0xd9 (184)
     |                                               |                |        ex{}: 0x21-0xd9 (184)
0x020|   0b                                          | .              |          n: 11 (valid) 0x21-0x22 (1)
     |                                               |                |          x[0:11]: 0x22-0xd9 (183)
     |                                               |                |            [0]{}: ex 0x22-0x33 (17)
     |                                               |                |              nm{}: 0x22-0x31 (15)
0x020|      0e                                       |  .             |                n: 14 (valid) 0x22-0x23 (1)
0x020|         69 38 78 31 36 2e 61 6e 79 5f 74 72 75|   i8x16.any_tru|                b: "i8x16.any_true" 0x23-0x31 (14)
0x030|65                                             |e               |
     |                                               |                |              d{}: 0x31-0x33 (2)
0x030|   00                                          | .              |                tag: "funcidx" (0x0) 0x31-0x32 (1)
0x030|      00                                       |  .             |                x: 0 (valid) 0x32-0x33 (1)
     |                                               |                |            [1]{}: ex 0x33-0x44 (17)
     |                                               |                |              nm{}: 0x33-0x42 (15)
0x030|         0e                                    |   .            |                n: 14 (valid) 0x33-0x34 (1)
0x030|            69 38 78 31 36 2e 61 6c 6c 5f 74 72|    i8x16.all_tr|                b: "i8x16.all_true" 0x34-0x42 (14)
0x040|75 65                                          |ue              |
     |                                               |                |              d{}: 0x42-0x44 (2)
0x040|      00                                       |  .             |                tag: "funcidx" (0x0) 0x42-0x43 (1)
0x040|         01                                    |   .            |                x: 1 (valid) 0x43-0x44 (1)
     |                                               |                |            [2]{}: ex 0x44-0x54 (16)
     |                                               |                |              nm{}: 0x44-0x52 (14)
0x040|            0d                                 |    .           |                n: 13 (valid) 0x44-0x45 (1)
0x040|               69 38 78 31 36 2e 62 69 74 6d 61|     i8x16.bitma|                b: "i8x16.bitmask" 0x45-0x52 (13)
0x050|73 6b                                          |sk              |
     |                                               |                |              d{}: 0x52-0x54 (2)
0x050|      00                                       |  .             |                tag: "funcidx" (0x0) 0x52-0x53 (1)
0x050|         02                                    |   .            |                x: 2 (valid) 0x53-0x54 (1)
     |                                               |                |            [3]{}: ex 0x54-0x65 (17)
     |                                               |                |              nm{}: 0x54-0x63 (15)
0x050|            0e                                 |    .           |                n: 14 (valid) 0x54-0x55 (1)
0x050|               69 31 36 78 38 2e 61 6e 79 5f 74|     i16x8.any_t|                b: "i16x8.any_true" 0x55-0x63 (14)
0x060|72 75 65                                       |rue             |
     |                                               |                |              d{}: 0x63-0x65 (2)
0x060|         00                                    |   .            |                tag: "funcidx" (0x0) 0x63-0x64 (1)
0x060|            03                                 |    .           |                x: 3 (valid) 0x64-0x65 (1)
     |                                               |                |            [4]{}: ex 0x65-0x76 (17)
     |                                               |                |              nm{}: 0x65-0x74 (15)
0x060|               0e                              |     .          |                n: 14 (valid) 0x65-0x66 (1)
0x060|                  69 31 36 78 38 2e 61 6c 6c 5f|      i16x8.all_|                b: "i16x8.all_true" 0x66-0x74 (14)
0x070|74 72 75 65                                    |true            |
     |                                               |                |              d{}: 0x74-0x76 (2)
0x070|            00                                 |    .           |                tag: "funcidx" (0x0) 0x74-0x75 (1)
0x070|               04                              |     .          |                x: 4 (valid) 0x75-0x76 (1)
     |                                               |                |            [5]{}: ex 0x76-0x86 (16)
     |                                               |                |              nm{}: 0x76-0x84 (14)
0x070|                  0d                           |      .         |                n: 13 (valid) 0x76-0x77 (1)
0x070|                     69 31 36 78 38 2e 62 69 74|       i16x8.bit|                b: "i16x8.bitmask" 0x77-0x84 (13)
0x080|6d 61 73 6b                                    |mask            |
     |                                               |                |              d{}: 0x84-0x86 (2)
0x080|            00                                 |    .           |                tag: "funcidx" (0x0) 0x84-0x85 (1)
0x080|               05                              |     .          |                x: 5 (valid) 0x85-0x86 (1)
     |                                               |                |            [6]{}: ex 0x86-0x97 (17)
     |                                               |                |              nm{}: 0x86-0x95 (15)
0x080|                  0e                           |      .         |                n: 14 (valid) 0x86-0x87 (1)
0x080|                     69 33 32 78 34 2e 61 6e 79|       i32x4.any|                b: "i32x4.any_true" 0x87-0x95 (14)
0x090|5f 74 72 75 65                                 |_true           |
     |                                               |                |              d{}: 0x95-0x97 (2)
0x090|               00                              |     .          |                tag: "funcidx" (0x0) 0x95-0x96 (1)
0x090|                  06                           |      .         |                x: 6 (valid) 0x96-0x97 (1)
     |                                               |                |            [7]{}: ex 0x97-0xa8 (17)
     |                                               |                |              nm{}: 0x97-0xa6 (15)
0x090|                     0e                        |       .        |                n: 14 (valid) 0x97-0x98 (1)
0x090|                        69 33 32 78 34 2e 61 6c|        i32x4.al|                b: "i32x4.all_true" 0x98-0xa6 (14)
0x0a0|6c 5f 74 72 75 65                              |l_true          |
     |                                               |                |              d{}: 0xa6-0xa8 (2)
0x0a0|                  00                           |      .         |                tag: "funcidx" (0x0) 0xa6-0xa7 (1)
0x0a0|                     07                        |       .        |                x: 7 (valid) 0xa7-0xa8 (1)
     |                                               |                |            [8]{}: ex 0xa8-0xb8 (16)
     |                                               |                |              nm{}: 0xa8-0xb6 (14)
0x0a0|                        0d                     |        .       |                n: 13 (valid) 0xa8-0xa9 (1)
0x0a0|                           69 33 32 78 34 2e 62|         i32x4.b|                b: "i32x4.bitmask" 0xa9-0xb6 (13)
0x0b0|69 74 6d 61 73 6b                              |itmask          |
     |                                               |                |              d{}: 0xb6-0xb8 (2)
0x0b0|                  00                           |      .         |                tag: "funcidx" (0x0) 0xb6-0xb7 (1)
0x0b0|                     08                        |       .        |                x: 8 (valid) 0xb7-0xb8 (1)
     |                                               |                |            [9]{}: ex 0xb8-0xc9 (17)
     |                                               |                |              nm{}: 0xb8-0xc7 (15)
0x0b0|                        0e                     |        .       |                n: 14 (valid) 0xb8-0xb9 (1)
0x0b0|                           69 36 34 78 32 2e 61|         i64x2.a|                b: "i64x2.all_true" 0xb9-0xc7 (14)
0x0c0|6c 6c 5f 74 72 75 65                           |ll_true         |
     |                                               |                |              d{}: 0xc7-0xc9 (2)
0x0c0|                     00                        |       .        |                tag: "funcidx" (0x0) 0xc7-0xc8 (1)
0x0c0|                        09                     |        .       |                x: 9 (valid) 0xc8-0xc9 (1)
     |                                               |                |            [10]{}: ex 0xc9-0xd9 (16)
     |                                               |                |              nm{}: 0xc9-0xd7 (14)
0x0c0|                           0d                  |         .      |                n: 13 (valid) 0xc9-0xca (1)
0x0c0|                              69 36 34 78 32 2e|          i64x2.|                b: "i64x2.bitmask" 0xca-0xd7 (13)
0x0d0|62 69 74 6d 61 73 6b                           |bitmask         |
     |                                               |                |              d{}: 0xd7-0xd9 (2)
0x0d0|                     00                        |       .        |                tag: "funcidx" (0x0) 0xd7-0xd8 (1)
0x0d0|                        0a                     |        .       |                x: 10 (valid) 0xd8-0xd9 (1)
     |                                               |                |    [3]{}: section 0xd9-0x12f (86)
0x0d0|                           0a                  |         .      |      id: "code_section" (10) 0xd9-0xda (1)
0x0d0|                              54               |          T     |      size: 84 (valid) 0xda-0xdb (1)
     |                                               |                |      content{}: 0xdb-0x12f (84)
     |                                               |                |        code{}: 0xdb-0x12f (84)
0x0d0|                                 0b            |           .    |          n: 11 (valid) 0xdb-0xdc (1)
     |                                               |                |          x[0:11]: 0xdc-0x12f (83)
     |                                               |                |            [0]{}: code 0xdc-0xe3 (7)
0x0d0|                                    06         |            .   |              size: 6 (valid) 0xdc-0xdd (1)
     |                                               |                |              code{}: 0xdd-0xe3 (6)
     |                                               |                |                t{}: 0xdd-0xde (1)
0x0d0|                                       00      |             .  |                  n: 0 (valid) 0xdd-0xde (1)
     |                                               |                |                  x[0:0]: 0xde-0xde (0)
     |                                               |                |                e[0:3]: 0xde-0xe3 (5)
     |                                               |                |                  [0]{}: in 0xde-0xe0 (2)
0x0d0|                                          20   |                |                    opcode: "local.get" (0x20) 0xde-0xdf (1)
0x0d0|                                             00|               .|                    x: 0 (valid) 0xdf-0xe0 (1)
     |                                               |                |                  [1]{}: in 0xe0-0xe2 (2)
0x0e0|fd                                             |.               |                    opcode: "vector" (0xfd) 0xe0-0xe1 (1)
0x0e0|   53                                          | S              |                    v_opcode: "v128.any_true" (83) 0xe1-0xe2 (1)
     |                                               |                |                  [2]{}: in 0xe2-0xe3 (1)
0x0e0|      0b                                       |  .             |                    opcode: "end" (0xb) 0xe2-0xe3 (1)
     |                                               |                |            [1]{}: code 0xe3-0xea (7)
0x0e0|         06                                    |   .            |              size: 6 (valid) 0xe3-0xe4 (1)
     |                                               |                |              code{}: 0xe4-0xea (6)
     |                                               |                |                t{}: 0xe4-0xe5 (1)
0x0e0|            00                                 |    .           |                  n: 0 (valid) 0xe4-0xe5 (1)
     |                                               |                |                  x[0:0]: 0xe5-0xe5 (0)
     |                                               |                |                e[0:3]: 0xe5-0xea (5)
     |                                               |                |                  [0]{}: in 0xe5-0xe7 (2)
0x0e0|               20                              |                |                    opcode: "local.get" (0x20) 0xe5-0xe6 (1)
0x0e0|                  00                           |      .         |                    x: 0 (valid) 0xe6-0xe7 (1)
     |                                               |                |                  [1]{}: in 0xe7-0xe9 (2)
0x0e0|                     fd                        |       .        |                    opcode: "vector" (0xfd) 0xe7-0xe8 (1)
0x0e0|                        63                     |        c       |                    v_opcode: "i8x16.all_true" (99) 0xe8-0xe9 (1)
     |                                               |                |                  [2]{}: in 0xe9-0xea (1)
0x0e0|                           0b                  |         .      |                    opcode: "end" (0xb) 0xe9-0xea (1)
     |                                               |                |            [2]{}: code 0xea-0xf1 (7)
0x0e0|                              06               |          .     |              size: 6 (valid) 0xea-0xeb (1)
     |                                               |                |              code{}: 0xeb-0xf1 (6)
     |                                               |                |                t{}: 0xeb-0xec (1)
0x0e0|                                 00            |           .    |                  n: 0 (valid) 0xeb-0xec (1)
     |                                               |                |                  x[0:0]: 0xec-0xec (0)
     |                                               |                |                e[0:3]: 0xec-0xf1 (5)
     |                                               |                |                  [0]{}: in 0xec-0xee (2)
0x0e0|                                    20         |                |                    opcode: "local.get" (0x20) 0xec-0xed (1)
0x0e0|                                       00      |             .  |                    x: 0 (valid) 0xed-0xee (1)
     |                                               |                |                  [1]{}: in 0xee-0xf0 (2)
0x0e0|                                          fd   |              . |                    opcode: "vector" (0xfd) 0xee-0xef (1)
0x0e0|                                             64|               d|                    v_opcode: "i8x16.bitmask" (100) 0xef-0xf0 (1)
     |                                               |                |                  [2]{}: in 0xf0-0xf1 (1)
0x0f0|0b                                             |.               |                    opcode: "end" (0xb) 0xf0-0xf1 (1)
     |                                               |                |            [3]{}: code 0xf1-0xf8 (7)
0x0f0|   06                                          | .              |              size: 6 (valid) 0xf1-0xf2 (1)
     |                                               |                |              code{}: 0xf2-0xf8 (6)
     |                                               |                |                t{}: 0xf2-0xf3 (1)
0x0f0|      00                                       |  .             |                  n: 0 (valid) 0xf2-0xf3 (1)
     |                                               |                |                  x[0:0]: 0xf3-0xf3 (0)
     |                                               |                |                e[0:3]: 0xf3-0xf8 (5)
     |                                               |                |                  [0]{}: in 0xf3-0xf5 (2)
0x0f0|         20                                    |                |                    opcode: "local.get" (0x20) 0xf3-0xf4 (1)
0x0f0|            00                                 |    .           |                    x: 0 (valid) 0xf4-0xf5 (1)
     |                                               |                |                  [1]{}: in 0xf5-0xf7 (2)
0x0f0|               fd                              |     .          |                    opcode: "vector" (0xfd) 0xf5-0xf6 (1)
0x0f0|                  53                           |      S         |                    v_opcode: "v128.any_true" (83) 0xf6-0xf7 (1)
     |                                               |                |                  [2]{}: in 0xf7-0xf8 (1)
0x0f0|                     0b                        |       .        |                    opcode: "end" (0xb) 0xf7-0xf8 (1)
     |                                               |                |            [4]{}: code 0xf8-0x100 (8)
0x0f0|                        07                     |        .       |              size: 7 (valid) 0xf8-0xf9 (1)
     |                                               |                |              code{}: 0xf9-0x100 (7)
     |                                               |                |                t{}: 0xf9-0xfa (1)
0x0f0|                           00                  |         .      |                  n: 0 (valid) 0xf9-0xfa (1)
     |                                               |                |                  x[0:0]: 0xfa-0xfa (0)
     |                                               |                |                e[0:3]: 0xfa-0x100 (6)
     |                                               |                |                  [0]{}: in 0xfa-0xfc (2)
0x0f0|                              20               |                |                    opcode: "local.get" (0x20) 0xfa-0xfb (1)
0x0f0|                                 00            |           .    |                    x: 0 (valid) 0xfb-0xfc (1)
     |                                               |                |                  [1]{}: in 0xfc-0xff (3)
0x0f0|                                    fd         |            .   |                    opcode: "vector" (0xfd) 0xfc-0xfd (1)
0x0f0|                                       83 01   |             .. |                    v_opcode: "i16x8.all_true" (131) 0xfd-0xff (2)
     |                                               |                |                  [2]{}: in 0xff-0x100 (1)
0x0f0|                                             0b|               .|                    opcode: "end" (0xb) 0xff-0x100 (1)
     |                                               |                |            [5]{}: code 0x100-0x108 (8)
0x100|07                                             |.               |              size: 7 (valid) 0x100-0x101 (1)
     |                                               |                |              code{}: 0x101-0x108 (7)
     |                                               |                |                t{}: 0x101-0x102 (1)
0x100|   00                                          | .              |                  n: 0 (valid) 0x101-0x102 (1)
     |                                               |                |                  x[0:0]: 0x102-0x102 (0)
     |                                               |                |                e[0:3]: 0x102-0x108 (6)
     |                                               |                |                  [0]{}: in 0x102-0x104 (2)
0x100|      20                                       |                |                    opcode: "local.get" (0x20) 0x102-0x103 (1)
0x100|         00                                    |   .            |                    x: 0 (valid) 0x103-0x104 (1)
     |                                               |                |                  [1]{}: in 0x104-0x107 (3)
0x100|            fd                                 |    .           |                    opcode: "vector" (0xfd) 0x104-0x105 (1)
0x100|               84 01                           |     ..         |                    v_opcode: "i16x8.bitmask" (132) 0x105-0x107 (2)
     |                                               |                |                  [2]{}: in 0x107-0x108 (1)
0x100|                     0b                        |       .        |                    opcode: "end" (0xb) 0x107-0x108 (1)
     |                                               |                |            [6]{}: code 0x108-0x10f (7)
0x100|                        06                     |        .       |              size: 6 (valid) 0x108-0x109 (1)
     |                                               |                |              code{}: 0x109-0x10f (6)
     |                                               |                |                t{}: 0x109-0x10a (1)
0x100|                           00                  |         .      |                  n: 0 (valid) 0x109-0x10a (1)
     |                                               |                |                  x[0:0]: 0x10a-0x10a (0)
     |                                               |                |                e[0:3]: 0x10a-0x10f (5)
     |                                               |                |                  [0]{}: in 0x10a-0x10c (2)
0x100|                              20               |                |                    opcode: "local.get" (0x20) 0x10a-0x10b (1)
0x100|                                 00            |           .    |                    x: 0 (valid) 0x10b-0x10c (1)
     |                                               |                |                  [1]{}: in 0x10c-0x10e (2)
0x100|                                    fd         |            .   |                    opcode: "vector" (0xfd) 0x10c-0x10d (1)
0x100|                                       53      |             S  |                    v_opcode: "v128.any_true" (83) 0x10d-0x10e (1)
     |                                               |                |                  [2]{}: in 0x10e-0x10f (1)
0x100|                                          0b   |              . |                    opcode: "end" (0xb) 0x10e-0x10f (1)
     |                                               |                |            [7]{}: code 0x10f-0x117 (8)
0x100|                                             07|               .|              size: 7 (valid) 0x10f-0x110 (1)
     |                                               |                |              code{}: 0x110-0x117 (7)
     |                                               |                |                t{}: 0x110-0x111 (1)
0x110|00                                             |.               |                  n: 0 (valid) 0x110-0x111 (1)
     |                                               |                |                  x[0:0]: 0x111-0x111 (0)
     |                                               |                |                e[0:3]: 0x111-0x117 (6)
     |                                               |                |                  [0]{}: in 0x111-0x113 (2)
0x110|   20                                          |                |                    opcode: "local.get" (0x20) 0x111-0x112 (1)
0x110|      00                                       |  .             |                    x: 0 (valid) 0x112-0x113 (1)
     |                                               |                |                  [1]{}: in 0x113-0x116 (3)
0x110|         fd                                    |   .            |                    opcode: "vector" (0xfd) 0x113-0x114 (1)
0x110|            a3 01                              |    ..          |                    v_opcode: "i32x4.all_true" (163) 0x114-0x116 (2)
     |                                               |                |                  [2]{}: in 0x116-0x117 (1)
0x110|                  0b                           |      .         |                    opcode: "end" (0xb) 0x116-0x117 (1)
     |                                               |                |            [8]{}: code 0x117-0x11f (8)
0x110|                     07                        |       .        |              size: 7 (valid) 0x117-0x118 (1)
     |                                               |                |              code{}: 0x118-0x11f (7)
     |                                               |                |                t{}: 0x118-0x119 (1)
0x110|                        00                     |        .       |                  n: 0 (valid) 0x118-0x119 (1)
     |                                               |                |                  x[0:0]: 0x119-0x119 (0)
     |                                               |                |                e[0:3]: 0x119-0x11f (6)
     |                                               |                |                  [0]{}: in 0x119-0x11b (2)
0x110|                           20                  |                |                    opcode: "local.get" (0x20) 0x119-0x11a (1)
0x110|                              00               |          .     |                    x: 0 (valid) 0x11a-0x11b (1)
     |                                               |                |                  [1]{}: in 0x11b-0x11e (3)
0x110|                                 fd            |           .    |                    opcode: "vector" (0xfd) 0x11b-0x11c (1)
0x110|                                    a4 01      |            ..  |                    v_opcode: "i32x4.bitmask" (164) 0x11c-0x11e (2)
     |                                               |                |                  [2]{}: in 0x11e-0x11f (1)
0x110|                                          0b   |              . |                    opcode: "end" (0xb) 0x11e-0x11f (1)
     |                                               |                |            [9]{}: code 0x11f-0x127 (8)
0x110|                                             07|               .|              size: 7 (valid) 0x11f-0x120 (1)
     |                                               |                |              code{}: 0x120-0x127 (7)
     |                                               |                |                t{}: 0x120-0x121 (1)
0x120|00                                             |.               |                  n: 0 (valid) 0x120-0x121 (1)
     |                                               |                |                  x[0:0]: 0x121-0x121 (0)
     |                                               |                |                e[0:3]: 0x121-0x127 (6)
     |                                               |                |                  [0]{}: in 0x121-0x123 (2)
0x120|   20                                          |                |                    opcode: "local.get" (0x20) 0x121-0x122 (1)
0x120|      00                                       |  .             |                    x: 0 (valid) 0x122-0x123 (1)
     |                                               |                |                  [1]{}: in 0x123-0x126 (3)
0x120|         fd                                    |   .            |                    opcode: "vector" (0xfd) 0x123-0x124 (1)
0x120|            c3 01                              |    ..          |                    v_opcode: "i64x2.all_true" (195) 0x124-0x126 (2)
     |                                               |                |                  [2]{}: in 0x126-0x127 (1)
0x120|                  0b                           |      .         |                    opcode: "end" (0xb) 0x126-0x127 (1)
     |                                               |                |            [10]{}: code 0x127-0x12f (8)
0x120|                     07                        |       .        |              size: 7 (valid) 0x127-0x128 (1)
     |                                               |                |              code{}: 0x128-0x12f (7)
     |                                               |                |                t{}: 0x128-0x129 (1)
0x120|                        00                     |        .       |                  n: 0 (valid) 0x128-0x129 (1)
     |                                               |                |                  x[0:0]: 0x129-0x129 (0)
     |                                               |                |                e[0:3]: 0x129-0x12f (6)
     |                                               |                |                  [0]{}: in 0x129-0x12b (2)
0x120|                           20                  |                |                    opcode: "local.get" (0x20) 0x129-0x12a (1)
0x120|                              00               |          .     |                    x: 0 (valid) 0x12a-0x12b (1)
     |                                               |                |                  [1]{}: in 0x12b-0x12e (3)
0x120|                                 fd            |           .    |                    opcode: "vector" (0xfd) 0x12b-0x12c (1)
0x120|                                    c4 01      |            ..  |                    v_opcode: "i64x2.bitmask" (196) 0x12c-0x12e (2)
     |                                               |                |                  [2]{}: in 0x12e-0x12f (1)
0x120|                                          0b|  |              .||                    opcode: "end" (0xb) 0x12e-0x12f (1)
