$ fq -d wasm dv simd_i32x4_trunc_sat_f64x2-0.wasm
    |00 01 02 03 04 05 06 07 08 09 0a 0b 0c 0d 0e 0f|0123456789abcdef|.{}: simd_i32x4_trunc_sat_f64x2-0.wasm (wasm) 0x0-0x68.7 (105)
0x00|00 61 73 6d                                    |.asm            |  magic: raw bits (valid) 0x0-0x3.7 (4)
0x00|            01 00 00 00                        |    ....        |  version: 1 0x4-0x7.7 (4)
    |                                               |                |  sections[0:4]: 0x8-0x68.7 (97)
    |                                               |                |    [0]{}: section 0x8-0xf.7 (8)
0x00|                        01                     |        .       |      id: "type_section" (1) 0x8-0x8.7 (1)
0x00|                           06                  |         .      |      size: 6 (valid) 0x9-0x9.7 (1)
    |                                               |                |      content{}: 0xa-0xf.7 (6)
    |                                               |                |        ft{}: 0xa-0xf.7 (6)
0x00|                              01               |          .     |          n: 1 (valid) 0xa-0xa.7 (1)
    |                                               |                |          x[0:1]: 0xb-0xf.7 (5)
    |                                               |                |            [0]{}: ft 0xb-0xf.7 (5)
0x00|                                 60            |           `    |              tag: 0x60 (valid) 0xb-0xb.7 (1)
    |                                               |                |              rt1{}: 0xc-0xd.7 (2)
0x00|                                    01         |            .   |                n: 1 (valid) 0xc-0xc.7 (1)
    |                                               |                |                x[0:1]: 0xd-0xd.7 (1)
0x00|                                       7b      |             {  |                  [0]: "v128" (0x7b) t 0xd-0xd.7 (1)
    |                                               |                |              rt2{}: 0xe-0xf.7 (2)
0x00|                                          01   |              . |                n: 1 (valid) 0xe-0xe.7 (1)
    |                                               |                |                x[0:1]: 0xf-0xf.7 (1)
0x00|                                             7b|               {|                  [0]: "v128" (0x7b) t 0xf-0xf.7 (1)
    |                                               |                |    [1]{}: section 0x10-0x14.7 (5)
0x10|03                                             |.               |      id: "function_section" (3) 0x10-0x10.7 (1)
0x10|   03                                          | .              |      size: 3 (valid) 0x11-0x11.7 (1)
    |                                               |                |      content{}: 0x12-0x14.7 (3)
    |                                               |                |        x{}: 0x12-0x14.7 (3)
0x10|      02                                       |  .             |          n: 2 (valid) 0x12-0x12.7 (1)
    |                                               |                |          x[0:2]: 0x13-0x14.7 (2)
0x10|         00                                    |   .            |            [0]: 0 x (valid) 0x13-0x13.7 (1)
0x10|            00                                 |    .           |            [1]: 0 x (valid) 0x14-0x14.7 (1)
    |                                               |                |    [2]{}: section 0x15-0x55.7 (65)
0x10|               07                              |     .          |      id: "export_section" (7) 0x15-0x15.7 (1)
0x10|                  3f                           |      ?         |      size: 63 (valid) 0x16-0x16.7 (1)
    |                                               |                |      content{}: 0x17-0x55.7 (63)
    |                                               |                |        ex{}: 0x17-0x55.7 (63)
0x10|                     02                        |       .        |          n: 2 (valid) 0x17-0x17.7 (1)
    |                                               |                |          x[0:2]: 0x18-0x55.7 (62)
    |                                               |                |            [0]{}: ex 0x18-0x36.7 (31)
    |                                               |                |              nm{}: 0x18-0x34.7 (29)
0x10|                        1c                     |        .       |                n: 28 (valid) 0x18-0x18.7 (1)
0x10|                           69 33 32 78 34 2e 74|         i32x4.t|                b: "i32x4.trunc_sat_f64x2_s_zero" 0x19-0x34.7 (28)
0x20|72 75 6e 63 5f 73 61 74 5f 66 36 34 78 32 5f 73|runc_sat_f64x2_s|
0x30|5f 7a 65 72 6f                                 |_zero           |
    |                                               |                |              d{}: 0x35-0x36.7 (2)
0x30|               00                              |     .          |                tag: "funcidx" (0x0) 0x35-0x35.7 (1)
0x30|                  00                           |      .         |                x: 0 (valid) 0x36-0x36.7 (1)
    |                                               |                |            [1]{}: ex 0x37-0x55.7 (31)
    |                                               |                |              nm{}: 0x37-0x53.7 (29)
0x30|                     1c                        |       .        |                n: 28 (valid) 0x37-0x37.7 (1)
0x30|                        69 33 32 78 34 2e 74 72|        i32x4.tr|                b: "i32x4.trunc_sat_f64x2_u_zero" 0x38-0x53.7 (28)
0x40|75 6e 63 5f 73 61 74 5f 66 36 34 78 32 5f 75 5f|unc_sat_f64x2_u_|
0x50|7a 65 72 6f                                    |zero            |
    |                                               |                |              d{}: 0x54-0x55.7 (2)
0x50|            00                                 |    .           |                tag: "funcidx" (0x0) 0x54-0x54.7 (1)
0x50|               01                              |     .          |                x: 1 (valid) 0x55-0x55.7 (1)
    |                                               |                |    [3]{}: section 0x56-0x68.7 (19)
0x50|                  0a                           |      .         |      id: "code_section" (10) 0x56-0x56.7 (1)
0x50|                     11                        |       .        |      size: 17 (valid) 0x57-0x57.7 (1)
    |                                               |                |      content{}: 0x58-0x68.7 (17)
    |                                               |                |        code{}: 0x58-0x68.7 (17)
0x50|                        02                     |        .       |          n: 2 (valid) 0x58-0x58.7 (1)
    |                                               |                |          x[0:2]: 0x59-0x68.7 (16)
    |                                               |                |            [0]{}: code 0x59-0x60.7 (8)
0x50|                           07                  |         .      |              size: 7 (valid) 0x59-0x59.7 (1)
    |                                               |                |              code{}: 0x5a-0x60.7 (7)
    |                                               |                |                t{}: 0x5a-0x5a.7 (1)
0x50|                              00               |          .     |                  n: 0 (valid) 0x5a-0x5a.7 (1)
    |                                               |                |                  x[0:0]: 0x5b-NA (0)
    |                                               |                |                e[0:3]: 0x5b-0x60.7 (6)
    |                                               |                |                  [0]{}: in 0x5b-0x5c.7 (2)
0x50|                                 20            |                |                    opcode: "local.get" (0x20) 0x5b-0x5b.7 (1)
0x50|                                    00         |            .   |                    x: 0 (valid) 0x5c-0x5c.7 (1)
    |                                               |                |                  [1]{}: in 0x5d-0x5f.7 (3)
0x50|                                       fd      |             .  |                    opcode: "vector" (0xfd) 0x5d-0x5d.7 (1)
0x50|                                          fc 01|              ..|                    v_opcode: "i32x4.trunc_sat_f64x2_s_zero" (252) 0x5e-0x5f.7 (2)
    |                                               |                |                  [2]{}: in 0x60-0x60.7 (1)
0x60|0b                                             |.               |                    opcode: "end" (0xb) 0x60-0x60.7 (1)
    |                                               |                |            [1]{}: code 0x61-0x68.7 (8)
0x60|   07                                          | .              |              size: 7 (valid) 0x61-0x61.7 (1)
    |                                               |                |              code{}: 0x62-0x68.7 (7)
    |                                               |                |                t{}: 0x62-0x62.7 (1)
0x60|      00                                       |  .             |                  n: 0 (valid) 0x62-0x62.7 (1)
    |                                               |                |                  x[0:0]: 0x63-NA (0)
    |                                               |                |                e[0:3]: 0x63-0x68.7 (6)
    |                                               |                |                  [0]{}: in 0x63-0x64.7 (2)
0x60|         20                                    |                |                    opcode: "local.get" (0x20) 0x63-0x63.7 (1)
0x60|            00                                 |    .           |                    x: 0 (valid) 0x64-0x64.7 (1)
    |                                               |                |                  [1]{}: in 0x65-0x67.7 (3)
0x60|               fd                              |     .          |                    opcode: "vector" (0xfd) 0x65-0x65.7 (1)
0x60|                  fd 01                        |      ..        |                    v_opcode: "i32x4.trunc_sat_f64x2_u_zero" (253) 0x66-0x67.7 (2)
    |                                               |                |                  [2]{}: in 0x68-0x68.7 (1)
0x60|                        0b|                    |        .|      |                    opcode: "end" (0xb) 0x68-0x68.7 (1)
