$ fq -d wasm dv simd_i16x8_arith-0.wasm
    |00 01 02 03 04 05 06 07 08 09 0a 0b 0c 0d 0e 0f|0123456789abcdef|.{}: simd_i16x8_arith-0.wasm (wasm) 0x0-0x78.7 (121)
0x00|00 61 73 6d                                    |.asm            |  magic: raw bits (valid) 0x0-0x3.7 (4)
0x00|            01 00 00 00                        |    ....        |  version: 1 0x4-0x7.7 (4)
    |                                               |                |  sections[0:4]: 0x8-0x78.7 (113)
    |                                               |                |    [0]{}: section 0x8-0x15.7 (14)
0x00|                        01                     |        .       |      id: "type section" (1) 0x8-0x8.7 (1)
0x00|                           0c                  |         .      |      size: 12 0x9-0x9.7 (1)
    |                                               |                |      content{}: 0xa-0x15.7 (12)
    |                                               |                |        ft{}: 0xa-0x15.7 (12)
0x00|                              02               |          .     |          n: 2 0xa-0xa.7 (1)
    |                                               |                |          x[0:2]: 0xb-0x15.7 (11)
    |                                               |                |            [0]{}: ft 0xb-0x10.7 (6)
0x00|                                 60            |           `    |              tag: 0x60 (valid) 0xb-0xb.7 (1)
    |                                               |                |              rt1{}: 0xc-0xe.7 (3)
0x00|                                    02         |            .   |                n: 2 0xc-0xc.7 (1)
    |                                               |                |                x[0:2]: 0xd-0xe.7 (2)
0x00|                                       7b      |             {  |                  [0]: "v128" (0x7b) t 0xd-0xd.7 (1)
0x00|                                          7b   |              { |                  [1]: "v128" (0x7b) t 0xe-0xe.7 (1)
    |                                               |                |              rt2{}: 0xf-0x10.7 (2)
0x00|                                             01|               .|                n: 1 0xf-0xf.7 (1)
    |                                               |                |                x[0:1]: 0x10-0x10.7 (1)
0x10|7b                                             |{               |                  [0]: "v128" (0x7b) t 0x10-0x10.7 (1)
    |                                               |                |            [1]{}: ft 0x11-0x15.7 (5)
0x10|   60                                          | `              |              tag: 0x60 (valid) 0x11-0x11.7 (1)
    |                                               |                |              rt1{}: 0x12-0x13.7 (2)
0x10|      01                                       |  .             |                n: 1 0x12-0x12.7 (1)
    |                                               |                |                x[0:1]: 0x13-0x13.7 (1)
0x10|         7b                                    |   {            |                  [0]: "v128" (0x7b) t 0x13-0x13.7 (1)
    |                                               |                |              rt2{}: 0x14-0x15.7 (2)
0x10|            01                                 |    .           |                n: 1 0x14-0x14.7 (1)
    |                                               |                |                x[0:1]: 0x15-0x15.7 (1)
0x10|               7b                              |     {          |                  [0]: "v128" (0x7b) t 0x15-0x15.7 (1)
    |                                               |                |    [1]{}: section 0x16-0x1c.7 (7)
0x10|                  03                           |      .         |      id: "function section" (3) 0x16-0x16.7 (1)
0x10|                     05                        |       .        |      size: 5 0x17-0x17.7 (1)
    |                                               |                |      content{}: 0x18-0x1c.7 (5)
    |                                               |                |        x{}: 0x18-0x1c.7 (5)
0x10|                        04                     |        .       |          n: 4 0x18-0x18.7 (1)
    |                                               |                |          x[0:4]: 0x19-0x1c.7 (4)
0x10|                           00                  |         .      |            [0]: 0 x 0x19-0x19.7 (1)
0x10|                              00               |          .     |            [1]: 0 x 0x1a-0x1a.7 (1)
0x10|                                 00            |           .    |            [2]: 0 x 0x1b-0x1b.7 (1)
0x10|                                    01         |            .   |            [3]: 1 x 0x1c-0x1c.7 (1)
    |                                               |                |    [2]{}: section 0x1d-0x4f.7 (51)
0x10|                                       07      |             .  |      id: "export section" (7) 0x1d-0x1d.7 (1)
0x10|                                          31   |              1 |      size: 49 0x1e-0x1e.7 (1)
    |                                               |                |      content{}: 0x1f-0x4f.7 (49)
    |                                               |                |        ex{}: 0x1f-0x4f.7 (49)
0x10|                                             04|               .|          n: 4 0x1f-0x1f.7 (1)
    |                                               |                |          x[0:4]: 0x20-0x4f.7 (48)
    |                                               |                |            [0]{}: ex 0x20-0x2b.7 (12)
    |                                               |                |              nm{}: 0x20-0x29.7 (10)
0x20|09                                             |.               |                n: 9 0x20-0x20.7 (1)
0x20|   69 31 36 78 38 2e 61 64 64                  | i16x8.add      |                b: "i16x8.add" 0x21-0x29.7 (9)
    |                                               |                |              d{}: 0x2a-0x2b.7 (2)
0x20|                              00               |          .     |                tag: "funcidx" (0x0) 0x2a-0x2a.7 (1)
0x20|                                 00            |           .    |                x: 0 0x2b-0x2b.7 (1)
    |                                               |                |            [1]{}: ex 0x2c-0x37.7 (12)
    |                                               |                |              nm{}: 0x2c-0x35.7 (10)
0x20|                                    09         |            .   |                n: 9 0x2c-0x2c.7 (1)
0x20|                                       69 31 36|             i16|                b: "i16x8.sub" 0x2d-0x35.7 (9)
0x30|78 38 2e 73 75 62                              |x8.sub          |
    |                                               |                |              d{}: 0x36-0x37.7 (2)
0x30|                  00                           |      .         |                tag: "funcidx" (0x0) 0x36-0x36.7 (1)
0x30|                     01                        |       .        |                x: 1 0x37-0x37.7 (1)
    |                                               |                |            [2]{}: ex 0x38-0x43.7 (12)
    |                                               |                |              nm{}: 0x38-0x41.7 (10)
0x30|                        09                     |        .       |                n: 9 0x38-0x38.7 (1)
0x30|                           69 31 36 78 38 2e 6d|         i16x8.m|                b: "i16x8.mul" 0x39-0x41.7 (9)
0x40|75 6c                                          |ul              |
    |                                               |                |              d{}: 0x42-0x43.7 (2)
0x40|      00                                       |  .             |                tag: "funcidx" (0x0) 0x42-0x42.7 (1)
0x40|         02                                    |   .            |                x: 2 0x43-0x43.7 (1)
    |                                               |                |            [3]{}: ex 0x44-0x4f.7 (12)
    |                                               |                |              nm{}: 0x44-0x4d.7 (10)
0x40|            09                                 |    .           |                n: 9 0x44-0x44.7 (1)
0x40|               69 31 36 78 38 2e 6e 65 67      |     i16x8.neg  |                b: "i16x8.neg" 0x45-0x4d.7 (9)
    |                                               |                |              d{}: 0x4e-0x4f.7 (2)
0x40|                                          00   |              . |                tag: "funcidx" (0x0) 0x4e-0x4e.7 (1)
0x40|                                             03|               .|                x: 3 0x4f-0x4f.7 (1)
    |                                               |                |    [3]{}: section 0x50-0x78.7 (41)
0x50|0a                                             |.               |      id: "code section" (10) 0x50-0x50.7 (1)
0x50|   27                                          | '              |      size: 39 0x51-0x51.7 (1)
    |                                               |                |      content{}: 0x52-0x78.7 (39)
    |                                               |                |        code{}: 0x52-0x78.7 (39)
0x50|      04                                       |  .             |          n: 4 0x52-0x52.7 (1)
    |                                               |                |          x[0:4]: 0x53-0x78.7 (38)
    |                                               |                |            [0]{}: code 0x53-0x5c.7 (10)
0x50|         09                                    |   .            |              size: 9 0x53-0x53.7 (1)
    |                                               |                |              code{}: 0x54-0x5c.7 (9)
    |                                               |                |                t{}: 0x54-0x54.7 (1)
0x50|            00                                 |    .           |                  n: 0 0x54-0x54.7 (1)
    |                                               |                |                  x[0:0]: 0x55-NA (0)
    |                                               |                |                e[0:4]: 0x55-0x5c.7 (8)
    |                                               |                |                  [0]{}: in 0x55-0x56.7 (2)
0x50|               20                              |                |                    local.get: 0x20 (valid) 0x55-0x55.7 (1)
0x50|                  00                           |      .         |                    x: 0 0x56-0x56.7 (1)
    |                                               |                |                  [1]{}: in 0x57-0x58.7 (2)
0x50|                     20                        |                |                    local.get: 0x20 (valid) 0x57-0x57.7 (1)
0x50|                        01                     |        .       |                    x: 1 0x58-0x58.7 (1)
    |                                               |                |                  [2]{}: in 0x59-0x5b.7 (3)
0x50|                           fd                  |         .      |                    prefix: 0xfd (valid) 0x59-0x59.7 (1)
0x50|                              8e 01            |          ..    |                    i16x8.add: 142 (valid) 0x5a-0x5b.7 (2)
    |                                               |                |                  [3]{}: in 0x5c-0x5c.7 (1)
0x50|                                    0b         |            .   |                    end: 0xb (valid) 0x5c-0x5c.7 (1)
    |                                               |                |            [1]{}: code 0x5d-0x66.7 (10)
0x50|                                       09      |             .  |              size: 9 0x5d-0x5d.7 (1)
    |                                               |                |              code{}: 0x5e-0x66.7 (9)
    |                                               |                |                t{}: 0x5e-0x5e.7 (1)
0x50|                                          00   |              . |                  n: 0 0x5e-0x5e.7 (1)
    |                                               |                |                  x[0:0]: 0x5f-NA (0)
    |                                               |                |                e[0:4]: 0x5f-0x66.7 (8)
    |                                               |                |                  [0]{}: in 0x5f-0x60.7 (2)
0x50|                                             20|                |                    local.get: 0x20 (valid) 0x5f-0x5f.7 (1)
0x60|00                                             |.               |                    x: 0 0x60-0x60.7 (1)
    |                                               |                |                  [1]{}: in 0x61-0x62.7 (2)
0x60|   20                                          |                |                    local.get: 0x20 (valid) 0x61-0x61.7 (1)
0x60|      01                                       |  .             |                    x: 1 0x62-0x62.7 (1)
    |                                               |                |                  [2]{}: in 0x63-0x65.7 (3)
0x60|         fd                                    |   .            |                    prefix: 0xfd (valid) 0x63-0x63.7 (1)
0x60|            91 01                              |    ..          |                    i16x8.sub: 145 (valid) 0x64-0x65.7 (2)
    |                                               |                |                  [3]{}: in 0x66-0x66.7 (1)
0x60|                  0b                           |      .         |                    end: 0xb (valid) 0x66-0x66.7 (1)
    |                                               |                |            [2]{}: code 0x67-0x70.7 (10)
0x60|                     09                        |       .        |              size: 9 0x67-0x67.7 (1)
    |                                               |                |              code{}: 0x68-0x70.7 (9)
    |                                               |                |                t{}: 0x68-0x68.7 (1)
0x60|                        00                     |        .       |                  n: 0 0x68-0x68.7 (1)
    |                                               |                |                  x[0:0]: 0x69-NA (0)
    |                                               |                |                e[0:4]: 0x69-0x70.7 (8)
    |                                               |                |                  [0]{}: in 0x69-0x6a.7 (2)
0x60|                           20                  |                |                    local.get: 0x20 (valid) 0x69-0x69.7 (1)
0x60|                              00               |          .     |                    x: 0 0x6a-0x6a.7 (1)
    |                                               |                |                  [1]{}: in 0x6b-0x6c.7 (2)
0x60|                                 20            |                |                    local.get: 0x20 (valid) 0x6b-0x6b.7 (1)
0x60|                                    01         |            .   |                    x: 1 0x6c-0x6c.7 (1)
    |                                               |                |                  [2]{}: in 0x6d-0x6f.7 (3)
0x60|                                       fd      |             .  |                    prefix: 0xfd (valid) 0x6d-0x6d.7 (1)
0x60|                                          95 01|              ..|                    i16x8.mul: 149 (valid) 0x6e-0x6f.7 (2)
    |                                               |                |                  [3]{}: in 0x70-0x70.7 (1)
0x70|0b                                             |.               |                    end: 0xb (valid) 0x70-0x70.7 (1)
    |                                               |                |            [3]{}: code 0x71-0x78.7 (8)
0x70|   07                                          | .              |              size: 7 0x71-0x71.7 (1)
    |                                               |                |              code{}: 0x72-0x78.7 (7)
    |                                               |                |                t{}: 0x72-0x72.7 (1)
0x70|      00                                       |  .             |                  n: 0 0x72-0x72.7 (1)
    |                                               |                |                  x[0:0]: 0x73-NA (0)
    |                                               |                |                e[0:3]: 0x73-0x78.7 (6)
    |                                               |                |                  [0]{}: in 0x73-0x74.7 (2)
0x70|         20                                    |                |                    local.get: 0x20 (valid) 0x73-0x73.7 (1)
0x70|            00                                 |    .           |                    x: 0 0x74-0x74.7 (1)
    |                                               |                |                  [1]{}: in 0x75-0x77.7 (3)
0x70|               fd                              |     .          |                    prefix: 0xfd (valid) 0x75-0x75.7 (1)
0x70|                  81 01                        |      ..        |                    i16x8.neg: 129 (valid) 0x76-0x77.7 (2)
    |                                               |                |                  [2]{}: in 0x78-0x78.7 (1)
0x70|                        0b|                    |        .|      |                    end: 0xb (valid) 0x78-0x78.7 (1)
