$ fq -d wasm dv simd_splat-0.wasm
    |00 01 02 03 04 05 06 07 08 09 0a 0b 0c 0d 0e 0f|0123456789abcdef|.{}: simd_splat-0.wasm (wasm) 0x0-0xac (172)
0x00|00 61 73 6d                                    |.asm            |  magic: raw bits (valid) 0x0-0x4 (4)
0x00|            01 00 00 00                        |    ....        |  version: 1 0x4-0x8 (4)
    |                                               |                |  sections[0:4]: 0x8-0xac (164)
    |                                               |                |    [0]{}: section 0x8-0x1f (23)
0x00|                        01                     |        .       |      id: "type_section" (1) 0x8-0x9 (1)
0x00|                           15                  |         .      |      size: 21 (valid) 0x9-0xa (1)
    |                                               |                |      content{}: 0xa-0x1f (21)
    |                                               |                |        ft{}: 0xa-0x1f (21)
0x00|                              04               |          .     |          n: 4 (valid) 0xa-0xb (1)
    |                                               |                |          x[0:4]: 0xb-0x1f (20)
    |                                               |                |            [0]{}: ft 0xb-0x10 (5)
0x00|                                 60            |           `    |              tag: 0x60 (valid) 0xb-0xc (1)
    |                                               |                |              rt1{}: 0xc-0xe (2)
0x00|                                    01         |            .   |                n: 1 (valid) 0xc-0xd (1)
    |                                               |                |                x[0:1]: 0xd-0xe (1)
0x00|                                       7f      |             .  |                  [0]: "i32" (0x7f) t 0xd-0xe (1)
    |                                               |                |              rt2{}: 0xe-0x10 (2)
0x00|                                          01   |              . |                n: 1 (valid) 0xe-0xf (1)
    |                                               |                |                x[0:1]: 0xf-0x10 (1)
0x00|                                             7b|               {|                  [0]: "v128" (0x7b) t 0xf-0x10 (1)
    |                                               |                |            [1]{}: ft 0x10-0x15 (5)
0x10|60                                             |`               |              tag: 0x60 (valid) 0x10-0x11 (1)
    |                                               |                |              rt1{}: 0x11-0x13 (2)
0x10|   01                                          | .              |                n: 1 (valid) 0x11-0x12 (1)
    |                                               |                |                x[0:1]: 0x12-0x13 (1)
0x10|      7d                                       |  }             |                  [0]: "f32" (0x7d) t 0x12-0x13 (1)
    |                                               |                |              rt2{}: 0x13-0x15 (2)
0x10|         01                                    |   .            |                n: 1 (valid) 0x13-0x14 (1)
    |                                               |                |                x[0:1]: 0x14-0x15 (1)
0x10|            7b                                 |    {           |                  [0]: "v128" (0x7b) t 0x14-0x15 (1)
    |                                               |                |            [2]{}: ft 0x15-0x1a (5)
0x10|               60                              |     `          |              tag: 0x60 (valid) 0x15-0x16 (1)
    |                                               |                |              rt1{}: 0x16-0x18 (2)
0x10|                  01                           |      .         |                n: 1 (valid) 0x16-0x17 (1)
    |                                               |                |                x[0:1]: 0x17-0x18 (1)
0x10|                     7e                        |       ~        |                  [0]: "i64" (0x7e) t 0x17-0x18 (1)
    |                                               |                |              rt2{}: 0x18-0x1a (2)
0x10|                        01                     |        .       |                n: 1 (valid) 0x18-0x19 (1)
    |                                               |                |                x[0:1]: 0x19-0x1a (1)
0x10|                           7b                  |         {      |                  [0]: "v128" (0x7b) t 0x19-0x1a (1)
    |                                               |                |            [3]{}: ft 0x1a-0x1f (5)
0x10|                              60               |          `     |              tag: 0x60 (valid) 0x1a-0x1b (1)
    |                                               |                |              rt1{}: 0x1b-0x1d (2)
0x10|                                 01            |           .    |                n: 1 (valid) 0x1b-0x1c (1)
    |                                               |                |                x[0:1]: 0x1c-0x1d (1)
0x10|                                    7c         |            |   |                  [0]: "f64" (0x7c) t 0x1c-0x1d (1)
    |                                               |                |              rt2{}: 0x1d-0x1f (2)
0x10|                                       01      |             .  |                n: 1 (valid) 0x1d-0x1e (1)
    |                                               |                |                x[0:1]: 0x1e-0x1f (1)
0x10|                                          7b   |              { |                  [0]: "v128" (0x7b) t 0x1e-0x1f (1)
    |                                               |                |    [1]{}: section 0x1f-0x28 (9)
0x10|                                             03|               .|      id: "function_section" (3) 0x1f-0x20 (1)
0x20|07                                             |.               |      size: 7 (valid) 0x20-0x21 (1)
    |                                               |                |      content{}: 0x21-0x28 (7)
    |                                               |                |        x{}: 0x21-0x28 (7)
0x20|   06                                          | .              |          n: 6 (valid) 0x21-0x22 (1)
    |                                               |                |          x[0:6]: 0x22-0x28 (6)
0x20|      00                                       |  .             |            [0]: 0 x (valid) 0x22-0x23 (1)
0x20|         00                                    |   .            |            [1]: 0 x (valid) 0x23-0x24 (1)
0x20|            00                                 |    .           |            [2]: 0 x (valid) 0x24-0x25 (1)
0x20|               01                              |     .          |            [3]: 1 x (valid) 0x25-0x26 (1)
0x20|                  02                           |      .         |            [4]: 2 x (valid) 0x26-0x27 (1)
0x20|                     03                        |       .        |            [5]: 3 x (valid) 0x27-0x28 (1)
    |                                               |                |    [2]{}: section 0x28-0x7f (87)
0x20|                        07                     |        .       |      id: "export_section" (7) 0x28-0x29 (1)
0x20|                           55                  |         U      |      size: 85 (valid) 0x29-0x2a (1)
    |                                               |                |      content{}: 0x2a-0x7f (85)
    |                                               |                |        ex{}: 0x2a-0x7f (85)
0x20|                              06               |          .     |          n: 6 (valid) 0x2a-0x2b (1)
    |                                               |                |          x[0:6]: 0x2b-0x7f (84)
    |                                               |                |            [0]{}: ex 0x2b-0x39 (14)
    |                                               |                |              nm{}: 0x2b-0x37 (12)
0x20|                                 0b            |           .    |                n: 11 (valid) 0x2b-0x2c (1)
0x20|                                    69 38 78 31|            i8x1|                b: "i8x16.splat" 0x2c-0x37 (11)
0x30|36 2e 73 70 6c 61 74                           |6.splat         |
    |                                               |                |              d{}: 0x37-0x39 (2)
0x30|                     00                        |       .        |                tag: "funcidx" (0x0) 0x37-0x38 (1)
0x30|                        00                     |        .       |                x: 0 (valid) 0x38-0x39 (1)
    |                                               |                |            [1]{}: ex 0x39-0x47 (14)
    |                                               |                |              nm{}: 0x39-0x45 (12)
0x30|                           0b                  |         .      |                n: 11 (valid) 0x39-0x3a (1)
0x30|                              69 31 36 78 38 2e|          i16x8.|                b: "i16x8.splat" 0x3a-0x45 (11)
0x40|73 70 6c 61 74                                 |splat           |
    |                                               |                |              d{}: 0x45-0x47 (2)
0x40|               00                              |     .          |                tag: "funcidx" (0x0) 0x45-0x46 (1)
0x40|                  01                           |      .         |                x: 1 (valid) 0x46-0x47 (1)
    |                                               |                |            [2]{}: ex 0x47-0x55 (14)
    |                                               |                |              nm{}: 0x47-0x53 (12)
0x40|                     0b                        |       .        |                n: 11 (valid) 0x47-0x48 (1)
0x40|                        69 33 32 78 34 2e 73 70|        i32x4.sp|                b: "i32x4.splat" 0x48-0x53 (11)
0x50|6c 61 74                                       |lat             |
    |                                               |                |              d{}: 0x53-0x55 (2)
0x50|         00                                    |   .            |                tag: "funcidx" (0x0) 0x53-0x54 (1)
0x50|            02                                 |    .           |                x: 2 (valid) 0x54-0x55 (1)
    |                                               |                |            [3]{}: ex 0x55-0x63 (14)
    |                                               |                |              nm{}: 0x55-0x61 (12)
0x50|               0b                              |     .          |                n: 11 (valid) 0x55-0x56 (1)
0x50|                  66 33 32 78 34 2e 73 70 6c 61|      f32x4.spla|                b: "f32x4.splat" 0x56-0x61 (11)
0x60|74                                             |t               |
    |                                               |                |              d{}: 0x61-0x63 (2)
0x60|   00                                          | .              |                tag: "funcidx" (0x0) 0x61-0x62 (1)
0x60|      03                                       |  .             |                x: 3 (valid) 0x62-0x63 (1)
    |                                               |                |            [4]{}: ex 0x63-0x71 (14)
    |                                               |                |              nm{}: 0x63-0x6f (12)
0x60|         0b                                    |   .            |                n: 11 (valid) 0x63-0x64 (1)
0x60|            69 36 34 78 32 2e 73 70 6c 61 74   |    i64x2.splat |                b: "i64x2.splat" 0x64-0x6f (11)
    |                                               |                |              d{}: 0x6f-0x71 (2)
0x60|                                             00|               .|                tag: "funcidx" (0x0) 0x6f-0x70 (1)
0x70|04                                             |.               |                x: 4 (valid) 0x70-0x71 (1)
    |                                               |                |            [5]{}: ex 0x71-0x7f (14)
    |                                               |                |              nm{}: 0x71-0x7d (12)
0x70|   0b                                          | .              |                n: 11 (valid) 0x71-0x72 (1)
0x70|      66 36 34 78 32 2e 73 70 6c 61 74         |  f64x2.splat   |                b: "f64x2.splat" 0x72-0x7d (11)
    |                                               |                |              d{}: 0x7d-0x7f (2)
0x70|                                       00      |             .  |                tag: "funcidx" (0x0) 0x7d-0x7e (1)
0x70|                                          05   |              . |                x: 5 (valid) 0x7e-0x7f (1)
    |                                               |                |    [3]{}: section 0x7f-0xac (45)
0x70|                                             0a|               .|      id: "code_section" (10) 0x7f-0x80 (1)
0x80|2b                                             |+               |      size: 43 (valid) 0x80-0x81 (1)
    |                                               |                |      content{}: 0x81-0xac (43)
    |                                               |                |        code{}: 0x81-0xac (43)
0x80|   06                                          | .              |          n: 6 (valid) 0x81-0x82 (1)
    |                                               |                |          x[0:6]: 0x82-0xac (42)
    |                                               |                |            [0]{}: code 0x82-0x89 (7)
0x80|      06                                       |  .             |              size: 6 (valid) 0x82-0x83 (1)
    |                                               |                |              code{}: 0x83-0x89 (6)
    |                                               |                |                t{}: 0x83-0x84 (1)
0x80|         00                                    |   .            |                  n: 0 (valid) 0x83-0x84 (1)
    |                                               |                |                  x[0:0]: 0x84-0x84 (0)
    |                                               |                |                e[0:3]: 0x84-0x89 (5)
    |                                               |                |                  [0]{}: in 0x84-0x86 (2)
0x80|            20                                 |                |                    opcode: "local.get" (0x20) 0x84-0x85 (1)
0x80|               00                              |     .          |                    x: 0 (valid) 0x85-0x86 (1)
    |                                               |                |                  [1]{}: in 0x86-0x88 (2)
0x80|                  fd                           |      .         |                    opcode: "vector" (0xfd) 0x86-0x87 (1)
0x80|                     0f                        |       .        |                    v_opcode: "i8x16.splat" (15) 0x87-0x88 (1)
    |                                               |                |                  [2]{}: in 0x88-0x89 (1)
0x80|                        0b                     |        .       |                    opcode: "end" (0xb) 0x88-0x89 (1)
    |                                               |                |            [1]{}: code 0x89-0x90 (7)
0x80|                           06                  |         .      |              size: 6 (valid) 0x89-0x8a (1)
    |                                               |                |              code{}: 0x8a-0x90 (6)
    |                                               |                |                t{}: 0x8a-0x8b (1)
0x80|                              00               |          .     |                  n: 0 (valid) 0x8a-0x8b (1)
    |                                               |                |                  x[0:0]: 0x8b-0x8b (0)
    |                                               |                |                e[0:3]: 0x8b-0x90 (5)
    |                                               |                |                  [0]{}: in 0x8b-0x8d (2)
0x80|                                 20            |                |                    opcode: "local.get" (0x20) 0x8b-0x8c (1)
0x80|                                    00         |            .   |                    x: 0 (valid) 0x8c-0x8d (1)
    |                                               |                |                  [1]{}: in 0x8d-0x8f (2)
0x80|                                       fd      |             .  |                    opcode: "vector" (0xfd) 0x8d-0x8e (1)
0x80|                                          10   |              . |                    v_opcode: "i16x8.splat" (16) 0x8e-0x8f (1)
    |                                               |                |                  [2]{}: in 0x8f-0x90 (1)
0x80|                                             0b|               .|                    opcode: "end" (0xb) 0x8f-0x90 (1)
    |                                               |                |            [2]{}: code 0x90-0x97 (7)
0x90|06                                             |.               |              size: 6 (valid) 0x90-0x91 (1)
    |                                               |                |              code{}: 0x91-0x97 (6)
    |                                               |                |                t{}: 0x91-0x92 (1)
0x90|   00                                          | .              |                  n: 0 (valid) 0x91-0x92 (1)
    |                                               |                |                  x[0:0]: 0x92-0x92 (0)
    |                                               |                |                e[0:3]: 0x92-0x97 (5)
    |                                               |                |                  [0]{}: in 0x92-0x94 (2)
0x90|      20                                       |                |                    opcode: "local.get" (0x20) 0x92-0x93 (1)
0x90|         00                                    |   .            |                    x: 0 (valid) 0x93-0x94 (1)
    |                                               |                |                  [1]{}: in 0x94-0x96 (2)
0x90|            fd                                 |    .           |                    opcode: "vector" (0xfd) 0x94-0x95 (1)
0x90|               11                              |     .          |                    v_opcode: "i32x4.splat" (17) 0x95-0x96 (1)
    |                                               |                |                  [2]{}: in 0x96-0x97 (1)
0x90|                  0b                           |      .         |                    opcode: "end" (0xb) 0x96-0x97 (1)
    |                                               |                |            [3]{}: code 0x97-0x9e (7)
0x90|                     06                        |       .        |              size: 6 (valid) 0x97-0x98 (1)
    |                                               |                |              code{}: 0x98-0x9e (6)
    |                                               |                |                t{}: 0x98-0x99 (1)
0x90|                        00                     |        .       |                  n: 0 (valid) 0x98-0x99 (1)
    |                                               |                |                  x[0:0]: 0x99-0x99 (0)
    |                                               |                |                e[0:3]: 0x99-0x9e (5)
    |                                               |                |                  [0]{}: in 0x99-0x9b (2)
0x90|                           20                  |                |                    opcode: "local.get" (0x20) 0x99-0x9a (1)
0x90|                              00               |          .     |                    x: 0 (valid) 0x9a-0x9b (1)
    |                                               |                |                  [1]{}: in 0x9b-0x9d (2)
0x90|                                 fd            |           .    |                    opcode: "vector" (0xfd) 0x9b-0x9c (1)
0x90|                                    13         |            .   |                    v_opcode: "f32x4.splat" (19) 0x9c-0x9d (1)
    |                                               |                |                  [2]{}: in 0x9d-0x9e (1)
0x90|                                       0b      |             .  |                    opcode: "end" (0xb) 0x9d-0x9e (1)
    |                                               |                |            [4]{}: code 0x9e-0xa5 (7)
0x90|                                          06   |              . |              size: 6 (valid) 0x9e-0x9f (1)
    |                                               |                |              code{}: 0x9f-0xa5 (6)
    |                                               |                |                t{}: 0x9f-0xa0 (1)
0x90|                                             00|               .|                  n: 0 (valid) 0x9f-0xa0 (1)
    |                                               |                |                  x[0:0]: 0xa0-0xa0 (0)
    |                                               |                |                e[0:3]: 0xa0-0xa5 (5)
    |                                               |                |                  [0]{}: in 0xa0-0xa2 (2)
0xa0|20                                             |                |                    opcode: "local.get" (0x20) 0xa0-0xa1 (1)
0xa0|   00                                          | .              |                    x: 0 (valid) 0xa1-0xa2 (1)
    |                                               |                |                  [1]{}: in 0xa2-0xa4 (2)
0xa0|      fd                                       |  .             |                    opcode: "vector" (0xfd) 0xa2-0xa3 (1)
0xa0|         12                                    |   .            |                    v_opcode: "i64x2.splat" (18) 0xa3-0xa4 (1)
    |                                               |                |                  [2]{}: in 0xa4-0xa5 (1)
0xa0|            0b                                 |    .           |                    opcode: "end" (0xb) 0xa4-0xa5 (1)
    |                                               |                |            [5]{}: code 0xa5-0xac (7)
0xa0|               06                              |     .          |              size: 6 (valid) 0xa5-0xa6 (1)
    |                                               |                |              code{}: 0xa6-0xac (6)
    |                                               |                |                t{}: 0xa6-0xa7 (1)
0xa0|                  00                           |      .         |                  n: 0 (valid) 0xa6-0xa7 (1)
    |                                               |                |                  x[0:0]: 0xa7-0xa7 (0)
    |                                               |                |                e[0:3]: 0xa7-0xac (5)
    |                                               |                |                  [0]{}: in 0xa7-0xa9 (2)
0xa0|                     20                        |                |                    opcode: "local.get" (0x20) 0xa7-0xa8 (1)
0xa0|                        00                     |        .       |                    x: 0 (valid) 0xa8-0xa9 (1)
    |                                               |                |                  [1]{}: in 0xa9-0xab (2)
0xa0|                           fd                  |         .      |                    opcode: "vector" (0xfd) 0xa9-0xaa (1)
0xa0|                              14               |          .     |                    v_opcode: "f64x2.splat" (20) 0xaa-0xab (1)
    |                                               |                |                  [2]{}: in 0xab-0xac (1)
0xa0|                                 0b|           |           .|   |                    opcode: "end" (0xb) 0xab-0xac (1)
