$ fq -d wasm dv simd_i16x8_q15mulr_sat_s-0.wasm
    |00 01 02 03 04 05 06 07 08 09 0a 0b 0c 0d 0e 0f|0123456789abcdef|.{}: simd_i16x8_q15mulr_sat_s-0.wasm (wasm) 0x0-0x3a.7 (59)
0x00|00 61 73 6d                                    |.asm            |  magic: raw bits (valid) 0x0-0x3.7 (4)
0x00|            01 00 00 00                        |    ....        |  version: 1 0x4-0x7.7 (4)
    |                                               |                |  sections[0:4]: 0x8-0x3a.7 (51)
    |                                               |                |    [0]{}: section 0x8-0x10.7 (9)
0x00|                        01                     |        .       |      id: "type section" (1) 0x8-0x8.7 (1)
0x00|                           07                  |         .      |      size: 7 0x9-0x9.7 (1)
    |                                               |                |      content{}: 0xa-0x10.7 (7)
    |                                               |                |        ft{}: 0xa-0x10.7 (7)
0x00|                              01               |          .     |          n: 1 0xa-0xa.7 (1)
    |                                               |                |          x[0:1]: 0xb-0x10.7 (6)
    |                                               |                |            [0]{}: ft 0xb-0x10.7 (6)
0x00|                                 60            |           `    |              tag: 0x60 (valid) 0xb-0xb.7 (1)
    |                                               |                |              rt1{}: 0xc-0xe.7 (3)
0x00|                                    02         |            .   |                n: 2 0xc-0xc.7 (1)
    |                                               |                |                x[0:2]: 0xd-0xe.7 (2)
0x00|                                       7b      |             {  |                  [0]: "v128" (0x7b) t 0xd-0xd.7 (1)
0x00|                                          7b   |              { |                  [1]: "v128" (0x7b) t 0xe-0xe.7 (1)
    |                                               |                |              rt2{}: 0xf-0x10.7 (2)
0x00|                                             01|               .|                n: 1 0xf-0xf.7 (1)
    |                                               |                |                x[0:1]: 0x10-0x10.7 (1)
0x10|7b                                             |{               |                  [0]: "v128" (0x7b) t 0x10-0x10.7 (1)
    |                                               |                |    [1]{}: section 0x11-0x14.7 (4)
0x10|   03                                          | .              |      id: "function section" (3) 0x11-0x11.7 (1)
0x10|      02                                       |  .             |      size: 2 0x12-0x12.7 (1)
    |                                               |                |      content{}: 0x13-0x14.7 (2)
    |                                               |                |        x{}: 0x13-0x14.7 (2)
0x10|         01                                    |   .            |          n: 1 0x13-0x13.7 (1)
    |                                               |                |          x[0:1]: 0x14-0x14.7 (1)
0x10|            00                                 |    .           |            [0]: 0 x 0x14-0x14.7 (1)
    |                                               |                |    [2]{}: section 0x15-0x2d.7 (25)
0x10|               07                              |     .          |      id: "export section" (7) 0x15-0x15.7 (1)
0x10|                  17                           |      .         |      size: 23 0x16-0x16.7 (1)
    |                                               |                |      content{}: 0x17-0x2d.7 (23)
    |                                               |                |        ex{}: 0x17-0x2d.7 (23)
0x10|                     01                        |       .        |          n: 1 0x17-0x17.7 (1)
    |                                               |                |          x[0:1]: 0x18-0x2d.7 (22)
    |                                               |                |            [0]{}: ex 0x18-0x2d.7 (22)
    |                                               |                |              nm{}: 0x18-0x2b.7 (20)
0x10|                        13                     |        .       |                n: 19 0x18-0x18.7 (1)
0x10|                           69 31 36 78 38 2e 71|         i16x8.q|                b: "i16x8.q15mulr_sat_s" 0x19-0x2b.7 (19)
0x20|31 35 6d 75 6c 72 5f 73 61 74 5f 73            |15mulr_sat_s    |
    |                                               |                |              d{}: 0x2c-0x2d.7 (2)
0x20|                                    00         |            .   |                tag: "funcidx" (0x0) 0x2c-0x2c.7 (1)
0x20|                                       00      |             .  |                x: 0 0x2d-0x2d.7 (1)
    |                                               |                |    [3]{}: section 0x2e-0x3a.7 (13)
0x20|                                          0a   |              . |      id: "code section" (10) 0x2e-0x2e.7 (1)
0x20|                                             0b|               .|      size: 11 0x2f-0x2f.7 (1)
    |                                               |                |      content{}: 0x30-0x3a.7 (11)
    |                                               |                |        code{}: 0x30-0x3a.7 (11)
0x30|01                                             |.               |          n: 1 0x30-0x30.7 (1)
    |                                               |                |          x[0:1]: 0x31-0x3a.7 (10)
    |                                               |                |            [0]{}: code 0x31-0x3a.7 (10)
0x30|   09                                          | .              |              size: 9 0x31-0x31.7 (1)
    |                                               |                |              code{}: 0x32-0x3a.7 (9)
    |                                               |                |                t{}: 0x32-0x32.7 (1)
0x30|      00                                       |  .             |                  n: 0 0x32-0x32.7 (1)
    |                                               |                |                  x[0:0]: 0x33-NA (0)
    |                                               |                |                e[0:4]: 0x33-0x3a.7 (8)
    |                                               |                |                  [0]{}: in 0x33-0x34.7 (2)
0x30|         20                                    |                |                    local.get: 0x20 (valid) 0x33-0x33.7 (1)
0x30|            00                                 |    .           |                    x: 0 0x34-0x34.7 (1)
    |                                               |                |                  [1]{}: in 0x35-0x36.7 (2)
0x30|               20                              |                |                    local.get: 0x20 (valid) 0x35-0x35.7 (1)
0x30|                  01                           |      .         |                    x: 1 0x36-0x36.7 (1)
    |                                               |                |                  [2]{}: in 0x37-0x39.7 (3)
0x30|                     fd                        |       .        |                    prefix: 0xfd (valid) 0x37-0x37.7 (1)
0x30|                        82 01                  |        ..      |                    i16x8.q15mulr_sat_s: 130 (valid) 0x38-0x39.7 (2)
    |                                               |                |                  [3]{}: in 0x3a-0x3a.7 (1)
0x30|                              0b|              |          .|    |                    end: 0xb (valid) 0x3a-0x3a.7 (1)
