$ fq -d wasm dv simd_i8x16_arith2-0.wasm
     |00 01 02 03 04 05 06 07 08 09 0a 0b 0c 0d 0e 0f|0123456789abcdef|.{}: simd_i8x16_arith2-0.wasm (wasm) 0x0-0x601.7 (1538)
0x000|00 61 73 6d                                    |.asm            |  magic: raw bits (valid) 0x0-0x3.7 (4)
0x000|            01 00 00 00                        |    ....        |  version: 1 0x4-0x7.7 (4)
     |                                               |                |  sections[0:4]: 0x8-0x601.7 (1530)
     |                                               |                |    [0]{}: section 0x8-0x19.7 (18)
0x000|                        01                     |        .       |      id: "type section" (1) 0x8-0x8.7 (1)
0x000|                           10                  |         .      |      size: 16 0x9-0x9.7 (1)
     |                                               |                |      content{}: 0xa-0x19.7 (16)
     |                                               |                |        ft{}: 0xa-0x19.7 (16)
0x000|                              03               |          .     |          n: 3 0xa-0xa.7 (1)
     |                                               |                |          x[0:3]: 0xb-0x19.7 (15)
     |                                               |                |            [0]{}: ft 0xb-0x10.7 (6)
0x000|                                 60            |           `    |              tag: 0x60 (valid) 0xb-0xb.7 (1)
     |                                               |                |              rt1{}: 0xc-0xe.7 (3)
0x000|                                    02         |            .   |                n: 2 0xc-0xc.7 (1)
     |                                               |                |                x[0:2]: 0xd-0xe.7 (2)
0x000|                                       7b      |             {  |                  [0]: "v128" (0x7b) t 0xd-0xd.7 (1)
0x000|                                          7b   |              { |                  [1]: "v128" (0x7b) t 0xe-0xe.7 (1)
     |                                               |                |              rt2{}: 0xf-0x10.7 (2)
0x000|                                             01|               .|                n: 1 0xf-0xf.7 (1)
     |                                               |                |                x[0:1]: 0x10-0x10.7 (1)
0x010|7b                                             |{               |                  [0]: "v128" (0x7b) t 0x10-0x10.7 (1)
     |                                               |                |            [1]{}: ft 0x11-0x15.7 (5)
0x010|   60                                          | `              |              tag: 0x60 (valid) 0x11-0x11.7 (1)
     |                                               |                |              rt1{}: 0x12-0x13.7 (2)
0x010|      01                                       |  .             |                n: 1 0x12-0x12.7 (1)
     |                                               |                |                x[0:1]: 0x13-0x13.7 (1)
0x010|         7b                                    |   {            |                  [0]: "v128" (0x7b) t 0x13-0x13.7 (1)
     |                                               |                |              rt2{}: 0x14-0x15.7 (2)
0x010|            01                                 |    .           |                n: 1 0x14-0x14.7 (1)
     |                                               |                |                x[0:1]: 0x15-0x15.7 (1)
0x010|               7b                              |     {          |                  [0]: "v128" (0x7b) t 0x15-0x15.7 (1)
     |                                               |                |            [2]{}: ft 0x16-0x19.7 (4)
0x010|                  60                           |      `         |              tag: 0x60 (valid) 0x16-0x16.7 (1)
     |                                               |                |              rt1{}: 0x17-0x17.7 (1)
0x010|                     00                        |       .        |                n: 0 0x17-0x17.7 (1)
     |                                               |                |                x[0:0]: 0x18-NA (0)
     |                                               |                |              rt2{}: 0x18-0x19.7 (2)
0x010|                        01                     |        .       |                n: 1 0x18-0x18.7 (1)
     |                                               |                |                x[0:1]: 0x19-0x19.7 (1)
0x010|                           7b                  |         {      |                  [0]: "v128" (0x7b) t 0x19-0x19.7 (1)
     |                                               |                |    [1]{}: section 0x1a-0x39.7 (32)
0x010|                              03               |          .     |      id: "function section" (3) 0x1a-0x1a.7 (1)
0x010|                                 1e            |           .    |      size: 30 0x1b-0x1b.7 (1)
     |                                               |                |      content{}: 0x1c-0x39.7 (30)
     |                                               |                |        x{}: 0x1c-0x39.7 (30)
0x010|                                    1d         |            .   |          n: 29 0x1c-0x1c.7 (1)
     |                                               |                |          x[0:29]: 0x1d-0x39.7 (29)
0x010|                                       00      |             .  |            [0]: 0 x 0x1d-0x1d.7 (1)
0x010|                                          00   |              . |            [1]: 0 x 0x1e-0x1e.7 (1)
0x010|                                             00|               .|            [2]: 0 x 0x1f-0x1f.7 (1)
0x020|00                                             |.               |            [3]: 0 x 0x20-0x20.7 (1)
0x020|   00                                          | .              |            [4]: 0 x 0x21-0x21.7 (1)
0x020|      01                                       |  .             |            [5]: 1 x 0x22-0x22.7 (1)
0x020|         01                                    |   .            |            [6]: 1 x 0x23-0x23.7 (1)
0x020|            02                                 |    .           |            [7]: 2 x 0x24-0x24.7 (1)
0x020|               02                              |     .          |            [8]: 2 x 0x25-0x25.7 (1)
0x020|                  02                           |      .         |            [9]: 2 x 0x26-0x26.7 (1)
0x020|                     02                        |       .        |            [10]: 2 x 0x27-0x27.7 (1)
0x020|                        02                     |        .       |            [11]: 2 x 0x28-0x28.7 (1)
0x020|                           02                  |         .      |            [12]: 2 x 0x29-0x29.7 (1)
0x020|                              02               |          .     |            [13]: 2 x 0x2a-0x2a.7 (1)
0x020|                                 02            |           .    |            [14]: 2 x 0x2b-0x2b.7 (1)
0x020|                                    02         |            .   |            [15]: 2 x 0x2c-0x2c.7 (1)
0x020|                                       02      |             .  |            [16]: 2 x 0x2d-0x2d.7 (1)
0x020|                                          02   |              . |            [17]: 2 x 0x2e-0x2e.7 (1)
0x020|                                             02|               .|            [18]: 2 x 0x2f-0x2f.7 (1)
0x030|01                                             |.               |            [19]: 1 x 0x30-0x30.7 (1)
0x030|   01                                          | .              |            [20]: 1 x 0x31-0x31.7 (1)
0x030|      01                                       |  .             |            [21]: 1 x 0x32-0x32.7 (1)
0x030|         01                                    |   .            |            [22]: 1 x 0x33-0x33.7 (1)
0x030|            01                                 |    .           |            [23]: 1 x 0x34-0x34.7 (1)
0x030|               01                              |     .          |            [24]: 1 x 0x35-0x35.7 (1)
0x030|                  01                           |      .         |            [25]: 1 x 0x36-0x36.7 (1)
0x030|                     01                        |       .        |            [26]: 1 x 0x37-0x37.7 (1)
0x030|                        01                     |        .       |            [27]: 1 x 0x38-0x38.7 (1)
0x030|                           01                  |         .      |            [28]: 1 x 0x39-0x39.7 (1)
     |                                               |                |    [2]{}: section 0x3a-0x300.7 (711)
0x030|                              07               |          .     |      id: "export section" (7) 0x3a-0x3a.7 (1)
0x030|                                 c4 05         |           ..   |      size: 708 0x3b-0x3c.7 (2)
     |                                               |                |      content{}: 0x3d-0x300.7 (708)
     |                                               |                |        ex{}: 0x3d-0x300.7 (708)
0x030|                                       1d      |             .  |          n: 29 0x3d-0x3d.7 (1)
     |                                               |                |          x[0:29]: 0x3e-0x300.7 (707)
     |                                               |                |            [0]{}: ex 0x3e-0x4b.7 (14)
     |                                               |                |              nm{}: 0x3e-0x49.7 (12)
0x030|                                          0b   |              . |                n: 11 0x3e-0x3e.7 (1)
0x030|                                             69|               i|                b: "i8x16.min_s" 0x3f-0x49.7 (11)
0x040|38 78 31 36 2e 6d 69 6e 5f 73                  |8x16.min_s      |
     |                                               |                |              d{}: 0x4a-0x4b.7 (2)
0x040|                              00               |          .     |                tag: "funcidx" (0x0) 0x4a-0x4a.7 (1)
0x040|                                 00            |           .    |                x: 0 0x4b-0x4b.7 (1)
     |                                               |                |            [1]{}: ex 0x4c-0x59.7 (14)
     |                                               |                |              nm{}: 0x4c-0x57.7 (12)
0x040|                                    0b         |            .   |                n: 11 0x4c-0x4c.7 (1)
0x040|                                       69 38 78|             i8x|                b: "i8x16.min_u" 0x4d-0x57.7 (11)
0x050|31 36 2e 6d 69 6e 5f 75                        |16.min_u        |
     |                                               |                |              d{}: 0x58-0x59.7 (2)
0x050|                        00                     |        .       |                tag: "funcidx" (0x0) 0x58-0x58.7 (1)
0x050|                           01                  |         .      |                x: 1 0x59-0x59.7 (1)
     |                                               |                |            [2]{}: ex 0x5a-0x67.7 (14)
     |                                               |                |              nm{}: 0x5a-0x65.7 (12)
0x050|                              0b               |          .     |                n: 11 0x5a-0x5a.7 (1)
0x050|                                 69 38 78 31 36|           i8x16|                b: "i8x16.max_s" 0x5b-0x65.7 (11)
0x060|2e 6d 61 78 5f 73                              |.max_s          |
     |                                               |                |              d{}: 0x66-0x67.7 (2)
0x060|                  00                           |      .         |                tag: "funcidx" (0x0) 0x66-0x66.7 (1)
0x060|                     02                        |       .        |                x: 2 0x67-0x67.7 (1)
     |                                               |                |            [3]{}: ex 0x68-0x75.7 (14)
     |                                               |                |              nm{}: 0x68-0x73.7 (12)
0x060|                        0b                     |        .       |                n: 11 0x68-0x68.7 (1)
0x060|                           69 38 78 31 36 2e 6d|         i8x16.m|                b: "i8x16.max_u" 0x69-0x73.7 (11)
0x070|61 78 5f 75                                    |ax_u            |
     |                                               |                |              d{}: 0x74-0x75.7 (2)
0x070|            00                                 |    .           |                tag: "funcidx" (0x0) 0x74-0x74.7 (1)
0x070|               03                              |     .          |                x: 3 0x75-0x75.7 (1)
     |                                               |                |            [4]{}: ex 0x76-0x84.7 (15)
     |                                               |                |              nm{}: 0x76-0x82.7 (13)
0x070|                  0c                           |      .         |                n: 12 0x76-0x76.7 (1)
0x070|                     69 38 78 31 36 2e 61 76 67|       i8x16.avg|                b: "i8x16.avgr_u" 0x77-0x82.7 (12)
0x080|72 5f 75                                       |r_u             |
     |                                               |                |              d{}: 0x83-0x84.7 (2)
0x080|         00                                    |   .            |                tag: "funcidx" (0x0) 0x83-0x83.7 (1)
0x080|            04                                 |    .           |                x: 4 0x84-0x84.7 (1)
     |                                               |                |            [5]{}: ex 0x85-0x90.7 (12)
     |                                               |                |              nm{}: 0x85-0x8e.7 (10)
0x080|               09                              |     .          |                n: 9 0x85-0x85.7 (1)
0x080|                  69 38 78 31 36 2e 61 62 73   |      i8x16.abs |                b: "i8x16.abs" 0x86-0x8e.7 (9)
     |                                               |                |              d{}: 0x8f-0x90.7 (2)
0x080|                                             00|               .|                tag: "funcidx" (0x0) 0x8f-0x8f.7 (1)
0x090|05                                             |.               |                x: 5 0x90-0x90.7 (1)
     |                                               |                |            [6]{}: ex 0x91-0x9f.7 (15)
     |                                               |                |              nm{}: 0x91-0x9d.7 (13)
0x090|   0c                                          | .              |                n: 12 0x91-0x91.7 (1)
0x090|      69 38 78 31 36 2e 70 6f 70 63 6e 74      |  i8x16.popcnt  |                b: "i8x16.popcnt" 0x92-0x9d.7 (12)
     |                                               |                |              d{}: 0x9e-0x9f.7 (2)
0x090|                                          00   |              . |                tag: "funcidx" (0x0) 0x9e-0x9e.7 (1)
0x090|                                             06|               .|                x: 6 0x9f-0x9f.7 (1)
     |                                               |                |            [7]{}: ex 0xa0-0xba.7 (27)
     |                                               |                |              nm{}: 0xa0-0xb8.7 (25)
0x0a0|18                                             |.               |                n: 24 0xa0-0xa0.7 (1)
0x0a0|   69 38 78 31 36 2e 6d 69 6e 5f 73 5f 77 69 74| i8x16.min_s_wit|                b: "i8x16.min_s_with_const_0" 0xa1-0xb8.7 (24)
0x0b0|68 5f 63 6f 6e 73 74 5f 30                     |h_const_0       |
     |                                               |                |              d{}: 0xb9-0xba.7 (2)
0x0b0|                           00                  |         .      |                tag: "funcidx" (0x0) 0xb9-0xb9.7 (1)
0x0b0|                              07               |          .     |                x: 7 0xba-0xba.7 (1)
     |                                               |                |            [8]{}: ex 0xbb-0xd5.7 (27)
     |                                               |                |              nm{}: 0xbb-0xd3.7 (25)
0x0b0|                                 18            |           .    |                n: 24 0xbb-0xbb.7 (1)
0x0b0|                                    69 38 78 31|            i8x1|                b: "i8x16.min_s_with_const_1" 0xbc-0xd3.7 (24)
0x0c0|36 2e 6d 69 6e 5f 73 5f 77 69 74 68 5f 63 6f 6e|6.min_s_with_con|
0x0d0|73 74 5f 31                                    |st_1            |
     |                                               |                |              d{}: 0xd4-0xd5.7 (2)
0x0d0|            00                                 |    .           |                tag: "funcidx" (0x0) 0xd4-0xd4.7 (1)
0x0d0|               08                              |     .          |                x: 8 0xd5-0xd5.7 (1)
     |                                               |                |            [9]{}: ex 0xd6-0xf0.7 (27)
     |                                               |                |              nm{}: 0xd6-0xee.7 (25)
0x0d0|                  18                           |      .         |                n: 24 0xd6-0xd6.7 (1)
0x0d0|                     69 38 78 31 36 2e 6d 69 6e|       i8x16.min|                b: "i8x16.min_u_with_const_2" 0xd7-0xee.7 (24)
0x0e0|5f 75 5f 77 69 74 68 5f 63 6f 6e 73 74 5f 32   |_u_with_const_2 |
     |                                               |                |              d{}: 0xef-0xf0.7 (2)
0x0e0|                                             00|               .|                tag: "funcidx" (0x0) 0xef-0xef.7 (1)
0x0f0|09                                             |.               |                x: 9 0xf0-0xf0.7 (1)
     |                                               |                |            [10]{}: ex 0xf1-0x10b.7 (27)
     |                                               |                |              nm{}: 0xf1-0x109.7 (25)
0x0f0|   18                                          | .              |                n: 24 0xf1-0xf1.7 (1)
0x0f0|      69 38 78 31 36 2e 6d 69 6e 5f 75 5f 77 69|  i8x16.min_u_wi|                b: "i8x16.min_u_with_const_3" 0xf2-0x109.7 (24)
0x100|74 68 5f 63 6f 6e 73 74 5f 33                  |th_const_3      |
     |                                               |                |              d{}: 0x10a-0x10b.7 (2)
0x100|                              00               |          .     |                tag: "funcidx" (0x0) 0x10a-0x10a.7 (1)
0x100|                                 0a            |           .    |                x: 10 0x10b-0x10b.7 (1)
     |                                               |                |            [11]{}: ex 0x10c-0x126.7 (27)
     |                                               |                |              nm{}: 0x10c-0x124.7 (25)
0x100|                                    18         |            .   |                n: 24 0x10c-0x10c.7 (1)
0x100|                                       69 38 78|             i8x|                b: "i8x16.max_s_with_const_4" 0x10d-0x124.7 (24)
0x110|31 36 2e 6d 61 78 5f 73 5f 77 69 74 68 5f 63 6f|16.max_s_with_co|
0x120|6e 73 74 5f 34                                 |nst_4           |
     |                                               |                |              d{}: 0x125-0x126.7 (2)
0x120|               00                              |     .          |                tag: "funcidx" (0x0) 0x125-0x125.7 (1)
0x120|                  0b                           |      .         |                x: 11 0x126-0x126.7 (1)
     |                                               |                |            [12]{}: ex 0x127-0x141.7 (27)
     |                                               |                |              nm{}: 0x127-0x13f.7 (25)
0x120|                     18                        |       .        |                n: 24 0x127-0x127.7 (1)
0x120|                        69 38 78 31 36 2e 6d 61|        i8x16.ma|                b: "i8x16.max_s_with_const_5" 0x128-0x13f.7 (24)
0x130|78 5f 73 5f 77 69 74 68 5f 63 6f 6e 73 74 5f 35|x_s_with_const_5|
     |                                               |                |              d{}: 0x140-0x141.7 (2)
0x140|00                                             |.               |                tag: "funcidx" (0x0) 0x140-0x140.7 (1)
0x140|   0c                                          | .              |                x: 12 0x141-0x141.7 (1)
     |                                               |                |            [13]{}: ex 0x142-0x15c.7 (27)
     |                                               |                |              nm{}: 0x142-0x15a.7 (25)
0x140|      18                                       |  .             |                n: 24 0x142-0x142.7 (1)
0x140|         69 38 78 31 36 2e 6d 61 78 5f 75 5f 77|   i8x16.max_u_w|                b: "i8x16.max_u_with_const_6" 0x143-0x15a.7 (24)
0x150|69 74 68 5f 63 6f 6e 73 74 5f 36               |ith_const_6     |
     |                                               |                |              d{}: 0x15b-0x15c.7 (2)
0x150|                                 00            |           .    |                tag: "funcidx" (0x0) 0x15b-0x15b.7 (1)
0x150|                                    0d         |            .   |                x: 13 0x15c-0x15c.7 (1)
     |                                               |                |            [14]{}: ex 0x15d-0x177.7 (27)
     |                                               |                |              nm{}: 0x15d-0x175.7 (25)
0x150|                                       18      |             .  |                n: 24 0x15d-0x15d.7 (1)
0x150|                                          69 38|              i8|                b: "i8x16.max_u_with_const_7" 0x15e-0x175.7 (24)
0x160|78 31 36 2e 6d 61 78 5f 75 5f 77 69 74 68 5f 63|x16.max_u_with_c|
0x170|6f 6e 73 74 5f 37                              |onst_7          |
     |                                               |                |              d{}: 0x176-0x177.7 (2)
0x170|                  00                           |      .         |                tag: "funcidx" (0x0) 0x176-0x176.7 (1)
0x170|                     0e                        |       .        |                x: 14 0x177-0x177.7 (1)
     |                                               |                |            [15]{}: ex 0x178-0x193.7 (28)
     |                                               |                |              nm{}: 0x178-0x191.7 (26)
0x170|                        19                     |        .       |                n: 25 0x178-0x178.7 (1)
0x170|                           69 38 78 31 36 2e 61|         i8x16.a|                b: "i8x16.avgr_u_with_const_8" 0x179-0x191.7 (25)
0x180|76 67 72 5f 75 5f 77 69 74 68 5f 63 6f 6e 73 74|vgr_u_with_const|
0x190|5f 38                                          |_8              |
     |                                               |                |              d{}: 0x192-0x193.7 (2)
0x190|      00                                       |  .             |                tag: "funcidx" (0x0) 0x192-0x192.7 (1)
0x190|         0f                                    |   .            |                x: 15 0x193-0x193.7 (1)
     |                                               |                |            [16]{}: ex 0x194-0x1af.7 (28)
     |                                               |                |              nm{}: 0x194-0x1ad.7 (26)
0x190|            19                                 |    .           |                n: 25 0x194-0x194.7 (1)
0x190|               69 38 78 31 36 2e 61 76 67 72 5f|     i8x16.avgr_|                b: "i8x16.avgr_u_with_const_9" 0x195-0x1ad.7 (25)
0x1a0|75 5f 77 69 74 68 5f 63 6f 6e 73 74 5f 39      |u_with_const_9  |
     |                                               |                |              d{}: 0x1ae-0x1af.7 (2)
0x1a0|                                          00   |              . |                tag: "funcidx" (0x0) 0x1ae-0x1ae.7 (1)
0x1a0|                                             10|               .|                x: 16 0x1af-0x1af.7 (1)
     |                                               |                |            [17]{}: ex 0x1b0-0x1c9.7 (26)
     |                                               |                |              nm{}: 0x1b0-0x1c7.7 (24)
0x1b0|17                                             |.               |                n: 23 0x1b0-0x1b0.7 (1)
0x1b0|   69 38 78 31 36 2e 61 62 73 5f 77 69 74 68 5f| i8x16.abs_with_|                b: "i8x16.abs_with_const_10" 0x1b1-0x1c7.7 (23)
0x1c0|63 6f 6e 73 74 5f 31 30                        |const_10        |
     |                                               |                |              d{}: 0x1c8-0x1c9.7 (2)
0x1c0|                        00                     |        .       |                tag: "funcidx" (0x0) 0x1c8-0x1c8.7 (1)
0x1c0|                           11                  |         .      |                x: 17 0x1c9-0x1c9.7 (1)
     |                                               |                |            [18]{}: ex 0x1ca-0x1e6.7 (29)
     |                                               |                |              nm{}: 0x1ca-0x1e4.7 (27)
0x1c0|                              1a               |          .     |                n: 26 0x1ca-0x1ca.7 (1)
0x1c0|                                 69 38 78 31 36|           i8x16|                b: "i8x16.popcnt_with_const_11" 0x1cb-0x1e4.7 (26)
0x1d0|2e 70 6f 70 63 6e 74 5f 77 69 74 68 5f 63 6f 6e|.popcnt_with_con|
0x1e0|73 74 5f 31 31                                 |st_11           |
     |                                               |                |              d{}: 0x1e5-0x1e6.7 (2)
0x1e0|               00                              |     .          |                tag: "funcidx" (0x0) 0x1e5-0x1e5.7 (1)
0x1e0|                  12                           |      .         |                x: 18 0x1e6-0x1e6.7 (1)
     |                                               |                |            [19]{}: ex 0x1e7-0x202.7 (28)
     |                                               |                |              nm{}: 0x1e7-0x200.7 (26)
0x1e0|                     19                        |       .        |                n: 25 0x1e7-0x1e7.7 (1)
0x1e0|                        69 38 78 31 36 2e 6d 69|        i8x16.mi|                b: "i8x16.min_s_with_const_12" 0x1e8-0x200.7 (25)
0x1f0|6e 5f 73 5f 77 69 74 68 5f 63 6f 6e 73 74 5f 31|n_s_with_const_1|
0x200|32                                             |2               |
     |                                               |                |              d{}: 0x201-0x202.7 (2)
0x200|   00                                          | .              |                tag: "funcidx" (0x0) 0x201-0x201.7 (1)
0x200|      13                                       |  .             |                x: 19 0x202-0x202.7 (1)
     |                                               |                |            [20]{}: ex 0x203-0x21e.7 (28)
     |                                               |                |              nm{}: 0x203-0x21c.7 (26)
0x200|         19                                    |   .            |                n: 25 0x203-0x203.7 (1)
0x200|            69 38 78 31 36 2e 6d 69 6e 5f 73 5f|    i8x16.min_s_|                b: "i8x16.min_s_with_const_13" 0x204-0x21c.7 (25)
0x210|77 69 74 68 5f 63 6f 6e 73 74 5f 31 33         |with_const_13   |
     |                                               |                |              d{}: 0x21d-0x21e.7 (2)
0x210|                                       00      |             .  |                tag: "funcidx" (0x0) 0x21d-0x21d.7 (1)
0x210|                                          14   |              . |                x: 20 0x21e-0x21e.7 (1)
     |                                               |                |            [21]{}: ex 0x21f-0x23a.7 (28)
     |                                               |                |              nm{}: 0x21f-0x238.7 (26)
0x210|                                             19|               .|                n: 25 0x21f-0x21f.7 (1)
0x220|69 38 78 31 36 2e 6d 69 6e 5f 75 5f 77 69 74 68|i8x16.min_u_with|                b: "i8x16.min_u_with_const_14" 0x220-0x238.7 (25)
0x230|5f 63 6f 6e 73 74 5f 31 34                     |_const_14       |
     |                                               |                |              d{}: 0x239-0x23a.7 (2)
0x230|                           00                  |         .      |                tag: "funcidx" (0x0) 0x239-0x239.7 (1)
0x230|                              15               |          .     |                x: 21 0x23a-0x23a.7 (1)
     |                                               |                |            [22]{}: ex 0x23b-0x256.7 (28)
     |                                               |                |              nm{}: 0x23b-0x254.7 (26)
0x230|                                 19            |           .    |                n: 25 0x23b-0x23b.7 (1)
0x230|                                    69 38 78 31|            i8x1|                b: "i8x16.min_u_with_const_15" 0x23c-0x254.7 (25)
0x240|36 2e 6d 69 6e 5f 75 5f 77 69 74 68 5f 63 6f 6e|6.min_u_with_con|
0x250|73 74 5f 31 35                                 |st_15           |
     |                                               |                |              d{}: 0x255-0x256.7 (2)
0x250|               00                              |     .          |                tag: "funcidx" (0x0) 0x255-0x255.7 (1)
0x250|                  16                           |      .         |                x: 22 0x256-0x256.7 (1)
     |                                               |                |            [23]{}: ex 0x257-0x272.7 (28)
     |                                               |                |              nm{}: 0x257-0x270.7 (26)
0x250|                     19                        |       .        |                n: 25 0x257-0x257.7 (1)
0x250|                        69 38 78 31 36 2e 6d 61|        i8x16.ma|                b: "i8x16.max_s_with_const_16" 0x258-0x270.7 (25)
0x260|78 5f 73 5f 77 69 74 68 5f 63 6f 6e 73 74 5f 31|x_s_with_const_1|
0x270|36                                             |6               |
     |                                               |                |              d{}: 0x271-0x272.7 (2)
0x270|   00                                          | .              |                tag: "funcidx" (0x0) 0x271-0x271.7 (1)
0x270|      17                                       |  .             |                x: 23 0x272-0x272.7 (1)
     |                                               |                |            [24]{}: ex 0x273-0x28e.7 (28)
     |                                               |                |              nm{}: 0x273-0x28c.7 (26)
0x270|         19                                    |   .            |                n: 25 0x273-0x273.7 (1)
0x270|            69 38 78 31 36 2e 6d 61 78 5f 73 5f|    i8x16.max_s_|                b: "i8x16.max_s_with_const_17" 0x274-0x28c.7 (25)
0x280|77 69 74 68 5f 63 6f 6e 73 74 5f 31 37         |with_const_17   |
     |                                               |                |              d{}: 0x28d-0x28e.7 (2)
0x280|                                       00      |             .  |                tag: "funcidx" (0x0) 0x28d-0x28d.7 (1)
0x280|                                          18   |              . |                x: 24 0x28e-0x28e.7 (1)
     |                                               |                |            [25]{}: ex 0x28f-0x2aa.7 (28)
     |                                               |                |              nm{}: 0x28f-0x2a8.7 (26)
0x280|                                             19|               .|                n: 25 0x28f-0x28f.7 (1)
0x290|69 38 78 31 36 2e 6d 61 78 5f 75 5f 77 69 74 68|i8x16.max_u_with|                b: "i8x16.max_u_with_const_18" 0x290-0x2a8.7 (25)
0x2a0|5f 63 6f 6e 73 74 5f 31 38                     |_const_18       |
     |                                               |                |              d{}: 0x2a9-0x2aa.7 (2)
0x2a0|                           00                  |         .      |                tag: "funcidx" (0x0) 0x2a9-0x2a9.7 (1)
0x2a0|                              19               |          .     |                x: 25 0x2aa-0x2aa.7 (1)
     |                                               |                |            [26]{}: ex 0x2ab-0x2c6.7 (28)
     |                                               |                |              nm{}: 0x2ab-0x2c4.7 (26)
0x2a0|                                 19            |           .    |                n: 25 0x2ab-0x2ab.7 (1)
0x2a0|                                    69 38 78 31|            i8x1|                b: "i8x16.max_u_with_const_19" 0x2ac-0x2c4.7 (25)
0x2b0|36 2e 6d 61 78 5f 75 5f 77 69 74 68 5f 63 6f 6e|6.max_u_with_con|
0x2c0|73 74 5f 31 39                                 |st_19           |
     |                                               |                |              d{}: 0x2c5-0x2c6.7 (2)
0x2c0|               00                              |     .          |                tag: "funcidx" (0x0) 0x2c5-0x2c5.7 (1)
0x2c0|                  1a                           |      .         |                x: 26 0x2c6-0x2c6.7 (1)
     |                                               |                |            [27]{}: ex 0x2c7-0x2e3.7 (29)
     |                                               |                |              nm{}: 0x2c7-0x2e1.7 (27)
0x2c0|                     1a                        |       .        |                n: 26 0x2c7-0x2c7.7 (1)
0x2c0|                        69 38 78 31 36 2e 61 76|        i8x16.av|                b: "i8x16.avgr_u_with_const_20" 0x2c8-0x2e1.7 (26)
0x2d0|67 72 5f 75 5f 77 69 74 68 5f 63 6f 6e 73 74 5f|gr_u_with_const_|
0x2e0|32 30                                          |20              |
     |                                               |                |              d{}: 0x2e2-0x2e3.7 (2)
0x2e0|      00                                       |  .             |                tag: "funcidx" (0x0) 0x2e2-0x2e2.7 (1)
0x2e0|         1b                                    |   .            |                x: 27 0x2e3-0x2e3.7 (1)
     |                                               |                |            [28]{}: ex 0x2e4-0x300.7 (29)
     |                                               |                |              nm{}: 0x2e4-0x2fe.7 (27)
0x2e0|            1a                                 |    .           |                n: 26 0x2e4-0x2e4.7 (1)
0x2e0|               69 38 78 31 36 2e 61 76 67 72 5f|     i8x16.avgr_|                b: "i8x16.avgr_u_with_const_21" 0x2e5-0x2fe.7 (26)
0x2f0|75 5f 77 69 74 68 5f 63 6f 6e 73 74 5f 32 31   |u_with_const_21 |
     |                                               |                |              d{}: 0x2ff-0x300.7 (2)
0x2f0|                                             00|               .|                tag: "funcidx" (0x0) 0x2ff-0x2ff.7 (1)
0x300|1c                                             |.               |                x: 28 0x300-0x300.7 (1)
     |                                               |                |    [3]{}: section 0x301-0x601.7 (769)
0x300|   0a                                          | .              |      id: "code section" (10) 0x301-0x301.7 (1)
0x300|      fe 05                                    |  ..            |      size: 766 0x302-0x303.7 (2)
     |                                               |                |      content{}: 0x304-0x601.7 (766)
     |                                               |                |        code{}: 0x304-0x601.7 (766)
0x300|            1d                                 |    .           |          n: 29 0x304-0x304.7 (1)
     |                                               |                |          x[0:29]: 0x305-0x601.7 (765)
     |                                               |                |            [0]{}: code 0x305-0x30d.7 (9)
0x300|               08                              |     .          |              size: 8 0x305-0x305.7 (1)
     |                                               |                |              code{}: 0x306-0x30d.7 (8)
     |                                               |                |                t{}: 0x306-0x306.7 (1)
0x300|                  00                           |      .         |                  n: 0 0x306-0x306.7 (1)
     |                                               |                |                  x[0:0]: 0x307-NA (0)
     |                                               |                |                e[0:4]: 0x307-0x30d.7 (7)
     |                                               |                |                  [0]{}: in 0x307-0x308.7 (2)
0x300|                     20                        |                |                    local.get: 0x20 (valid) 0x307-0x307.7 (1)
0x300|                        00                     |        .       |                    x: 0 0x308-0x308.7 (1)
     |                                               |                |                  [1]{}: in 0x309-0x30a.7 (2)
0x300|                           20                  |                |                    local.get: 0x20 (valid) 0x309-0x309.7 (1)
0x300|                              01               |          .     |                    x: 1 0x30a-0x30a.7 (1)
     |                                               |                |                  [2]{}: in 0x30b-0x30c.7 (2)
0x300|                                 fd            |           .    |                    prefix: 0xfd (valid) 0x30b-0x30b.7 (1)
0x300|                                    76         |            v   |                    i8x16.min_s: 118 (valid) 0x30c-0x30c.7 (1)
     |                                               |                |                  [3]{}: in 0x30d-0x30d.7 (1)
0x300|                                       0b      |             .  |                    end: 0xb (valid) 0x30d-0x30d.7 (1)
     |                                               |                |            [1]{}: code 0x30e-0x316.7 (9)
0x300|                                          08   |              . |              size: 8 0x30e-0x30e.7 (1)
     |                                               |                |              code{}: 0x30f-0x316.7 (8)
     |                                               |                |                t{}: 0x30f-0x30f.7 (1)
0x300|                                             00|               .|                  n: 0 0x30f-0x30f.7 (1)
     |                                               |                |                  x[0:0]: 0x310-NA (0)
     |                                               |                |                e[0:4]: 0x310-0x316.7 (7)
     |                                               |                |                  [0]{}: in 0x310-0x311.7 (2)
0x310|20                                             |                |                    local.get: 0x20 (valid) 0x310-0x310.7 (1)
0x310|   00                                          | .              |                    x: 0 0x311-0x311.7 (1)
     |                                               |                |                  [1]{}: in 0x312-0x313.7 (2)
0x310|      20                                       |                |                    local.get: 0x20 (valid) 0x312-0x312.7 (1)
0x310|         01                                    |   .            |                    x: 1 0x313-0x313.7 (1)
     |                                               |                |                  [2]{}: in 0x314-0x315.7 (2)
0x310|            fd                                 |    .           |                    prefix: 0xfd (valid) 0x314-0x314.7 (1)
0x310|               77                              |     w          |                    i8x16.min_u: 119 (valid) 0x315-0x315.7 (1)
     |                                               |                |                  [3]{}: in 0x316-0x316.7 (1)
0x310|                  0b                           |      .         |                    end: 0xb (valid) 0x316-0x316.7 (1)
     |                                               |                |            [2]{}: code 0x317-0x31f.7 (9)
0x310|                     08                        |       .        |              size: 8 0x317-0x317.7 (1)
     |                                               |                |              code{}: 0x318-0x31f.7 (8)
     |                                               |                |                t{}: 0x318-0x318.7 (1)
0x310|                        00                     |        .       |                  n: 0 0x318-0x318.7 (1)
     |                                               |                |                  x[0:0]: 0x319-NA (0)
     |                                               |                |                e[0:4]: 0x319-0x31f.7 (7)
     |                                               |                |                  [0]{}: in 0x319-0x31a.7 (2)
0x310|                           20                  |                |                    local.get: 0x20 (valid) 0x319-0x319.7 (1)
0x310|                              00               |          .     |                    x: 0 0x31a-0x31a.7 (1)
     |                                               |                |                  [1]{}: in 0x31b-0x31c.7 (2)
0x310|                                 20            |                |                    local.get: 0x20 (valid) 0x31b-0x31b.7 (1)
0x310|                                    01         |            .   |                    x: 1 0x31c-0x31c.7 (1)
     |                                               |                |                  [2]{}: in 0x31d-0x31e.7 (2)
0x310|                                       fd      |             .  |                    prefix: 0xfd (valid) 0x31d-0x31d.7 (1)
0x310|                                          78   |              x |                    i8x16.max_s: 120 (valid) 0x31e-0x31e.7 (1)
     |                                               |                |                  [3]{}: in 0x31f-0x31f.7 (1)
0x310|                                             0b|               .|                    end: 0xb (valid) 0x31f-0x31f.7 (1)
     |                                               |                |            [3]{}: code 0x320-0x328.7 (9)
0x320|08                                             |.               |              size: 8 0x320-0x320.7 (1)
     |                                               |                |              code{}: 0x321-0x328.7 (8)
     |                                               |                |                t{}: 0x321-0x321.7 (1)
0x320|   00                                          | .              |                  n: 0 0x321-0x321.7 (1)
     |                                               |                |                  x[0:0]: 0x322-NA (0)
     |                                               |                |                e[0:4]: 0x322-0x328.7 (7)
     |                                               |                |                  [0]{}: in 0x322-0x323.7 (2)
0x320|      20                                       |                |                    local.get: 0x20 (valid) 0x322-0x322.7 (1)
0x320|         00                                    |   .            |                    x: 0 0x323-0x323.7 (1)
     |                                               |                |                  [1]{}: in 0x324-0x325.7 (2)
0x320|            20                                 |                |                    local.get: 0x20 (valid) 0x324-0x324.7 (1)
0x320|               01                              |     .          |                    x: 1 0x325-0x325.7 (1)
     |                                               |                |                  [2]{}: in 0x326-0x327.7 (2)
0x320|                  fd                           |      .         |                    prefix: 0xfd (valid) 0x326-0x326.7 (1)
0x320|                     79                        |       y        |                    i8x16.max_u: 121 (valid) 0x327-0x327.7 (1)
     |                                               |                |                  [3]{}: in 0x328-0x328.7 (1)
0x320|                        0b                     |        .       |                    end: 0xb (valid) 0x328-0x328.7 (1)
     |                                               |                |            [4]{}: code 0x329-0x331.7 (9)
0x320|                           08                  |         .      |              size: 8 0x329-0x329.7 (1)
     |                                               |                |              code{}: 0x32a-0x331.7 (8)
     |                                               |                |                t{}: 0x32a-0x32a.7 (1)
0x320|                              00               |          .     |                  n: 0 0x32a-0x32a.7 (1)
     |                                               |                |                  x[0:0]: 0x32b-NA (0)
     |                                               |                |                e[0:4]: 0x32b-0x331.7 (7)
     |                                               |                |                  [0]{}: in 0x32b-0x32c.7 (2)
0x320|                                 20            |                |                    local.get: 0x20 (valid) 0x32b-0x32b.7 (1)
0x320|                                    00         |            .   |                    x: 0 0x32c-0x32c.7 (1)
     |                                               |                |                  [1]{}: in 0x32d-0x32e.7 (2)
0x320|                                       20      |                |                    local.get: 0x20 (valid) 0x32d-0x32d.7 (1)
0x320|                                          01   |              . |                    x: 1 0x32e-0x32e.7 (1)
     |                                               |                |                  [2]{}: in 0x32f-0x330.7 (2)
0x320|                                             fd|               .|                    prefix: 0xfd (valid) 0x32f-0x32f.7 (1)
0x330|7b                                             |{               |                    i8x16.avgr_u: 123 (valid) 0x330-0x330.7 (1)
     |                                               |                |                  [3]{}: in 0x331-0x331.7 (1)
0x330|   0b                                          | .              |                    end: 0xb (valid) 0x331-0x331.7 (1)
     |                                               |                |            [5]{}: code 0x332-0x338.7 (7)
0x330|      06                                       |  .             |              size: 6 0x332-0x332.7 (1)
     |                                               |                |              code{}: 0x333-0x338.7 (6)
     |                                               |                |                t{}: 0x333-0x333.7 (1)
0x330|         00                                    |   .            |                  n: 0 0x333-0x333.7 (1)
     |                                               |                |                  x[0:0]: 0x334-NA (0)
     |                                               |                |                e[0:3]: 0x334-0x338.7 (5)
     |                                               |                |                  [0]{}: in 0x334-0x335.7 (2)
0x330|            20                                 |                |                    local.get: 0x20 (valid) 0x334-0x334.7 (1)
0x330|               00                              |     .          |                    x: 0 0x335-0x335.7 (1)
     |                                               |                |                  [1]{}: in 0x336-0x337.7 (2)
0x330|                  fd                           |      .         |                    prefix: 0xfd (valid) 0x336-0x336.7 (1)
0x330|                     60                        |       `        |                    i8x16.abs: 96 (valid) 0x337-0x337.7 (1)
     |                                               |                |                  [2]{}: in 0x338-0x338.7 (1)
0x330|                        0b                     |        .       |                    end: 0xb (valid) 0x338-0x338.7 (1)
     |                                               |                |            [6]{}: code 0x339-0x33f.7 (7)
0x330|                           06                  |         .      |              size: 6 0x339-0x339.7 (1)
     |                                               |                |              code{}: 0x33a-0x33f.7 (6)
     |                                               |                |                t{}: 0x33a-0x33a.7 (1)
0x330|                              00               |          .     |                  n: 0 0x33a-0x33a.7 (1)
     |                                               |                |                  x[0:0]: 0x33b-NA (0)
     |                                               |                |                e[0:3]: 0x33b-0x33f.7 (5)
     |                                               |                |                  [0]{}: in 0x33b-0x33c.7 (2)
0x330|                                 20            |                |                    local.get: 0x20 (valid) 0x33b-0x33b.7 (1)
0x330|                                    00         |            .   |                    x: 0 0x33c-0x33c.7 (1)
     |                                               |                |                  [1]{}: in 0x33d-0x33e.7 (2)
0x330|                                       fd      |             .  |                    prefix: 0xfd (valid) 0x33d-0x33d.7 (1)
0x330|                                          62   |              b |                    i8x16.popcnt: 98 (valid) 0x33e-0x33e.7 (1)
     |                                               |                |                  [2]{}: in 0x33f-0x33f.7 (1)
0x330|                                             0b|               .|                    end: 0xb (valid) 0x33f-0x33f.7 (1)
     |                                               |                |            [7]{}: code 0x340-0x368.7 (41)
0x340|28                                             |(               |              size: 40 0x340-0x340.7 (1)
     |                                               |                |              code{}: 0x341-0x368.7 (40)
     |                                               |                |                t{}: 0x341-0x341.7 (1)
0x340|   00                                          | .              |                  n: 0 0x341-0x341.7 (1)
     |                                               |                |                  x[0:0]: 0x342-NA (0)
     |                                               |                |                e[0:4]: 0x342-0x368.7 (39)
     |                                               |                |                  [0]{}: in 0x342-0x353.7 (18)
0x340|      fd                                       |  .             |                    prefix: 0xfd (valid) 0x342-0x342.7 (1)
0x340|         0c                                    |   .            |                    v128.const: 12 (valid) 0x343-0x343.7 (1)
0x340|            80 80 80 80 7f 7f 7f 7f 40 40 40 40|    ........@@@@|                    bytes: raw bits 0x344-0x353.7 (16)
0x350|ff ff ff ff                                    |....            |
     |                                               |                |                  [1]{}: in 0x354-0x365.7 (18)
0x350|            fd                                 |    .           |                    prefix: 0xfd (valid) 0x354-0x354.7 (1)
0x350|               0c                              |     .          |                    v128.const: 12 (valid) 0x355-0x355.7 (1)
0x350|                  ff ff ff ff 40 40 40 40 7f 7f|      ....@@@@..|                    bytes: raw bits 0x356-0x365.7 (16)
0x360|7f 7f 80 80 80 80                              |......          |
     |                                               |                |                  [2]{}: in 0x366-0x367.7 (2)
0x360|                  fd                           |      .         |                    prefix: 0xfd (valid) 0x366-0x366.7 (1)
0x360|                     76                        |       v        |                    i8x16.min_s: 118 (valid) 0x367-0x367.7 (1)
     |                                               |                |                  [3]{}: in 0x368-0x368.7 (1)
0x360|                        0b                     |        .       |                    end: 0xb (valid) 0x368-0x368.7 (1)
     |                                               |                |            [8]{}: code 0x369-0x391.7 (41)
0x360|                           28                  |         (      |              size: 40 0x369-0x369.7 (1)
     |                                               |                |              code{}: 0x36a-0x391.7 (40)
     |                                               |                |                t{}: 0x36a-0x36a.7 (1)
0x360|                              00               |          .     |                  n: 0 0x36a-0x36a.7 (1)
     |                                               |                |                  x[0:0]: 0x36b-NA (0)
     |                                               |                |                e[0:4]: 0x36b-0x391.7 (39)
     |                                               |                |                  [0]{}: in 0x36b-0x37c.7 (18)
0x360|                                 fd            |           .    |                    prefix: 0xfd (valid) 0x36b-0x36b.7 (1)
0x360|                                    0c         |            .   |                    v128.const: 12 (valid) 0x36c-0x36c.7 (1)
0x360|                                       00 00 00|             ...|                    bytes: raw bits 0x36d-0x37c.7 (16)
0x370|00 01 01 01 01 02 02 02 02 03 03 03 03         |.............   |
     |                                               |                |                  [1]{}: in 0x37d-0x38e.7 (18)
0x370|                                       fd      |             .  |                    prefix: 0xfd (valid) 0x37d-0x37d.7 (1)
0x370|                                          0c   |              . |                    v128.const: 12 (valid) 0x37e-0x37e.7 (1)
0x370|                                             03|               .|                    bytes: raw bits 0x37f-0x38e.7 (16)
0x380|03 03 03 02 02 02 02 01 01 01 01 00 00 00 00   |............... |
     |                                               |                |                  [2]{}: in 0x38f-0x390.7 (2)
0x380|                                             fd|               .|                    prefix: 0xfd (valid) 0x38f-0x38f.7 (1)
0x390|76                                             |v               |                    i8x16.min_s: 118 (valid) 0x390-0x390.7 (1)
     |                                               |                |                  [3]{}: in 0x391-0x391.7 (1)
0x390|   0b                                          | .              |                    end: 0xb (valid) 0x391-0x391.7 (1)
     |                                               |                |            [9]{}: code 0x392-0x3ba.7 (41)
0x390|      28                                       |  (             |              size: 40 0x392-0x392.7 (1)
     |                                               |                |              code{}: 0x393-0x3ba.7 (40)
     |                                               |                |                t{}: 0x393-0x393.7 (1)
0x390|         00                                    |   .            |                  n: 0 0x393-0x393.7 (1)
     |                                               |                |                  x[0:0]: 0x394-NA (0)
     |                                               |                |                e[0:4]: 0x394-0x3ba.7 (39)
     |                                               |                |                  [0]{}: in 0x394-0x3a5.7 (18)
0x390|            fd                                 |    .           |                    prefix: 0xfd (valid) 0x394-0x394.7 (1)
0x390|               0c                              |     .          |                    v128.const: 12 (valid) 0x395-0x395.7 (1)
0x390|                  80 80 80 80 7f 7f 7f 7f 40 40|      ........@@|                    bytes: raw bits 0x396-0x3a5.7 (16)
0x3a0|40 40 ff ff ff ff                              |@@....          |
     |                                               |                |                  [1]{}: in 0x3a6-0x3b7.7 (18)
0x3a0|                  fd                           |      .         |                    prefix: 0xfd (valid) 0x3a6-0x3a6.7 (1)
0x3a0|                     0c                        |       .        |                    v128.const: 12 (valid) 0x3a7-0x3a7.7 (1)
0x3a0|                        ff ff ff ff 40 40 40 40|        ....@@@@|                    bytes: raw bits 0x3a8-0x3b7.7 (16)
0x3b0|7f 7f 7f 7f 80 80 80 80                        |........        |
     |                                               |                |                  [2]{}: in 0x3b8-0x3b9.7 (2)
0x3b0|                        fd                     |        .       |                    prefix: 0xfd (valid) 0x3b8-0x3b8.7 (1)
0x3b0|                           77                  |         w      |                    i8x16.min_u: 119 (valid) 0x3b9-0x3b9.7 (1)
     |                                               |                |                  [3]{}: in 0x3ba-0x3ba.7 (1)
0x3b0|                              0b               |          .     |                    end: 0xb (valid) 0x3ba-0x3ba.7 (1)
     |                                               |                |            [10]{}: code 0x3bb-0x3e3.7 (41)
0x3b0|                                 28            |           (    |              size: 40 0x3bb-0x3bb.7 (1)
     |                                               |                |              code{}: 0x3bc-0x3e3.7 (40)
     |                                               |                |                t{}: 0x3bc-0x3bc.7 (1)
0x3b0|                                    00         |            .   |                  n: 0 0x3bc-0x3bc.7 (1)
     |                                               |                |                  x[0:0]: 0x3bd-NA (0)
     |                                               |                |                e[0:4]: 0x3bd-0x3e3.7 (39)
     |                                               |                |                  [0]{}: in 0x3bd-0x3ce.7 (18)
0x3b0|                                       fd      |             .  |                    prefix: 0xfd (valid) 0x3bd-0x3bd.7 (1)
0x3b0|                                          0c   |              . |                    v128.const: 12 (valid) 0x3be-0x3be.7 (1)
0x3b0|                                             00|               .|                    bytes: raw bits 0x3bf-0x3ce.7 (16)
0x3c0|00 00 00 01 01 01 01 02 02 02 02 03 03 03 03   |............... |
     |                                               |                |                  [1]{}: in 0x3cf-0x3e0.7 (18)
0x3c0|                                             fd|               .|                    prefix: 0xfd (valid) 0x3cf-0x3cf.7 (1)
0x3d0|0c                                             |.               |                    v128.const: 12 (valid) 0x3d0-0x3d0.7 (1)
0x3d0|   03 03 03 03 02 02 02 02 01 01 01 01 00 00 00| ...............|                    bytes: raw bits 0x3d1-0x3e0.7 (16)
0x3e0|00                                             |.               |
     |                                               |                |                  [2]{}: in 0x3e1-0x3e2.7 (2)
0x3e0|   fd                                          | .              |                    prefix: 0xfd (valid) 0x3e1-0x3e1.7 (1)
0x3e0|      77                                       |  w             |                    i8x16.min_u: 119 (valid) 0x3e2-0x3e2.7 (1)
     |                                               |                |                  [3]{}: in 0x3e3-0x3e3.7 (1)
0x3e0|         0b                                    |   .            |                    end: 0xb (valid) 0x3e3-0x3e3.7 (1)
     |                                               |                |            [11]{}: code 0x3e4-0x40c.7 (41)
0x3e0|            28                                 |    (           |              size: 40 0x3e4-0x3e4.7 (1)
     |                                               |                |              code{}: 0x3e5-0x40c.7 (40)
     |                                               |                |                t{}: 0x3e5-0x3e5.7 (1)
0x3e0|               00                              |     .          |                  n: 0 0x3e5-0x3e5.7 (1)
     |                                               |                |                  x[0:0]: 0x3e6-NA (0)
     |                                               |                |                e[0:4]: 0x3e6-0x40c.7 (39)
     |                                               |                |                  [0]{}: in 0x3e6-0x3f7.7 (18)
0x3e0|                  fd                           |      .         |                    prefix: 0xfd (valid) 0x3e6-0x3e6.7 (1)
0x3e0|                     0c                        |       .        |                    v128.const: 12 (valid) 0x3e7-0x3e7.7 (1)
0x3e0|                        80 80 80 80 7f 7f 7f 7f|        ........|                    bytes: raw bits 0x3e8-0x3f7.7 (16)
0x3f0|40 40 40 40 ff ff ff ff                        |@@@@....        |
     |                                               |                |                  [1]{}: in 0x3f8-0x409.7 (18)
0x3f0|                        fd                     |        .       |                    prefix: 0xfd (valid) 0x3f8-0x3f8.7 (1)
0x3f0|                           0c                  |         .      |                    v128.const: 12 (valid) 0x3f9-0x3f9.7 (1)
0x3f0|                              ff ff ff ff 40 40|          ....@@|                    bytes: raw bits 0x3fa-0x409.7 (16)
0x400|40 40 7f 7f 7f 7f 80 80 80 80                  |@@........      |
     |                                               |                |                  [2]{}: in 0x40a-0x40b.7 (2)
0x400|                              fd               |          .     |                    prefix: 0xfd (valid) 0x40a-0x40a.7 (1)
0x400|                                 78            |           x    |                    i8x16.max_s: 120 (valid) 0x40b-0x40b.7 (1)
     |                                               |                |                  [3]{}: in 0x40c-0x40c.7 (1)
0x400|                                    0b         |            .   |                    end: 0xb (valid) 0x40c-0x40c.7 (1)
     |                                               |                |            [12]{}: code 0x40d-0x435.7 (41)
0x400|                                       28      |             (  |              size: 40 0x40d-0x40d.7 (1)
     |                                               |                |              code{}: 0x40e-0x435.7 (40)
     |                                               |                |                t{}: 0x40e-0x40e.7 (1)
0x400|                                          00   |              . |                  n: 0 0x40e-0x40e.7 (1)
     |                                               |                |                  x[0:0]: 0x40f-NA (0)
     |                                               |                |                e[0:4]: 0x40f-0x435.7 (39)
     |                                               |                |                  [0]{}: in 0x40f-0x420.7 (18)
0x400|                                             fd|               .|                    prefix: 0xfd (valid) 0x40f-0x40f.7 (1)
0x410|0c                                             |.               |                    v128.const: 12 (valid) 0x410-0x410.7 (1)
0x410|   00 00 00 00 01 01 01 01 02 02 02 02 03 03 03| ...............|                    bytes: raw bits 0x411-0x420.7 (16)
0x420|03                                             |.               |
     |                                               |                |                  [1]{}: in 0x421-0x432.7 (18)
0x420|   fd                                          | .              |                    prefix: 0xfd (valid) 0x421-0x421.7 (1)
0x420|      0c                                       |  .             |                    v128.const: 12 (valid) 0x422-0x422.7 (1)
0x420|         03 03 03 03 02 02 02 02 01 01 01 01 00|   .............|                    bytes: raw bits 0x423-0x432.7 (16)
0x430|00 00 00                                       |...             |
     |                                               |                |                  [2]{}: in 0x433-0x434.7 (2)
0x430|         fd                                    |   .            |                    prefix: 0xfd (valid) 0x433-0x433.7 (1)
0x430|            78                                 |    x           |                    i8x16.max_s: 120 (valid) 0x434-0x434.7 (1)
     |                                               |                |                  [3]{}: in 0x435-0x435.7 (1)
0x430|               0b                              |     .          |                    end: 0xb (valid) 0x435-0x435.7 (1)
     |                                               |                |            [13]{}: code 0x436-0x45e.7 (41)
0x430|                  28                           |      (         |              size: 40 0x436-0x436.7 (1)
     |                                               |                |              code{}: 0x437-0x45e.7 (40)
     |                                               |                |                t{}: 0x437-0x437.7 (1)
0x430|                     00                        |       .        |                  n: 0 0x437-0x437.7 (1)
     |                                               |                |                  x[0:0]: 0x438-NA (0)
     |                                               |                |                e[0:4]: 0x438-0x45e.7 (39)
     |                                               |                |                  [0]{}: in 0x438-0x449.7 (18)
0x430|                        fd                     |        .       |                    prefix: 0xfd (valid) 0x438-0x438.7 (1)
0x430|                           0c                  |         .      |                    v128.const: 12 (valid) 0x439-0x439.7 (1)
0x430|                              80 80 80 80 7f 7f|          ......|                    bytes: raw bits 0x43a-0x449.7 (16)
0x440|7f 7f 40 40 40 40 ff ff ff ff                  |..@@@@....      |
     |                                               |                |                  [1]{}: in 0x44a-0x45b.7 (18)
0x440|                              fd               |          .     |                    prefix: 0xfd (valid) 0x44a-0x44a.7 (1)
0x440|                                 0c            |           .    |                    v128.const: 12 (valid) 0x44b-0x44b.7 (1)
0x440|                                    ff ff ff ff|            ....|                    bytes: raw bits 0x44c-0x45b.7 (16)
0x450|40 40 40 40 7f 7f 7f 7f 80 80 80 80            |@@@@........    |
     |                                               |                |                  [2]{}: in 0x45c-0x45d.7 (2)
0x450|                                    fd         |            .   |                    prefix: 0xfd (valid) 0x45c-0x45c.7 (1)
0x450|                                       79      |             y  |                    i8x16.max_u: 121 (valid) 0x45d-0x45d.7 (1)
     |                                               |                |                  [3]{}: in 0x45e-0x45e.7 (1)
0x450|                                          0b   |              . |                    end: 0xb (valid) 0x45e-0x45e.7 (1)
     |                                               |                |            [14]{}: code 0x45f-0x487.7 (41)
0x450|                                             28|               (|              size: 40 0x45f-0x45f.7 (1)
     |                                               |                |              code{}: 0x460-0x487.7 (40)
     |                                               |                |                t{}: 0x460-0x460.7 (1)
0x460|00                                             |.               |                  n: 0 0x460-0x460.7 (1)
     |                                               |                |                  x[0:0]: 0x461-NA (0)
     |                                               |                |                e[0:4]: 0x461-0x487.7 (39)
     |                                               |                |                  [0]{}: in 0x461-0x472.7 (18)
0x460|   fd                                          | .              |                    prefix: 0xfd (valid) 0x461-0x461.7 (1)
0x460|      0c                                       |  .             |                    v128.const: 12 (valid) 0x462-0x462.7 (1)
0x460|         00 00 00 00 01 01 01 01 02 02 02 02 03|   .............|                    bytes: raw bits 0x463-0x472.7 (16)
0x470|03 03 03                                       |...             |
     |                                               |                |                  [1]{}: in 0x473-0x484.7 (18)
0x470|         fd                                    |   .            |                    prefix: 0xfd (valid) 0x473-0x473.7 (1)
0x470|            0c                                 |    .           |                    v128.const: 12 (valid) 0x474-0x474.7 (1)
0x470|               03 03 03 03 02 02 02 02 01 01 01|     ...........|                    bytes: raw bits 0x475-0x484.7 (16)
0x480|01 00 00 00 00                                 |.....           |
     |                                               |                |                  [2]{}: in 0x485-0x486.7 (2)
0x480|               fd                              |     .          |                    prefix: 0xfd (valid) 0x485-0x485.7 (1)
0x480|                  79                           |      y         |                    i8x16.max_u: 121 (valid) 0x486-0x486.7 (1)
     |                                               |                |                  [3]{}: in 0x487-0x487.7 (1)
0x480|                     0b                        |       .        |                    end: 0xb (valid) 0x487-0x487.7 (1)
     |                                               |                |            [15]{}: code 0x488-0x4b0.7 (41)
0x480|                        28                     |        (       |              size: 40 0x488-0x488.7 (1)
     |                                               |                |              code{}: 0x489-0x4b0.7 (40)
     |                                               |                |                t{}: 0x489-0x489.7 (1)
0x480|                           00                  |         .      |                  n: 0 0x489-0x489.7 (1)
     |                                               |                |                  x[0:0]: 0x48a-NA (0)
     |                                               |                |                e[0:4]: 0x48a-0x4b0.7 (39)
     |                                               |                |                  [0]{}: in 0x48a-0x49b.7 (18)
0x480|                              fd               |          .     |                    prefix: 0xfd (valid) 0x48a-0x48a.7 (1)
0x480|                                 0c            |           .    |                    v128.const: 12 (valid) 0x48b-0x48b.7 (1)
0x480|                                    80 80 80 80|            ....|                    bytes: raw bits 0x48c-0x49b.7 (16)
0x490|7f 7f 7f 7f 40 40 40 40 ff ff ff ff            |....@@@@....    |
     |                                               |                |                  [1]{}: in 0x49c-0x4ad.7 (18)
0x490|                                    fd         |            .   |                    prefix: 0xfd (valid) 0x49c-0x49c.7 (1)
0x490|                                       0c      |             .  |                    v128.const: 12 (valid) 0x49d-0x49d.7 (1)
0x490|                                          ff ff|              ..|                    bytes: raw bits 0x49e-0x4ad.7 (16)
0x4a0|ff ff 40 40 40 40 7f 7f 7f 7f 80 80 80 80      |..@@@@........  |
     |                                               |                |                  [2]{}: in 0x4ae-0x4af.7 (2)
0x4a0|                                          fd   |              . |                    prefix: 0xfd (valid) 0x4ae-0x4ae.7 (1)
0x4a0|                                             7b|               {|                    i8x16.avgr_u: 123 (valid) 0x4af-0x4af.7 (1)
     |                                               |                |                  [3]{}: in 0x4b0-0x4b0.7 (1)
0x4b0|0b                                             |.               |                    end: 0xb (valid) 0x4b0-0x4b0.7 (1)
     |                                               |                |            [16]{}: code 0x4b1-0x4d9.7 (41)
0x4b0|   28                                          | (              |              size: 40 0x4b1-0x4b1.7 (1)
     |                                               |                |              code{}: 0x4b2-0x4d9.7 (40)
     |                                               |                |                t{}: 0x4b2-0x4b2.7 (1)
0x4b0|      00                                       |  .             |                  n: 0 0x4b2-0x4b2.7 (1)
     |                                               |                |                  x[0:0]: 0x4b3-NA (0)
     |                                               |                |                e[0:4]: 0x4b3-0x4d9.7 (39)
     |                                               |                |                  [0]{}: in 0x4b3-0x4c4.7 (18)
0x4b0|         fd                                    |   .            |                    prefix: 0xfd (valid) 0x4b3-0x4b3.7 (1)
0x4b0|            0c                                 |    .           |                    v128.const: 12 (valid) 0x4b4-0x4b4.7 (1)
0x4b0|               00 00 00 00 01 01 01 01 02 02 02|     ...........|                    bytes: raw bits 0x4b5-0x4c4.7 (16)
0x4c0|02 03 03 03 03                                 |.....           |
     |                                               |                |                  [1]{}: in 0x4c5-0x4d6.7 (18)
0x4c0|               fd                              |     .          |                    prefix: 0xfd (valid) 0x4c5-0x4c5.7 (1)
0x4c0|                  0c                           |      .         |                    v128.const: 12 (valid) 0x4c6-0x4c6.7 (1)
0x4c0|                     03 03 03 03 02 02 02 02 01|       .........|                    bytes: raw bits 0x4c7-0x4d6.7 (16)
0x4d0|01 01 01 00 00 00 00                           |.......         |
     |                                               |                |                  [2]{}: in 0x4d7-0x4d8.7 (2)
0x4d0|                     fd                        |       .        |                    prefix: 0xfd (valid) 0x4d7-0x4d7.7 (1)
0x4d0|                        7b                     |        {       |                    i8x16.avgr_u: 123 (valid) 0x4d8-0x4d8.7 (1)
     |                                               |                |                  [3]{}: in 0x4d9-0x4d9.7 (1)
0x4d0|                           0b                  |         .      |                    end: 0xb (valid) 0x4d9-0x4d9.7 (1)
     |                                               |                |            [17]{}: code 0x4da-0x4f0.7 (23)
0x4d0|                              16               |          .     |              size: 22 0x4da-0x4da.7 (1)
     |                                               |                |              code{}: 0x4db-0x4f0.7 (22)
     |                                               |                |                t{}: 0x4db-0x4db.7 (1)
0x4d0|                                 00            |           .    |                  n: 0 0x4db-0x4db.7 (1)
     |                                               |                |                  x[0:0]: 0x4dc-NA (0)
     |                                               |                |                e[0:3]: 0x4dc-0x4f0.7 (21)
     |                                               |                |                  [0]{}: in 0x4dc-0x4ed.7 (18)
0x4d0|                                    fd         |            .   |                    prefix: 0xfd (valid) 0x4dc-0x4dc.7 (1)
0x4d0|                                       0c      |             .  |                    v128.const: 12 (valid) 0x4dd-0x4dd.7 (1)
0x4d0|                                          80 80|              ..|                    bytes: raw bits 0x4de-0x4ed.7 (16)
0x4e0|80 80 7f 7f 7f 7f 40 40 40 40 ff ff ff ff      |......@@@@....  |
     |                                               |                |                  [1]{}: in 0x4ee-0x4ef.7 (2)
0x4e0|                                          fd   |              . |                    prefix: 0xfd (valid) 0x4ee-0x4ee.7 (1)
0x4e0|                                             60|               `|                    i8x16.abs: 96 (valid) 0x4ef-0x4ef.7 (1)
     |                                               |                |                  [2]{}: in 0x4f0-0x4f0.7 (1)
0x4f0|0b                                             |.               |                    end: 0xb (valid) 0x4f0-0x4f0.7 (1)
     |                                               |                |            [18]{}: code 0x4f1-0x507.7 (23)
0x4f0|   16                                          | .              |              size: 22 0x4f1-0x4f1.7 (1)
     |                                               |                |              code{}: 0x4f2-0x507.7 (22)
     |                                               |                |                t{}: 0x4f2-0x4f2.7 (1)
0x4f0|      00                                       |  .             |                  n: 0 0x4f2-0x4f2.7 (1)
     |                                               |                |                  x[0:0]: 0x4f3-NA (0)
     |                                               |                |                e[0:3]: 0x4f3-0x507.7 (21)
     |                                               |                |                  [0]{}: in 0x4f3-0x504.7 (18)
0x4f0|         fd                                    |   .            |                    prefix: 0xfd (valid) 0x4f3-0x4f3.7 (1)
0x4f0|            0c                                 |    .           |                    v128.const: 12 (valid) 0x4f4-0x4f4.7 (1)
0x4f0|               80 80 80 80 7f 7f 7f 7f 40 40 40|     ........@@@|                    bytes: raw bits 0x4f5-0x504.7 (16)
0x500|40 ff ff ff ff                                 |@....           |
     |                                               |                |                  [1]{}: in 0x505-0x506.7 (2)
0x500|               fd                              |     .          |                    prefix: 0xfd (valid) 0x505-0x505.7 (1)
0x500|                  62                           |      b         |                    i8x16.popcnt: 98 (valid) 0x506-0x506.7 (1)
     |                                               |                |                  [2]{}: in 0x507-0x507.7 (1)
0x500|                     0b                        |       .        |                    end: 0xb (valid) 0x507-0x507.7 (1)
     |                                               |                |            [19]{}: code 0x508-0x520.7 (25)
0x500|                        18                     |        .       |              size: 24 0x508-0x508.7 (1)
     |                                               |                |              code{}: 0x509-0x520.7 (24)
     |                                               |                |                t{}: 0x509-0x509.7 (1)
0x500|                           00                  |         .      |                  n: 0 0x509-0x509.7 (1)
     |                                               |                |                  x[0:0]: 0x50a-NA (0)
     |                                               |                |                e[0:4]: 0x50a-0x520.7 (23)
     |                                               |                |                  [0]{}: in 0x50a-0x50b.7 (2)
0x500|                              20               |                |                    local.get: 0x20 (valid) 0x50a-0x50a.7 (1)
0x500|                                 00            |           .    |                    x: 0 0x50b-0x50b.7 (1)
     |                                               |                |                  [1]{}: in 0x50c-0x51d.7 (18)
0x500|                                    fd         |            .   |                    prefix: 0xfd (valid) 0x50c-0x50c.7 (1)
0x500|                                       0c      |             .  |                    v128.const: 12 (valid) 0x50d-0x50d.7 (1)
0x500|                                          80 80|              ..|                    bytes: raw bits 0x50e-0x51d.7 (16)
0x510|80 80 7f 7f 7f 7f 40 40 40 40 ff ff ff ff      |......@@@@....  |
     |                                               |                |                  [2]{}: in 0x51e-0x51f.7 (2)
0x510|                                          fd   |              . |                    prefix: 0xfd (valid) 0x51e-0x51e.7 (1)
0x510|                                             76|               v|                    i8x16.min_s: 118 (valid) 0x51f-0x51f.7 (1)
     |                                               |                |                  [3]{}: in 0x520-0x520.7 (1)
0x520|0b                                             |.               |                    end: 0xb (valid) 0x520-0x520.7 (1)
     |                                               |                |            [20]{}: code 0x521-0x539.7 (25)
0x520|   18                                          | .              |              size: 24 0x521-0x521.7 (1)
     |                                               |                |              code{}: 0x522-0x539.7 (24)
     |                                               |                |                t{}: 0x522-0x522.7 (1)
0x520|      00                                       |  .             |                  n: 0 0x522-0x522.7 (1)
     |                                               |                |                  x[0:0]: 0x523-NA (0)
     |                                               |                |                e[0:4]: 0x523-0x539.7 (23)
     |                                               |                |                  [0]{}: in 0x523-0x524.7 (2)
0x520|         20                                    |                |                    local.get: 0x20 (valid) 0x523-0x523.7 (1)
0x520|            00                                 |    .           |                    x: 0 0x524-0x524.7 (1)
     |                                               |                |                  [1]{}: in 0x525-0x536.7 (18)
0x520|               fd                              |     .          |                    prefix: 0xfd (valid) 0x525-0x525.7 (1)
0x520|                  0c                           |      .         |                    v128.const: 12 (valid) 0x526-0x526.7 (1)
0x520|                     00 00 00 00 01 01 01 01 02|       .........|                    bytes: raw bits 0x527-0x536.7 (16)
0x530|02 02 02 03 03 03 03                           |.......         |
     |                                               |                |                  [2]{}: in 0x537-0x538.7 (2)
0x530|                     fd                        |       .        |                    prefix: 0xfd (valid) 0x537-0x537.7 (1)
0x530|                        76                     |        v       |                    i8x16.min_s: 118 (valid) 0x538-0x538.7 (1)
     |                                               |                |                  [3]{}: in 0x539-0x539.7 (1)
0x530|                           0b                  |         .      |                    end: 0xb (valid) 0x539-0x539.7 (1)
     |                                               |                |            [21]{}: code 0x53a-0x552.7 (25)
0x530|                              18               |          .     |              size: 24 0x53a-0x53a.7 (1)
     |                                               |                |              code{}: 0x53b-0x552.7 (24)
     |                                               |                |                t{}: 0x53b-0x53b.7 (1)
0x530|                                 00            |           .    |                  n: 0 0x53b-0x53b.7 (1)
     |                                               |                |                  x[0:0]: 0x53c-NA (0)
     |                                               |                |                e[0:4]: 0x53c-0x552.7 (23)
     |                                               |                |                  [0]{}: in 0x53c-0x53d.7 (2)
0x530|                                    20         |                |                    local.get: 0x20 (valid) 0x53c-0x53c.7 (1)
0x530|                                       00      |             .  |                    x: 0 0x53d-0x53d.7 (1)
     |                                               |                |                  [1]{}: in 0x53e-0x54f.7 (18)
0x530|                                          fd   |              . |                    prefix: 0xfd (valid) 0x53e-0x53e.7 (1)
0x530|                                             0c|               .|                    v128.const: 12 (valid) 0x53f-0x53f.7 (1)
0x540|80 80 80 80 7f 7f 7f 7f 40 40 40 40 ff ff ff ff|........@@@@....|                    bytes: raw bits 0x540-0x54f.7 (16)
     |                                               |                |                  [2]{}: in 0x550-0x551.7 (2)
0x550|fd                                             |.               |                    prefix: 0xfd (valid) 0x550-0x550.7 (1)
0x550|   77                                          | w              |                    i8x16.min_u: 119 (valid) 0x551-0x551.7 (1)
     |                                               |                |                  [3]{}: in 0x552-0x552.7 (1)
0x550|      0b                                       |  .             |                    end: 0xb (valid) 0x552-0x552.7 (1)
     |                                               |                |            [22]{}: code 0x553-0x56b.7 (25)
0x550|         18                                    |   .            |              size: 24 0x553-0x553.7 (1)
     |                                               |                |              code{}: 0x554-0x56b.7 (24)
     |                                               |                |                t{}: 0x554-0x554.7 (1)
0x550|            00                                 |    .           |                  n: 0 0x554-0x554.7 (1)
     |                                               |                |                  x[0:0]: 0x555-NA (0)
     |                                               |                |                e[0:4]: 0x555-0x56b.7 (23)
     |                                               |                |                  [0]{}: in 0x555-0x556.7 (2)
0x550|               20                              |                |                    local.get: 0x20 (valid) 0x555-0x555.7 (1)
0x550|                  00                           |      .         |                    x: 0 0x556-0x556.7 (1)
     |                                               |                |                  [1]{}: in 0x557-0x568.7 (18)
0x550|                     fd                        |       .        |                    prefix: 0xfd (valid) 0x557-0x557.7 (1)
0x550|                        0c                     |        .       |                    v128.const: 12 (valid) 0x558-0x558.7 (1)
0x550|                           00 00 00 00 01 01 01|         .......|                    bytes: raw bits 0x559-0x568.7 (16)
0x560|01 02 02 02 02 03 03 03 03                     |.........       |
     |                                               |                |                  [2]{}: in 0x569-0x56a.7 (2)
0x560|                           fd                  |         .      |                    prefix: 0xfd (valid) 0x569-0x569.7 (1)
0x560|                              77               |          w     |                    i8x16.min_u: 119 (valid) 0x56a-0x56a.7 (1)
     |                                               |                |                  [3]{}: in 0x56b-0x56b.7 (1)
0x560|                                 0b            |           .    |                    end: 0xb (valid) 0x56b-0x56b.7 (1)
     |                                               |                |            [23]{}: code 0x56c-0x584.7 (25)
0x560|                                    18         |            .   |              size: 24 0x56c-0x56c.7 (1)
     |                                               |                |              code{}: 0x56d-0x584.7 (24)
     |                                               |                |                t{}: 0x56d-0x56d.7 (1)
0x560|                                       00      |             .  |                  n: 0 0x56d-0x56d.7 (1)
     |                                               |                |                  x[0:0]: 0x56e-NA (0)
     |                                               |                |                e[0:4]: 0x56e-0x584.7 (23)
     |                                               |                |                  [0]{}: in 0x56e-0x56f.7 (2)
0x560|                                          20   |                |                    local.get: 0x20 (valid) 0x56e-0x56e.7 (1)
0x560|                                             00|               .|                    x: 0 0x56f-0x56f.7 (1)
     |                                               |                |                  [1]{}: in 0x570-0x581.7 (18)
0x570|fd                                             |.               |                    prefix: 0xfd (valid) 0x570-0x570.7 (1)
0x570|   0c                                          | .              |                    v128.const: 12 (valid) 0x571-0x571.7 (1)
0x570|      80 80 80 80 7f 7f 7f 7f 40 40 40 40 ff ff|  ........@@@@..|                    bytes: raw bits 0x572-0x581.7 (16)
0x580|ff ff                                          |..              |
     |                                               |                |                  [2]{}: in 0x582-0x583.7 (2)
0x580|      fd                                       |  .             |                    prefix: 0xfd (valid) 0x582-0x582.7 (1)
0x580|         78                                    |   x            |                    i8x16.max_s: 120 (valid) 0x583-0x583.7 (1)
     |                                               |                |                  [3]{}: in 0x584-0x584.7 (1)
0x580|            0b                                 |    .           |                    end: 0xb (valid) 0x584-0x584.7 (1)
     |                                               |                |            [24]{}: code 0x585-0x59d.7 (25)
0x580|               18                              |     .          |              size: 24 0x585-0x585.7 (1)
     |                                               |                |              code{}: 0x586-0x59d.7 (24)
     |                                               |                |                t{}: 0x586-0x586.7 (1)
0x580|                  00                           |      .         |                  n: 0 0x586-0x586.7 (1)
     |                                               |                |                  x[0:0]: 0x587-NA (0)
     |                                               |                |                e[0:4]: 0x587-0x59d.7 (23)
     |                                               |                |                  [0]{}: in 0x587-0x588.7 (2)
0x580|                     20                        |                |                    local.get: 0x20 (valid) 0x587-0x587.7 (1)
0x580|                        00                     |        .       |                    x: 0 0x588-0x588.7 (1)
     |                                               |                |                  [1]{}: in 0x589-0x59a.7 (18)
0x580|                           fd                  |         .      |                    prefix: 0xfd (valid) 0x589-0x589.7 (1)
0x580|                              0c               |          .     |                    v128.const: 12 (valid) 0x58a-0x58a.7 (1)
0x580|                                 00 00 00 00 01|           .....|                    bytes: raw bits 0x58b-0x59a.7 (16)
0x590|01 01 01 02 02 02 02 03 03 03 03               |...........     |
     |                                               |                |                  [2]{}: in 0x59b-0x59c.7 (2)
0x590|                                 fd            |           .    |                    prefix: 0xfd (valid) 0x59b-0x59b.7 (1)
0x590|                                    78         |            x   |                    i8x16.max_s: 120 (valid) 0x59c-0x59c.7 (1)
     |                                               |                |                  [3]{}: in 0x59d-0x59d.7 (1)
0x590|                                       0b      |             .  |                    end: 0xb (valid) 0x59d-0x59d.7 (1)
     |                                               |                |            [25]{}: code 0x59e-0x5b6.7 (25)
0x590|                                          18   |              . |              size: 24 0x59e-0x59e.7 (1)
     |                                               |                |              code{}: 0x59f-0x5b6.7 (24)
     |                                               |                |                t{}: 0x59f-0x59f.7 (1)
0x590|                                             00|               .|                  n: 0 0x59f-0x59f.7 (1)
     |                                               |                |                  x[0:0]: 0x5a0-NA (0)
     |                                               |                |                e[0:4]: 0x5a0-0x5b6.7 (23)
     |                                               |                |                  [0]{}: in 0x5a0-0x5a1.7 (2)
0x5a0|20                                             |                |                    local.get: 0x20 (valid) 0x5a0-0x5a0.7 (1)
0x5a0|   00                                          | .              |                    x: 0 0x5a1-0x5a1.7 (1)
     |                                               |                |                  [1]{}: in 0x5a2-0x5b3.7 (18)
0x5a0|      fd                                       |  .             |                    prefix: 0xfd (valid) 0x5a2-0x5a2.7 (1)
0x5a0|         0c                                    |   .            |                    v128.const: 12 (valid) 0x5a3-0x5a3.7 (1)
0x5a0|            80 80 80 80 7f 7f 7f 7f 40 40 40 40|    ........@@@@|                    bytes: raw bits 0x5a4-0x5b3.7 (16)
0x5b0|ff ff ff ff                                    |....            |
     |                                               |                |                  [2]{}: in 0x5b4-0x5b5.7 (2)
0x5b0|            fd                                 |    .           |                    prefix: 0xfd (valid) 0x5b4-0x5b4.7 (1)
0x5b0|               79                              |     y          |                    i8x16.max_u: 121 (valid) 0x5b5-0x5b5.7 (1)
     |                                               |                |                  [3]{}: in 0x5b6-0x5b6.7 (1)
0x5b0|                  0b                           |      .         |                    end: 0xb (valid) 0x5b6-0x5b6.7 (1)
     |                                               |                |            [26]{}: code 0x5b7-0x5cf.7 (25)
0x5b0|                     18                        |       .        |              size: 24 0x5b7-0x5b7.7 (1)
     |                                               |                |              code{}: 0x5b8-0x5cf.7 (24)
     |                                               |                |                t{}: 0x5b8-0x5b8.7 (1)
0x5b0|                        00                     |        .       |                  n: 0 0x5b8-0x5b8.7 (1)
     |                                               |                |                  x[0:0]: 0x5b9-NA (0)
     |                                               |                |                e[0:4]: 0x5b9-0x5cf.7 (23)
     |                                               |                |                  [0]{}: in 0x5b9-0x5ba.7 (2)
0x5b0|                           20                  |                |                    local.get: 0x20 (valid) 0x5b9-0x5b9.7 (1)
0x5b0|                              00               |          .     |                    x: 0 0x5ba-0x5ba.7 (1)
     |                                               |                |                  [1]{}: in 0x5bb-0x5cc.7 (18)
0x5b0|                                 fd            |           .    |                    prefix: 0xfd (valid) 0x5bb-0x5bb.7 (1)
0x5b0|                                    0c         |            .   |                    v128.const: 12 (valid) 0x5bc-0x5bc.7 (1)
0x5b0|                                       00 00 00|             ...|                    bytes: raw bits 0x5bd-0x5cc.7 (16)
0x5c0|00 01 01 01 01 02 02 02 02 03 03 03 03         |.............   |
     |                                               |                |                  [2]{}: in 0x5cd-0x5ce.7 (2)
0x5c0|                                       fd      |             .  |                    prefix: 0xfd (valid) 0x5cd-0x5cd.7 (1)
0x5c0|                                          79   |              y |                    i8x16.max_u: 121 (valid) 0x5ce-0x5ce.7 (1)
     |                                               |                |                  [3]{}: in 0x5cf-0x5cf.7 (1)
0x5c0|                                             0b|               .|                    end: 0xb (valid) 0x5cf-0x5cf.7 (1)
     |                                               |                |            [27]{}: code 0x5d0-0x5e8.7 (25)
0x5d0|18                                             |.               |              size: 24 0x5d0-0x5d0.7 (1)
     |                                               |                |              code{}: 0x5d1-0x5e8.7 (24)
     |                                               |                |                t{}: 0x5d1-0x5d1.7 (1)
0x5d0|   00                                          | .              |                  n: 0 0x5d1-0x5d1.7 (1)
     |                                               |                |                  x[0:0]: 0x5d2-NA (0)
     |                                               |                |                e[0:4]: 0x5d2-0x5e8.7 (23)
     |                                               |                |                  [0]{}: in 0x5d2-0x5d3.7 (2)
0x5d0|      20                                       |                |                    local.get: 0x20 (valid) 0x5d2-0x5d2.7 (1)
0x5d0|         00                                    |   .            |                    x: 0 0x5d3-0x5d3.7 (1)
     |                                               |                |                  [1]{}: in 0x5d4-0x5e5.7 (18)
0x5d0|            fd                                 |    .           |                    prefix: 0xfd (valid) 0x5d4-0x5d4.7 (1)
0x5d0|               0c                              |     .          |                    v128.const: 12 (valid) 0x5d5-0x5d5.7 (1)
0x5d0|                  80 80 80 80 7f 7f 7f 7f 40 40|      ........@@|                    bytes: raw bits 0x5d6-0x5e5.7 (16)
0x5e0|40 40 ff ff ff ff                              |@@....          |
     |                                               |                |                  [2]{}: in 0x5e6-0x5e7.7 (2)
0x5e0|                  fd                           |      .         |                    prefix: 0xfd (valid) 0x5e6-0x5e6.7 (1)
0x5e0|                     7b                        |       {        |                    i8x16.avgr_u: 123 (valid) 0x5e7-0x5e7.7 (1)
     |                                               |                |                  [3]{}: in 0x5e8-0x5e8.7 (1)
0x5e0|                        0b                     |        .       |                    end: 0xb (valid) 0x5e8-0x5e8.7 (1)
     |                                               |                |            [28]{}: code 0x5e9-0x601.7 (25)
0x5e0|                           18                  |         .      |              size: 24 0x5e9-0x5e9.7 (1)
     |                                               |                |              code{}: 0x5ea-0x601.7 (24)
     |                                               |                |                t{}: 0x5ea-0x5ea.7 (1)
0x5e0|                              00               |          .     |                  n: 0 0x5ea-0x5ea.7 (1)
     |                                               |                |                  x[0:0]: 0x5eb-NA (0)
     |                                               |                |                e[0:4]: 0x5eb-0x601.7 (23)
     |                                               |                |                  [0]{}: in 0x5eb-0x5ec.7 (2)
0x5e0|                                 20            |                |                    local.get: 0x20 (valid) 0x5eb-0x5eb.7 (1)
0x5e0|                                    00         |            .   |                    x: 0 0x5ec-0x5ec.7 (1)
     |                                               |                |                  [1]{}: in 0x5ed-0x5fe.7 (18)
0x5e0|                                       fd      |             .  |                    prefix: 0xfd (valid) 0x5ed-0x5ed.7 (1)
0x5e0|                                          0c   |              . |                    v128.const: 12 (valid) 0x5ee-0x5ee.7 (1)
0x5e0|                                             00|               .|                    bytes: raw bits 0x5ef-0x5fe.7 (16)
0x5f0|00 00 00 01 01 01 01 02 02 02 02 03 03 03 03   |............... |
     |                                               |                |                  [2]{}: in 0x5ff-0x600.7 (2)
0x5f0|                                             fd|               .|                    prefix: 0xfd (valid) 0x5ff-0x5ff.7 (1)
0x600|7b                                             |{               |                    i8x16.avgr_u: 123 (valid) 0x600-0x600.7 (1)
     |                                               |                |                  [3]{}: in 0x601-0x601.7 (1)
0x600|   0b|                                         | .|             |                    end: 0xb (valid) 0x601-0x601.7 (1)
