$ fq -d wasm dv simd_i16x8_sat_arith-0.wasm
    |00 01 02 03 04 05 06 07 08 09 0a 0b 0c 0d 0e 0f|0123456789abcdef|.{}: simd_i16x8_sat_arith-0.wasm (wasm) 0x0-0x8e (142)
0x00|00 61 73 6d                                    |.asm            |  magic: raw bits (valid) 0x0-0x4 (4)
0x00|            01 00 00 00                        |    ....        |  version: 1 0x4-0x8 (4)
    |                                               |                |  sections[0:4]: 0x8-0x8e (134)
    |                                               |                |    [0]{}: section 0x8-0x11 (9)
0x00|                        01                     |        .       |      id: "type_section" (1) 0x8-0x9 (1)
0x00|                           07                  |         .      |      size: 7 (valid) 0x9-0xa (1)
    |                                               |                |      content{}: 0xa-0x11 (7)
    |                                               |                |        ft{}: 0xa-0x11 (7)
0x00|                              01               |          .     |          n: 1 (valid) 0xa-0xb (1)
    |                                               |                |          x[0:1]: 0xb-0x11 (6)
    |                                               |                |            [0]{}: ft 0xb-0x11 (6)
0x00|                                 60            |           `    |              tag: 0x60 (valid) 0xb-0xc (1)
    |                                               |                |              rt1{}: 0xc-0xf (3)
0x00|                                    02         |            .   |                n: 2 (valid) 0xc-0xd (1)
    |                                               |                |                x[0:2]: 0xd-0xf (2)
0x00|                                       7b      |             {  |                  [0]: "v128" (0x7b) t 0xd-0xe (1)
0x00|                                          7b   |              { |                  [1]: "v128" (0x7b) t 0xe-0xf (1)
    |                                               |                |              rt2{}: 0xf-0x11 (2)
0x00|                                             01|               .|                n: 1 (valid) 0xf-0x10 (1)
    |                                               |                |                x[0:1]: 0x10-0x11 (1)
0x10|7b                                             |{               |                  [0]: "v128" (0x7b) t 0x10-0x11 (1)
    |                                               |                |    [1]{}: section 0x11-0x18 (7)
0x10|   03                                          | .              |      id: "function_section" (3) 0x11-0x12 (1)
0x10|      05                                       |  .             |      size: 5 (valid) 0x12-0x13 (1)
    |                                               |                |      content{}: 0x13-0x18 (5)
    |                                               |                |        x{}: 0x13-0x18 (5)
0x10|         04                                    |   .            |          n: 4 (valid) 0x13-0x14 (1)
    |                                               |                |          x[0:4]: 0x14-0x18 (4)
0x10|            00                                 |    .           |            [0]: 0 x (valid) 0x14-0x15 (1)
0x10|               00                              |     .          |            [1]: 0 x (valid) 0x15-0x16 (1)
0x10|                  00                           |      .         |            [2]: 0 x (valid) 0x16-0x17 (1)
0x10|                     00                        |       .        |            [3]: 0 x (valid) 0x17-0x18 (1)
    |                                               |                |    [2]{}: section 0x18-0x63 (75)
0x10|                        07                     |        .       |      id: "export_section" (7) 0x18-0x19 (1)
0x10|                           49                  |         I      |      size: 73 (valid) 0x19-0x1a (1)
    |                                               |                |      content{}: 0x1a-0x63 (73)
    |                                               |                |        ex{}: 0x1a-0x63 (73)
0x10|                              04               |          .     |          n: 4 (valid) 0x1a-0x1b (1)
    |                                               |                |          x[0:4]: 0x1b-0x63 (72)
    |                                               |                |            [0]{}: ex 0x1b-0x2d (18)
    |                                               |                |              nm{}: 0x1b-0x2b (16)
0x10|                                 0f            |           .    |                n: 15 (valid) 0x1b-0x1c (1)
0x10|                                    69 31 36 78|            i16x|                b: "i16x8.add_sat_s" 0x1c-0x2b (15)
0x20|38 2e 61 64 64 5f 73 61 74 5f 73               |8.add_sat_s     |
    |                                               |                |              d{}: 0x2b-0x2d (2)
0x20|                                 00            |           .    |                tag: "funcidx" (0x0) 0x2b-0x2c (1)
0x20|                                    00         |            .   |                x: 0 (valid) 0x2c-0x2d (1)
    |                                               |                |            [1]{}: ex 0x2d-0x3f (18)
    |                                               |                |              nm{}: 0x2d-0x3d (16)
0x20|                                       0f      |             .  |                n: 15 (valid) 0x2d-0x2e (1)
0x20|                                          69 31|              i1|                b: "i16x8.add_sat_u" 0x2e-0x3d (15)
0x30|36 78 38 2e 61 64 64 5f 73 61 74 5f 75         |6x8.add_sat_u   |
    |                                               |                |              d{}: 0x3d-0x3f (2)
0x30|                                       00      |             .  |                tag: "funcidx" (0x0) 0x3d-0x3e (1)
0x30|                                          01   |              . |                x: 1 (valid) 0x3e-0x3f (1)
    |                                               |                |            [2]{}: ex 0x3f-0x51 (18)
    |                                               |                |              nm{}: 0x3f-0x4f (16)
0x30|                                             0f|               .|                n: 15 (valid) 0x3f-0x40 (1)
0x40|69 31 36 78 38 2e 73 75 62 5f 73 61 74 5f 73   |i16x8.sub_sat_s |                b: "i16x8.sub_sat_s" 0x40-0x4f (15)
    |                                               |                |              d{}: 0x4f-0x51 (2)
0x40|                                             00|               .|                tag: "funcidx" (0x0) 0x4f-0x50 (1)
0x50|02                                             |.               |                x: 2 (valid) 0x50-0x51 (1)
    |                                               |                |            [3]{}: ex 0x51-0x63 (18)
    |                                               |                |              nm{}: 0x51-0x61 (16)
0x50|   0f                                          | .              |                n: 15 (valid) 0x51-0x52 (1)
0x50|      69 31 36 78 38 2e 73 75 62 5f 73 61 74 5f|  i16x8.sub_sat_|                b: "i16x8.sub_sat_u" 0x52-0x61 (15)
0x60|75                                             |u               |
    |                                               |                |              d{}: 0x61-0x63 (2)
0x60|   00                                          | .              |                tag: "funcidx" (0x0) 0x61-0x62 (1)
0x60|      03                                       |  .             |                x: 3 (valid) 0x62-0x63 (1)
    |                                               |                |    [3]{}: section 0x63-0x8e (43)
0x60|         0a                                    |   .            |      id: "code_section" (10) 0x63-0x64 (1)
0x60|            29                                 |    )           |      size: 41 (valid) 0x64-0x65 (1)
    |                                               |                |      content{}: 0x65-0x8e (41)
    |                                               |                |        code{}: 0x65-0x8e (41)
0x60|               04                              |     .          |          n: 4 (valid) 0x65-0x66 (1)
    |                                               |                |          x[0:4]: 0x66-0x8e (40)
    |                                               |                |            [0]{}: code 0x66-0x70 (10)
0x60|                  09                           |      .         |              size: 9 (valid) 0x66-0x67 (1)
    |                                               |                |              code{}: 0x67-0x70 (9)
    |                                               |                |                t{}: 0x67-0x68 (1)
0x60|                     00                        |       .        |                  n: 0 (valid) 0x67-0x68 (1)
    |                                               |                |                  x[0:0]: 0x68-0x68 (0)
    |                                               |                |                e[0:4]: 0x68-0x70 (8)
    |                                               |                |                  [0]{}: in 0x68-0x6a (2)
0x60|                        20                     |                |                    opcode: "local.get" (0x20) 0x68-0x69 (1)
0x60|                           00                  |         .      |                    x: 0 (valid) 0x69-0x6a (1)
    |                                               |                |                  [1]{}: in 0x6a-0x6c (2)
0x60|                              20               |                |                    opcode: "local.get" (0x20) 0x6a-0x6b (1)
0x60|                                 01            |           .    |                    x: 1 (valid) 0x6b-0x6c (1)
    |                                               |                |                  [2]{}: in 0x6c-0x6f (3)
0x60|                                    fd         |            .   |                    opcode: "vector" (0xfd) 0x6c-0x6d (1)
0x60|                                       8f 01   |             .. |                    v_opcode: "i16x8.add_sat_s" (143) 0x6d-0x6f (2)
    |                                               |                |                  [3]{}: in 0x6f-0x70 (1)
0x60|                                             0b|               .|                    opcode: "end" (0xb) 0x6f-0x70 (1)
    |                                               |                |            [1]{}: code 0x70-0x7a (10)
0x70|09                                             |.               |              size: 9 (valid) 0x70-0x71 (1)
    |                                               |                |              code{}: 0x71-0x7a (9)
    |                                               |                |                t{}: 0x71-0x72 (1)
0x70|   00                                          | .              |                  n: 0 (valid) 0x71-0x72 (1)
    |                                               |                |                  x[0:0]: 0x72-0x72 (0)
    |                                               |                |                e[0:4]: 0x72-0x7a (8)
    |                                               |                |                  [0]{}: in 0x72-0x74 (2)
0x70|      20                                       |                |                    opcode: "local.get" (0x20) 0x72-0x73 (1)
0x70|         00                                    |   .            |                    x: 0 (valid) 0x73-0x74 (1)
    |                                               |                |                  [1]{}: in 0x74-0x76 (2)
0x70|            20                                 |                |                    opcode: "local.get" (0x20) 0x74-0x75 (1)
0x70|               01                              |     .          |                    x: 1 (valid) 0x75-0x76 (1)
    |                                               |                |                  [2]{}: in 0x76-0x79 (3)
0x70|                  fd                           |      .         |                    opcode: "vector" (0xfd) 0x76-0x77 (1)
0x70|                     90 01                     |       ..       |                    v_opcode: "i16x8.add_sat_u" (144) 0x77-0x79 (2)
    |                                               |                |                  [3]{}: in 0x79-0x7a (1)
0x70|                           0b                  |         .      |                    opcode: "end" (0xb) 0x79-0x7a (1)
    |                                               |                |            [2]{}: code 0x7a-0x84 (10)
0x70|                              09               |          .     |              size: 9 (valid) 0x7a-0x7b (1)
    |                                               |                |              code{}: 0x7b-0x84 (9)
    |                                               |                |                t{}: 0x7b-0x7c (1)
0x70|                                 00            |           .    |                  n: 0 (valid) 0x7b-0x7c (1)
    |                                               |                |                  x[0:0]: 0x7c-0x7c (0)
    |                                               |                |                e[0:4]: 0x7c-0x84 (8)
    |                                               |                |                  [0]{}: in 0x7c-0x7e (2)
0x70|                                    20         |                |                    opcode: "local.get" (0x20) 0x7c-0x7d (1)
0x70|                                       00      |             .  |                    x: 0 (valid) 0x7d-0x7e (1)
    |                                               |                |                  [1]{}: in 0x7e-0x80 (2)
0x70|                                          20   |                |                    opcode: "local.get" (0x20) 0x7e-0x7f (1)
0x70|                                             01|               .|                    x: 1 (valid) 0x7f-0x80 (1)
    |                                               |                |                  [2]{}: in 0x80-0x83 (3)
0x80|fd                                             |.               |                    opcode: "vector" (0xfd) 0x80-0x81 (1)
0x80|   92 01                                       | ..             |                    v_opcode: "i16x8.sub_sat_s" (146) 0x81-0x83 (2)
    |                                               |                |                  [3]{}: in 0x83-0x84 (1)
0x80|         0b                                    |   .            |                    opcode: "end" (0xb) 0x83-0x84 (1)
    |                                               |                |            [3]{}: code 0x84-0x8e (10)
0x80|            09                                 |    .           |              size: 9 (valid) 0x84-0x85 (1)
    |                                               |                |              code{}: 0x85-0x8e (9)
    |                                               |                |                t{}: 0x85-0x86 (1)
0x80|               00                              |     .          |                  n: 0 (valid) 0x85-0x86 (1)
    |                                               |                |                  x[0:0]: 0x86-0x86 (0)
    |                                               |                |                e[0:4]: 0x86-0x8e (8)
    |                                               |                |                  [0]{}: in 0x86-0x88 (2)
0x80|                  20                           |                |                    opcode: "local.get" (0x20) 0x86-0x87 (1)
0x80|                     00                        |       .        |                    x: 0 (valid) 0x87-0x88 (1)
    |                                               |                |                  [1]{}: in 0x88-0x8a (2)
0x80|                        20                     |                |                    opcode: "local.get" (0x20) 0x88-0x89 (1)
0x80|                           01                  |         .      |                    x: 1 (valid) 0x89-0x8a (1)
    |                                               |                |                  [2]{}: in 0x8a-0x8d (3)
0x80|                              fd               |          .     |                    opcode: "vector" (0xfd) 0x8a-0x8b (1)
0x80|                                 93 01         |           ..   |                    v_opcode: "i16x8.sub_sat_u" (147) 0x8b-0x8d (2)
    |                                               |                |                  [3]{}: in 0x8d-0x8e (1)
0x80|                                       0b|     |             .| |                    opcode: "end" (0xb) 0x8d-0x8e (1)
