$ fq -d wasm dv simd_f64x2-0.wasm
     |00 01 02 03 04 05 06 07 08 09 0a 0b 0c 0d 0e 0f|0123456789abcdef|.{}: simd_f64x2-0.wasm (wasm) 0x0-0x864.7 (2149)
0x000|00 61 73 6d                                    |.asm            |  magic: raw bits (valid) 0x0-0x3.7 (4)
0x000|            01 00 00 00                        |    ....        |  version: 1 0x4-0x7.7 (4)
     |                                               |                |  sections[0:4]: 0x8-0x864.7 (2141)
     |                                               |                |    [0]{}: section 0x8-0x19.7 (18)
0x000|                        01                     |        .       |      id: "type section" (1) 0x8-0x8.7 (1)
0x000|                           10                  |         .      |      size: 16 0x9-0x9.7 (1)
     |                                               |                |      content{}: 0xa-0x19.7 (16)
     |                                               |                |        ft{}: 0xa-0x19.7 (16)
0x000|                              03               |          .     |          n: 3 0xa-0xa.7 (1)
     |                                               |                |          x[0:3]: 0xb-0x19.7 (15)
     |                                               |                |            [0]{}: ft 0xb-0x10.7 (6)
0x000|                                 60            |           `    |              tag: 0x60 (valid) 0xb-0xb.7 (1)
     |                                               |                |              rt1{}: 0xc-0xe.7 (3)
0x000|                                    02         |            .   |                n: 2 0xc-0xc.7 (1)
     |                                               |                |                x[0:2]: 0xd-0xe.7 (2)
0x000|                                       7b      |             {  |                  [0]: "v128" (0x7b) t 0xd-0xd.7 (1)
0x000|                                          7b   |              { |                  [1]: "v128" (0x7b) t 0xe-0xe.7 (1)
     |                                               |                |              rt2{}: 0xf-0x10.7 (2)
0x000|                                             01|               .|                n: 1 0xf-0xf.7 (1)
     |                                               |                |                x[0:1]: 0x10-0x10.7 (1)
0x010|7b                                             |{               |                  [0]: "v128" (0x7b) t 0x10-0x10.7 (1)
     |                                               |                |            [1]{}: ft 0x11-0x15.7 (5)
0x010|   60                                          | `              |              tag: 0x60 (valid) 0x11-0x11.7 (1)
     |                                               |                |              rt1{}: 0x12-0x13.7 (2)
0x010|      01                                       |  .             |                n: 1 0x12-0x12.7 (1)
     |                                               |                |                x[0:1]: 0x13-0x13.7 (1)
0x010|         7b                                    |   {            |                  [0]: "v128" (0x7b) t 0x13-0x13.7 (1)
     |                                               |                |              rt2{}: 0x14-0x15.7 (2)
0x010|            01                                 |    .           |                n: 1 0x14-0x14.7 (1)
     |                                               |                |                x[0:1]: 0x15-0x15.7 (1)
0x010|               7b                              |     {          |                  [0]: "v128" (0x7b) t 0x15-0x15.7 (1)
     |                                               |                |            [2]{}: ft 0x16-0x19.7 (4)
0x010|                  60                           |      `         |              tag: 0x60 (valid) 0x16-0x16.7 (1)
     |                                               |                |              rt1{}: 0x17-0x17.7 (1)
0x010|                     00                        |       .        |                n: 0 0x17-0x17.7 (1)
     |                                               |                |                x[0:0]: 0x18-NA (0)
     |                                               |                |              rt2{}: 0x18-0x19.7 (2)
0x010|                        01                     |        .       |                n: 1 0x18-0x18.7 (1)
     |                                               |                |                x[0:1]: 0x19-0x19.7 (1)
0x010|                           7b                  |         {      |                  [0]: "v128" (0x7b) t 0x19-0x19.7 (1)
     |                                               |                |    [1]{}: section 0x1a-0x41.7 (40)
0x010|                              03               |          .     |      id: "function section" (3) 0x1a-0x1a.7 (1)
0x010|                                 26            |           &    |      size: 38 0x1b-0x1b.7 (1)
     |                                               |                |      content{}: 0x1c-0x41.7 (38)
     |                                               |                |        x{}: 0x1c-0x41.7 (38)
0x010|                                    25         |            %   |          n: 37 0x1c-0x1c.7 (1)
     |                                               |                |          x[0:37]: 0x1d-0x41.7 (37)
0x010|                                       00      |             .  |            [0]: 0 x 0x1d-0x1d.7 (1)
0x010|                                          00   |              . |            [1]: 0 x 0x1e-0x1e.7 (1)
0x010|                                             01|               .|            [2]: 1 x 0x1f-0x1f.7 (1)
0x020|02                                             |.               |            [3]: 2 x 0x20-0x20.7 (1)
0x020|   02                                          | .              |            [4]: 2 x 0x21-0x21.7 (1)
0x020|      02                                       |  .             |            [5]: 2 x 0x22-0x22.7 (1)
0x020|         02                                    |   .            |            [6]: 2 x 0x23-0x23.7 (1)
0x020|            02                                 |    .           |            [7]: 2 x 0x24-0x24.7 (1)
0x020|               02                              |     .          |            [8]: 2 x 0x25-0x25.7 (1)
0x020|                  02                           |      .         |            [9]: 2 x 0x26-0x26.7 (1)
0x020|                     02                        |       .        |            [10]: 2 x 0x27-0x27.7 (1)
0x020|                        01                     |        .       |            [11]: 1 x 0x28-0x28.7 (1)
0x020|                           01                  |         .      |            [12]: 1 x 0x29-0x29.7 (1)
0x020|                              01               |          .     |            [13]: 1 x 0x2a-0x2a.7 (1)
0x020|                                 01            |           .    |            [14]: 1 x 0x2b-0x2b.7 (1)
0x020|                                    01         |            .   |            [15]: 1 x 0x2c-0x2c.7 (1)
0x020|                                       01      |             .  |            [16]: 1 x 0x2d-0x2d.7 (1)
0x020|                                          01   |              . |            [17]: 1 x 0x2e-0x2e.7 (1)
0x020|                                             01|               .|            [18]: 1 x 0x2f-0x2f.7 (1)
0x030|02                                             |.               |            [19]: 2 x 0x30-0x30.7 (1)
0x030|   02                                          | .              |            [20]: 2 x 0x31-0x31.7 (1)
0x030|      02                                       |  .             |            [21]: 2 x 0x32-0x32.7 (1)
0x030|         02                                    |   .            |            [22]: 2 x 0x33-0x33.7 (1)
0x030|            02                                 |    .           |            [23]: 2 x 0x34-0x34.7 (1)
0x030|               02                              |     .          |            [24]: 2 x 0x35-0x35.7 (1)
0x030|                  02                           |      .         |            [25]: 2 x 0x36-0x36.7 (1)
0x030|                     02                        |       .        |            [26]: 2 x 0x37-0x37.7 (1)
0x030|                        01                     |        .       |            [27]: 1 x 0x38-0x38.7 (1)
0x030|                           01                  |         .      |            [28]: 1 x 0x39-0x39.7 (1)
0x030|                              01               |          .     |            [29]: 1 x 0x3a-0x3a.7 (1)
0x030|                                 01            |           .    |            [30]: 1 x 0x3b-0x3b.7 (1)
0x030|                                    01         |            .   |            [31]: 1 x 0x3c-0x3c.7 (1)
0x030|                                       01      |             .  |            [32]: 1 x 0x3d-0x3d.7 (1)
0x030|                                          01   |              . |            [33]: 1 x 0x3e-0x3e.7 (1)
0x030|                                             01|               .|            [34]: 1 x 0x3f-0x3f.7 (1)
0x040|02                                             |.               |            [35]: 2 x 0x40-0x40.7 (1)
0x040|   02                                          | .              |            [36]: 2 x 0x41-0x41.7 (1)
     |                                               |                |    [2]{}: section 0x42-0x3d4.7 (915)
0x040|      07                                       |  .             |      id: "export section" (7) 0x42-0x42.7 (1)
0x040|         90 07                                 |   ..           |      size: 912 0x43-0x44.7 (2)
     |                                               |                |      content{}: 0x45-0x3d4.7 (912)
     |                                               |                |        ex{}: 0x45-0x3d4.7 (912)
0x040|               25                              |     %          |          n: 37 0x45-0x45.7 (1)
     |                                               |                |          x[0:37]: 0x46-0x3d4.7 (911)
     |                                               |                |            [0]{}: ex 0x46-0x51.7 (12)
     |                                               |                |              nm{}: 0x46-0x4f.7 (10)
0x040|                  09                           |      .         |                n: 9 0x46-0x46.7 (1)
0x040|                     66 36 34 78 32 2e 6d 69 6e|       f64x2.min|                b: "f64x2.min" 0x47-0x4f.7 (9)
     |                                               |                |              d{}: 0x50-0x51.7 (2)
0x050|00                                             |.               |                tag: "funcidx" (0x0) 0x50-0x50.7 (1)
0x050|   00                                          | .              |                x: 0 0x51-0x51.7 (1)
     |                                               |                |            [1]{}: ex 0x52-0x5d.7 (12)
     |                                               |                |              nm{}: 0x52-0x5b.7 (10)
0x050|      09                                       |  .             |                n: 9 0x52-0x52.7 (1)
0x050|         66 36 34 78 32 2e 6d 61 78            |   f64x2.max    |                b: "f64x2.max" 0x53-0x5b.7 (9)
     |                                               |                |              d{}: 0x5c-0x5d.7 (2)
0x050|                                    00         |            .   |                tag: "funcidx" (0x0) 0x5c-0x5c.7 (1)
0x050|                                       01      |             .  |                x: 1 0x5d-0x5d.7 (1)
     |                                               |                |            [2]{}: ex 0x5e-0x69.7 (12)
     |                                               |                |              nm{}: 0x5e-0x67.7 (10)
0x050|                                          09   |              . |                n: 9 0x5e-0x5e.7 (1)
0x050|                                             66|               f|                b: "f64x2.abs" 0x5f-0x67.7 (9)
0x060|36 34 78 32 2e 61 62 73                        |64x2.abs        |
     |                                               |                |              d{}: 0x68-0x69.7 (2)
0x060|                        00                     |        .       |                tag: "funcidx" (0x0) 0x68-0x68.7 (1)
0x060|                           02                  |         .      |                x: 2 0x69-0x69.7 (1)
     |                                               |                |            [3]{}: ex 0x6a-0x82.7 (25)
     |                                               |                |              nm{}: 0x6a-0x80.7 (23)
0x060|                              16               |          .     |                n: 22 0x6a-0x6a.7 (1)
0x060|                                 66 36 34 78 32|           f64x2|                b: "f64x2.min_with_const_0" 0x6b-0x80.7 (22)
0x070|2e 6d 69 6e 5f 77 69 74 68 5f 63 6f 6e 73 74 5f|.min_with_const_|
0x080|30                                             |0               |
     |                                               |                |              d{}: 0x81-0x82.7 (2)
0x080|   00                                          | .              |                tag: "funcidx" (0x0) 0x81-0x81.7 (1)
0x080|      03                                       |  .             |                x: 3 0x82-0x82.7 (1)
     |                                               |                |            [4]{}: ex 0x83-0x9b.7 (25)
     |                                               |                |              nm{}: 0x83-0x99.7 (23)
0x080|         16                                    |   .            |                n: 22 0x83-0x83.7 (1)
0x080|            66 36 34 78 32 2e 6d 69 6e 5f 77 69|    f64x2.min_wi|                b: "f64x2.min_with_const_1" 0x84-0x99.7 (22)
0x090|74 68 5f 63 6f 6e 73 74 5f 31                  |th_const_1      |
     |                                               |                |              d{}: 0x9a-0x9b.7 (2)
0x090|                              00               |          .     |                tag: "funcidx" (0x0) 0x9a-0x9a.7 (1)
0x090|                                 04            |           .    |                x: 4 0x9b-0x9b.7 (1)
     |                                               |                |            [5]{}: ex 0x9c-0xb4.7 (25)
     |                                               |                |              nm{}: 0x9c-0xb2.7 (23)
0x090|                                    16         |            .   |                n: 22 0x9c-0x9c.7 (1)
0x090|                                       66 36 34|             f64|                b: "f64x2.min_with_const_2" 0x9d-0xb2.7 (22)
0x0a0|78 32 2e 6d 69 6e 5f 77 69 74 68 5f 63 6f 6e 73|x2.min_with_cons|
0x0b0|74 5f 32                                       |t_2             |
     |                                               |                |              d{}: 0xb3-0xb4.7 (2)
0x0b0|         00                                    |   .            |                tag: "funcidx" (0x0) 0xb3-0xb3.7 (1)
0x0b0|            05                                 |    .           |                x: 5 0xb4-0xb4.7 (1)
     |                                               |                |            [6]{}: ex 0xb5-0xcd.7 (25)
     |                                               |                |              nm{}: 0xb5-0xcb.7 (23)
0x0b0|               16                              |     .          |                n: 22 0xb5-0xb5.7 (1)
0x0b0|                  66 36 34 78 32 2e 6d 69 6e 5f|      f64x2.min_|                b: "f64x2.min_with_const_3" 0xb6-0xcb.7 (22)
0x0c0|77 69 74 68 5f 63 6f 6e 73 74 5f 33            |with_const_3    |
     |                                               |                |              d{}: 0xcc-0xcd.7 (2)
0x0c0|                                    00         |            .   |                tag: "funcidx" (0x0) 0xcc-0xcc.7 (1)
0x0c0|                                       06      |             .  |                x: 6 0xcd-0xcd.7 (1)
     |                                               |                |            [7]{}: ex 0xce-0xe6.7 (25)
     |                                               |                |              nm{}: 0xce-0xe4.7 (23)
0x0c0|                                          16   |              . |                n: 22 0xce-0xce.7 (1)
0x0c0|                                             66|               f|                b: "f64x2.min_with_const_4" 0xcf-0xe4.7 (22)
0x0d0|36 34 78 32 2e 6d 69 6e 5f 77 69 74 68 5f 63 6f|64x2.min_with_co|
0x0e0|6e 73 74 5f 34                                 |nst_4           |
     |                                               |                |              d{}: 0xe5-0xe6.7 (2)
0x0e0|               00                              |     .          |                tag: "funcidx" (0x0) 0xe5-0xe5.7 (1)
0x0e0|                  07                           |      .         |                x: 7 0xe6-0xe6.7 (1)
     |                                               |                |            [8]{}: ex 0xe7-0xff.7 (25)
     |                                               |                |              nm{}: 0xe7-0xfd.7 (23)
0x0e0|                     16                        |       .        |                n: 22 0xe7-0xe7.7 (1)
0x0e0|                        66 36 34 78 32 2e 6d 69|        f64x2.mi|                b: "f64x2.min_with_const_5" 0xe8-0xfd.7 (22)
0x0f0|6e 5f 77 69 74 68 5f 63 6f 6e 73 74 5f 35      |n_with_const_5  |
     |                                               |                |              d{}: 0xfe-0xff.7 (2)
0x0f0|                                          00   |              . |                tag: "funcidx" (0x0) 0xfe-0xfe.7 (1)
0x0f0|                                             08|               .|                x: 8 0xff-0xff.7 (1)
     |                                               |                |            [9]{}: ex 0x100-0x118.7 (25)
     |                                               |                |              nm{}: 0x100-0x116.7 (23)
0x100|16                                             |.               |                n: 22 0x100-0x100.7 (1)
0x100|   66 36 34 78 32 2e 6d 69 6e 5f 77 69 74 68 5f| f64x2.min_with_|                b: "f64x2.min_with_const_6" 0x101-0x116.7 (22)
0x110|63 6f 6e 73 74 5f 36                           |const_6         |
     |                                               |                |              d{}: 0x117-0x118.7 (2)
0x110|                     00                        |       .        |                tag: "funcidx" (0x0) 0x117-0x117.7 (1)
0x110|                        09                     |        .       |                x: 9 0x118-0x118.7 (1)
     |                                               |                |            [10]{}: ex 0x119-0x131.7 (25)
     |                                               |                |              nm{}: 0x119-0x12f.7 (23)
0x110|                           16                  |         .      |                n: 22 0x119-0x119.7 (1)
0x110|                              66 36 34 78 32 2e|          f64x2.|                b: "f64x2.min_with_const_7" 0x11a-0x12f.7 (22)
0x120|6d 69 6e 5f 77 69 74 68 5f 63 6f 6e 73 74 5f 37|min_with_const_7|
     |                                               |                |              d{}: 0x130-0x131.7 (2)
0x130|00                                             |.               |                tag: "funcidx" (0x0) 0x130-0x130.7 (1)
0x130|   0a                                          | .              |                x: 10 0x131-0x131.7 (1)
     |                                               |                |            [11]{}: ex 0x132-0x14a.7 (25)
     |                                               |                |              nm{}: 0x132-0x148.7 (23)
0x130|      16                                       |  .             |                n: 22 0x132-0x132.7 (1)
0x130|         66 36 34 78 32 2e 6d 69 6e 5f 77 69 74|   f64x2.min_wit|                b: "f64x2.min_with_const_9" 0x133-0x148.7 (22)
0x140|68 5f 63 6f 6e 73 74 5f 39                     |h_const_9       |
     |                                               |                |              d{}: 0x149-0x14a.7 (2)
0x140|                           00                  |         .      |                tag: "funcidx" (0x0) 0x149-0x149.7 (1)
0x140|                              0b               |          .     |                x: 11 0x14a-0x14a.7 (1)
     |                                               |                |            [12]{}: ex 0x14b-0x164.7 (26)
     |                                               |                |              nm{}: 0x14b-0x162.7 (24)
0x140|                                 17            |           .    |                n: 23 0x14b-0x14b.7 (1)
0x140|                                    66 36 34 78|            f64x|                b: "f64x2.min_with_const_10" 0x14c-0x162.7 (23)
0x150|32 2e 6d 69 6e 5f 77 69 74 68 5f 63 6f 6e 73 74|2.min_with_const|
0x160|5f 31 30                                       |_10             |
     |                                               |                |              d{}: 0x163-0x164.7 (2)
0x160|         00                                    |   .            |                tag: "funcidx" (0x0) 0x163-0x163.7 (1)
0x160|            0c                                 |    .           |                x: 12 0x164-0x164.7 (1)
     |                                               |                |            [13]{}: ex 0x165-0x17e.7 (26)
     |                                               |                |              nm{}: 0x165-0x17c.7 (24)
0x160|               17                              |     .          |                n: 23 0x165-0x165.7 (1)
0x160|                  66 36 34 78 32 2e 6d 69 6e 5f|      f64x2.min_|                b: "f64x2.min_with_const_11" 0x166-0x17c.7 (23)
0x170|77 69 74 68 5f 63 6f 6e 73 74 5f 31 31         |with_const_11   |
     |                                               |                |              d{}: 0x17d-0x17e.7 (2)
0x170|                                       00      |             .  |                tag: "funcidx" (0x0) 0x17d-0x17d.7 (1)
0x170|                                          0d   |              . |                x: 13 0x17e-0x17e.7 (1)
     |                                               |                |            [14]{}: ex 0x17f-0x198.7 (26)
     |                                               |                |              nm{}: 0x17f-0x196.7 (24)
0x170|                                             17|               .|                n: 23 0x17f-0x17f.7 (1)
0x180|66 36 34 78 32 2e 6d 69 6e 5f 77 69 74 68 5f 63|f64x2.min_with_c|                b: "f64x2.min_with_const_12" 0x180-0x196.7 (23)
0x190|6f 6e 73 74 5f 31 32                           |onst_12         |
     |                                               |                |              d{}: 0x197-0x198.7 (2)
0x190|                     00                        |       .        |                tag: "funcidx" (0x0) 0x197-0x197.7 (1)
0x190|                        0e                     |        .       |                x: 14 0x198-0x198.7 (1)
     |                                               |                |            [15]{}: ex 0x199-0x1b2.7 (26)
     |                                               |                |              nm{}: 0x199-0x1b0.7 (24)
0x190|                           17                  |         .      |                n: 23 0x199-0x199.7 (1)
0x190|                              66 36 34 78 32 2e|          f64x2.|                b: "f64x2.min_with_const_13" 0x19a-0x1b0.7 (23)
0x1a0|6d 69 6e 5f 77 69 74 68 5f 63 6f 6e 73 74 5f 31|min_with_const_1|
0x1b0|33                                             |3               |
     |                                               |                |              d{}: 0x1b1-0x1b2.7 (2)
0x1b0|   00                                          | .              |                tag: "funcidx" (0x0) 0x1b1-0x1b1.7 (1)
0x1b0|      0f                                       |  .             |                x: 15 0x1b2-0x1b2.7 (1)
     |                                               |                |            [16]{}: ex 0x1b3-0x1cc.7 (26)
     |                                               |                |              nm{}: 0x1b3-0x1ca.7 (24)
0x1b0|         17                                    |   .            |                n: 23 0x1b3-0x1b3.7 (1)
0x1b0|            66 36 34 78 32 2e 6d 69 6e 5f 77 69|    f64x2.min_wi|                b: "f64x2.min_with_const_14" 0x1b4-0x1ca.7 (23)
0x1c0|74 68 5f 63 6f 6e 73 74 5f 31 34               |th_const_14     |
     |                                               |                |              d{}: 0x1cb-0x1cc.7 (2)
0x1c0|                                 00            |           .    |                tag: "funcidx" (0x0) 0x1cb-0x1cb.7 (1)
0x1c0|                                    10         |            .   |                x: 16 0x1cc-0x1cc.7 (1)
     |                                               |                |            [17]{}: ex 0x1cd-0x1e6.7 (26)
     |                                               |                |              nm{}: 0x1cd-0x1e4.7 (24)
0x1c0|                                       17      |             .  |                n: 23 0x1cd-0x1cd.7 (1)
0x1c0|                                          66 36|              f6|                b: "f64x2.min_with_const_15" 0x1ce-0x1e4.7 (23)
0x1d0|34 78 32 2e 6d 69 6e 5f 77 69 74 68 5f 63 6f 6e|4x2.min_with_con|
0x1e0|73 74 5f 31 35                                 |st_15           |
     |                                               |                |              d{}: 0x1e5-0x1e6.7 (2)
0x1e0|               00                              |     .          |                tag: "funcidx" (0x0) 0x1e5-0x1e5.7 (1)
0x1e0|                  11                           |      .         |                x: 17 0x1e6-0x1e6.7 (1)
     |                                               |                |            [18]{}: ex 0x1e7-0x200.7 (26)
     |                                               |                |              nm{}: 0x1e7-0x1fe.7 (24)
0x1e0|                     17                        |       .        |                n: 23 0x1e7-0x1e7.7 (1)
0x1e0|                        66 36 34 78 32 2e 6d 69|        f64x2.mi|                b: "f64x2.min_with_const_16" 0x1e8-0x1fe.7 (23)
0x1f0|6e 5f 77 69 74 68 5f 63 6f 6e 73 74 5f 31 36   |n_with_const_16 |
     |                                               |                |              d{}: 0x1ff-0x200.7 (2)
0x1f0|                                             00|               .|                tag: "funcidx" (0x0) 0x1ff-0x1ff.7 (1)
0x200|12                                             |.               |                x: 18 0x200-0x200.7 (1)
     |                                               |                |            [19]{}: ex 0x201-0x21a.7 (26)
     |                                               |                |              nm{}: 0x201-0x218.7 (24)
0x200|   17                                          | .              |                n: 23 0x201-0x201.7 (1)
0x200|      66 36 34 78 32 2e 6d 61 78 5f 77 69 74 68|  f64x2.max_with|                b: "f64x2.max_with_const_18" 0x202-0x218.7 (23)
0x210|5f 63 6f 6e 73 74 5f 31 38                     |_const_18       |
     |                                               |                |              d{}: 0x219-0x21a.7 (2)
0x210|                           00                  |         .      |                tag: "funcidx" (0x0) 0x219-0x219.7 (1)
0x210|                              13               |          .     |                x: 19 0x21a-0x21a.7 (1)
     |                                               |                |            [20]{}: ex 0x21b-0x234.7 (26)
     |                                               |                |              nm{}: 0x21b-0x232.7 (24)
0x210|                                 17            |           .    |                n: 23 0x21b-0x21b.7 (1)
0x210|                                    66 36 34 78|            f64x|                b: "f64x2.max_with_const_19" 0x21c-0x232.7 (23)
0x220|32 2e 6d 61 78 5f 77 69 74 68 5f 63 6f 6e 73 74|2.max_with_const|
0x230|5f 31 39                                       |_19             |
     |                                               |                |              d{}: 0x233-0x234.7 (2)
0x230|         00                                    |   .            |                tag: "funcidx" (0x0) 0x233-0x233.7 (1)
0x230|            14                                 |    .           |                x: 20 0x234-0x234.7 (1)
     |                                               |                |            [21]{}: ex 0x235-0x24e.7 (26)
     |                                               |                |              nm{}: 0x235-0x24c.7 (24)
0x230|               17                              |     .          |                n: 23 0x235-0x235.7 (1)
0x230|                  66 36 34 78 32 2e 6d 61 78 5f|      f64x2.max_|                b: "f64x2.max_with_const_20" 0x236-0x24c.7 (23)
0x240|77 69 74 68 5f 63 6f 6e 73 74 5f 32 30         |with_const_20   |
     |                                               |                |              d{}: 0x24d-0x24e.7 (2)
0x240|                                       00      |             .  |                tag: "funcidx" (0x0) 0x24d-0x24d.7 (1)
0x240|                                          15   |              . |                x: 21 0x24e-0x24e.7 (1)
     |                                               |                |            [22]{}: ex 0x24f-0x268.7 (26)
     |                                               |                |              nm{}: 0x24f-0x266.7 (24)
0x240|                                             17|               .|                n: 23 0x24f-0x24f.7 (1)
0x250|66 36 34 78 32 2e 6d 61 78 5f 77 69 74 68 5f 63|f64x2.max_with_c|                b: "f64x2.max_with_const_21" 0x250-0x266.7 (23)
0x260|6f 6e 73 74 5f 32 31                           |onst_21         |
     |                                               |                |              d{}: 0x267-0x268.7 (2)
0x260|                     00                        |       .        |                tag: "funcidx" (0x0) 0x267-0x267.7 (1)
0x260|                        16                     |        .       |                x: 22 0x268-0x268.7 (1)
     |                                               |                |            [23]{}: ex 0x269-0x282.7 (26)
     |                                               |                |              nm{}: 0x269-0x280.7 (24)
0x260|                           17                  |         .      |                n: 23 0x269-0x269.7 (1)
0x260|                              66 36 34 78 32 2e|          f64x2.|                b: "f64x2.max_with_const_22" 0x26a-0x280.7 (23)
0x270|6d 61 78 5f 77 69 74 68 5f 63 6f 6e 73 74 5f 32|max_with_const_2|
0x280|32                                             |2               |
     |                                               |                |              d{}: 0x281-0x282.7 (2)
0x280|   00                                          | .              |                tag: "funcidx" (0x0) 0x281-0x281.7 (1)
0x280|      17                                       |  .             |                x: 23 0x282-0x282.7 (1)
     |                                               |                |            [24]{}: ex 0x283-0x29c.7 (26)
     |                                               |                |              nm{}: 0x283-0x29a.7 (24)
0x280|         17                                    |   .            |                n: 23 0x283-0x283.7 (1)
0x280|            66 36 34 78 32 2e 6d 61 78 5f 77 69|    f64x2.max_wi|                b: "f64x2.max_with_const_23" 0x284-0x29a.7 (23)
0x290|74 68 5f 63 6f 6e 73 74 5f 32 33               |th_const_23     |
     |                                               |                |              d{}: 0x29b-0x29c.7 (2)
0x290|                                 00            |           .    |                tag: "funcidx" (0x0) 0x29b-0x29b.7 (1)
0x290|                                    18         |            .   |                x: 24 0x29c-0x29c.7 (1)
     |                                               |                |            [25]{}: ex 0x29d-0x2b6.7 (26)
     |                                               |                |              nm{}: 0x29d-0x2b4.7 (24)
0x290|                                       17      |             .  |                n: 23 0x29d-0x29d.7 (1)
0x290|                                          66 36|              f6|                b: "f64x2.max_with_const_24" 0x29e-0x2b4.7 (23)
0x2a0|34 78 32 2e 6d 61 78 5f 77 69 74 68 5f 63 6f 6e|4x2.max_with_con|
0x2b0|73 74 5f 32 34                                 |st_24           |
     |                                               |                |              d{}: 0x2b5-0x2b6.7 (2)
0x2b0|               00                              |     .          |                tag: "funcidx" (0x0) 0x2b5-0x2b5.7 (1)
0x2b0|                  19                           |      .         |                x: 25 0x2b6-0x2b6.7 (1)
     |                                               |                |            [26]{}: ex 0x2b7-0x2d0.7 (26)
     |                                               |                |              nm{}: 0x2b7-0x2ce.7 (24)
0x2b0|                     17                        |       .        |                n: 23 0x2b7-0x2b7.7 (1)
0x2b0|                        66 36 34 78 32 2e 6d 61|        f64x2.ma|                b: "f64x2.max_with_const_25" 0x2b8-0x2ce.7 (23)
0x2c0|78 5f 77 69 74 68 5f 63 6f 6e 73 74 5f 32 35   |x_with_const_25 |
     |                                               |                |              d{}: 0x2cf-0x2d0.7 (2)
0x2c0|                                             00|               .|                tag: "funcidx" (0x0) 0x2cf-0x2cf.7 (1)
0x2d0|1a                                             |.               |                x: 26 0x2d0-0x2d0.7 (1)
     |                                               |                |            [27]{}: ex 0x2d1-0x2ea.7 (26)
     |                                               |                |              nm{}: 0x2d1-0x2e8.7 (24)
0x2d0|   17                                          | .              |                n: 23 0x2d1-0x2d1.7 (1)
0x2d0|      66 36 34 78 32 2e 6d 61 78 5f 77 69 74 68|  f64x2.max_with|                b: "f64x2.max_with_const_27" 0x2d2-0x2e8.7 (23)
0x2e0|5f 63 6f 6e 73 74 5f 32 37                     |_const_27       |
     |                                               |                |              d{}: 0x2e9-0x2ea.7 (2)
0x2e0|                           00                  |         .      |                tag: "funcidx" (0x0) 0x2e9-0x2e9.7 (1)
0x2e0|                              1b               |          .     |                x: 27 0x2ea-0x2ea.7 (1)
     |                                               |                |            [28]{}: ex 0x2eb-0x304.7 (26)
     |                                               |                |              nm{}: 0x2eb-0x302.7 (24)
0x2e0|                                 17            |           .    |                n: 23 0x2eb-0x2eb.7 (1)
0x2e0|                                    66 36 34 78|            f64x|                b: "f64x2.max_with_const_28" 0x2ec-0x302.7 (23)
0x2f0|32 2e 6d 61 78 5f 77 69 74 68 5f 63 6f 6e 73 74|2.max_with_const|
0x300|5f 32 38                                       |_28             |
     |                                               |                |              d{}: 0x303-0x304.7 (2)
0x300|         00                                    |   .            |                tag: "funcidx" (0x0) 0x303-0x303.7 (1)
0x300|            1c                                 |    .           |                x: 28 0x304-0x304.7 (1)
     |                                               |                |            [29]{}: ex 0x305-0x31e.7 (26)
     |                                               |                |              nm{}: 0x305-0x31c.7 (24)
0x300|               17                              |     .          |                n: 23 0x305-0x305.7 (1)
0x300|                  66 36 34 78 32 2e 6d 61 78 5f|      f64x2.max_|                b: "f64x2.max_with_const_29" 0x306-0x31c.7 (23)
0x310|77 69 74 68 5f 63 6f 6e 73 74 5f 32 39         |with_const_29   |
     |                                               |                |              d{}: 0x31d-0x31e.7 (2)
0x310|                                       00      |             .  |                tag: "funcidx" (0x0) 0x31d-0x31d.7 (1)
0x310|                                          1d   |              . |                x: 29 0x31e-0x31e.7 (1)
     |                                               |                |            [30]{}: ex 0x31f-0x338.7 (26)
     |                                               |                |              nm{}: 0x31f-0x336.7 (24)
0x310|                                             17|               .|                n: 23 0x31f-0x31f.7 (1)
0x320|66 36 34 78 32 2e 6d 61 78 5f 77 69 74 68 5f 63|f64x2.max_with_c|                b: "f64x2.max_with_const_30" 0x320-0x336.7 (23)
0x330|6f 6e 73 74 5f 33 30                           |onst_30         |
     |                                               |                |              d{}: 0x337-0x338.7 (2)
0x330|                     00                        |       .        |                tag: "funcidx" (0x0) 0x337-0x337.7 (1)
0x330|                        1e                     |        .       |                x: 30 0x338-0x338.7 (1)
     |                                               |                |            [31]{}: ex 0x339-0x352.7 (26)
     |                                               |                |              nm{}: 0x339-0x350.7 (24)
0x330|                           17                  |         .      |                n: 23 0x339-0x339.7 (1)
0x330|                              66 36 34 78 32 2e|          f64x2.|                b: "f64x2.max_with_const_31" 0x33a-0x350.7 (23)
0x340|6d 61 78 5f 77 69 74 68 5f 63 6f 6e 73 74 5f 33|max_with_const_3|
0x350|31                                             |1               |
     |                                               |                |              d{}: 0x351-0x352.7 (2)
0x350|   00                                          | .              |                tag: "funcidx" (0x0) 0x351-0x351.7 (1)
0x350|      1f                                       |  .             |                x: 31 0x352-0x352.7 (1)
     |                                               |                |            [32]{}: ex 0x353-0x36c.7 (26)
     |                                               |                |              nm{}: 0x353-0x36a.7 (24)
0x350|         17                                    |   .            |                n: 23 0x353-0x353.7 (1)
0x350|            66 36 34 78 32 2e 6d 61 78 5f 77 69|    f64x2.max_wi|                b: "f64x2.max_with_const_32" 0x354-0x36a.7 (23)
0x360|74 68 5f 63 6f 6e 73 74 5f 33 32               |th_const_32     |
     |                                               |                |              d{}: 0x36b-0x36c.7 (2)
0x360|                                 00            |           .    |                tag: "funcidx" (0x0) 0x36b-0x36b.7 (1)
0x360|                                    20         |                |                x: 32 0x36c-0x36c.7 (1)
     |                                               |                |            [33]{}: ex 0x36d-0x386.7 (26)
     |                                               |                |              nm{}: 0x36d-0x384.7 (24)
0x360|                                       17      |             .  |                n: 23 0x36d-0x36d.7 (1)
0x360|                                          66 36|              f6|                b: "f64x2.max_with_const_33" 0x36e-0x384.7 (23)
0x370|34 78 32 2e 6d 61 78 5f 77 69 74 68 5f 63 6f 6e|4x2.max_with_con|
0x380|73 74 5f 33 33                                 |st_33           |
     |                                               |                |              d{}: 0x385-0x386.7 (2)
0x380|               00                              |     .          |                tag: "funcidx" (0x0) 0x385-0x385.7 (1)
0x380|                  21                           |      !         |                x: 33 0x386-0x386.7 (1)
     |                                               |                |            [34]{}: ex 0x387-0x3a0.7 (26)
     |                                               |                |              nm{}: 0x387-0x39e.7 (24)
0x380|                     17                        |       .        |                n: 23 0x387-0x387.7 (1)
0x380|                        66 36 34 78 32 2e 6d 61|        f64x2.ma|                b: "f64x2.max_with_const_34" 0x388-0x39e.7 (23)
0x390|78 5f 77 69 74 68 5f 63 6f 6e 73 74 5f 33 34   |x_with_const_34 |
     |                                               |                |              d{}: 0x39f-0x3a0.7 (2)
0x390|                                             00|               .|                tag: "funcidx" (0x0) 0x39f-0x39f.7 (1)
0x3a0|22                                             |"               |                x: 34 0x3a0-0x3a0.7 (1)
     |                                               |                |            [35]{}: ex 0x3a1-0x3ba.7 (26)
     |                                               |                |              nm{}: 0x3a1-0x3b8.7 (24)
0x3a0|   17                                          | .              |                n: 23 0x3a1-0x3a1.7 (1)
0x3a0|      66 36 34 78 32 2e 61 62 73 5f 77 69 74 68|  f64x2.abs_with|                b: "f64x2.abs_with_const_35" 0x3a2-0x3b8.7 (23)
0x3b0|5f 63 6f 6e 73 74 5f 33 35                     |_const_35       |
     |                                               |                |              d{}: 0x3b9-0x3ba.7 (2)
0x3b0|                           00                  |         .      |                tag: "funcidx" (0x0) 0x3b9-0x3b9.7 (1)
0x3b0|                              23               |          #     |                x: 35 0x3ba-0x3ba.7 (1)
     |                                               |                |            [36]{}: ex 0x3bb-0x3d4.7 (26)
     |                                               |                |              nm{}: 0x3bb-0x3d2.7 (24)
0x3b0|                                 17            |           .    |                n: 23 0x3bb-0x3bb.7 (1)
0x3b0|                                    66 36 34 78|            f64x|                b: "f64x2.abs_with_const_36" 0x3bc-0x3d2.7 (23)
0x3c0|32 2e 61 62 73 5f 77 69 74 68 5f 63 6f 6e 73 74|2.abs_with_const|
0x3d0|5f 33 36                                       |_36             |
     |                                               |                |              d{}: 0x3d3-0x3d4.7 (2)
0x3d0|         00                                    |   .            |                tag: "funcidx" (0x0) 0x3d3-0x3d3.7 (1)
0x3d0|            24                                 |    $           |                x: 36 0x3d4-0x3d4.7 (1)
     |                                               |                |    [3]{}: section 0x3d5-0x864.7 (1168)
0x3d0|               0a                              |     .          |      id: "code section" (10) 0x3d5-0x3d5.7 (1)
0x3d0|                  8d 09                        |      ..        |      size: 1165 0x3d6-0x3d7.7 (2)
     |                                               |                |      content{}: 0x3d8-0x864.7 (1165)
     |                                               |                |        code{}: 0x3d8-0x864.7 (1165)
0x3d0|                        25                     |        %       |          n: 37 0x3d8-0x3d8.7 (1)
     |                                               |                |          x[0:37]: 0x3d9-0x864.7 (1164)
     |                                               |                |            [0]{}: code 0x3d9-0x3e2.7 (10)
0x3d0|                           09                  |         .      |              size: 9 0x3d9-0x3d9.7 (1)
     |                                               |                |              code{}: 0x3da-0x3e2.7 (9)
     |                                               |                |                t{}: 0x3da-0x3da.7 (1)
0x3d0|                              00               |          .     |                  n: 0 0x3da-0x3da.7 (1)
     |                                               |                |                  x[0:0]: 0x3db-NA (0)
     |                                               |                |                e[0:4]: 0x3db-0x3e2.7 (8)
     |                                               |                |                  [0]{}: in 0x3db-0x3dc.7 (2)
0x3d0|                                 20            |                |                    local.get: 0x20 (valid) 0x3db-0x3db.7 (1)
0x3d0|                                    00         |            .   |                    x: 0 0x3dc-0x3dc.7 (1)
     |                                               |                |                  [1]{}: in 0x3dd-0x3de.7 (2)
0x3d0|                                       20      |                |                    local.get: 0x20 (valid) 0x3dd-0x3dd.7 (1)
0x3d0|                                          01   |              . |                    x: 1 0x3de-0x3de.7 (1)
     |                                               |                |                  [2]{}: in 0x3df-0x3e1.7 (3)
0x3d0|                                             fd|               .|                    prefix: 0xfd (valid) 0x3df-0x3df.7 (1)
0x3e0|f4 01                                          |..              |                    f64x2.min: 244 (valid) 0x3e0-0x3e1.7 (2)
     |                                               |                |                  [3]{}: in 0x3e2-0x3e2.7 (1)
0x3e0|      0b                                       |  .             |                    end: 0xb (valid) 0x3e2-0x3e2.7 (1)
     |                                               |                |            [1]{}: code 0x3e3-0x3ec.7 (10)
0x3e0|         09                                    |   .            |              size: 9 0x3e3-0x3e3.7 (1)
     |                                               |                |              code{}: 0x3e4-0x3ec.7 (9)
     |                                               |                |                t{}: 0x3e4-0x3e4.7 (1)
0x3e0|            00                                 |    .           |                  n: 0 0x3e4-0x3e4.7 (1)
     |                                               |                |                  x[0:0]: 0x3e5-NA (0)
     |                                               |                |                e[0:4]: 0x3e5-0x3ec.7 (8)
     |                                               |                |                  [0]{}: in 0x3e5-0x3e6.7 (2)
0x3e0|               20                              |                |                    local.get: 0x20 (valid) 0x3e5-0x3e5.7 (1)
0x3e0|                  00                           |      .         |                    x: 0 0x3e6-0x3e6.7 (1)
     |                                               |                |                  [1]{}: in 0x3e7-0x3e8.7 (2)
0x3e0|                     20                        |                |                    local.get: 0x20 (valid) 0x3e7-0x3e7.7 (1)
0x3e0|                        01                     |        .       |                    x: 1 0x3e8-0x3e8.7 (1)
     |                                               |                |                  [2]{}: in 0x3e9-0x3eb.7 (3)
0x3e0|                           fd                  |         .      |                    prefix: 0xfd (valid) 0x3e9-0x3e9.7 (1)
0x3e0|                              f5 01            |          ..    |                    f64x2.max: 245 (valid) 0x3ea-0x3eb.7 (2)
     |                                               |                |                  [3]{}: in 0x3ec-0x3ec.7 (1)
0x3e0|                                    0b         |            .   |                    end: 0xb (valid) 0x3ec-0x3ec.7 (1)
     |                                               |                |            [2]{}: code 0x3ed-0x3f4.7 (8)
0x3e0|                                       07      |             .  |              size: 7 0x3ed-0x3ed.7 (1)
     |                                               |                |              code{}: 0x3ee-0x3f4.7 (7)
     |                                               |                |                t{}: 0x3ee-0x3ee.7 (1)
0x3e0|                                          00   |              . |                  n: 0 0x3ee-0x3ee.7 (1)
     |                                               |                |                  x[0:0]: 0x3ef-NA (0)
     |                                               |                |                e[0:3]: 0x3ef-0x3f4.7 (6)
     |                                               |                |                  [0]{}: in 0x3ef-0x3f0.7 (2)
0x3e0|                                             20|                |                    local.get: 0x20 (valid) 0x3ef-0x3ef.7 (1)
0x3f0|00                                             |.               |                    x: 0 0x3f0-0x3f0.7 (1)
     |                                               |                |                  [1]{}: in 0x3f1-0x3f3.7 (3)
0x3f0|   fd                                          | .              |                    prefix: 0xfd (valid) 0x3f1-0x3f1.7 (1)
0x3f0|      ec 01                                    |  ..            |                    f64x2.abs: 236 (valid) 0x3f2-0x3f3.7 (2)
     |                                               |                |                  [2]{}: in 0x3f4-0x3f4.7 (1)
0x3f0|            0b                                 |    .           |                    end: 0xb (valid) 0x3f4-0x3f4.7 (1)
     |                                               |                |            [3]{}: code 0x3f5-0x41e.7 (42)
0x3f0|               29                              |     )          |              size: 41 0x3f5-0x3f5.7 (1)
     |                                               |                |              code{}: 0x3f6-0x41e.7 (41)
     |                                               |                |                t{}: 0x3f6-0x3f6.7 (1)
0x3f0|                  00                           |      .         |                  n: 0 0x3f6-0x3f6.7 (1)
     |                                               |                |                  x[0:0]: 0x3f7-NA (0)
     |                                               |                |                e[0:4]: 0x3f7-0x41e.7 (40)
     |                                               |                |                  [0]{}: in 0x3f7-0x408.7 (18)
0x3f0|                     fd                        |       .        |                    prefix: 0xfd (valid) 0x3f7-0x3f7.7 (1)
0x3f0|                        0c                     |        .       |                    v128.const: 12 (valid) 0x3f8-0x3f8.7 (1)
0x3f0|                           00 00 00 00 00 00 00|         .......|                    bytes: raw bits 0x3f9-0x408.7 (16)
0x400|00 00 00 00 00 00 00 f0 3f                     |........?       |
     |                                               |                |                  [1]{}: in 0x409-0x41a.7 (18)
0x400|                           fd                  |         .      |                    prefix: 0xfd (valid) 0x409-0x409.7 (1)
0x400|                              0c               |          .     |                    v128.const: 12 (valid) 0x40a-0x40a.7 (1)
0x400|                                 00 00 00 00 00|           .....|                    bytes: raw bits 0x40b-0x41a.7 (16)
0x410|00 00 00 00 00 00 00 00 00 00 40               |..........@     |
     |                                               |                |                  [2]{}: in 0x41b-0x41d.7 (3)
0x410|                                 fd            |           .    |                    prefix: 0xfd (valid) 0x41b-0x41b.7 (1)
0x410|                                    f4 01      |            ..  |                    f64x2.min: 244 (valid) 0x41c-0x41d.7 (2)
     |                                               |                |                  [3]{}: in 0x41e-0x41e.7 (1)
0x410|                                          0b   |              . |                    end: 0xb (valid) 0x41e-0x41e.7 (1)
     |                                               |                |            [4]{}: code 0x41f-0x448.7 (42)
0x410|                                             29|               )|              size: 41 0x41f-0x41f.7 (1)
     |                                               |                |              code{}: 0x420-0x448.7 (41)
     |                                               |                |                t{}: 0x420-0x420.7 (1)
0x420|00                                             |.               |                  n: 0 0x420-0x420.7 (1)
     |                                               |                |                  x[0:0]: 0x421-NA (0)
     |                                               |                |                e[0:4]: 0x421-0x448.7 (40)
     |                                               |                |                  [0]{}: in 0x421-0x432.7 (18)
0x420|   fd                                          | .              |                    prefix: 0xfd (valid) 0x421-0x421.7 (1)
0x420|      0c                                       |  .             |                    v128.const: 12 (valid) 0x422-0x422.7 (1)
0x420|         00 00 00 00 00 00 00 40 00 00 00 00 00|   .......@.....|                    bytes: raw bits 0x423-0x432.7 (16)
0x430|00 08 c0                                       |...             |
     |                                               |                |                  [1]{}: in 0x433-0x444.7 (18)
0x430|         fd                                    |   .            |                    prefix: 0xfd (valid) 0x433-0x433.7 (1)
0x430|            0c                                 |    .           |                    v128.const: 12 (valid) 0x434-0x434.7 (1)
0x430|               00 00 00 00 00 00 f0 3f 00 00 00|     .......?...|                    bytes: raw bits 0x435-0x444.7 (16)
0x440|00 00 00 08 40                                 |....@           |
     |                                               |                |                  [2]{}: in 0x445-0x447.7 (3)
0x440|               fd                              |     .          |                    prefix: 0xfd (valid) 0x445-0x445.7 (1)
0x440|                  f4 01                        |      ..        |                    f64x2.min: 244 (valid) 0x446-0x447.7 (2)
     |                                               |                |                  [3]{}: in 0x448-0x448.7 (1)
0x440|                        0b                     |        .       |                    end: 0xb (valid) 0x448-0x448.7 (1)
     |                                               |                |            [5]{}: code 0x449-0x472.7 (42)
0x440|                           29                  |         )      |              size: 41 0x449-0x449.7 (1)
     |                                               |                |              code{}: 0x44a-0x472.7 (41)
     |                                               |                |                t{}: 0x44a-0x44a.7 (1)
0x440|                              00               |          .     |                  n: 0 0x44a-0x44a.7 (1)
     |                                               |                |                  x[0:0]: 0x44b-NA (0)
     |                                               |                |                e[0:4]: 0x44b-0x472.7 (40)
     |                                               |                |                  [0]{}: in 0x44b-0x45c.7 (18)
0x440|                                 fd            |           .    |                    prefix: 0xfd (valid) 0x44b-0x44b.7 (1)
0x440|                                    0c         |            .   |                    v128.const: 12 (valid) 0x44c-0x44c.7 (1)
0x440|                                       00 00 00|             ...|                    bytes: raw bits 0x44d-0x45c.7 (16)
0x450|00 00 00 00 00 00 00 00 00 00 00 f0 3f         |............?   |
     |                                               |                |                  [1]{}: in 0x45d-0x46e.7 (18)
0x450|                                       fd      |             .  |                    prefix: 0xfd (valid) 0x45d-0x45d.7 (1)
0x450|                                          0c   |              . |                    v128.const: 12 (valid) 0x45e-0x45e.7 (1)
0x450|                                             00|               .|                    bytes: raw bits 0x45f-0x46e.7 (16)
0x460|00 00 00 00 00 00 00 00 00 00 00 00 00 f0 3f   |..............? |
     |                                               |                |                  [2]{}: in 0x46f-0x471.7 (3)
0x460|                                             fd|               .|                    prefix: 0xfd (valid) 0x46f-0x46f.7 (1)
0x470|f4 01                                          |..              |                    f64x2.min: 244 (valid) 0x470-0x471.7 (2)
     |                                               |                |                  [3]{}: in 0x472-0x472.7 (1)
0x470|      0b                                       |  .             |                    end: 0xb (valid) 0x472-0x472.7 (1)
     |                                               |                |            [6]{}: code 0x473-0x49c.7 (42)
0x470|         29                                    |   )            |              size: 41 0x473-0x473.7 (1)
     |                                               |                |              code{}: 0x474-0x49c.7 (41)
     |                                               |                |                t{}: 0x474-0x474.7 (1)
0x470|            00                                 |    .           |                  n: 0 0x474-0x474.7 (1)
     |                                               |                |                  x[0:0]: 0x475-NA (0)
     |                                               |                |                e[0:4]: 0x475-0x49c.7 (40)
     |                                               |                |                  [0]{}: in 0x475-0x486.7 (18)
0x470|               fd                              |     .          |                    prefix: 0xfd (valid) 0x475-0x475.7 (1)
0x470|                  0c                           |      .         |                    v128.const: 12 (valid) 0x476-0x476.7 (1)
0x470|                     00 00 00 00 00 00 00 40 00|       .......@.|                    bytes: raw bits 0x477-0x486.7 (16)
0x480|00 00 00 00 00 08 40                           |......@         |
     |                                               |                |                  [1]{}: in 0x487-0x498.7 (18)
0x480|                     fd                        |       .        |                    prefix: 0xfd (valid) 0x487-0x487.7 (1)
0x480|                        0c                     |        .       |                    v128.const: 12 (valid) 0x488-0x488.7 (1)
0x480|                           00 00 00 00 00 00 00|         .......|                    bytes: raw bits 0x489-0x498.7 (16)
0x490|40 00 00 00 00 00 00 08 40                     |@.......@       |
     |                                               |                |                  [2]{}: in 0x499-0x49b.7 (3)
0x490|                           fd                  |         .      |                    prefix: 0xfd (valid) 0x499-0x499.7 (1)
0x490|                              f4 01            |          ..    |                    f64x2.min: 244 (valid) 0x49a-0x49b.7 (2)
     |                                               |                |                  [3]{}: in 0x49c-0x49c.7 (1)
0x490|                                    0b         |            .   |                    end: 0xb (valid) 0x49c-0x49c.7 (1)
     |                                               |                |            [7]{}: code 0x49d-0x4c6.7 (42)
0x490|                                       29      |             )  |              size: 41 0x49d-0x49d.7 (1)
     |                                               |                |              code{}: 0x49e-0x4c6.7 (41)
     |                                               |                |                t{}: 0x49e-0x49e.7 (1)
0x490|                                          00   |              . |                  n: 0 0x49e-0x49e.7 (1)
     |                                               |                |                  x[0:0]: 0x49f-NA (0)
     |                                               |                |                e[0:4]: 0x49f-0x4c6.7 (40)
     |                                               |                |                  [0]{}: in 0x49f-0x4b0.7 (18)
0x490|                                             fd|               .|                    prefix: 0xfd (valid) 0x49f-0x49f.7 (1)
0x4a0|0c                                             |.               |                    v128.const: 12 (valid) 0x4a0-0x4a0.7 (1)
0x4a0|   00 00 00 00 00 00 00 00 00 00 00 00 00 00 f0| ...............|                    bytes: raw bits 0x4a1-0x4b0.7 (16)
0x4b0|3f                                             |?               |
     |                                               |                |                  [1]{}: in 0x4b1-0x4c2.7 (18)
0x4b0|   fd                                          | .              |                    prefix: 0xfd (valid) 0x4b1-0x4b1.7 (1)
0x4b0|      0c                                       |  .             |                    v128.const: 12 (valid) 0x4b2-0x4b2.7 (1)
0x4b0|         00 00 00 00 00 00 00 00 00 00 00 00 00|   .............|                    bytes: raw bits 0x4b3-0x4c2.7 (16)
0x4c0|00 00 40                                       |..@             |
     |                                               |                |                  [2]{}: in 0x4c3-0x4c5.7 (3)
0x4c0|         fd                                    |   .            |                    prefix: 0xfd (valid) 0x4c3-0x4c3.7 (1)
0x4c0|            f4 01                              |    ..          |                    f64x2.min: 244 (valid) 0x4c4-0x4c5.7 (2)
     |                                               |                |                  [3]{}: in 0x4c6-0x4c6.7 (1)
0x4c0|                  0b                           |      .         |                    end: 0xb (valid) 0x4c6-0x4c6.7 (1)
     |                                               |                |            [8]{}: code 0x4c7-0x4f0.7 (42)
0x4c0|                     29                        |       )        |              size: 41 0x4c7-0x4c7.7 (1)
     |                                               |                |              code{}: 0x4c8-0x4f0.7 (41)
     |                                               |                |                t{}: 0x4c8-0x4c8.7 (1)
0x4c0|                        00                     |        .       |                  n: 0 0x4c8-0x4c8.7 (1)
     |                                               |                |                  x[0:0]: 0x4c9-NA (0)
     |                                               |                |                e[0:4]: 0x4c9-0x4f0.7 (40)
     |                                               |                |                  [0]{}: in 0x4c9-0x4da.7 (18)
0x4c0|                           fd                  |         .      |                    prefix: 0xfd (valid) 0x4c9-0x4c9.7 (1)
0x4c0|                              0c               |          .     |                    v128.const: 12 (valid) 0x4ca-0x4ca.7 (1)
0x4c0|                                 00 00 00 00 00|           .....|                    bytes: raw bits 0x4cb-0x4da.7 (16)
0x4d0|00 00 40 00 00 00 00 00 00 e0 41               |..@.......A     |
     |                                               |                |                  [1]{}: in 0x4db-0x4ec.7 (18)
0x4d0|                                 fd            |           .    |                    prefix: 0xfd (valid) 0x4db-0x4db.7 (1)
0x4d0|                                    0c         |            .   |                    v128.const: 12 (valid) 0x4dc-0x4dc.7 (1)
0x4d0|                                       00 00 00|             ...|                    bytes: raw bits 0x4dd-0x4ec.7 (16)
0x4e0|00 00 00 f0 3f 00 00 00 00 00 00 e0 41         |....?.......A   |
     |                                               |                |                  [2]{}: in 0x4ed-0x4ef.7 (3)
0x4e0|                                       fd      |             .  |                    prefix: 0xfd (valid) 0x4ed-0x4ed.7 (1)
0x4e0|                                          f4 01|              ..|                    f64x2.min: 244 (valid) 0x4ee-0x4ef.7 (2)
     |                                               |                |                  [3]{}: in 0x4f0-0x4f0.7 (1)
0x4f0|0b                                             |.               |                    end: 0xb (valid) 0x4f0-0x4f0.7 (1)
     |                                               |                |            [9]{}: code 0x4f1-0x51a.7 (42)
0x4f0|   29                                          | )              |              size: 41 0x4f1-0x4f1.7 (1)
     |                                               |                |              code{}: 0x4f2-0x51a.7 (41)
     |                                               |                |                t{}: 0x4f2-0x4f2.7 (1)
0x4f0|      00                                       |  .             |                  n: 0 0x4f2-0x4f2.7 (1)
     |                                               |                |                  x[0:0]: 0x4f3-NA (0)
     |                                               |                |                e[0:4]: 0x4f3-0x51a.7 (40)
     |                                               |                |                  [0]{}: in 0x4f3-0x504.7 (18)
0x4f0|         fd                                    |   .            |                    prefix: 0xfd (valid) 0x4f3-0x4f3.7 (1)
0x4f0|            0c                                 |    .           |                    v128.const: 12 (valid) 0x4f4-0x4f4.7 (1)
0x4f0|               00 00 00 00 00 00 00 00 00 00 00|     ...........|                    bytes: raw bits 0x4f5-0x504.7 (16)
0x500|00 00 00 f0 3f                                 |....?           |
     |                                               |                |                  [1]{}: in 0x505-0x516.7 (18)
0x500|               fd                              |     .          |                    prefix: 0xfd (valid) 0x505-0x505.7 (1)
0x500|                  0c                           |      .         |                    v128.const: 12 (valid) 0x506-0x506.7 (1)
0x500|                     00 00 00 00 00 00 00 00 00|       .........|                    bytes: raw bits 0x507-0x516.7 (16)
0x510|00 00 00 00 00 f0 3f                           |......?         |
     |                                               |                |                  [2]{}: in 0x517-0x519.7 (3)
0x510|                     fd                        |       .        |                    prefix: 0xfd (valid) 0x517-0x517.7 (1)
0x510|                        f4 01                  |        ..      |                    f64x2.min: 244 (valid) 0x518-0x519.7 (2)
     |                                               |                |                  [3]{}: in 0x51a-0x51a.7 (1)
0x510|                              0b               |          .     |                    end: 0xb (valid) 0x51a-0x51a.7 (1)
     |                                               |                |            [10]{}: code 0x51b-0x544.7 (42)
0x510|                                 29            |           )    |              size: 41 0x51b-0x51b.7 (1)
     |                                               |                |              code{}: 0x51c-0x544.7 (41)
     |                                               |                |                t{}: 0x51c-0x51c.7 (1)
0x510|                                    00         |            .   |                  n: 0 0x51c-0x51c.7 (1)
     |                                               |                |                  x[0:0]: 0x51d-NA (0)
     |                                               |                |                e[0:4]: 0x51d-0x544.7 (40)
     |                                               |                |                  [0]{}: in 0x51d-0x52e.7 (18)
0x510|                                       fd      |             .  |                    prefix: 0xfd (valid) 0x51d-0x51d.7 (1)
0x510|                                          0c   |              . |                    v128.const: 12 (valid) 0x51e-0x51e.7 (1)
0x510|                                             00|               .|                    bytes: raw bits 0x51f-0x52e.7 (16)
0x520|00 00 00 00 00 00 40 00 00 00 00 00 00 e0 41   |......@.......A |
     |                                               |                |                  [1]{}: in 0x52f-0x540.7 (18)
0x520|                                             fd|               .|                    prefix: 0xfd (valid) 0x52f-0x52f.7 (1)
0x530|0c                                             |.               |                    v128.const: 12 (valid) 0x530-0x530.7 (1)
0x530|   00 00 00 00 00 00 00 40 00 00 00 00 00 00 e0| .......@.......|                    bytes: raw bits 0x531-0x540.7 (16)
0x540|41                                             |A               |
     |                                               |                |                  [2]{}: in 0x541-0x543.7 (3)
0x540|   fd                                          | .              |                    prefix: 0xfd (valid) 0x541-0x541.7 (1)
0x540|      f4 01                                    |  ..            |                    f64x2.min: 244 (valid) 0x542-0x543.7 (2)
     |                                               |                |                  [3]{}: in 0x544-0x544.7 (1)
0x540|            0b                                 |    .           |                    end: 0xb (valid) 0x544-0x544.7 (1)
     |                                               |                |            [11]{}: code 0x545-0x55e.7 (26)
0x540|               19                              |     .          |              size: 25 0x545-0x545.7 (1)
     |                                               |                |              code{}: 0x546-0x55e.7 (25)
     |                                               |                |                t{}: 0x546-0x546.7 (1)
0x540|                  00                           |      .         |                  n: 0 0x546-0x546.7 (1)
     |                                               |                |                  x[0:0]: 0x547-NA (0)
     |                                               |                |                e[0:4]: 0x547-0x55e.7 (24)
     |                                               |                |                  [0]{}: in 0x547-0x548.7 (2)
0x540|                     20                        |                |                    local.get: 0x20 (valid) 0x547-0x547.7 (1)
0x540|                        00                     |        .       |                    x: 0 0x548-0x548.7 (1)
     |                                               |                |                  [1]{}: in 0x549-0x55a.7 (18)
0x540|                           fd                  |         .      |                    prefix: 0xfd (valid) 0x549-0x549.7 (1)
0x540|                              0c               |          .     |                    v128.const: 12 (valid) 0x54a-0x54a.7 (1)
0x540|                                 00 00 00 00 00|           .....|                    bytes: raw bits 0x54b-0x55a.7 (16)
0x550|00 00 00 00 00 00 00 00 00 f0 3f               |..........?     |
     |                                               |                |                  [2]{}: in 0x55b-0x55d.7 (3)
0x550|                                 fd            |           .    |                    prefix: 0xfd (valid) 0x55b-0x55b.7 (1)
0x550|                                    f4 01      |            ..  |                    f64x2.min: 244 (valid) 0x55c-0x55d.7 (2)
     |                                               |                |                  [3]{}: in 0x55e-0x55e.7 (1)
0x550|                                          0b   |              . |                    end: 0xb (valid) 0x55e-0x55e.7 (1)
     |                                               |                |            [12]{}: code 0x55f-0x578.7 (26)
0x550|                                             19|               .|              size: 25 0x55f-0x55f.7 (1)
     |                                               |                |              code{}: 0x560-0x578.7 (25)
     |                                               |                |                t{}: 0x560-0x560.7 (1)
0x560|00                                             |.               |                  n: 0 0x560-0x560.7 (1)
     |                                               |                |                  x[0:0]: 0x561-NA (0)
     |                                               |                |                e[0:4]: 0x561-0x578.7 (24)
     |                                               |                |                  [0]{}: in 0x561-0x572.7 (18)
0x560|   fd                                          | .              |                    prefix: 0xfd (valid) 0x561-0x561.7 (1)
0x560|      0c                                       |  .             |                    v128.const: 12 (valid) 0x562-0x562.7 (1)
0x560|         00 00 00 00 00 00 00 40 00 00 00 00 00|   .......@.....|                    bytes: raw bits 0x563-0x572.7 (16)
0x570|00 08 c0                                       |...             |
     |                                               |                |                  [1]{}: in 0x573-0x574.7 (2)
0x570|         20                                    |                |                    local.get: 0x20 (valid) 0x573-0x573.7 (1)
0x570|            00                                 |    .           |                    x: 0 0x574-0x574.7 (1)
     |                                               |                |                  [2]{}: in 0x575-0x577.7 (3)
0x570|               fd                              |     .          |                    prefix: 0xfd (valid) 0x575-0x575.7 (1)
0x570|                  f4 01                        |      ..        |                    f64x2.min: 244 (valid) 0x576-0x577.7 (2)
     |                                               |                |                  [3]{}: in 0x578-0x578.7 (1)
0x570|                        0b                     |        .       |                    end: 0xb (valid) 0x578-0x578.7 (1)
     |                                               |                |            [13]{}: code 0x579-0x592.7 (26)
0x570|                           19                  |         .      |              size: 25 0x579-0x579.7 (1)
     |                                               |                |              code{}: 0x57a-0x592.7 (25)
     |                                               |                |                t{}: 0x57a-0x57a.7 (1)
0x570|                              00               |          .     |                  n: 0 0x57a-0x57a.7 (1)
     |                                               |                |                  x[0:0]: 0x57b-NA (0)
     |                                               |                |                e[0:4]: 0x57b-0x592.7 (24)
     |                                               |                |                  [0]{}: in 0x57b-0x58c.7 (18)
0x570|                                 fd            |           .    |                    prefix: 0xfd (valid) 0x57b-0x57b.7 (1)
0x570|                                    0c         |            .   |                    v128.const: 12 (valid) 0x57c-0x57c.7 (1)
0x570|                                       00 00 00|             ...|                    bytes: raw bits 0x57d-0x58c.7 (16)
0x580|00 00 00 00 00 00 00 00 00 00 00 f0 3f         |............?   |
     |                                               |                |                  [1]{}: in 0x58d-0x58e.7 (2)
0x580|                                       20      |                |                    local.get: 0x20 (valid) 0x58d-0x58d.7 (1)
0x580|                                          00   |              . |                    x: 0 0x58e-0x58e.7 (1)
     |                                               |                |                  [2]{}: in 0x58f-0x591.7 (3)
0x580|                                             fd|               .|                    prefix: 0xfd (valid) 0x58f-0x58f.7 (1)
0x590|f4 01                                          |..              |                    f64x2.min: 244 (valid) 0x590-0x591.7 (2)
     |                                               |                |                  [3]{}: in 0x592-0x592.7 (1)
0x590|      0b                                       |  .             |                    end: 0xb (valid) 0x592-0x592.7 (1)
     |                                               |                |            [14]{}: code 0x593-0x5ac.7 (26)
0x590|         19                                    |   .            |              size: 25 0x593-0x593.7 (1)
     |                                               |                |              code{}: 0x594-0x5ac.7 (25)
     |                                               |                |                t{}: 0x594-0x594.7 (1)
0x590|            00                                 |    .           |                  n: 0 0x594-0x594.7 (1)
     |                                               |                |                  x[0:0]: 0x595-NA (0)
     |                                               |                |                e[0:4]: 0x595-0x5ac.7 (24)
     |                                               |                |                  [0]{}: in 0x595-0x596.7 (2)
0x590|               20                              |                |                    local.get: 0x20 (valid) 0x595-0x595.7 (1)
0x590|                  00                           |      .         |                    x: 0 0x596-0x596.7 (1)
     |                                               |                |                  [1]{}: in 0x597-0x5a8.7 (18)
0x590|                     fd                        |       .        |                    prefix: 0xfd (valid) 0x597-0x597.7 (1)
0x590|                        0c                     |        .       |                    v128.const: 12 (valid) 0x598-0x598.7 (1)
0x590|                           00 00 00 00 00 00 00|         .......|                    bytes: raw bits 0x599-0x5a8.7 (16)
0x5a0|40 00 00 00 00 00 00 08 40                     |@.......@       |
     |                                               |                |                  [2]{}: in 0x5a9-0x5ab.7 (3)
0x5a0|                           fd                  |         .      |                    prefix: 0xfd (valid) 0x5a9-0x5a9.7 (1)
0x5a0|                              f4 01            |          ..    |                    f64x2.min: 244 (valid) 0x5aa-0x5ab.7 (2)
     |                                               |                |                  [3]{}: in 0x5ac-0x5ac.7 (1)
0x5a0|                                    0b         |            .   |                    end: 0xb (valid) 0x5ac-0x5ac.7 (1)
     |                                               |                |            [15]{}: code 0x5ad-0x5c6.7 (26)
0x5a0|                                       19      |             .  |              size: 25 0x5ad-0x5ad.7 (1)
     |                                               |                |              code{}: 0x5ae-0x5c6.7 (25)
     |                                               |                |                t{}: 0x5ae-0x5ae.7 (1)
0x5a0|                                          00   |              . |                  n: 0 0x5ae-0x5ae.7 (1)
     |                                               |                |                  x[0:0]: 0x5af-NA (0)
     |                                               |                |                e[0:4]: 0x5af-0x5c6.7 (24)
     |                                               |                |                  [0]{}: in 0x5af-0x5c0.7 (18)
0x5a0|                                             fd|               .|                    prefix: 0xfd (valid) 0x5af-0x5af.7 (1)
0x5b0|0c                                             |.               |                    v128.const: 12 (valid) 0x5b0-0x5b0.7 (1)
0x5b0|   00 00 00 00 00 00 00 00 00 00 00 00 00 00 f0| ...............|                    bytes: raw bits 0x5b1-0x5c0.7 (16)
0x5c0|3f                                             |?               |
     |                                               |                |                  [1]{}: in 0x5c1-0x5c2.7 (2)
0x5c0|   20                                          |                |                    local.get: 0x20 (valid) 0x5c1-0x5c1.7 (1)
0x5c0|      00                                       |  .             |                    x: 0 0x5c2-0x5c2.7 (1)
     |                                               |                |                  [2]{}: in 0x5c3-0x5c5.7 (3)
0x5c0|         fd                                    |   .            |                    prefix: 0xfd (valid) 0x5c3-0x5c3.7 (1)
0x5c0|            f4 01                              |    ..          |                    f64x2.min: 244 (valid) 0x5c4-0x5c5.7 (2)
     |                                               |                |                  [3]{}: in 0x5c6-0x5c6.7 (1)
0x5c0|                  0b                           |      .         |                    end: 0xb (valid) 0x5c6-0x5c6.7 (1)
     |                                               |                |            [16]{}: code 0x5c7-0x5e0.7 (26)
0x5c0|                     19                        |       .        |              size: 25 0x5c7-0x5c7.7 (1)
     |                                               |                |              code{}: 0x5c8-0x5e0.7 (25)
     |                                               |                |                t{}: 0x5c8-0x5c8.7 (1)
0x5c0|                        00                     |        .       |                  n: 0 0x5c8-0x5c8.7 (1)
     |                                               |                |                  x[0:0]: 0x5c9-NA (0)
     |                                               |                |                e[0:4]: 0x5c9-0x5e0.7 (24)
     |                                               |                |                  [0]{}: in 0x5c9-0x5da.7 (18)
0x5c0|                           fd                  |         .      |                    prefix: 0xfd (valid) 0x5c9-0x5c9.7 (1)
0x5c0|                              0c               |          .     |                    v128.const: 12 (valid) 0x5ca-0x5ca.7 (1)
0x5c0|                                 00 00 00 00 00|           .....|                    bytes: raw bits 0x5cb-0x5da.7 (16)
0x5d0|00 00 40 00 00 00 00 00 00 e0 41               |..@.......A     |
     |                                               |                |                  [1]{}: in 0x5db-0x5dc.7 (2)
0x5d0|                                 20            |                |                    local.get: 0x20 (valid) 0x5db-0x5db.7 (1)
0x5d0|                                    00         |            .   |                    x: 0 0x5dc-0x5dc.7 (1)
     |                                               |                |                  [2]{}: in 0x5dd-0x5df.7 (3)
0x5d0|                                       fd      |             .  |                    prefix: 0xfd (valid) 0x5dd-0x5dd.7 (1)
0x5d0|                                          f4 01|              ..|                    f64x2.min: 244 (valid) 0x5de-0x5df.7 (2)
     |                                               |                |                  [3]{}: in 0x5e0-0x5e0.7 (1)
0x5e0|0b                                             |.               |                    end: 0xb (valid) 0x5e0-0x5e0.7 (1)
     |                                               |                |            [17]{}: code 0x5e1-0x5fa.7 (26)
0x5e0|   19                                          | .              |              size: 25 0x5e1-0x5e1.7 (1)
     |                                               |                |              code{}: 0x5e2-0x5fa.7 (25)
     |                                               |                |                t{}: 0x5e2-0x5e2.7 (1)
0x5e0|      00                                       |  .             |                  n: 0 0x5e2-0x5e2.7 (1)
     |                                               |                |                  x[0:0]: 0x5e3-NA (0)
     |                                               |                |                e[0:4]: 0x5e3-0x5fa.7 (24)
     |                                               |                |                  [0]{}: in 0x5e3-0x5f4.7 (18)
0x5e0|         fd                                    |   .            |                    prefix: 0xfd (valid) 0x5e3-0x5e3.7 (1)
0x5e0|            0c                                 |    .           |                    v128.const: 12 (valid) 0x5e4-0x5e4.7 (1)
0x5e0|               00 00 00 00 00 00 00 00 00 00 00|     ...........|                    bytes: raw bits 0x5e5-0x5f4.7 (16)
0x5f0|00 00 00 f0 3f                                 |....?           |
     |                                               |                |                  [1]{}: in 0x5f5-0x5f6.7 (2)
0x5f0|               20                              |                |                    local.get: 0x20 (valid) 0x5f5-0x5f5.7 (1)
0x5f0|                  00                           |      .         |                    x: 0 0x5f6-0x5f6.7 (1)
     |                                               |                |                  [2]{}: in 0x5f7-0x5f9.7 (3)
0x5f0|                     fd                        |       .        |                    prefix: 0xfd (valid) 0x5f7-0x5f7.7 (1)
0x5f0|                        f4 01                  |        ..      |                    f64x2.min: 244 (valid) 0x5f8-0x5f9.7 (2)
     |                                               |                |                  [3]{}: in 0x5fa-0x5fa.7 (1)
0x5f0|                              0b               |          .     |                    end: 0xb (valid) 0x5fa-0x5fa.7 (1)
     |                                               |                |            [18]{}: code 0x5fb-0x614.7 (26)
0x5f0|                                 19            |           .    |              size: 25 0x5fb-0x5fb.7 (1)
     |                                               |                |              code{}: 0x5fc-0x614.7 (25)
     |                                               |                |                t{}: 0x5fc-0x5fc.7 (1)
0x5f0|                                    00         |            .   |                  n: 0 0x5fc-0x5fc.7 (1)
     |                                               |                |                  x[0:0]: 0x5fd-NA (0)
     |                                               |                |                e[0:4]: 0x5fd-0x614.7 (24)
     |                                               |                |                  [0]{}: in 0x5fd-0x60e.7 (18)
0x5f0|                                       fd      |             .  |                    prefix: 0xfd (valid) 0x5fd-0x5fd.7 (1)
0x5f0|                                          0c   |              . |                    v128.const: 12 (valid) 0x5fe-0x5fe.7 (1)
0x5f0|                                             00|               .|                    bytes: raw bits 0x5ff-0x60e.7 (16)
0x600|00 00 00 00 00 00 40 00 00 00 00 00 00 e0 41   |......@.......A |
     |                                               |                |                  [1]{}: in 0x60f-0x610.7 (2)
0x600|                                             20|                |                    local.get: 0x20 (valid) 0x60f-0x60f.7 (1)
0x610|00                                             |.               |                    x: 0 0x610-0x610.7 (1)
     |                                               |                |                  [2]{}: in 0x611-0x613.7 (3)
0x610|   fd                                          | .              |                    prefix: 0xfd (valid) 0x611-0x611.7 (1)
0x610|      f4 01                                    |  ..            |                    f64x2.min: 244 (valid) 0x612-0x613.7 (2)
     |                                               |                |                  [3]{}: in 0x614-0x614.7 (1)
0x610|            0b                                 |    .           |                    end: 0xb (valid) 0x614-0x614.7 (1)
     |                                               |                |            [19]{}: code 0x615-0x63e.7 (42)
0x610|               29                              |     )          |              size: 41 0x615-0x615.7 (1)
     |                                               |                |              code{}: 0x616-0x63e.7 (41)
     |                                               |                |                t{}: 0x616-0x616.7 (1)
0x610|                  00                           |      .         |                  n: 0 0x616-0x616.7 (1)
     |                                               |                |                  x[0:0]: 0x617-NA (0)
     |                                               |                |                e[0:4]: 0x617-0x63e.7 (40)
     |                                               |                |                  [0]{}: in 0x617-0x628.7 (18)
0x610|                     fd                        |       .        |                    prefix: 0xfd (valid) 0x617-0x617.7 (1)
0x610|                        0c                     |        .       |                    v128.const: 12 (valid) 0x618-0x618.7 (1)
0x610|                           00 00 00 00 00 00 00|         .......|                    bytes: raw bits 0x619-0x628.7 (16)
0x620|00 00 00 00 00 00 00 f0 3f                     |........?       |
     |                                               |                |                  [1]{}: in 0x629-0x63a.7 (18)
0x620|                           fd                  |         .      |                    prefix: 0xfd (valid) 0x629-0x629.7 (1)
0x620|                              0c               |          .     |                    v128.const: 12 (valid) 0x62a-0x62a.7 (1)
0x620|                                 00 00 00 00 00|           .....|                    bytes: raw bits 0x62b-0x63a.7 (16)
0x630|00 00 00 00 00 00 00 00 00 00 40               |..........@     |
     |                                               |                |                  [2]{}: in 0x63b-0x63d.7 (3)
0x630|                                 fd            |           .    |                    prefix: 0xfd (valid) 0x63b-0x63b.7 (1)
0x630|                                    f5 01      |            ..  |                    f64x2.max: 245 (valid) 0x63c-0x63d.7 (2)
     |                                               |                |                  [3]{}: in 0x63e-0x63e.7 (1)
0x630|                                          0b   |              . |                    end: 0xb (valid) 0x63e-0x63e.7 (1)
     |                                               |                |            [20]{}: code 0x63f-0x668.7 (42)
0x630|                                             29|               )|              size: 41 0x63f-0x63f.7 (1)
     |                                               |                |              code{}: 0x640-0x668.7 (41)
     |                                               |                |                t{}: 0x640-0x640.7 (1)
0x640|00                                             |.               |                  n: 0 0x640-0x640.7 (1)
     |                                               |                |                  x[0:0]: 0x641-NA (0)
     |                                               |                |                e[0:4]: 0x641-0x668.7 (40)
     |                                               |                |                  [0]{}: in 0x641-0x652.7 (18)
0x640|   fd                                          | .              |                    prefix: 0xfd (valid) 0x641-0x641.7 (1)
0x640|      0c                                       |  .             |                    v128.const: 12 (valid) 0x642-0x642.7 (1)
0x640|         00 00 00 00 00 00 00 40 00 00 00 00 00|   .......@.....|                    bytes: raw bits 0x643-0x652.7 (16)
0x650|00 08 c0                                       |...             |
     |                                               |                |                  [1]{}: in 0x653-0x664.7 (18)
0x650|         fd                                    |   .            |                    prefix: 0xfd (valid) 0x653-0x653.7 (1)
0x650|            0c                                 |    .           |                    v128.const: 12 (valid) 0x654-0x654.7 (1)
0x650|               00 00 00 00 00 00 f0 3f 00 00 00|     .......?...|                    bytes: raw bits 0x655-0x664.7 (16)
0x660|00 00 00 08 40                                 |....@           |
     |                                               |                |                  [2]{}: in 0x665-0x667.7 (3)
0x660|               fd                              |     .          |                    prefix: 0xfd (valid) 0x665-0x665.7 (1)
0x660|                  f5 01                        |      ..        |                    f64x2.max: 245 (valid) 0x666-0x667.7 (2)
     |                                               |                |                  [3]{}: in 0x668-0x668.7 (1)
0x660|                        0b                     |        .       |                    end: 0xb (valid) 0x668-0x668.7 (1)
     |                                               |                |            [21]{}: code 0x669-0x692.7 (42)
0x660|                           29                  |         )      |              size: 41 0x669-0x669.7 (1)
     |                                               |                |              code{}: 0x66a-0x692.7 (41)
     |                                               |                |                t{}: 0x66a-0x66a.7 (1)
0x660|                              00               |          .     |                  n: 0 0x66a-0x66a.7 (1)
     |                                               |                |                  x[0:0]: 0x66b-NA (0)
     |                                               |                |                e[0:4]: 0x66b-0x692.7 (40)
     |                                               |                |                  [0]{}: in 0x66b-0x67c.7 (18)
0x660|                                 fd            |           .    |                    prefix: 0xfd (valid) 0x66b-0x66b.7 (1)
0x660|                                    0c         |            .   |                    v128.const: 12 (valid) 0x66c-0x66c.7 (1)
0x660|                                       00 00 00|             ...|                    bytes: raw bits 0x66d-0x67c.7 (16)
0x670|00 00 00 00 00 00 00 00 00 00 00 f0 3f         |............?   |
     |                                               |                |                  [1]{}: in 0x67d-0x68e.7 (18)
0x670|                                       fd      |             .  |                    prefix: 0xfd (valid) 0x67d-0x67d.7 (1)
0x670|                                          0c   |              . |                    v128.const: 12 (valid) 0x67e-0x67e.7 (1)
0x670|                                             00|               .|                    bytes: raw bits 0x67f-0x68e.7 (16)
0x680|00 00 00 00 00 00 00 00 00 00 00 00 00 f0 3f   |..............? |
     |                                               |                |                  [2]{}: in 0x68f-0x691.7 (3)
0x680|                                             fd|               .|                    prefix: 0xfd (valid) 0x68f-0x68f.7 (1)
0x690|f5 01                                          |..              |                    f64x2.max: 245 (valid) 0x690-0x691.7 (2)
     |                                               |                |                  [3]{}: in 0x692-0x692.7 (1)
0x690|      0b                                       |  .             |                    end: 0xb (valid) 0x692-0x692.7 (1)
     |                                               |                |            [22]{}: code 0x693-0x6bc.7 (42)
0x690|         29                                    |   )            |              size: 41 0x693-0x693.7 (1)
     |                                               |                |              code{}: 0x694-0x6bc.7 (41)
     |                                               |                |                t{}: 0x694-0x694.7 (1)
0x690|            00                                 |    .           |                  n: 0 0x694-0x694.7 (1)
     |                                               |                |                  x[0:0]: 0x695-NA (0)
     |                                               |                |                e[0:4]: 0x695-0x6bc.7 (40)
     |                                               |                |                  [0]{}: in 0x695-0x6a6.7 (18)
0x690|               fd                              |     .          |                    prefix: 0xfd (valid) 0x695-0x695.7 (1)
0x690|                  0c                           |      .         |                    v128.const: 12 (valid) 0x696-0x696.7 (1)
0x690|                     00 00 00 00 00 00 00 40 00|       .......@.|                    bytes: raw bits 0x697-0x6a6.7 (16)
0x6a0|00 00 00 00 00 08 40                           |......@         |
     |                                               |                |                  [1]{}: in 0x6a7-0x6b8.7 (18)
0x6a0|                     fd                        |       .        |                    prefix: 0xfd (valid) 0x6a7-0x6a7.7 (1)
0x6a0|                        0c                     |        .       |                    v128.const: 12 (valid) 0x6a8-0x6a8.7 (1)
0x6a0|                           00 00 00 00 00 00 00|         .......|                    bytes: raw bits 0x6a9-0x6b8.7 (16)
0x6b0|40 00 00 00 00 00 00 08 40                     |@.......@       |
     |                                               |                |                  [2]{}: in 0x6b9-0x6bb.7 (3)
0x6b0|                           fd                  |         .      |                    prefix: 0xfd (valid) 0x6b9-0x6b9.7 (1)
0x6b0|                              f5 01            |          ..    |                    f64x2.max: 245 (valid) 0x6ba-0x6bb.7 (2)
     |                                               |                |                  [3]{}: in 0x6bc-0x6bc.7 (1)
0x6b0|                                    0b         |            .   |                    end: 0xb (valid) 0x6bc-0x6bc.7 (1)
     |                                               |                |            [23]{}: code 0x6bd-0x6e6.7 (42)
0x6b0|                                       29      |             )  |              size: 41 0x6bd-0x6bd.7 (1)
     |                                               |                |              code{}: 0x6be-0x6e6.7 (41)
     |                                               |                |                t{}: 0x6be-0x6be.7 (1)
0x6b0|                                          00   |              . |                  n: 0 0x6be-0x6be.7 (1)
     |                                               |                |                  x[0:0]: 0x6bf-NA (0)
     |                                               |                |                e[0:4]: 0x6bf-0x6e6.7 (40)
     |                                               |                |                  [0]{}: in 0x6bf-0x6d0.7 (18)
0x6b0|                                             fd|               .|                    prefix: 0xfd (valid) 0x6bf-0x6bf.7 (1)
0x6c0|0c                                             |.               |                    v128.const: 12 (valid) 0x6c0-0x6c0.7 (1)
0x6c0|   00 00 00 00 00 00 00 00 00 00 00 00 00 00 f0| ...............|                    bytes: raw bits 0x6c1-0x6d0.7 (16)
0x6d0|3f                                             |?               |
     |                                               |                |                  [1]{}: in 0x6d1-0x6e2.7 (18)
0x6d0|   fd                                          | .              |                    prefix: 0xfd (valid) 0x6d1-0x6d1.7 (1)
0x6d0|      0c                                       |  .             |                    v128.const: 12 (valid) 0x6d2-0x6d2.7 (1)
0x6d0|         00 00 00 00 00 00 00 00 00 00 00 00 00|   .............|                    bytes: raw bits 0x6d3-0x6e2.7 (16)
0x6e0|00 00 40                                       |..@             |
     |                                               |                |                  [2]{}: in 0x6e3-0x6e5.7 (3)
0x6e0|         fd                                    |   .            |                    prefix: 0xfd (valid) 0x6e3-0x6e3.7 (1)
0x6e0|            f5 01                              |    ..          |                    f64x2.max: 245 (valid) 0x6e4-0x6e5.7 (2)
     |                                               |                |                  [3]{}: in 0x6e6-0x6e6.7 (1)
0x6e0|                  0b                           |      .         |                    end: 0xb (valid) 0x6e6-0x6e6.7 (1)
     |                                               |                |            [24]{}: code 0x6e7-0x710.7 (42)
0x6e0|                     29                        |       )        |              size: 41 0x6e7-0x6e7.7 (1)
     |                                               |                |              code{}: 0x6e8-0x710.7 (41)
     |                                               |                |                t{}: 0x6e8-0x6e8.7 (1)
0x6e0|                        00                     |        .       |                  n: 0 0x6e8-0x6e8.7 (1)
     |                                               |                |                  x[0:0]: 0x6e9-NA (0)
     |                                               |                |                e[0:4]: 0x6e9-0x710.7 (40)
     |                                               |                |                  [0]{}: in 0x6e9-0x6fa.7 (18)
0x6e0|                           fd                  |         .      |                    prefix: 0xfd (valid) 0x6e9-0x6e9.7 (1)
0x6e0|                              0c               |          .     |                    v128.const: 12 (valid) 0x6ea-0x6ea.7 (1)
0x6e0|                                 00 00 00 00 00|           .....|                    bytes: raw bits 0x6eb-0x6fa.7 (16)
0x6f0|00 00 40 00 00 00 00 00 00 e0 41               |..@.......A     |
     |                                               |                |                  [1]{}: in 0x6fb-0x70c.7 (18)
0x6f0|                                 fd            |           .    |                    prefix: 0xfd (valid) 0x6fb-0x6fb.7 (1)
0x6f0|                                    0c         |            .   |                    v128.const: 12 (valid) 0x6fc-0x6fc.7 (1)
0x6f0|                                       00 00 00|             ...|                    bytes: raw bits 0x6fd-0x70c.7 (16)
0x700|00 00 00 f0 3f 00 00 00 00 00 00 e0 41         |....?.......A   |
     |                                               |                |                  [2]{}: in 0x70d-0x70f.7 (3)
0x700|                                       fd      |             .  |                    prefix: 0xfd (valid) 0x70d-0x70d.7 (1)
0x700|                                          f5 01|              ..|                    f64x2.max: 245 (valid) 0x70e-0x70f.7 (2)
     |                                               |                |                  [3]{}: in 0x710-0x710.7 (1)
0x710|0b                                             |.               |                    end: 0xb (valid) 0x710-0x710.7 (1)
     |                                               |                |            [25]{}: code 0x711-0x73a.7 (42)
0x710|   29                                          | )              |              size: 41 0x711-0x711.7 (1)
     |                                               |                |              code{}: 0x712-0x73a.7 (41)
     |                                               |                |                t{}: 0x712-0x712.7 (1)
0x710|      00                                       |  .             |                  n: 0 0x712-0x712.7 (1)
     |                                               |                |                  x[0:0]: 0x713-NA (0)
     |                                               |                |                e[0:4]: 0x713-0x73a.7 (40)
     |                                               |                |                  [0]{}: in 0x713-0x724.7 (18)
0x710|         fd                                    |   .            |                    prefix: 0xfd (valid) 0x713-0x713.7 (1)
0x710|            0c                                 |    .           |                    v128.const: 12 (valid) 0x714-0x714.7 (1)
0x710|               00 00 00 00 00 00 00 00 00 00 00|     ...........|                    bytes: raw bits 0x715-0x724.7 (16)
0x720|00 00 00 f0 3f                                 |....?           |
     |                                               |                |                  [1]{}: in 0x725-0x736.7 (18)
0x720|               fd                              |     .          |                    prefix: 0xfd (valid) 0x725-0x725.7 (1)
0x720|                  0c                           |      .         |                    v128.const: 12 (valid) 0x726-0x726.7 (1)
0x720|                     00 00 00 00 00 00 00 00 00|       .........|                    bytes: raw bits 0x727-0x736.7 (16)
0x730|00 00 00 00 00 f0 3f                           |......?         |
     |                                               |                |                  [2]{}: in 0x737-0x739.7 (3)
0x730|                     fd                        |       .        |                    prefix: 0xfd (valid) 0x737-0x737.7 (1)
0x730|                        f5 01                  |        ..      |                    f64x2.max: 245 (valid) 0x738-0x739.7 (2)
     |                                               |                |                  [3]{}: in 0x73a-0x73a.7 (1)
0x730|                              0b               |          .     |                    end: 0xb (valid) 0x73a-0x73a.7 (1)
     |                                               |                |            [26]{}: code 0x73b-0x764.7 (42)
0x730|                                 29            |           )    |              size: 41 0x73b-0x73b.7 (1)
     |                                               |                |              code{}: 0x73c-0x764.7 (41)
     |                                               |                |                t{}: 0x73c-0x73c.7 (1)
0x730|                                    00         |            .   |                  n: 0 0x73c-0x73c.7 (1)
     |                                               |                |                  x[0:0]: 0x73d-NA (0)
     |                                               |                |                e[0:4]: 0x73d-0x764.7 (40)
     |                                               |                |                  [0]{}: in 0x73d-0x74e.7 (18)
0x730|                                       fd      |             .  |                    prefix: 0xfd (valid) 0x73d-0x73d.7 (1)
0x730|                                          0c   |              . |                    v128.const: 12 (valid) 0x73e-0x73e.7 (1)
0x730|                                             00|               .|                    bytes: raw bits 0x73f-0x74e.7 (16)
0x740|00 00 00 00 00 00 40 00 00 00 00 00 00 e0 41   |......@.......A |
     |                                               |                |                  [1]{}: in 0x74f-0x760.7 (18)
0x740|                                             fd|               .|                    prefix: 0xfd (valid) 0x74f-0x74f.7 (1)
0x750|0c                                             |.               |                    v128.const: 12 (valid) 0x750-0x750.7 (1)
0x750|   00 00 00 00 00 00 00 40 00 00 00 00 00 00 e0| .......@.......|                    bytes: raw bits 0x751-0x760.7 (16)
0x760|41                                             |A               |
     |                                               |                |                  [2]{}: in 0x761-0x763.7 (3)
0x760|   fd                                          | .              |                    prefix: 0xfd (valid) 0x761-0x761.7 (1)
0x760|      f5 01                                    |  ..            |                    f64x2.max: 245 (valid) 0x762-0x763.7 (2)
     |                                               |                |                  [3]{}: in 0x764-0x764.7 (1)
0x760|            0b                                 |    .           |                    end: 0xb (valid) 0x764-0x764.7 (1)
     |                                               |                |            [27]{}: code 0x765-0x77e.7 (26)
0x760|               19                              |     .          |              size: 25 0x765-0x765.7 (1)
     |                                               |                |              code{}: 0x766-0x77e.7 (25)
     |                                               |                |                t{}: 0x766-0x766.7 (1)
0x760|                  00                           |      .         |                  n: 0 0x766-0x766.7 (1)
     |                                               |                |                  x[0:0]: 0x767-NA (0)
     |                                               |                |                e[0:4]: 0x767-0x77e.7 (24)
     |                                               |                |                  [0]{}: in 0x767-0x768.7 (2)
0x760|                     20                        |                |                    local.get: 0x20 (valid) 0x767-0x767.7 (1)
0x760|                        00                     |        .       |                    x: 0 0x768-0x768.7 (1)
     |                                               |                |                  [1]{}: in 0x769-0x77a.7 (18)
0x760|                           fd                  |         .      |                    prefix: 0xfd (valid) 0x769-0x769.7 (1)
0x760|                              0c               |          .     |                    v128.const: 12 (valid) 0x76a-0x76a.7 (1)
0x760|                                 00 00 00 00 00|           .....|                    bytes: raw bits 0x76b-0x77a.7 (16)
0x770|00 00 00 00 00 00 00 00 00 f0 3f               |..........?     |
     |                                               |                |                  [2]{}: in 0x77b-0x77d.7 (3)
0x770|                                 fd            |           .    |                    prefix: 0xfd (valid) 0x77b-0x77b.7 (1)
0x770|                                    f5 01      |            ..  |                    f64x2.max: 245 (valid) 0x77c-0x77d.7 (2)
     |                                               |                |                  [3]{}: in 0x77e-0x77e.7 (1)
0x770|                                          0b   |              . |                    end: 0xb (valid) 0x77e-0x77e.7 (1)
     |                                               |                |            [28]{}: code 0x77f-0x798.7 (26)
0x770|                                             19|               .|              size: 25 0x77f-0x77f.7 (1)
     |                                               |                |              code{}: 0x780-0x798.7 (25)
     |                                               |                |                t{}: 0x780-0x780.7 (1)
0x780|00                                             |.               |                  n: 0 0x780-0x780.7 (1)
     |                                               |                |                  x[0:0]: 0x781-NA (0)
     |                                               |                |                e[0:4]: 0x781-0x798.7 (24)
     |                                               |                |                  [0]{}: in 0x781-0x792.7 (18)
0x780|   fd                                          | .              |                    prefix: 0xfd (valid) 0x781-0x781.7 (1)
0x780|      0c                                       |  .             |                    v128.const: 12 (valid) 0x782-0x782.7 (1)
0x780|         00 00 00 00 00 00 00 40 00 00 00 00 00|   .......@.....|                    bytes: raw bits 0x783-0x792.7 (16)
0x790|00 08 c0                                       |...             |
     |                                               |                |                  [1]{}: in 0x793-0x794.7 (2)
0x790|         20                                    |                |                    local.get: 0x20 (valid) 0x793-0x793.7 (1)
0x790|            00                                 |    .           |                    x: 0 0x794-0x794.7 (1)
     |                                               |                |                  [2]{}: in 0x795-0x797.7 (3)
0x790|               fd                              |     .          |                    prefix: 0xfd (valid) 0x795-0x795.7 (1)
0x790|                  f5 01                        |      ..        |                    f64x2.max: 245 (valid) 0x796-0x797.7 (2)
     |                                               |                |                  [3]{}: in 0x798-0x798.7 (1)
0x790|                        0b                     |        .       |                    end: 0xb (valid) 0x798-0x798.7 (1)
     |                                               |                |            [29]{}: code 0x799-0x7b2.7 (26)
0x790|                           19                  |         .      |              size: 25 0x799-0x799.7 (1)
     |                                               |                |              code{}: 0x79a-0x7b2.7 (25)
     |                                               |                |                t{}: 0x79a-0x79a.7 (1)
0x790|                              00               |          .     |                  n: 0 0x79a-0x79a.7 (1)
     |                                               |                |                  x[0:0]: 0x79b-NA (0)
     |                                               |                |                e[0:4]: 0x79b-0x7b2.7 (24)
     |                                               |                |                  [0]{}: in 0x79b-0x7ac.7 (18)
0x790|                                 fd            |           .    |                    prefix: 0xfd (valid) 0x79b-0x79b.7 (1)
0x790|                                    0c         |            .   |                    v128.const: 12 (valid) 0x79c-0x79c.7 (1)
0x790|                                       00 00 00|             ...|                    bytes: raw bits 0x79d-0x7ac.7 (16)
0x7a0|00 00 00 00 00 00 00 00 00 00 00 f0 3f         |............?   |
     |                                               |                |                  [1]{}: in 0x7ad-0x7ae.7 (2)
0x7a0|                                       20      |                |                    local.get: 0x20 (valid) 0x7ad-0x7ad.7 (1)
0x7a0|                                          00   |              . |                    x: 0 0x7ae-0x7ae.7 (1)
     |                                               |                |                  [2]{}: in 0x7af-0x7b1.7 (3)
0x7a0|                                             fd|               .|                    prefix: 0xfd (valid) 0x7af-0x7af.7 (1)
0x7b0|f5 01                                          |..              |                    f64x2.max: 245 (valid) 0x7b0-0x7b1.7 (2)
     |                                               |                |                  [3]{}: in 0x7b2-0x7b2.7 (1)
0x7b0|      0b                                       |  .             |                    end: 0xb (valid) 0x7b2-0x7b2.7 (1)
     |                                               |                |            [30]{}: code 0x7b3-0x7cc.7 (26)
0x7b0|         19                                    |   .            |              size: 25 0x7b3-0x7b3.7 (1)
     |                                               |                |              code{}: 0x7b4-0x7cc.7 (25)
     |                                               |                |                t{}: 0x7b4-0x7b4.7 (1)
0x7b0|            00                                 |    .           |                  n: 0 0x7b4-0x7b4.7 (1)
     |                                               |                |                  x[0:0]: 0x7b5-NA (0)
     |                                               |                |                e[0:4]: 0x7b5-0x7cc.7 (24)
     |                                               |                |                  [0]{}: in 0x7b5-0x7b6.7 (2)
0x7b0|               20                              |                |                    local.get: 0x20 (valid) 0x7b5-0x7b5.7 (1)
0x7b0|                  00                           |      .         |                    x: 0 0x7b6-0x7b6.7 (1)
     |                                               |                |                  [1]{}: in 0x7b7-0x7c8.7 (18)
0x7b0|                     fd                        |       .        |                    prefix: 0xfd (valid) 0x7b7-0x7b7.7 (1)
0x7b0|                        0c                     |        .       |                    v128.const: 12 (valid) 0x7b8-0x7b8.7 (1)
0x7b0|                           00 00 00 00 00 00 00|         .......|                    bytes: raw bits 0x7b9-0x7c8.7 (16)
0x7c0|40 00 00 00 00 00 00 08 40                     |@.......@       |
     |                                               |                |                  [2]{}: in 0x7c9-0x7cb.7 (3)
0x7c0|                           fd                  |         .      |                    prefix: 0xfd (valid) 0x7c9-0x7c9.7 (1)
0x7c0|                              f5 01            |          ..    |                    f64x2.max: 245 (valid) 0x7ca-0x7cb.7 (2)
     |                                               |                |                  [3]{}: in 0x7cc-0x7cc.7 (1)
0x7c0|                                    0b         |            .   |                    end: 0xb (valid) 0x7cc-0x7cc.7 (1)
     |                                               |                |            [31]{}: code 0x7cd-0x7e6.7 (26)
0x7c0|                                       19      |             .  |              size: 25 0x7cd-0x7cd.7 (1)
     |                                               |                |              code{}: 0x7ce-0x7e6.7 (25)
     |                                               |                |                t{}: 0x7ce-0x7ce.7 (1)
0x7c0|                                          00   |              . |                  n: 0 0x7ce-0x7ce.7 (1)
     |                                               |                |                  x[0:0]: 0x7cf-NA (0)
     |                                               |                |                e[0:4]: 0x7cf-0x7e6.7 (24)
     |                                               |                |                  [0]{}: in 0x7cf-0x7e0.7 (18)
0x7c0|                                             fd|               .|                    prefix: 0xfd (valid) 0x7cf-0x7cf.7 (1)
0x7d0|0c                                             |.               |                    v128.const: 12 (valid) 0x7d0-0x7d0.7 (1)
0x7d0|   00 00 00 00 00 00 00 00 00 00 00 00 00 00 f0| ...............|                    bytes: raw bits 0x7d1-0x7e0.7 (16)
0x7e0|3f                                             |?               |
     |                                               |                |                  [1]{}: in 0x7e1-0x7e2.7 (2)
0x7e0|   20                                          |                |                    local.get: 0x20 (valid) 0x7e1-0x7e1.7 (1)
0x7e0|      00                                       |  .             |                    x: 0 0x7e2-0x7e2.7 (1)
     |                                               |                |                  [2]{}: in 0x7e3-0x7e5.7 (3)
0x7e0|         fd                                    |   .            |                    prefix: 0xfd (valid) 0x7e3-0x7e3.7 (1)
0x7e0|            f5 01                              |    ..          |                    f64x2.max: 245 (valid) 0x7e4-0x7e5.7 (2)
     |                                               |                |                  [3]{}: in 0x7e6-0x7e6.7 (1)
0x7e0|                  0b                           |      .         |                    end: 0xb (valid) 0x7e6-0x7e6.7 (1)
     |                                               |                |            [32]{}: code 0x7e7-0x800.7 (26)
0x7e0|                     19                        |       .        |              size: 25 0x7e7-0x7e7.7 (1)
     |                                               |                |              code{}: 0x7e8-0x800.7 (25)
     |                                               |                |                t{}: 0x7e8-0x7e8.7 (1)
0x7e0|                        00                     |        .       |                  n: 0 0x7e8-0x7e8.7 (1)
     |                                               |                |                  x[0:0]: 0x7e9-NA (0)
     |                                               |                |                e[0:4]: 0x7e9-0x800.7 (24)
     |                                               |                |                  [0]{}: in 0x7e9-0x7fa.7 (18)
0x7e0|                           fd                  |         .      |                    prefix: 0xfd (valid) 0x7e9-0x7e9.7 (1)
0x7e0|                              0c               |          .     |                    v128.const: 12 (valid) 0x7ea-0x7ea.7 (1)
0x7e0|                                 00 00 00 00 00|           .....|                    bytes: raw bits 0x7eb-0x7fa.7 (16)
0x7f0|00 00 40 00 00 00 00 00 00 e0 41               |..@.......A     |
     |                                               |                |                  [1]{}: in 0x7fb-0x7fc.7 (2)
0x7f0|                                 20            |                |                    local.get: 0x20 (valid) 0x7fb-0x7fb.7 (1)
0x7f0|                                    00         |            .   |                    x: 0 0x7fc-0x7fc.7 (1)
     |                                               |                |                  [2]{}: in 0x7fd-0x7ff.7 (3)
0x7f0|                                       fd      |             .  |                    prefix: 0xfd (valid) 0x7fd-0x7fd.7 (1)
0x7f0|                                          f5 01|              ..|                    f64x2.max: 245 (valid) 0x7fe-0x7ff.7 (2)
     |                                               |                |                  [3]{}: in 0x800-0x800.7 (1)
0x800|0b                                             |.               |                    end: 0xb (valid) 0x800-0x800.7 (1)
     |                                               |                |            [33]{}: code 0x801-0x81a.7 (26)
0x800|   19                                          | .              |              size: 25 0x801-0x801.7 (1)
     |                                               |                |              code{}: 0x802-0x81a.7 (25)
     |                                               |                |                t{}: 0x802-0x802.7 (1)
0x800|      00                                       |  .             |                  n: 0 0x802-0x802.7 (1)
     |                                               |                |                  x[0:0]: 0x803-NA (0)
     |                                               |                |                e[0:4]: 0x803-0x81a.7 (24)
     |                                               |                |                  [0]{}: in 0x803-0x814.7 (18)
0x800|         fd                                    |   .            |                    prefix: 0xfd (valid) 0x803-0x803.7 (1)
0x800|            0c                                 |    .           |                    v128.const: 12 (valid) 0x804-0x804.7 (1)
0x800|               00 00 00 00 00 00 00 00 00 00 00|     ...........|                    bytes: raw bits 0x805-0x814.7 (16)
0x810|00 00 00 f0 3f                                 |....?           |
     |                                               |                |                  [1]{}: in 0x815-0x816.7 (2)
0x810|               20                              |                |                    local.get: 0x20 (valid) 0x815-0x815.7 (1)
0x810|                  00                           |      .         |                    x: 0 0x816-0x816.7 (1)
     |                                               |                |                  [2]{}: in 0x817-0x819.7 (3)
0x810|                     fd                        |       .        |                    prefix: 0xfd (valid) 0x817-0x817.7 (1)
0x810|                        f5 01                  |        ..      |                    f64x2.max: 245 (valid) 0x818-0x819.7 (2)
     |                                               |                |                  [3]{}: in 0x81a-0x81a.7 (1)
0x810|                              0b               |          .     |                    end: 0xb (valid) 0x81a-0x81a.7 (1)
     |                                               |                |            [34]{}: code 0x81b-0x834.7 (26)
0x810|                                 19            |           .    |              size: 25 0x81b-0x81b.7 (1)
     |                                               |                |              code{}: 0x81c-0x834.7 (25)
     |                                               |                |                t{}: 0x81c-0x81c.7 (1)
0x810|                                    00         |            .   |                  n: 0 0x81c-0x81c.7 (1)
     |                                               |                |                  x[0:0]: 0x81d-NA (0)
     |                                               |                |                e[0:4]: 0x81d-0x834.7 (24)
     |                                               |                |                  [0]{}: in 0x81d-0x82e.7 (18)
0x810|                                       fd      |             .  |                    prefix: 0xfd (valid) 0x81d-0x81d.7 (1)
0x810|                                          0c   |              . |                    v128.const: 12 (valid) 0x81e-0x81e.7 (1)
0x810|                                             00|               .|                    bytes: raw bits 0x81f-0x82e.7 (16)
0x820|00 00 00 00 00 00 40 00 00 00 00 00 00 e0 41   |......@.......A |
     |                                               |                |                  [1]{}: in 0x82f-0x830.7 (2)
0x820|                                             20|                |                    local.get: 0x20 (valid) 0x82f-0x82f.7 (1)
0x830|00                                             |.               |                    x: 0 0x830-0x830.7 (1)
     |                                               |                |                  [2]{}: in 0x831-0x833.7 (3)
0x830|   fd                                          | .              |                    prefix: 0xfd (valid) 0x831-0x831.7 (1)
0x830|      f5 01                                    |  ..            |                    f64x2.max: 245 (valid) 0x832-0x833.7 (2)
     |                                               |                |                  [3]{}: in 0x834-0x834.7 (1)
0x830|            0b                                 |    .           |                    end: 0xb (valid) 0x834-0x834.7 (1)
     |                                               |                |            [35]{}: code 0x835-0x84c.7 (24)
0x830|               17                              |     .          |              size: 23 0x835-0x835.7 (1)
     |                                               |                |              code{}: 0x836-0x84c.7 (23)
     |                                               |                |                t{}: 0x836-0x836.7 (1)
0x830|                  00                           |      .         |                  n: 0 0x836-0x836.7 (1)
     |                                               |                |                  x[0:0]: 0x837-NA (0)
     |                                               |                |                e[0:3]: 0x837-0x84c.7 (22)
     |                                               |                |                  [0]{}: in 0x837-0x848.7 (18)
0x830|                     fd                        |       .        |                    prefix: 0xfd (valid) 0x837-0x837.7 (1)
0x830|                        0c                     |        .       |                    v128.const: 12 (valid) 0x838-0x838.7 (1)
0x830|                           00 00 00 00 00 00 00|         .......|                    bytes: raw bits 0x839-0x848.7 (16)
0x840|80 00 00 00 00 00 00 f0 bf                     |.........       |
     |                                               |                |                  [1]{}: in 0x849-0x84b.7 (3)
0x840|                           fd                  |         .      |                    prefix: 0xfd (valid) 0x849-0x849.7 (1)
0x840|                              ec 01            |          ..    |                    f64x2.abs: 236 (valid) 0x84a-0x84b.7 (2)
     |                                               |                |                  [2]{}: in 0x84c-0x84c.7 (1)
0x840|                                    0b         |            .   |                    end: 0xb (valid) 0x84c-0x84c.7 (1)
     |                                               |                |            [36]{}: code 0x84d-0x864.7 (24)
0x840|                                       17      |             .  |              size: 23 0x84d-0x84d.7 (1)
     |                                               |                |              code{}: 0x84e-0x864.7 (23)
     |                                               |                |                t{}: 0x84e-0x84e.7 (1)
0x840|                                          00   |              . |                  n: 0 0x84e-0x84e.7 (1)
     |                                               |                |                  x[0:0]: 0x84f-NA (0)
     |                                               |                |                e[0:3]: 0x84f-0x864.7 (22)
     |                                               |                |                  [0]{}: in 0x84f-0x860.7 (18)
0x840|                                             fd|               .|                    prefix: 0xfd (valid) 0x84f-0x84f.7 (1)
0x850|0c                                             |.               |                    v128.const: 12 (valid) 0x850-0x850.7 (1)
0x850|   00 00 00 00 00 00 00 c0 00 00 00 00 00 00 08| ...............|                    bytes: raw bits 0x851-0x860.7 (16)
0x860|c0                                             |.               |
     |                                               |                |                  [1]{}: in 0x861-0x863.7 (3)
0x860|   fd                                          | .              |                    prefix: 0xfd (valid) 0x861-0x861.7 (1)
0x860|      ec 01                                    |  ..            |                    f64x2.abs: 236 (valid) 0x862-0x863.7 (2)
     |                                               |                |                  [2]{}: in 0x864-0x864.7 (1)
0x860|            0b|                                |    .|          |                    end: 0xb (valid) 0x864-0x864.7 (1)
