$ fq -d wasm dv simd_i64x2_arith2-0.wasm
    |00 01 02 03 04 05 06 07 08 09 0a 0b 0c 0d 0e 0f|0123456789abcdef|.{}: simd_i64x2_arith2-0.wasm (wasm) 0x0-0x64 (100)
0x00|00 61 73 6d                                    |.asm            |  magic: raw bits (valid) 0x0-0x4 (4)
0x00|            01 00 00 00                        |    ....        |  version: 1 0x4-0x8 (4)
    |                                               |                |  sections[0:4]: 0x8-0x64 (92)
    |                                               |                |    [0]{}: section 0x8-0x14 (12)
0x00|                        01                     |        .       |      id: "type_section" (1) 0x8-0x9 (1)
0x00|                           0a                  |         .      |      size: 10 (valid) 0x9-0xa (1)
    |                                               |                |      content{}: 0xa-0x14 (10)
    |                                               |                |        ft{}: 0xa-0x14 (10)
0x00|                              02               |          .     |          n: 2 (valid) 0xa-0xb (1)
    |                                               |                |          x[0:2]: 0xb-0x14 (9)
    |                                               |                |            [0]{}: ft 0xb-0x10 (5)
0x00|                                 60            |           `    |              tag: 0x60 (valid) 0xb-0xc (1)
    |                                               |                |              rt1{}: 0xc-0xe (2)
0x00|                                    01         |            .   |                n: 1 (valid) 0xc-0xd (1)
    |                                               |                |                x[0:1]: 0xd-0xe (1)
0x00|                                       7b      |             {  |                  [0]: "v128" (0x7b) t 0xd-0xe (1)
    |                                               |                |              rt2{}: 0xe-0x10 (2)
0x00|                                          01   |              . |                n: 1 (valid) 0xe-0xf (1)
    |                                               |                |                x[0:1]: 0xf-0x10 (1)
0x00|                                             7b|               {|                  [0]: "v128" (0x7b) t 0xf-0x10 (1)
    |                                               |                |            [1]{}: ft 0x10-0x14 (4)
0x10|60                                             |`               |              tag: 0x60 (valid) 0x10-0x11 (1)
    |                                               |                |              rt1{}: 0x11-0x12 (1)
0x10|   00                                          | .              |                n: 0 (valid) 0x11-0x12 (1)
    |                                               |                |                x[0:0]: 0x12-0x12 (0)
    |                                               |                |              rt2{}: 0x12-0x14 (2)
0x10|      01                                       |  .             |                n: 1 (valid) 0x12-0x13 (1)
    |                                               |                |                x[0:1]: 0x13-0x14 (1)
0x10|         7b                                    |   {            |                  [0]: "v128" (0x7b) t 0x13-0x14 (1)
    |                                               |                |    [1]{}: section 0x14-0x19 (5)
0x10|            03                                 |    .           |      id: "function_section" (3) 0x14-0x15 (1)
0x10|               03                              |     .          |      size: 3 (valid) 0x15-0x16 (1)
    |                                               |                |      content{}: 0x16-0x19 (3)
    |                                               |                |        x{}: 0x16-0x19 (3)
0x10|                  02                           |      .         |          n: 2 (valid) 0x16-0x17 (1)
    |                                               |                |          x[0:2]: 0x17-0x19 (2)
0x10|                     00                        |       .        |            [0]: 0 x (valid) 0x17-0x18 (1)
0x10|                        01                     |        .       |            [1]: 1 x (valid) 0x18-0x19 (1)
    |                                               |                |    [2]{}: section 0x19-0x41 (40)
0x10|                           07                  |         .      |      id: "export_section" (7) 0x19-0x1a (1)
0x10|                              26               |          &     |      size: 38 (valid) 0x1a-0x1b (1)
    |                                               |                |      content{}: 0x1b-0x41 (38)
    |                                               |                |        ex{}: 0x1b-0x41 (38)
0x10|                                 02            |           .    |          n: 2 (valid) 0x1b-0x1c (1)
    |                                               |                |          x[0:2]: 0x1c-0x41 (37)
    |                                               |                |            [0]{}: ex 0x1c-0x28 (12)
    |                                               |                |              nm{}: 0x1c-0x26 (10)
0x10|                                    09         |            .   |                n: 9 (valid) 0x1c-0x1d (1)
0x10|                                       69 36 34|             i64|                b: "i64x2.abs" 0x1d-0x26 (9)
0x20|78 32 2e 61 62 73                              |x2.abs          |
    |                                               |                |              d{}: 0x26-0x28 (2)
0x20|                  00                           |      .         |                tag: "funcidx" (0x0) 0x26-0x27 (1)
0x20|                     00                        |       .        |                x: 0 (valid) 0x27-0x28 (1)
    |                                               |                |            [1]{}: ex 0x28-0x41 (25)
    |                                               |                |              nm{}: 0x28-0x3f (23)
0x20|                        16                     |        .       |                n: 22 (valid) 0x28-0x29 (1)
0x20|                           69 36 34 78 32 2e 61|         i64x2.a|                b: "i64x2.abs_with_const_0" 0x29-0x3f (22)
0x30|62 73 5f 77 69 74 68 5f 63 6f 6e 73 74 5f 30   |bs_with_const_0 |
    |                                               |                |              d{}: 0x3f-0x41 (2)
0x30|                                             00|               .|                tag: "funcidx" (0x0) 0x3f-0x40 (1)
0x40|01                                             |.               |                x: 1 (valid) 0x40-0x41 (1)
    |                                               |                |    [3]{}: section 0x41-0x64 (35)
0x40|   0a                                          | .              |      id: "code_section" (10) 0x41-0x42 (1)
0x40|      21                                       |  !             |      size: 33 (valid) 0x42-0x43 (1)
    |                                               |                |      content{}: 0x43-0x64 (33)
    |                                               |                |        code{}: 0x43-0x64 (33)
0x40|         02                                    |   .            |          n: 2 (valid) 0x43-0x44 (1)
    |                                               |                |          x[0:2]: 0x44-0x64 (32)
    |                                               |                |            [0]{}: code 0x44-0x4c (8)
0x40|            07                                 |    .           |              size: 7 (valid) 0x44-0x45 (1)
    |                                               |                |              code{}: 0x45-0x4c (7)
    |                                               |                |                t{}: 0x45-0x46 (1)
0x40|               00                              |     .          |                  n: 0 (valid) 0x45-0x46 (1)
    |                                               |                |                  x[0:0]: 0x46-0x46 (0)
    |                                               |                |                e[0:3]: 0x46-0x4c (6)
    |                                               |                |                  [0]{}: in 0x46-0x48 (2)
0x40|                  20                           |                |                    opcode: "local.get" (0x20) 0x46-0x47 (1)
0x40|                     00                        |       .        |                    x: 0 (valid) 0x47-0x48 (1)
    |                                               |                |                  [1]{}: in 0x48-0x4b (3)
0x40|                        fd                     |        .       |                    opcode: "vector" (0xfd) 0x48-0x49 (1)
0x40|                           c0 01               |         ..     |                    v_opcode: "i64x2.abs" (192) 0x49-0x4b (2)
    |                                               |                |                  [2]{}: in 0x4b-0x4c (1)
0x40|                                 0b            |           .    |                    opcode: "end" (0xb) 0x4b-0x4c (1)
    |                                               |                |            [1]{}: code 0x4c-0x64 (24)
0x40|                                    17         |            .   |              size: 23 (valid) 0x4c-0x4d (1)
    |                                               |                |              code{}: 0x4d-0x64 (23)
    |                                               |                |                t{}: 0x4d-0x4e (1)
0x40|                                       00      |             .  |                  n: 0 (valid) 0x4d-0x4e (1)
    |                                               |                |                  x[0:0]: 0x4e-0x4e (0)
    |                                               |                |                e[0:3]: 0x4e-0x64 (22)
    |                                               |                |                  [0]{}: in 0x4e-0x60 (18)
0x40|                                          fd   |              . |                    opcode: "vector" (0xfd) 0x4e-0x4f (1)
0x40|                                             0c|               .|                    v_opcode: "v128.const" (12) 0x4f-0x50 (1)
0x50|00 00 00 00 00 00 00 80 ff ff ff ff ff ff ff 7f|................|                    bytes: raw bits 0x50-0x60 (16)
    |                                               |                |                  [1]{}: in 0x60-0x63 (3)
0x60|fd                                             |.               |                    opcode: "vector" (0xfd) 0x60-0x61 (1)
0x60|   c0 01                                       | ..             |                    v_opcode: "i64x2.abs" (192) 0x61-0x63 (2)
    |                                               |                |                  [2]{}: in 0x63-0x64 (1)
0x60|         0b|                                   |   .|           |                    opcode: "end" (0xb) 0x63-0x64 (1)
