$ fq -d wasm dv simd_i8x16_arith-0.wasm
    |00 01 02 03 04 05 06 07 08 09 0a 0b 0c 0d 0e 0f|0123456789abcdef|.{}: simd_i8x16_arith-0.wasm (wasm) 0x0-0x5e.7 (95)
0x00|00 61 73 6d                                    |.asm            |  magic: raw bits (valid) 0x0-0x3.7 (4)
0x00|            01 00 00 00                        |    ....        |  version: 1 0x4-0x7.7 (4)
    |                                               |                |  sections[0:4]: 0x8-0x5e.7 (87)
    |                                               |                |    [0]{}: section 0x8-0x15.7 (14)
0x00|                        01                     |        .       |      id: "type section" (1) 0x8-0x8.7 (1)
0x00|                           0c                  |         .      |      size: 12 0x9-0x9.7 (1)
    |                                               |                |      content{}: 0xa-0x15.7 (12)
    |                                               |                |        ft{}: 0xa-0x15.7 (12)
0x00|                              02               |          .     |          n: 2 0xa-0xa.7 (1)
    |                                               |                |          x[0:2]: 0xb-0x15.7 (11)
    |                                               |                |            [0]{}: ft 0xb-0x10.7 (6)
0x00|                                 60            |           `    |              tag: 0x60 (valid) 0xb-0xb.7 (1)
    |                                               |                |              rt1{}: 0xc-0xe.7 (3)
0x00|                                    02         |            .   |                n: 2 0xc-0xc.7 (1)
    |                                               |                |                x[0:2]: 0xd-0xe.7 (2)
0x00|                                       7b      |             {  |                  [0]: "v128" (0x7b) t 0xd-0xd.7 (1)
0x00|                                          7b   |              { |                  [1]: "v128" (0x7b) t 0xe-0xe.7 (1)
    |                                               |                |              rt2{}: 0xf-0x10.7 (2)
0x00|                                             01|               .|                n: 1 0xf-0xf.7 (1)
    |                                               |                |                x[0:1]: 0x10-0x10.7 (1)
0x10|7b                                             |{               |                  [0]: "v128" (0x7b) t 0x10-0x10.7 (1)
    |                                               |                |            [1]{}: ft 0x11-0x15.7 (5)
0x10|   60                                          | `              |              tag: 0x60 (valid) 0x11-0x11.7 (1)
    |                                               |                |              rt1{}: 0x12-0x13.7 (2)
0x10|      01                                       |  .             |                n: 1 0x12-0x12.7 (1)
    |                                               |                |                x[0:1]: 0x13-0x13.7 (1)
0x10|         7b                                    |   {            |                  [0]: "v128" (0x7b) t 0x13-0x13.7 (1)
    |                                               |                |              rt2{}: 0x14-0x15.7 (2)
0x10|            01                                 |    .           |                n: 1 0x14-0x14.7 (1)
    |                                               |                |                x[0:1]: 0x15-0x15.7 (1)
0x10|               7b                              |     {          |                  [0]: "v128" (0x7b) t 0x15-0x15.7 (1)
    |                                               |                |    [1]{}: section 0x16-0x1b.7 (6)
0x10|                  03                           |      .         |      id: "function section" (3) 0x16-0x16.7 (1)
0x10|                     04                        |       .        |      size: 4 0x17-0x17.7 (1)
    |                                               |                |      content{}: 0x18-0x1b.7 (4)
    |                                               |                |        x{}: 0x18-0x1b.7 (4)
0x10|                        03                     |        .       |          n: 3 0x18-0x18.7 (1)
    |                                               |                |          x[0:3]: 0x19-0x1b.7 (3)
0x10|                           00                  |         .      |            [0]: 0 x 0x19-0x19.7 (1)
0x10|                              00               |          .     |            [1]: 0 x 0x1a-0x1a.7 (1)
0x10|                                 01            |           .    |            [2]: 1 x 0x1b-0x1b.7 (1)
    |                                               |                |    [2]{}: section 0x1c-0x42.7 (39)
0x10|                                    07         |            .   |      id: "export section" (7) 0x1c-0x1c.7 (1)
0x10|                                       25      |             %  |      size: 37 0x1d-0x1d.7 (1)
    |                                               |                |      content{}: 0x1e-0x42.7 (37)
    |                                               |                |        ex{}: 0x1e-0x42.7 (37)
0x10|                                          03   |              . |          n: 3 0x1e-0x1e.7 (1)
    |                                               |                |          x[0:3]: 0x1f-0x42.7 (36)
    |                                               |                |            [0]{}: ex 0x1f-0x2a.7 (12)
    |                                               |                |              nm{}: 0x1f-0x28.7 (10)
0x10|                                             09|               .|                n: 9 0x1f-0x1f.7 (1)
0x20|69 38 78 31 36 2e 61 64 64                     |i8x16.add       |                b: "i8x16.add" 0x20-0x28.7 (9)
    |                                               |                |              d{}: 0x29-0x2a.7 (2)
0x20|                           00                  |         .      |                tag: "funcidx" (0x0) 0x29-0x29.7 (1)
0x20|                              00               |          .     |                x: 0 0x2a-0x2a.7 (1)
    |                                               |                |            [1]{}: ex 0x2b-0x36.7 (12)
    |                                               |                |              nm{}: 0x2b-0x34.7 (10)
0x20|                                 09            |           .    |                n: 9 0x2b-0x2b.7 (1)
0x20|                                    69 38 78 31|            i8x1|                b: "i8x16.sub" 0x2c-0x34.7 (9)
0x30|36 2e 73 75 62                                 |6.sub           |
    |                                               |                |              d{}: 0x35-0x36.7 (2)
0x30|               00                              |     .          |                tag: "funcidx" (0x0) 0x35-0x35.7 (1)
0x30|                  01                           |      .         |                x: 1 0x36-0x36.7 (1)
    |                                               |                |            [2]{}: ex 0x37-0x42.7 (12)
    |                                               |                |              nm{}: 0x37-0x40.7 (10)
0x30|                     09                        |       .        |                n: 9 0x37-0x37.7 (1)
0x30|                        69 38 78 31 36 2e 6e 65|        i8x16.ne|                b: "i8x16.neg" 0x38-0x40.7 (9)
0x40|67                                             |g               |
    |                                               |                |              d{}: 0x41-0x42.7 (2)
0x40|   00                                          | .              |                tag: "funcidx" (0x0) 0x41-0x41.7 (1)
0x40|      02                                       |  .             |                x: 2 0x42-0x42.7 (1)
    |                                               |                |    [3]{}: section 0x43-0x5e.7 (28)
0x40|         0a                                    |   .            |      id: "code section" (10) 0x43-0x43.7 (1)
0x40|            1a                                 |    .           |      size: 26 0x44-0x44.7 (1)
    |                                               |                |      content{}: 0x45-0x5e.7 (26)
    |                                               |                |        code{}: 0x45-0x5e.7 (26)
0x40|               03                              |     .          |          n: 3 0x45-0x45.7 (1)
    |                                               |                |          x[0:3]: 0x46-0x5e.7 (25)
    |                                               |                |            [0]{}: code 0x46-0x4e.7 (9)
0x40|                  08                           |      .         |              size: 8 0x46-0x46.7 (1)
    |                                               |                |              code{}: 0x47-0x4e.7 (8)
    |                                               |                |                t{}: 0x47-0x47.7 (1)
0x40|                     00                        |       .        |                  n: 0 0x47-0x47.7 (1)
    |                                               |                |                  x[0:0]: 0x48-NA (0)
    |                                               |                |                e[0:4]: 0x48-0x4e.7 (7)
    |                                               |                |                  [0]{}: in 0x48-0x49.7 (2)
0x40|                        20                     |                |                    local.get: 0x20 (valid) 0x48-0x48.7 (1)
0x40|                           00                  |         .      |                    x: 0 0x49-0x49.7 (1)
    |                                               |                |                  [1]{}: in 0x4a-0x4b.7 (2)
0x40|                              20               |                |                    local.get: 0x20 (valid) 0x4a-0x4a.7 (1)
0x40|                                 01            |           .    |                    x: 1 0x4b-0x4b.7 (1)
    |                                               |                |                  [2]{}: in 0x4c-0x4d.7 (2)
0x40|                                    fd         |            .   |                    prefix: 0xfd (valid) 0x4c-0x4c.7 (1)
0x40|                                       6e      |             n  |                    i8x16.add: 110 (valid) 0x4d-0x4d.7 (1)
    |                                               |                |                  [3]{}: in 0x4e-0x4e.7 (1)
0x40|                                          0b   |              . |                    end: 0xb (valid) 0x4e-0x4e.7 (1)
    |                                               |                |            [1]{}: code 0x4f-0x57.7 (9)
0x40|                                             08|               .|              size: 8 0x4f-0x4f.7 (1)
    |                                               |                |              code{}: 0x50-0x57.7 (8)
    |                                               |                |                t{}: 0x50-0x50.7 (1)
0x50|00                                             |.               |                  n: 0 0x50-0x50.7 (1)
    |                                               |                |                  x[0:0]: 0x51-NA (0)
    |                                               |                |                e[0:4]: 0x51-0x57.7 (7)
    |                                               |                |                  [0]{}: in 0x51-0x52.7 (2)
0x50|   20                                          |                |                    local.get: 0x20 (valid) 0x51-0x51.7 (1)
0x50|      00                                       |  .             |                    x: 0 0x52-0x52.7 (1)
    |                                               |                |                  [1]{}: in 0x53-0x54.7 (2)
0x50|         20                                    |                |                    local.get: 0x20 (valid) 0x53-0x53.7 (1)
0x50|            01                                 |    .           |                    x: 1 0x54-0x54.7 (1)
    |                                               |                |                  [2]{}: in 0x55-0x56.7 (2)
0x50|               fd                              |     .          |                    prefix: 0xfd (valid) 0x55-0x55.7 (1)
0x50|                  71                           |      q         |                    i8x16.sub: 113 (valid) 0x56-0x56.7 (1)
    |                                               |                |                  [3]{}: in 0x57-0x57.7 (1)
0x50|                     0b                        |       .        |                    end: 0xb (valid) 0x57-0x57.7 (1)
    |                                               |                |            [2]{}: code 0x58-0x5e.7 (7)
0x50|                        06                     |        .       |              size: 6 0x58-0x58.7 (1)
    |                                               |                |              code{}: 0x59-0x5e.7 (6)
    |                                               |                |                t{}: 0x59-0x59.7 (1)
0x50|                           00                  |         .      |                  n: 0 0x59-0x59.7 (1)
    |                                               |                |                  x[0:0]: 0x5a-NA (0)
    |                                               |                |                e[0:3]: 0x5a-0x5e.7 (5)
    |                                               |                |                  [0]{}: in 0x5a-0x5b.7 (2)
0x50|                              20               |                |                    local.get: 0x20 (valid) 0x5a-0x5a.7 (1)
0x50|                                 00            |           .    |                    x: 0 0x5b-0x5b.7 (1)
    |                                               |                |                  [1]{}: in 0x5c-0x5d.7 (2)
0x50|                                    fd         |            .   |                    prefix: 0xfd (valid) 0x5c-0x5c.7 (1)
0x50|                                       61      |             a  |                    i8x16.neg: 97 (valid) 0x5d-0x5d.7 (1)
    |                                               |                |                  [2]{}: in 0x5e-0x5e.7 (1)
0x50|                                          0b|  |              .||                    end: 0xb (valid) 0x5e-0x5e.7 (1)
