$ fq -d wasm dv simd_i8x16_arith2-1.wasm
     |00 01 02 03 04 05 06 07 08 09 0a 0b 0c 0d 0e 0f|0123456789abcdef|.{}: simd_i8x16_arith2-1.wasm (wasm) 0x0-0x797.7 (1944)
0x000|00 61 73 6d                                    |.asm            |  magic: raw bits (valid) 0x0-0x3.7 (4)
0x000|            01 00 00 00                        |    ....        |  version: 1 0x4-0x7.7 (4)
     |                                               |                |  sections[0:4]: 0x8-0x797.7 (1936)
     |                                               |                |    [0]{}: section 0x8-0x1c.7 (21)
0x000|                        01                     |        .       |      id: "type_section" (1) 0x8-0x8.7 (1)
0x000|                           13                  |         .      |      size: 19 (valid) 0x9-0x9.7 (1)
     |                                               |                |      content{}: 0xa-0x1c.7 (19)
     |                                               |                |        ft{}: 0xa-0x1c.7 (19)
0x000|                              03               |          .     |          n: 3 (valid) 0xa-0xa.7 (1)
     |                                               |                |          x[0:3]: 0xb-0x1c.7 (18)
     |                                               |                |            [0]{}: ft 0xb-0x11.7 (7)
0x000|                                 60            |           `    |              tag: 0x60 (valid) 0xb-0xb.7 (1)
     |                                               |                |              rt1{}: 0xc-0xf.7 (4)
0x000|                                    03         |            .   |                n: 3 (valid) 0xc-0xc.7 (1)
     |                                               |                |                x[0:3]: 0xd-0xf.7 (3)
0x000|                                       7b      |             {  |                  [0]: "v128" (0x7b) t 0xd-0xd.7 (1)
0x000|                                          7b   |              { |                  [1]: "v128" (0x7b) t 0xe-0xe.7 (1)
0x000|                                             7b|               {|                  [2]: "v128" (0x7b) t 0xf-0xf.7 (1)
     |                                               |                |              rt2{}: 0x10-0x11.7 (2)
0x010|01                                             |.               |                n: 1 (valid) 0x10-0x10.7 (1)
     |                                               |                |                x[0:1]: 0x11-0x11.7 (1)
0x010|   7b                                          | {              |                  [0]: "v128" (0x7b) t 0x11-0x11.7 (1)
     |                                               |                |            [1]{}: ft 0x12-0x17.7 (6)
0x010|      60                                       |  `             |              tag: 0x60 (valid) 0x12-0x12.7 (1)
     |                                               |                |              rt1{}: 0x13-0x15.7 (3)
0x010|         02                                    |   .            |                n: 2 (valid) 0x13-0x13.7 (1)
     |                                               |                |                x[0:2]: 0x14-0x15.7 (2)
0x010|            7b                                 |    {           |                  [0]: "v128" (0x7b) t 0x14-0x14.7 (1)
0x010|               7b                              |     {          |                  [1]: "v128" (0x7b) t 0x15-0x15.7 (1)
     |                                               |                |              rt2{}: 0x16-0x17.7 (2)
0x010|                  01                           |      .         |                n: 1 (valid) 0x16-0x16.7 (1)
     |                                               |                |                x[0:1]: 0x17-0x17.7 (1)
0x010|                     7b                        |       {        |                  [0]: "v128" (0x7b) t 0x17-0x17.7 (1)
     |                                               |                |            [2]{}: ft 0x18-0x1c.7 (5)
0x010|                        60                     |        `       |              tag: 0x60 (valid) 0x18-0x18.7 (1)
     |                                               |                |              rt1{}: 0x19-0x1a.7 (2)
0x010|                           01                  |         .      |                n: 1 (valid) 0x19-0x19.7 (1)
     |                                               |                |                x[0:1]: 0x1a-0x1a.7 (1)
0x010|                              7b               |          {     |                  [0]: "v128" (0x7b) t 0x1a-0x1a.7 (1)
     |                                               |                |              rt2{}: 0x1b-0x1c.7 (2)
0x010|                                 01            |           .    |                n: 1 (valid) 0x1b-0x1b.7 (1)
     |                                               |                |                x[0:1]: 0x1c-0x1c.7 (1)
0x010|                                    7b         |            {   |                  [0]: "v128" (0x7b) t 0x1c-0x1c.7 (1)
     |                                               |                |    [1]{}: section 0x1d-0x50.7 (52)
0x010|                                       03      |             .  |      id: "function_section" (3) 0x1d-0x1d.7 (1)
0x010|                                          32   |              2 |      size: 50 (valid) 0x1e-0x1e.7 (1)
     |                                               |                |      content{}: 0x1f-0x50.7 (50)
     |                                               |                |        x{}: 0x1f-0x50.7 (50)
0x010|                                             31|               1|          n: 49 (valid) 0x1f-0x1f.7 (1)
     |                                               |                |          x[0:49]: 0x20-0x50.7 (49)
0x020|00                                             |.               |            [0]: 0 x (valid) 0x20-0x20.7 (1)
0x020|   00                                          | .              |            [1]: 0 x (valid) 0x21-0x21.7 (1)
0x020|      00                                       |  .             |            [2]: 0 x (valid) 0x22-0x22.7 (1)
0x020|         00                                    |   .            |            [3]: 0 x (valid) 0x23-0x23.7 (1)
0x020|            00                                 |    .           |            [4]: 0 x (valid) 0x24-0x24.7 (1)
0x020|               01                              |     .          |            [5]: 1 x (valid) 0x25-0x25.7 (1)
0x020|                  01                           |      .         |            [6]: 1 x (valid) 0x26-0x26.7 (1)
0x020|                     01                        |       .        |            [7]: 1 x (valid) 0x27-0x27.7 (1)
0x020|                        01                     |        .       |            [8]: 1 x (valid) 0x28-0x28.7 (1)
0x020|                           00                  |         .      |            [9]: 0 x (valid) 0x29-0x29.7 (1)
0x020|                              00               |          .     |            [10]: 0 x (valid) 0x2a-0x2a.7 (1)
0x020|                                 00            |           .    |            [11]: 0 x (valid) 0x2b-0x2b.7 (1)
0x020|                                    00         |            .   |            [12]: 0 x (valid) 0x2c-0x2c.7 (1)
0x020|                                       00      |             .  |            [13]: 0 x (valid) 0x2d-0x2d.7 (1)
0x020|                                          01   |              . |            [14]: 1 x (valid) 0x2e-0x2e.7 (1)
0x020|                                             01|               .|            [15]: 1 x (valid) 0x2f-0x2f.7 (1)
0x030|01                                             |.               |            [16]: 1 x (valid) 0x30-0x30.7 (1)
0x030|   01                                          | .              |            [17]: 1 x (valid) 0x31-0x31.7 (1)
0x030|      00                                       |  .             |            [18]: 0 x (valid) 0x32-0x32.7 (1)
0x030|         00                                    |   .            |            [19]: 0 x (valid) 0x33-0x33.7 (1)
0x030|            00                                 |    .           |            [20]: 0 x (valid) 0x34-0x34.7 (1)
0x030|               00                              |     .          |            [21]: 0 x (valid) 0x35-0x35.7 (1)
0x030|                  00                           |      .         |            [22]: 0 x (valid) 0x36-0x36.7 (1)
0x030|                     01                        |       .        |            [23]: 1 x (valid) 0x37-0x37.7 (1)
0x030|                        01                     |        .       |            [24]: 1 x (valid) 0x38-0x38.7 (1)
0x030|                           01                  |         .      |            [25]: 1 x (valid) 0x39-0x39.7 (1)
0x030|                              01               |          .     |            [26]: 1 x (valid) 0x3a-0x3a.7 (1)
0x030|                                 00            |           .    |            [27]: 0 x (valid) 0x3b-0x3b.7 (1)
0x030|                                    00         |            .   |            [28]: 0 x (valid) 0x3c-0x3c.7 (1)
0x030|                                       00      |             .  |            [29]: 0 x (valid) 0x3d-0x3d.7 (1)
0x030|                                          00   |              . |            [30]: 0 x (valid) 0x3e-0x3e.7 (1)
0x030|                                             00|               .|            [31]: 0 x (valid) 0x3f-0x3f.7 (1)
0x040|01                                             |.               |            [32]: 1 x (valid) 0x40-0x40.7 (1)
0x040|   01                                          | .              |            [33]: 1 x (valid) 0x41-0x41.7 (1)
0x040|      01                                       |  .             |            [34]: 1 x (valid) 0x42-0x42.7 (1)
0x040|         01                                    |   .            |            [35]: 1 x (valid) 0x43-0x43.7 (1)
0x040|            00                                 |    .           |            [36]: 0 x (valid) 0x44-0x44.7 (1)
0x040|               00                              |     .          |            [37]: 0 x (valid) 0x45-0x45.7 (1)
0x040|                  00                           |      .         |            [38]: 0 x (valid) 0x46-0x46.7 (1)
0x040|                     00                        |       .        |            [39]: 0 x (valid) 0x47-0x47.7 (1)
0x040|                        00                     |        .       |            [40]: 0 x (valid) 0x48-0x48.7 (1)
0x040|                           01                  |         .      |            [41]: 1 x (valid) 0x49-0x49.7 (1)
0x040|                              01               |          .     |            [42]: 1 x (valid) 0x4a-0x4a.7 (1)
0x040|                                 01            |           .    |            [43]: 1 x (valid) 0x4b-0x4b.7 (1)
0x040|                                    01         |            .   |            [44]: 1 x (valid) 0x4c-0x4c.7 (1)
0x040|                                       02      |             .  |            [45]: 2 x (valid) 0x4d-0x4d.7 (1)
0x040|                                          02   |              . |            [46]: 2 x (valid) 0x4e-0x4e.7 (1)
0x040|                                             02|               .|            [47]: 2 x (valid) 0x4f-0x4f.7 (1)
0x050|02                                             |.               |            [48]: 2 x (valid) 0x50-0x50.7 (1)
     |                                               |                |    [2]{}: section 0x51-0x54e.7 (1278)
0x050|   07                                          | .              |      id: "export_section" (7) 0x51-0x51.7 (1)
0x050|      fb 09                                    |  ..            |      size: 1275 (valid) 0x52-0x53.7 (2)
     |                                               |                |      content{}: 0x54-0x54e.7 (1275)
     |                                               |                |        ex{}: 0x54-0x54e.7 (1275)
0x050|            31                                 |    1           |          n: 49 (valid) 0x54-0x54.7 (1)
     |                                               |                |          x[0:49]: 0x55-0x54e.7 (1274)
     |                                               |                |            [0]{}: ex 0x55-0x6f.7 (27)
     |                                               |                |              nm{}: 0x55-0x6d.7 (25)
0x050|               18                              |     .          |                n: 24 (valid) 0x55-0x55.7 (1)
0x050|                  69 38 78 31 36 2e 6d 69 6e 5f|      i8x16.min_|                b: "i8x16.min_s-i8x16.avgr_u" 0x56-0x6d.7 (24)
0x060|73 2d 69 38 78 31 36 2e 61 76 67 72 5f 75      |s-i8x16.avgr_u  |
     |                                               |                |              d{}: 0x6e-0x6f.7 (2)
0x060|                                          00   |              . |                tag: "funcidx" (0x0) 0x6e-0x6e.7 (1)
0x060|                                             00|               .|                x: 0 (valid) 0x6f-0x6f.7 (1)
     |                                               |                |            [1]{}: ex 0x70-0x89.7 (26)
     |                                               |                |              nm{}: 0x70-0x87.7 (24)
0x070|17                                             |.               |                n: 23 (valid) 0x70-0x70.7 (1)
0x070|   69 38 78 31 36 2e 6d 69 6e 5f 73 2d 69 38 78| i8x16.min_s-i8x|                b: "i8x16.min_s-i8x16.max_u" 0x71-0x87.7 (23)
0x080|31 36 2e 6d 61 78 5f 75                        |16.max_u        |
     |                                               |                |              d{}: 0x88-0x89.7 (2)
0x080|                        00                     |        .       |                tag: "funcidx" (0x0) 0x88-0x88.7 (1)
0x080|                           01                  |         .      |                x: 1 (valid) 0x89-0x89.7 (1)
     |                                               |                |            [2]{}: ex 0x8a-0xa3.7 (26)
     |                                               |                |              nm{}: 0x8a-0xa1.7 (24)
0x080|                              17               |          .     |                n: 23 (valid) 0x8a-0x8a.7 (1)
0x080|                                 69 38 78 31 36|           i8x16|                b: "i8x16.min_s-i8x16.max_s" 0x8b-0xa1.7 (23)
0x090|2e 6d 69 6e 5f 73 2d 69 38 78 31 36 2e 6d 61 78|.min_s-i8x16.max|
0x0a0|5f 73                                          |_s              |
     |                                               |                |              d{}: 0xa2-0xa3.7 (2)
0x0a0|      00                                       |  .             |                tag: "funcidx" (0x0) 0xa2-0xa2.7 (1)
0x0a0|         02                                    |   .            |                x: 2 (valid) 0xa3-0xa3.7 (1)
     |                                               |                |            [3]{}: ex 0xa4-0xbd.7 (26)
     |                                               |                |              nm{}: 0xa4-0xbb.7 (24)
0x0a0|            17                                 |    .           |                n: 23 (valid) 0xa4-0xa4.7 (1)
0x0a0|               69 38 78 31 36 2e 6d 69 6e 5f 73|     i8x16.min_s|                b: "i8x16.min_s-i8x16.min_u" 0xa5-0xbb.7 (23)
0x0b0|2d 69 38 78 31 36 2e 6d 69 6e 5f 75            |-i8x16.min_u    |
     |                                               |                |              d{}: 0xbc-0xbd.7 (2)
0x0b0|                                    00         |            .   |                tag: "funcidx" (0x0) 0xbc-0xbc.7 (1)
0x0b0|                                       03      |             .  |                x: 3 (valid) 0xbd-0xbd.7 (1)
     |                                               |                |            [4]{}: ex 0xbe-0xd7.7 (26)
     |                                               |                |              nm{}: 0xbe-0xd5.7 (24)
0x0b0|                                          17   |              . |                n: 23 (valid) 0xbe-0xbe.7 (1)
0x0b0|                                             69|               i|                b: "i8x16.min_s-i8x16.min_s" 0xbf-0xd5.7 (23)
0x0c0|38 78 31 36 2e 6d 69 6e 5f 73 2d 69 38 78 31 36|8x16.min_s-i8x16|
0x0d0|2e 6d 69 6e 5f 73                              |.min_s          |
     |                                               |                |              d{}: 0xd6-0xd7.7 (2)
0x0d0|                  00                           |      .         |                tag: "funcidx" (0x0) 0xd6-0xd6.7 (1)
0x0d0|                     04                        |       .        |                x: 4 (valid) 0xd7-0xd7.7 (1)
     |                                               |                |            [5]{}: ex 0xd8-0xef.7 (24)
     |                                               |                |              nm{}: 0xd8-0xed.7 (22)
0x0d0|                        15                     |        .       |                n: 21 (valid) 0xd8-0xd8.7 (1)
0x0d0|                           69 38 78 31 36 2e 6d|         i8x16.m|                b: "i8x16.min_s-i8x16.abs" 0xd9-0xed.7 (21)
0x0e0|69 6e 5f 73 2d 69 38 78 31 36 2e 61 62 73      |in_s-i8x16.abs  |
     |                                               |                |              d{}: 0xee-0xef.7 (2)
0x0e0|                                          00   |              . |                tag: "funcidx" (0x0) 0xee-0xee.7 (1)
0x0e0|                                             05|               .|                x: 5 (valid) 0xef-0xef.7 (1)
     |                                               |                |            [6]{}: ex 0xf0-0x107.7 (24)
     |                                               |                |              nm{}: 0xf0-0x105.7 (22)
0x0f0|15                                             |.               |                n: 21 (valid) 0xf0-0xf0.7 (1)
0x0f0|   69 38 78 31 36 2e 61 62 73 2d 69 38 78 31 36| i8x16.abs-i8x16|                b: "i8x16.abs-i8x16.min_s" 0xf1-0x105.7 (21)
0x100|2e 6d 69 6e 5f 73                              |.min_s          |
     |                                               |                |              d{}: 0x106-0x107.7 (2)
0x100|                  00                           |      .         |                tag: "funcidx" (0x0) 0x106-0x106.7 (1)
0x100|                     06                        |       .        |                x: 6 (valid) 0x107-0x107.7 (1)
     |                                               |                |            [7]{}: ex 0x108-0x122.7 (27)
     |                                               |                |              nm{}: 0x108-0x120.7 (25)
0x100|                        18                     |        .       |                n: 24 (valid) 0x108-0x108.7 (1)
0x100|                           69 38 78 31 36 2e 6d|         i8x16.m|                b: "i8x16.min_s-i8x16.popcnt" 0x109-0x120.7 (24)
0x110|69 6e 5f 73 2d 69 38 78 31 36 2e 70 6f 70 63 6e|in_s-i8x16.popcn|
0x120|74                                             |t               |
     |                                               |                |              d{}: 0x121-0x122.7 (2)
0x120|   00                                          | .              |                tag: "funcidx" (0x0) 0x121-0x121.7 (1)
0x120|      07                                       |  .             |                x: 7 (valid) 0x122-0x122.7 (1)
     |                                               |                |            [8]{}: ex 0x123-0x13d.7 (27)
     |                                               |                |              nm{}: 0x123-0x13b.7 (25)
0x120|         18                                    |   .            |                n: 24 (valid) 0x123-0x123.7 (1)
0x120|            69 38 78 31 36 2e 70 6f 70 63 6e 74|    i8x16.popcnt|                b: "i8x16.popcnt-i8x16.min_s" 0x124-0x13b.7 (24)
0x130|2d 69 38 78 31 36 2e 6d 69 6e 5f 73            |-i8x16.min_s    |
     |                                               |                |              d{}: 0x13c-0x13d.7 (2)
0x130|                                    00         |            .   |                tag: "funcidx" (0x0) 0x13c-0x13c.7 (1)
0x130|                                       08      |             .  |                x: 8 (valid) 0x13d-0x13d.7 (1)
     |                                               |                |            [9]{}: ex 0x13e-0x158.7 (27)
     |                                               |                |              nm{}: 0x13e-0x156.7 (25)
0x130|                                          18   |              . |                n: 24 (valid) 0x13e-0x13e.7 (1)
0x130|                                             69|               i|                b: "i8x16.min_u-i8x16.avgr_u" 0x13f-0x156.7 (24)
0x140|38 78 31 36 2e 6d 69 6e 5f 75 2d 69 38 78 31 36|8x16.min_u-i8x16|
0x150|2e 61 76 67 72 5f 75                           |.avgr_u         |
     |                                               |                |              d{}: 0x157-0x158.7 (2)
0x150|                     00                        |       .        |                tag: "funcidx" (0x0) 0x157-0x157.7 (1)
0x150|                        09                     |        .       |                x: 9 (valid) 0x158-0x158.7 (1)
     |                                               |                |            [10]{}: ex 0x159-0x172.7 (26)
     |                                               |                |              nm{}: 0x159-0x170.7 (24)
0x150|                           17                  |         .      |                n: 23 (valid) 0x159-0x159.7 (1)
0x150|                              69 38 78 31 36 2e|          i8x16.|                b: "i8x16.min_u-i8x16.max_u" 0x15a-0x170.7 (23)
0x160|6d 69 6e 5f 75 2d 69 38 78 31 36 2e 6d 61 78 5f|min_u-i8x16.max_|
0x170|75                                             |u               |
     |                                               |                |              d{}: 0x171-0x172.7 (2)
0x170|   00                                          | .              |                tag: "funcidx" (0x0) 0x171-0x171.7 (1)
0x170|      0a                                       |  .             |                x: 10 (valid) 0x172-0x172.7 (1)
     |                                               |                |            [11]{}: ex 0x173-0x18c.7 (26)
     |                                               |                |              nm{}: 0x173-0x18a.7 (24)
0x170|         17                                    |   .            |                n: 23 (valid) 0x173-0x173.7 (1)
0x170|            69 38 78 31 36 2e 6d 69 6e 5f 75 2d|    i8x16.min_u-|                b: "i8x16.min_u-i8x16.max_s" 0x174-0x18a.7 (23)
0x180|69 38 78 31 36 2e 6d 61 78 5f 73               |i8x16.max_s     |
     |                                               |                |              d{}: 0x18b-0x18c.7 (2)
0x180|                                 00            |           .    |                tag: "funcidx" (0x0) 0x18b-0x18b.7 (1)
0x180|                                    0b         |            .   |                x: 11 (valid) 0x18c-0x18c.7 (1)
     |                                               |                |            [12]{}: ex 0x18d-0x1a6.7 (26)
     |                                               |                |              nm{}: 0x18d-0x1a4.7 (24)
0x180|                                       17      |             .  |                n: 23 (valid) 0x18d-0x18d.7 (1)
0x180|                                          69 38|              i8|                b: "i8x16.min_u-i8x16.min_u" 0x18e-0x1a4.7 (23)
0x190|78 31 36 2e 6d 69 6e 5f 75 2d 69 38 78 31 36 2e|x16.min_u-i8x16.|
0x1a0|6d 69 6e 5f 75                                 |min_u           |
     |                                               |                |              d{}: 0x1a5-0x1a6.7 (2)
0x1a0|               00                              |     .          |                tag: "funcidx" (0x0) 0x1a5-0x1a5.7 (1)
0x1a0|                  0c                           |      .         |                x: 12 (valid) 0x1a6-0x1a6.7 (1)
     |                                               |                |            [13]{}: ex 0x1a7-0x1c0.7 (26)
     |                                               |                |              nm{}: 0x1a7-0x1be.7 (24)
0x1a0|                     17                        |       .        |                n: 23 (valid) 0x1a7-0x1a7.7 (1)
0x1a0|                        69 38 78 31 36 2e 6d 69|        i8x16.mi|                b: "i8x16.min_u-i8x16.min_s" 0x1a8-0x1be.7 (23)
0x1b0|6e 5f 75 2d 69 38 78 31 36 2e 6d 69 6e 5f 73   |n_u-i8x16.min_s |
     |                                               |                |              d{}: 0x1bf-0x1c0.7 (2)
0x1b0|                                             00|               .|                tag: "funcidx" (0x0) 0x1bf-0x1bf.7 (1)
0x1c0|0d                                             |.               |                x: 13 (valid) 0x1c0-0x1c0.7 (1)
     |                                               |                |            [14]{}: ex 0x1c1-0x1d8.7 (24)
     |                                               |                |              nm{}: 0x1c1-0x1d6.7 (22)
0x1c0|   15                                          | .              |                n: 21 (valid) 0x1c1-0x1c1.7 (1)
0x1c0|      69 38 78 31 36 2e 6d 69 6e 5f 75 2d 69 38|  i8x16.min_u-i8|                b: "i8x16.min_u-i8x16.abs" 0x1c2-0x1d6.7 (21)
0x1d0|78 31 36 2e 61 62 73                           |x16.abs         |
     |                                               |                |              d{}: 0x1d7-0x1d8.7 (2)
0x1d0|                     00                        |       .        |                tag: "funcidx" (0x0) 0x1d7-0x1d7.7 (1)
0x1d0|                        0e                     |        .       |                x: 14 (valid) 0x1d8-0x1d8.7 (1)
     |                                               |                |            [15]{}: ex 0x1d9-0x1f0.7 (24)
     |                                               |                |              nm{}: 0x1d9-0x1ee.7 (22)
0x1d0|                           15                  |         .      |                n: 21 (valid) 0x1d9-0x1d9.7 (1)
0x1d0|                              69 38 78 31 36 2e|          i8x16.|                b: "i8x16.abs-i8x16.min_u" 0x1da-0x1ee.7 (21)
0x1e0|61 62 73 2d 69 38 78 31 36 2e 6d 69 6e 5f 75   |abs-i8x16.min_u |
     |                                               |                |              d{}: 0x1ef-0x1f0.7 (2)
0x1e0|                                             00|               .|                tag: "funcidx" (0x0) 0x1ef-0x1ef.7 (1)
0x1f0|0f                                             |.               |                x: 15 (valid) 0x1f0-0x1f0.7 (1)
     |                                               |                |            [16]{}: ex 0x1f1-0x20b.7 (27)
     |                                               |                |              nm{}: 0x1f1-0x209.7 (25)
0x1f0|   18                                          | .              |                n: 24 (valid) 0x1f1-0x1f1.7 (1)
0x1f0|      69 38 78 31 36 2e 6d 69 6e 5f 75 2d 69 38|  i8x16.min_u-i8|                b: "i8x16.min_u-i8x16.popcnt" 0x1f2-0x209.7 (24)
0x200|78 31 36 2e 70 6f 70 63 6e 74                  |x16.popcnt      |
     |                                               |                |              d{}: 0x20a-0x20b.7 (2)
0x200|                              00               |          .     |                tag: "funcidx" (0x0) 0x20a-0x20a.7 (1)
0x200|                                 10            |           .    |                x: 16 (valid) 0x20b-0x20b.7 (1)
     |                                               |                |            [17]{}: ex 0x20c-0x226.7 (27)
     |                                               |                |              nm{}: 0x20c-0x224.7 (25)
0x200|                                    18         |            .   |                n: 24 (valid) 0x20c-0x20c.7 (1)
0x200|                                       69 38 78|             i8x|                b: "i8x16.popcnt-i8x16.min_u" 0x20d-0x224.7 (24)
0x210|31 36 2e 70 6f 70 63 6e 74 2d 69 38 78 31 36 2e|16.popcnt-i8x16.|
0x220|6d 69 6e 5f 75                                 |min_u           |
     |                                               |                |              d{}: 0x225-0x226.7 (2)
0x220|               00                              |     .          |                tag: "funcidx" (0x0) 0x225-0x225.7 (1)
0x220|                  11                           |      .         |                x: 17 (valid) 0x226-0x226.7 (1)
     |                                               |                |            [18]{}: ex 0x227-0x241.7 (27)
     |                                               |                |              nm{}: 0x227-0x23f.7 (25)
0x220|                     18                        |       .        |                n: 24 (valid) 0x227-0x227.7 (1)
0x220|                        69 38 78 31 36 2e 6d 61|        i8x16.ma|                b: "i8x16.max_s-i8x16.avgr_u" 0x228-0x23f.7 (24)
0x230|78 5f 73 2d 69 38 78 31 36 2e 61 76 67 72 5f 75|x_s-i8x16.avgr_u|
     |                                               |                |              d{}: 0x240-0x241.7 (2)
0x240|00                                             |.               |                tag: "funcidx" (0x0) 0x240-0x240.7 (1)
0x240|   12                                          | .              |                x: 18 (valid) 0x241-0x241.7 (1)
     |                                               |                |            [19]{}: ex 0x242-0x25b.7 (26)
     |                                               |                |              nm{}: 0x242-0x259.7 (24)
0x240|      17                                       |  .             |                n: 23 (valid) 0x242-0x242.7 (1)
0x240|         69 38 78 31 36 2e 6d 61 78 5f 73 2d 69|   i8x16.max_s-i|                b: "i8x16.max_s-i8x16.max_u" 0x243-0x259.7 (23)
0x250|38 78 31 36 2e 6d 61 78 5f 75                  |8x16.max_u      |
     |                                               |                |              d{}: 0x25a-0x25b.7 (2)
0x250|                              00               |          .     |                tag: "funcidx" (0x0) 0x25a-0x25a.7 (1)
0x250|                                 13            |           .    |                x: 19 (valid) 0x25b-0x25b.7 (1)
     |                                               |                |            [20]{}: ex 0x25c-0x275.7 (26)
     |                                               |                |              nm{}: 0x25c-0x273.7 (24)
0x250|                                    17         |            .   |                n: 23 (valid) 0x25c-0x25c.7 (1)
0x250|                                       69 38 78|             i8x|                b: "i8x16.max_s-i8x16.max_s" 0x25d-0x273.7 (23)
0x260|31 36 2e 6d 61 78 5f 73 2d 69 38 78 31 36 2e 6d|16.max_s-i8x16.m|
0x270|61 78 5f 73                                    |ax_s            |
     |                                               |                |              d{}: 0x274-0x275.7 (2)
0x270|            00                                 |    .           |                tag: "funcidx" (0x0) 0x274-0x274.7 (1)
0x270|               14                              |     .          |                x: 20 (valid) 0x275-0x275.7 (1)
     |                                               |                |            [21]{}: ex 0x276-0x28f.7 (26)
     |                                               |                |              nm{}: 0x276-0x28d.7 (24)
0x270|                  17                           |      .         |                n: 23 (valid) 0x276-0x276.7 (1)
0x270|                     69 38 78 31 36 2e 6d 61 78|       i8x16.max|                b: "i8x16.max_s-i8x16.min_u" 0x277-0x28d.7 (23)
0x280|5f 73 2d 69 38 78 31 36 2e 6d 69 6e 5f 75      |_s-i8x16.min_u  |
     |                                               |                |              d{}: 0x28e-0x28f.7 (2)
0x280|                                          00   |              . |                tag: "funcidx" (0x0) 0x28e-0x28e.7 (1)
0x280|                                             15|               .|                x: 21 (valid) 0x28f-0x28f.7 (1)
     |                                               |                |            [22]{}: ex 0x290-0x2a9.7 (26)
     |                                               |                |              nm{}: 0x290-0x2a7.7 (24)
0x290|17                                             |.               |                n: 23 (valid) 0x290-0x290.7 (1)
0x290|   69 38 78 31 36 2e 6d 61 78 5f 73 2d 69 38 78| i8x16.max_s-i8x|                b: "i8x16.max_s-i8x16.min_s" 0x291-0x2a7.7 (23)
0x2a0|31 36 2e 6d 69 6e 5f 73                        |16.min_s        |
     |                                               |                |              d{}: 0x2a8-0x2a9.7 (2)
0x2a0|                        00                     |        .       |                tag: "funcidx" (0x0) 0x2a8-0x2a8.7 (1)
0x2a0|                           16                  |         .      |                x: 22 (valid) 0x2a9-0x2a9.7 (1)
     |                                               |                |            [23]{}: ex 0x2aa-0x2c1.7 (24)
     |                                               |                |              nm{}: 0x2aa-0x2bf.7 (22)
0x2a0|                              15               |          .     |                n: 21 (valid) 0x2aa-0x2aa.7 (1)
0x2a0|                                 69 38 78 31 36|           i8x16|                b: "i8x16.max_s-i8x16.abs" 0x2ab-0x2bf.7 (21)
0x2b0|2e 6d 61 78 5f 73 2d 69 38 78 31 36 2e 61 62 73|.max_s-i8x16.abs|
     |                                               |                |              d{}: 0x2c0-0x2c1.7 (2)
0x2c0|00                                             |.               |                tag: "funcidx" (0x0) 0x2c0-0x2c0.7 (1)
0x2c0|   17                                          | .              |                x: 23 (valid) 0x2c1-0x2c1.7 (1)
     |                                               |                |            [24]{}: ex 0x2c2-0x2d9.7 (24)
     |                                               |                |              nm{}: 0x2c2-0x2d7.7 (22)
0x2c0|      15                                       |  .             |                n: 21 (valid) 0x2c2-0x2c2.7 (1)
0x2c0|         69 38 78 31 36 2e 61 62 73 2d 69 38 78|   i8x16.abs-i8x|                b: "i8x16.abs-i8x16.max_s" 0x2c3-0x2d7.7 (21)
0x2d0|31 36 2e 6d 61 78 5f 73                        |16.max_s        |
     |                                               |                |              d{}: 0x2d8-0x2d9.7 (2)
0x2d0|                        00                     |        .       |                tag: "funcidx" (0x0) 0x2d8-0x2d8.7 (1)
0x2d0|                           18                  |         .      |                x: 24 (valid) 0x2d9-0x2d9.7 (1)
     |                                               |                |            [25]{}: ex 0x2da-0x2f4.7 (27)
     |                                               |                |              nm{}: 0x2da-0x2f2.7 (25)
0x2d0|                              18               |          .     |                n: 24 (valid) 0x2da-0x2da.7 (1)
0x2d0|                                 69 38 78 31 36|           i8x16|                b: "i8x16.max_s-i8x16.popcnt" 0x2db-0x2f2.7 (24)
0x2e0|2e 6d 61 78 5f 73 2d 69 38 78 31 36 2e 70 6f 70|.max_s-i8x16.pop|
0x2f0|63 6e 74                                       |cnt             |
     |                                               |                |              d{}: 0x2f3-0x2f4.7 (2)
0x2f0|         00                                    |   .            |                tag: "funcidx" (0x0) 0x2f3-0x2f3.7 (1)
0x2f0|            19                                 |    .           |                x: 25 (valid) 0x2f4-0x2f4.7 (1)
     |                                               |                |            [26]{}: ex 0x2f5-0x30f.7 (27)
     |                                               |                |              nm{}: 0x2f5-0x30d.7 (25)
0x2f0|               18                              |     .          |                n: 24 (valid) 0x2f5-0x2f5.7 (1)
0x2f0|                  69 38 78 31 36 2e 70 6f 70 63|      i8x16.popc|                b: "i8x16.popcnt-i8x16.max_s" 0x2f6-0x30d.7 (24)
0x300|6e 74 2d 69 38 78 31 36 2e 6d 61 78 5f 73      |nt-i8x16.max_s  |
     |                                               |                |              d{}: 0x30e-0x30f.7 (2)
0x300|                                          00   |              . |                tag: "funcidx" (0x0) 0x30e-0x30e.7 (1)
0x300|                                             1a|               .|                x: 26 (valid) 0x30f-0x30f.7 (1)
     |                                               |                |            [27]{}: ex 0x310-0x32a.7 (27)
     |                                               |                |              nm{}: 0x310-0x328.7 (25)
0x310|18                                             |.               |                n: 24 (valid) 0x310-0x310.7 (1)
0x310|   69 38 78 31 36 2e 6d 61 78 5f 75 2d 69 38 78| i8x16.max_u-i8x|                b: "i8x16.max_u-i8x16.avgr_u" 0x311-0x328.7 (24)
0x320|31 36 2e 61 76 67 72 5f 75                     |16.avgr_u       |
     |                                               |                |              d{}: 0x329-0x32a.7 (2)
0x320|                           00                  |         .      |                tag: "funcidx" (0x0) 0x329-0x329.7 (1)
0x320|                              1b               |          .     |                x: 27 (valid) 0x32a-0x32a.7 (1)
     |                                               |                |            [28]{}: ex 0x32b-0x344.7 (26)
     |                                               |                |              nm{}: 0x32b-0x342.7 (24)
0x320|                                 17            |           .    |                n: 23 (valid) 0x32b-0x32b.7 (1)
0x320|                                    69 38 78 31|            i8x1|                b: "i8x16.max_u-i8x16.max_u" 0x32c-0x342.7 (23)
0x330|36 2e 6d 61 78 5f 75 2d 69 38 78 31 36 2e 6d 61|6.max_u-i8x16.ma|
0x340|78 5f 75                                       |x_u             |
     |                                               |                |              d{}: 0x343-0x344.7 (2)
0x340|         00                                    |   .            |                tag: "funcidx" (0x0) 0x343-0x343.7 (1)
0x340|            1c                                 |    .           |                x: 28 (valid) 0x344-0x344.7 (1)
     |                                               |                |            [29]{}: ex 0x345-0x35e.7 (26)
     |                                               |                |              nm{}: 0x345-0x35c.7 (24)
0x340|               17                              |     .          |                n: 23 (valid) 0x345-0x345.7 (1)
0x340|                  69 38 78 31 36 2e 6d 61 78 5f|      i8x16.max_|                b: "i8x16.max_u-i8x16.max_s" 0x346-0x35c.7 (23)
0x350|75 2d 69 38 78 31 36 2e 6d 61 78 5f 73         |u-i8x16.max_s   |
     |                                               |                |              d{}: 0x35d-0x35e.7 (2)
0x350|                                       00      |             .  |                tag: "funcidx" (0x0) 0x35d-0x35d.7 (1)
0x350|                                          1d   |              . |                x: 29 (valid) 0x35e-0x35e.7 (1)
     |                                               |                |            [30]{}: ex 0x35f-0x378.7 (26)
     |                                               |                |              nm{}: 0x35f-0x376.7 (24)
0x350|                                             17|               .|                n: 23 (valid) 0x35f-0x35f.7 (1)
0x360|69 38 78 31 36 2e 6d 61 78 5f 75 2d 69 38 78 31|i8x16.max_u-i8x1|                b: "i8x16.max_u-i8x16.min_u" 0x360-0x376.7 (23)
0x370|36 2e 6d 69 6e 5f 75                           |6.min_u         |
     |                                               |                |              d{}: 0x377-0x378.7 (2)
0x370|                     00                        |       .        |                tag: "funcidx" (0x0) 0x377-0x377.7 (1)
0x370|                        1e                     |        .       |                x: 30 (valid) 0x378-0x378.7 (1)
     |                                               |                |            [31]{}: ex 0x379-0x392.7 (26)
     |                                               |                |              nm{}: 0x379-0x390.7 (24)
0x370|                           17                  |         .      |                n: 23 (valid) 0x379-0x379.7 (1)
0x370|                              69 38 78 31 36 2e|          i8x16.|                b: "i8x16.max_u-i8x16.min_s" 0x37a-0x390.7 (23)
0x380|6d 61 78 5f 75 2d 69 38 78 31 36 2e 6d 69 6e 5f|max_u-i8x16.min_|
0x390|73                                             |s               |
     |                                               |                |              d{}: 0x391-0x392.7 (2)
0x390|   00                                          | .              |                tag: "funcidx" (0x0) 0x391-0x391.7 (1)
0x390|      1f                                       |  .             |                x: 31 (valid) 0x392-0x392.7 (1)
     |                                               |                |            [32]{}: ex 0x393-0x3aa.7 (24)
     |                                               |                |              nm{}: 0x393-0x3a8.7 (22)
0x390|         15                                    |   .            |                n: 21 (valid) 0x393-0x393.7 (1)
0x390|            69 38 78 31 36 2e 6d 61 78 5f 75 2d|    i8x16.max_u-|                b: "i8x16.max_u-i8x16.abs" 0x394-0x3a8.7 (21)
0x3a0|69 38 78 31 36 2e 61 62 73                     |i8x16.abs       |
     |                                               |                |              d{}: 0x3a9-0x3aa.7 (2)
0x3a0|                           00                  |         .      |                tag: "funcidx" (0x0) 0x3a9-0x3a9.7 (1)
0x3a0|                              20               |                |                x: 32 (valid) 0x3aa-0x3aa.7 (1)
     |                                               |                |            [33]{}: ex 0x3ab-0x3c2.7 (24)
     |                                               |                |              nm{}: 0x3ab-0x3c0.7 (22)
0x3a0|                                 15            |           .    |                n: 21 (valid) 0x3ab-0x3ab.7 (1)
0x3a0|                                    69 38 78 31|            i8x1|                b: "i8x16.abs-i8x16.max_u" 0x3ac-0x3c0.7 (21)
0x3b0|36 2e 61 62 73 2d 69 38 78 31 36 2e 6d 61 78 5f|6.abs-i8x16.max_|
0x3c0|75                                             |u               |
     |                                               |                |              d{}: 0x3c1-0x3c2.7 (2)
0x3c0|   00                                          | .              |                tag: "funcidx" (0x0) 0x3c1-0x3c1.7 (1)
0x3c0|      21                                       |  !             |                x: 33 (valid) 0x3c2-0x3c2.7 (1)
     |                                               |                |            [34]{}: ex 0x3c3-0x3dd.7 (27)
     |                                               |                |              nm{}: 0x3c3-0x3db.7 (25)
0x3c0|         18                                    |   .            |                n: 24 (valid) 0x3c3-0x3c3.7 (1)
0x3c0|            69 38 78 31 36 2e 6d 61 78 5f 75 2d|    i8x16.max_u-|                b: "i8x16.max_u-i8x16.popcnt" 0x3c4-0x3db.7 (24)
0x3d0|69 38 78 31 36 2e 70 6f 70 63 6e 74            |i8x16.popcnt    |
     |                                               |                |              d{}: 0x3dc-0x3dd.7 (2)
0x3d0|                                    00         |            .   |                tag: "funcidx" (0x0) 0x3dc-0x3dc.7 (1)
0x3d0|                                       22      |             "  |                x: 34 (valid) 0x3dd-0x3dd.7 (1)
     |                                               |                |            [35]{}: ex 0x3de-0x3f8.7 (27)
     |                                               |                |              nm{}: 0x3de-0x3f6.7 (25)
0x3d0|                                          18   |              . |                n: 24 (valid) 0x3de-0x3de.7 (1)
0x3d0|                                             69|               i|                b: "i8x16.popcnt-i8x16.max_u" 0x3df-0x3f6.7 (24)
0x3e0|38 78 31 36 2e 70 6f 70 63 6e 74 2d 69 38 78 31|8x16.popcnt-i8x1|
0x3f0|36 2e 6d 61 78 5f 75                           |6.max_u         |
     |                                               |                |              d{}: 0x3f7-0x3f8.7 (2)
0x3f0|                     00                        |       .        |                tag: "funcidx" (0x0) 0x3f7-0x3f7.7 (1)
0x3f0|                        23                     |        #       |                x: 35 (valid) 0x3f8-0x3f8.7 (1)
     |                                               |                |            [36]{}: ex 0x3f9-0x414.7 (28)
     |                                               |                |              nm{}: 0x3f9-0x412.7 (26)
0x3f0|                           19                  |         .      |                n: 25 (valid) 0x3f9-0x3f9.7 (1)
0x3f0|                              69 38 78 31 36 2e|          i8x16.|                b: "i8x16.avgr_u-i8x16.avgr_u" 0x3fa-0x412.7 (25)
0x400|61 76 67 72 5f 75 2d 69 38 78 31 36 2e 61 76 67|avgr_u-i8x16.avg|
0x410|72 5f 75                                       |r_u             |
     |                                               |                |              d{}: 0x413-0x414.7 (2)
0x410|         00                                    |   .            |                tag: "funcidx" (0x0) 0x413-0x413.7 (1)
0x410|            24                                 |    $           |                x: 36 (valid) 0x414-0x414.7 (1)
     |                                               |                |            [37]{}: ex 0x415-0x42f.7 (27)
     |                                               |                |              nm{}: 0x415-0x42d.7 (25)
0x410|               18                              |     .          |                n: 24 (valid) 0x415-0x415.7 (1)
0x410|                  69 38 78 31 36 2e 61 76 67 72|      i8x16.avgr|                b: "i8x16.avgr_u-i8x16.max_u" 0x416-0x42d.7 (24)
0x420|5f 75 2d 69 38 78 31 36 2e 6d 61 78 5f 75      |_u-i8x16.max_u  |
     |                                               |                |              d{}: 0x42e-0x42f.7 (2)
0x420|                                          00   |              . |                tag: "funcidx" (0x0) 0x42e-0x42e.7 (1)
0x420|                                             25|               %|                x: 37 (valid) 0x42f-0x42f.7 (1)
     |                                               |                |            [38]{}: ex 0x430-0x44a.7 (27)
     |                                               |                |              nm{}: 0x430-0x448.7 (25)
0x430|18                                             |.               |                n: 24 (valid) 0x430-0x430.7 (1)
0x430|   69 38 78 31 36 2e 61 76 67 72 5f 75 2d 69 38| i8x16.avgr_u-i8|                b: "i8x16.avgr_u-i8x16.max_s" 0x431-0x448.7 (24)
0x440|78 31 36 2e 6d 61 78 5f 73                     |x16.max_s       |
     |                                               |                |              d{}: 0x449-0x44a.7 (2)
0x440|                           00                  |         .      |                tag: "funcidx" (0x0) 0x449-0x449.7 (1)
0x440|                              26               |          &     |                x: 38 (valid) 0x44a-0x44a.7 (1)
     |                                               |                |            [39]{}: ex 0x44b-0x465.7 (27)
     |                                               |                |              nm{}: 0x44b-0x463.7 (25)
0x440|                                 18            |           .    |                n: 24 (valid) 0x44b-0x44b.7 (1)
0x440|                                    69 38 78 31|            i8x1|                b: "i8x16.avgr_u-i8x16.min_u" 0x44c-0x463.7 (24)
0x450|36 2e 61 76 67 72 5f 75 2d 69 38 78 31 36 2e 6d|6.avgr_u-i8x16.m|
0x460|69 6e 5f 75                                    |in_u            |
     |                                               |                |              d{}: 0x464-0x465.7 (2)
0x460|            00                                 |    .           |                tag: "funcidx" (0x0) 0x464-0x464.7 (1)
0x460|               27                              |     '          |                x: 39 (valid) 0x465-0x465.7 (1)
     |                                               |                |            [40]{}: ex 0x466-0x480.7 (27)
     |                                               |                |              nm{}: 0x466-0x47e.7 (25)
0x460|                  18                           |      .         |                n: 24 (valid) 0x466-0x466.7 (1)
0x460|                     69 38 78 31 36 2e 61 76 67|       i8x16.avg|                b: "i8x16.avgr_u-i8x16.min_s" 0x467-0x47e.7 (24)
0x470|72 5f 75 2d 69 38 78 31 36 2e 6d 69 6e 5f 73   |r_u-i8x16.min_s |
     |                                               |                |              d{}: 0x47f-0x480.7 (2)
0x470|                                             00|               .|                tag: "funcidx" (0x0) 0x47f-0x47f.7 (1)
0x480|28                                             |(               |                x: 40 (valid) 0x480-0x480.7 (1)
     |                                               |                |            [41]{}: ex 0x481-0x499.7 (25)
     |                                               |                |              nm{}: 0x481-0x497.7 (23)
0x480|   16                                          | .              |                n: 22 (valid) 0x481-0x481.7 (1)
0x480|      69 38 78 31 36 2e 61 76 67 72 5f 75 2d 69|  i8x16.avgr_u-i|                b: "i8x16.avgr_u-i8x16.abs" 0x482-0x497.7 (22)
0x490|38 78 31 36 2e 61 62 73                        |8x16.abs        |
     |                                               |                |              d{}: 0x498-0x499.7 (2)
0x490|                        00                     |        .       |                tag: "funcidx" (0x0) 0x498-0x498.7 (1)
0x490|                           29                  |         )      |                x: 41 (valid) 0x499-0x499.7 (1)
     |                                               |                |            [42]{}: ex 0x49a-0x4b2.7 (25)
     |                                               |                |              nm{}: 0x49a-0x4b0.7 (23)
0x490|                              16               |          .     |                n: 22 (valid) 0x49a-0x49a.7 (1)
0x490|                                 69 38 78 31 36|           i8x16|                b: "i8x16.abs-i8x16.avgr_u" 0x49b-0x4b0.7 (22)
0x4a0|2e 61 62 73 2d 69 38 78 31 36 2e 61 76 67 72 5f|.abs-i8x16.avgr_|
0x4b0|75                                             |u               |
     |                                               |                |              d{}: 0x4b1-0x4b2.7 (2)
0x4b0|   00                                          | .              |                tag: "funcidx" (0x0) 0x4b1-0x4b1.7 (1)
0x4b0|      2a                                       |  *             |                x: 42 (valid) 0x4b2-0x4b2.7 (1)
     |                                               |                |            [43]{}: ex 0x4b3-0x4ce.7 (28)
     |                                               |                |              nm{}: 0x4b3-0x4cc.7 (26)
0x4b0|         19                                    |   .            |                n: 25 (valid) 0x4b3-0x4b3.7 (1)
0x4b0|            69 38 78 31 36 2e 61 76 67 72 5f 75|    i8x16.avgr_u|                b: "i8x16.avgr_u-i8x16.popcnt" 0x4b4-0x4cc.7 (25)
0x4c0|2d 69 38 78 31 36 2e 70 6f 70 63 6e 74         |-i8x16.popcnt   |
     |                                               |                |              d{}: 0x4cd-0x4ce.7 (2)
0x4c0|                                       00      |             .  |                tag: "funcidx" (0x0) 0x4cd-0x4cd.7 (1)
0x4c0|                                          2b   |              + |                x: 43 (valid) 0x4ce-0x4ce.7 (1)
     |                                               |                |            [44]{}: ex 0x4cf-0x4ea.7 (28)
     |                                               |                |              nm{}: 0x4cf-0x4e8.7 (26)
0x4c0|                                             19|               .|                n: 25 (valid) 0x4cf-0x4cf.7 (1)
0x4d0|69 38 78 31 36 2e 70 6f 70 63 6e 74 2d 69 38 78|i8x16.popcnt-i8x|                b: "i8x16.popcnt-i8x16.avgr_u" 0x4d0-0x4e8.7 (25)
0x4e0|31 36 2e 61 76 67 72 5f 75                     |16.avgr_u       |
     |                                               |                |              d{}: 0x4e9-0x4ea.7 (2)
0x4e0|                           00                  |         .      |                tag: "funcidx" (0x0) 0x4e9-0x4e9.7 (1)
0x4e0|                              2c               |          ,     |                x: 44 (valid) 0x4ea-0x4ea.7 (1)
     |                                               |                |            [45]{}: ex 0x4eb-0x503.7 (25)
     |                                               |                |              nm{}: 0x4eb-0x501.7 (23)
0x4e0|                                 16            |           .    |                n: 22 (valid) 0x4eb-0x4eb.7 (1)
0x4e0|                                    69 38 78 31|            i8x1|                b: "i8x16.abs-i8x16.popcnt" 0x4ec-0x501.7 (22)
0x4f0|36 2e 61 62 73 2d 69 38 78 31 36 2e 70 6f 70 63|6.abs-i8x16.popc|
0x500|6e 74                                          |nt              |
     |                                               |                |              d{}: 0x502-0x503.7 (2)
0x500|      00                                       |  .             |                tag: "funcidx" (0x0) 0x502-0x502.7 (1)
0x500|         2d                                    |   -            |                x: 45 (valid) 0x503-0x503.7 (1)
     |                                               |                |            [46]{}: ex 0x504-0x519.7 (22)
     |                                               |                |              nm{}: 0x504-0x517.7 (20)
0x500|            13                                 |    .           |                n: 19 (valid) 0x504-0x504.7 (1)
0x500|               69 38 78 31 36 2e 61 62 73 2d 69|     i8x16.abs-i|                b: "i8x16.abs-i8x16.abs" 0x505-0x517.7 (19)
0x510|38 78 31 36 2e 61 62 73                        |8x16.abs        |
     |                                               |                |              d{}: 0x518-0x519.7 (2)
0x510|                        00                     |        .       |                tag: "funcidx" (0x0) 0x518-0x518.7 (1)
0x510|                           2e                  |         .      |                x: 46 (valid) 0x519-0x519.7 (1)
     |                                               |                |            [47]{}: ex 0x51a-0x535.7 (28)
     |                                               |                |              nm{}: 0x51a-0x533.7 (26)
0x510|                              19               |          .     |                n: 25 (valid) 0x51a-0x51a.7 (1)
0x510|                                 69 38 78 31 36|           i8x16|                b: "i8x16.popcnt-i8x16.popcnt" 0x51b-0x533.7 (25)
0x520|2e 70 6f 70 63 6e 74 2d 69 38 78 31 36 2e 70 6f|.popcnt-i8x16.po|
0x530|70 63 6e 74                                    |pcnt            |
     |                                               |                |              d{}: 0x534-0x535.7 (2)
0x530|            00                                 |    .           |                tag: "funcidx" (0x0) 0x534-0x534.7 (1)
0x530|               2f                              |     /          |                x: 47 (valid) 0x535-0x535.7 (1)
     |                                               |                |            [48]{}: ex 0x536-0x54e.7 (25)
     |                                               |                |              nm{}: 0x536-0x54c.7 (23)
0x530|                  16                           |      .         |                n: 22 (valid) 0x536-0x536.7 (1)
0x530|                     69 38 78 31 36 2e 70 6f 70|       i8x16.pop|                b: "i8x16.popcnt-i8x16.abs" 0x537-0x54c.7 (22)
0x540|63 6e 74 2d 69 38 78 31 36 2e 61 62 73         |cnt-i8x16.abs   |
     |                                               |                |              d{}: 0x54d-0x54e.7 (2)
0x540|                                       00      |             .  |                tag: "funcidx" (0x0) 0x54d-0x54d.7 (1)
0x540|                                          30   |              0 |                x: 48 (valid) 0x54e-0x54e.7 (1)
     |                                               |                |    [3]{}: section 0x54f-0x797.7 (585)
0x540|                                             0a|               .|      id: "code_section" (10) 0x54f-0x54f.7 (1)
0x550|c6 04                                          |..              |      size: 582 (valid) 0x550-0x551.7 (2)
     |                                               |                |      content{}: 0x552-0x797.7 (582)
     |                                               |                |        code{}: 0x552-0x797.7 (582)
0x550|      31                                       |  1             |          n: 49 (valid) 0x552-0x552.7 (1)
     |                                               |                |          x[0:49]: 0x553-0x797.7 (581)
     |                                               |                |            [0]{}: code 0x553-0x55f.7 (13)
0x550|         0c                                    |   .            |              size: 12 (valid) 0x553-0x553.7 (1)
     |                                               |                |              code{}: 0x554-0x55f.7 (12)
     |                                               |                |                t{}: 0x554-0x554.7 (1)
0x550|            00                                 |    .           |                  n: 0 (valid) 0x554-0x554.7 (1)
     |                                               |                |                  x[0:0]: 0x555-NA (0)
     |                                               |                |                e[0:6]: 0x555-0x55f.7 (11)
     |                                               |                |                  [0]{}: in 0x555-0x556.7 (2)
0x550|               20                              |                |                    opcode: "local.get" (0x20) 0x555-0x555.7 (1)
0x550|                  00                           |      .         |                    x: 0 (valid) 0x556-0x556.7 (1)
     |                                               |                |                  [1]{}: in 0x557-0x558.7 (2)
0x550|                     20                        |                |                    opcode: "local.get" (0x20) 0x557-0x557.7 (1)
0x550|                        01                     |        .       |                    x: 1 (valid) 0x558-0x558.7 (1)
     |                                               |                |                  [2]{}: in 0x559-0x55a.7 (2)
0x550|                           fd                  |         .      |                    opcode: "vector" (0xfd) 0x559-0x559.7 (1)
0x550|                              7b               |          {     |                    v_opcode: "i8x16.avgr_u" (123) 0x55a-0x55a.7 (1)
     |                                               |                |                  [3]{}: in 0x55b-0x55c.7 (2)
0x550|                                 20            |                |                    opcode: "local.get" (0x20) 0x55b-0x55b.7 (1)
0x550|                                    02         |            .   |                    x: 2 (valid) 0x55c-0x55c.7 (1)
     |                                               |                |                  [4]{}: in 0x55d-0x55e.7 (2)
0x550|                                       fd      |             .  |                    opcode: "vector" (0xfd) 0x55d-0x55d.7 (1)
0x550|                                          76   |              v |                    v_opcode: "i8x16.min_s" (118) 0x55e-0x55e.7 (1)
     |                                               |                |                  [5]{}: in 0x55f-0x55f.7 (1)
0x550|                                             0b|               .|                    opcode: "end" (0xb) 0x55f-0x55f.7 (1)
     |                                               |                |            [1]{}: code 0x560-0x56c.7 (13)
0x560|0c                                             |.               |              size: 12 (valid) 0x560-0x560.7 (1)
     |                                               |                |              code{}: 0x561-0x56c.7 (12)
     |                                               |                |                t{}: 0x561-0x561.7 (1)
0x560|   00                                          | .              |                  n: 0 (valid) 0x561-0x561.7 (1)
     |                                               |                |                  x[0:0]: 0x562-NA (0)
     |                                               |                |                e[0:6]: 0x562-0x56c.7 (11)
     |                                               |                |                  [0]{}: in 0x562-0x563.7 (2)
0x560|      20                                       |                |                    opcode: "local.get" (0x20) 0x562-0x562.7 (1)
0x560|         00                                    |   .            |                    x: 0 (valid) 0x563-0x563.7 (1)
     |                                               |                |                  [1]{}: in 0x564-0x565.7 (2)
0x560|            20                                 |                |                    opcode: "local.get" (0x20) 0x564-0x564.7 (1)
0x560|               01                              |     .          |                    x: 1 (valid) 0x565-0x565.7 (1)
     |                                               |                |                  [2]{}: in 0x566-0x567.7 (2)
0x560|                  fd                           |      .         |                    opcode: "vector" (0xfd) 0x566-0x566.7 (1)
0x560|                     79                        |       y        |                    v_opcode: "i8x16.max_u" (121) 0x567-0x567.7 (1)
     |                                               |                |                  [3]{}: in 0x568-0x569.7 (2)
0x560|                        20                     |                |                    opcode: "local.get" (0x20) 0x568-0x568.7 (1)
0x560|                           02                  |         .      |                    x: 2 (valid) 0x569-0x569.7 (1)
     |                                               |                |                  [4]{}: in 0x56a-0x56b.7 (2)
0x560|                              fd               |          .     |                    opcode: "vector" (0xfd) 0x56a-0x56a.7 (1)
0x560|                                 76            |           v    |                    v_opcode: "i8x16.min_s" (118) 0x56b-0x56b.7 (1)
     |                                               |                |                  [5]{}: in 0x56c-0x56c.7 (1)
0x560|                                    0b         |            .   |                    opcode: "end" (0xb) 0x56c-0x56c.7 (1)
     |                                               |                |            [2]{}: code 0x56d-0x579.7 (13)
0x560|                                       0c      |             .  |              size: 12 (valid) 0x56d-0x56d.7 (1)
     |                                               |                |              code{}: 0x56e-0x579.7 (12)
     |                                               |                |                t{}: 0x56e-0x56e.7 (1)
0x560|                                          00   |              . |                  n: 0 (valid) 0x56e-0x56e.7 (1)
     |                                               |                |                  x[0:0]: 0x56f-NA (0)
     |                                               |                |                e[0:6]: 0x56f-0x579.7 (11)
     |                                               |                |                  [0]{}: in 0x56f-0x570.7 (2)
0x560|                                             20|                |                    opcode: "local.get" (0x20) 0x56f-0x56f.7 (1)
0x570|00                                             |.               |                    x: 0 (valid) 0x570-0x570.7 (1)
     |                                               |                |                  [1]{}: in 0x571-0x572.7 (2)
0x570|   20                                          |                |                    opcode: "local.get" (0x20) 0x571-0x571.7 (1)
0x570|      01                                       |  .             |                    x: 1 (valid) 0x572-0x572.7 (1)
     |                                               |                |                  [2]{}: in 0x573-0x574.7 (2)
0x570|         fd                                    |   .            |                    opcode: "vector" (0xfd) 0x573-0x573.7 (1)
0x570|            78                                 |    x           |                    v_opcode: "i8x16.max_s" (120) 0x574-0x574.7 (1)
     |                                               |                |                  [3]{}: in 0x575-0x576.7 (2)
0x570|               20                              |                |                    opcode: "local.get" (0x20) 0x575-0x575.7 (1)
0x570|                  02                           |      .         |                    x: 2 (valid) 0x576-0x576.7 (1)
     |                                               |                |                  [4]{}: in 0x577-0x578.7 (2)
0x570|                     fd                        |       .        |                    opcode: "vector" (0xfd) 0x577-0x577.7 (1)
0x570|                        76                     |        v       |                    v_opcode: "i8x16.min_s" (118) 0x578-0x578.7 (1)
     |                                               |                |                  [5]{}: in 0x579-0x579.7 (1)
0x570|                           0b                  |         .      |                    opcode: "end" (0xb) 0x579-0x579.7 (1)
     |                                               |                |            [3]{}: code 0x57a-0x586.7 (13)
0x570|                              0c               |          .     |              size: 12 (valid) 0x57a-0x57a.7 (1)
     |                                               |                |              code{}: 0x57b-0x586.7 (12)
     |                                               |                |                t{}: 0x57b-0x57b.7 (1)
0x570|                                 00            |           .    |                  n: 0 (valid) 0x57b-0x57b.7 (1)
     |                                               |                |                  x[0:0]: 0x57c-NA (0)
     |                                               |                |                e[0:6]: 0x57c-0x586.7 (11)
     |                                               |                |                  [0]{}: in 0x57c-0x57d.7 (2)
0x570|                                    20         |                |                    opcode: "local.get" (0x20) 0x57c-0x57c.7 (1)
0x570|                                       00      |             .  |                    x: 0 (valid) 0x57d-0x57d.7 (1)
     |                                               |                |                  [1]{}: in 0x57e-0x57f.7 (2)
0x570|                                          20   |                |                    opcode: "local.get" (0x20) 0x57e-0x57e.7 (1)
0x570|                                             01|               .|                    x: 1 (valid) 0x57f-0x57f.7 (1)
     |                                               |                |                  [2]{}: in 0x580-0x581.7 (2)
0x580|fd                                             |.               |                    opcode: "vector" (0xfd) 0x580-0x580.7 (1)
0x580|   77                                          | w              |                    v_opcode: "i8x16.min_u" (119) 0x581-0x581.7 (1)
     |                                               |                |                  [3]{}: in 0x582-0x583.7 (2)
0x580|      20                                       |                |                    opcode: "local.get" (0x20) 0x582-0x582.7 (1)
0x580|         02                                    |   .            |                    x: 2 (valid) 0x583-0x583.7 (1)
     |                                               |                |                  [4]{}: in 0x584-0x585.7 (2)
0x580|            fd                                 |    .           |                    opcode: "vector" (0xfd) 0x584-0x584.7 (1)
0x580|               76                              |     v          |                    v_opcode: "i8x16.min_s" (118) 0x585-0x585.7 (1)
     |                                               |                |                  [5]{}: in 0x586-0x586.7 (1)
0x580|                  0b                           |      .         |                    opcode: "end" (0xb) 0x586-0x586.7 (1)
     |                                               |                |            [4]{}: code 0x587-0x593.7 (13)
0x580|                     0c                        |       .        |              size: 12 (valid) 0x587-0x587.7 (1)
     |                                               |                |              code{}: 0x588-0x593.7 (12)
     |                                               |                |                t{}: 0x588-0x588.7 (1)
0x580|                        00                     |        .       |                  n: 0 (valid) 0x588-0x588.7 (1)
     |                                               |                |                  x[0:0]: 0x589-NA (0)
     |                                               |                |                e[0:6]: 0x589-0x593.7 (11)
     |                                               |                |                  [0]{}: in 0x589-0x58a.7 (2)
0x580|                           20                  |                |                    opcode: "local.get" (0x20) 0x589-0x589.7 (1)
0x580|                              00               |          .     |                    x: 0 (valid) 0x58a-0x58a.7 (1)
     |                                               |                |                  [1]{}: in 0x58b-0x58c.7 (2)
0x580|                                 20            |                |                    opcode: "local.get" (0x20) 0x58b-0x58b.7 (1)
0x580|                                    01         |            .   |                    x: 1 (valid) 0x58c-0x58c.7 (1)
     |                                               |                |                  [2]{}: in 0x58d-0x58e.7 (2)
0x580|                                       fd      |             .  |                    opcode: "vector" (0xfd) 0x58d-0x58d.7 (1)
0x580|                                          76   |              v |                    v_opcode: "i8x16.min_s" (118) 0x58e-0x58e.7 (1)
     |                                               |                |                  [3]{}: in 0x58f-0x590.7 (2)
0x580|                                             20|                |                    opcode: "local.get" (0x20) 0x58f-0x58f.7 (1)
0x590|02                                             |.               |                    x: 2 (valid) 0x590-0x590.7 (1)
     |                                               |                |                  [4]{}: in 0x591-0x592.7 (2)
0x590|   fd                                          | .              |                    opcode: "vector" (0xfd) 0x591-0x591.7 (1)
0x590|      76                                       |  v             |                    v_opcode: "i8x16.min_s" (118) 0x592-0x592.7 (1)
     |                                               |                |                  [5]{}: in 0x593-0x593.7 (1)
0x590|         0b                                    |   .            |                    opcode: "end" (0xb) 0x593-0x593.7 (1)
     |                                               |                |            [5]{}: code 0x594-0x59e.7 (11)
0x590|            0a                                 |    .           |              size: 10 (valid) 0x594-0x594.7 (1)
     |                                               |                |              code{}: 0x595-0x59e.7 (10)
     |                                               |                |                t{}: 0x595-0x595.7 (1)
0x590|               00                              |     .          |                  n: 0 (valid) 0x595-0x595.7 (1)
     |                                               |                |                  x[0:0]: 0x596-NA (0)
     |                                               |                |                e[0:5]: 0x596-0x59e.7 (9)
     |                                               |                |                  [0]{}: in 0x596-0x597.7 (2)
0x590|                  20                           |                |                    opcode: "local.get" (0x20) 0x596-0x596.7 (1)
0x590|                     00                        |       .        |                    x: 0 (valid) 0x597-0x597.7 (1)
     |                                               |                |                  [1]{}: in 0x598-0x599.7 (2)
0x590|                        fd                     |        .       |                    opcode: "vector" (0xfd) 0x598-0x598.7 (1)
0x590|                           60                  |         `      |                    v_opcode: "i8x16.abs" (96) 0x599-0x599.7 (1)
     |                                               |                |                  [2]{}: in 0x59a-0x59b.7 (2)
0x590|                              20               |                |                    opcode: "local.get" (0x20) 0x59a-0x59a.7 (1)
0x590|                                 01            |           .    |                    x: 1 (valid) 0x59b-0x59b.7 (1)
     |                                               |                |                  [3]{}: in 0x59c-0x59d.7 (2)
0x590|                                    fd         |            .   |                    opcode: "vector" (0xfd) 0x59c-0x59c.7 (1)
0x590|                                       76      |             v  |                    v_opcode: "i8x16.min_s" (118) 0x59d-0x59d.7 (1)
     |                                               |                |                  [4]{}: in 0x59e-0x59e.7 (1)
0x590|                                          0b   |              . |                    opcode: "end" (0xb) 0x59e-0x59e.7 (1)
     |                                               |                |            [6]{}: code 0x59f-0x5a9.7 (11)
0x590|                                             0a|               .|              size: 10 (valid) 0x59f-0x59f.7 (1)
     |                                               |                |              code{}: 0x5a0-0x5a9.7 (10)
     |                                               |                |                t{}: 0x5a0-0x5a0.7 (1)
0x5a0|00                                             |.               |                  n: 0 (valid) 0x5a0-0x5a0.7 (1)
     |                                               |                |                  x[0:0]: 0x5a1-NA (0)
     |                                               |                |                e[0:5]: 0x5a1-0x5a9.7 (9)
     |                                               |                |                  [0]{}: in 0x5a1-0x5a2.7 (2)
0x5a0|   20                                          |                |                    opcode: "local.get" (0x20) 0x5a1-0x5a1.7 (1)
0x5a0|      00                                       |  .             |                    x: 0 (valid) 0x5a2-0x5a2.7 (1)
     |                                               |                |                  [1]{}: in 0x5a3-0x5a4.7 (2)
0x5a0|         20                                    |                |                    opcode: "local.get" (0x20) 0x5a3-0x5a3.7 (1)
0x5a0|            01                                 |    .           |                    x: 1 (valid) 0x5a4-0x5a4.7 (1)
     |                                               |                |                  [2]{}: in 0x5a5-0x5a6.7 (2)
0x5a0|               fd                              |     .          |                    opcode: "vector" (0xfd) 0x5a5-0x5a5.7 (1)
0x5a0|                  76                           |      v         |                    v_opcode: "i8x16.min_s" (118) 0x5a6-0x5a6.7 (1)
     |                                               |                |                  [3]{}: in 0x5a7-0x5a8.7 (2)
0x5a0|                     fd                        |       .        |                    opcode: "vector" (0xfd) 0x5a7-0x5a7.7 (1)
0x5a0|                        60                     |        `       |                    v_opcode: "i8x16.abs" (96) 0x5a8-0x5a8.7 (1)
     |                                               |                |                  [4]{}: in 0x5a9-0x5a9.7 (1)
0x5a0|                           0b                  |         .      |                    opcode: "end" (0xb) 0x5a9-0x5a9.7 (1)
     |                                               |                |            [7]{}: code 0x5aa-0x5b4.7 (11)
0x5a0|                              0a               |          .     |              size: 10 (valid) 0x5aa-0x5aa.7 (1)
     |                                               |                |              code{}: 0x5ab-0x5b4.7 (10)
     |                                               |                |                t{}: 0x5ab-0x5ab.7 (1)
0x5a0|                                 00            |           .    |                  n: 0 (valid) 0x5ab-0x5ab.7 (1)
     |                                               |                |                  x[0:0]: 0x5ac-NA (0)
     |                                               |                |                e[0:5]: 0x5ac-0x5b4.7 (9)
     |                                               |                |                  [0]{}: in 0x5ac-0x5ad.7 (2)
0x5a0|                                    20         |                |                    opcode: "local.get" (0x20) 0x5ac-0x5ac.7 (1)
0x5a0|                                       00      |             .  |                    x: 0 (valid) 0x5ad-0x5ad.7 (1)
     |                                               |                |                  [1]{}: in 0x5ae-0x5af.7 (2)
0x5a0|                                          fd   |              . |                    opcode: "vector" (0xfd) 0x5ae-0x5ae.7 (1)
0x5a0|                                             62|               b|                    v_opcode: "i8x16.popcnt" (98) 0x5af-0x5af.7 (1)
     |                                               |                |                  [2]{}: in 0x5b0-0x5b1.7 (2)
0x5b0|20                                             |                |                    opcode: "local.get" (0x20) 0x5b0-0x5b0.7 (1)
0x5b0|   01                                          | .              |                    x: 1 (valid) 0x5b1-0x5b1.7 (1)
     |                                               |                |                  [3]{}: in 0x5b2-0x5b3.7 (2)
0x5b0|      fd                                       |  .             |                    opcode: "vector" (0xfd) 0x5b2-0x5b2.7 (1)
0x5b0|         76                                    |   v            |                    v_opcode: "i8x16.min_s" (118) 0x5b3-0x5b3.7 (1)
     |                                               |                |                  [4]{}: in 0x5b4-0x5b4.7 (1)
0x5b0|            0b                                 |    .           |                    opcode: "end" (0xb) 0x5b4-0x5b4.7 (1)
     |                                               |                |            [8]{}: code 0x5b5-0x5bf.7 (11)
0x5b0|               0a                              |     .          |              size: 10 (valid) 0x5b5-0x5b5.7 (1)
     |                                               |                |              code{}: 0x5b6-0x5bf.7 (10)
     |                                               |                |                t{}: 0x5b6-0x5b6.7 (1)
0x5b0|                  00                           |      .         |                  n: 0 (valid) 0x5b6-0x5b6.7 (1)
     |                                               |                |                  x[0:0]: 0x5b7-NA (0)
     |                                               |                |                e[0:5]: 0x5b7-0x5bf.7 (9)
     |                                               |                |                  [0]{}: in 0x5b7-0x5b8.7 (2)
0x5b0|                     20                        |                |                    opcode: "local.get" (0x20) 0x5b7-0x5b7.7 (1)
0x5b0|                        00                     |        .       |                    x: 0 (valid) 0x5b8-0x5b8.7 (1)
     |                                               |                |                  [1]{}: in 0x5b9-0x5ba.7 (2)
0x5b0|                           20                  |                |                    opcode: "local.get" (0x20) 0x5b9-0x5b9.7 (1)
0x5b0|                              01               |          .     |                    x: 1 (valid) 0x5ba-0x5ba.7 (1)
     |                                               |                |                  [2]{}: in 0x5bb-0x5bc.7 (2)
0x5b0|                                 fd            |           .    |                    opcode: "vector" (0xfd) 0x5bb-0x5bb.7 (1)
0x5b0|                                    76         |            v   |                    v_opcode: "i8x16.min_s" (118) 0x5bc-0x5bc.7 (1)
     |                                               |                |                  [3]{}: in 0x5bd-0x5be.7 (2)
0x5b0|                                       fd      |             .  |                    opcode: "vector" (0xfd) 0x5bd-0x5bd.7 (1)
0x5b0|                                          62   |              b |                    v_opcode: "i8x16.popcnt" (98) 0x5be-0x5be.7 (1)
     |                                               |                |                  [4]{}: in 0x5bf-0x5bf.7 (1)
0x5b0|                                             0b|               .|                    opcode: "end" (0xb) 0x5bf-0x5bf.7 (1)
     |                                               |                |            [9]{}: code 0x5c0-0x5cc.7 (13)
0x5c0|0c                                             |.               |              size: 12 (valid) 0x5c0-0x5c0.7 (1)
     |                                               |                |              code{}: 0x5c1-0x5cc.7 (12)
     |                                               |                |                t{}: 0x5c1-0x5c1.7 (1)
0x5c0|   00                                          | .              |                  n: 0 (valid) 0x5c1-0x5c1.7 (1)
     |                                               |                |                  x[0:0]: 0x5c2-NA (0)
     |                                               |                |                e[0:6]: 0x5c2-0x5cc.7 (11)
     |                                               |                |                  [0]{}: in 0x5c2-0x5c3.7 (2)
0x5c0|      20                                       |                |                    opcode: "local.get" (0x20) 0x5c2-0x5c2.7 (1)
0x5c0|         00                                    |   .            |                    x: 0 (valid) 0x5c3-0x5c3.7 (1)
     |                                               |                |                  [1]{}: in 0x5c4-0x5c5.7 (2)
0x5c0|            20                                 |                |                    opcode: "local.get" (0x20) 0x5c4-0x5c4.7 (1)
0x5c0|               01                              |     .          |                    x: 1 (valid) 0x5c5-0x5c5.7 (1)
     |                                               |                |                  [2]{}: in 0x5c6-0x5c7.7 (2)
0x5c0|                  fd                           |      .         |                    opcode: "vector" (0xfd) 0x5c6-0x5c6.7 (1)
0x5c0|                     7b                        |       {        |                    v_opcode: "i8x16.avgr_u" (123) 0x5c7-0x5c7.7 (1)
     |                                               |                |                  [3]{}: in 0x5c8-0x5c9.7 (2)
0x5c0|                        20                     |                |                    opcode: "local.get" (0x20) 0x5c8-0x5c8.7 (1)
0x5c0|                           02                  |         .      |                    x: 2 (valid) 0x5c9-0x5c9.7 (1)
     |                                               |                |                  [4]{}: in 0x5ca-0x5cb.7 (2)
0x5c0|                              fd               |          .     |                    opcode: "vector" (0xfd) 0x5ca-0x5ca.7 (1)
0x5c0|                                 77            |           w    |                    v_opcode: "i8x16.min_u" (119) 0x5cb-0x5cb.7 (1)
     |                                               |                |                  [5]{}: in 0x5cc-0x5cc.7 (1)
0x5c0|                                    0b         |            .   |                    opcode: "end" (0xb) 0x5cc-0x5cc.7 (1)
     |                                               |                |            [10]{}: code 0x5cd-0x5d9.7 (13)
0x5c0|                                       0c      |             .  |              size: 12 (valid) 0x5cd-0x5cd.7 (1)
     |                                               |                |              code{}: 0x5ce-0x5d9.7 (12)
     |                                               |                |                t{}: 0x5ce-0x5ce.7 (1)
0x5c0|                                          00   |              . |                  n: 0 (valid) 0x5ce-0x5ce.7 (1)
     |                                               |                |                  x[0:0]: 0x5cf-NA (0)
     |                                               |                |                e[0:6]: 0x5cf-0x5d9.7 (11)
     |                                               |                |                  [0]{}: in 0x5cf-0x5d0.7 (2)
0x5c0|                                             20|                |                    opcode: "local.get" (0x20) 0x5cf-0x5cf.7 (1)
0x5d0|00                                             |.               |                    x: 0 (valid) 0x5d0-0x5d0.7 (1)
     |                                               |                |                  [1]{}: in 0x5d1-0x5d2.7 (2)
0x5d0|   20                                          |                |                    opcode: "local.get" (0x20) 0x5d1-0x5d1.7 (1)
0x5d0|      01                                       |  .             |                    x: 1 (valid) 0x5d2-0x5d2.7 (1)
     |                                               |                |                  [2]{}: in 0x5d3-0x5d4.7 (2)
0x5d0|         fd                                    |   .            |                    opcode: "vector" (0xfd) 0x5d3-0x5d3.7 (1)
0x5d0|            79                                 |    y           |                    v_opcode: "i8x16.max_u" (121) 0x5d4-0x5d4.7 (1)
     |                                               |                |                  [3]{}: in 0x5d5-0x5d6.7 (2)
0x5d0|               20                              |                |                    opcode: "local.get" (0x20) 0x5d5-0x5d5.7 (1)
0x5d0|                  02                           |      .         |                    x: 2 (valid) 0x5d6-0x5d6.7 (1)
     |                                               |                |                  [4]{}: in 0x5d7-0x5d8.7 (2)
0x5d0|                     fd                        |       .        |                    opcode: "vector" (0xfd) 0x5d7-0x5d7.7 (1)
0x5d0|                        77                     |        w       |                    v_opcode: "i8x16.min_u" (119) 0x5d8-0x5d8.7 (1)
     |                                               |                |                  [5]{}: in 0x5d9-0x5d9.7 (1)
0x5d0|                           0b                  |         .      |                    opcode: "end" (0xb) 0x5d9-0x5d9.7 (1)
     |                                               |                |            [11]{}: code 0x5da-0x5e6.7 (13)
0x5d0|                              0c               |          .     |              size: 12 (valid) 0x5da-0x5da.7 (1)
     |                                               |                |              code{}: 0x5db-0x5e6.7 (12)
     |                                               |                |                t{}: 0x5db-0x5db.7 (1)
0x5d0|                                 00            |           .    |                  n: 0 (valid) 0x5db-0x5db.7 (1)
     |                                               |                |                  x[0:0]: 0x5dc-NA (0)
     |                                               |                |                e[0:6]: 0x5dc-0x5e6.7 (11)
     |                                               |                |                  [0]{}: in 0x5dc-0x5dd.7 (2)
0x5d0|                                    20         |                |                    opcode: "local.get" (0x20) 0x5dc-0x5dc.7 (1)
0x5d0|                                       00      |             .  |                    x: 0 (valid) 0x5dd-0x5dd.7 (1)
     |                                               |                |                  [1]{}: in 0x5de-0x5df.7 (2)
0x5d0|                                          20   |                |                    opcode: "local.get" (0x20) 0x5de-0x5de.7 (1)
0x5d0|                                             01|               .|                    x: 1 (valid) 0x5df-0x5df.7 (1)
     |                                               |                |                  [2]{}: in 0x5e0-0x5e1.7 (2)
0x5e0|fd                                             |.               |                    opcode: "vector" (0xfd) 0x5e0-0x5e0.7 (1)
0x5e0|   78                                          | x              |                    v_opcode: "i8x16.max_s" (120) 0x5e1-0x5e1.7 (1)
     |                                               |                |                  [3]{}: in 0x5e2-0x5e3.7 (2)
0x5e0|      20                                       |                |                    opcode: "local.get" (0x20) 0x5e2-0x5e2.7 (1)
0x5e0|         02                                    |   .            |                    x: 2 (valid) 0x5e3-0x5e3.7 (1)
     |                                               |                |                  [4]{}: in 0x5e4-0x5e5.7 (2)
0x5e0|            fd                                 |    .           |                    opcode: "vector" (0xfd) 0x5e4-0x5e4.7 (1)
0x5e0|               77                              |     w          |                    v_opcode: "i8x16.min_u" (119) 0x5e5-0x5e5.7 (1)
     |                                               |                |                  [5]{}: in 0x5e6-0x5e6.7 (1)
0x5e0|                  0b                           |      .         |                    opcode: "end" (0xb) 0x5e6-0x5e6.7 (1)
     |                                               |                |            [12]{}: code 0x5e7-0x5f3.7 (13)
0x5e0|                     0c                        |       .        |              size: 12 (valid) 0x5e7-0x5e7.7 (1)
     |                                               |                |              code{}: 0x5e8-0x5f3.7 (12)
     |                                               |                |                t{}: 0x5e8-0x5e8.7 (1)
0x5e0|                        00                     |        .       |                  n: 0 (valid) 0x5e8-0x5e8.7 (1)
     |                                               |                |                  x[0:0]: 0x5e9-NA (0)
     |                                               |                |                e[0:6]: 0x5e9-0x5f3.7 (11)
     |                                               |                |                  [0]{}: in 0x5e9-0x5ea.7 (2)
0x5e0|                           20                  |                |                    opcode: "local.get" (0x20) 0x5e9-0x5e9.7 (1)
0x5e0|                              00               |          .     |                    x: 0 (valid) 0x5ea-0x5ea.7 (1)
     |                                               |                |                  [1]{}: in 0x5eb-0x5ec.7 (2)
0x5e0|                                 20            |                |                    opcode: "local.get" (0x20) 0x5eb-0x5eb.7 (1)
0x5e0|                                    01         |            .   |                    x: 1 (valid) 0x5ec-0x5ec.7 (1)
     |                                               |                |                  [2]{}: in 0x5ed-0x5ee.7 (2)
0x5e0|                                       fd      |             .  |                    opcode: "vector" (0xfd) 0x5ed-0x5ed.7 (1)
0x5e0|                                          77   |              w |                    v_opcode: "i8x16.min_u" (119) 0x5ee-0x5ee.7 (1)
     |                                               |                |                  [3]{}: in 0x5ef-0x5f0.7 (2)
0x5e0|                                             20|                |                    opcode: "local.get" (0x20) 0x5ef-0x5ef.7 (1)
0x5f0|02                                             |.               |                    x: 2 (valid) 0x5f0-0x5f0.7 (1)
     |                                               |                |                  [4]{}: in 0x5f1-0x5f2.7 (2)
0x5f0|   fd                                          | .              |                    opcode: "vector" (0xfd) 0x5f1-0x5f1.7 (1)
0x5f0|      77                                       |  w             |                    v_opcode: "i8x16.min_u" (119) 0x5f2-0x5f2.7 (1)
     |                                               |                |                  [5]{}: in 0x5f3-0x5f3.7 (1)
0x5f0|         0b                                    |   .            |                    opcode: "end" (0xb) 0x5f3-0x5f3.7 (1)
     |                                               |                |            [13]{}: code 0x5f4-0x600.7 (13)
0x5f0|            0c                                 |    .           |              size: 12 (valid) 0x5f4-0x5f4.7 (1)
     |                                               |                |              code{}: 0x5f5-0x600.7 (12)
     |                                               |                |                t{}: 0x5f5-0x5f5.7 (1)
0x5f0|               00                              |     .          |                  n: 0 (valid) 0x5f5-0x5f5.7 (1)
     |                                               |                |                  x[0:0]: 0x5f6-NA (0)
     |                                               |                |                e[0:6]: 0x5f6-0x600.7 (11)
     |                                               |                |                  [0]{}: in 0x5f6-0x5f7.7 (2)
0x5f0|                  20                           |                |                    opcode: "local.get" (0x20) 0x5f6-0x5f6.7 (1)
0x5f0|                     00                        |       .        |                    x: 0 (valid) 0x5f7-0x5f7.7 (1)
     |                                               |                |                  [1]{}: in 0x5f8-0x5f9.7 (2)
0x5f0|                        20                     |                |                    opcode: "local.get" (0x20) 0x5f8-0x5f8.7 (1)
0x5f0|                           01                  |         .      |                    x: 1 (valid) 0x5f9-0x5f9.7 (1)
     |                                               |                |                  [2]{}: in 0x5fa-0x5fb.7 (2)
0x5f0|                              fd               |          .     |                    opcode: "vector" (0xfd) 0x5fa-0x5fa.7 (1)
0x5f0|                                 76            |           v    |                    v_opcode: "i8x16.min_s" (118) 0x5fb-0x5fb.7 (1)
     |                                               |                |                  [3]{}: in 0x5fc-0x5fd.7 (2)
0x5f0|                                    20         |                |                    opcode: "local.get" (0x20) 0x5fc-0x5fc.7 (1)
0x5f0|                                       02      |             .  |                    x: 2 (valid) 0x5fd-0x5fd.7 (1)
     |                                               |                |                  [4]{}: in 0x5fe-0x5ff.7 (2)
0x5f0|                                          fd   |              . |                    opcode: "vector" (0xfd) 0x5fe-0x5fe.7 (1)
0x5f0|                                             77|               w|                    v_opcode: "i8x16.min_u" (119) 0x5ff-0x5ff.7 (1)
     |                                               |                |                  [5]{}: in 0x600-0x600.7 (1)
0x600|0b                                             |.               |                    opcode: "end" (0xb) 0x600-0x600.7 (1)
     |                                               |                |            [14]{}: code 0x601-0x60b.7 (11)
0x600|   0a                                          | .              |              size: 10 (valid) 0x601-0x601.7 (1)
     |                                               |                |              code{}: 0x602-0x60b.7 (10)
     |                                               |                |                t{}: 0x602-0x602.7 (1)
0x600|      00                                       |  .             |                  n: 0 (valid) 0x602-0x602.7 (1)
     |                                               |                |                  x[0:0]: 0x603-NA (0)
     |                                               |                |                e[0:5]: 0x603-0x60b.7 (9)
     |                                               |                |                  [0]{}: in 0x603-0x604.7 (2)
0x600|         20                                    |                |                    opcode: "local.get" (0x20) 0x603-0x603.7 (1)
0x600|            00                                 |    .           |                    x: 0 (valid) 0x604-0x604.7 (1)
     |                                               |                |                  [1]{}: in 0x605-0x606.7 (2)
0x600|               fd                              |     .          |                    opcode: "vector" (0xfd) 0x605-0x605.7 (1)
0x600|                  60                           |      `         |                    v_opcode: "i8x16.abs" (96) 0x606-0x606.7 (1)
     |                                               |                |                  [2]{}: in 0x607-0x608.7 (2)
0x600|                     20                        |                |                    opcode: "local.get" (0x20) 0x607-0x607.7 (1)
0x600|                        01                     |        .       |                    x: 1 (valid) 0x608-0x608.7 (1)
     |                                               |                |                  [3]{}: in 0x609-0x60a.7 (2)
0x600|                           fd                  |         .      |                    opcode: "vector" (0xfd) 0x609-0x609.7 (1)
0x600|                              77               |          w     |                    v_opcode: "i8x16.min_u" (119) 0x60a-0x60a.7 (1)
     |                                               |                |                  [4]{}: in 0x60b-0x60b.7 (1)
0x600|                                 0b            |           .    |                    opcode: "end" (0xb) 0x60b-0x60b.7 (1)
     |                                               |                |            [15]{}: code 0x60c-0x616.7 (11)
0x600|                                    0a         |            .   |              size: 10 (valid) 0x60c-0x60c.7 (1)
     |                                               |                |              code{}: 0x60d-0x616.7 (10)
     |                                               |                |                t{}: 0x60d-0x60d.7 (1)
0x600|                                       00      |             .  |                  n: 0 (valid) 0x60d-0x60d.7 (1)
     |                                               |                |                  x[0:0]: 0x60e-NA (0)
     |                                               |                |                e[0:5]: 0x60e-0x616.7 (9)
     |                                               |                |                  [0]{}: in 0x60e-0x60f.7 (2)
0x600|                                          20   |                |                    opcode: "local.get" (0x20) 0x60e-0x60e.7 (1)
0x600|                                             00|               .|                    x: 0 (valid) 0x60f-0x60f.7 (1)
     |                                               |                |                  [1]{}: in 0x610-0x611.7 (2)
0x610|20                                             |                |                    opcode: "local.get" (0x20) 0x610-0x610.7 (1)
0x610|   01                                          | .              |                    x: 1 (valid) 0x611-0x611.7 (1)
     |                                               |                |                  [2]{}: in 0x612-0x613.7 (2)
0x610|      fd                                       |  .             |                    opcode: "vector" (0xfd) 0x612-0x612.7 (1)
0x610|         77                                    |   w            |                    v_opcode: "i8x16.min_u" (119) 0x613-0x613.7 (1)
     |                                               |                |                  [3]{}: in 0x614-0x615.7 (2)
0x610|            fd                                 |    .           |                    opcode: "vector" (0xfd) 0x614-0x614.7 (1)
0x610|               60                              |     `          |                    v_opcode: "i8x16.abs" (96) 0x615-0x615.7 (1)
     |                                               |                |                  [4]{}: in 0x616-0x616.7 (1)
0x610|                  0b                           |      .         |                    opcode: "end" (0xb) 0x616-0x616.7 (1)
     |                                               |                |            [16]{}: code 0x617-0x621.7 (11)
0x610|                     0a                        |       .        |              size: 10 (valid) 0x617-0x617.7 (1)
     |                                               |                |              code{}: 0x618-0x621.7 (10)
     |                                               |                |                t{}: 0x618-0x618.7 (1)
0x610|                        00                     |        .       |                  n: 0 (valid) 0x618-0x618.7 (1)
     |                                               |                |                  x[0:0]: 0x619-NA (0)
     |                                               |                |                e[0:5]: 0x619-0x621.7 (9)
     |                                               |                |                  [0]{}: in 0x619-0x61a.7 (2)
0x610|                           20                  |                |                    opcode: "local.get" (0x20) 0x619-0x619.7 (1)
0x610|                              00               |          .     |                    x: 0 (valid) 0x61a-0x61a.7 (1)
     |                                               |                |                  [1]{}: in 0x61b-0x61c.7 (2)
0x610|                                 fd            |           .    |                    opcode: "vector" (0xfd) 0x61b-0x61b.7 (1)
0x610|                                    62         |            b   |                    v_opcode: "i8x16.popcnt" (98) 0x61c-0x61c.7 (1)
     |                                               |                |                  [2]{}: in 0x61d-0x61e.7 (2)
0x610|                                       20      |                |                    opcode: "local.get" (0x20) 0x61d-0x61d.7 (1)
0x610|                                          01   |              . |                    x: 1 (valid) 0x61e-0x61e.7 (1)
     |                                               |                |                  [3]{}: in 0x61f-0x620.7 (2)
0x610|                                             fd|               .|                    opcode: "vector" (0xfd) 0x61f-0x61f.7 (1)
0x620|77                                             |w               |                    v_opcode: "i8x16.min_u" (119) 0x620-0x620.7 (1)
     |                                               |                |                  [4]{}: in 0x621-0x621.7 (1)
0x620|   0b                                          | .              |                    opcode: "end" (0xb) 0x621-0x621.7 (1)
     |                                               |                |            [17]{}: code 0x622-0x62c.7 (11)
0x620|      0a                                       |  .             |              size: 10 (valid) 0x622-0x622.7 (1)
     |                                               |                |              code{}: 0x623-0x62c.7 (10)
     |                                               |                |                t{}: 0x623-0x623.7 (1)
0x620|         00                                    |   .            |                  n: 0 (valid) 0x623-0x623.7 (1)
     |                                               |                |                  x[0:0]: 0x624-NA (0)
     |                                               |                |                e[0:5]: 0x624-0x62c.7 (9)
     |                                               |                |                  [0]{}: in 0x624-0x625.7 (2)
0x620|            20                                 |                |                    opcode: "local.get" (0x20) 0x624-0x624.7 (1)
0x620|               00                              |     .          |                    x: 0 (valid) 0x625-0x625.7 (1)
     |                                               |                |                  [1]{}: in 0x626-0x627.7 (2)
0x620|                  20                           |                |                    opcode: "local.get" (0x20) 0x626-0x626.7 (1)
0x620|                     01                        |       .        |                    x: 1 (valid) 0x627-0x627.7 (1)
     |                                               |                |                  [2]{}: in 0x628-0x629.7 (2)
0x620|                        fd                     |        .       |                    opcode: "vector" (0xfd) 0x628-0x628.7 (1)
0x620|                           77                  |         w      |                    v_opcode: "i8x16.min_u" (119) 0x629-0x629.7 (1)
     |                                               |                |                  [3]{}: in 0x62a-0x62b.7 (2)
0x620|                              fd               |          .     |                    opcode: "vector" (0xfd) 0x62a-0x62a.7 (1)
0x620|                                 62            |           b    |                    v_opcode: "i8x16.popcnt" (98) 0x62b-0x62b.7 (1)
     |                                               |                |                  [4]{}: in 0x62c-0x62c.7 (1)
0x620|                                    0b         |            .   |                    opcode: "end" (0xb) 0x62c-0x62c.7 (1)
     |                                               |                |            [18]{}: code 0x62d-0x639.7 (13)
0x620|                                       0c      |             .  |              size: 12 (valid) 0x62d-0x62d.7 (1)
     |                                               |                |              code{}: 0x62e-0x639.7 (12)
     |                                               |                |                t{}: 0x62e-0x62e.7 (1)
0x620|                                          00   |              . |                  n: 0 (valid) 0x62e-0x62e.7 (1)
     |                                               |                |                  x[0:0]: 0x62f-NA (0)
     |                                               |                |                e[0:6]: 0x62f-0x639.7 (11)
     |                                               |                |                  [0]{}: in 0x62f-0x630.7 (2)
0x620|                                             20|                |                    opcode: "local.get" (0x20) 0x62f-0x62f.7 (1)
0x630|00                                             |.               |                    x: 0 (valid) 0x630-0x630.7 (1)
     |                                               |                |                  [1]{}: in 0x631-0x632.7 (2)
0x630|   20                                          |                |                    opcode: "local.get" (0x20) 0x631-0x631.7 (1)
0x630|      01                                       |  .             |                    x: 1 (valid) 0x632-0x632.7 (1)
     |                                               |                |                  [2]{}: in 0x633-0x634.7 (2)
0x630|         fd                                    |   .            |                    opcode: "vector" (0xfd) 0x633-0x633.7 (1)
0x630|            7b                                 |    {           |                    v_opcode: "i8x16.avgr_u" (123) 0x634-0x634.7 (1)
     |                                               |                |                  [3]{}: in 0x635-0x636.7 (2)
0x630|               20                              |                |                    opcode: "local.get" (0x20) 0x635-0x635.7 (1)
0x630|                  02                           |      .         |                    x: 2 (valid) 0x636-0x636.7 (1)
     |                                               |                |                  [4]{}: in 0x637-0x638.7 (2)
0x630|                     fd                        |       .        |                    opcode: "vector" (0xfd) 0x637-0x637.7 (1)
0x630|                        78                     |        x       |                    v_opcode: "i8x16.max_s" (120) 0x638-0x638.7 (1)
     |                                               |                |                  [5]{}: in 0x639-0x639.7 (1)
0x630|                           0b                  |         .      |                    opcode: "end" (0xb) 0x639-0x639.7 (1)
     |                                               |                |            [19]{}: code 0x63a-0x646.7 (13)
0x630|                              0c               |          .     |              size: 12 (valid) 0x63a-0x63a.7 (1)
     |                                               |                |              code{}: 0x63b-0x646.7 (12)
     |                                               |                |                t{}: 0x63b-0x63b.7 (1)
0x630|                                 00            |           .    |                  n: 0 (valid) 0x63b-0x63b.7 (1)
     |                                               |                |                  x[0:0]: 0x63c-NA (0)
     |                                               |                |                e[0:6]: 0x63c-0x646.7 (11)
     |                                               |                |                  [0]{}: in 0x63c-0x63d.7 (2)
0x630|                                    20         |                |                    opcode: "local.get" (0x20) 0x63c-0x63c.7 (1)
0x630|                                       00      |             .  |                    x: 0 (valid) 0x63d-0x63d.7 (1)
     |                                               |                |                  [1]{}: in 0x63e-0x63f.7 (2)
0x630|                                          20   |                |                    opcode: "local.get" (0x20) 0x63e-0x63e.7 (1)
0x630|                                             01|               .|                    x: 1 (valid) 0x63f-0x63f.7 (1)
     |                                               |                |                  [2]{}: in 0x640-0x641.7 (2)
0x640|fd                                             |.               |                    opcode: "vector" (0xfd) 0x640-0x640.7 (1)
0x640|   79                                          | y              |                    v_opcode: "i8x16.max_u" (121) 0x641-0x641.7 (1)
     |                                               |                |                  [3]{}: in 0x642-0x643.7 (2)
0x640|      20                                       |                |                    opcode: "local.get" (0x20) 0x642-0x642.7 (1)
0x640|         02                                    |   .            |                    x: 2 (valid) 0x643-0x643.7 (1)
     |                                               |                |                  [4]{}: in 0x644-0x645.7 (2)
0x640|            fd                                 |    .           |                    opcode: "vector" (0xfd) 0x644-0x644.7 (1)
0x640|               78                              |     x          |                    v_opcode: "i8x16.max_s" (120) 0x645-0x645.7 (1)
     |                                               |                |                  [5]{}: in 0x646-0x646.7 (1)
0x640|                  0b                           |      .         |                    opcode: "end" (0xb) 0x646-0x646.7 (1)
     |                                               |                |            [20]{}: code 0x647-0x653.7 (13)
0x640|                     0c                        |       .        |              size: 12 (valid) 0x647-0x647.7 (1)
     |                                               |                |              code{}: 0x648-0x653.7 (12)
     |                                               |                |                t{}: 0x648-0x648.7 (1)
0x640|                        00                     |        .       |                  n: 0 (valid) 0x648-0x648.7 (1)
     |                                               |                |                  x[0:0]: 0x649-NA (0)
     |                                               |                |                e[0:6]: 0x649-0x653.7 (11)
     |                                               |                |                  [0]{}: in 0x649-0x64a.7 (2)
0x640|                           20                  |                |                    opcode: "local.get" (0x20) 0x649-0x649.7 (1)
0x640|                              00               |          .     |                    x: 0 (valid) 0x64a-0x64a.7 (1)
     |                                               |                |                  [1]{}: in 0x64b-0x64c.7 (2)
0x640|                                 20            |                |                    opcode: "local.get" (0x20) 0x64b-0x64b.7 (1)
0x640|                                    01         |            .   |                    x: 1 (valid) 0x64c-0x64c.7 (1)
     |                                               |                |                  [2]{}: in 0x64d-0x64e.7 (2)
0x640|                                       fd      |             .  |                    opcode: "vector" (0xfd) 0x64d-0x64d.7 (1)
0x640|                                          78   |              x |                    v_opcode: "i8x16.max_s" (120) 0x64e-0x64e.7 (1)
     |                                               |                |                  [3]{}: in 0x64f-0x650.7 (2)
0x640|                                             20|                |                    opcode: "local.get" (0x20) 0x64f-0x64f.7 (1)
0x650|02                                             |.               |                    x: 2 (valid) 0x650-0x650.7 (1)
     |                                               |                |                  [4]{}: in 0x651-0x652.7 (2)
0x650|   fd                                          | .              |                    opcode: "vector" (0xfd) 0x651-0x651.7 (1)
0x650|      78                                       |  x             |                    v_opcode: "i8x16.max_s" (120) 0x652-0x652.7 (1)
     |                                               |                |                  [5]{}: in 0x653-0x653.7 (1)
0x650|         0b                                    |   .            |                    opcode: "end" (0xb) 0x653-0x653.7 (1)
     |                                               |                |            [21]{}: code 0x654-0x660.7 (13)
0x650|            0c                                 |    .           |              size: 12 (valid) 0x654-0x654.7 (1)
     |                                               |                |              code{}: 0x655-0x660.7 (12)
     |                                               |                |                t{}: 0x655-0x655.7 (1)
0x650|               00                              |     .          |                  n: 0 (valid) 0x655-0x655.7 (1)
     |                                               |                |                  x[0:0]: 0x656-NA (0)
     |                                               |                |                e[0:6]: 0x656-0x660.7 (11)
     |                                               |                |                  [0]{}: in 0x656-0x657.7 (2)
0x650|                  20                           |                |                    opcode: "local.get" (0x20) 0x656-0x656.7 (1)
0x650|                     00                        |       .        |                    x: 0 (valid) 0x657-0x657.7 (1)
     |                                               |                |                  [1]{}: in 0x658-0x659.7 (2)
0x650|                        20                     |                |                    opcode: "local.get" (0x20) 0x658-0x658.7 (1)
0x650|                           01                  |         .      |                    x: 1 (valid) 0x659-0x659.7 (1)
     |                                               |                |                  [2]{}: in 0x65a-0x65b.7 (2)
0x650|                              fd               |          .     |                    opcode: "vector" (0xfd) 0x65a-0x65a.7 (1)
0x650|                                 77            |           w    |                    v_opcode: "i8x16.min_u" (119) 0x65b-0x65b.7 (1)
     |                                               |                |                  [3]{}: in 0x65c-0x65d.7 (2)
0x650|                                    20         |                |                    opcode: "local.get" (0x20) 0x65c-0x65c.7 (1)
0x650|                                       02      |             .  |                    x: 2 (valid) 0x65d-0x65d.7 (1)
     |                                               |                |                  [4]{}: in 0x65e-0x65f.7 (2)
0x650|                                          fd   |              . |                    opcode: "vector" (0xfd) 0x65e-0x65e.7 (1)
0x650|                                             78|               x|                    v_opcode: "i8x16.max_s" (120) 0x65f-0x65f.7 (1)
     |                                               |                |                  [5]{}: in 0x660-0x660.7 (1)
0x660|0b                                             |.               |                    opcode: "end" (0xb) 0x660-0x660.7 (1)
     |                                               |                |            [22]{}: code 0x661-0x66d.7 (13)
0x660|   0c                                          | .              |              size: 12 (valid) 0x661-0x661.7 (1)
     |                                               |                |              code{}: 0x662-0x66d.7 (12)
     |                                               |                |                t{}: 0x662-0x662.7 (1)
0x660|      00                                       |  .             |                  n: 0 (valid) 0x662-0x662.7 (1)
     |                                               |                |                  x[0:0]: 0x663-NA (0)
     |                                               |                |                e[0:6]: 0x663-0x66d.7 (11)
     |                                               |                |                  [0]{}: in 0x663-0x664.7 (2)
0x660|         20                                    |                |                    opcode: "local.get" (0x20) 0x663-0x663.7 (1)
0x660|            00                                 |    .           |                    x: 0 (valid) 0x664-0x664.7 (1)
     |                                               |                |                  [1]{}: in 0x665-0x666.7 (2)
0x660|               20                              |                |                    opcode: "local.get" (0x20) 0x665-0x665.7 (1)
0x660|                  01                           |      .         |                    x: 1 (valid) 0x666-0x666.7 (1)
     |                                               |                |                  [2]{}: in 0x667-0x668.7 (2)
0x660|                     fd                        |       .        |                    opcode: "vector" (0xfd) 0x667-0x667.7 (1)
0x660|                        76                     |        v       |                    v_opcode: "i8x16.min_s" (118) 0x668-0x668.7 (1)
     |                                               |                |                  [3]{}: in 0x669-0x66a.7 (2)
0x660|                           20                  |                |                    opcode: "local.get" (0x20) 0x669-0x669.7 (1)
0x660|                              02               |          .     |                    x: 2 (valid) 0x66a-0x66a.7 (1)
     |                                               |                |                  [4]{}: in 0x66b-0x66c.7 (2)
0x660|                                 fd            |           .    |                    opcode: "vector" (0xfd) 0x66b-0x66b.7 (1)
0x660|                                    78         |            x   |                    v_opcode: "i8x16.max_s" (120) 0x66c-0x66c.7 (1)
     |                                               |                |                  [5]{}: in 0x66d-0x66d.7 (1)
0x660|                                       0b      |             .  |                    opcode: "end" (0xb) 0x66d-0x66d.7 (1)
     |                                               |                |            [23]{}: code 0x66e-0x678.7 (11)
0x660|                                          0a   |              . |              size: 10 (valid) 0x66e-0x66e.7 (1)
     |                                               |                |              code{}: 0x66f-0x678.7 (10)
     |                                               |                |                t{}: 0x66f-0x66f.7 (1)
0x660|                                             00|               .|                  n: 0 (valid) 0x66f-0x66f.7 (1)
     |                                               |                |                  x[0:0]: 0x670-NA (0)
     |                                               |                |                e[0:5]: 0x670-0x678.7 (9)
     |                                               |                |                  [0]{}: in 0x670-0x671.7 (2)
0x670|20                                             |                |                    opcode: "local.get" (0x20) 0x670-0x670.7 (1)
0x670|   00                                          | .              |                    x: 0 (valid) 0x671-0x671.7 (1)
     |                                               |                |                  [1]{}: in 0x672-0x673.7 (2)
0x670|      fd                                       |  .             |                    opcode: "vector" (0xfd) 0x672-0x672.7 (1)
0x670|         60                                    |   `            |                    v_opcode: "i8x16.abs" (96) 0x673-0x673.7 (1)
     |                                               |                |                  [2]{}: in 0x674-0x675.7 (2)
0x670|            20                                 |                |                    opcode: "local.get" (0x20) 0x674-0x674.7 (1)
0x670|               01                              |     .          |                    x: 1 (valid) 0x675-0x675.7 (1)
     |                                               |                |                  [3]{}: in 0x676-0x677.7 (2)
0x670|                  fd                           |      .         |                    opcode: "vector" (0xfd) 0x676-0x676.7 (1)
0x670|                     78                        |       x        |                    v_opcode: "i8x16.max_s" (120) 0x677-0x677.7 (1)
     |                                               |                |                  [4]{}: in 0x678-0x678.7 (1)
0x670|                        0b                     |        .       |                    opcode: "end" (0xb) 0x678-0x678.7 (1)
     |                                               |                |            [24]{}: code 0x679-0x683.7 (11)
0x670|                           0a                  |         .      |              size: 10 (valid) 0x679-0x679.7 (1)
     |                                               |                |              code{}: 0x67a-0x683.7 (10)
     |                                               |                |                t{}: 0x67a-0x67a.7 (1)
0x670|                              00               |          .     |                  n: 0 (valid) 0x67a-0x67a.7 (1)
     |                                               |                |                  x[0:0]: 0x67b-NA (0)
     |                                               |                |                e[0:5]: 0x67b-0x683.7 (9)
     |                                               |                |                  [0]{}: in 0x67b-0x67c.7 (2)
0x670|                                 20            |                |                    opcode: "local.get" (0x20) 0x67b-0x67b.7 (1)
0x670|                                    00         |            .   |                    x: 0 (valid) 0x67c-0x67c.7 (1)
     |                                               |                |                  [1]{}: in 0x67d-0x67e.7 (2)
0x670|                                       20      |                |                    opcode: "local.get" (0x20) 0x67d-0x67d.7 (1)
0x670|                                          01   |              . |                    x: 1 (valid) 0x67e-0x67e.7 (1)
     |                                               |                |                  [2]{}: in 0x67f-0x680.7 (2)
0x670|                                             fd|               .|                    opcode: "vector" (0xfd) 0x67f-0x67f.7 (1)
0x680|78                                             |x               |                    v_opcode: "i8x16.max_s" (120) 0x680-0x680.7 (1)
     |                                               |                |                  [3]{}: in 0x681-0x682.7 (2)
0x680|   fd                                          | .              |                    opcode: "vector" (0xfd) 0x681-0x681.7 (1)
0x680|      60                                       |  `             |                    v_opcode: "i8x16.abs" (96) 0x682-0x682.7 (1)
     |                                               |                |                  [4]{}: in 0x683-0x683.7 (1)
0x680|         0b                                    |   .            |                    opcode: "end" (0xb) 0x683-0x683.7 (1)
     |                                               |                |            [25]{}: code 0x684-0x68e.7 (11)
0x680|            0a                                 |    .           |              size: 10 (valid) 0x684-0x684.7 (1)
     |                                               |                |              code{}: 0x685-0x68e.7 (10)
     |                                               |                |                t{}: 0x685-0x685.7 (1)
0x680|               00                              |     .          |                  n: 0 (valid) 0x685-0x685.7 (1)
     |                                               |                |                  x[0:0]: 0x686-NA (0)
     |                                               |                |                e[0:5]: 0x686-0x68e.7 (9)
     |                                               |                |                  [0]{}: in 0x686-0x687.7 (2)
0x680|                  20                           |                |                    opcode: "local.get" (0x20) 0x686-0x686.7 (1)
0x680|                     00                        |       .        |                    x: 0 (valid) 0x687-0x687.7 (1)
     |                                               |                |                  [1]{}: in 0x688-0x689.7 (2)
0x680|                        fd                     |        .       |                    opcode: "vector" (0xfd) 0x688-0x688.7 (1)
0x680|                           62                  |         b      |                    v_opcode: "i8x16.popcnt" (98) 0x689-0x689.7 (1)
     |                                               |                |                  [2]{}: in 0x68a-0x68b.7 (2)
0x680|                              20               |                |                    opcode: "local.get" (0x20) 0x68a-0x68a.7 (1)
0x680|                                 01            |           .    |                    x: 1 (valid) 0x68b-0x68b.7 (1)
     |                                               |                |                  [3]{}: in 0x68c-0x68d.7 (2)
0x680|                                    fd         |            .   |                    opcode: "vector" (0xfd) 0x68c-0x68c.7 (1)
0x680|                                       78      |             x  |                    v_opcode: "i8x16.max_s" (120) 0x68d-0x68d.7 (1)
     |                                               |                |                  [4]{}: in 0x68e-0x68e.7 (1)
0x680|                                          0b   |              . |                    opcode: "end" (0xb) 0x68e-0x68e.7 (1)
     |                                               |                |            [26]{}: code 0x68f-0x699.7 (11)
0x680|                                             0a|               .|              size: 10 (valid) 0x68f-0x68f.7 (1)
     |                                               |                |              code{}: 0x690-0x699.7 (10)
     |                                               |                |                t{}: 0x690-0x690.7 (1)
0x690|00                                             |.               |                  n: 0 (valid) 0x690-0x690.7 (1)
     |                                               |                |                  x[0:0]: 0x691-NA (0)
     |                                               |                |                e[0:5]: 0x691-0x699.7 (9)
     |                                               |                |                  [0]{}: in 0x691-0x692.7 (2)
0x690|   20                                          |                |                    opcode: "local.get" (0x20) 0x691-0x691.7 (1)
0x690|      00                                       |  .             |                    x: 0 (valid) 0x692-0x692.7 (1)
     |                                               |                |                  [1]{}: in 0x693-0x694.7 (2)
0x690|         20                                    |                |                    opcode: "local.get" (0x20) 0x693-0x693.7 (1)
0x690|            01                                 |    .           |                    x: 1 (valid) 0x694-0x694.7 (1)
     |                                               |                |                  [2]{}: in 0x695-0x696.7 (2)
0x690|               fd                              |     .          |                    opcode: "vector" (0xfd) 0x695-0x695.7 (1)
0x690|                  78                           |      x         |                    v_opcode: "i8x16.max_s" (120) 0x696-0x696.7 (1)
     |                                               |                |                  [3]{}: in 0x697-0x698.7 (2)
0x690|                     fd                        |       .        |                    opcode: "vector" (0xfd) 0x697-0x697.7 (1)
0x690|                        62                     |        b       |                    v_opcode: "i8x16.popcnt" (98) 0x698-0x698.7 (1)
     |                                               |                |                  [4]{}: in 0x699-0x699.7 (1)
0x690|                           0b                  |         .      |                    opcode: "end" (0xb) 0x699-0x699.7 (1)
     |                                               |                |            [27]{}: code 0x69a-0x6a6.7 (13)
0x690|                              0c               |          .     |              size: 12 (valid) 0x69a-0x69a.7 (1)
     |                                               |                |              code{}: 0x69b-0x6a6.7 (12)
     |                                               |                |                t{}: 0x69b-0x69b.7 (1)
0x690|                                 00            |           .    |                  n: 0 (valid) 0x69b-0x69b.7 (1)
     |                                               |                |                  x[0:0]: 0x69c-NA (0)
     |                                               |                |                e[0:6]: 0x69c-0x6a6.7 (11)
     |                                               |                |                  [0]{}: in 0x69c-0x69d.7 (2)
0x690|                                    20         |                |                    opcode: "local.get" (0x20) 0x69c-0x69c.7 (1)
0x690|                                       00      |             .  |                    x: 0 (valid) 0x69d-0x69d.7 (1)
     |                                               |                |                  [1]{}: in 0x69e-0x69f.7 (2)
0x690|                                          20   |                |                    opcode: "local.get" (0x20) 0x69e-0x69e.7 (1)
0x690|                                             01|               .|                    x: 1 (valid) 0x69f-0x69f.7 (1)
     |                                               |                |                  [2]{}: in 0x6a0-0x6a1.7 (2)
0x6a0|fd                                             |.               |                    opcode: "vector" (0xfd) 0x6a0-0x6a0.7 (1)
0x6a0|   7b                                          | {              |                    v_opcode: "i8x16.avgr_u" (123) 0x6a1-0x6a1.7 (1)
     |                                               |                |                  [3]{}: in 0x6a2-0x6a3.7 (2)
0x6a0|      20                                       |                |                    opcode: "local.get" (0x20) 0x6a2-0x6a2.7 (1)
0x6a0|         02                                    |   .            |                    x: 2 (valid) 0x6a3-0x6a3.7 (1)
     |                                               |                |                  [4]{}: in 0x6a4-0x6a5.7 (2)
0x6a0|            fd                                 |    .           |                    opcode: "vector" (0xfd) 0x6a4-0x6a4.7 (1)
0x6a0|               79                              |     y          |                    v_opcode: "i8x16.max_u" (121) 0x6a5-0x6a5.7 (1)
     |                                               |                |                  [5]{}: in 0x6a6-0x6a6.7 (1)
0x6a0|                  0b                           |      .         |                    opcode: "end" (0xb) 0x6a6-0x6a6.7 (1)
     |                                               |                |            [28]{}: code 0x6a7-0x6b3.7 (13)
0x6a0|                     0c                        |       .        |              size: 12 (valid) 0x6a7-0x6a7.7 (1)
     |                                               |                |              code{}: 0x6a8-0x6b3.7 (12)
     |                                               |                |                t{}: 0x6a8-0x6a8.7 (1)
0x6a0|                        00                     |        .       |                  n: 0 (valid) 0x6a8-0x6a8.7 (1)
     |                                               |                |                  x[0:0]: 0x6a9-NA (0)
     |                                               |                |                e[0:6]: 0x6a9-0x6b3.7 (11)
     |                                               |                |                  [0]{}: in 0x6a9-0x6aa.7 (2)
0x6a0|                           20                  |                |                    opcode: "local.get" (0x20) 0x6a9-0x6a9.7 (1)
0x6a0|                              00               |          .     |                    x: 0 (valid) 0x6aa-0x6aa.7 (1)
     |                                               |                |                  [1]{}: in 0x6ab-0x6ac.7 (2)
0x6a0|                                 20            |                |                    opcode: "local.get" (0x20) 0x6ab-0x6ab.7 (1)
0x6a0|                                    01         |            .   |                    x: 1 (valid) 0x6ac-0x6ac.7 (1)
     |                                               |                |                  [2]{}: in 0x6ad-0x6ae.7 (2)
0x6a0|                                       fd      |             .  |                    opcode: "vector" (0xfd) 0x6ad-0x6ad.7 (1)
0x6a0|                                          79   |              y |                    v_opcode: "i8x16.max_u" (121) 0x6ae-0x6ae.7 (1)
     |                                               |                |                  [3]{}: in 0x6af-0x6b0.7 (2)
0x6a0|                                             20|                |                    opcode: "local.get" (0x20) 0x6af-0x6af.7 (1)
0x6b0|02                                             |.               |                    x: 2 (valid) 0x6b0-0x6b0.7 (1)
     |                                               |                |                  [4]{}: in 0x6b1-0x6b2.7 (2)
0x6b0|   fd                                          | .              |                    opcode: "vector" (0xfd) 0x6b1-0x6b1.7 (1)
0x6b0|      79                                       |  y             |                    v_opcode: "i8x16.max_u" (121) 0x6b2-0x6b2.7 (1)
     |                                               |                |                  [5]{}: in 0x6b3-0x6b3.7 (1)
0x6b0|         0b                                    |   .            |                    opcode: "end" (0xb) 0x6b3-0x6b3.7 (1)
     |                                               |                |            [29]{}: code 0x6b4-0x6c0.7 (13)
0x6b0|            0c                                 |    .           |              size: 12 (valid) 0x6b4-0x6b4.7 (1)
     |                                               |                |              code{}: 0x6b5-0x6c0.7 (12)
     |                                               |                |                t{}: 0x6b5-0x6b5.7 (1)
0x6b0|               00                              |     .          |                  n: 0 (valid) 0x6b5-0x6b5.7 (1)
     |                                               |                |                  x[0:0]: 0x6b6-NA (0)
     |                                               |                |                e[0:6]: 0x6b6-0x6c0.7 (11)
     |                                               |                |                  [0]{}: in 0x6b6-0x6b7.7 (2)
0x6b0|                  20                           |                |                    opcode: "local.get" (0x20) 0x6b6-0x6b6.7 (1)
0x6b0|                     00                        |       .        |                    x: 0 (valid) 0x6b7-0x6b7.7 (1)
     |                                               |                |                  [1]{}: in 0x6b8-0x6b9.7 (2)
0x6b0|                        20                     |                |                    opcode: "local.get" (0x20) 0x6b8-0x6b8.7 (1)
0x6b0|                           01                  |         .      |                    x: 1 (valid) 0x6b9-0x6b9.7 (1)
     |                                               |                |                  [2]{}: in 0x6ba-0x6bb.7 (2)
0x6b0|                              fd               |          .     |                    opcode: "vector" (0xfd) 0x6ba-0x6ba.7 (1)
0x6b0|                                 78            |           x    |                    v_opcode: "i8x16.max_s" (120) 0x6bb-0x6bb.7 (1)
     |                                               |                |                  [3]{}: in 0x6bc-0x6bd.7 (2)
0x6b0|                                    20         |                |                    opcode: "local.get" (0x20) 0x6bc-0x6bc.7 (1)
0x6b0|                                       02      |             .  |                    x: 2 (valid) 0x6bd-0x6bd.7 (1)
     |                                               |                |                  [4]{}: in 0x6be-0x6bf.7 (2)
0x6b0|                                          fd   |              . |                    opcode: "vector" (0xfd) 0x6be-0x6be.7 (1)
0x6b0|                                             79|               y|                    v_opcode: "i8x16.max_u" (121) 0x6bf-0x6bf.7 (1)
     |                                               |                |                  [5]{}: in 0x6c0-0x6c0.7 (1)
0x6c0|0b                                             |.               |                    opcode: "end" (0xb) 0x6c0-0x6c0.7 (1)
     |                                               |                |            [30]{}: code 0x6c1-0x6cd.7 (13)
0x6c0|   0c                                          | .              |              size: 12 (valid) 0x6c1-0x6c1.7 (1)
     |                                               |                |              code{}: 0x6c2-0x6cd.7 (12)
     |                                               |                |                t{}: 0x6c2-0x6c2.7 (1)
0x6c0|      00                                       |  .             |                  n: 0 (valid) 0x6c2-0x6c2.7 (1)
     |                                               |                |                  x[0:0]: 0x6c3-NA (0)
     |                                               |                |                e[0:6]: 0x6c3-0x6cd.7 (11)
     |                                               |                |                  [0]{}: in 0x6c3-0x6c4.7 (2)
0x6c0|         20                                    |                |                    opcode: "local.get" (0x20) 0x6c3-0x6c3.7 (1)
0x6c0|            00                                 |    .           |                    x: 0 (valid) 0x6c4-0x6c4.7 (1)
     |                                               |                |                  [1]{}: in 0x6c5-0x6c6.7 (2)
0x6c0|               20                              |                |                    opcode: "local.get" (0x20) 0x6c5-0x6c5.7 (1)
0x6c0|                  01                           |      .         |                    x: 1 (valid) 0x6c6-0x6c6.7 (1)
     |                                               |                |                  [2]{}: in 0x6c7-0x6c8.7 (2)
0x6c0|                     fd                        |       .        |                    opcode: "vector" (0xfd) 0x6c7-0x6c7.7 (1)
0x6c0|                        77                     |        w       |                    v_opcode: "i8x16.min_u" (119) 0x6c8-0x6c8.7 (1)
     |                                               |                |                  [3]{}: in 0x6c9-0x6ca.7 (2)
0x6c0|                           20                  |                |                    opcode: "local.get" (0x20) 0x6c9-0x6c9.7 (1)
0x6c0|                              02               |          .     |                    x: 2 (valid) 0x6ca-0x6ca.7 (1)
     |                                               |                |                  [4]{}: in 0x6cb-0x6cc.7 (2)
0x6c0|                                 fd            |           .    |                    opcode: "vector" (0xfd) 0x6cb-0x6cb.7 (1)
0x6c0|                                    79         |            y   |                    v_opcode: "i8x16.max_u" (121) 0x6cc-0x6cc.7 (1)
     |                                               |                |                  [5]{}: in 0x6cd-0x6cd.7 (1)
0x6c0|                                       0b      |             .  |                    opcode: "end" (0xb) 0x6cd-0x6cd.7 (1)
     |                                               |                |            [31]{}: code 0x6ce-0x6da.7 (13)
0x6c0|                                          0c   |              . |              size: 12 (valid) 0x6ce-0x6ce.7 (1)
     |                                               |                |              code{}: 0x6cf-0x6da.7 (12)
     |                                               |                |                t{}: 0x6cf-0x6cf.7 (1)
0x6c0|                                             00|               .|                  n: 0 (valid) 0x6cf-0x6cf.7 (1)
     |                                               |                |                  x[0:0]: 0x6d0-NA (0)
     |                                               |                |                e[0:6]: 0x6d0-0x6da.7 (11)
     |                                               |                |                  [0]{}: in 0x6d0-0x6d1.7 (2)
0x6d0|20                                             |                |                    opcode: "local.get" (0x20) 0x6d0-0x6d0.7 (1)
0x6d0|   00                                          | .              |                    x: 0 (valid) 0x6d1-0x6d1.7 (1)
     |                                               |                |                  [1]{}: in 0x6d2-0x6d3.7 (2)
0x6d0|      20                                       |                |                    opcode: "local.get" (0x20) 0x6d2-0x6d2.7 (1)
0x6d0|         01                                    |   .            |                    x: 1 (valid) 0x6d3-0x6d3.7 (1)
     |                                               |                |                  [2]{}: in 0x6d4-0x6d5.7 (2)
0x6d0|            fd                                 |    .           |                    opcode: "vector" (0xfd) 0x6d4-0x6d4.7 (1)
0x6d0|               76                              |     v          |                    v_opcode: "i8x16.min_s" (118) 0x6d5-0x6d5.7 (1)
     |                                               |                |                  [3]{}: in 0x6d6-0x6d7.7 (2)
0x6d0|                  20                           |                |                    opcode: "local.get" (0x20) 0x6d6-0x6d6.7 (1)
0x6d0|                     02                        |       .        |                    x: 2 (valid) 0x6d7-0x6d7.7 (1)
     |                                               |                |                  [4]{}: in 0x6d8-0x6d9.7 (2)
0x6d0|                        fd                     |        .       |                    opcode: "vector" (0xfd) 0x6d8-0x6d8.7 (1)
0x6d0|                           79                  |         y      |                    v_opcode: "i8x16.max_u" (121) 0x6d9-0x6d9.7 (1)
     |                                               |                |                  [5]{}: in 0x6da-0x6da.7 (1)
0x6d0|                              0b               |          .     |                    opcode: "end" (0xb) 0x6da-0x6da.7 (1)
     |                                               |                |            [32]{}: code 0x6db-0x6e5.7 (11)
0x6d0|                                 0a            |           .    |              size: 10 (valid) 0x6db-0x6db.7 (1)
     |                                               |                |              code{}: 0x6dc-0x6e5.7 (10)
     |                                               |                |                t{}: 0x6dc-0x6dc.7 (1)
0x6d0|                                    00         |            .   |                  n: 0 (valid) 0x6dc-0x6dc.7 (1)
     |                                               |                |                  x[0:0]: 0x6dd-NA (0)
     |                                               |                |                e[0:5]: 0x6dd-0x6e5.7 (9)
     |                                               |                |                  [0]{}: in 0x6dd-0x6de.7 (2)
0x6d0|                                       20      |                |                    opcode: "local.get" (0x20) 0x6dd-0x6dd.7 (1)
0x6d0|                                          00   |              . |                    x: 0 (valid) 0x6de-0x6de.7 (1)
     |                                               |                |                  [1]{}: in 0x6df-0x6e0.7 (2)
0x6d0|                                             fd|               .|                    opcode: "vector" (0xfd) 0x6df-0x6df.7 (1)
0x6e0|60                                             |`               |                    v_opcode: "i8x16.abs" (96) 0x6e0-0x6e0.7 (1)
     |                                               |                |                  [2]{}: in 0x6e1-0x6e2.7 (2)
0x6e0|   20                                          |                |                    opcode: "local.get" (0x20) 0x6e1-0x6e1.7 (1)
0x6e0|      01                                       |  .             |                    x: 1 (valid) 0x6e2-0x6e2.7 (1)
     |                                               |                |                  [3]{}: in 0x6e3-0x6e4.7 (2)
0x6e0|         fd                                    |   .            |                    opcode: "vector" (0xfd) 0x6e3-0x6e3.7 (1)
0x6e0|            79                                 |    y           |                    v_opcode: "i8x16.max_u" (121) 0x6e4-0x6e4.7 (1)
     |                                               |                |                  [4]{}: in 0x6e5-0x6e5.7 (1)
0x6e0|               0b                              |     .          |                    opcode: "end" (0xb) 0x6e5-0x6e5.7 (1)
     |                                               |                |            [33]{}: code 0x6e6-0x6f0.7 (11)
0x6e0|                  0a                           |      .         |              size: 10 (valid) 0x6e6-0x6e6.7 (1)
     |                                               |                |              code{}: 0x6e7-0x6f0.7 (10)
     |                                               |                |                t{}: 0x6e7-0x6e7.7 (1)
0x6e0|                     00                        |       .        |                  n: 0 (valid) 0x6e7-0x6e7.7 (1)
     |                                               |                |                  x[0:0]: 0x6e8-NA (0)
     |                                               |                |                e[0:5]: 0x6e8-0x6f0.7 (9)
     |                                               |                |                  [0]{}: in 0x6e8-0x6e9.7 (2)
0x6e0|                        20                     |                |                    opcode: "local.get" (0x20) 0x6e8-0x6e8.7 (1)
0x6e0|                           00                  |         .      |                    x: 0 (valid) 0x6e9-0x6e9.7 (1)
     |                                               |                |                  [1]{}: in 0x6ea-0x6eb.7 (2)
0x6e0|                              20               |                |                    opcode: "local.get" (0x20) 0x6ea-0x6ea.7 (1)
0x6e0|                                 01            |           .    |                    x: 1 (valid) 0x6eb-0x6eb.7 (1)
     |                                               |                |                  [2]{}: in 0x6ec-0x6ed.7 (2)
0x6e0|                                    fd         |            .   |                    opcode: "vector" (0xfd) 0x6ec-0x6ec.7 (1)
0x6e0|                                       79      |             y  |                    v_opcode: "i8x16.max_u" (121) 0x6ed-0x6ed.7 (1)
     |                                               |                |                  [3]{}: in 0x6ee-0x6ef.7 (2)
0x6e0|                                          fd   |              . |                    opcode: "vector" (0xfd) 0x6ee-0x6ee.7 (1)
0x6e0|                                             60|               `|                    v_opcode: "i8x16.abs" (96) 0x6ef-0x6ef.7 (1)
     |                                               |                |                  [4]{}: in 0x6f0-0x6f0.7 (1)
0x6f0|0b                                             |.               |                    opcode: "end" (0xb) 0x6f0-0x6f0.7 (1)
     |                                               |                |            [34]{}: code 0x6f1-0x6fb.7 (11)
0x6f0|   0a                                          | .              |              size: 10 (valid) 0x6f1-0x6f1.7 (1)
     |                                               |                |              code{}: 0x6f2-0x6fb.7 (10)
     |                                               |                |                t{}: 0x6f2-0x6f2.7 (1)
0x6f0|      00                                       |  .             |                  n: 0 (valid) 0x6f2-0x6f2.7 (1)
     |                                               |                |                  x[0:0]: 0x6f3-NA (0)
     |                                               |                |                e[0:5]: 0x6f3-0x6fb.7 (9)
     |                                               |                |                  [0]{}: in 0x6f3-0x6f4.7 (2)
0x6f0|         20                                    |                |                    opcode: "local.get" (0x20) 0x6f3-0x6f3.7 (1)
0x6f0|            00                                 |    .           |                    x: 0 (valid) 0x6f4-0x6f4.7 (1)
     |                                               |                |                  [1]{}: in 0x6f5-0x6f6.7 (2)
0x6f0|               fd                              |     .          |                    opcode: "vector" (0xfd) 0x6f5-0x6f5.7 (1)
0x6f0|                  62                           |      b         |                    v_opcode: "i8x16.popcnt" (98) 0x6f6-0x6f6.7 (1)
     |                                               |                |                  [2]{}: in 0x6f7-0x6f8.7 (2)
0x6f0|                     20                        |                |                    opcode: "local.get" (0x20) 0x6f7-0x6f7.7 (1)
0x6f0|                        01                     |        .       |                    x: 1 (valid) 0x6f8-0x6f8.7 (1)
     |                                               |                |                  [3]{}: in 0x6f9-0x6fa.7 (2)
0x6f0|                           fd                  |         .      |                    opcode: "vector" (0xfd) 0x6f9-0x6f9.7 (1)
0x6f0|                              79               |          y     |                    v_opcode: "i8x16.max_u" (121) 0x6fa-0x6fa.7 (1)
     |                                               |                |                  [4]{}: in 0x6fb-0x6fb.7 (1)
0x6f0|                                 0b            |           .    |                    opcode: "end" (0xb) 0x6fb-0x6fb.7 (1)
     |                                               |                |            [35]{}: code 0x6fc-0x706.7 (11)
0x6f0|                                    0a         |            .   |              size: 10 (valid) 0x6fc-0x6fc.7 (1)
     |                                               |                |              code{}: 0x6fd-0x706.7 (10)
     |                                               |                |                t{}: 0x6fd-0x6fd.7 (1)
0x6f0|                                       00      |             .  |                  n: 0 (valid) 0x6fd-0x6fd.7 (1)
     |                                               |                |                  x[0:0]: 0x6fe-NA (0)
     |                                               |                |                e[0:5]: 0x6fe-0x706.7 (9)
     |                                               |                |                  [0]{}: in 0x6fe-0x6ff.7 (2)
0x6f0|                                          20   |                |                    opcode: "local.get" (0x20) 0x6fe-0x6fe.7 (1)
0x6f0|                                             00|               .|                    x: 0 (valid) 0x6ff-0x6ff.7 (1)
     |                                               |                |                  [1]{}: in 0x700-0x701.7 (2)
0x700|20                                             |                |                    opcode: "local.get" (0x20) 0x700-0x700.7 (1)
0x700|   01                                          | .              |                    x: 1 (valid) 0x701-0x701.7 (1)
     |                                               |                |                  [2]{}: in 0x702-0x703.7 (2)
0x700|      fd                                       |  .             |                    opcode: "vector" (0xfd) 0x702-0x702.7 (1)
0x700|         79                                    |   y            |                    v_opcode: "i8x16.max_u" (121) 0x703-0x703.7 (1)
     |                                               |                |                  [3]{}: in 0x704-0x705.7 (2)
0x700|            fd                                 |    .           |                    opcode: "vector" (0xfd) 0x704-0x704.7 (1)
0x700|               62                              |     b          |                    v_opcode: "i8x16.popcnt" (98) 0x705-0x705.7 (1)
     |                                               |                |                  [4]{}: in 0x706-0x706.7 (1)
0x700|                  0b                           |      .         |                    opcode: "end" (0xb) 0x706-0x706.7 (1)
     |                                               |                |            [36]{}: code 0x707-0x713.7 (13)
0x700|                     0c                        |       .        |              size: 12 (valid) 0x707-0x707.7 (1)
     |                                               |                |              code{}: 0x708-0x713.7 (12)
     |                                               |                |                t{}: 0x708-0x708.7 (1)
0x700|                        00                     |        .       |                  n: 0 (valid) 0x708-0x708.7 (1)
     |                                               |                |                  x[0:0]: 0x709-NA (0)
     |                                               |                |                e[0:6]: 0x709-0x713.7 (11)
     |                                               |                |                  [0]{}: in 0x709-0x70a.7 (2)
0x700|                           20                  |                |                    opcode: "local.get" (0x20) 0x709-0x709.7 (1)
0x700|                              00               |          .     |                    x: 0 (valid) 0x70a-0x70a.7 (1)
     |                                               |                |                  [1]{}: in 0x70b-0x70c.7 (2)
0x700|                                 20            |                |                    opcode: "local.get" (0x20) 0x70b-0x70b.7 (1)
0x700|                                    01         |            .   |                    x: 1 (valid) 0x70c-0x70c.7 (1)
     |                                               |                |                  [2]{}: in 0x70d-0x70e.7 (2)
0x700|                                       fd      |             .  |                    opcode: "vector" (0xfd) 0x70d-0x70d.7 (1)
0x700|                                          7b   |              { |                    v_opcode: "i8x16.avgr_u" (123) 0x70e-0x70e.7 (1)
     |                                               |                |                  [3]{}: in 0x70f-0x710.7 (2)
0x700|                                             20|                |                    opcode: "local.get" (0x20) 0x70f-0x70f.7 (1)
0x710|02                                             |.               |                    x: 2 (valid) 0x710-0x710.7 (1)
     |                                               |                |                  [4]{}: in 0x711-0x712.7 (2)
0x710|   fd                                          | .              |                    opcode: "vector" (0xfd) 0x711-0x711.7 (1)
0x710|      7b                                       |  {             |                    v_opcode: "i8x16.avgr_u" (123) 0x712-0x712.7 (1)
     |                                               |                |                  [5]{}: in 0x713-0x713.7 (1)
0x710|         0b                                    |   .            |                    opcode: "end" (0xb) 0x713-0x713.7 (1)
     |                                               |                |            [37]{}: code 0x714-0x720.7 (13)
0x710|            0c                                 |    .           |              size: 12 (valid) 0x714-0x714.7 (1)
     |                                               |                |              code{}: 0x715-0x720.7 (12)
     |                                               |                |                t{}: 0x715-0x715.7 (1)
0x710|               00                              |     .          |                  n: 0 (valid) 0x715-0x715.7 (1)
     |                                               |                |                  x[0:0]: 0x716-NA (0)
     |                                               |                |                e[0:6]: 0x716-0x720.7 (11)
     |                                               |                |                  [0]{}: in 0x716-0x717.7 (2)
0x710|                  20                           |                |                    opcode: "local.get" (0x20) 0x716-0x716.7 (1)
0x710|                     00                        |       .        |                    x: 0 (valid) 0x717-0x717.7 (1)
     |                                               |                |                  [1]{}: in 0x718-0x719.7 (2)
0x710|                        20                     |                |                    opcode: "local.get" (0x20) 0x718-0x718.7 (1)
0x710|                           01                  |         .      |                    x: 1 (valid) 0x719-0x719.7 (1)
     |                                               |                |                  [2]{}: in 0x71a-0x71b.7 (2)
0x710|                              fd               |          .     |                    opcode: "vector" (0xfd) 0x71a-0x71a.7 (1)
0x710|                                 79            |           y    |                    v_opcode: "i8x16.max_u" (121) 0x71b-0x71b.7 (1)
     |                                               |                |                  [3]{}: in 0x71c-0x71d.7 (2)
0x710|                                    20         |                |                    opcode: "local.get" (0x20) 0x71c-0x71c.7 (1)
0x710|                                       02      |             .  |                    x: 2 (valid) 0x71d-0x71d.7 (1)
     |                                               |                |                  [4]{}: in 0x71e-0x71f.7 (2)
0x710|                                          fd   |              . |                    opcode: "vector" (0xfd) 0x71e-0x71e.7 (1)
0x710|                                             7b|               {|                    v_opcode: "i8x16.avgr_u" (123) 0x71f-0x71f.7 (1)
     |                                               |                |                  [5]{}: in 0x720-0x720.7 (1)
0x720|0b                                             |.               |                    opcode: "end" (0xb) 0x720-0x720.7 (1)
     |                                               |                |            [38]{}: code 0x721-0x72d.7 (13)
0x720|   0c                                          | .              |              size: 12 (valid) 0x721-0x721.7 (1)
     |                                               |                |              code{}: 0x722-0x72d.7 (12)
     |                                               |                |                t{}: 0x722-0x722.7 (1)
0x720|      00                                       |  .             |                  n: 0 (valid) 0x722-0x722.7 (1)
     |                                               |                |                  x[0:0]: 0x723-NA (0)
     |                                               |                |                e[0:6]: 0x723-0x72d.7 (11)
     |                                               |                |                  [0]{}: in 0x723-0x724.7 (2)
0x720|         20                                    |                |                    opcode: "local.get" (0x20) 0x723-0x723.7 (1)
0x720|            00                                 |    .           |                    x: 0 (valid) 0x724-0x724.7 (1)
     |                                               |                |                  [1]{}: in 0x725-0x726.7 (2)
0x720|               20                              |                |                    opcode: "local.get" (0x20) 0x725-0x725.7 (1)
0x720|                  01                           |      .         |                    x: 1 (valid) 0x726-0x726.7 (1)
     |                                               |                |                  [2]{}: in 0x727-0x728.7 (2)
0x720|                     fd                        |       .        |                    opcode: "vector" (0xfd) 0x727-0x727.7 (1)
0x720|                        78                     |        x       |                    v_opcode: "i8x16.max_s" (120) 0x728-0x728.7 (1)
     |                                               |                |                  [3]{}: in 0x729-0x72a.7 (2)
0x720|                           20                  |                |                    opcode: "local.get" (0x20) 0x729-0x729.7 (1)
0x720|                              02               |          .     |                    x: 2 (valid) 0x72a-0x72a.7 (1)
     |                                               |                |                  [4]{}: in 0x72b-0x72c.7 (2)
0x720|                                 fd            |           .    |                    opcode: "vector" (0xfd) 0x72b-0x72b.7 (1)
0x720|                                    7b         |            {   |                    v_opcode: "i8x16.avgr_u" (123) 0x72c-0x72c.7 (1)
     |                                               |                |                  [5]{}: in 0x72d-0x72d.7 (1)
0x720|                                       0b      |             .  |                    opcode: "end" (0xb) 0x72d-0x72d.7 (1)
     |                                               |                |            [39]{}: code 0x72e-0x73a.7 (13)
0x720|                                          0c   |              . |              size: 12 (valid) 0x72e-0x72e.7 (1)
     |                                               |                |              code{}: 0x72f-0x73a.7 (12)
     |                                               |                |                t{}: 0x72f-0x72f.7 (1)
0x720|                                             00|               .|                  n: 0 (valid) 0x72f-0x72f.7 (1)
     |                                               |                |                  x[0:0]: 0x730-NA (0)
     |                                               |                |                e[0:6]: 0x730-0x73a.7 (11)
     |                                               |                |                  [0]{}: in 0x730-0x731.7 (2)
0x730|20                                             |                |                    opcode: "local.get" (0x20) 0x730-0x730.7 (1)
0x730|   00                                          | .              |                    x: 0 (valid) 0x731-0x731.7 (1)
     |                                               |                |                  [1]{}: in 0x732-0x733.7 (2)
0x730|      20                                       |                |                    opcode: "local.get" (0x20) 0x732-0x732.7 (1)
0x730|         01                                    |   .            |                    x: 1 (valid) 0x733-0x733.7 (1)
     |                                               |                |                  [2]{}: in 0x734-0x735.7 (2)
0x730|            fd                                 |    .           |                    opcode: "vector" (0xfd) 0x734-0x734.7 (1)
0x730|               77                              |     w          |                    v_opcode: "i8x16.min_u" (119) 0x735-0x735.7 (1)
     |                                               |                |                  [3]{}: in 0x736-0x737.7 (2)
0x730|                  20                           |                |                    opcode: "local.get" (0x20) 0x736-0x736.7 (1)
0x730|                     02                        |       .        |                    x: 2 (valid) 0x737-0x737.7 (1)
     |                                               |                |                  [4]{}: in 0x738-0x739.7 (2)
0x730|                        fd                     |        .       |                    opcode: "vector" (0xfd) 0x738-0x738.7 (1)
0x730|                           7b                  |         {      |                    v_opcode: "i8x16.avgr_u" (123) 0x739-0x739.7 (1)
     |                                               |                |                  [5]{}: in 0x73a-0x73a.7 (1)
0x730|                              0b               |          .     |                    opcode: "end" (0xb) 0x73a-0x73a.7 (1)
     |                                               |                |            [40]{}: code 0x73b-0x747.7 (13)
0x730|                                 0c            |           .    |              size: 12 (valid) 0x73b-0x73b.7 (1)
     |                                               |                |              code{}: 0x73c-0x747.7 (12)
     |                                               |                |                t{}: 0x73c-0x73c.7 (1)
0x730|                                    00         |            .   |                  n: 0 (valid) 0x73c-0x73c.7 (1)
     |                                               |                |                  x[0:0]: 0x73d-NA (0)
     |                                               |                |                e[0:6]: 0x73d-0x747.7 (11)
     |                                               |                |                  [0]{}: in 0x73d-0x73e.7 (2)
0x730|                                       20      |                |                    opcode: "local.get" (0x20) 0x73d-0x73d.7 (1)
0x730|                                          00   |              . |                    x: 0 (valid) 0x73e-0x73e.7 (1)
     |                                               |                |                  [1]{}: in 0x73f-0x740.7 (2)
0x730|                                             20|                |                    opcode: "local.get" (0x20) 0x73f-0x73f.7 (1)
0x740|01                                             |.               |                    x: 1 (valid) 0x740-0x740.7 (1)
     |                                               |                |                  [2]{}: in 0x741-0x742.7 (2)
0x740|   fd                                          | .              |                    opcode: "vector" (0xfd) 0x741-0x741.7 (1)
0x740|      76                                       |  v             |                    v_opcode: "i8x16.min_s" (118) 0x742-0x742.7 (1)
     |                                               |                |                  [3]{}: in 0x743-0x744.7 (2)
0x740|         20                                    |                |                    opcode: "local.get" (0x20) 0x743-0x743.7 (1)
0x740|            02                                 |    .           |                    x: 2 (valid) 0x744-0x744.7 (1)
     |                                               |                |                  [4]{}: in 0x745-0x746.7 (2)
0x740|               fd                              |     .          |                    opcode: "vector" (0xfd) 0x745-0x745.7 (1)
0x740|                  7b                           |      {         |                    v_opcode: "i8x16.avgr_u" (123) 0x746-0x746.7 (1)
     |                                               |                |                  [5]{}: in 0x747-0x747.7 (1)
0x740|                     0b                        |       .        |                    opcode: "end" (0xb) 0x747-0x747.7 (1)
     |                                               |                |            [41]{}: code 0x748-0x752.7 (11)
0x740|                        0a                     |        .       |              size: 10 (valid) 0x748-0x748.7 (1)
     |                                               |                |              code{}: 0x749-0x752.7 (10)
     |                                               |                |                t{}: 0x749-0x749.7 (1)
0x740|                           00                  |         .      |                  n: 0 (valid) 0x749-0x749.7 (1)
     |                                               |                |                  x[0:0]: 0x74a-NA (0)
     |                                               |                |                e[0:5]: 0x74a-0x752.7 (9)
     |                                               |                |                  [0]{}: in 0x74a-0x74b.7 (2)
0x740|                              20               |                |                    opcode: "local.get" (0x20) 0x74a-0x74a.7 (1)
0x740|                                 00            |           .    |                    x: 0 (valid) 0x74b-0x74b.7 (1)
     |                                               |                |                  [1]{}: in 0x74c-0x74d.7 (2)
0x740|                                    fd         |            .   |                    opcode: "vector" (0xfd) 0x74c-0x74c.7 (1)
0x740|                                       60      |             `  |                    v_opcode: "i8x16.abs" (96) 0x74d-0x74d.7 (1)
     |                                               |                |                  [2]{}: in 0x74e-0x74f.7 (2)
0x740|                                          20   |                |                    opcode: "local.get" (0x20) 0x74e-0x74e.7 (1)
0x740|                                             01|               .|                    x: 1 (valid) 0x74f-0x74f.7 (1)
     |                                               |                |                  [3]{}: in 0x750-0x751.7 (2)
0x750|fd                                             |.               |                    opcode: "vector" (0xfd) 0x750-0x750.7 (1)
0x750|   7b                                          | {              |                    v_opcode: "i8x16.avgr_u" (123) 0x751-0x751.7 (1)
     |                                               |                |                  [4]{}: in 0x752-0x752.7 (1)
0x750|      0b                                       |  .             |                    opcode: "end" (0xb) 0x752-0x752.7 (1)
     |                                               |                |            [42]{}: code 0x753-0x75d.7 (11)
0x750|         0a                                    |   .            |              size: 10 (valid) 0x753-0x753.7 (1)
     |                                               |                |              code{}: 0x754-0x75d.7 (10)
     |                                               |                |                t{}: 0x754-0x754.7 (1)
0x750|            00                                 |    .           |                  n: 0 (valid) 0x754-0x754.7 (1)
     |                                               |                |                  x[0:0]: 0x755-NA (0)
     |                                               |                |                e[0:5]: 0x755-0x75d.7 (9)
     |                                               |                |                  [0]{}: in 0x755-0x756.7 (2)
0x750|               20                              |                |                    opcode: "local.get" (0x20) 0x755-0x755.7 (1)
0x750|                  00                           |      .         |                    x: 0 (valid) 0x756-0x756.7 (1)
     |                                               |                |                  [1]{}: in 0x757-0x758.7 (2)
0x750|                     20                        |                |                    opcode: "local.get" (0x20) 0x757-0x757.7 (1)
0x750|                        01                     |        .       |                    x: 1 (valid) 0x758-0x758.7 (1)
     |                                               |                |                  [2]{}: in 0x759-0x75a.7 (2)
0x750|                           fd                  |         .      |                    opcode: "vector" (0xfd) 0x759-0x759.7 (1)
0x750|                              7b               |          {     |                    v_opcode: "i8x16.avgr_u" (123) 0x75a-0x75a.7 (1)
     |                                               |                |                  [3]{}: in 0x75b-0x75c.7 (2)
0x750|                                 fd            |           .    |                    opcode: "vector" (0xfd) 0x75b-0x75b.7 (1)
0x750|                                    60         |            `   |                    v_opcode: "i8x16.abs" (96) 0x75c-0x75c.7 (1)
     |                                               |                |                  [4]{}: in 0x75d-0x75d.7 (1)
0x750|                                       0b      |             .  |                    opcode: "end" (0xb) 0x75d-0x75d.7 (1)
     |                                               |                |            [43]{}: code 0x75e-0x768.7 (11)
0x750|                                          0a   |              . |              size: 10 (valid) 0x75e-0x75e.7 (1)
     |                                               |                |              code{}: 0x75f-0x768.7 (10)
     |                                               |                |                t{}: 0x75f-0x75f.7 (1)
0x750|                                             00|               .|                  n: 0 (valid) 0x75f-0x75f.7 (1)
     |                                               |                |                  x[0:0]: 0x760-NA (0)
     |                                               |                |                e[0:5]: 0x760-0x768.7 (9)
     |                                               |                |                  [0]{}: in 0x760-0x761.7 (2)
0x760|20                                             |                |                    opcode: "local.get" (0x20) 0x760-0x760.7 (1)
0x760|   00                                          | .              |                    x: 0 (valid) 0x761-0x761.7 (1)
     |                                               |                |                  [1]{}: in 0x762-0x763.7 (2)
0x760|      fd                                       |  .             |                    opcode: "vector" (0xfd) 0x762-0x762.7 (1)
0x760|         62                                    |   b            |                    v_opcode: "i8x16.popcnt" (98) 0x763-0x763.7 (1)
     |                                               |                |                  [2]{}: in 0x764-0x765.7 (2)
0x760|            20                                 |                |                    opcode: "local.get" (0x20) 0x764-0x764.7 (1)
0x760|               01                              |     .          |                    x: 1 (valid) 0x765-0x765.7 (1)
     |                                               |                |                  [3]{}: in 0x766-0x767.7 (2)
0x760|                  fd                           |      .         |                    opcode: "vector" (0xfd) 0x766-0x766.7 (1)
0x760|                     7b                        |       {        |                    v_opcode: "i8x16.avgr_u" (123) 0x767-0x767.7 (1)
     |                                               |                |                  [4]{}: in 0x768-0x768.7 (1)
0x760|                        0b                     |        .       |                    opcode: "end" (0xb) 0x768-0x768.7 (1)
     |                                               |                |            [44]{}: code 0x769-0x773.7 (11)
0x760|                           0a                  |         .      |              size: 10 (valid) 0x769-0x769.7 (1)
     |                                               |                |              code{}: 0x76a-0x773.7 (10)
     |                                               |                |                t{}: 0x76a-0x76a.7 (1)
0x760|                              00               |          .     |                  n: 0 (valid) 0x76a-0x76a.7 (1)
     |                                               |                |                  x[0:0]: 0x76b-NA (0)
     |                                               |                |                e[0:5]: 0x76b-0x773.7 (9)
     |                                               |                |                  [0]{}: in 0x76b-0x76c.7 (2)
0x760|                                 20            |                |                    opcode: "local.get" (0x20) 0x76b-0x76b.7 (1)
0x760|                                    00         |            .   |                    x: 0 (valid) 0x76c-0x76c.7 (1)
     |                                               |                |                  [1]{}: in 0x76d-0x76e.7 (2)
0x760|                                       20      |                |                    opcode: "local.get" (0x20) 0x76d-0x76d.7 (1)
0x760|                                          01   |              . |                    x: 1 (valid) 0x76e-0x76e.7 (1)
     |                                               |                |                  [2]{}: in 0x76f-0x770.7 (2)
0x760|                                             fd|               .|                    opcode: "vector" (0xfd) 0x76f-0x76f.7 (1)
0x770|7b                                             |{               |                    v_opcode: "i8x16.avgr_u" (123) 0x770-0x770.7 (1)
     |                                               |                |                  [3]{}: in 0x771-0x772.7 (2)
0x770|   fd                                          | .              |                    opcode: "vector" (0xfd) 0x771-0x771.7 (1)
0x770|      62                                       |  b             |                    v_opcode: "i8x16.popcnt" (98) 0x772-0x772.7 (1)
     |                                               |                |                  [4]{}: in 0x773-0x773.7 (1)
0x770|         0b                                    |   .            |                    opcode: "end" (0xb) 0x773-0x773.7 (1)
     |                                               |                |            [45]{}: code 0x774-0x77c.7 (9)
0x770|            08                                 |    .           |              size: 8 (valid) 0x774-0x774.7 (1)
     |                                               |                |              code{}: 0x775-0x77c.7 (8)
     |                                               |                |                t{}: 0x775-0x775.7 (1)
0x770|               00                              |     .          |                  n: 0 (valid) 0x775-0x775.7 (1)
     |                                               |                |                  x[0:0]: 0x776-NA (0)
     |                                               |                |                e[0:4]: 0x776-0x77c.7 (7)
     |                                               |                |                  [0]{}: in 0x776-0x777.7 (2)
0x770|                  20                           |                |                    opcode: "local.get" (0x20) 0x776-0x776.7 (1)
0x770|                     00                        |       .        |                    x: 0 (valid) 0x777-0x777.7 (1)
     |                                               |                |                  [1]{}: in 0x778-0x779.7 (2)
0x770|                        fd                     |        .       |                    opcode: "vector" (0xfd) 0x778-0x778.7 (1)
0x770|                           62                  |         b      |                    v_opcode: "i8x16.popcnt" (98) 0x779-0x779.7 (1)
     |                                               |                |                  [2]{}: in 0x77a-0x77b.7 (2)
0x770|                              fd               |          .     |                    opcode: "vector" (0xfd) 0x77a-0x77a.7 (1)
0x770|                                 60            |           `    |                    v_opcode: "i8x16.abs" (96) 0x77b-0x77b.7 (1)
     |                                               |                |                  [3]{}: in 0x77c-0x77c.7 (1)
0x770|                                    0b         |            .   |                    opcode: "end" (0xb) 0x77c-0x77c.7 (1)
     |                                               |                |            [46]{}: code 0x77d-0x785.7 (9)
0x770|                                       08      |             .  |              size: 8 (valid) 0x77d-0x77d.7 (1)
     |                                               |                |              code{}: 0x77e-0x785.7 (8)
     |                                               |                |                t{}: 0x77e-0x77e.7 (1)
0x770|                                          00   |              . |                  n: 0 (valid) 0x77e-0x77e.7 (1)
     |                                               |                |                  x[0:0]: 0x77f-NA (0)
     |                                               |                |                e[0:4]: 0x77f-0x785.7 (7)
     |                                               |                |                  [0]{}: in 0x77f-0x780.7 (2)
0x770|                                             20|                |                    opcode: "local.get" (0x20) 0x77f-0x77f.7 (1)
0x780|00                                             |.               |                    x: 0 (valid) 0x780-0x780.7 (1)
     |                                               |                |                  [1]{}: in 0x781-0x782.7 (2)
0x780|   fd                                          | .              |                    opcode: "vector" (0xfd) 0x781-0x781.7 (1)
0x780|      60                                       |  `             |                    v_opcode: "i8x16.abs" (96) 0x782-0x782.7 (1)
     |                                               |                |                  [2]{}: in 0x783-0x784.7 (2)
0x780|         fd                                    |   .            |                    opcode: "vector" (0xfd) 0x783-0x783.7 (1)
0x780|            60                                 |    `           |                    v_opcode: "i8x16.abs" (96) 0x784-0x784.7 (1)
     |                                               |                |                  [3]{}: in 0x785-0x785.7 (1)
0x780|               0b                              |     .          |                    opcode: "end" (0xb) 0x785-0x785.7 (1)
     |                                               |                |            [47]{}: code 0x786-0x78e.7 (9)
0x780|                  08                           |      .         |              size: 8 (valid) 0x786-0x786.7 (1)
     |                                               |                |              code{}: 0x787-0x78e.7 (8)
     |                                               |                |                t{}: 0x787-0x787.7 (1)
0x780|                     00                        |       .        |                  n: 0 (valid) 0x787-0x787.7 (1)
     |                                               |                |                  x[0:0]: 0x788-NA (0)
     |                                               |                |                e[0:4]: 0x788-0x78e.7 (7)
     |                                               |                |                  [0]{}: in 0x788-0x789.7 (2)
0x780|                        20                     |                |                    opcode: "local.get" (0x20) 0x788-0x788.7 (1)
0x780|                           00                  |         .      |                    x: 0 (valid) 0x789-0x789.7 (1)
     |                                               |                |                  [1]{}: in 0x78a-0x78b.7 (2)
0x780|                              fd               |          .     |                    opcode: "vector" (0xfd) 0x78a-0x78a.7 (1)
0x780|                                 62            |           b    |                    v_opcode: "i8x16.popcnt" (98) 0x78b-0x78b.7 (1)
     |                                               |                |                  [2]{}: in 0x78c-0x78d.7 (2)
0x780|                                    fd         |            .   |                    opcode: "vector" (0xfd) 0x78c-0x78c.7 (1)
0x780|                                       62      |             b  |                    v_opcode: "i8x16.popcnt" (98) 0x78d-0x78d.7 (1)
     |                                               |                |                  [3]{}: in 0x78e-0x78e.7 (1)
0x780|                                          0b   |              . |                    opcode: "end" (0xb) 0x78e-0x78e.7 (1)
     |                                               |                |            [48]{}: code 0x78f-0x797.7 (9)
0x780|                                             08|               .|              size: 8 (valid) 0x78f-0x78f.7 (1)
     |                                               |                |              code{}: 0x790-0x797.7 (8)
     |                                               |                |                t{}: 0x790-0x790.7 (1)
0x790|00                                             |.               |                  n: 0 (valid) 0x790-0x790.7 (1)
     |                                               |                |                  x[0:0]: 0x791-NA (0)
     |                                               |                |                e[0:4]: 0x791-0x797.7 (7)
     |                                               |                |                  [0]{}: in 0x791-0x792.7 (2)
0x790|   20                                          |                |                    opcode: "local.get" (0x20) 0x791-0x791.7 (1)
0x790|      00                                       |  .             |                    x: 0 (valid) 0x792-0x792.7 (1)
     |                                               |                |                  [1]{}: in 0x793-0x794.7 (2)
0x790|         fd                                    |   .            |                    opcode: "vector" (0xfd) 0x793-0x793.7 (1)
0x790|            60                                 |    `           |                    v_opcode: "i8x16.abs" (96) 0x794-0x794.7 (1)
     |                                               |                |                  [2]{}: in 0x795-0x796.7 (2)
0x790|               fd                              |     .          |                    opcode: "vector" (0xfd) 0x795-0x795.7 (1)
0x790|                  62                           |      b         |                    v_opcode: "i8x16.popcnt" (98) 0x796-0x796.7 (1)
     |                                               |                |                  [3]{}: in 0x797-0x797.7 (1)
0x790|                     0b|                       |       .|       |                    opcode: "end" (0xb) 0x797-0x797.7 (1)
