$ fq -d wasm dv simd_lane-0.wasm
     |00 01 02 03 04 05 06 07 08 09 0a 0b 0c 0d 0e 0f|0123456789abcdef|.{}: simd_lane-0.wasm (wasm) 0x0-0x59f.7 (1440)
0x000|00 61 73 6d                                    |.asm            |  magic: raw bits (valid) 0x0-0x3.7 (4)
0x000|            01 00 00 00                        |    ....        |  version: 1 0x4-0x7.7 (4)
     |                                               |                |  sections[0:4]: 0x8-0x59f.7 (1432)
     |                                               |                |    [0]{}: section 0x8-0x3c.7 (53)
0x000|                        01                     |        .       |      id: "type section" (1) 0x8-0x8.7 (1)
0x000|                           33                  |         3      |      size: 51 0x9-0x9.7 (1)
     |                                               |                |      content{}: 0xa-0x3c.7 (51)
     |                                               |                |        ft{}: 0xa-0x3c.7 (51)
0x000|                              09               |          .     |          n: 9 0xa-0xa.7 (1)
     |                                               |                |          x[0:9]: 0xb-0x3c.7 (50)
     |                                               |                |            [0]{}: ft 0xb-0xf.7 (5)
0x000|                                 60            |           `    |              tag: 0x60 (valid) 0xb-0xb.7 (1)
     |                                               |                |              rt1{}: 0xc-0xd.7 (2)
0x000|                                    01         |            .   |                n: 1 0xc-0xc.7 (1)
     |                                               |                |                x[0:1]: 0xd-0xd.7 (1)
0x000|                                       7b      |             {  |                  [0]: "v128" (0x7b) t 0xd-0xd.7 (1)
     |                                               |                |              rt2{}: 0xe-0xf.7 (2)
0x000|                                          01   |              . |                n: 1 0xe-0xe.7 (1)
     |                                               |                |                x[0:1]: 0xf-0xf.7 (1)
0x000|                                             7f|               .|                  [0]: "i32" (0x7f) t 0xf-0xf.7 (1)
     |                                               |                |            [1]{}: ft 0x10-0x14.7 (5)
0x010|60                                             |`               |              tag: 0x60 (valid) 0x10-0x10.7 (1)
     |                                               |                |              rt1{}: 0x11-0x12.7 (2)
0x010|   01                                          | .              |                n: 1 0x11-0x11.7 (1)
     |                                               |                |                x[0:1]: 0x12-0x12.7 (1)
0x010|      7b                                       |  {             |                  [0]: "v128" (0x7b) t 0x12-0x12.7 (1)
     |                                               |                |              rt2{}: 0x13-0x14.7 (2)
0x010|         01                                    |   .            |                n: 1 0x13-0x13.7 (1)
     |                                               |                |                x[0:1]: 0x14-0x14.7 (1)
0x010|            7d                                 |    }           |                  [0]: "f32" (0x7d) t 0x14-0x14.7 (1)
     |                                               |                |            [2]{}: ft 0x15-0x1a.7 (6)
0x010|               60                              |     `          |              tag: 0x60 (valid) 0x15-0x15.7 (1)
     |                                               |                |              rt1{}: 0x16-0x18.7 (3)
0x010|                  02                           |      .         |                n: 2 0x16-0x16.7 (1)
     |                                               |                |                x[0:2]: 0x17-0x18.7 (2)
0x010|                     7b                        |       {        |                  [0]: "v128" (0x7b) t 0x17-0x17.7 (1)
0x010|                        7f                     |        .       |                  [1]: "i32" (0x7f) t 0x18-0x18.7 (1)
     |                                               |                |              rt2{}: 0x19-0x1a.7 (2)
0x010|                           01                  |         .      |                n: 1 0x19-0x19.7 (1)
     |                                               |                |                x[0:1]: 0x1a-0x1a.7 (1)
0x010|                              7b               |          {     |                  [0]: "v128" (0x7b) t 0x1a-0x1a.7 (1)
     |                                               |                |            [3]{}: ft 0x1b-0x20.7 (6)
0x010|                                 60            |           `    |              tag: 0x60 (valid) 0x1b-0x1b.7 (1)
     |                                               |                |              rt1{}: 0x1c-0x1e.7 (3)
0x010|                                    02         |            .   |                n: 2 0x1c-0x1c.7 (1)
     |                                               |                |                x[0:2]: 0x1d-0x1e.7 (2)
0x010|                                       7b      |             {  |                  [0]: "v128" (0x7b) t 0x1d-0x1d.7 (1)
0x010|                                          7d   |              } |                  [1]: "f32" (0x7d) t 0x1e-0x1e.7 (1)
     |                                               |                |              rt2{}: 0x1f-0x20.7 (2)
0x010|                                             01|               .|                n: 1 0x1f-0x1f.7 (1)
     |                                               |                |                x[0:1]: 0x20-0x20.7 (1)
0x020|7b                                             |{               |                  [0]: "v128" (0x7b) t 0x20-0x20.7 (1)
     |                                               |                |            [4]{}: ft 0x21-0x25.7 (5)
0x020|   60                                          | `              |              tag: 0x60 (valid) 0x21-0x21.7 (1)
     |                                               |                |              rt1{}: 0x22-0x23.7 (2)
0x020|      01                                       |  .             |                n: 1 0x22-0x22.7 (1)
     |                                               |                |                x[0:1]: 0x23-0x23.7 (1)
0x020|         7b                                    |   {            |                  [0]: "v128" (0x7b) t 0x23-0x23.7 (1)
     |                                               |                |              rt2{}: 0x24-0x25.7 (2)
0x020|            01                                 |    .           |                n: 1 0x24-0x24.7 (1)
     |                                               |                |                x[0:1]: 0x25-0x25.7 (1)
0x020|               7e                              |     ~          |                  [0]: "i64" (0x7e) t 0x25-0x25.7 (1)
     |                                               |                |            [5]{}: ft 0x26-0x2a.7 (5)
0x020|                  60                           |      `         |              tag: 0x60 (valid) 0x26-0x26.7 (1)
     |                                               |                |              rt1{}: 0x27-0x28.7 (2)
0x020|                     01                        |       .        |                n: 1 0x27-0x27.7 (1)
     |                                               |                |                x[0:1]: 0x28-0x28.7 (1)
0x020|                        7b                     |        {       |                  [0]: "v128" (0x7b) t 0x28-0x28.7 (1)
     |                                               |                |              rt2{}: 0x29-0x2a.7 (2)
0x020|                           01                  |         .      |                n: 1 0x29-0x29.7 (1)
     |                                               |                |                x[0:1]: 0x2a-0x2a.7 (1)
0x020|                              7c               |          |     |                  [0]: "f64" (0x7c) t 0x2a-0x2a.7 (1)
     |                                               |                |            [6]{}: ft 0x2b-0x30.7 (6)
0x020|                                 60            |           `    |              tag: 0x60 (valid) 0x2b-0x2b.7 (1)
     |                                               |                |              rt1{}: 0x2c-0x2e.7 (3)
0x020|                                    02         |            .   |                n: 2 0x2c-0x2c.7 (1)
     |                                               |                |                x[0:2]: 0x2d-0x2e.7 (2)
0x020|                                       7b      |             {  |                  [0]: "v128" (0x7b) t 0x2d-0x2d.7 (1)
0x020|                                          7e   |              ~ |                  [1]: "i64" (0x7e) t 0x2e-0x2e.7 (1)
     |                                               |                |              rt2{}: 0x2f-0x30.7 (2)
0x020|                                             01|               .|                n: 1 0x2f-0x2f.7 (1)
     |                                               |                |                x[0:1]: 0x30-0x30.7 (1)
0x030|7b                                             |{               |                  [0]: "v128" (0x7b) t 0x30-0x30.7 (1)
     |                                               |                |            [7]{}: ft 0x31-0x36.7 (6)
0x030|   60                                          | `              |              tag: 0x60 (valid) 0x31-0x31.7 (1)
     |                                               |                |              rt1{}: 0x32-0x34.7 (3)
0x030|      02                                       |  .             |                n: 2 0x32-0x32.7 (1)
     |                                               |                |                x[0:2]: 0x33-0x34.7 (2)
0x030|         7b                                    |   {            |                  [0]: "v128" (0x7b) t 0x33-0x33.7 (1)
0x030|            7c                                 |    |           |                  [1]: "f64" (0x7c) t 0x34-0x34.7 (1)
     |                                               |                |              rt2{}: 0x35-0x36.7 (2)
0x030|               01                              |     .          |                n: 1 0x35-0x35.7 (1)
     |                                               |                |                x[0:1]: 0x36-0x36.7 (1)
0x030|                  7b                           |      {         |                  [0]: "v128" (0x7b) t 0x36-0x36.7 (1)
     |                                               |                |            [8]{}: ft 0x37-0x3c.7 (6)
0x030|                     60                        |       `        |              tag: 0x60 (valid) 0x37-0x37.7 (1)
     |                                               |                |              rt1{}: 0x38-0x3a.7 (3)
0x030|                        02                     |        .       |                n: 2 0x38-0x38.7 (1)
     |                                               |                |                x[0:2]: 0x39-0x3a.7 (2)
0x030|                           7b                  |         {      |                  [0]: "v128" (0x7b) t 0x39-0x39.7 (1)
0x030|                              7b               |          {     |                  [1]: "v128" (0x7b) t 0x3a-0x3a.7 (1)
     |                                               |                |              rt2{}: 0x3b-0x3c.7 (2)
0x030|                                 01            |           .    |                n: 1 0x3b-0x3b.7 (1)
     |                                               |                |                x[0:1]: 0x3c-0x3c.7 (1)
0x030|                                    7b         |            {   |                  [0]: "v128" (0x7b) t 0x3c-0x3c.7 (1)
     |                                               |                |    [1]{}: section 0x3d-0x63.7 (39)
0x030|                                       03      |             .  |      id: "function section" (3) 0x3d-0x3d.7 (1)
0x030|                                          25   |              % |      size: 37 0x3e-0x3e.7 (1)
     |                                               |                |      content{}: 0x3f-0x63.7 (37)
     |                                               |                |        x{}: 0x3f-0x63.7 (37)
0x030|                                             24|               $|          n: 36 0x3f-0x3f.7 (1)
     |                                               |                |          x[0:36]: 0x40-0x63.7 (36)
0x040|00                                             |.               |            [0]: 0 x 0x40-0x40.7 (1)
0x040|   00                                          | .              |            [1]: 0 x 0x41-0x41.7 (1)
0x040|      00                                       |  .             |            [2]: 0 x 0x42-0x42.7 (1)
0x040|         00                                    |   .            |            [3]: 0 x 0x43-0x43.7 (1)
0x040|            00                                 |    .           |            [4]: 0 x 0x44-0x44.7 (1)
0x040|               00                              |     .          |            [5]: 0 x 0x45-0x45.7 (1)
0x040|                  00                           |      .         |            [6]: 0 x 0x46-0x46.7 (1)
0x040|                     00                        |       .        |            [7]: 0 x 0x47-0x47.7 (1)
0x040|                        00                     |        .       |            [8]: 0 x 0x48-0x48.7 (1)
0x040|                           00                  |         .      |            [9]: 0 x 0x49-0x49.7 (1)
0x040|                              01               |          .     |            [10]: 1 x 0x4a-0x4a.7 (1)
0x040|                                 01            |           .    |            [11]: 1 x 0x4b-0x4b.7 (1)
0x040|                                    02         |            .   |            [12]: 2 x 0x4c-0x4c.7 (1)
0x040|                                       02      |             .  |            [13]: 2 x 0x4d-0x4d.7 (1)
0x040|                                          02   |              . |            [14]: 2 x 0x4e-0x4e.7 (1)
0x040|                                             02|               .|            [15]: 2 x 0x4f-0x4f.7 (1)
0x050|02                                             |.               |            [16]: 2 x 0x50-0x50.7 (1)
0x050|   02                                          | .              |            [17]: 2 x 0x51-0x51.7 (1)
0x050|      03                                       |  .             |            [18]: 3 x 0x52-0x52.7 (1)
0x050|         03                                    |   .            |            [19]: 3 x 0x53-0x53.7 (1)
0x050|            04                                 |    .           |            [20]: 4 x 0x54-0x54.7 (1)
0x050|               04                              |     .          |            [21]: 4 x 0x55-0x55.7 (1)
0x050|                  05                           |      .         |            [22]: 5 x 0x56-0x56.7 (1)
0x050|                     05                        |       .        |            [23]: 5 x 0x57-0x57.7 (1)
0x050|                        06                     |        .       |            [24]: 6 x 0x58-0x58.7 (1)
0x050|                           06                  |         .      |            [25]: 6 x 0x59-0x59.7 (1)
0x050|                              07               |          .     |            [26]: 7 x 0x5a-0x5a.7 (1)
0x050|                                 07            |           .    |            [27]: 7 x 0x5b-0x5b.7 (1)
0x050|                                    08         |            .   |            [28]: 8 x 0x5c-0x5c.7 (1)
0x050|                                       08      |             .  |            [29]: 8 x 0x5d-0x5d.7 (1)
0x050|                                          08   |              . |            [30]: 8 x 0x5e-0x5e.7 (1)
0x050|                                             08|               .|            [31]: 8 x 0x5f-0x5f.7 (1)
0x060|08                                             |.               |            [32]: 8 x 0x60-0x60.7 (1)
0x060|   08                                          | .              |            [33]: 8 x 0x61-0x61.7 (1)
0x060|      08                                       |  .             |            [34]: 8 x 0x62-0x62.7 (1)
0x060|         08                                    |   .            |            [35]: 8 x 0x63-0x63.7 (1)
     |                                               |                |    [2]{}: section 0x64-0x3eb.7 (904)
0x060|            07                                 |    .           |      id: "export section" (7) 0x64-0x64.7 (1)
0x060|               85 07                           |     ..         |      size: 901 0x65-0x66.7 (2)
     |                                               |                |      content{}: 0x67-0x3eb.7 (901)
     |                                               |                |        ex{}: 0x67-0x3eb.7 (901)
0x060|                     24                        |       $        |          n: 36 0x67-0x67.7 (1)
     |                                               |                |          x[0:36]: 0x68-0x3eb.7 (900)
     |                                               |                |            [0]{}: ex 0x68-0x84.7 (29)
     |                                               |                |              nm{}: 0x68-0x82.7 (27)
0x060|                        1a                     |        .       |                n: 26 0x68-0x68.7 (1)
0x060|                           69 38 78 31 36 5f 65|         i8x16_e|                b: "i8x16_extract_lane_s-first" 0x69-0x82.7 (26)
0x070|78 74 72 61 63 74 5f 6c 61 6e 65 5f 73 2d 66 69|xtract_lane_s-fi|
0x080|72 73 74                                       |rst             |
     |                                               |                |              d{}: 0x83-0x84.7 (2)
0x080|         00                                    |   .            |                tag: "funcidx" (0x0) 0x83-0x83.7 (1)
0x080|            00                                 |    .           |                x: 0 0x84-0x84.7 (1)
     |                                               |                |            [1]{}: ex 0x85-0xa0.7 (28)
     |                                               |                |              nm{}: 0x85-0x9e.7 (26)
0x080|               19                              |     .          |                n: 25 0x85-0x85.7 (1)
0x080|                  69 38 78 31 36 5f 65 78 74 72|      i8x16_extr|                b: "i8x16_extract_lane_s-last" 0x86-0x9e.7 (25)
0x090|61 63 74 5f 6c 61 6e 65 5f 73 2d 6c 61 73 74   |act_lane_s-last |
     |                                               |                |              d{}: 0x9f-0xa0.7 (2)
0x090|                                             00|               .|                tag: "funcidx" (0x0) 0x9f-0x9f.7 (1)
0x0a0|01                                             |.               |                x: 1 0xa0-0xa0.7 (1)
     |                                               |                |            [2]{}: ex 0xa1-0xbd.7 (29)
     |                                               |                |              nm{}: 0xa1-0xbb.7 (27)
0x0a0|   1a                                          | .              |                n: 26 0xa1-0xa1.7 (1)
0x0a0|      69 38 78 31 36 5f 65 78 74 72 61 63 74 5f|  i8x16_extract_|                b: "i8x16_extract_lane_u-first" 0xa2-0xbb.7 (26)
0x0b0|6c 61 6e 65 5f 75 2d 66 69 72 73 74            |lane_u-first    |
     |                                               |                |              d{}: 0xbc-0xbd.7 (2)
0x0b0|                                    00         |            .   |                tag: "funcidx" (0x0) 0xbc-0xbc.7 (1)
0x0b0|                                       02      |             .  |                x: 2 0xbd-0xbd.7 (1)
     |                                               |                |            [3]{}: ex 0xbe-0xd9.7 (28)
     |                                               |                |              nm{}: 0xbe-0xd7.7 (26)
0x0b0|                                          19   |              . |                n: 25 0xbe-0xbe.7 (1)
0x0b0|                                             69|               i|                b: "i8x16_extract_lane_u-last" 0xbf-0xd7.7 (25)
0x0c0|38 78 31 36 5f 65 78 74 72 61 63 74 5f 6c 61 6e|8x16_extract_lan|
0x0d0|65 5f 75 2d 6c 61 73 74                        |e_u-last        |
     |                                               |                |              d{}: 0xd8-0xd9.7 (2)
0x0d0|                        00                     |        .       |                tag: "funcidx" (0x0) 0xd8-0xd8.7 (1)
0x0d0|                           03                  |         .      |                x: 3 0xd9-0xd9.7 (1)
     |                                               |                |            [4]{}: ex 0xda-0xf6.7 (29)
     |                                               |                |              nm{}: 0xda-0xf4.7 (27)
0x0d0|                              1a               |          .     |                n: 26 0xda-0xda.7 (1)
0x0d0|                                 69 31 36 78 38|           i16x8|                b: "i16x8_extract_lane_s-first" 0xdb-0xf4.7 (26)
0x0e0|5f 65 78 74 72 61 63 74 5f 6c 61 6e 65 5f 73 2d|_extract_lane_s-|
0x0f0|66 69 72 73 74                                 |first           |
     |                                               |                |              d{}: 0xf5-0xf6.7 (2)
0x0f0|               00                              |     .          |                tag: "funcidx" (0x0) 0xf5-0xf5.7 (1)
0x0f0|                  04                           |      .         |                x: 4 0xf6-0xf6.7 (1)
     |                                               |                |            [5]{}: ex 0xf7-0x112.7 (28)
     |                                               |                |              nm{}: 0xf7-0x110.7 (26)
0x0f0|                     19                        |       .        |                n: 25 0xf7-0xf7.7 (1)
0x0f0|                        69 31 36 78 38 5f 65 78|        i16x8_ex|                b: "i16x8_extract_lane_s-last" 0xf8-0x110.7 (25)
0x100|74 72 61 63 74 5f 6c 61 6e 65 5f 73 2d 6c 61 73|tract_lane_s-las|
0x110|74                                             |t               |
     |                                               |                |              d{}: 0x111-0x112.7 (2)
0x110|   00                                          | .              |                tag: "funcidx" (0x0) 0x111-0x111.7 (1)
0x110|      05                                       |  .             |                x: 5 0x112-0x112.7 (1)
     |                                               |                |            [6]{}: ex 0x113-0x12f.7 (29)
     |                                               |                |              nm{}: 0x113-0x12d.7 (27)
0x110|         1a                                    |   .            |                n: 26 0x113-0x113.7 (1)
0x110|            69 31 36 78 38 5f 65 78 74 72 61 63|    i16x8_extrac|                b: "i16x8_extract_lane_u-first" 0x114-0x12d.7 (26)
0x120|74 5f 6c 61 6e 65 5f 75 2d 66 69 72 73 74      |t_lane_u-first  |
     |                                               |                |              d{}: 0x12e-0x12f.7 (2)
0x120|                                          00   |              . |                tag: "funcidx" (0x0) 0x12e-0x12e.7 (1)
0x120|                                             06|               .|                x: 6 0x12f-0x12f.7 (1)
     |                                               |                |            [7]{}: ex 0x130-0x14b.7 (28)
     |                                               |                |              nm{}: 0x130-0x149.7 (26)
0x130|19                                             |.               |                n: 25 0x130-0x130.7 (1)
0x130|   69 31 36 78 38 5f 65 78 74 72 61 63 74 5f 6c| i16x8_extract_l|                b: "i16x8_extract_lane_u-last" 0x131-0x149.7 (25)
0x140|61 6e 65 5f 75 2d 6c 61 73 74                  |ane_u-last      |
     |                                               |                |              d{}: 0x14a-0x14b.7 (2)
0x140|                              00               |          .     |                tag: "funcidx" (0x0) 0x14a-0x14a.7 (1)
0x140|                                 07            |           .    |                x: 7 0x14b-0x14b.7 (1)
     |                                               |                |            [8]{}: ex 0x14c-0x166.7 (27)
     |                                               |                |              nm{}: 0x14c-0x164.7 (25)
0x140|                                    18         |            .   |                n: 24 0x14c-0x14c.7 (1)
0x140|                                       69 33 32|             i32|                b: "i32x4_extract_lane-first" 0x14d-0x164.7 (24)
0x150|78 34 5f 65 78 74 72 61 63 74 5f 6c 61 6e 65 2d|x4_extract_lane-|
0x160|66 69 72 73 74                                 |first           |
     |                                               |                |              d{}: 0x165-0x166.7 (2)
0x160|               00                              |     .          |                tag: "funcidx" (0x0) 0x165-0x165.7 (1)
0x160|                  08                           |      .         |                x: 8 0x166-0x166.7 (1)
     |                                               |                |            [9]{}: ex 0x167-0x180.7 (26)
     |                                               |                |              nm{}: 0x167-0x17e.7 (24)
0x160|                     17                        |       .        |                n: 23 0x167-0x167.7 (1)
0x160|                        69 33 32 78 34 5f 65 78|        i32x4_ex|                b: "i32x4_extract_lane-last" 0x168-0x17e.7 (23)
0x170|74 72 61 63 74 5f 6c 61 6e 65 2d 6c 61 73 74   |tract_lane-last |
     |                                               |                |              d{}: 0x17f-0x180.7 (2)
0x170|                                             00|               .|                tag: "funcidx" (0x0) 0x17f-0x17f.7 (1)
0x180|09                                             |.               |                x: 9 0x180-0x180.7 (1)
     |                                               |                |            [10]{}: ex 0x181-0x19b.7 (27)
     |                                               |                |              nm{}: 0x181-0x199.7 (25)
0x180|   18                                          | .              |                n: 24 0x181-0x181.7 (1)
0x180|      66 33 32 78 34 5f 65 78 74 72 61 63 74 5f|  f32x4_extract_|                b: "f32x4_extract_lane-first" 0x182-0x199.7 (24)
0x190|6c 61 6e 65 2d 66 69 72 73 74                  |lane-first      |
     |                                               |                |              d{}: 0x19a-0x19b.7 (2)
0x190|                              00               |          .     |                tag: "funcidx" (0x0) 0x19a-0x19a.7 (1)
0x190|                                 0a            |           .    |                x: 10 0x19b-0x19b.7 (1)
     |                                               |                |            [11]{}: ex 0x19c-0x1b5.7 (26)
     |                                               |                |              nm{}: 0x19c-0x1b3.7 (24)
0x190|                                    17         |            .   |                n: 23 0x19c-0x19c.7 (1)
0x190|                                       66 33 32|             f32|                b: "f32x4_extract_lane-last" 0x19d-0x1b3.7 (23)
0x1a0|78 34 5f 65 78 74 72 61 63 74 5f 6c 61 6e 65 2d|x4_extract_lane-|
0x1b0|6c 61 73 74                                    |last            |
     |                                               |                |              d{}: 0x1b4-0x1b5.7 (2)
0x1b0|            00                                 |    .           |                tag: "funcidx" (0x0) 0x1b4-0x1b4.7 (1)
0x1b0|               0b                              |     .          |                x: 11 0x1b5-0x1b5.7 (1)
     |                                               |                |            [12]{}: ex 0x1b6-0x1d0.7 (27)
     |                                               |                |              nm{}: 0x1b6-0x1ce.7 (25)
0x1b0|                  18                           |      .         |                n: 24 0x1b6-0x1b6.7 (1)
0x1b0|                     69 38 78 31 36 5f 72 65 70|       i8x16_rep|                b: "i8x16_replace_lane-first" 0x1b7-0x1ce.7 (24)
0x1c0|6c 61 63 65 5f 6c 61 6e 65 2d 66 69 72 73 74   |lace_lane-first |
     |                                               |                |              d{}: 0x1cf-0x1d0.7 (2)
0x1c0|                                             00|               .|                tag: "funcidx" (0x0) 0x1cf-0x1cf.7 (1)
0x1d0|0c                                             |.               |                x: 12 0x1d0-0x1d0.7 (1)
     |                                               |                |            [13]{}: ex 0x1d1-0x1ea.7 (26)
     |                                               |                |              nm{}: 0x1d1-0x1e8.7 (24)
0x1d0|   17                                          | .              |                n: 23 0x1d1-0x1d1.7 (1)
0x1d0|      69 38 78 31 36 5f 72 65 70 6c 61 63 65 5f|  i8x16_replace_|                b: "i8x16_replace_lane-last" 0x1d2-0x1e8.7 (23)
0x1e0|6c 61 6e 65 2d 6c 61 73 74                     |lane-last       |
     |                                               |                |              d{}: 0x1e9-0x1ea.7 (2)
0x1e0|                           00                  |         .      |                tag: "funcidx" (0x0) 0x1e9-0x1e9.7 (1)
0x1e0|                              0d               |          .     |                x: 13 0x1ea-0x1ea.7 (1)
     |                                               |                |            [14]{}: ex 0x1eb-0x205.7 (27)
     |                                               |                |              nm{}: 0x1eb-0x203.7 (25)
0x1e0|                                 18            |           .    |                n: 24 0x1eb-0x1eb.7 (1)
0x1e0|                                    69 31 36 78|            i16x|                b: "i16x8_replace_lane-first" 0x1ec-0x203.7 (24)
0x1f0|38 5f 72 65 70 6c 61 63 65 5f 6c 61 6e 65 2d 66|8_replace_lane-f|
0x200|69 72 73 74                                    |irst            |
     |                                               |                |              d{}: 0x204-0x205.7 (2)
0x200|            00                                 |    .           |                tag: "funcidx" (0x0) 0x204-0x204.7 (1)
0x200|               0e                              |     .          |                x: 14 0x205-0x205.7 (1)
     |                                               |                |            [15]{}: ex 0x206-0x21f.7 (26)
     |                                               |                |              nm{}: 0x206-0x21d.7 (24)
0x200|                  17                           |      .         |                n: 23 0x206-0x206.7 (1)
0x200|                     69 31 36 78 38 5f 72 65 70|       i16x8_rep|                b: "i16x8_replace_lane-last" 0x207-0x21d.7 (23)
0x210|6c 61 63 65 5f 6c 61 6e 65 2d 6c 61 73 74      |lace_lane-last  |
     |                                               |                |              d{}: 0x21e-0x21f.7 (2)
0x210|                                          00   |              . |                tag: "funcidx" (0x0) 0x21e-0x21e.7 (1)
0x210|                                             0f|               .|                x: 15 0x21f-0x21f.7 (1)
     |                                               |                |            [16]{}: ex 0x220-0x23a.7 (27)
     |                                               |                |              nm{}: 0x220-0x238.7 (25)
0x220|18                                             |.               |                n: 24 0x220-0x220.7 (1)
0x220|   69 33 32 78 34 5f 72 65 70 6c 61 63 65 5f 6c| i32x4_replace_l|                b: "i32x4_replace_lane-first" 0x221-0x238.7 (24)
0x230|61 6e 65 2d 66 69 72 73 74                     |ane-first       |
     |                                               |                |              d{}: 0x239-0x23a.7 (2)
0x230|                           00                  |         .      |                tag: "funcidx" (0x0) 0x239-0x239.7 (1)
0x230|                              10               |          .     |                x: 16 0x23a-0x23a.7 (1)
     |                                               |                |            [17]{}: ex 0x23b-0x254.7 (26)
     |                                               |                |              nm{}: 0x23b-0x252.7 (24)
0x230|                                 17            |           .    |                n: 23 0x23b-0x23b.7 (1)
0x230|                                    69 33 32 78|            i32x|                b: "i32x4_replace_lane-last" 0x23c-0x252.7 (23)
0x240|34 5f 72 65 70 6c 61 63 65 5f 6c 61 6e 65 2d 6c|4_replace_lane-l|
0x250|61 73 74                                       |ast             |
     |                                               |                |              d{}: 0x253-0x254.7 (2)
0x250|         00                                    |   .            |                tag: "funcidx" (0x0) 0x253-0x253.7 (1)
0x250|            11                                 |    .           |                x: 17 0x254-0x254.7 (1)
     |                                               |                |            [18]{}: ex 0x255-0x26f.7 (27)
     |                                               |                |              nm{}: 0x255-0x26d.7 (25)
0x250|               18                              |     .          |                n: 24 0x255-0x255.7 (1)
0x250|                  66 33 32 78 34 5f 72 65 70 6c|      f32x4_repl|                b: "f32x4_replace_lane-first" 0x256-0x26d.7 (24)
0x260|61 63 65 5f 6c 61 6e 65 2d 66 69 72 73 74      |ace_lane-first  |
     |                                               |                |              d{}: 0x26e-0x26f.7 (2)
0x260|                                          00   |              . |                tag: "funcidx" (0x0) 0x26e-0x26e.7 (1)
0x260|                                             12|               .|                x: 18 0x26f-0x26f.7 (1)
     |                                               |                |            [19]{}: ex 0x270-0x289.7 (26)
     |                                               |                |              nm{}: 0x270-0x287.7 (24)
0x270|17                                             |.               |                n: 23 0x270-0x270.7 (1)
0x270|   66 33 32 78 34 5f 72 65 70 6c 61 63 65 5f 6c| f32x4_replace_l|                b: "f32x4_replace_lane-last" 0x271-0x287.7 (23)
0x280|61 6e 65 2d 6c 61 73 74                        |ane-last        |
     |                                               |                |              d{}: 0x288-0x289.7 (2)
0x280|                        00                     |        .       |                tag: "funcidx" (0x0) 0x288-0x288.7 (1)
0x280|                           13                  |         .      |                x: 19 0x289-0x289.7 (1)
     |                                               |                |            [20]{}: ex 0x28a-0x2a4.7 (27)
     |                                               |                |              nm{}: 0x28a-0x2a2.7 (25)
0x280|                              18               |          .     |                n: 24 0x28a-0x28a.7 (1)
0x280|                                 69 36 34 78 32|           i64x2|                b: "i64x2_extract_lane-first" 0x28b-0x2a2.7 (24)
0x290|5f 65 78 74 72 61 63 74 5f 6c 61 6e 65 2d 66 69|_extract_lane-fi|
0x2a0|72 73 74                                       |rst             |
     |                                               |                |              d{}: 0x2a3-0x2a4.7 (2)
0x2a0|         00                                    |   .            |                tag: "funcidx" (0x0) 0x2a3-0x2a3.7 (1)
0x2a0|            14                                 |    .           |                x: 20 0x2a4-0x2a4.7 (1)
     |                                               |                |            [21]{}: ex 0x2a5-0x2be.7 (26)
     |                                               |                |              nm{}: 0x2a5-0x2bc.7 (24)
0x2a0|               17                              |     .          |                n: 23 0x2a5-0x2a5.7 (1)
0x2a0|                  69 36 34 78 32 5f 65 78 74 72|      i64x2_extr|                b: "i64x2_extract_lane-last" 0x2a6-0x2bc.7 (23)
0x2b0|61 63 74 5f 6c 61 6e 65 2d 6c 61 73 74         |act_lane-last   |
     |                                               |                |              d{}: 0x2bd-0x2be.7 (2)
0x2b0|                                       00      |             .  |                tag: "funcidx" (0x0) 0x2bd-0x2bd.7 (1)
0x2b0|                                          15   |              . |                x: 21 0x2be-0x2be.7 (1)
     |                                               |                |            [22]{}: ex 0x2bf-0x2d9.7 (27)
     |                                               |                |              nm{}: 0x2bf-0x2d7.7 (25)
0x2b0|                                             18|               .|                n: 24 0x2bf-0x2bf.7 (1)
0x2c0|66 36 34 78 32 5f 65 78 74 72 61 63 74 5f 6c 61|f64x2_extract_la|                b: "f64x2_extract_lane-first" 0x2c0-0x2d7.7 (24)
0x2d0|6e 65 2d 66 69 72 73 74                        |ne-first        |
     |                                               |                |              d{}: 0x2d8-0x2d9.7 (2)
0x2d0|                        00                     |        .       |                tag: "funcidx" (0x0) 0x2d8-0x2d8.7 (1)
0x2d0|                           16                  |         .      |                x: 22 0x2d9-0x2d9.7 (1)
     |                                               |                |            [23]{}: ex 0x2da-0x2f3.7 (26)
     |                                               |                |              nm{}: 0x2da-0x2f1.7 (24)
0x2d0|                              17               |          .     |                n: 23 0x2da-0x2da.7 (1)
0x2d0|                                 66 36 34 78 32|           f64x2|                b: "f64x2_extract_lane-last" 0x2db-0x2f1.7 (23)
0x2e0|5f 65 78 74 72 61 63 74 5f 6c 61 6e 65 2d 6c 61|_extract_lane-la|
0x2f0|73 74                                          |st              |
     |                                               |                |              d{}: 0x2f2-0x2f3.7 (2)
0x2f0|      00                                       |  .             |                tag: "funcidx" (0x0) 0x2f2-0x2f2.7 (1)
0x2f0|         17                                    |   .            |                x: 23 0x2f3-0x2f3.7 (1)
     |                                               |                |            [24]{}: ex 0x2f4-0x30e.7 (27)
     |                                               |                |              nm{}: 0x2f4-0x30c.7 (25)
0x2f0|            18                                 |    .           |                n: 24 0x2f4-0x2f4.7 (1)
0x2f0|               69 36 34 78 32 5f 72 65 70 6c 61|     i64x2_repla|                b: "i64x2_replace_lane-first" 0x2f5-0x30c.7 (24)
0x300|63 65 5f 6c 61 6e 65 2d 66 69 72 73 74         |ce_lane-first   |
     |                                               |                |              d{}: 0x30d-0x30e.7 (2)
0x300|                                       00      |             .  |                tag: "funcidx" (0x0) 0x30d-0x30d.7 (1)
0x300|                                          18   |              . |                x: 24 0x30e-0x30e.7 (1)
     |                                               |                |            [25]{}: ex 0x30f-0x328.7 (26)
     |                                               |                |              nm{}: 0x30f-0x326.7 (24)
0x300|                                             17|               .|                n: 23 0x30f-0x30f.7 (1)
0x310|69 36 34 78 32 5f 72 65 70 6c 61 63 65 5f 6c 61|i64x2_replace_la|                b: "i64x2_replace_lane-last" 0x310-0x326.7 (23)
0x320|6e 65 2d 6c 61 73 74                           |ne-last         |
     |                                               |                |              d{}: 0x327-0x328.7 (2)
0x320|                     00                        |       .        |                tag: "funcidx" (0x0) 0x327-0x327.7 (1)
0x320|                        19                     |        .       |                x: 25 0x328-0x328.7 (1)
     |                                               |                |            [26]{}: ex 0x329-0x343.7 (27)
     |                                               |                |              nm{}: 0x329-0x341.7 (25)
0x320|                           18                  |         .      |                n: 24 0x329-0x329.7 (1)
0x320|                              66 36 34 78 32 5f|          f64x2_|                b: "f64x2_replace_lane-first" 0x32a-0x341.7 (24)
0x330|72 65 70 6c 61 63 65 5f 6c 61 6e 65 2d 66 69 72|replace_lane-fir|
0x340|73 74                                          |st              |
     |                                               |                |              d{}: 0x342-0x343.7 (2)
0x340|      00                                       |  .             |                tag: "funcidx" (0x0) 0x342-0x342.7 (1)
0x340|         1a                                    |   .            |                x: 26 0x343-0x343.7 (1)
     |                                               |                |            [27]{}: ex 0x344-0x35d.7 (26)
     |                                               |                |              nm{}: 0x344-0x35b.7 (24)
0x340|            17                                 |    .           |                n: 23 0x344-0x344.7 (1)
0x340|               66 36 34 78 32 5f 72 65 70 6c 61|     f64x2_repla|                b: "f64x2_replace_lane-last" 0x345-0x35b.7 (23)
0x350|63 65 5f 6c 61 6e 65 2d 6c 61 73 74            |ce_lane-last    |
     |                                               |                |              d{}: 0x35c-0x35d.7 (2)
0x350|                                    00         |            .   |                tag: "funcidx" (0x0) 0x35c-0x35c.7 (1)
0x350|                                       1b      |             .  |                x: 27 0x35d-0x35d.7 (1)
     |                                               |                |            [28]{}: ex 0x35e-0x36d.7 (16)
     |                                               |                |              nm{}: 0x35e-0x36b.7 (14)
0x350|                                          0d   |              . |                n: 13 0x35e-0x35e.7 (1)
0x350|                                             76|               v|                b: "v8x16_swizzle" 0x35f-0x36b.7 (13)
0x360|38 78 31 36 5f 73 77 69 7a 7a 6c 65            |8x16_swizzle    |
     |                                               |                |              d{}: 0x36c-0x36d.7 (2)
0x360|                                    00         |            .   |                tag: "funcidx" (0x0) 0x36c-0x36c.7 (1)
0x360|                                       1c      |             .  |                x: 28 0x36d-0x36d.7 (1)
     |                                               |                |            [29]{}: ex 0x36e-0x37f.7 (18)
     |                                               |                |              nm{}: 0x36e-0x37d.7 (16)
0x360|                                          0f   |              . |                n: 15 0x36e-0x36e.7 (1)
0x360|                                             76|               v|                b: "v8x16_shuffle-1" 0x36f-0x37d.7 (15)
0x370|38 78 31 36 5f 73 68 75 66 66 6c 65 2d 31      |8x16_shuffle-1  |
     |                                               |                |              d{}: 0x37e-0x37f.7 (2)
0x370|                                          00   |              . |                tag: "funcidx" (0x0) 0x37e-0x37e.7 (1)
0x370|                                             1d|               .|                x: 29 0x37f-0x37f.7 (1)
     |                                               |                |            [30]{}: ex 0x380-0x391.7 (18)
     |                                               |                |              nm{}: 0x380-0x38f.7 (16)
0x380|0f                                             |.               |                n: 15 0x380-0x380.7 (1)
0x380|   76 38 78 31 36 5f 73 68 75 66 66 6c 65 2d 32| v8x16_shuffle-2|                b: "v8x16_shuffle-2" 0x381-0x38f.7 (15)
     |                                               |                |              d{}: 0x390-0x391.7 (2)
0x390|00                                             |.               |                tag: "funcidx" (0x0) 0x390-0x390.7 (1)
0x390|   1e                                          | .              |                x: 30 0x391-0x391.7 (1)
     |                                               |                |            [31]{}: ex 0x392-0x3a3.7 (18)
     |                                               |                |              nm{}: 0x392-0x3a1.7 (16)
0x390|      0f                                       |  .             |                n: 15 0x392-0x392.7 (1)
0x390|         76 38 78 31 36 5f 73 68 75 66 66 6c 65|   v8x16_shuffle|                b: "v8x16_shuffle-3" 0x393-0x3a1.7 (15)
0x3a0|2d 33                                          |-3              |
     |                                               |                |              d{}: 0x3a2-0x3a3.7 (2)
0x3a0|      00                                       |  .             |                tag: "funcidx" (0x0) 0x3a2-0x3a2.7 (1)
0x3a0|         1f                                    |   .            |                x: 31 0x3a3-0x3a3.7 (1)
     |                                               |                |            [32]{}: ex 0x3a4-0x3b5.7 (18)
     |                                               |                |              nm{}: 0x3a4-0x3b3.7 (16)
0x3a0|            0f                                 |    .           |                n: 15 0x3a4-0x3a4.7 (1)
0x3a0|               76 38 78 31 36 5f 73 68 75 66 66|     v8x16_shuff|                b: "v8x16_shuffle-4" 0x3a5-0x3b3.7 (15)
0x3b0|6c 65 2d 34                                    |le-4            |
     |                                               |                |              d{}: 0x3b4-0x3b5.7 (2)
0x3b0|            00                                 |    .           |                tag: "funcidx" (0x0) 0x3b4-0x3b4.7 (1)
0x3b0|               20                              |                |                x: 32 0x3b5-0x3b5.7 (1)
     |                                               |                |            [33]{}: ex 0x3b6-0x3c7.7 (18)
     |                                               |                |              nm{}: 0x3b6-0x3c5.7 (16)
0x3b0|                  0f                           |      .         |                n: 15 0x3b6-0x3b6.7 (1)
0x3b0|                     76 38 78 31 36 5f 73 68 75|       v8x16_shu|                b: "v8x16_shuffle-5" 0x3b7-0x3c5.7 (15)
0x3c0|66 66 6c 65 2d 35                              |ffle-5          |
     |                                               |                |              d{}: 0x3c6-0x3c7.7 (2)
0x3c0|                  00                           |      .         |                tag: "funcidx" (0x0) 0x3c6-0x3c6.7 (1)
0x3c0|                     21                        |       !        |                x: 33 0x3c7-0x3c7.7 (1)
     |                                               |                |            [34]{}: ex 0x3c8-0x3d9.7 (18)
     |                                               |                |              nm{}: 0x3c8-0x3d7.7 (16)
0x3c0|                        0f                     |        .       |                n: 15 0x3c8-0x3c8.7 (1)
0x3c0|                           76 38 78 31 36 5f 73|         v8x16_s|                b: "v8x16_shuffle-6" 0x3c9-0x3d7.7 (15)
0x3d0|68 75 66 66 6c 65 2d 36                        |huffle-6        |
     |                                               |                |              d{}: 0x3d8-0x3d9.7 (2)
0x3d0|                        00                     |        .       |                tag: "funcidx" (0x0) 0x3d8-0x3d8.7 (1)
0x3d0|                           22                  |         "      |                x: 34 0x3d9-0x3d9.7 (1)
     |                                               |                |            [35]{}: ex 0x3da-0x3eb.7 (18)
     |                                               |                |              nm{}: 0x3da-0x3e9.7 (16)
0x3d0|                              0f               |          .     |                n: 15 0x3da-0x3da.7 (1)
0x3d0|                                 76 38 78 31 36|           v8x16|                b: "v8x16_shuffle-7" 0x3db-0x3e9.7 (15)
0x3e0|5f 73 68 75 66 66 6c 65 2d 37                  |_shuffle-7      |
     |                                               |                |              d{}: 0x3ea-0x3eb.7 (2)
0x3e0|                              00               |          .     |                tag: "funcidx" (0x0) 0x3ea-0x3ea.7 (1)
0x3e0|                                 23            |           #    |                x: 35 0x3eb-0x3eb.7 (1)
     |                                               |                |    [3]{}: section 0x3ec-0x59f.7 (436)
0x3e0|                                    0a         |            .   |      id: "code section" (10) 0x3ec-0x3ec.7 (1)
0x3e0|                                       b1 03   |             .. |      size: 433 0x3ed-0x3ee.7 (2)
     |                                               |                |      content{}: 0x3ef-0x59f.7 (433)
     |                                               |                |        code{}: 0x3ef-0x59f.7 (433)
0x3e0|                                             24|               $|          n: 36 0x3ef-0x3ef.7 (1)
     |                                               |                |          x[0:36]: 0x3f0-0x59f.7 (432)
     |                                               |                |            [0]{}: code 0x3f0-0x3f7.7 (8)
0x3f0|07                                             |.               |              size: 7 0x3f0-0x3f0.7 (1)
     |                                               |                |              code{}: 0x3f1-0x3f7.7 (7)
     |                                               |                |                t{}: 0x3f1-0x3f1.7 (1)
0x3f0|   00                                          | .              |                  n: 0 0x3f1-0x3f1.7 (1)
     |                                               |                |                  x[0:0]: 0x3f2-NA (0)
     |                                               |                |                e[0:3]: 0x3f2-0x3f7.7 (6)
     |                                               |                |                  [0]{}: in 0x3f2-0x3f3.7 (2)
0x3f0|      20                                       |                |                    local.get: 0x20 (valid) 0x3f2-0x3f2.7 (1)
0x3f0|         00                                    |   .            |                    x: 0 0x3f3-0x3f3.7 (1)
     |                                               |                |                  [1]{}: in 0x3f4-0x3f6.7 (3)
0x3f0|            fd                                 |    .           |                    prefix: 0xfd (valid) 0x3f4-0x3f4.7 (1)
0x3f0|               15                              |     .          |                    i8x16.extract_lane_s: 21 (valid) 0x3f5-0x3f5.7 (1)
0x3f0|                  00                           |      .         |                    l: 0 0x3f6-0x3f6.7 (1)
     |                                               |                |                  [2]{}: in 0x3f7-0x3f7.7 (1)
0x3f0|                     0b                        |       .        |                    end: 0xb (valid) 0x3f7-0x3f7.7 (1)
     |                                               |                |            [1]{}: code 0x3f8-0x3ff.7 (8)
0x3f0|                        07                     |        .       |              size: 7 0x3f8-0x3f8.7 (1)
     |                                               |                |              code{}: 0x3f9-0x3ff.7 (7)
     |                                               |                |                t{}: 0x3f9-0x3f9.7 (1)
0x3f0|                           00                  |         .      |                  n: 0 0x3f9-0x3f9.7 (1)
     |                                               |                |                  x[0:0]: 0x3fa-NA (0)
     |                                               |                |                e[0:3]: 0x3fa-0x3ff.7 (6)
     |                                               |                |                  [0]{}: in 0x3fa-0x3fb.7 (2)
0x3f0|                              20               |                |                    local.get: 0x20 (valid) 0x3fa-0x3fa.7 (1)
0x3f0|                                 00            |           .    |                    x: 0 0x3fb-0x3fb.7 (1)
     |                                               |                |                  [1]{}: in 0x3fc-0x3fe.7 (3)
0x3f0|                                    fd         |            .   |                    prefix: 0xfd (valid) 0x3fc-0x3fc.7 (1)
0x3f0|                                       15      |             .  |                    i8x16.extract_lane_s: 21 (valid) 0x3fd-0x3fd.7 (1)
0x3f0|                                          0f   |              . |                    l: 15 0x3fe-0x3fe.7 (1)
     |                                               |                |                  [2]{}: in 0x3ff-0x3ff.7 (1)
0x3f0|                                             0b|               .|                    end: 0xb (valid) 0x3ff-0x3ff.7 (1)
     |                                               |                |            [2]{}: code 0x400-0x407.7 (8)
0x400|07                                             |.               |              size: 7 0x400-0x400.7 (1)
     |                                               |                |              code{}: 0x401-0x407.7 (7)
     |                                               |                |                t{}: 0x401-0x401.7 (1)
0x400|   00                                          | .              |                  n: 0 0x401-0x401.7 (1)
     |                                               |                |                  x[0:0]: 0x402-NA (0)
     |                                               |                |                e[0:3]: 0x402-0x407.7 (6)
     |                                               |                |                  [0]{}: in 0x402-0x403.7 (2)
0x400|      20                                       |                |                    local.get: 0x20 (valid) 0x402-0x402.7 (1)
0x400|         00                                    |   .            |                    x: 0 0x403-0x403.7 (1)
     |                                               |                |                  [1]{}: in 0x404-0x406.7 (3)
0x400|            fd                                 |    .           |                    prefix: 0xfd (valid) 0x404-0x404.7 (1)
0x400|               16                              |     .          |                    i8x16.extract_lane_u: 22 (valid) 0x405-0x405.7 (1)
0x400|                  00                           |      .         |                    l: 0 0x406-0x406.7 (1)
     |                                               |                |                  [2]{}: in 0x407-0x407.7 (1)
0x400|                     0b                        |       .        |                    end: 0xb (valid) 0x407-0x407.7 (1)
     |                                               |                |            [3]{}: code 0x408-0x40f.7 (8)
0x400|                        07                     |        .       |              size: 7 0x408-0x408.7 (1)
     |                                               |                |              code{}: 0x409-0x40f.7 (7)
     |                                               |                |                t{}: 0x409-0x409.7 (1)
0x400|                           00                  |         .      |                  n: 0 0x409-0x409.7 (1)
     |                                               |                |                  x[0:0]: 0x40a-NA (0)
     |                                               |                |                e[0:3]: 0x40a-0x40f.7 (6)
     |                                               |                |                  [0]{}: in 0x40a-0x40b.7 (2)
0x400|                              20               |                |                    local.get: 0x20 (valid) 0x40a-0x40a.7 (1)
0x400|                                 00            |           .    |                    x: 0 0x40b-0x40b.7 (1)
     |                                               |                |                  [1]{}: in 0x40c-0x40e.7 (3)
0x400|                                    fd         |            .   |                    prefix: 0xfd (valid) 0x40c-0x40c.7 (1)
0x400|                                       16      |             .  |                    i8x16.extract_lane_u: 22 (valid) 0x40d-0x40d.7 (1)
0x400|                                          0f   |              . |                    l: 15 0x40e-0x40e.7 (1)
     |                                               |                |                  [2]{}: in 0x40f-0x40f.7 (1)
0x400|                                             0b|               .|                    end: 0xb (valid) 0x40f-0x40f.7 (1)
     |                                               |                |            [4]{}: code 0x410-0x417.7 (8)
0x410|07                                             |.               |              size: 7 0x410-0x410.7 (1)
     |                                               |                |              code{}: 0x411-0x417.7 (7)
     |                                               |                |                t{}: 0x411-0x411.7 (1)
0x410|   00                                          | .              |                  n: 0 0x411-0x411.7 (1)
     |                                               |                |                  x[0:0]: 0x412-NA (0)
     |                                               |                |                e[0:3]: 0x412-0x417.7 (6)
     |                                               |                |                  [0]{}: in 0x412-0x413.7 (2)
0x410|      20                                       |                |                    local.get: 0x20 (valid) 0x412-0x412.7 (1)
0x410|         00                                    |   .            |                    x: 0 0x413-0x413.7 (1)
     |                                               |                |                  [1]{}: in 0x414-0x416.7 (3)
0x410|            fd                                 |    .           |                    prefix: 0xfd (valid) 0x414-0x414.7 (1)
0x410|               18                              |     .          |                    i16x8.extract_lane_s: 24 (valid) 0x415-0x415.7 (1)
0x410|                  00                           |      .         |                    l: 0 0x416-0x416.7 (1)
     |                                               |                |                  [2]{}: in 0x417-0x417.7 (1)
0x410|                     0b                        |       .        |                    end: 0xb (valid) 0x417-0x417.7 (1)
     |                                               |                |            [5]{}: code 0x418-0x41f.7 (8)
0x410|                        07                     |        .       |              size: 7 0x418-0x418.7 (1)
     |                                               |                |              code{}: 0x419-0x41f.7 (7)
     |                                               |                |                t{}: 0x419-0x419.7 (1)
0x410|                           00                  |         .      |                  n: 0 0x419-0x419.7 (1)
     |                                               |                |                  x[0:0]: 0x41a-NA (0)
     |                                               |                |                e[0:3]: 0x41a-0x41f.7 (6)
     |                                               |                |                  [0]{}: in 0x41a-0x41b.7 (2)
0x410|                              20               |                |                    local.get: 0x20 (valid) 0x41a-0x41a.7 (1)
0x410|                                 00            |           .    |                    x: 0 0x41b-0x41b.7 (1)
     |                                               |                |                  [1]{}: in 0x41c-0x41e.7 (3)
0x410|                                    fd         |            .   |                    prefix: 0xfd (valid) 0x41c-0x41c.7 (1)
0x410|                                       18      |             .  |                    i16x8.extract_lane_s: 24 (valid) 0x41d-0x41d.7 (1)
0x410|                                          07   |              . |                    l: 7 0x41e-0x41e.7 (1)
     |                                               |                |                  [2]{}: in 0x41f-0x41f.7 (1)
0x410|                                             0b|               .|                    end: 0xb (valid) 0x41f-0x41f.7 (1)
     |                                               |                |            [6]{}: code 0x420-0x427.7 (8)
0x420|07                                             |.               |              size: 7 0x420-0x420.7 (1)
     |                                               |                |              code{}: 0x421-0x427.7 (7)
     |                                               |                |                t{}: 0x421-0x421.7 (1)
0x420|   00                                          | .              |                  n: 0 0x421-0x421.7 (1)
     |                                               |                |                  x[0:0]: 0x422-NA (0)
     |                                               |                |                e[0:3]: 0x422-0x427.7 (6)
     |                                               |                |                  [0]{}: in 0x422-0x423.7 (2)
0x420|      20                                       |                |                    local.get: 0x20 (valid) 0x422-0x422.7 (1)
0x420|         00                                    |   .            |                    x: 0 0x423-0x423.7 (1)
     |                                               |                |                  [1]{}: in 0x424-0x426.7 (3)
0x420|            fd                                 |    .           |                    prefix: 0xfd (valid) 0x424-0x424.7 (1)
0x420|               19                              |     .          |                    i16x8.extract_lane_u: 25 (valid) 0x425-0x425.7 (1)
0x420|                  00                           |      .         |                    l: 0 0x426-0x426.7 (1)
     |                                               |                |                  [2]{}: in 0x427-0x427.7 (1)
0x420|                     0b                        |       .        |                    end: 0xb (valid) 0x427-0x427.7 (1)
     |                                               |                |            [7]{}: code 0x428-0x42f.7 (8)
0x420|                        07                     |        .       |              size: 7 0x428-0x428.7 (1)
     |                                               |                |              code{}: 0x429-0x42f.7 (7)
     |                                               |                |                t{}: 0x429-0x429.7 (1)
0x420|                           00                  |         .      |                  n: 0 0x429-0x429.7 (1)
     |                                               |                |                  x[0:0]: 0x42a-NA (0)
     |                                               |                |                e[0:3]: 0x42a-0x42f.7 (6)
     |                                               |                |                  [0]{}: in 0x42a-0x42b.7 (2)
0x420|                              20               |                |                    local.get: 0x20 (valid) 0x42a-0x42a.7 (1)
0x420|                                 00            |           .    |                    x: 0 0x42b-0x42b.7 (1)
     |                                               |                |                  [1]{}: in 0x42c-0x42e.7 (3)
0x420|                                    fd         |            .   |                    prefix: 0xfd (valid) 0x42c-0x42c.7 (1)
0x420|                                       19      |             .  |                    i16x8.extract_lane_u: 25 (valid) 0x42d-0x42d.7 (1)
0x420|                                          07   |              . |                    l: 7 0x42e-0x42e.7 (1)
     |                                               |                |                  [2]{}: in 0x42f-0x42f.7 (1)
0x420|                                             0b|               .|                    end: 0xb (valid) 0x42f-0x42f.7 (1)
     |                                               |                |            [8]{}: code 0x430-0x437.7 (8)
0x430|07                                             |.               |              size: 7 0x430-0x430.7 (1)
     |                                               |                |              code{}: 0x431-0x437.7 (7)
     |                                               |                |                t{}: 0x431-0x431.7 (1)
0x430|   00                                          | .              |                  n: 0 0x431-0x431.7 (1)
     |                                               |                |                  x[0:0]: 0x432-NA (0)
     |                                               |                |                e[0:3]: 0x432-0x437.7 (6)
     |                                               |                |                  [0]{}: in 0x432-0x433.7 (2)
0x430|      20                                       |                |                    local.get: 0x20 (valid) 0x432-0x432.7 (1)
0x430|         00                                    |   .            |                    x: 0 0x433-0x433.7 (1)
     |                                               |                |                  [1]{}: in 0x434-0x436.7 (3)
0x430|            fd                                 |    .           |                    prefix: 0xfd (valid) 0x434-0x434.7 (1)
0x430|               1b                              |     .          |                    i32x4.extract_lane_u: 27 (valid) 0x435-0x435.7 (1)
0x430|                  00                           |      .         |                    l: 0 0x436-0x436.7 (1)
     |                                               |                |                  [2]{}: in 0x437-0x437.7 (1)
0x430|                     0b                        |       .        |                    end: 0xb (valid) 0x437-0x437.7 (1)
     |                                               |                |            [9]{}: code 0x438-0x43f.7 (8)
0x430|                        07                     |        .       |              size: 7 0x438-0x438.7 (1)
     |                                               |                |              code{}: 0x439-0x43f.7 (7)
     |                                               |                |                t{}: 0x439-0x439.7 (1)
0x430|                           00                  |         .      |                  n: 0 0x439-0x439.7 (1)
     |                                               |                |                  x[0:0]: 0x43a-NA (0)
     |                                               |                |                e[0:3]: 0x43a-0x43f.7 (6)
     |                                               |                |                  [0]{}: in 0x43a-0x43b.7 (2)
0x430|                              20               |                |                    local.get: 0x20 (valid) 0x43a-0x43a.7 (1)
0x430|                                 00            |           .    |                    x: 0 0x43b-0x43b.7 (1)
     |                                               |                |                  [1]{}: in 0x43c-0x43e.7 (3)
0x430|                                    fd         |            .   |                    prefix: 0xfd (valid) 0x43c-0x43c.7 (1)
0x430|                                       1b      |             .  |                    i32x4.extract_lane_u: 27 (valid) 0x43d-0x43d.7 (1)
0x430|                                          03   |              . |                    l: 3 0x43e-0x43e.7 (1)
     |                                               |                |                  [2]{}: in 0x43f-0x43f.7 (1)
0x430|                                             0b|               .|                    end: 0xb (valid) 0x43f-0x43f.7 (1)
     |                                               |                |            [10]{}: code 0x440-0x447.7 (8)
0x440|07                                             |.               |              size: 7 0x440-0x440.7 (1)
     |                                               |                |              code{}: 0x441-0x447.7 (7)
     |                                               |                |                t{}: 0x441-0x441.7 (1)
0x440|   00                                          | .              |                  n: 0 0x441-0x441.7 (1)
     |                                               |                |                  x[0:0]: 0x442-NA (0)
     |                                               |                |                e[0:3]: 0x442-0x447.7 (6)
     |                                               |                |                  [0]{}: in 0x442-0x443.7 (2)
0x440|      20                                       |                |                    local.get: 0x20 (valid) 0x442-0x442.7 (1)
0x440|         00                                    |   .            |                    x: 0 0x443-0x443.7 (1)
     |                                               |                |                  [1]{}: in 0x444-0x446.7 (3)
0x440|            fd                                 |    .           |                    prefix: 0xfd (valid) 0x444-0x444.7 (1)
0x440|               1f                              |     .          |                    f32x4.extract_lane_u: 31 (valid) 0x445-0x445.7 (1)
0x440|                  00                           |      .         |                    l: 0 0x446-0x446.7 (1)
     |                                               |                |                  [2]{}: in 0x447-0x447.7 (1)
0x440|                     0b                        |       .        |                    end: 0xb (valid) 0x447-0x447.7 (1)
     |                                               |                |            [11]{}: code 0x448-0x44f.7 (8)
0x440|                        07                     |        .       |              size: 7 0x448-0x448.7 (1)
     |                                               |                |              code{}: 0x449-0x44f.7 (7)
     |                                               |                |                t{}: 0x449-0x449.7 (1)
0x440|                           00                  |         .      |                  n: 0 0x449-0x449.7 (1)
     |                                               |                |                  x[0:0]: 0x44a-NA (0)
     |                                               |                |                e[0:3]: 0x44a-0x44f.7 (6)
     |                                               |                |                  [0]{}: in 0x44a-0x44b.7 (2)
0x440|                              20               |                |                    local.get: 0x20 (valid) 0x44a-0x44a.7 (1)
0x440|                                 00            |           .    |                    x: 0 0x44b-0x44b.7 (1)
     |                                               |                |                  [1]{}: in 0x44c-0x44e.7 (3)
0x440|                                    fd         |            .   |                    prefix: 0xfd (valid) 0x44c-0x44c.7 (1)
0x440|                                       1f      |             .  |                    f32x4.extract_lane_u: 31 (valid) 0x44d-0x44d.7 (1)
0x440|                                          03   |              . |                    l: 3 0x44e-0x44e.7 (1)
     |                                               |                |                  [2]{}: in 0x44f-0x44f.7 (1)
0x440|                                             0b|               .|                    end: 0xb (valid) 0x44f-0x44f.7 (1)
     |                                               |                |            [12]{}: code 0x450-0x459.7 (10)
0x450|09                                             |.               |              size: 9 0x450-0x450.7 (1)
     |                                               |                |              code{}: 0x451-0x459.7 (9)
     |                                               |                |                t{}: 0x451-0x451.7 (1)
0x450|   00                                          | .              |                  n: 0 0x451-0x451.7 (1)
     |                                               |                |                  x[0:0]: 0x452-NA (0)
     |                                               |                |                e[0:4]: 0x452-0x459.7 (8)
     |                                               |                |                  [0]{}: in 0x452-0x453.7 (2)
0x450|      20                                       |                |                    local.get: 0x20 (valid) 0x452-0x452.7 (1)
0x450|         00                                    |   .            |                    x: 0 0x453-0x453.7 (1)
     |                                               |                |                  [1]{}: in 0x454-0x455.7 (2)
0x450|            20                                 |                |                    local.get: 0x20 (valid) 0x454-0x454.7 (1)
0x450|               01                              |     .          |                    x: 1 0x455-0x455.7 (1)
     |                                               |                |                  [2]{}: in 0x456-0x458.7 (3)
0x450|                  fd                           |      .         |                    prefix: 0xfd (valid) 0x456-0x456.7 (1)
0x450|                     17                        |       .        |                    i8x16.replace_lane: 23 (valid) 0x457-0x457.7 (1)
0x450|                        00                     |        .       |                    l: 0 0x458-0x458.7 (1)
     |                                               |                |                  [3]{}: in 0x459-0x459.7 (1)
0x450|                           0b                  |         .      |                    end: 0xb (valid) 0x459-0x459.7 (1)
     |                                               |                |            [13]{}: code 0x45a-0x463.7 (10)
0x450|                              09               |          .     |              size: 9 0x45a-0x45a.7 (1)
     |                                               |                |              code{}: 0x45b-0x463.7 (9)
     |                                               |                |                t{}: 0x45b-0x45b.7 (1)
0x450|                                 00            |           .    |                  n: 0 0x45b-0x45b.7 (1)
     |                                               |                |                  x[0:0]: 0x45c-NA (0)
     |                                               |                |                e[0:4]: 0x45c-0x463.7 (8)
     |                                               |                |                  [0]{}: in 0x45c-0x45d.7 (2)
0x450|                                    20         |                |                    local.get: 0x20 (valid) 0x45c-0x45c.7 (1)
0x450|                                       00      |             .  |                    x: 0 0x45d-0x45d.7 (1)
     |                                               |                |                  [1]{}: in 0x45e-0x45f.7 (2)
0x450|                                          20   |                |                    local.get: 0x20 (valid) 0x45e-0x45e.7 (1)
0x450|                                             01|               .|                    x: 1 0x45f-0x45f.7 (1)
     |                                               |                |                  [2]{}: in 0x460-0x462.7 (3)
0x460|fd                                             |.               |                    prefix: 0xfd (valid) 0x460-0x460.7 (1)
0x460|   17                                          | .              |                    i8x16.replace_lane: 23 (valid) 0x461-0x461.7 (1)
0x460|      0f                                       |  .             |                    l: 15 0x462-0x462.7 (1)
     |                                               |                |                  [3]{}: in 0x463-0x463.7 (1)
0x460|         0b                                    |   .            |                    end: 0xb (valid) 0x463-0x463.7 (1)
     |                                               |                |            [14]{}: code 0x464-0x46d.7 (10)
0x460|            09                                 |    .           |              size: 9 0x464-0x464.7 (1)
     |                                               |                |              code{}: 0x465-0x46d.7 (9)
     |                                               |                |                t{}: 0x465-0x465.7 (1)
0x460|               00                              |     .          |                  n: 0 0x465-0x465.7 (1)
     |                                               |                |                  x[0:0]: 0x466-NA (0)
     |                                               |                |                e[0:4]: 0x466-0x46d.7 (8)
     |                                               |                |                  [0]{}: in 0x466-0x467.7 (2)
0x460|                  20                           |                |                    local.get: 0x20 (valid) 0x466-0x466.7 (1)
0x460|                     00                        |       .        |                    x: 0 0x467-0x467.7 (1)
     |                                               |                |                  [1]{}: in 0x468-0x469.7 (2)
0x460|                        20                     |                |                    local.get: 0x20 (valid) 0x468-0x468.7 (1)
0x460|                           01                  |         .      |                    x: 1 0x469-0x469.7 (1)
     |                                               |                |                  [2]{}: in 0x46a-0x46c.7 (3)
0x460|                              fd               |          .     |                    prefix: 0xfd (valid) 0x46a-0x46a.7 (1)
0x460|                                 1a            |           .    |                    i16x8.replace_lane: 26 (valid) 0x46b-0x46b.7 (1)
0x460|                                    00         |            .   |                    l: 0 0x46c-0x46c.7 (1)
     |                                               |                |                  [3]{}: in 0x46d-0x46d.7 (1)
0x460|                                       0b      |             .  |                    end: 0xb (valid) 0x46d-0x46d.7 (1)
     |                                               |                |            [15]{}: code 0x46e-0x477.7 (10)
0x460|                                          09   |              . |              size: 9 0x46e-0x46e.7 (1)
     |                                               |                |              code{}: 0x46f-0x477.7 (9)
     |                                               |                |                t{}: 0x46f-0x46f.7 (1)
0x460|                                             00|               .|                  n: 0 0x46f-0x46f.7 (1)
     |                                               |                |                  x[0:0]: 0x470-NA (0)
     |                                               |                |                e[0:4]: 0x470-0x477.7 (8)
     |                                               |                |                  [0]{}: in 0x470-0x471.7 (2)
0x470|20                                             |                |                    local.get: 0x20 (valid) 0x470-0x470.7 (1)
0x470|   00                                          | .              |                    x: 0 0x471-0x471.7 (1)
     |                                               |                |                  [1]{}: in 0x472-0x473.7 (2)
0x470|      20                                       |                |                    local.get: 0x20 (valid) 0x472-0x472.7 (1)
0x470|         01                                    |   .            |                    x: 1 0x473-0x473.7 (1)
     |                                               |                |                  [2]{}: in 0x474-0x476.7 (3)
0x470|            fd                                 |    .           |                    prefix: 0xfd (valid) 0x474-0x474.7 (1)
0x470|               1a                              |     .          |                    i16x8.replace_lane: 26 (valid) 0x475-0x475.7 (1)
0x470|                  07                           |      .         |                    l: 7 0x476-0x476.7 (1)
     |                                               |                |                  [3]{}: in 0x477-0x477.7 (1)
0x470|                     0b                        |       .        |                    end: 0xb (valid) 0x477-0x477.7 (1)
     |                                               |                |            [16]{}: code 0x478-0x481.7 (10)
0x470|                        09                     |        .       |              size: 9 0x478-0x478.7 (1)
     |                                               |                |              code{}: 0x479-0x481.7 (9)
     |                                               |                |                t{}: 0x479-0x479.7 (1)
0x470|                           00                  |         .      |                  n: 0 0x479-0x479.7 (1)
     |                                               |                |                  x[0:0]: 0x47a-NA (0)
     |                                               |                |                e[0:4]: 0x47a-0x481.7 (8)
     |                                               |                |                  [0]{}: in 0x47a-0x47b.7 (2)
0x470|                              20               |                |                    local.get: 0x20 (valid) 0x47a-0x47a.7 (1)
0x470|                                 00            |           .    |                    x: 0 0x47b-0x47b.7 (1)
     |                                               |                |                  [1]{}: in 0x47c-0x47d.7 (2)
0x470|                                    20         |                |                    local.get: 0x20 (valid) 0x47c-0x47c.7 (1)
0x470|                                       01      |             .  |                    x: 1 0x47d-0x47d.7 (1)
     |                                               |                |                  [2]{}: in 0x47e-0x480.7 (3)
0x470|                                          fd   |              . |                    prefix: 0xfd (valid) 0x47e-0x47e.7 (1)
0x470|                                             1c|               .|                    i32x4.replace_lane: 28 (valid) 0x47f-0x47f.7 (1)
0x480|00                                             |.               |                    l: 0 0x480-0x480.7 (1)
     |                                               |                |                  [3]{}: in 0x481-0x481.7 (1)
0x480|   0b                                          | .              |                    end: 0xb (valid) 0x481-0x481.7 (1)
     |                                               |                |            [17]{}: code 0x482-0x48b.7 (10)
0x480|      09                                       |  .             |              size: 9 0x482-0x482.7 (1)
     |                                               |                |              code{}: 0x483-0x48b.7 (9)
     |                                               |                |                t{}: 0x483-0x483.7 (1)
0x480|         00                                    |   .            |                  n: 0 0x483-0x483.7 (1)
     |                                               |                |                  x[0:0]: 0x484-NA (0)
     |                                               |                |                e[0:4]: 0x484-0x48b.7 (8)
     |                                               |                |                  [0]{}: in 0x484-0x485.7 (2)
0x480|            20                                 |                |                    local.get: 0x20 (valid) 0x484-0x484.7 (1)
0x480|               00                              |     .          |                    x: 0 0x485-0x485.7 (1)
     |                                               |                |                  [1]{}: in 0x486-0x487.7 (2)
0x480|                  20                           |                |                    local.get: 0x20 (valid) 0x486-0x486.7 (1)
0x480|                     01                        |       .        |                    x: 1 0x487-0x487.7 (1)
     |                                               |                |                  [2]{}: in 0x488-0x48a.7 (3)
0x480|                        fd                     |        .       |                    prefix: 0xfd (valid) 0x488-0x488.7 (1)
0x480|                           1c                  |         .      |                    i32x4.replace_lane: 28 (valid) 0x489-0x489.7 (1)
0x480|                              03               |          .     |                    l: 3 0x48a-0x48a.7 (1)
     |                                               |                |                  [3]{}: in 0x48b-0x48b.7 (1)
0x480|                                 0b            |           .    |                    end: 0xb (valid) 0x48b-0x48b.7 (1)
     |                                               |                |            [18]{}: code 0x48c-0x495.7 (10)
0x480|                                    09         |            .   |              size: 9 0x48c-0x48c.7 (1)
     |                                               |                |              code{}: 0x48d-0x495.7 (9)
     |                                               |                |                t{}: 0x48d-0x48d.7 (1)
0x480|                                       00      |             .  |                  n: 0 0x48d-0x48d.7 (1)
     |                                               |                |                  x[0:0]: 0x48e-NA (0)
     |                                               |                |                e[0:4]: 0x48e-0x495.7 (8)
     |                                               |                |                  [0]{}: in 0x48e-0x48f.7 (2)
0x480|                                          20   |                |                    local.get: 0x20 (valid) 0x48e-0x48e.7 (1)
0x480|                                             00|               .|                    x: 0 0x48f-0x48f.7 (1)
     |                                               |                |                  [1]{}: in 0x490-0x491.7 (2)
0x490|20                                             |                |                    local.get: 0x20 (valid) 0x490-0x490.7 (1)
0x490|   01                                          | .              |                    x: 1 0x491-0x491.7 (1)
     |                                               |                |                  [2]{}: in 0x492-0x494.7 (3)
0x490|      fd                                       |  .             |                    prefix: 0xfd (valid) 0x492-0x492.7 (1)
0x490|         20                                    |                |                    f32x4.replace_lane: 32 (valid) 0x493-0x493.7 (1)
0x490|            00                                 |    .           |                    l: 0 0x494-0x494.7 (1)
     |                                               |                |                  [3]{}: in 0x495-0x495.7 (1)
0x490|               0b                              |     .          |                    end: 0xb (valid) 0x495-0x495.7 (1)
     |                                               |                |            [19]{}: code 0x496-0x49f.7 (10)
0x490|                  09                           |      .         |              size: 9 0x496-0x496.7 (1)
     |                                               |                |              code{}: 0x497-0x49f.7 (9)
     |                                               |                |                t{}: 0x497-0x497.7 (1)
0x490|                     00                        |       .        |                  n: 0 0x497-0x497.7 (1)
     |                                               |                |                  x[0:0]: 0x498-NA (0)
     |                                               |                |                e[0:4]: 0x498-0x49f.7 (8)
     |                                               |                |                  [0]{}: in 0x498-0x499.7 (2)
0x490|                        20                     |                |                    local.get: 0x20 (valid) 0x498-0x498.7 (1)
0x490|                           00                  |         .      |                    x: 0 0x499-0x499.7 (1)
     |                                               |                |                  [1]{}: in 0x49a-0x49b.7 (2)
0x490|                              20               |                |                    local.get: 0x20 (valid) 0x49a-0x49a.7 (1)
0x490|                                 01            |           .    |                    x: 1 0x49b-0x49b.7 (1)
     |                                               |                |                  [2]{}: in 0x49c-0x49e.7 (3)
0x490|                                    fd         |            .   |                    prefix: 0xfd (valid) 0x49c-0x49c.7 (1)
0x490|                                       20      |                |                    f32x4.replace_lane: 32 (valid) 0x49d-0x49d.7 (1)
0x490|                                          03   |              . |                    l: 3 0x49e-0x49e.7 (1)
     |                                               |                |                  [3]{}: in 0x49f-0x49f.7 (1)
0x490|                                             0b|               .|                    end: 0xb (valid) 0x49f-0x49f.7 (1)
     |                                               |                |            [20]{}: code 0x4a0-0x4a7.7 (8)
0x4a0|07                                             |.               |              size: 7 0x4a0-0x4a0.7 (1)
     |                                               |                |              code{}: 0x4a1-0x4a7.7 (7)
     |                                               |                |                t{}: 0x4a1-0x4a1.7 (1)
0x4a0|   00                                          | .              |                  n: 0 0x4a1-0x4a1.7 (1)
     |                                               |                |                  x[0:0]: 0x4a2-NA (0)
     |                                               |                |                e[0:3]: 0x4a2-0x4a7.7 (6)
     |                                               |                |                  [0]{}: in 0x4a2-0x4a3.7 (2)
0x4a0|      20                                       |                |                    local.get: 0x20 (valid) 0x4a2-0x4a2.7 (1)
0x4a0|         00                                    |   .            |                    x: 0 0x4a3-0x4a3.7 (1)
     |                                               |                |                  [1]{}: in 0x4a4-0x4a6.7 (3)
0x4a0|            fd                                 |    .           |                    prefix: 0xfd (valid) 0x4a4-0x4a4.7 (1)
0x4a0|               1d                              |     .          |                    i64x2.extract_lane_u: 29 (valid) 0x4a5-0x4a5.7 (1)
0x4a0|                  00                           |      .         |                    l: 0 0x4a6-0x4a6.7 (1)
     |                                               |                |                  [2]{}: in 0x4a7-0x4a7.7 (1)
0x4a0|                     0b                        |       .        |                    end: 0xb (valid) 0x4a7-0x4a7.7 (1)
     |                                               |                |            [21]{}: code 0x4a8-0x4af.7 (8)
0x4a0|                        07                     |        .       |              size: 7 0x4a8-0x4a8.7 (1)
     |                                               |                |              code{}: 0x4a9-0x4af.7 (7)
     |                                               |                |                t{}: 0x4a9-0x4a9.7 (1)
0x4a0|                           00                  |         .      |                  n: 0 0x4a9-0x4a9.7 (1)
     |                                               |                |                  x[0:0]: 0x4aa-NA (0)
     |                                               |                |                e[0:3]: 0x4aa-0x4af.7 (6)
     |                                               |                |                  [0]{}: in 0x4aa-0x4ab.7 (2)
0x4a0|                              20               |                |                    local.get: 0x20 (valid) 0x4aa-0x4aa.7 (1)
0x4a0|                                 00            |           .    |                    x: 0 0x4ab-0x4ab.7 (1)
     |                                               |                |                  [1]{}: in 0x4ac-0x4ae.7 (3)
0x4a0|                                    fd         |            .   |                    prefix: 0xfd (valid) 0x4ac-0x4ac.7 (1)
0x4a0|                                       1d      |             .  |                    i64x2.extract_lane_u: 29 (valid) 0x4ad-0x4ad.7 (1)
0x4a0|                                          01   |              . |                    l: 1 0x4ae-0x4ae.7 (1)
     |                                               |                |                  [2]{}: in 0x4af-0x4af.7 (1)
0x4a0|                                             0b|               .|                    end: 0xb (valid) 0x4af-0x4af.7 (1)
     |                                               |                |            [22]{}: code 0x4b0-0x4b7.7 (8)
0x4b0|07                                             |.               |              size: 7 0x4b0-0x4b0.7 (1)
     |                                               |                |              code{}: 0x4b1-0x4b7.7 (7)
     |                                               |                |                t{}: 0x4b1-0x4b1.7 (1)
0x4b0|   00                                          | .              |                  n: 0 0x4b1-0x4b1.7 (1)
     |                                               |                |                  x[0:0]: 0x4b2-NA (0)
     |                                               |                |                e[0:3]: 0x4b2-0x4b7.7 (6)
     |                                               |                |                  [0]{}: in 0x4b2-0x4b3.7 (2)
0x4b0|      20                                       |                |                    local.get: 0x20 (valid) 0x4b2-0x4b2.7 (1)
0x4b0|         00                                    |   .            |                    x: 0 0x4b3-0x4b3.7 (1)
     |                                               |                |                  [1]{}: in 0x4b4-0x4b6.7 (3)
0x4b0|            fd                                 |    .           |                    prefix: 0xfd (valid) 0x4b4-0x4b4.7 (1)
0x4b0|               21                              |     !          |                    f64x2.extract_lane_u: 33 (valid) 0x4b5-0x4b5.7 (1)
0x4b0|                  00                           |      .         |                    l: 0 0x4b6-0x4b6.7 (1)
     |                                               |                |                  [2]{}: in 0x4b7-0x4b7.7 (1)
0x4b0|                     0b                        |       .        |                    end: 0xb (valid) 0x4b7-0x4b7.7 (1)
     |                                               |                |            [23]{}: code 0x4b8-0x4bf.7 (8)
0x4b0|                        07                     |        .       |              size: 7 0x4b8-0x4b8.7 (1)
     |                                               |                |              code{}: 0x4b9-0x4bf.7 (7)
     |                                               |                |                t{}: 0x4b9-0x4b9.7 (1)
0x4b0|                           00                  |         .      |                  n: 0 0x4b9-0x4b9.7 (1)
     |                                               |                |                  x[0:0]: 0x4ba-NA (0)
     |                                               |                |                e[0:3]: 0x4ba-0x4bf.7 (6)
     |                                               |                |                  [0]{}: in 0x4ba-0x4bb.7 (2)
0x4b0|                              20               |                |                    local.get: 0x20 (valid) 0x4ba-0x4ba.7 (1)
0x4b0|                                 00            |           .    |                    x: 0 0x4bb-0x4bb.7 (1)
     |                                               |                |                  [1]{}: in 0x4bc-0x4be.7 (3)
0x4b0|                                    fd         |            .   |                    prefix: 0xfd (valid) 0x4bc-0x4bc.7 (1)
0x4b0|                                       21      |             !  |                    f64x2.extract_lane_u: 33 (valid) 0x4bd-0x4bd.7 (1)
0x4b0|                                          01   |              . |                    l: 1 0x4be-0x4be.7 (1)
     |                                               |                |                  [2]{}: in 0x4bf-0x4bf.7 (1)
0x4b0|                                             0b|               .|                    end: 0xb (valid) 0x4bf-0x4bf.7 (1)
     |                                               |                |            [24]{}: code 0x4c0-0x4c9.7 (10)
0x4c0|09                                             |.               |              size: 9 0x4c0-0x4c0.7 (1)
     |                                               |                |              code{}: 0x4c1-0x4c9.7 (9)
     |                                               |                |                t{}: 0x4c1-0x4c1.7 (1)
0x4c0|   00                                          | .              |                  n: 0 0x4c1-0x4c1.7 (1)
     |                                               |                |                  x[0:0]: 0x4c2-NA (0)
     |                                               |                |                e[0:4]: 0x4c2-0x4c9.7 (8)
     |                                               |                |                  [0]{}: in 0x4c2-0x4c3.7 (2)
0x4c0|      20                                       |                |                    local.get: 0x20 (valid) 0x4c2-0x4c2.7 (1)
0x4c0|         00                                    |   .            |                    x: 0 0x4c3-0x4c3.7 (1)
     |                                               |                |                  [1]{}: in 0x4c4-0x4c5.7 (2)
0x4c0|            20                                 |                |                    local.get: 0x20 (valid) 0x4c4-0x4c4.7 (1)
0x4c0|               01                              |     .          |                    x: 1 0x4c5-0x4c5.7 (1)
     |                                               |                |                  [2]{}: in 0x4c6-0x4c8.7 (3)
0x4c0|                  fd                           |      .         |                    prefix: 0xfd (valid) 0x4c6-0x4c6.7 (1)
0x4c0|                     1e                        |       .        |                    i64x2.replace_lane: 30 (valid) 0x4c7-0x4c7.7 (1)
0x4c0|                        00                     |        .       |                    l: 0 0x4c8-0x4c8.7 (1)
     |                                               |                |                  [3]{}: in 0x4c9-0x4c9.7 (1)
0x4c0|                           0b                  |         .      |                    end: 0xb (valid) 0x4c9-0x4c9.7 (1)
     |                                               |                |            [25]{}: code 0x4ca-0x4d3.7 (10)
0x4c0|                              09               |          .     |              size: 9 0x4ca-0x4ca.7 (1)
     |                                               |                |              code{}: 0x4cb-0x4d3.7 (9)
     |                                               |                |                t{}: 0x4cb-0x4cb.7 (1)
0x4c0|                                 00            |           .    |                  n: 0 0x4cb-0x4cb.7 (1)
     |                                               |                |                  x[0:0]: 0x4cc-NA (0)
     |                                               |                |                e[0:4]: 0x4cc-0x4d3.7 (8)
     |                                               |                |                  [0]{}: in 0x4cc-0x4cd.7 (2)
0x4c0|                                    20         |                |                    local.get: 0x20 (valid) 0x4cc-0x4cc.7 (1)
0x4c0|                                       00      |             .  |                    x: 0 0x4cd-0x4cd.7 (1)
     |                                               |                |                  [1]{}: in 0x4ce-0x4cf.7 (2)
0x4c0|                                          20   |                |                    local.get: 0x20 (valid) 0x4ce-0x4ce.7 (1)
0x4c0|                                             01|               .|                    x: 1 0x4cf-0x4cf.7 (1)
     |                                               |                |                  [2]{}: in 0x4d0-0x4d2.7 (3)
0x4d0|fd                                             |.               |                    prefix: 0xfd (valid) 0x4d0-0x4d0.7 (1)
0x4d0|   1e                                          | .              |                    i64x2.replace_lane: 30 (valid) 0x4d1-0x4d1.7 (1)
0x4d0|      01                                       |  .             |                    l: 1 0x4d2-0x4d2.7 (1)
     |                                               |                |                  [3]{}: in 0x4d3-0x4d3.7 (1)
0x4d0|         0b                                    |   .            |                    end: 0xb (valid) 0x4d3-0x4d3.7 (1)
     |                                               |                |            [26]{}: code 0x4d4-0x4dd.7 (10)
0x4d0|            09                                 |    .           |              size: 9 0x4d4-0x4d4.7 (1)
     |                                               |                |              code{}: 0x4d5-0x4dd.7 (9)
     |                                               |                |                t{}: 0x4d5-0x4d5.7 (1)
0x4d0|               00                              |     .          |                  n: 0 0x4d5-0x4d5.7 (1)
     |                                               |                |                  x[0:0]: 0x4d6-NA (0)
     |                                               |                |                e[0:4]: 0x4d6-0x4dd.7 (8)
     |                                               |                |                  [0]{}: in 0x4d6-0x4d7.7 (2)
0x4d0|                  20                           |                |                    local.get: 0x20 (valid) 0x4d6-0x4d6.7 (1)
0x4d0|                     00                        |       .        |                    x: 0 0x4d7-0x4d7.7 (1)
     |                                               |                |                  [1]{}: in 0x4d8-0x4d9.7 (2)
0x4d0|                        20                     |                |                    local.get: 0x20 (valid) 0x4d8-0x4d8.7 (1)
0x4d0|                           01                  |         .      |                    x: 1 0x4d9-0x4d9.7 (1)
     |                                               |                |                  [2]{}: in 0x4da-0x4dc.7 (3)
0x4d0|                              fd               |          .     |                    prefix: 0xfd (valid) 0x4da-0x4da.7 (1)
0x4d0|                                 22            |           "    |                    f64x2.replace_lane: 34 (valid) 0x4db-0x4db.7 (1)
0x4d0|                                    00         |            .   |                    l: 0 0x4dc-0x4dc.7 (1)
     |                                               |                |                  [3]{}: in 0x4dd-0x4dd.7 (1)
0x4d0|                                       0b      |             .  |                    end: 0xb (valid) 0x4dd-0x4dd.7 (1)
     |                                               |                |            [27]{}: code 0x4de-0x4e7.7 (10)
0x4d0|                                          09   |              . |              size: 9 0x4de-0x4de.7 (1)
     |                                               |                |              code{}: 0x4df-0x4e7.7 (9)
     |                                               |                |                t{}: 0x4df-0x4df.7 (1)
0x4d0|                                             00|               .|                  n: 0 0x4df-0x4df.7 (1)
     |                                               |                |                  x[0:0]: 0x4e0-NA (0)
     |                                               |                |                e[0:4]: 0x4e0-0x4e7.7 (8)
     |                                               |                |                  [0]{}: in 0x4e0-0x4e1.7 (2)
0x4e0|20                                             |                |                    local.get: 0x20 (valid) 0x4e0-0x4e0.7 (1)
0x4e0|   00                                          | .              |                    x: 0 0x4e1-0x4e1.7 (1)
     |                                               |                |                  [1]{}: in 0x4e2-0x4e3.7 (2)
0x4e0|      20                                       |                |                    local.get: 0x20 (valid) 0x4e2-0x4e2.7 (1)
0x4e0|         01                                    |   .            |                    x: 1 0x4e3-0x4e3.7 (1)
     |                                               |                |                  [2]{}: in 0x4e4-0x4e6.7 (3)
0x4e0|            fd                                 |    .           |                    prefix: 0xfd (valid) 0x4e4-0x4e4.7 (1)
0x4e0|               22                              |     "          |                    f64x2.replace_lane: 34 (valid) 0x4e5-0x4e5.7 (1)
0x4e0|                  01                           |      .         |                    l: 1 0x4e6-0x4e6.7 (1)
     |                                               |                |                  [3]{}: in 0x4e7-0x4e7.7 (1)
0x4e0|                     0b                        |       .        |                    end: 0xb (valid) 0x4e7-0x4e7.7 (1)
     |                                               |                |            [28]{}: code 0x4e8-0x4f0.7 (9)
0x4e0|                        08                     |        .       |              size: 8 0x4e8-0x4e8.7 (1)
     |                                               |                |              code{}: 0x4e9-0x4f0.7 (8)
     |                                               |                |                t{}: 0x4e9-0x4e9.7 (1)
0x4e0|                           00                  |         .      |                  n: 0 0x4e9-0x4e9.7 (1)
     |                                               |                |                  x[0:0]: 0x4ea-NA (0)
     |                                               |                |                e[0:4]: 0x4ea-0x4f0.7 (7)
     |                                               |                |                  [0]{}: in 0x4ea-0x4eb.7 (2)
0x4e0|                              20               |                |                    local.get: 0x20 (valid) 0x4ea-0x4ea.7 (1)
0x4e0|                                 00            |           .    |                    x: 0 0x4eb-0x4eb.7 (1)
     |                                               |                |                  [1]{}: in 0x4ec-0x4ed.7 (2)
0x4e0|                                    20         |                |                    local.get: 0x20 (valid) 0x4ec-0x4ec.7 (1)
0x4e0|                                       01      |             .  |                    x: 1 0x4ed-0x4ed.7 (1)
     |                                               |                |                  [2]{}: in 0x4ee-0x4ef.7 (2)
0x4e0|                                          fd   |              . |                    prefix: 0xfd (valid) 0x4ee-0x4ee.7 (1)
0x4e0|                                             0e|               .|                    i8x16.swizzle: 14 (valid) 0x4ef-0x4ef.7 (1)
     |                                               |                |                  [3]{}: in 0x4f0-0x4f0.7 (1)
0x4f0|0b                                             |.               |                    end: 0xb (valid) 0x4f0-0x4f0.7 (1)
     |                                               |                |            [29]{}: code 0x4f1-0x509.7 (25)
0x4f0|   18                                          | .              |              size: 24 0x4f1-0x4f1.7 (1)
     |                                               |                |              code{}: 0x4f2-0x509.7 (24)
     |                                               |                |                t{}: 0x4f2-0x4f2.7 (1)
0x4f0|      00                                       |  .             |                  n: 0 0x4f2-0x4f2.7 (1)
     |                                               |                |                  x[0:0]: 0x4f3-NA (0)
     |                                               |                |                e[0:4]: 0x4f3-0x509.7 (23)
     |                                               |                |                  [0]{}: in 0x4f3-0x4f4.7 (2)
0x4f0|         20                                    |                |                    local.get: 0x20 (valid) 0x4f3-0x4f3.7 (1)
0x4f0|            00                                 |    .           |                    x: 0 0x4f4-0x4f4.7 (1)
     |                                               |                |                  [1]{}: in 0x4f5-0x4f6.7 (2)
0x4f0|               20                              |                |                    local.get: 0x20 (valid) 0x4f5-0x4f5.7 (1)
0x4f0|                  01                           |      .         |                    x: 1 0x4f6-0x4f6.7 (1)
     |                                               |                |                  [2]{}: in 0x4f7-0x508.7 (18)
0x4f0|                     fd                        |       .        |                    prefix: 0xfd (valid) 0x4f7-0x4f7.7 (1)
0x4f0|                        0d                     |        .       |                    i8x16.shuffle: 13 (valid) 0x4f8-0x4f8.7 (1)
     |                                               |                |                    laneidx[0:16]: 0x4f9-0x508.7 (16)
0x4f0|                           00                  |         .      |                      [0]: 0 l 0x4f9-0x4f9.7 (1)
0x4f0|                              01               |          .     |                      [1]: 1 l 0x4fa-0x4fa.7 (1)
0x4f0|                                 02            |           .    |                      [2]: 2 l 0x4fb-0x4fb.7 (1)
0x4f0|                                    03         |            .   |                      [3]: 3 l 0x4fc-0x4fc.7 (1)
0x4f0|                                       04      |             .  |                      [4]: 4 l 0x4fd-0x4fd.7 (1)
0x4f0|                                          05   |              . |                      [5]: 5 l 0x4fe-0x4fe.7 (1)
0x4f0|                                             06|               .|                      [6]: 6 l 0x4ff-0x4ff.7 (1)
0x500|07                                             |.               |                      [7]: 7 l 0x500-0x500.7 (1)
0x500|   08                                          | .              |                      [8]: 8 l 0x501-0x501.7 (1)
0x500|      09                                       |  .             |                      [9]: 9 l 0x502-0x502.7 (1)
0x500|         0a                                    |   .            |                      [10]: 10 l 0x503-0x503.7 (1)
0x500|            0b                                 |    .           |                      [11]: 11 l 0x504-0x504.7 (1)
0x500|               0c                              |     .          |                      [12]: 12 l 0x505-0x505.7 (1)
0x500|                  0d                           |      .         |                      [13]: 13 l 0x506-0x506.7 (1)
0x500|                     0e                        |       .        |                      [14]: 14 l 0x507-0x507.7 (1)
0x500|                        0f                     |        .       |                      [15]: 15 l 0x508-0x508.7 (1)
     |                                               |                |                  [3]{}: in 0x509-0x509.7 (1)
0x500|                           0b                  |         .      |                    end: 0xb (valid) 0x509-0x509.7 (1)
     |                                               |                |            [30]{}: code 0x50a-0x522.7 (25)
0x500|                              18               |          .     |              size: 24 0x50a-0x50a.7 (1)
     |                                               |                |              code{}: 0x50b-0x522.7 (24)
     |                                               |                |                t{}: 0x50b-0x50b.7 (1)
0x500|                                 00            |           .    |                  n: 0 0x50b-0x50b.7 (1)
     |                                               |                |                  x[0:0]: 0x50c-NA (0)
     |                                               |                |                e[0:4]: 0x50c-0x522.7 (23)
     |                                               |                |                  [0]{}: in 0x50c-0x50d.7 (2)
0x500|                                    20         |                |                    local.get: 0x20 (valid) 0x50c-0x50c.7 (1)
0x500|                                       00      |             .  |                    x: 0 0x50d-0x50d.7 (1)
     |                                               |                |                  [1]{}: in 0x50e-0x50f.7 (2)
0x500|                                          20   |                |                    local.get: 0x20 (valid) 0x50e-0x50e.7 (1)
0x500|                                             01|               .|                    x: 1 0x50f-0x50f.7 (1)
     |                                               |                |                  [2]{}: in 0x510-0x521.7 (18)
0x510|fd                                             |.               |                    prefix: 0xfd (valid) 0x510-0x510.7 (1)
0x510|   0d                                          | .              |                    i8x16.shuffle: 13 (valid) 0x511-0x511.7 (1)
     |                                               |                |                    laneidx[0:16]: 0x512-0x521.7 (16)
0x510|      10                                       |  .             |                      [0]: 16 l 0x512-0x512.7 (1)
0x510|         11                                    |   .            |                      [1]: 17 l 0x513-0x513.7 (1)
0x510|            12                                 |    .           |                      [2]: 18 l 0x514-0x514.7 (1)
0x510|               13                              |     .          |                      [3]: 19 l 0x515-0x515.7 (1)
0x510|                  14                           |      .         |                      [4]: 20 l 0x516-0x516.7 (1)
0x510|                     15                        |       .        |                      [5]: 21 l 0x517-0x517.7 (1)
0x510|                        16                     |        .       |                      [6]: 22 l 0x518-0x518.7 (1)
0x510|                           17                  |         .      |                      [7]: 23 l 0x519-0x519.7 (1)
0x510|                              18               |          .     |                      [8]: 24 l 0x51a-0x51a.7 (1)
0x510|                                 19            |           .    |                      [9]: 25 l 0x51b-0x51b.7 (1)
0x510|                                    1a         |            .   |                      [10]: 26 l 0x51c-0x51c.7 (1)
0x510|                                       1b      |             .  |                      [11]: 27 l 0x51d-0x51d.7 (1)
0x510|                                          1c   |              . |                      [12]: 28 l 0x51e-0x51e.7 (1)
0x510|                                             1d|               .|                      [13]: 29 l 0x51f-0x51f.7 (1)
0x520|1e                                             |.               |                      [14]: 30 l 0x520-0x520.7 (1)
0x520|   1f                                          | .              |                      [15]: 31 l 0x521-0x521.7 (1)
     |                                               |                |                  [3]{}: in 0x522-0x522.7 (1)
0x520|      0b                                       |  .             |                    end: 0xb (valid) 0x522-0x522.7 (1)
     |                                               |                |            [31]{}: code 0x523-0x53b.7 (25)
0x520|         18                                    |   .            |              size: 24 0x523-0x523.7 (1)
     |                                               |                |              code{}: 0x524-0x53b.7 (24)
     |                                               |                |                t{}: 0x524-0x524.7 (1)
0x520|            00                                 |    .           |                  n: 0 0x524-0x524.7 (1)
     |                                               |                |                  x[0:0]: 0x525-NA (0)
     |                                               |                |                e[0:4]: 0x525-0x53b.7 (23)
     |                                               |                |                  [0]{}: in 0x525-0x526.7 (2)
0x520|               20                              |                |                    local.get: 0x20 (valid) 0x525-0x525.7 (1)
0x520|                  00                           |      .         |                    x: 0 0x526-0x526.7 (1)
     |                                               |                |                  [1]{}: in 0x527-0x528.7 (2)
0x520|                     20                        |                |                    local.get: 0x20 (valid) 0x527-0x527.7 (1)
0x520|                        01                     |        .       |                    x: 1 0x528-0x528.7 (1)
     |                                               |                |                  [2]{}: in 0x529-0x53a.7 (18)
0x520|                           fd                  |         .      |                    prefix: 0xfd (valid) 0x529-0x529.7 (1)
0x520|                              0d               |          .     |                    i8x16.shuffle: 13 (valid) 0x52a-0x52a.7 (1)
     |                                               |                |                    laneidx[0:16]: 0x52b-0x53a.7 (16)
0x520|                                 1f            |           .    |                      [0]: 31 l 0x52b-0x52b.7 (1)
0x520|                                    1e         |            .   |                      [1]: 30 l 0x52c-0x52c.7 (1)
0x520|                                       1d      |             .  |                      [2]: 29 l 0x52d-0x52d.7 (1)
0x520|                                          1c   |              . |                      [3]: 28 l 0x52e-0x52e.7 (1)
0x520|                                             1b|               .|                      [4]: 27 l 0x52f-0x52f.7 (1)
0x530|1a                                             |.               |                      [5]: 26 l 0x530-0x530.7 (1)
0x530|   19                                          | .              |                      [6]: 25 l 0x531-0x531.7 (1)
0x530|      18                                       |  .             |                      [7]: 24 l 0x532-0x532.7 (1)
0x530|         17                                    |   .            |                      [8]: 23 l 0x533-0x533.7 (1)
0x530|            16                                 |    .           |                      [9]: 22 l 0x534-0x534.7 (1)
0x530|               15                              |     .          |                      [10]: 21 l 0x535-0x535.7 (1)
0x530|                  14                           |      .         |                      [11]: 20 l 0x536-0x536.7 (1)
0x530|                     13                        |       .        |                      [12]: 19 l 0x537-0x537.7 (1)
0x530|                        12                     |        .       |                      [13]: 18 l 0x538-0x538.7 (1)
0x530|                           11                  |         .      |                      [14]: 17 l 0x539-0x539.7 (1)
0x530|                              10               |          .     |                      [15]: 16 l 0x53a-0x53a.7 (1)
     |                                               |                |                  [3]{}: in 0x53b-0x53b.7 (1)
0x530|                                 0b            |           .    |                    end: 0xb (valid) 0x53b-0x53b.7 (1)
     |                                               |                |            [32]{}: code 0x53c-0x554.7 (25)
0x530|                                    18         |            .   |              size: 24 0x53c-0x53c.7 (1)
     |                                               |                |              code{}: 0x53d-0x554.7 (24)
     |                                               |                |                t{}: 0x53d-0x53d.7 (1)
0x530|                                       00      |             .  |                  n: 0 0x53d-0x53d.7 (1)
     |                                               |                |                  x[0:0]: 0x53e-NA (0)
     |                                               |                |                e[0:4]: 0x53e-0x554.7 (23)
     |                                               |                |                  [0]{}: in 0x53e-0x53f.7 (2)
0x530|                                          20   |                |                    local.get: 0x20 (valid) 0x53e-0x53e.7 (1)
0x530|                                             00|               .|                    x: 0 0x53f-0x53f.7 (1)
     |                                               |                |                  [1]{}: in 0x540-0x541.7 (2)
0x540|20                                             |                |                    local.get: 0x20 (valid) 0x540-0x540.7 (1)
0x540|   01                                          | .              |                    x: 1 0x541-0x541.7 (1)
     |                                               |                |                  [2]{}: in 0x542-0x553.7 (18)
0x540|      fd                                       |  .             |                    prefix: 0xfd (valid) 0x542-0x542.7 (1)
0x540|         0d                                    |   .            |                    i8x16.shuffle: 13 (valid) 0x543-0x543.7 (1)
     |                                               |                |                    laneidx[0:16]: 0x544-0x553.7 (16)
0x540|            0f                                 |    .           |                      [0]: 15 l 0x544-0x544.7 (1)
0x540|               0e                              |     .          |                      [1]: 14 l 0x545-0x545.7 (1)
0x540|                  0d                           |      .         |                      [2]: 13 l 0x546-0x546.7 (1)
0x540|                     0c                        |       .        |                      [3]: 12 l 0x547-0x547.7 (1)
0x540|                        0b                     |        .       |                      [4]: 11 l 0x548-0x548.7 (1)
0x540|                           0a                  |         .      |                      [5]: 10 l 0x549-0x549.7 (1)
0x540|                              09               |          .     |                      [6]: 9 l 0x54a-0x54a.7 (1)
0x540|                                 08            |           .    |                      [7]: 8 l 0x54b-0x54b.7 (1)
0x540|                                    07         |            .   |                      [8]: 7 l 0x54c-0x54c.7 (1)
0x540|                                       06      |             .  |                      [9]: 6 l 0x54d-0x54d.7 (1)
0x540|                                          05   |              . |                      [10]: 5 l 0x54e-0x54e.7 (1)
0x540|                                             04|               .|                      [11]: 4 l 0x54f-0x54f.7 (1)
0x550|03                                             |.               |                      [12]: 3 l 0x550-0x550.7 (1)
0x550|   02                                          | .              |                      [13]: 2 l 0x551-0x551.7 (1)
0x550|      01                                       |  .             |                      [14]: 1 l 0x552-0x552.7 (1)
0x550|         00                                    |   .            |                      [15]: 0 l 0x553-0x553.7 (1)
     |                                               |                |                  [3]{}: in 0x554-0x554.7 (1)
0x550|            0b                                 |    .           |                    end: 0xb (valid) 0x554-0x554.7 (1)
     |                                               |                |            [33]{}: code 0x555-0x56d.7 (25)
0x550|               18                              |     .          |              size: 24 0x555-0x555.7 (1)
     |                                               |                |              code{}: 0x556-0x56d.7 (24)
     |                                               |                |                t{}: 0x556-0x556.7 (1)
0x550|                  00                           |      .         |                  n: 0 0x556-0x556.7 (1)
     |                                               |                |                  x[0:0]: 0x557-NA (0)
     |                                               |                |                e[0:4]: 0x557-0x56d.7 (23)
     |                                               |                |                  [0]{}: in 0x557-0x558.7 (2)
0x550|                     20                        |                |                    local.get: 0x20 (valid) 0x557-0x557.7 (1)
0x550|                        00                     |        .       |                    x: 0 0x558-0x558.7 (1)
     |                                               |                |                  [1]{}: in 0x559-0x55a.7 (2)
0x550|                           20                  |                |                    local.get: 0x20 (valid) 0x559-0x559.7 (1)
0x550|                              01               |          .     |                    x: 1 0x55a-0x55a.7 (1)
     |                                               |                |                  [2]{}: in 0x55b-0x56c.7 (18)
0x550|                                 fd            |           .    |                    prefix: 0xfd (valid) 0x55b-0x55b.7 (1)
0x550|                                    0d         |            .   |                    i8x16.shuffle: 13 (valid) 0x55c-0x55c.7 (1)
     |                                               |                |                    laneidx[0:16]: 0x55d-0x56c.7 (16)
0x550|                                       00      |             .  |                      [0]: 0 l 0x55d-0x55d.7 (1)
0x550|                                          00   |              . |                      [1]: 0 l 0x55e-0x55e.7 (1)
0x550|                                             00|               .|                      [2]: 0 l 0x55f-0x55f.7 (1)
0x560|00                                             |.               |                      [3]: 0 l 0x560-0x560.7 (1)
0x560|   00                                          | .              |                      [4]: 0 l 0x561-0x561.7 (1)
0x560|      00                                       |  .             |                      [5]: 0 l 0x562-0x562.7 (1)
0x560|         00                                    |   .            |                      [6]: 0 l 0x563-0x563.7 (1)
0x560|            00                                 |    .           |                      [7]: 0 l 0x564-0x564.7 (1)
0x560|               00                              |     .          |                      [8]: 0 l 0x565-0x565.7 (1)
0x560|                  00                           |      .         |                      [9]: 0 l 0x566-0x566.7 (1)
0x560|                     00                        |       .        |                      [10]: 0 l 0x567-0x567.7 (1)
0x560|                        00                     |        .       |                      [11]: 0 l 0x568-0x568.7 (1)
0x560|                           00                  |         .      |                      [12]: 0 l 0x569-0x569.7 (1)
0x560|                              00               |          .     |                      [13]: 0 l 0x56a-0x56a.7 (1)
0x560|                                 00            |           .    |                      [14]: 0 l 0x56b-0x56b.7 (1)
0x560|                                    00         |            .   |                      [15]: 0 l 0x56c-0x56c.7 (1)
     |                                               |                |                  [3]{}: in 0x56d-0x56d.7 (1)
0x560|                                       0b      |             .  |                    end: 0xb (valid) 0x56d-0x56d.7 (1)
     |                                               |                |            [34]{}: code 0x56e-0x586.7 (25)
0x560|                                          18   |              . |              size: 24 0x56e-0x56e.7 (1)
     |                                               |                |              code{}: 0x56f-0x586.7 (24)
     |                                               |                |                t{}: 0x56f-0x56f.7 (1)
0x560|                                             00|               .|                  n: 0 0x56f-0x56f.7 (1)
     |                                               |                |                  x[0:0]: 0x570-NA (0)
     |                                               |                |                e[0:4]: 0x570-0x586.7 (23)
     |                                               |                |                  [0]{}: in 0x570-0x571.7 (2)
0x570|20                                             |                |                    local.get: 0x20 (valid) 0x570-0x570.7 (1)
0x570|   00                                          | .              |                    x: 0 0x571-0x571.7 (1)
     |                                               |                |                  [1]{}: in 0x572-0x573.7 (2)
0x570|      20                                       |                |                    local.get: 0x20 (valid) 0x572-0x572.7 (1)
0x570|         01                                    |   .            |                    x: 1 0x573-0x573.7 (1)
     |                                               |                |                  [2]{}: in 0x574-0x585.7 (18)
0x570|            fd                                 |    .           |                    prefix: 0xfd (valid) 0x574-0x574.7 (1)
0x570|               0d                              |     .          |                    i8x16.shuffle: 13 (valid) 0x575-0x575.7 (1)
     |                                               |                |                    laneidx[0:16]: 0x576-0x585.7 (16)
0x570|                  10                           |      .         |                      [0]: 16 l 0x576-0x576.7 (1)
0x570|                     10                        |       .        |                      [1]: 16 l 0x577-0x577.7 (1)
0x570|                        10                     |        .       |                      [2]: 16 l 0x578-0x578.7 (1)
0x570|                           10                  |         .      |                      [3]: 16 l 0x579-0x579.7 (1)
0x570|                              10               |          .     |                      [4]: 16 l 0x57a-0x57a.7 (1)
0x570|                                 10            |           .    |                      [5]: 16 l 0x57b-0x57b.7 (1)
0x570|                                    10         |            .   |                      [6]: 16 l 0x57c-0x57c.7 (1)
0x570|                                       10      |             .  |                      [7]: 16 l 0x57d-0x57d.7 (1)
0x570|                                          10   |              . |                      [8]: 16 l 0x57e-0x57e.7 (1)
0x570|                                             10|               .|                      [9]: 16 l 0x57f-0x57f.7 (1)
0x580|10                                             |.               |                      [10]: 16 l 0x580-0x580.7 (1)
0x580|   10                                          | .              |                      [11]: 16 l 0x581-0x581.7 (1)
0x580|      10                                       |  .             |                      [12]: 16 l 0x582-0x582.7 (1)
0x580|         10                                    |   .            |                      [13]: 16 l 0x583-0x583.7 (1)
0x580|            10                                 |    .           |                      [14]: 16 l 0x584-0x584.7 (1)
0x580|               10                              |     .          |                      [15]: 16 l 0x585-0x585.7 (1)
     |                                               |                |                  [3]{}: in 0x586-0x586.7 (1)
0x580|                  0b                           |      .         |                    end: 0xb (valid) 0x586-0x586.7 (1)
     |                                               |                |            [35]{}: code 0x587-0x59f.7 (25)
0x580|                     18                        |       .        |              size: 24 0x587-0x587.7 (1)
     |                                               |                |              code{}: 0x588-0x59f.7 (24)
     |                                               |                |                t{}: 0x588-0x588.7 (1)
0x580|                        00                     |        .       |                  n: 0 0x588-0x588.7 (1)
     |                                               |                |                  x[0:0]: 0x589-NA (0)
     |                                               |                |                e[0:4]: 0x589-0x59f.7 (23)
     |                                               |                |                  [0]{}: in 0x589-0x58a.7 (2)
0x580|                           20                  |                |                    local.get: 0x20 (valid) 0x589-0x589.7 (1)
0x580|                              00               |          .     |                    x: 0 0x58a-0x58a.7 (1)
     |                                               |                |                  [1]{}: in 0x58b-0x58c.7 (2)
0x580|                                 20            |                |                    local.get: 0x20 (valid) 0x58b-0x58b.7 (1)
0x580|                                    01         |            .   |                    x: 1 0x58c-0x58c.7 (1)
     |                                               |                |                  [2]{}: in 0x58d-0x59e.7 (18)
0x580|                                       fd      |             .  |                    prefix: 0xfd (valid) 0x58d-0x58d.7 (1)
0x580|                                          0d   |              . |                    i8x16.shuffle: 13 (valid) 0x58e-0x58e.7 (1)
     |                                               |                |                    laneidx[0:16]: 0x58f-0x59e.7 (16)
0x580|                                             00|               .|                      [0]: 0 l 0x58f-0x58f.7 (1)
0x590|00                                             |.               |                      [1]: 0 l 0x590-0x590.7 (1)
0x590|   00                                          | .              |                      [2]: 0 l 0x591-0x591.7 (1)
0x590|      00                                       |  .             |                      [3]: 0 l 0x592-0x592.7 (1)
0x590|         00                                    |   .            |                      [4]: 0 l 0x593-0x593.7 (1)
0x590|            00                                 |    .           |                      [5]: 0 l 0x594-0x594.7 (1)
0x590|               00                              |     .          |                      [6]: 0 l 0x595-0x595.7 (1)
0x590|                  00                           |      .         |                      [7]: 0 l 0x596-0x596.7 (1)
0x590|                     10                        |       .        |                      [8]: 16 l 0x597-0x597.7 (1)
0x590|                        10                     |        .       |                      [9]: 16 l 0x598-0x598.7 (1)
0x590|                           10                  |         .      |                      [10]: 16 l 0x599-0x599.7 (1)
0x590|                              10               |          .     |                      [11]: 16 l 0x59a-0x59a.7 (1)
0x590|                                 10            |           .    |                      [12]: 16 l 0x59b-0x59b.7 (1)
0x590|                                    10         |            .   |                      [13]: 16 l 0x59c-0x59c.7 (1)
0x590|                                       10      |             .  |                      [14]: 16 l 0x59d-0x59d.7 (1)
0x590|                                          10   |              . |                      [15]: 16 l 0x59e-0x59e.7 (1)
     |                                               |                |                  [3]{}: in 0x59f-0x59f.7 (1)
0x590|                                             0b|               .|                    end: 0xb (valid) 0x59f-0x59f.7 (1)
