$ fq -d wasm dv simd_i32x4_arith2-1.wasm
     |00 01 02 03 04 05 06 07 08 09 0a 0b 0c 0d 0e 0f|0123456789abcdef|.{}: simd_i32x4_arith2-1.wasm (wasm) 0x0-0x419.7 (1050)
0x000|00 61 73 6d                                    |.asm            |  magic: raw bits (valid) 0x0-0x3.7 (4)
0x000|            01 00 00 00                        |    ....        |  version: 1 0x4-0x7.7 (4)
     |                                               |                |  sections[0:4]: 0x8-0x419.7 (1042)
     |                                               |                |    [0]{}: section 0x8-0x1c.7 (21)
0x000|                        01                     |        .       |      id: "type section" (1) 0x8-0x8.7 (1)
0x000|                           13                  |         .      |      size: 19 0x9-0x9.7 (1)
     |                                               |                |      content{}: 0xa-0x1c.7 (19)
     |                                               |                |        ft{}: 0xa-0x1c.7 (19)
0x000|                              03               |          .     |          n: 3 0xa-0xa.7 (1)
     |                                               |                |          x[0:3]: 0xb-0x1c.7 (18)
     |                                               |                |            [0]{}: ft 0xb-0x11.7 (7)
0x000|                                 60            |           `    |              tag: 0x60 (valid) 0xb-0xb.7 (1)
     |                                               |                |              rt1{}: 0xc-0xf.7 (4)
0x000|                                    03         |            .   |                n: 3 0xc-0xc.7 (1)
     |                                               |                |                x[0:3]: 0xd-0xf.7 (3)
0x000|                                       7b      |             {  |                  [0]: "v128" (0x7b) t 0xd-0xd.7 (1)
0x000|                                          7b   |              { |                  [1]: "v128" (0x7b) t 0xe-0xe.7 (1)
0x000|                                             7b|               {|                  [2]: "v128" (0x7b) t 0xf-0xf.7 (1)
     |                                               |                |              rt2{}: 0x10-0x11.7 (2)
0x010|01                                             |.               |                n: 1 0x10-0x10.7 (1)
     |                                               |                |                x[0:1]: 0x11-0x11.7 (1)
0x010|   7b                                          | {              |                  [0]: "v128" (0x7b) t 0x11-0x11.7 (1)
     |                                               |                |            [1]{}: ft 0x12-0x17.7 (6)
0x010|      60                                       |  `             |              tag: 0x60 (valid) 0x12-0x12.7 (1)
     |                                               |                |              rt1{}: 0x13-0x15.7 (3)
0x010|         02                                    |   .            |                n: 2 0x13-0x13.7 (1)
     |                                               |                |                x[0:2]: 0x14-0x15.7 (2)
0x010|            7b                                 |    {           |                  [0]: "v128" (0x7b) t 0x14-0x14.7 (1)
0x010|               7b                              |     {          |                  [1]: "v128" (0x7b) t 0x15-0x15.7 (1)
     |                                               |                |              rt2{}: 0x16-0x17.7 (2)
0x010|                  01                           |      .         |                n: 1 0x16-0x16.7 (1)
     |                                               |                |                x[0:1]: 0x17-0x17.7 (1)
0x010|                     7b                        |       {        |                  [0]: "v128" (0x7b) t 0x17-0x17.7 (1)
     |                                               |                |            [2]{}: ft 0x18-0x1c.7 (5)
0x010|                        60                     |        `       |              tag: 0x60 (valid) 0x18-0x18.7 (1)
     |                                               |                |              rt1{}: 0x19-0x1a.7 (2)
0x010|                           01                  |         .      |                n: 1 0x19-0x19.7 (1)
     |                                               |                |                x[0:1]: 0x1a-0x1a.7 (1)
0x010|                              7b               |          {     |                  [0]: "v128" (0x7b) t 0x1a-0x1a.7 (1)
     |                                               |                |              rt2{}: 0x1b-0x1c.7 (2)
0x010|                                 01            |           .    |                n: 1 0x1b-0x1b.7 (1)
     |                                               |                |                x[0:1]: 0x1c-0x1c.7 (1)
0x010|                                    7b         |            {   |                  [0]: "v128" (0x7b) t 0x1c-0x1c.7 (1)
     |                                               |                |    [1]{}: section 0x1d-0x38.7 (28)
0x010|                                       03      |             .  |      id: "function section" (3) 0x1d-0x1d.7 (1)
0x010|                                          1a   |              . |      size: 26 0x1e-0x1e.7 (1)
     |                                               |                |      content{}: 0x1f-0x38.7 (26)
     |                                               |                |        x{}: 0x1f-0x38.7 (26)
0x010|                                             19|               .|          n: 25 0x1f-0x1f.7 (1)
     |                                               |                |          x[0:25]: 0x20-0x38.7 (25)
0x020|00                                             |.               |            [0]: 0 x 0x20-0x20.7 (1)
0x020|   00                                          | .              |            [1]: 0 x 0x21-0x21.7 (1)
0x020|      00                                       |  .             |            [2]: 0 x 0x22-0x22.7 (1)
0x020|         00                                    |   .            |            [3]: 0 x 0x23-0x23.7 (1)
0x020|            01                                 |    .           |            [4]: 1 x 0x24-0x24.7 (1)
0x020|               01                              |     .          |            [5]: 1 x 0x25-0x25.7 (1)
0x020|                  00                           |      .         |            [6]: 0 x 0x26-0x26.7 (1)
0x020|                     00                        |       .        |            [7]: 0 x 0x27-0x27.7 (1)
0x020|                        00                     |        .       |            [8]: 0 x 0x28-0x28.7 (1)
0x020|                           00                  |         .      |            [9]: 0 x 0x29-0x29.7 (1)
0x020|                              01               |          .     |            [10]: 1 x 0x2a-0x2a.7 (1)
0x020|                                 01            |           .    |            [11]: 1 x 0x2b-0x2b.7 (1)
0x020|                                    00         |            .   |            [12]: 0 x 0x2c-0x2c.7 (1)
0x020|                                       00      |             .  |            [13]: 0 x 0x2d-0x2d.7 (1)
0x020|                                          00   |              . |            [14]: 0 x 0x2e-0x2e.7 (1)
0x020|                                             00|               .|            [15]: 0 x 0x2f-0x2f.7 (1)
0x030|01                                             |.               |            [16]: 1 x 0x30-0x30.7 (1)
0x030|   01                                          | .              |            [17]: 1 x 0x31-0x31.7 (1)
0x030|      00                                       |  .             |            [18]: 0 x 0x32-0x32.7 (1)
0x030|         00                                    |   .            |            [19]: 0 x 0x33-0x33.7 (1)
0x030|            00                                 |    .           |            [20]: 0 x 0x34-0x34.7 (1)
0x030|               00                              |     .          |            [21]: 0 x 0x35-0x35.7 (1)
0x030|                  01                           |      .         |            [22]: 1 x 0x36-0x36.7 (1)
0x030|                     01                        |       .        |            [23]: 1 x 0x37-0x37.7 (1)
0x030|                        02                     |        .       |            [24]: 2 x 0x38-0x38.7 (1)
     |                                               |                |    [2]{}: section 0x39-0x2b2.7 (634)
0x030|                           07                  |         .      |      id: "export section" (7) 0x39-0x39.7 (1)
0x030|                              f7 04            |          ..    |      size: 631 0x3a-0x3b.7 (2)
     |                                               |                |      content{}: 0x3c-0x2b2.7 (631)
     |                                               |                |        ex{}: 0x3c-0x2b2.7 (631)
0x030|                                    19         |            .   |          n: 25 0x3c-0x3c.7 (1)
     |                                               |                |          x[0:25]: 0x3d-0x2b2.7 (630)
     |                                               |                |            [0]{}: ex 0x3d-0x56.7 (26)
     |                                               |                |              nm{}: 0x3d-0x54.7 (24)
0x030|                                       17      |             .  |                n: 23 0x3d-0x3d.7 (1)
0x030|                                          69 33|              i3|                b: "i32x4.min_s-i32x4.max_u" 0x3e-0x54.7 (23)
0x040|32 78 34 2e 6d 69 6e 5f 73 2d 69 33 32 78 34 2e|2x4.min_s-i32x4.|
0x050|6d 61 78 5f 75                                 |max_u           |
     |                                               |                |              d{}: 0x55-0x56.7 (2)
0x050|               00                              |     .          |                tag: "funcidx" (0x0) 0x55-0x55.7 (1)
0x050|                  00                           |      .         |                x: 0 0x56-0x56.7 (1)
     |                                               |                |            [1]{}: ex 0x57-0x70.7 (26)
     |                                               |                |              nm{}: 0x57-0x6e.7 (24)
0x050|                     17                        |       .        |                n: 23 0x57-0x57.7 (1)
0x050|                        69 33 32 78 34 2e 6d 69|        i32x4.mi|                b: "i32x4.min_s-i32x4.max_s" 0x58-0x6e.7 (23)
0x060|6e 5f 73 2d 69 33 32 78 34 2e 6d 61 78 5f 73   |n_s-i32x4.max_s |
     |                                               |                |              d{}: 0x6f-0x70.7 (2)
0x060|                                             00|               .|                tag: "funcidx" (0x0) 0x6f-0x6f.7 (1)
0x070|01                                             |.               |                x: 1 0x70-0x70.7 (1)
     |                                               |                |            [2]{}: ex 0x71-0x8a.7 (26)
     |                                               |                |              nm{}: 0x71-0x88.7 (24)
0x070|   17                                          | .              |                n: 23 0x71-0x71.7 (1)
0x070|      69 33 32 78 34 2e 6d 69 6e 5f 73 2d 69 33|  i32x4.min_s-i3|                b: "i32x4.min_s-i32x4.min_u" 0x72-0x88.7 (23)
0x080|32 78 34 2e 6d 69 6e 5f 75                     |2x4.min_u       |
     |                                               |                |              d{}: 0x89-0x8a.7 (2)
0x080|                           00                  |         .      |                tag: "funcidx" (0x0) 0x89-0x89.7 (1)
0x080|                              02               |          .     |                x: 2 0x8a-0x8a.7 (1)
     |                                               |                |            [3]{}: ex 0x8b-0xa4.7 (26)
     |                                               |                |              nm{}: 0x8b-0xa2.7 (24)
0x080|                                 17            |           .    |                n: 23 0x8b-0x8b.7 (1)
0x080|                                    69 33 32 78|            i32x|                b: "i32x4.min_s-i32x4.min_s" 0x8c-0xa2.7 (23)
0x090|34 2e 6d 69 6e 5f 73 2d 69 33 32 78 34 2e 6d 69|4.min_s-i32x4.mi|
0x0a0|6e 5f 73                                       |n_s             |
     |                                               |                |              d{}: 0xa3-0xa4.7 (2)
0x0a0|         00                                    |   .            |                tag: "funcidx" (0x0) 0xa3-0xa3.7 (1)
0x0a0|            03                                 |    .           |                x: 3 0xa4-0xa4.7 (1)
     |                                               |                |            [4]{}: ex 0xa5-0xbc.7 (24)
     |                                               |                |              nm{}: 0xa5-0xba.7 (22)
0x0a0|               15                              |     .          |                n: 21 0xa5-0xa5.7 (1)
0x0a0|                  69 33 32 78 34 2e 6d 69 6e 5f|      i32x4.min_|                b: "i32x4.min_s-i32x4.abs" 0xa6-0xba.7 (21)
0x0b0|73 2d 69 33 32 78 34 2e 61 62 73               |s-i32x4.abs     |
     |                                               |                |              d{}: 0xbb-0xbc.7 (2)
0x0b0|                                 00            |           .    |                tag: "funcidx" (0x0) 0xbb-0xbb.7 (1)
0x0b0|                                    04         |            .   |                x: 4 0xbc-0xbc.7 (1)
     |                                               |                |            [5]{}: ex 0xbd-0xd4.7 (24)
     |                                               |                |              nm{}: 0xbd-0xd2.7 (22)
0x0b0|                                       15      |             .  |                n: 21 0xbd-0xbd.7 (1)
0x0b0|                                          69 33|              i3|                b: "i32x4.abs-i32x4.min_s" 0xbe-0xd2.7 (21)
0x0c0|32 78 34 2e 61 62 73 2d 69 33 32 78 34 2e 6d 69|2x4.abs-i32x4.mi|
0x0d0|6e 5f 73                                       |n_s             |
     |                                               |                |              d{}: 0xd3-0xd4.7 (2)
0x0d0|         00                                    |   .            |                tag: "funcidx" (0x0) 0xd3-0xd3.7 (1)
0x0d0|            05                                 |    .           |                x: 5 0xd4-0xd4.7 (1)
     |                                               |                |            [6]{}: ex 0xd5-0xee.7 (26)
     |                                               |                |              nm{}: 0xd5-0xec.7 (24)
0x0d0|               17                              |     .          |                n: 23 0xd5-0xd5.7 (1)
0x0d0|                  69 33 32 78 34 2e 6d 69 6e 5f|      i32x4.min_|                b: "i32x4.min_u-i32x4.max_u" 0xd6-0xec.7 (23)
0x0e0|75 2d 69 33 32 78 34 2e 6d 61 78 5f 75         |u-i32x4.max_u   |
     |                                               |                |              d{}: 0xed-0xee.7 (2)
0x0e0|                                       00      |             .  |                tag: "funcidx" (0x0) 0xed-0xed.7 (1)
0x0e0|                                          06   |              . |                x: 6 0xee-0xee.7 (1)
     |                                               |                |            [7]{}: ex 0xef-0x108.7 (26)
     |                                               |                |              nm{}: 0xef-0x106.7 (24)
0x0e0|                                             17|               .|                n: 23 0xef-0xef.7 (1)
0x0f0|69 33 32 78 34 2e 6d 69 6e 5f 75 2d 69 33 32 78|i32x4.min_u-i32x|                b: "i32x4.min_u-i32x4.max_s" 0xf0-0x106.7 (23)
0x100|34 2e 6d 61 78 5f 73                           |4.max_s         |
     |                                               |                |              d{}: 0x107-0x108.7 (2)
0x100|                     00                        |       .        |                tag: "funcidx" (0x0) 0x107-0x107.7 (1)
0x100|                        07                     |        .       |                x: 7 0x108-0x108.7 (1)
     |                                               |                |            [8]{}: ex 0x109-0x122.7 (26)
     |                                               |                |              nm{}: 0x109-0x120.7 (24)
0x100|                           17                  |         .      |                n: 23 0x109-0x109.7 (1)
0x100|                              69 33 32 78 34 2e|          i32x4.|                b: "i32x4.min_u-i32x4.min_u" 0x10a-0x120.7 (23)
0x110|6d 69 6e 5f 75 2d 69 33 32 78 34 2e 6d 69 6e 5f|min_u-i32x4.min_|
0x120|75                                             |u               |
     |                                               |                |              d{}: 0x121-0x122.7 (2)
0x120|   00                                          | .              |                tag: "funcidx" (0x0) 0x121-0x121.7 (1)
0x120|      08                                       |  .             |                x: 8 0x122-0x122.7 (1)
     |                                               |                |            [9]{}: ex 0x123-0x13c.7 (26)
     |                                               |                |              nm{}: 0x123-0x13a.7 (24)
0x120|         17                                    |   .            |                n: 23 0x123-0x123.7 (1)
0x120|            69 33 32 78 34 2e 6d 69 6e 5f 75 2d|    i32x4.min_u-|                b: "i32x4.min_u-i32x4.min_s" 0x124-0x13a.7 (23)
0x130|69 33 32 78 34 2e 6d 69 6e 5f 73               |i32x4.min_s     |
     |                                               |                |              d{}: 0x13b-0x13c.7 (2)
0x130|                                 00            |           .    |                tag: "funcidx" (0x0) 0x13b-0x13b.7 (1)
0x130|                                    09         |            .   |                x: 9 0x13c-0x13c.7 (1)
     |                                               |                |            [10]{}: ex 0x13d-0x154.7 (24)
     |                                               |                |              nm{}: 0x13d-0x152.7 (22)
0x130|                                       15      |             .  |                n: 21 0x13d-0x13d.7 (1)
0x130|                                          69 33|              i3|                b: "i32x4.min_u-i32x4.abs" 0x13e-0x152.7 (21)
0x140|32 78 34 2e 6d 69 6e 5f 75 2d 69 33 32 78 34 2e|2x4.min_u-i32x4.|
0x150|61 62 73                                       |abs             |
     |                                               |                |              d{}: 0x153-0x154.7 (2)
0x150|         00                                    |   .            |                tag: "funcidx" (0x0) 0x153-0x153.7 (1)
0x150|            0a                                 |    .           |                x: 10 0x154-0x154.7 (1)
     |                                               |                |            [11]{}: ex 0x155-0x16c.7 (24)
     |                                               |                |              nm{}: 0x155-0x16a.7 (22)
0x150|               15                              |     .          |                n: 21 0x155-0x155.7 (1)
0x150|                  69 33 32 78 34 2e 61 62 73 2d|      i32x4.abs-|                b: "i32x4.abs-i32x4.min_u" 0x156-0x16a.7 (21)
0x160|69 33 32 78 34 2e 6d 69 6e 5f 75               |i32x4.min_u     |
     |                                               |                |              d{}: 0x16b-0x16c.7 (2)
0x160|                                 00            |           .    |                tag: "funcidx" (0x0) 0x16b-0x16b.7 (1)
0x160|                                    0b         |            .   |                x: 11 0x16c-0x16c.7 (1)
     |                                               |                |            [12]{}: ex 0x16d-0x186.7 (26)
     |                                               |                |              nm{}: 0x16d-0x184.7 (24)
0x160|                                       17      |             .  |                n: 23 0x16d-0x16d.7 (1)
0x160|                                          69 33|              i3|                b: "i32x4.max_s-i32x4.max_u" 0x16e-0x184.7 (23)
0x170|32 78 34 2e 6d 61 78 5f 73 2d 69 33 32 78 34 2e|2x4.max_s-i32x4.|
0x180|6d 61 78 5f 75                                 |max_u           |
     |                                               |                |              d{}: 0x185-0x186.7 (2)
0x180|               00                              |     .          |                tag: "funcidx" (0x0) 0x185-0x185.7 (1)
0x180|                  0c                           |      .         |                x: 12 0x186-0x186.7 (1)
     |                                               |                |            [13]{}: ex 0x187-0x1a0.7 (26)
     |                                               |                |              nm{}: 0x187-0x19e.7 (24)
0x180|                     17                        |       .        |                n: 23 0x187-0x187.7 (1)
0x180|                        69 33 32 78 34 2e 6d 61|        i32x4.ma|                b: "i32x4.max_s-i32x4.max_s" 0x188-0x19e.7 (23)
0x190|78 5f 73 2d 69 33 32 78 34 2e 6d 61 78 5f 73   |x_s-i32x4.max_s |
     |                                               |                |              d{}: 0x19f-0x1a0.7 (2)
0x190|                                             00|               .|                tag: "funcidx" (0x0) 0x19f-0x19f.7 (1)
0x1a0|0d                                             |.               |                x: 13 0x1a0-0x1a0.7 (1)
     |                                               |                |            [14]{}: ex 0x1a1-0x1ba.7 (26)
     |                                               |                |              nm{}: 0x1a1-0x1b8.7 (24)
0x1a0|   17                                          | .              |                n: 23 0x1a1-0x1a1.7 (1)
0x1a0|      69 33 32 78 34 2e 6d 61 78 5f 73 2d 69 33|  i32x4.max_s-i3|                b: "i32x4.max_s-i32x4.min_u" 0x1a2-0x1b8.7 (23)
0x1b0|32 78 34 2e 6d 69 6e 5f 75                     |2x4.min_u       |
     |                                               |                |              d{}: 0x1b9-0x1ba.7 (2)
0x1b0|                           00                  |         .      |                tag: "funcidx" (0x0) 0x1b9-0x1b9.7 (1)
0x1b0|                              0e               |          .     |                x: 14 0x1ba-0x1ba.7 (1)
     |                                               |                |            [15]{}: ex 0x1bb-0x1d4.7 (26)
     |                                               |                |              nm{}: 0x1bb-0x1d2.7 (24)
0x1b0|                                 17            |           .    |                n: 23 0x1bb-0x1bb.7 (1)
0x1b0|                                    69 33 32 78|            i32x|                b: "i32x4.max_s-i32x4.min_s" 0x1bc-0x1d2.7 (23)
0x1c0|34 2e 6d 61 78 5f 73 2d 69 33 32 78 34 2e 6d 69|4.max_s-i32x4.mi|
0x1d0|6e 5f 73                                       |n_s             |
     |                                               |                |              d{}: 0x1d3-0x1d4.7 (2)
0x1d0|         00                                    |   .            |                tag: "funcidx" (0x0) 0x1d3-0x1d3.7 (1)
0x1d0|            0f                                 |    .           |                x: 15 0x1d4-0x1d4.7 (1)
     |                                               |                |            [16]{}: ex 0x1d5-0x1ec.7 (24)
     |                                               |                |              nm{}: 0x1d5-0x1ea.7 (22)
0x1d0|               15                              |     .          |                n: 21 0x1d5-0x1d5.7 (1)
0x1d0|                  69 33 32 78 34 2e 6d 61 78 5f|      i32x4.max_|                b: "i32x4.max_s-i32x4.abs" 0x1d6-0x1ea.7 (21)
0x1e0|73 2d 69 33 32 78 34 2e 61 62 73               |s-i32x4.abs     |
     |                                               |                |              d{}: 0x1eb-0x1ec.7 (2)
0x1e0|                                 00            |           .    |                tag: "funcidx" (0x0) 0x1eb-0x1eb.7 (1)
0x1e0|                                    10         |            .   |                x: 16 0x1ec-0x1ec.7 (1)
     |                                               |                |            [17]{}: ex 0x1ed-0x204.7 (24)
     |                                               |                |              nm{}: 0x1ed-0x202.7 (22)
0x1e0|                                       15      |             .  |                n: 21 0x1ed-0x1ed.7 (1)
0x1e0|                                          69 33|              i3|                b: "i32x4.abs-i32x4.max_s" 0x1ee-0x202.7 (21)
0x1f0|32 78 34 2e 61 62 73 2d 69 33 32 78 34 2e 6d 61|2x4.abs-i32x4.ma|
0x200|78 5f 73                                       |x_s             |
     |                                               |                |              d{}: 0x203-0x204.7 (2)
0x200|         00                                    |   .            |                tag: "funcidx" (0x0) 0x203-0x203.7 (1)
0x200|            11                                 |    .           |                x: 17 0x204-0x204.7 (1)
     |                                               |                |            [18]{}: ex 0x205-0x21e.7 (26)
     |                                               |                |              nm{}: 0x205-0x21c.7 (24)
0x200|               17                              |     .          |                n: 23 0x205-0x205.7 (1)
0x200|                  69 33 32 78 34 2e 6d 61 78 5f|      i32x4.max_|                b: "i32x4.max_u-i32x4.max_u" 0x206-0x21c.7 (23)
0x210|75 2d 69 33 32 78 34 2e 6d 61 78 5f 75         |u-i32x4.max_u   |
     |                                               |                |              d{}: 0x21d-0x21e.7 (2)
0x210|                                       00      |             .  |                tag: "funcidx" (0x0) 0x21d-0x21d.7 (1)
0x210|                                          12   |              . |                x: 18 0x21e-0x21e.7 (1)
     |                                               |                |            [19]{}: ex 0x21f-0x238.7 (26)
     |                                               |                |              nm{}: 0x21f-0x236.7 (24)
0x210|                                             17|               .|                n: 23 0x21f-0x21f.7 (1)
0x220|69 33 32 78 34 2e 6d 61 78 5f 75 2d 69 33 32 78|i32x4.max_u-i32x|                b: "i32x4.max_u-i32x4.max_s" 0x220-0x236.7 (23)
0x230|34 2e 6d 61 78 5f 73                           |4.max_s         |
     |                                               |                |              d{}: 0x237-0x238.7 (2)
0x230|                     00                        |       .        |                tag: "funcidx" (0x0) 0x237-0x237.7 (1)
0x230|                        13                     |        .       |                x: 19 0x238-0x238.7 (1)
     |                                               |                |            [20]{}: ex 0x239-0x252.7 (26)
     |                                               |                |              nm{}: 0x239-0x250.7 (24)
0x230|                           17                  |         .      |                n: 23 0x239-0x239.7 (1)
0x230|                              69 33 32 78 34 2e|          i32x4.|                b: "i32x4.max_u-i32x4.min_u" 0x23a-0x250.7 (23)
0x240|6d 61 78 5f 75 2d 69 33 32 78 34 2e 6d 69 6e 5f|max_u-i32x4.min_|
0x250|75                                             |u               |
     |                                               |                |              d{}: 0x251-0x252.7 (2)
0x250|   00                                          | .              |                tag: "funcidx" (0x0) 0x251-0x251.7 (1)
0x250|      14                                       |  .             |                x: 20 0x252-0x252.7 (1)
     |                                               |                |            [21]{}: ex 0x253-0x26c.7 (26)
     |                                               |                |              nm{}: 0x253-0x26a.7 (24)
0x250|         17                                    |   .            |                n: 23 0x253-0x253.7 (1)
0x250|            69 33 32 78 34 2e 6d 61 78 5f 75 2d|    i32x4.max_u-|                b: "i32x4.max_u-i32x4.min_s" 0x254-0x26a.7 (23)
0x260|69 33 32 78 34 2e 6d 69 6e 5f 73               |i32x4.min_s     |
     |                                               |                |              d{}: 0x26b-0x26c.7 (2)
0x260|                                 00            |           .    |                tag: "funcidx" (0x0) 0x26b-0x26b.7 (1)
0x260|                                    15         |            .   |                x: 21 0x26c-0x26c.7 (1)
     |                                               |                |            [22]{}: ex 0x26d-0x284.7 (24)
     |                                               |                |              nm{}: 0x26d-0x282.7 (22)
0x260|                                       15      |             .  |                n: 21 0x26d-0x26d.7 (1)
0x260|                                          69 33|              i3|                b: "i32x4.max_u-i32x4.abs" 0x26e-0x282.7 (21)
0x270|32 78 34 2e 6d 61 78 5f 75 2d 69 33 32 78 34 2e|2x4.max_u-i32x4.|
0x280|61 62 73                                       |abs             |
     |                                               |                |              d{}: 0x283-0x284.7 (2)
0x280|         00                                    |   .            |                tag: "funcidx" (0x0) 0x283-0x283.7 (1)
0x280|            16                                 |    .           |                x: 22 0x284-0x284.7 (1)
     |                                               |                |            [23]{}: ex 0x285-0x29c.7 (24)
     |                                               |                |              nm{}: 0x285-0x29a.7 (22)
0x280|               15                              |     .          |                n: 21 0x285-0x285.7 (1)
0x280|                  69 33 32 78 34 2e 61 62 73 2d|      i32x4.abs-|                b: "i32x4.abs-i32x4.max_u" 0x286-0x29a.7 (21)
0x290|69 33 32 78 34 2e 6d 61 78 5f 75               |i32x4.max_u     |
     |                                               |                |              d{}: 0x29b-0x29c.7 (2)
0x290|                                 00            |           .    |                tag: "funcidx" (0x0) 0x29b-0x29b.7 (1)
0x290|                                    17         |            .   |                x: 23 0x29c-0x29c.7 (1)
     |                                               |                |            [24]{}: ex 0x29d-0x2b2.7 (22)
     |                                               |                |              nm{}: 0x29d-0x2b0.7 (20)
0x290|                                       13      |             .  |                n: 19 0x29d-0x29d.7 (1)
0x290|                                          69 33|              i3|                b: "i32x4.abs-i32x4.abs" 0x29e-0x2b0.7 (19)
0x2a0|32 78 34 2e 61 62 73 2d 69 33 32 78 34 2e 61 62|2x4.abs-i32x4.ab|
0x2b0|73                                             |s               |
     |                                               |                |              d{}: 0x2b1-0x2b2.7 (2)
0x2b0|   00                                          | .              |                tag: "funcidx" (0x0) 0x2b1-0x2b1.7 (1)
0x2b0|      18                                       |  .             |                x: 24 0x2b2-0x2b2.7 (1)
     |                                               |                |    [3]{}: section 0x2b3-0x419.7 (359)
0x2b0|         0a                                    |   .            |      id: "code section" (10) 0x2b3-0x2b3.7 (1)
0x2b0|            e4 02                              |    ..          |      size: 356 0x2b4-0x2b5.7 (2)
     |                                               |                |      content{}: 0x2b6-0x419.7 (356)
     |                                               |                |        code{}: 0x2b6-0x419.7 (356)
0x2b0|                  19                           |      .         |          n: 25 0x2b6-0x2b6.7 (1)
     |                                               |                |          x[0:25]: 0x2b7-0x419.7 (355)
     |                                               |                |            [0]{}: code 0x2b7-0x2c5.7 (15)
0x2b0|                     0e                        |       .        |              size: 14 0x2b7-0x2b7.7 (1)
     |                                               |                |              code{}: 0x2b8-0x2c5.7 (14)
     |                                               |                |                t{}: 0x2b8-0x2b8.7 (1)
0x2b0|                        00                     |        .       |                  n: 0 0x2b8-0x2b8.7 (1)
     |                                               |                |                  x[0:0]: 0x2b9-NA (0)
     |                                               |                |                e[0:6]: 0x2b9-0x2c5.7 (13)
     |                                               |                |                  [0]{}: in 0x2b9-0x2ba.7 (2)
0x2b0|                           20                  |                |                    local.get: 0x20 (valid) 0x2b9-0x2b9.7 (1)
0x2b0|                              00               |          .     |                    x: 0 0x2ba-0x2ba.7 (1)
     |                                               |                |                  [1]{}: in 0x2bb-0x2bc.7 (2)
0x2b0|                                 20            |                |                    local.get: 0x20 (valid) 0x2bb-0x2bb.7 (1)
0x2b0|                                    01         |            .   |                    x: 1 0x2bc-0x2bc.7 (1)
     |                                               |                |                  [2]{}: in 0x2bd-0x2bf.7 (3)
0x2b0|                                       fd      |             .  |                    prefix: 0xfd (valid) 0x2bd-0x2bd.7 (1)
0x2b0|                                          b9 01|              ..|                    i32x4.max_u: 185 (valid) 0x2be-0x2bf.7 (2)
     |                                               |                |                  [3]{}: in 0x2c0-0x2c1.7 (2)
0x2c0|20                                             |                |                    local.get: 0x20 (valid) 0x2c0-0x2c0.7 (1)
0x2c0|   02                                          | .              |                    x: 2 0x2c1-0x2c1.7 (1)
     |                                               |                |                  [4]{}: in 0x2c2-0x2c4.7 (3)
0x2c0|      fd                                       |  .             |                    prefix: 0xfd (valid) 0x2c2-0x2c2.7 (1)
0x2c0|         b6 01                                 |   ..           |                    i32x4.min_s: 182 (valid) 0x2c3-0x2c4.7 (2)
     |                                               |                |                  [5]{}: in 0x2c5-0x2c5.7 (1)
0x2c0|               0b                              |     .          |                    end: 0xb (valid) 0x2c5-0x2c5.7 (1)
     |                                               |                |            [1]{}: code 0x2c6-0x2d4.7 (15)
0x2c0|                  0e                           |      .         |              size: 14 0x2c6-0x2c6.7 (1)
     |                                               |                |              code{}: 0x2c7-0x2d4.7 (14)
     |                                               |                |                t{}: 0x2c7-0x2c7.7 (1)
0x2c0|                     00                        |       .        |                  n: 0 0x2c7-0x2c7.7 (1)
     |                                               |                |                  x[0:0]: 0x2c8-NA (0)
     |                                               |                |                e[0:6]: 0x2c8-0x2d4.7 (13)
     |                                               |                |                  [0]{}: in 0x2c8-0x2c9.7 (2)
0x2c0|                        20                     |                |                    local.get: 0x20 (valid) 0x2c8-0x2c8.7 (1)
0x2c0|                           00                  |         .      |                    x: 0 0x2c9-0x2c9.7 (1)
     |                                               |                |                  [1]{}: in 0x2ca-0x2cb.7 (2)
0x2c0|                              20               |                |                    local.get: 0x20 (valid) 0x2ca-0x2ca.7 (1)
0x2c0|                                 01            |           .    |                    x: 1 0x2cb-0x2cb.7 (1)
     |                                               |                |                  [2]{}: in 0x2cc-0x2ce.7 (3)
0x2c0|                                    fd         |            .   |                    prefix: 0xfd (valid) 0x2cc-0x2cc.7 (1)
0x2c0|                                       b8 01   |             .. |                    i32x4.max_s: 184 (valid) 0x2cd-0x2ce.7 (2)
     |                                               |                |                  [3]{}: in 0x2cf-0x2d0.7 (2)
0x2c0|                                             20|                |                    local.get: 0x20 (valid) 0x2cf-0x2cf.7 (1)
0x2d0|02                                             |.               |                    x: 2 0x2d0-0x2d0.7 (1)
     |                                               |                |                  [4]{}: in 0x2d1-0x2d3.7 (3)
0x2d0|   fd                                          | .              |                    prefix: 0xfd (valid) 0x2d1-0x2d1.7 (1)
0x2d0|      b6 01                                    |  ..            |                    i32x4.min_s: 182 (valid) 0x2d2-0x2d3.7 (2)
     |                                               |                |                  [5]{}: in 0x2d4-0x2d4.7 (1)
0x2d0|            0b                                 |    .           |                    end: 0xb (valid) 0x2d4-0x2d4.7 (1)
     |                                               |                |            [2]{}: code 0x2d5-0x2e3.7 (15)
0x2d0|               0e                              |     .          |              size: 14 0x2d5-0x2d5.7 (1)
     |                                               |                |              code{}: 0x2d6-0x2e3.7 (14)
     |                                               |                |                t{}: 0x2d6-0x2d6.7 (1)
0x2d0|                  00                           |      .         |                  n: 0 0x2d6-0x2d6.7 (1)
     |                                               |                |                  x[0:0]: 0x2d7-NA (0)
     |                                               |                |                e[0:6]: 0x2d7-0x2e3.7 (13)
     |                                               |                |                  [0]{}: in 0x2d7-0x2d8.7 (2)
0x2d0|                     20                        |                |                    local.get: 0x20 (valid) 0x2d7-0x2d7.7 (1)
0x2d0|                        00                     |        .       |                    x: 0 0x2d8-0x2d8.7 (1)
     |                                               |                |                  [1]{}: in 0x2d9-0x2da.7 (2)
0x2d0|                           20                  |                |                    local.get: 0x20 (valid) 0x2d9-0x2d9.7 (1)
0x2d0|                              01               |          .     |                    x: 1 0x2da-0x2da.7 (1)
     |                                               |                |                  [2]{}: in 0x2db-0x2dd.7 (3)
0x2d0|                                 fd            |           .    |                    prefix: 0xfd (valid) 0x2db-0x2db.7 (1)
0x2d0|                                    b7 01      |            ..  |                    i32x4.min_u: 183 (valid) 0x2dc-0x2dd.7 (2)
     |                                               |                |                  [3]{}: in 0x2de-0x2df.7 (2)
0x2d0|                                          20   |                |                    local.get: 0x20 (valid) 0x2de-0x2de.7 (1)
0x2d0|                                             02|               .|                    x: 2 0x2df-0x2df.7 (1)
     |                                               |                |                  [4]{}: in 0x2e0-0x2e2.7 (3)
0x2e0|fd                                             |.               |                    prefix: 0xfd (valid) 0x2e0-0x2e0.7 (1)
0x2e0|   b6 01                                       | ..             |                    i32x4.min_s: 182 (valid) 0x2e1-0x2e2.7 (2)
     |                                               |                |                  [5]{}: in 0x2e3-0x2e3.7 (1)
0x2e0|         0b                                    |   .            |                    end: 0xb (valid) 0x2e3-0x2e3.7 (1)
     |                                               |                |            [3]{}: code 0x2e4-0x2f2.7 (15)
0x2e0|            0e                                 |    .           |              size: 14 0x2e4-0x2e4.7 (1)
     |                                               |                |              code{}: 0x2e5-0x2f2.7 (14)
     |                                               |                |                t{}: 0x2e5-0x2e5.7 (1)
0x2e0|               00                              |     .          |                  n: 0 0x2e5-0x2e5.7 (1)
     |                                               |                |                  x[0:0]: 0x2e6-NA (0)
     |                                               |                |                e[0:6]: 0x2e6-0x2f2.7 (13)
     |                                               |                |                  [0]{}: in 0x2e6-0x2e7.7 (2)
0x2e0|                  20                           |                |                    local.get: 0x20 (valid) 0x2e6-0x2e6.7 (1)
0x2e0|                     00                        |       .        |                    x: 0 0x2e7-0x2e7.7 (1)
     |                                               |                |                  [1]{}: in 0x2e8-0x2e9.7 (2)
0x2e0|                        20                     |                |                    local.get: 0x20 (valid) 0x2e8-0x2e8.7 (1)
0x2e0|                           01                  |         .      |                    x: 1 0x2e9-0x2e9.7 (1)
     |                                               |                |                  [2]{}: in 0x2ea-0x2ec.7 (3)
0x2e0|                              fd               |          .     |                    prefix: 0xfd (valid) 0x2ea-0x2ea.7 (1)
0x2e0|                                 b6 01         |           ..   |                    i32x4.min_s: 182 (valid) 0x2eb-0x2ec.7 (2)
     |                                               |                |                  [3]{}: in 0x2ed-0x2ee.7 (2)
0x2e0|                                       20      |                |                    local.get: 0x20 (valid) 0x2ed-0x2ed.7 (1)
0x2e0|                                          02   |              . |                    x: 2 0x2ee-0x2ee.7 (1)
     |                                               |                |                  [4]{}: in 0x2ef-0x2f1.7 (3)
0x2e0|                                             fd|               .|                    prefix: 0xfd (valid) 0x2ef-0x2ef.7 (1)
0x2f0|b6 01                                          |..              |                    i32x4.min_s: 182 (valid) 0x2f0-0x2f1.7 (2)
     |                                               |                |                  [5]{}: in 0x2f2-0x2f2.7 (1)
0x2f0|      0b                                       |  .             |                    end: 0xb (valid) 0x2f2-0x2f2.7 (1)
     |                                               |                |            [4]{}: code 0x2f3-0x2ff.7 (13)
0x2f0|         0c                                    |   .            |              size: 12 0x2f3-0x2f3.7 (1)
     |                                               |                |              code{}: 0x2f4-0x2ff.7 (12)
     |                                               |                |                t{}: 0x2f4-0x2f4.7 (1)
0x2f0|            00                                 |    .           |                  n: 0 0x2f4-0x2f4.7 (1)
     |                                               |                |                  x[0:0]: 0x2f5-NA (0)
     |                                               |                |                e[0:5]: 0x2f5-0x2ff.7 (11)
     |                                               |                |                  [0]{}: in 0x2f5-0x2f6.7 (2)
0x2f0|               20                              |                |                    local.get: 0x20 (valid) 0x2f5-0x2f5.7 (1)
0x2f0|                  00                           |      .         |                    x: 0 0x2f6-0x2f6.7 (1)
     |                                               |                |                  [1]{}: in 0x2f7-0x2f9.7 (3)
0x2f0|                     fd                        |       .        |                    prefix: 0xfd (valid) 0x2f7-0x2f7.7 (1)
0x2f0|                        a0 01                  |        ..      |                    i32x4.abs: 160 (valid) 0x2f8-0x2f9.7 (2)
     |                                               |                |                  [2]{}: in 0x2fa-0x2fb.7 (2)
0x2f0|                              20               |                |                    local.get: 0x20 (valid) 0x2fa-0x2fa.7 (1)
0x2f0|                                 01            |           .    |                    x: 1 0x2fb-0x2fb.7 (1)
     |                                               |                |                  [3]{}: in 0x2fc-0x2fe.7 (3)
0x2f0|                                    fd         |            .   |                    prefix: 0xfd (valid) 0x2fc-0x2fc.7 (1)
0x2f0|                                       b6 01   |             .. |                    i32x4.min_s: 182 (valid) 0x2fd-0x2fe.7 (2)
     |                                               |                |                  [4]{}: in 0x2ff-0x2ff.7 (1)
0x2f0|                                             0b|               .|                    end: 0xb (valid) 0x2ff-0x2ff.7 (1)
     |                                               |                |            [5]{}: code 0x300-0x30c.7 (13)
0x300|0c                                             |.               |              size: 12 0x300-0x300.7 (1)
     |                                               |                |              code{}: 0x301-0x30c.7 (12)
     |                                               |                |                t{}: 0x301-0x301.7 (1)
0x300|   00                                          | .              |                  n: 0 0x301-0x301.7 (1)
     |                                               |                |                  x[0:0]: 0x302-NA (0)
     |                                               |                |                e[0:5]: 0x302-0x30c.7 (11)
     |                                               |                |                  [0]{}: in 0x302-0x303.7 (2)
0x300|      20                                       |                |                    local.get: 0x20 (valid) 0x302-0x302.7 (1)
0x300|         00                                    |   .            |                    x: 0 0x303-0x303.7 (1)
     |                                               |                |                  [1]{}: in 0x304-0x305.7 (2)
0x300|            20                                 |                |                    local.get: 0x20 (valid) 0x304-0x304.7 (1)
0x300|               01                              |     .          |                    x: 1 0x305-0x305.7 (1)
     |                                               |                |                  [2]{}: in 0x306-0x308.7 (3)
0x300|                  fd                           |      .         |                    prefix: 0xfd (valid) 0x306-0x306.7 (1)
0x300|                     b6 01                     |       ..       |                    i32x4.min_s: 182 (valid) 0x307-0x308.7 (2)
     |                                               |                |                  [3]{}: in 0x309-0x30b.7 (3)
0x300|                           fd                  |         .      |                    prefix: 0xfd (valid) 0x309-0x309.7 (1)
0x300|                              a0 01            |          ..    |                    i32x4.abs: 160 (valid) 0x30a-0x30b.7 (2)
     |                                               |                |                  [4]{}: in 0x30c-0x30c.7 (1)
0x300|                                    0b         |            .   |                    end: 0xb (valid) 0x30c-0x30c.7 (1)
     |                                               |                |            [6]{}: code 0x30d-0x31b.7 (15)
0x300|                                       0e      |             .  |              size: 14 0x30d-0x30d.7 (1)
     |                                               |                |              code{}: 0x30e-0x31b.7 (14)
     |                                               |                |                t{}: 0x30e-0x30e.7 (1)
0x300|                                          00   |              . |                  n: 0 0x30e-0x30e.7 (1)
     |                                               |                |                  x[0:0]: 0x30f-NA (0)
     |                                               |                |                e[0:6]: 0x30f-0x31b.7 (13)
     |                                               |                |                  [0]{}: in 0x30f-0x310.7 (2)
0x300|                                             20|                |                    local.get: 0x20 (valid) 0x30f-0x30f.7 (1)
0x310|00                                             |.               |                    x: 0 0x310-0x310.7 (1)
     |                                               |                |                  [1]{}: in 0x311-0x312.7 (2)
0x310|   20                                          |                |                    local.get: 0x20 (valid) 0x311-0x311.7 (1)
0x310|      01                                       |  .             |                    x: 1 0x312-0x312.7 (1)
     |                                               |                |                  [2]{}: in 0x313-0x315.7 (3)
0x310|         fd                                    |   .            |                    prefix: 0xfd (valid) 0x313-0x313.7 (1)
0x310|            b9 01                              |    ..          |                    i32x4.max_u: 185 (valid) 0x314-0x315.7 (2)
     |                                               |                |                  [3]{}: in 0x316-0x317.7 (2)
0x310|                  20                           |                |                    local.get: 0x20 (valid) 0x316-0x316.7 (1)
0x310|                     02                        |       .        |                    x: 2 0x317-0x317.7 (1)
     |                                               |                |                  [4]{}: in 0x318-0x31a.7 (3)
0x310|                        fd                     |        .       |                    prefix: 0xfd (valid) 0x318-0x318.7 (1)
0x310|                           b7 01               |         ..     |                    i32x4.min_u: 183 (valid) 0x319-0x31a.7 (2)
     |                                               |                |                  [5]{}: in 0x31b-0x31b.7 (1)
0x310|                                 0b            |           .    |                    end: 0xb (valid) 0x31b-0x31b.7 (1)
     |                                               |                |            [7]{}: code 0x31c-0x32a.7 (15)
0x310|                                    0e         |            .   |              size: 14 0x31c-0x31c.7 (1)
     |                                               |                |              code{}: 0x31d-0x32a.7 (14)
     |                                               |                |                t{}: 0x31d-0x31d.7 (1)
0x310|                                       00      |             .  |                  n: 0 0x31d-0x31d.7 (1)
     |                                               |                |                  x[0:0]: 0x31e-NA (0)
     |                                               |                |                e[0:6]: 0x31e-0x32a.7 (13)
     |                                               |                |                  [0]{}: in 0x31e-0x31f.7 (2)
0x310|                                          20   |                |                    local.get: 0x20 (valid) 0x31e-0x31e.7 (1)
0x310|                                             00|               .|                    x: 0 0x31f-0x31f.7 (1)
     |                                               |                |                  [1]{}: in 0x320-0x321.7 (2)
0x320|20                                             |                |                    local.get: 0x20 (valid) 0x320-0x320.7 (1)
0x320|   01                                          | .              |                    x: 1 0x321-0x321.7 (1)
     |                                               |                |                  [2]{}: in 0x322-0x324.7 (3)
0x320|      fd                                       |  .             |                    prefix: 0xfd (valid) 0x322-0x322.7 (1)
0x320|         b8 01                                 |   ..           |                    i32x4.max_s: 184 (valid) 0x323-0x324.7 (2)
     |                                               |                |                  [3]{}: in 0x325-0x326.7 (2)
0x320|               20                              |                |                    local.get: 0x20 (valid) 0x325-0x325.7 (1)
0x320|                  02                           |      .         |                    x: 2 0x326-0x326.7 (1)
     |                                               |                |                  [4]{}: in 0x327-0x329.7 (3)
0x320|                     fd                        |       .        |                    prefix: 0xfd (valid) 0x327-0x327.7 (1)
0x320|                        b7 01                  |        ..      |                    i32x4.min_u: 183 (valid) 0x328-0x329.7 (2)
     |                                               |                |                  [5]{}: in 0x32a-0x32a.7 (1)
0x320|                              0b               |          .     |                    end: 0xb (valid) 0x32a-0x32a.7 (1)
     |                                               |                |            [8]{}: code 0x32b-0x339.7 (15)
0x320|                                 0e            |           .    |              size: 14 0x32b-0x32b.7 (1)
     |                                               |                |              code{}: 0x32c-0x339.7 (14)
     |                                               |                |                t{}: 0x32c-0x32c.7 (1)
0x320|                                    00         |            .   |                  n: 0 0x32c-0x32c.7 (1)
     |                                               |                |                  x[0:0]: 0x32d-NA (0)
     |                                               |                |                e[0:6]: 0x32d-0x339.7 (13)
     |                                               |                |                  [0]{}: in 0x32d-0x32e.7 (2)
0x320|                                       20      |                |                    local.get: 0x20 (valid) 0x32d-0x32d.7 (1)
0x320|                                          00   |              . |                    x: 0 0x32e-0x32e.7 (1)
     |                                               |                |                  [1]{}: in 0x32f-0x330.7 (2)
0x320|                                             20|                |                    local.get: 0x20 (valid) 0x32f-0x32f.7 (1)
0x330|01                                             |.               |                    x: 1 0x330-0x330.7 (1)
     |                                               |                |                  [2]{}: in 0x331-0x333.7 (3)
0x330|   fd                                          | .              |                    prefix: 0xfd (valid) 0x331-0x331.7 (1)
0x330|      b7 01                                    |  ..            |                    i32x4.min_u: 183 (valid) 0x332-0x333.7 (2)
     |                                               |                |                  [3]{}: in 0x334-0x335.7 (2)
0x330|            20                                 |                |                    local.get: 0x20 (valid) 0x334-0x334.7 (1)
0x330|               02                              |     .          |                    x: 2 0x335-0x335.7 (1)
     |                                               |                |                  [4]{}: in 0x336-0x338.7 (3)
0x330|                  fd                           |      .         |                    prefix: 0xfd (valid) 0x336-0x336.7 (1)
0x330|                     b7 01                     |       ..       |                    i32x4.min_u: 183 (valid) 0x337-0x338.7 (2)
     |                                               |                |                  [5]{}: in 0x339-0x339.7 (1)
0x330|                           0b                  |         .      |                    end: 0xb (valid) 0x339-0x339.7 (1)
     |                                               |                |            [9]{}: code 0x33a-0x348.7 (15)
0x330|                              0e               |          .     |              size: 14 0x33a-0x33a.7 (1)
     |                                               |                |              code{}: 0x33b-0x348.7 (14)
     |                                               |                |                t{}: 0x33b-0x33b.7 (1)
0x330|                                 00            |           .    |                  n: 0 0x33b-0x33b.7 (1)
     |                                               |                |                  x[0:0]: 0x33c-NA (0)
     |                                               |                |                e[0:6]: 0x33c-0x348.7 (13)
     |                                               |                |                  [0]{}: in 0x33c-0x33d.7 (2)
0x330|                                    20         |                |                    local.get: 0x20 (valid) 0x33c-0x33c.7 (1)
0x330|                                       00      |             .  |                    x: 0 0x33d-0x33d.7 (1)
     |                                               |                |                  [1]{}: in 0x33e-0x33f.7 (2)
0x330|                                          20   |                |                    local.get: 0x20 (valid) 0x33e-0x33e.7 (1)
0x330|                                             01|               .|                    x: 1 0x33f-0x33f.7 (1)
     |                                               |                |                  [2]{}: in 0x340-0x342.7 (3)
0x340|fd                                             |.               |                    prefix: 0xfd (valid) 0x340-0x340.7 (1)
0x340|   b6 01                                       | ..             |                    i32x4.min_s: 182 (valid) 0x341-0x342.7 (2)
     |                                               |                |                  [3]{}: in 0x343-0x344.7 (2)
0x340|         20                                    |                |                    local.get: 0x20 (valid) 0x343-0x343.7 (1)
0x340|            02                                 |    .           |                    x: 2 0x344-0x344.7 (1)
     |                                               |                |                  [4]{}: in 0x345-0x347.7 (3)
0x340|               fd                              |     .          |                    prefix: 0xfd (valid) 0x345-0x345.7 (1)
0x340|                  b7 01                        |      ..        |                    i32x4.min_u: 183 (valid) 0x346-0x347.7 (2)
     |                                               |                |                  [5]{}: in 0x348-0x348.7 (1)
0x340|                        0b                     |        .       |                    end: 0xb (valid) 0x348-0x348.7 (1)
     |                                               |                |            [10]{}: code 0x349-0x355.7 (13)
0x340|                           0c                  |         .      |              size: 12 0x349-0x349.7 (1)
     |                                               |                |              code{}: 0x34a-0x355.7 (12)
     |                                               |                |                t{}: 0x34a-0x34a.7 (1)
0x340|                              00               |          .     |                  n: 0 0x34a-0x34a.7 (1)
     |                                               |                |                  x[0:0]: 0x34b-NA (0)
     |                                               |                |                e[0:5]: 0x34b-0x355.7 (11)
     |                                               |                |                  [0]{}: in 0x34b-0x34c.7 (2)
0x340|                                 20            |                |                    local.get: 0x20 (valid) 0x34b-0x34b.7 (1)
0x340|                                    00         |            .   |                    x: 0 0x34c-0x34c.7 (1)
     |                                               |                |                  [1]{}: in 0x34d-0x34f.7 (3)
0x340|                                       fd      |             .  |                    prefix: 0xfd (valid) 0x34d-0x34d.7 (1)
0x340|                                          a0 01|              ..|                    i32x4.abs: 160 (valid) 0x34e-0x34f.7 (2)
     |                                               |                |                  [2]{}: in 0x350-0x351.7 (2)
0x350|20                                             |                |                    local.get: 0x20 (valid) 0x350-0x350.7 (1)
0x350|   01                                          | .              |                    x: 1 0x351-0x351.7 (1)
     |                                               |                |                  [3]{}: in 0x352-0x354.7 (3)
0x350|      fd                                       |  .             |                    prefix: 0xfd (valid) 0x352-0x352.7 (1)
0x350|         b7 01                                 |   ..           |                    i32x4.min_u: 183 (valid) 0x353-0x354.7 (2)
     |                                               |                |                  [4]{}: in 0x355-0x355.7 (1)
0x350|               0b                              |     .          |                    end: 0xb (valid) 0x355-0x355.7 (1)
     |                                               |                |            [11]{}: code 0x356-0x362.7 (13)
0x350|                  0c                           |      .         |              size: 12 0x356-0x356.7 (1)
     |                                               |                |              code{}: 0x357-0x362.7 (12)
     |                                               |                |                t{}: 0x357-0x357.7 (1)
0x350|                     00                        |       .        |                  n: 0 0x357-0x357.7 (1)
     |                                               |                |                  x[0:0]: 0x358-NA (0)
     |                                               |                |                e[0:5]: 0x358-0x362.7 (11)
     |                                               |                |                  [0]{}: in 0x358-0x359.7 (2)
0x350|                        20                     |                |                    local.get: 0x20 (valid) 0x358-0x358.7 (1)
0x350|                           00                  |         .      |                    x: 0 0x359-0x359.7 (1)
     |                                               |                |                  [1]{}: in 0x35a-0x35b.7 (2)
0x350|                              20               |                |                    local.get: 0x20 (valid) 0x35a-0x35a.7 (1)
0x350|                                 01            |           .    |                    x: 1 0x35b-0x35b.7 (1)
     |                                               |                |                  [2]{}: in 0x35c-0x35e.7 (3)
0x350|                                    fd         |            .   |                    prefix: 0xfd (valid) 0x35c-0x35c.7 (1)
0x350|                                       b7 01   |             .. |                    i32x4.min_u: 183 (valid) 0x35d-0x35e.7 (2)
     |                                               |                |                  [3]{}: in 0x35f-0x361.7 (3)
0x350|                                             fd|               .|                    prefix: 0xfd (valid) 0x35f-0x35f.7 (1)
0x360|a0 01                                          |..              |                    i32x4.abs: 160 (valid) 0x360-0x361.7 (2)
     |                                               |                |                  [4]{}: in 0x362-0x362.7 (1)
0x360|      0b                                       |  .             |                    end: 0xb (valid) 0x362-0x362.7 (1)
     |                                               |                |            [12]{}: code 0x363-0x371.7 (15)
0x360|         0e                                    |   .            |              size: 14 0x363-0x363.7 (1)
     |                                               |                |              code{}: 0x364-0x371.7 (14)
     |                                               |                |                t{}: 0x364-0x364.7 (1)
0x360|            00                                 |    .           |                  n: 0 0x364-0x364.7 (1)
     |                                               |                |                  x[0:0]: 0x365-NA (0)
     |                                               |                |                e[0:6]: 0x365-0x371.7 (13)
     |                                               |                |                  [0]{}: in 0x365-0x366.7 (2)
0x360|               20                              |                |                    local.get: 0x20 (valid) 0x365-0x365.7 (1)
0x360|                  00                           |      .         |                    x: 0 0x366-0x366.7 (1)
     |                                               |                |                  [1]{}: in 0x367-0x368.7 (2)
0x360|                     20                        |                |                    local.get: 0x20 (valid) 0x367-0x367.7 (1)
0x360|                        01                     |        .       |                    x: 1 0x368-0x368.7 (1)
     |                                               |                |                  [2]{}: in 0x369-0x36b.7 (3)
0x360|                           fd                  |         .      |                    prefix: 0xfd (valid) 0x369-0x369.7 (1)
0x360|                              b9 01            |          ..    |                    i32x4.max_u: 185 (valid) 0x36a-0x36b.7 (2)
     |                                               |                |                  [3]{}: in 0x36c-0x36d.7 (2)
0x360|                                    20         |                |                    local.get: 0x20 (valid) 0x36c-0x36c.7 (1)
0x360|                                       02      |             .  |                    x: 2 0x36d-0x36d.7 (1)
     |                                               |                |                  [4]{}: in 0x36e-0x370.7 (3)
0x360|                                          fd   |              . |                    prefix: 0xfd (valid) 0x36e-0x36e.7 (1)
0x360|                                             b8|               .|                    i32x4.max_s: 184 (valid) 0x36f-0x370.7 (2)
0x370|01                                             |.               |
     |                                               |                |                  [5]{}: in 0x371-0x371.7 (1)
0x370|   0b                                          | .              |                    end: 0xb (valid) 0x371-0x371.7 (1)
     |                                               |                |            [13]{}: code 0x372-0x380.7 (15)
0x370|      0e                                       |  .             |              size: 14 0x372-0x372.7 (1)
     |                                               |                |              code{}: 0x373-0x380.7 (14)
     |                                               |                |                t{}: 0x373-0x373.7 (1)
0x370|         00                                    |   .            |                  n: 0 0x373-0x373.7 (1)
     |                                               |                |                  x[0:0]: 0x374-NA (0)
     |                                               |                |                e[0:6]: 0x374-0x380.7 (13)
     |                                               |                |                  [0]{}: in 0x374-0x375.7 (2)
0x370|            20                                 |                |                    local.get: 0x20 (valid) 0x374-0x374.7 (1)
0x370|               00                              |     .          |                    x: 0 0x375-0x375.7 (1)
     |                                               |                |                  [1]{}: in 0x376-0x377.7 (2)
0x370|                  20                           |                |                    local.get: 0x20 (valid) 0x376-0x376.7 (1)
0x370|                     01                        |       .        |                    x: 1 0x377-0x377.7 (1)
     |                                               |                |                  [2]{}: in 0x378-0x37a.7 (3)
0x370|                        fd                     |        .       |                    prefix: 0xfd (valid) 0x378-0x378.7 (1)
0x370|                           b8 01               |         ..     |                    i32x4.max_s: 184 (valid) 0x379-0x37a.7 (2)
     |                                               |                |                  [3]{}: in 0x37b-0x37c.7 (2)
0x370|                                 20            |                |                    local.get: 0x20 (valid) 0x37b-0x37b.7 (1)
0x370|                                    02         |            .   |                    x: 2 0x37c-0x37c.7 (1)
     |                                               |                |                  [4]{}: in 0x37d-0x37f.7 (3)
0x370|                                       fd      |             .  |                    prefix: 0xfd (valid) 0x37d-0x37d.7 (1)
0x370|                                          b8 01|              ..|                    i32x4.max_s: 184 (valid) 0x37e-0x37f.7 (2)
     |                                               |                |                  [5]{}: in 0x380-0x380.7 (1)
0x380|0b                                             |.               |                    end: 0xb (valid) 0x380-0x380.7 (1)
     |                                               |                |            [14]{}: code 0x381-0x38f.7 (15)
0x380|   0e                                          | .              |              size: 14 0x381-0x381.7 (1)
     |                                               |                |              code{}: 0x382-0x38f.7 (14)
     |                                               |                |                t{}: 0x382-0x382.7 (1)
0x380|      00                                       |  .             |                  n: 0 0x382-0x382.7 (1)
     |                                               |                |                  x[0:0]: 0x383-NA (0)
     |                                               |                |                e[0:6]: 0x383-0x38f.7 (13)
     |                                               |                |                  [0]{}: in 0x383-0x384.7 (2)
0x380|         20                                    |                |                    local.get: 0x20 (valid) 0x383-0x383.7 (1)
0x380|            00                                 |    .           |                    x: 0 0x384-0x384.7 (1)
     |                                               |                |                  [1]{}: in 0x385-0x386.7 (2)
0x380|               20                              |                |                    local.get: 0x20 (valid) 0x385-0x385.7 (1)
0x380|                  01                           |      .         |                    x: 1 0x386-0x386.7 (1)
     |                                               |                |                  [2]{}: in 0x387-0x389.7 (3)
0x380|                     fd                        |       .        |                    prefix: 0xfd (valid) 0x387-0x387.7 (1)
0x380|                        b7 01                  |        ..      |                    i32x4.min_u: 183 (valid) 0x388-0x389.7 (2)
     |                                               |                |                  [3]{}: in 0x38a-0x38b.7 (2)
0x380|                              20               |                |                    local.get: 0x20 (valid) 0x38a-0x38a.7 (1)
0x380|                                 02            |           .    |                    x: 2 0x38b-0x38b.7 (1)
     |                                               |                |                  [4]{}: in 0x38c-0x38e.7 (3)
0x380|                                    fd         |            .   |                    prefix: 0xfd (valid) 0x38c-0x38c.7 (1)
0x380|                                       b8 01   |             .. |                    i32x4.max_s: 184 (valid) 0x38d-0x38e.7 (2)
     |                                               |                |                  [5]{}: in 0x38f-0x38f.7 (1)
0x380|                                             0b|               .|                    end: 0xb (valid) 0x38f-0x38f.7 (1)
     |                                               |                |            [15]{}: code 0x390-0x39e.7 (15)
0x390|0e                                             |.               |              size: 14 0x390-0x390.7 (1)
     |                                               |                |              code{}: 0x391-0x39e.7 (14)
     |                                               |                |                t{}: 0x391-0x391.7 (1)
0x390|   00                                          | .              |                  n: 0 0x391-0x391.7 (1)
     |                                               |                |                  x[0:0]: 0x392-NA (0)
     |                                               |                |                e[0:6]: 0x392-0x39e.7 (13)
     |                                               |                |                  [0]{}: in 0x392-0x393.7 (2)
0x390|      20                                       |                |                    local.get: 0x20 (valid) 0x392-0x392.7 (1)
0x390|         00                                    |   .            |                    x: 0 0x393-0x393.7 (1)
     |                                               |                |                  [1]{}: in 0x394-0x395.7 (2)
0x390|            20                                 |                |                    local.get: 0x20 (valid) 0x394-0x394.7 (1)
0x390|               01                              |     .          |                    x: 1 0x395-0x395.7 (1)
     |                                               |                |                  [2]{}: in 0x396-0x398.7 (3)
0x390|                  fd                           |      .         |                    prefix: 0xfd (valid) 0x396-0x396.7 (1)
0x390|                     b6 01                     |       ..       |                    i32x4.min_s: 182 (valid) 0x397-0x398.7 (2)
     |                                               |                |                  [3]{}: in 0x399-0x39a.7 (2)
0x390|                           20                  |                |                    local.get: 0x20 (valid) 0x399-0x399.7 (1)
0x390|                              02               |          .     |                    x: 2 0x39a-0x39a.7 (1)
     |                                               |                |                  [4]{}: in 0x39b-0x39d.7 (3)
0x390|                                 fd            |           .    |                    prefix: 0xfd (valid) 0x39b-0x39b.7 (1)
0x390|                                    b8 01      |            ..  |                    i32x4.max_s: 184 (valid) 0x39c-0x39d.7 (2)
     |                                               |                |                  [5]{}: in 0x39e-0x39e.7 (1)
0x390|                                          0b   |              . |                    end: 0xb (valid) 0x39e-0x39e.7 (1)
     |                                               |                |            [16]{}: code 0x39f-0x3ab.7 (13)
0x390|                                             0c|               .|              size: 12 0x39f-0x39f.7 (1)
     |                                               |                |              code{}: 0x3a0-0x3ab.7 (12)
     |                                               |                |                t{}: 0x3a0-0x3a0.7 (1)
0x3a0|00                                             |.               |                  n: 0 0x3a0-0x3a0.7 (1)
     |                                               |                |                  x[0:0]: 0x3a1-NA (0)
     |                                               |                |                e[0:5]: 0x3a1-0x3ab.7 (11)
     |                                               |                |                  [0]{}: in 0x3a1-0x3a2.7 (2)
0x3a0|   20                                          |                |                    local.get: 0x20 (valid) 0x3a1-0x3a1.7 (1)
0x3a0|      00                                       |  .             |                    x: 0 0x3a2-0x3a2.7 (1)
     |                                               |                |                  [1]{}: in 0x3a3-0x3a5.7 (3)
0x3a0|         fd                                    |   .            |                    prefix: 0xfd (valid) 0x3a3-0x3a3.7 (1)
0x3a0|            a0 01                              |    ..          |                    i32x4.abs: 160 (valid) 0x3a4-0x3a5.7 (2)
     |                                               |                |                  [2]{}: in 0x3a6-0x3a7.7 (2)
0x3a0|                  20                           |                |                    local.get: 0x20 (valid) 0x3a6-0x3a6.7 (1)
0x3a0|                     01                        |       .        |                    x: 1 0x3a7-0x3a7.7 (1)
     |                                               |                |                  [3]{}: in 0x3a8-0x3aa.7 (3)
0x3a0|                        fd                     |        .       |                    prefix: 0xfd (valid) 0x3a8-0x3a8.7 (1)
0x3a0|                           b8 01               |         ..     |                    i32x4.max_s: 184 (valid) 0x3a9-0x3aa.7 (2)
     |                                               |                |                  [4]{}: in 0x3ab-0x3ab.7 (1)
0x3a0|                                 0b            |           .    |                    end: 0xb (valid) 0x3ab-0x3ab.7 (1)
     |                                               |                |            [17]{}: code 0x3ac-0x3b8.7 (13)
0x3a0|                                    0c         |            .   |              size: 12 0x3ac-0x3ac.7 (1)
     |                                               |                |              code{}: 0x3ad-0x3b8.7 (12)
     |                                               |                |                t{}: 0x3ad-0x3ad.7 (1)
0x3a0|                                       00      |             .  |                  n: 0 0x3ad-0x3ad.7 (1)
     |                                               |                |                  x[0:0]: 0x3ae-NA (0)
     |                                               |                |                e[0:5]: 0x3ae-0x3b8.7 (11)
     |                                               |                |                  [0]{}: in 0x3ae-0x3af.7 (2)
0x3a0|                                          20   |                |                    local.get: 0x20 (valid) 0x3ae-0x3ae.7 (1)
0x3a0|                                             00|               .|                    x: 0 0x3af-0x3af.7 (1)
     |                                               |                |                  [1]{}: in 0x3b0-0x3b1.7 (2)
0x3b0|20                                             |                |                    local.get: 0x20 (valid) 0x3b0-0x3b0.7 (1)
0x3b0|   01                                          | .              |                    x: 1 0x3b1-0x3b1.7 (1)
     |                                               |                |                  [2]{}: in 0x3b2-0x3b4.7 (3)
0x3b0|      fd                                       |  .             |                    prefix: 0xfd (valid) 0x3b2-0x3b2.7 (1)
0x3b0|         b8 01                                 |   ..           |                    i32x4.max_s: 184 (valid) 0x3b3-0x3b4.7 (2)
     |                                               |                |                  [3]{}: in 0x3b5-0x3b7.7 (3)
0x3b0|               fd                              |     .          |                    prefix: 0xfd (valid) 0x3b5-0x3b5.7 (1)
0x3b0|                  a0 01                        |      ..        |                    i32x4.abs: 160 (valid) 0x3b6-0x3b7.7 (2)
     |                                               |                |                  [4]{}: in 0x3b8-0x3b8.7 (1)
0x3b0|                        0b                     |        .       |                    end: 0xb (valid) 0x3b8-0x3b8.7 (1)
     |                                               |                |            [18]{}: code 0x3b9-0x3c7.7 (15)
0x3b0|                           0e                  |         .      |              size: 14 0x3b9-0x3b9.7 (1)
     |                                               |                |              code{}: 0x3ba-0x3c7.7 (14)
     |                                               |                |                t{}: 0x3ba-0x3ba.7 (1)
0x3b0|                              00               |          .     |                  n: 0 0x3ba-0x3ba.7 (1)
     |                                               |                |                  x[0:0]: 0x3bb-NA (0)
     |                                               |                |                e[0:6]: 0x3bb-0x3c7.7 (13)
     |                                               |                |                  [0]{}: in 0x3bb-0x3bc.7 (2)
0x3b0|                                 20            |                |                    local.get: 0x20 (valid) 0x3bb-0x3bb.7 (1)
0x3b0|                                    00         |            .   |                    x: 0 0x3bc-0x3bc.7 (1)
     |                                               |                |                  [1]{}: in 0x3bd-0x3be.7 (2)
0x3b0|                                       20      |                |                    local.get: 0x20 (valid) 0x3bd-0x3bd.7 (1)
0x3b0|                                          01   |              . |                    x: 1 0x3be-0x3be.7 (1)
     |                                               |                |                  [2]{}: in 0x3bf-0x3c1.7 (3)
0x3b0|                                             fd|               .|                    prefix: 0xfd (valid) 0x3bf-0x3bf.7 (1)
0x3c0|b9 01                                          |..              |                    i32x4.max_u: 185 (valid) 0x3c0-0x3c1.7 (2)
     |                                               |                |                  [3]{}: in 0x3c2-0x3c3.7 (2)
0x3c0|      20                                       |                |                    local.get: 0x20 (valid) 0x3c2-0x3c2.7 (1)
0x3c0|         02                                    |   .            |                    x: 2 0x3c3-0x3c3.7 (1)
     |                                               |                |                  [4]{}: in 0x3c4-0x3c6.7 (3)
0x3c0|            fd                                 |    .           |                    prefix: 0xfd (valid) 0x3c4-0x3c4.7 (1)
0x3c0|               b9 01                           |     ..         |                    i32x4.max_u: 185 (valid) 0x3c5-0x3c6.7 (2)
     |                                               |                |                  [5]{}: in 0x3c7-0x3c7.7 (1)
0x3c0|                     0b                        |       .        |                    end: 0xb (valid) 0x3c7-0x3c7.7 (1)
     |                                               |                |            [19]{}: code 0x3c8-0x3d6.7 (15)
0x3c0|                        0e                     |        .       |              size: 14 0x3c8-0x3c8.7 (1)
     |                                               |                |              code{}: 0x3c9-0x3d6.7 (14)
     |                                               |                |                t{}: 0x3c9-0x3c9.7 (1)
0x3c0|                           00                  |         .      |                  n: 0 0x3c9-0x3c9.7 (1)
     |                                               |                |                  x[0:0]: 0x3ca-NA (0)
     |                                               |                |                e[0:6]: 0x3ca-0x3d6.7 (13)
     |                                               |                |                  [0]{}: in 0x3ca-0x3cb.7 (2)
0x3c0|                              20               |                |                    local.get: 0x20 (valid) 0x3ca-0x3ca.7 (1)
0x3c0|                                 00            |           .    |                    x: 0 0x3cb-0x3cb.7 (1)
     |                                               |                |                  [1]{}: in 0x3cc-0x3cd.7 (2)
0x3c0|                                    20         |                |                    local.get: 0x20 (valid) 0x3cc-0x3cc.7 (1)
0x3c0|                                       01      |             .  |                    x: 1 0x3cd-0x3cd.7 (1)
     |                                               |                |                  [2]{}: in 0x3ce-0x3d0.7 (3)
0x3c0|                                          fd   |              . |                    prefix: 0xfd (valid) 0x3ce-0x3ce.7 (1)
0x3c0|                                             b8|               .|                    i32x4.max_s: 184 (valid) 0x3cf-0x3d0.7 (2)
0x3d0|01                                             |.               |
     |                                               |                |                  [3]{}: in 0x3d1-0x3d2.7 (2)
0x3d0|   20                                          |                |                    local.get: 0x20 (valid) 0x3d1-0x3d1.7 (1)
0x3d0|      02                                       |  .             |                    x: 2 0x3d2-0x3d2.7 (1)
     |                                               |                |                  [4]{}: in 0x3d3-0x3d5.7 (3)
0x3d0|         fd                                    |   .            |                    prefix: 0xfd (valid) 0x3d3-0x3d3.7 (1)
0x3d0|            b9 01                              |    ..          |                    i32x4.max_u: 185 (valid) 0x3d4-0x3d5.7 (2)
     |                                               |                |                  [5]{}: in 0x3d6-0x3d6.7 (1)
0x3d0|                  0b                           |      .         |                    end: 0xb (valid) 0x3d6-0x3d6.7 (1)
     |                                               |                |            [20]{}: code 0x3d7-0x3e5.7 (15)
0x3d0|                     0e                        |       .        |              size: 14 0x3d7-0x3d7.7 (1)
     |                                               |                |              code{}: 0x3d8-0x3e5.7 (14)
     |                                               |                |                t{}: 0x3d8-0x3d8.7 (1)
0x3d0|                        00                     |        .       |                  n: 0 0x3d8-0x3d8.7 (1)
     |                                               |                |                  x[0:0]: 0x3d9-NA (0)
     |                                               |                |                e[0:6]: 0x3d9-0x3e5.7 (13)
     |                                               |                |                  [0]{}: in 0x3d9-0x3da.7 (2)
0x3d0|                           20                  |                |                    local.get: 0x20 (valid) 0x3d9-0x3d9.7 (1)
0x3d0|                              00               |          .     |                    x: 0 0x3da-0x3da.7 (1)
     |                                               |                |                  [1]{}: in 0x3db-0x3dc.7 (2)
0x3d0|                                 20            |                |                    local.get: 0x20 (valid) 0x3db-0x3db.7 (1)
0x3d0|                                    01         |            .   |                    x: 1 0x3dc-0x3dc.7 (1)
     |                                               |                |                  [2]{}: in 0x3dd-0x3df.7 (3)
0x3d0|                                       fd      |             .  |                    prefix: 0xfd (valid) 0x3dd-0x3dd.7 (1)
0x3d0|                                          b7 01|              ..|                    i32x4.min_u: 183 (valid) 0x3de-0x3df.7 (2)
     |                                               |                |                  [3]{}: in 0x3e0-0x3e1.7 (2)
0x3e0|20                                             |                |                    local.get: 0x20 (valid) 0x3e0-0x3e0.7 (1)
0x3e0|   02                                          | .              |                    x: 2 0x3e1-0x3e1.7 (1)
     |                                               |                |                  [4]{}: in 0x3e2-0x3e4.7 (3)
0x3e0|      fd                                       |  .             |                    prefix: 0xfd (valid) 0x3e2-0x3e2.7 (1)
0x3e0|         b9 01                                 |   ..           |                    i32x4.max_u: 185 (valid) 0x3e3-0x3e4.7 (2)
     |                                               |                |                  [5]{}: in 0x3e5-0x3e5.7 (1)
0x3e0|               0b                              |     .          |                    end: 0xb (valid) 0x3e5-0x3e5.7 (1)
     |                                               |                |            [21]{}: code 0x3e6-0x3f4.7 (15)
0x3e0|                  0e                           |      .         |              size: 14 0x3e6-0x3e6.7 (1)
     |                                               |                |              code{}: 0x3e7-0x3f4.7 (14)
     |                                               |                |                t{}: 0x3e7-0x3e7.7 (1)
0x3e0|                     00                        |       .        |                  n: 0 0x3e7-0x3e7.7 (1)
     |                                               |                |                  x[0:0]: 0x3e8-NA (0)
     |                                               |                |                e[0:6]: 0x3e8-0x3f4.7 (13)
     |                                               |                |                  [0]{}: in 0x3e8-0x3e9.7 (2)
0x3e0|                        20                     |                |                    local.get: 0x20 (valid) 0x3e8-0x3e8.7 (1)
0x3e0|                           00                  |         .      |                    x: 0 0x3e9-0x3e9.7 (1)
     |                                               |                |                  [1]{}: in 0x3ea-0x3eb.7 (2)
0x3e0|                              20               |                |                    local.get: 0x20 (valid) 0x3ea-0x3ea.7 (1)
0x3e0|                                 01            |           .    |                    x: 1 0x3eb-0x3eb.7 (1)
     |                                               |                |                  [2]{}: in 0x3ec-0x3ee.7 (3)
0x3e0|                                    fd         |            .   |                    prefix: 0xfd (valid) 0x3ec-0x3ec.7 (1)
0x3e0|                                       b6 01   |             .. |                    i32x4.min_s: 182 (valid) 0x3ed-0x3ee.7 (2)
     |                                               |                |                  [3]{}: in 0x3ef-0x3f0.7 (2)
0x3e0|                                             20|                |                    local.get: 0x20 (valid) 0x3ef-0x3ef.7 (1)
0x3f0|02                                             |.               |                    x: 2 0x3f0-0x3f0.7 (1)
     |                                               |                |                  [4]{}: in 0x3f1-0x3f3.7 (3)
0x3f0|   fd                                          | .              |                    prefix: 0xfd (valid) 0x3f1-0x3f1.7 (1)
0x3f0|      b9 01                                    |  ..            |                    i32x4.max_u: 185 (valid) 0x3f2-0x3f3.7 (2)
     |                                               |                |                  [5]{}: in 0x3f4-0x3f4.7 (1)
0x3f0|            0b                                 |    .           |                    end: 0xb (valid) 0x3f4-0x3f4.7 (1)
     |                                               |                |            [22]{}: code 0x3f5-0x401.7 (13)
0x3f0|               0c                              |     .          |              size: 12 0x3f5-0x3f5.7 (1)
     |                                               |                |              code{}: 0x3f6-0x401.7 (12)
     |                                               |                |                t{}: 0x3f6-0x3f6.7 (1)
0x3f0|                  00                           |      .         |                  n: 0 0x3f6-0x3f6.7 (1)
     |                                               |                |                  x[0:0]: 0x3f7-NA (0)
     |                                               |                |                e[0:5]: 0x3f7-0x401.7 (11)
     |                                               |                |                  [0]{}: in 0x3f7-0x3f8.7 (2)
0x3f0|                     20                        |                |                    local.get: 0x20 (valid) 0x3f7-0x3f7.7 (1)
0x3f0|                        00                     |        .       |                    x: 0 0x3f8-0x3f8.7 (1)
     |                                               |                |                  [1]{}: in 0x3f9-0x3fb.7 (3)
0x3f0|                           fd                  |         .      |                    prefix: 0xfd (valid) 0x3f9-0x3f9.7 (1)
0x3f0|                              a0 01            |          ..    |                    i32x4.abs: 160 (valid) 0x3fa-0x3fb.7 (2)
     |                                               |                |                  [2]{}: in 0x3fc-0x3fd.7 (2)
0x3f0|                                    20         |                |                    local.get: 0x20 (valid) 0x3fc-0x3fc.7 (1)
0x3f0|                                       01      |             .  |                    x: 1 0x3fd-0x3fd.7 (1)
     |                                               |                |                  [3]{}: in 0x3fe-0x400.7 (3)
0x3f0|                                          fd   |              . |                    prefix: 0xfd (valid) 0x3fe-0x3fe.7 (1)
0x3f0|                                             b9|               .|                    i32x4.max_u: 185 (valid) 0x3ff-0x400.7 (2)
0x400|01                                             |.               |
     |                                               |                |                  [4]{}: in 0x401-0x401.7 (1)
0x400|   0b                                          | .              |                    end: 0xb (valid) 0x401-0x401.7 (1)
     |                                               |                |            [23]{}: code 0x402-0x40e.7 (13)
0x400|      0c                                       |  .             |              size: 12 0x402-0x402.7 (1)
     |                                               |                |              code{}: 0x403-0x40e.7 (12)
     |                                               |                |                t{}: 0x403-0x403.7 (1)
0x400|         00                                    |   .            |                  n: 0 0x403-0x403.7 (1)
     |                                               |                |                  x[0:0]: 0x404-NA (0)
     |                                               |                |                e[0:5]: 0x404-0x40e.7 (11)
     |                                               |                |                  [0]{}: in 0x404-0x405.7 (2)
0x400|            20                                 |                |                    local.get: 0x20 (valid) 0x404-0x404.7 (1)
0x400|               00                              |     .          |                    x: 0 0x405-0x405.7 (1)
     |                                               |                |                  [1]{}: in 0x406-0x407.7 (2)
0x400|                  20                           |                |                    local.get: 0x20 (valid) 0x406-0x406.7 (1)
0x400|                     01                        |       .        |                    x: 1 0x407-0x407.7 (1)
     |                                               |                |                  [2]{}: in 0x408-0x40a.7 (3)
0x400|                        fd                     |        .       |                    prefix: 0xfd (valid) 0x408-0x408.7 (1)
0x400|                           b9 01               |         ..     |                    i32x4.max_u: 185 (valid) 0x409-0x40a.7 (2)
     |                                               |                |                  [3]{}: in 0x40b-0x40d.7 (3)
0x400|                                 fd            |           .    |                    prefix: 0xfd (valid) 0x40b-0x40b.7 (1)
0x400|                                    a0 01      |            ..  |                    i32x4.abs: 160 (valid) 0x40c-0x40d.7 (2)
     |                                               |                |                  [4]{}: in 0x40e-0x40e.7 (1)
0x400|                                          0b   |              . |                    end: 0xb (valid) 0x40e-0x40e.7 (1)
     |                                               |                |            [24]{}: code 0x40f-0x419.7 (11)
0x400|                                             0a|               .|              size: 10 0x40f-0x40f.7 (1)
     |                                               |                |              code{}: 0x410-0x419.7 (10)
     |                                               |                |                t{}: 0x410-0x410.7 (1)
0x410|00                                             |.               |                  n: 0 0x410-0x410.7 (1)
     |                                               |                |                  x[0:0]: 0x411-NA (0)
     |                                               |                |                e[0:4]: 0x411-0x419.7 (9)
     |                                               |                |                  [0]{}: in 0x411-0x412.7 (2)
0x410|   20                                          |                |                    local.get: 0x20 (valid) 0x411-0x411.7 (1)
0x410|      00                                       |  .             |                    x: 0 0x412-0x412.7 (1)
     |                                               |                |                  [1]{}: in 0x413-0x415.7 (3)
0x410|         fd                                    |   .            |                    prefix: 0xfd (valid) 0x413-0x413.7 (1)
0x410|            a0 01                              |    ..          |                    i32x4.abs: 160 (valid) 0x414-0x415.7 (2)
     |                                               |                |                  [2]{}: in 0x416-0x418.7 (3)
0x410|                  fd                           |      .         |                    prefix: 0xfd (valid) 0x416-0x416.7 (1)
0x410|                     a0 01                     |       ..       |                    i32x4.abs: 160 (valid) 0x417-0x418.7 (2)
     |                                               |                |                  [3]{}: in 0x419-0x419.7 (1)
0x410|                           0b|                 |         .|     |                    end: 0xb (valid) 0x419-0x419.7 (1)
