$ fq -d wasm dv simd_load32_lane-0.wasm
     |00 01 02 03 04 05 06 07 08 09 0a 0b 0c 0d 0e 0f|0123456789abcdef|.{}: simd_load32_lane-0.wasm (wasm) 0x0-0x369.7 (874)
0x000|00 61 73 6d                                    |.asm            |  magic: raw bits (valid) 0x0-0x3.7 (4)
0x000|            01 00 00 00                        |    ....        |  version: 1 0x4-0x7.7 (4)
     |                                               |                |  sections[0:6]: 0x8-0x369.7 (866)
     |                                               |                |    [0]{}: section 0x8-0x15.7 (14)
0x000|                        01                     |        .       |      id: "type section" (1) 0x8-0x8.7 (1)
0x000|                           0c                  |         .      |      size: 12 0x9-0x9.7 (1)
     |                                               |                |      content{}: 0xa-0x15.7 (12)
     |                                               |                |        ft{}: 0xa-0x15.7 (12)
0x000|                              02               |          .     |          n: 2 0xa-0xa.7 (1)
     |                                               |                |          x[0:2]: 0xb-0x15.7 (11)
     |                                               |                |            [0]{}: ft 0xb-0x10.7 (6)
0x000|                                 60            |           `    |              tag: 0x60 (valid) 0xb-0xb.7 (1)
     |                                               |                |              rt1{}: 0xc-0xe.7 (3)
0x000|                                    02         |            .   |                n: 2 0xc-0xc.7 (1)
     |                                               |                |                x[0:2]: 0xd-0xe.7 (2)
0x000|                                       7f      |             .  |                  [0]: "i32" (0x7f) t 0xd-0xd.7 (1)
0x000|                                          7b   |              { |                  [1]: "v128" (0x7b) t 0xe-0xe.7 (1)
     |                                               |                |              rt2{}: 0xf-0x10.7 (2)
0x000|                                             01|               .|                n: 1 0xf-0xf.7 (1)
     |                                               |                |                x[0:1]: 0x10-0x10.7 (1)
0x010|7b                                             |{               |                  [0]: "v128" (0x7b) t 0x10-0x10.7 (1)
     |                                               |                |            [1]{}: ft 0x11-0x15.7 (5)
0x010|   60                                          | `              |              tag: 0x60 (valid) 0x11-0x11.7 (1)
     |                                               |                |              rt1{}: 0x12-0x13.7 (2)
0x010|      01                                       |  .             |                n: 1 0x12-0x12.7 (1)
     |                                               |                |                x[0:1]: 0x13-0x13.7 (1)
0x010|         7b                                    |   {            |                  [0]: "v128" (0x7b) t 0x13-0x13.7 (1)
     |                                               |                |              rt2{}: 0x14-0x15.7 (2)
0x010|            01                                 |    .           |                n: 1 0x14-0x14.7 (1)
     |                                               |                |                x[0:1]: 0x15-0x15.7 (1)
0x010|               7b                              |     {          |                  [0]: "v128" (0x7b) t 0x15-0x15.7 (1)
     |                                               |                |    [1]{}: section 0x16-0x2c.7 (23)
0x010|                  03                           |      .         |      id: "function section" (3) 0x16-0x16.7 (1)
0x010|                     15                        |       .        |      size: 21 0x17-0x17.7 (1)
     |                                               |                |      content{}: 0x18-0x2c.7 (21)
     |                                               |                |        x{}: 0x18-0x2c.7 (21)
0x010|                        14                     |        .       |          n: 20 0x18-0x18.7 (1)
     |                                               |                |          x[0:20]: 0x19-0x2c.7 (20)
0x010|                           00                  |         .      |            [0]: 0 x 0x19-0x19.7 (1)
0x010|                              00               |          .     |            [1]: 0 x 0x1a-0x1a.7 (1)
0x010|                                 00            |           .    |            [2]: 0 x 0x1b-0x1b.7 (1)
0x010|                                    00         |            .   |            [3]: 0 x 0x1c-0x1c.7 (1)
0x010|                                       01      |             .  |            [4]: 1 x 0x1d-0x1d.7 (1)
0x010|                                          01   |              . |            [5]: 1 x 0x1e-0x1e.7 (1)
0x010|                                             01|               .|            [6]: 1 x 0x1f-0x1f.7 (1)
0x020|01                                             |.               |            [7]: 1 x 0x20-0x20.7 (1)
0x020|   00                                          | .              |            [8]: 0 x 0x21-0x21.7 (1)
0x020|      00                                       |  .             |            [9]: 0 x 0x22-0x22.7 (1)
0x020|         00                                    |   .            |            [10]: 0 x 0x23-0x23.7 (1)
0x020|            00                                 |    .           |            [11]: 0 x 0x24-0x24.7 (1)
0x020|               00                              |     .          |            [12]: 0 x 0x25-0x25.7 (1)
0x020|                  00                           |      .         |            [13]: 0 x 0x26-0x26.7 (1)
0x020|                     00                        |       .        |            [14]: 0 x 0x27-0x27.7 (1)
0x020|                        00                     |        .       |            [15]: 0 x 0x28-0x28.7 (1)
0x020|                           00                  |         .      |            [16]: 0 x 0x29-0x29.7 (1)
0x020|                              00               |          .     |            [17]: 0 x 0x2a-0x2a.7 (1)
0x020|                                 00            |           .    |            [18]: 0 x 0x2b-0x2b.7 (1)
0x020|                                    00         |            .   |            [19]: 0 x 0x2c-0x2c.7 (1)
     |                                               |                |    [2]{}: section 0x2d-0x31.7 (5)
0x020|                                       05      |             .  |      id: "memory section" (5) 0x2d-0x2d.7 (1)
0x020|                                          03   |              . |      size: 3 0x2e-0x2e.7 (1)
     |                                               |                |      content{}: 0x2f-0x31.7 (3)
     |                                               |                |        mem{}: 0x2f-0x31.7 (3)
0x020|                                             01|               .|          n: 1 0x2f-0x2f.7 (1)
     |                                               |                |          x[0:1]: 0x30-0x31.7 (2)
     |                                               |                |            [0]{}: mem 0x30-0x31.7 (2)
     |                                               |                |              lim{}: 0x30-0x31.7 (2)
0x030|00                                             |.               |                tag: 0x0 0x30-0x30.7 (1)
0x030|   01                                          | .              |                n: 1 0x31-0x31.7 (1)
     |                                               |                |    [3]{}: section 0x32-0x25d.7 (556)
0x030|      07                                       |  .             |      id: "export section" (7) 0x32-0x32.7 (1)
0x030|         a9 04                                 |   ..           |      size: 553 0x33-0x34.7 (2)
     |                                               |                |      content{}: 0x35-0x25d.7 (553)
     |                                               |                |        ex{}: 0x35-0x25d.7 (553)
0x030|               14                              |     .          |          n: 20 0x35-0x35.7 (1)
     |                                               |                |          x[0:20]: 0x36-0x25d.7 (552)
     |                                               |                |            [0]{}: ex 0x36-0x4a.7 (21)
     |                                               |                |              nm{}: 0x36-0x48.7 (19)
0x030|                  12                           |      .         |                n: 18 0x36-0x36.7 (1)
0x030|                     76 31 32 38 2e 6c 6f 61 64|       v128.load|                b: "v128.load32_lane_0" 0x37-0x48.7 (18)
0x040|33 32 5f 6c 61 6e 65 5f 30                     |32_lane_0       |
     |                                               |                |              d{}: 0x49-0x4a.7 (2)
0x040|                           00                  |         .      |                tag: "funcidx" (0x0) 0x49-0x49.7 (1)
0x040|                              00               |          .     |                x: 0 0x4a-0x4a.7 (1)
     |                                               |                |            [1]{}: ex 0x4b-0x5f.7 (21)
     |                                               |                |              nm{}: 0x4b-0x5d.7 (19)
0x040|                                 12            |           .    |                n: 18 0x4b-0x4b.7 (1)
0x040|                                    76 31 32 38|            v128|                b: "v128.load32_lane_1" 0x4c-0x5d.7 (18)
0x050|2e 6c 6f 61 64 33 32 5f 6c 61 6e 65 5f 31      |.load32_lane_1  |
     |                                               |                |              d{}: 0x5e-0x5f.7 (2)
0x050|                                          00   |              . |                tag: "funcidx" (0x0) 0x5e-0x5e.7 (1)
0x050|                                             01|               .|                x: 1 0x5f-0x5f.7 (1)
     |                                               |                |            [2]{}: ex 0x60-0x74.7 (21)
     |                                               |                |              nm{}: 0x60-0x72.7 (19)
0x060|12                                             |.               |                n: 18 0x60-0x60.7 (1)
0x060|   76 31 32 38 2e 6c 6f 61 64 33 32 5f 6c 61 6e| v128.load32_lan|                b: "v128.load32_lane_2" 0x61-0x72.7 (18)
0x070|65 5f 32                                       |e_2             |
     |                                               |                |              d{}: 0x73-0x74.7 (2)
0x070|         00                                    |   .            |                tag: "funcidx" (0x0) 0x73-0x73.7 (1)
0x070|            02                                 |    .           |                x: 2 0x74-0x74.7 (1)
     |                                               |                |            [3]{}: ex 0x75-0x89.7 (21)
     |                                               |                |              nm{}: 0x75-0x87.7 (19)
0x070|               12                              |     .          |                n: 18 0x75-0x75.7 (1)
0x070|                  76 31 32 38 2e 6c 6f 61 64 33|      v128.load3|                b: "v128.load32_lane_3" 0x76-0x87.7 (18)
0x080|32 5f 6c 61 6e 65 5f 33                        |2_lane_3        |
     |                                               |                |              d{}: 0x88-0x89.7 (2)
0x080|                        00                     |        .       |                tag: "funcidx" (0x0) 0x88-0x88.7 (1)
0x080|                           03                  |         .      |                x: 3 0x89-0x89.7 (1)
     |                                               |                |            [4]{}: ex 0x8a-0xa7.7 (30)
     |                                               |                |              nm{}: 0x8a-0xa5.7 (28)
0x080|                              1b               |          .     |                n: 27 0x8a-0x8a.7 (1)
0x080|                                 76 31 32 38 2e|           v128.|                b: "v128.load32_lane_0_offset_0" 0x8b-0xa5.7 (27)
0x090|6c 6f 61 64 33 32 5f 6c 61 6e 65 5f 30 5f 6f 66|load32_lane_0_of|
0x0a0|66 73 65 74 5f 30                              |fset_0          |
     |                                               |                |              d{}: 0xa6-0xa7.7 (2)
0x0a0|                  00                           |      .         |                tag: "funcidx" (0x0) 0xa6-0xa6.7 (1)
0x0a0|                     04                        |       .        |                x: 4 0xa7-0xa7.7 (1)
     |                                               |                |            [5]{}: ex 0xa8-0xc5.7 (30)
     |                                               |                |              nm{}: 0xa8-0xc3.7 (28)
0x0a0|                        1b                     |        .       |                n: 27 0xa8-0xa8.7 (1)
0x0a0|                           76 31 32 38 2e 6c 6f|         v128.lo|                b: "v128.load32_lane_1_offset_1" 0xa9-0xc3.7 (27)
0x0b0|61 64 33 32 5f 6c 61 6e 65 5f 31 5f 6f 66 66 73|ad32_lane_1_offs|
0x0c0|65 74 5f 31                                    |et_1            |
     |                                               |                |              d{}: 0xc4-0xc5.7 (2)
0x0c0|            00                                 |    .           |                tag: "funcidx" (0x0) 0xc4-0xc4.7 (1)
0x0c0|               05                              |     .          |                x: 5 0xc5-0xc5.7 (1)
     |                                               |                |            [6]{}: ex 0xc6-0xe3.7 (30)
     |                                               |                |              nm{}: 0xc6-0xe1.7 (28)
0x0c0|                  1b                           |      .         |                n: 27 0xc6-0xc6.7 (1)
0x0c0|                     76 31 32 38 2e 6c 6f 61 64|       v128.load|                b: "v128.load32_lane_2_offset_2" 0xc7-0xe1.7 (27)
0x0d0|33 32 5f 6c 61 6e 65 5f 32 5f 6f 66 66 73 65 74|32_lane_2_offset|
0x0e0|5f 32                                          |_2              |
     |                                               |                |              d{}: 0xe2-0xe3.7 (2)
0x0e0|      00                                       |  .             |                tag: "funcidx" (0x0) 0xe2-0xe2.7 (1)
0x0e0|         06                                    |   .            |                x: 6 0xe3-0xe3.7 (1)
     |                                               |                |            [7]{}: ex 0xe4-0x101.7 (30)
     |                                               |                |              nm{}: 0xe4-0xff.7 (28)
0x0e0|            1b                                 |    .           |                n: 27 0xe4-0xe4.7 (1)
0x0e0|               76 31 32 38 2e 6c 6f 61 64 33 32|     v128.load32|                b: "v128.load32_lane_3_offset_3" 0xe5-0xff.7 (27)
0x0f0|5f 6c 61 6e 65 5f 33 5f 6f 66 66 73 65 74 5f 33|_lane_3_offset_3|
     |                                               |                |              d{}: 0x100-0x101.7 (2)
0x100|00                                             |.               |                tag: "funcidx" (0x0) 0x100-0x100.7 (1)
0x100|   07                                          | .              |                x: 7 0x101-0x101.7 (1)
     |                                               |                |            [8]{}: ex 0x102-0x11e.7 (29)
     |                                               |                |              nm{}: 0x102-0x11c.7 (27)
0x100|      1a                                       |  .             |                n: 26 0x102-0x102.7 (1)
0x100|         76 31 32 38 2e 6c 6f 61 64 33 32 5f 6c|   v128.load32_l|                b: "v128.load32_lane_0_align_1" 0x103-0x11c.7 (26)
0x110|61 6e 65 5f 30 5f 61 6c 69 67 6e 5f 31         |ane_0_align_1   |
     |                                               |                |              d{}: 0x11d-0x11e.7 (2)
0x110|                                       00      |             .  |                tag: "funcidx" (0x0) 0x11d-0x11d.7 (1)
0x110|                                          08   |              . |                x: 8 0x11e-0x11e.7 (1)
     |                                               |                |            [9]{}: ex 0x11f-0x13b.7 (29)
     |                                               |                |              nm{}: 0x11f-0x139.7 (27)
0x110|                                             1a|               .|                n: 26 0x11f-0x11f.7 (1)
0x120|76 31 32 38 2e 6c 6f 61 64 33 32 5f 6c 61 6e 65|v128.load32_lane|                b: "v128.load32_lane_0_align_2" 0x120-0x139.7 (26)
0x130|5f 30 5f 61 6c 69 67 6e 5f 32                  |_0_align_2      |
     |                                               |                |              d{}: 0x13a-0x13b.7 (2)
0x130|                              00               |          .     |                tag: "funcidx" (0x0) 0x13a-0x13a.7 (1)
0x130|                                 09            |           .    |                x: 9 0x13b-0x13b.7 (1)
     |                                               |                |            [10]{}: ex 0x13c-0x158.7 (29)
     |                                               |                |              nm{}: 0x13c-0x156.7 (27)
0x130|                                    1a         |            .   |                n: 26 0x13c-0x13c.7 (1)
0x130|                                       76 31 32|             v12|                b: "v128.load32_lane_0_align_4" 0x13d-0x156.7 (26)
0x140|38 2e 6c 6f 61 64 33 32 5f 6c 61 6e 65 5f 30 5f|8.load32_lane_0_|
0x150|61 6c 69 67 6e 5f 34                           |align_4         |
     |                                               |                |              d{}: 0x157-0x158.7 (2)
0x150|                     00                        |       .        |                tag: "funcidx" (0x0) 0x157-0x157.7 (1)
0x150|                        0a                     |        .       |                x: 10 0x158-0x158.7 (1)
     |                                               |                |            [11]{}: ex 0x159-0x175.7 (29)
     |                                               |                |              nm{}: 0x159-0x173.7 (27)
0x150|                           1a                  |         .      |                n: 26 0x159-0x159.7 (1)
0x150|                              76 31 32 38 2e 6c|          v128.l|                b: "v128.load32_lane_1_align_1" 0x15a-0x173.7 (26)
0x160|6f 61 64 33 32 5f 6c 61 6e 65 5f 31 5f 61 6c 69|oad32_lane_1_ali|
0x170|67 6e 5f 31                                    |gn_1            |
     |                                               |                |              d{}: 0x174-0x175.7 (2)
0x170|            00                                 |    .           |                tag: "funcidx" (0x0) 0x174-0x174.7 (1)
0x170|               0b                              |     .          |                x: 11 0x175-0x175.7 (1)
     |                                               |                |            [12]{}: ex 0x176-0x192.7 (29)
     |                                               |                |              nm{}: 0x176-0x190.7 (27)
0x170|                  1a                           |      .         |                n: 26 0x176-0x176.7 (1)
0x170|                     76 31 32 38 2e 6c 6f 61 64|       v128.load|                b: "v128.load32_lane_1_align_2" 0x177-0x190.7 (26)
0x180|33 32 5f 6c 61 6e 65 5f 31 5f 61 6c 69 67 6e 5f|32_lane_1_align_|
0x190|32                                             |2               |
     |                                               |                |              d{}: 0x191-0x192.7 (2)
0x190|   00                                          | .              |                tag: "funcidx" (0x0) 0x191-0x191.7 (1)
0x190|      0c                                       |  .             |                x: 12 0x192-0x192.7 (1)
     |                                               |                |            [13]{}: ex 0x193-0x1af.7 (29)
     |                                               |                |              nm{}: 0x193-0x1ad.7 (27)
0x190|         1a                                    |   .            |                n: 26 0x193-0x193.7 (1)
0x190|            76 31 32 38 2e 6c 6f 61 64 33 32 5f|    v128.load32_|                b: "v128.load32_lane_1_align_4" 0x194-0x1ad.7 (26)
0x1a0|6c 61 6e 65 5f 31 5f 61 6c 69 67 6e 5f 34      |lane_1_align_4  |
     |                                               |                |              d{}: 0x1ae-0x1af.7 (2)
0x1a0|                                          00   |              . |                tag: "funcidx" (0x0) 0x1ae-0x1ae.7 (1)
0x1a0|                                             0d|               .|                x: 13 0x1af-0x1af.7 (1)
     |                                               |                |            [14]{}: ex 0x1b0-0x1cc.7 (29)
     |                                               |                |              nm{}: 0x1b0-0x1ca.7 (27)
0x1b0|1a                                             |.               |                n: 26 0x1b0-0x1b0.7 (1)
0x1b0|   76 31 32 38 2e 6c 6f 61 64 33 32 5f 6c 61 6e| v128.load32_lan|                b: "v128.load32_lane_2_align_1" 0x1b1-0x1ca.7 (26)
0x1c0|65 5f 32 5f 61 6c 69 67 6e 5f 31               |e_2_align_1     |
     |                                               |                |              d{}: 0x1cb-0x1cc.7 (2)
0x1c0|                                 00            |           .    |                tag: "funcidx" (0x0) 0x1cb-0x1cb.7 (1)
0x1c0|                                    0e         |            .   |                x: 14 0x1cc-0x1cc.7 (1)
     |                                               |                |            [15]{}: ex 0x1cd-0x1e9.7 (29)
     |                                               |                |              nm{}: 0x1cd-0x1e7.7 (27)
0x1c0|                                       1a      |             .  |                n: 26 0x1cd-0x1cd.7 (1)
0x1c0|                                          76 31|              v1|                b: "v128.load32_lane_2_align_2" 0x1ce-0x1e7.7 (26)
0x1d0|32 38 2e 6c 6f 61 64 33 32 5f 6c 61 6e 65 5f 32|28.load32_lane_2|
0x1e0|5f 61 6c 69 67 6e 5f 32                        |_align_2        |
     |                                               |                |              d{}: 0x1e8-0x1e9.7 (2)
0x1e0|                        00                     |        .       |                tag: "funcidx" (0x0) 0x1e8-0x1e8.7 (1)
0x1e0|                           0f                  |         .      |                x: 15 0x1e9-0x1e9.7 (1)
     |                                               |                |            [16]{}: ex 0x1ea-0x206.7 (29)
     |                                               |                |              nm{}: 0x1ea-0x204.7 (27)
0x1e0|                              1a               |          .     |                n: 26 0x1ea-0x1ea.7 (1)
0x1e0|                                 76 31 32 38 2e|           v128.|                b: "v128.load32_lane_2_align_4" 0x1eb-0x204.7 (26)
0x1f0|6c 6f 61 64 33 32 5f 6c 61 6e 65 5f 32 5f 61 6c|load32_lane_2_al|
0x200|69 67 6e 5f 34                                 |ign_4           |
     |                                               |                |              d{}: 0x205-0x206.7 (2)
0x200|               00                              |     .          |                tag: "funcidx" (0x0) 0x205-0x205.7 (1)
0x200|                  10                           |      .         |                x: 16 0x206-0x206.7 (1)
     |                                               |                |            [17]{}: ex 0x207-0x223.7 (29)
     |                                               |                |              nm{}: 0x207-0x221.7 (27)
0x200|                     1a                        |       .        |                n: 26 0x207-0x207.7 (1)
0x200|                        76 31 32 38 2e 6c 6f 61|        v128.loa|                b: "v128.load32_lane_3_align_1" 0x208-0x221.7 (26)
0x210|64 33 32 5f 6c 61 6e 65 5f 33 5f 61 6c 69 67 6e|d32_lane_3_align|
0x220|5f 31                                          |_1              |
     |                                               |                |              d{}: 0x222-0x223.7 (2)
0x220|      00                                       |  .             |                tag: "funcidx" (0x0) 0x222-0x222.7 (1)
0x220|         11                                    |   .            |                x: 17 0x223-0x223.7 (1)
     |                                               |                |            [18]{}: ex 0x224-0x240.7 (29)
     |                                               |                |              nm{}: 0x224-0x23e.7 (27)
0x220|            1a                                 |    .           |                n: 26 0x224-0x224.7 (1)
0x220|               76 31 32 38 2e 6c 6f 61 64 33 32|     v128.load32|                b: "v128.load32_lane_3_align_2" 0x225-0x23e.7 (26)
0x230|5f 6c 61 6e 65 5f 33 5f 61 6c 69 67 6e 5f 32   |_lane_3_align_2 |
     |                                               |                |              d{}: 0x23f-0x240.7 (2)
0x230|                                             00|               .|                tag: "funcidx" (0x0) 0x23f-0x23f.7 (1)
0x240|12                                             |.               |                x: 18 0x240-0x240.7 (1)
     |                                               |                |            [19]{}: ex 0x241-0x25d.7 (29)
     |                                               |                |              nm{}: 0x241-0x25b.7 (27)
0x240|   1a                                          | .              |                n: 26 0x241-0x241.7 (1)
0x240|      76 31 32 38 2e 6c 6f 61 64 33 32 5f 6c 61|  v128.load32_la|                b: "v128.load32_lane_3_align_4" 0x242-0x25b.7 (26)
0x250|6e 65 5f 33 5f 61 6c 69 67 6e 5f 34            |ne_3_align_4    |
     |                                               |                |              d{}: 0x25c-0x25d.7 (2)
0x250|                                    00         |            .   |                tag: "funcidx" (0x0) 0x25c-0x25c.7 (1)
0x250|                                       13      |             .  |                x: 19 0x25d-0x25d.7 (1)
     |                                               |                |    [4]{}: section 0x25e-0x351.7 (244)
0x250|                                          0a   |              . |      id: "code section" (10) 0x25e-0x25e.7 (1)
0x250|                                             f1|               .|      size: 241 0x25f-0x260.7 (2)
0x260|01                                             |.               |
     |                                               |                |      content{}: 0x261-0x351.7 (241)
     |                                               |                |        code{}: 0x261-0x351.7 (241)
0x260|   14                                          | .              |          n: 20 0x261-0x261.7 (1)
     |                                               |                |          x[0:20]: 0x262-0x351.7 (240)
     |                                               |                |            [0]{}: code 0x262-0x26d.7 (12)
0x260|      0b                                       |  .             |              size: 11 0x262-0x262.7 (1)
     |                                               |                |              code{}: 0x263-0x26d.7 (11)
     |                                               |                |                t{}: 0x263-0x263.7 (1)
0x260|         00                                    |   .            |                  n: 0 0x263-0x263.7 (1)
     |                                               |                |                  x[0:0]: 0x264-NA (0)
     |                                               |                |                e[0:4]: 0x264-0x26d.7 (10)
     |                                               |                |                  [0]{}: in 0x264-0x265.7 (2)
0x260|            20                                 |                |                    local.get: 0x20 (valid) 0x264-0x264.7 (1)
0x260|               00                              |     .          |                    x: 0 0x265-0x265.7 (1)
     |                                               |                |                  [1]{}: in 0x266-0x267.7 (2)
0x260|                  20                           |                |                    local.get: 0x20 (valid) 0x266-0x266.7 (1)
0x260|                     01                        |       .        |                    x: 1 0x267-0x267.7 (1)
     |                                               |                |                  [2]{}: in 0x268-0x26c.7 (5)
0x260|                        fd                     |        .       |                    prefix: 0xfd (valid) 0x268-0x268.7 (1)
0x260|                           56                  |         V      |                    v128.load32_lane: 86 (valid) 0x269-0x269.7 (1)
     |                                               |                |                    m{}: 0x26a-0x26b.7 (2)
0x260|                              02               |          .     |                      a: 2 0x26a-0x26a.7 (1)
0x260|                                 00            |           .    |                      o: 0 0x26b-0x26b.7 (1)
0x260|                                    00         |            .   |                    l: 0 0x26c-0x26c.7 (1)
     |                                               |                |                  [3]{}: in 0x26d-0x26d.7 (1)
0x260|                                       0b      |             .  |                    end: 0xb (valid) 0x26d-0x26d.7 (1)
     |                                               |                |            [1]{}: code 0x26e-0x279.7 (12)
0x260|                                          0b   |              . |              size: 11 0x26e-0x26e.7 (1)
     |                                               |                |              code{}: 0x26f-0x279.7 (11)
     |                                               |                |                t{}: 0x26f-0x26f.7 (1)
0x260|                                             00|               .|                  n: 0 0x26f-0x26f.7 (1)
     |                                               |                |                  x[0:0]: 0x270-NA (0)
     |                                               |                |                e[0:4]: 0x270-0x279.7 (10)
     |                                               |                |                  [0]{}: in 0x270-0x271.7 (2)
0x270|20                                             |                |                    local.get: 0x20 (valid) 0x270-0x270.7 (1)
0x270|   00                                          | .              |                    x: 0 0x271-0x271.7 (1)
     |                                               |                |                  [1]{}: in 0x272-0x273.7 (2)
0x270|      20                                       |                |                    local.get: 0x20 (valid) 0x272-0x272.7 (1)
0x270|         01                                    |   .            |                    x: 1 0x273-0x273.7 (1)
     |                                               |                |                  [2]{}: in 0x274-0x278.7 (5)
0x270|            fd                                 |    .           |                    prefix: 0xfd (valid) 0x274-0x274.7 (1)
0x270|               56                              |     V          |                    v128.load32_lane: 86 (valid) 0x275-0x275.7 (1)
     |                                               |                |                    m{}: 0x276-0x277.7 (2)
0x270|                  02                           |      .         |                      a: 2 0x276-0x276.7 (1)
0x270|                     00                        |       .        |                      o: 0 0x277-0x277.7 (1)
0x270|                        01                     |        .       |                    l: 1 0x278-0x278.7 (1)
     |                                               |                |                  [3]{}: in 0x279-0x279.7 (1)
0x270|                           0b                  |         .      |                    end: 0xb (valid) 0x279-0x279.7 (1)
     |                                               |                |            [2]{}: code 0x27a-0x285.7 (12)
0x270|                              0b               |          .     |              size: 11 0x27a-0x27a.7 (1)
     |                                               |                |              code{}: 0x27b-0x285.7 (11)
     |                                               |                |                t{}: 0x27b-0x27b.7 (1)
0x270|                                 00            |           .    |                  n: 0 0x27b-0x27b.7 (1)
     |                                               |                |                  x[0:0]: 0x27c-NA (0)
     |                                               |                |                e[0:4]: 0x27c-0x285.7 (10)
     |                                               |                |                  [0]{}: in 0x27c-0x27d.7 (2)
0x270|                                    20         |                |                    local.get: 0x20 (valid) 0x27c-0x27c.7 (1)
0x270|                                       00      |             .  |                    x: 0 0x27d-0x27d.7 (1)
     |                                               |                |                  [1]{}: in 0x27e-0x27f.7 (2)
0x270|                                          20   |                |                    local.get: 0x20 (valid) 0x27e-0x27e.7 (1)
0x270|                                             01|               .|                    x: 1 0x27f-0x27f.7 (1)
     |                                               |                |                  [2]{}: in 0x280-0x284.7 (5)
0x280|fd                                             |.               |                    prefix: 0xfd (valid) 0x280-0x280.7 (1)
0x280|   56                                          | V              |                    v128.load32_lane: 86 (valid) 0x281-0x281.7 (1)
     |                                               |                |                    m{}: 0x282-0x283.7 (2)
0x280|      02                                       |  .             |                      a: 2 0x282-0x282.7 (1)
0x280|         00                                    |   .            |                      o: 0 0x283-0x283.7 (1)
0x280|            02                                 |    .           |                    l: 2 0x284-0x284.7 (1)
     |                                               |                |                  [3]{}: in 0x285-0x285.7 (1)
0x280|               0b                              |     .          |                    end: 0xb (valid) 0x285-0x285.7 (1)
     |                                               |                |            [3]{}: code 0x286-0x291.7 (12)
0x280|                  0b                           |      .         |              size: 11 0x286-0x286.7 (1)
     |                                               |                |              code{}: 0x287-0x291.7 (11)
     |                                               |                |                t{}: 0x287-0x287.7 (1)
0x280|                     00                        |       .        |                  n: 0 0x287-0x287.7 (1)
     |                                               |                |                  x[0:0]: 0x288-NA (0)
     |                                               |                |                e[0:4]: 0x288-0x291.7 (10)
     |                                               |                |                  [0]{}: in 0x288-0x289.7 (2)
0x280|                        20                     |                |                    local.get: 0x20 (valid) 0x288-0x288.7 (1)
0x280|                           00                  |         .      |                    x: 0 0x289-0x289.7 (1)
     |                                               |                |                  [1]{}: in 0x28a-0x28b.7 (2)
0x280|                              20               |                |                    local.get: 0x20 (valid) 0x28a-0x28a.7 (1)
0x280|                                 01            |           .    |                    x: 1 0x28b-0x28b.7 (1)
     |                                               |                |                  [2]{}: in 0x28c-0x290.7 (5)
0x280|                                    fd         |            .   |                    prefix: 0xfd (valid) 0x28c-0x28c.7 (1)
0x280|                                       56      |             V  |                    v128.load32_lane: 86 (valid) 0x28d-0x28d.7 (1)
     |                                               |                |                    m{}: 0x28e-0x28f.7 (2)
0x280|                                          02   |              . |                      a: 2 0x28e-0x28e.7 (1)
0x280|                                             00|               .|                      o: 0 0x28f-0x28f.7 (1)
0x290|03                                             |.               |                    l: 3 0x290-0x290.7 (1)
     |                                               |                |                  [3]{}: in 0x291-0x291.7 (1)
0x290|   0b                                          | .              |                    end: 0xb (valid) 0x291-0x291.7 (1)
     |                                               |                |            [4]{}: code 0x292-0x29d.7 (12)
0x290|      0b                                       |  .             |              size: 11 0x292-0x292.7 (1)
     |                                               |                |              code{}: 0x293-0x29d.7 (11)
     |                                               |                |                t{}: 0x293-0x293.7 (1)
0x290|         00                                    |   .            |                  n: 0 0x293-0x293.7 (1)
     |                                               |                |                  x[0:0]: 0x294-NA (0)
     |                                               |                |                e[0:4]: 0x294-0x29d.7 (10)
     |                                               |                |                  [0]{}: in 0x294-0x295.7 (2)
0x290|            41                                 |    A           |                    i32.const: 0x41 (valid) 0x294-0x294.7 (1)
0x290|               00                              |     .          |                    n: 0 0x295-0x295.7 (1)
     |                                               |                |                  [1]{}: in 0x296-0x297.7 (2)
0x290|                  20                           |                |                    local.get: 0x20 (valid) 0x296-0x296.7 (1)
0x290|                     00                        |       .        |                    x: 0 0x297-0x297.7 (1)
     |                                               |                |                  [2]{}: in 0x298-0x29c.7 (5)
0x290|                        fd                     |        .       |                    prefix: 0xfd (valid) 0x298-0x298.7 (1)
0x290|                           56                  |         V      |                    v128.load32_lane: 86 (valid) 0x299-0x299.7 (1)
     |                                               |                |                    m{}: 0x29a-0x29b.7 (2)
0x290|                              02               |          .     |                      a: 2 0x29a-0x29a.7 (1)
0x290|                                 00            |           .    |                      o: 0 0x29b-0x29b.7 (1)
0x290|                                    00         |            .   |                    l: 0 0x29c-0x29c.7 (1)
     |                                               |                |                  [3]{}: in 0x29d-0x29d.7 (1)
0x290|                                       0b      |             .  |                    end: 0xb (valid) 0x29d-0x29d.7 (1)
     |                                               |                |            [5]{}: code 0x29e-0x2a9.7 (12)
0x290|                                          0b   |              . |              size: 11 0x29e-0x29e.7 (1)
     |                                               |                |              code{}: 0x29f-0x2a9.7 (11)
     |                                               |                |                t{}: 0x29f-0x29f.7 (1)
0x290|                                             00|               .|                  n: 0 0x29f-0x29f.7 (1)
     |                                               |                |                  x[0:0]: 0x2a0-NA (0)
     |                                               |                |                e[0:4]: 0x2a0-0x2a9.7 (10)
     |                                               |                |                  [0]{}: in 0x2a0-0x2a1.7 (2)
0x2a0|41                                             |A               |                    i32.const: 0x41 (valid) 0x2a0-0x2a0.7 (1)
0x2a0|   00                                          | .              |                    n: 0 0x2a1-0x2a1.7 (1)
     |                                               |                |                  [1]{}: in 0x2a2-0x2a3.7 (2)
0x2a0|      20                                       |                |                    local.get: 0x20 (valid) 0x2a2-0x2a2.7 (1)
0x2a0|         00                                    |   .            |                    x: 0 0x2a3-0x2a3.7 (1)
     |                                               |                |                  [2]{}: in 0x2a4-0x2a8.7 (5)
0x2a0|            fd                                 |    .           |                    prefix: 0xfd (valid) 0x2a4-0x2a4.7 (1)
0x2a0|               56                              |     V          |                    v128.load32_lane: 86 (valid) 0x2a5-0x2a5.7 (1)
     |                                               |                |                    m{}: 0x2a6-0x2a7.7 (2)
0x2a0|                  02                           |      .         |                      a: 2 0x2a6-0x2a6.7 (1)
0x2a0|                     01                        |       .        |                      o: 1 0x2a7-0x2a7.7 (1)
0x2a0|                        01                     |        .       |                    l: 1 0x2a8-0x2a8.7 (1)
     |                                               |                |                  [3]{}: in 0x2a9-0x2a9.7 (1)
0x2a0|                           0b                  |         .      |                    end: 0xb (valid) 0x2a9-0x2a9.7 (1)
     |                                               |                |            [6]{}: code 0x2aa-0x2b5.7 (12)
0x2a0|                              0b               |          .     |              size: 11 0x2aa-0x2aa.7 (1)
     |                                               |                |              code{}: 0x2ab-0x2b5.7 (11)
     |                                               |                |                t{}: 0x2ab-0x2ab.7 (1)
0x2a0|                                 00            |           .    |                  n: 0 0x2ab-0x2ab.7 (1)
     |                                               |                |                  x[0:0]: 0x2ac-NA (0)
     |                                               |                |                e[0:4]: 0x2ac-0x2b5.7 (10)
     |                                               |                |                  [0]{}: in 0x2ac-0x2ad.7 (2)
0x2a0|                                    41         |            A   |                    i32.const: 0x41 (valid) 0x2ac-0x2ac.7 (1)
0x2a0|                                       00      |             .  |                    n: 0 0x2ad-0x2ad.7 (1)
     |                                               |                |                  [1]{}: in 0x2ae-0x2af.7 (2)
0x2a0|                                          20   |                |                    local.get: 0x20 (valid) 0x2ae-0x2ae.7 (1)
0x2a0|                                             00|               .|                    x: 0 0x2af-0x2af.7 (1)
     |                                               |                |                  [2]{}: in 0x2b0-0x2b4.7 (5)
0x2b0|fd                                             |.               |                    prefix: 0xfd (valid) 0x2b0-0x2b0.7 (1)
0x2b0|   56                                          | V              |                    v128.load32_lane: 86 (valid) 0x2b1-0x2b1.7 (1)
     |                                               |                |                    m{}: 0x2b2-0x2b3.7 (2)
0x2b0|      02                                       |  .             |                      a: 2 0x2b2-0x2b2.7 (1)
0x2b0|         02                                    |   .            |                      o: 2 0x2b3-0x2b3.7 (1)
0x2b0|            02                                 |    .           |                    l: 2 0x2b4-0x2b4.7 (1)
     |                                               |                |                  [3]{}: in 0x2b5-0x2b5.7 (1)
0x2b0|               0b                              |     .          |                    end: 0xb (valid) 0x2b5-0x2b5.7 (1)
     |                                               |                |            [7]{}: code 0x2b6-0x2c1.7 (12)
0x2b0|                  0b                           |      .         |              size: 11 0x2b6-0x2b6.7 (1)
     |                                               |                |              code{}: 0x2b7-0x2c1.7 (11)
     |                                               |                |                t{}: 0x2b7-0x2b7.7 (1)
0x2b0|                     00                        |       .        |                  n: 0 0x2b7-0x2b7.7 (1)
     |                                               |                |                  x[0:0]: 0x2b8-NA (0)
     |                                               |                |                e[0:4]: 0x2b8-0x2c1.7 (10)
     |                                               |                |                  [0]{}: in 0x2b8-0x2b9.7 (2)
0x2b0|                        41                     |        A       |                    i32.const: 0x41 (valid) 0x2b8-0x2b8.7 (1)
0x2b0|                           00                  |         .      |                    n: 0 0x2b9-0x2b9.7 (1)
     |                                               |                |                  [1]{}: in 0x2ba-0x2bb.7 (2)
0x2b0|                              20               |                |                    local.get: 0x20 (valid) 0x2ba-0x2ba.7 (1)
0x2b0|                                 00            |           .    |                    x: 0 0x2bb-0x2bb.7 (1)
     |                                               |                |                  [2]{}: in 0x2bc-0x2c0.7 (5)
0x2b0|                                    fd         |            .   |                    prefix: 0xfd (valid) 0x2bc-0x2bc.7 (1)
0x2b0|                                       56      |             V  |                    v128.load32_lane: 86 (valid) 0x2bd-0x2bd.7 (1)
     |                                               |                |                    m{}: 0x2be-0x2bf.7 (2)
0x2b0|                                          02   |              . |                      a: 2 0x2be-0x2be.7 (1)
0x2b0|                                             03|               .|                      o: 3 0x2bf-0x2bf.7 (1)
0x2c0|03                                             |.               |                    l: 3 0x2c0-0x2c0.7 (1)
     |                                               |                |                  [3]{}: in 0x2c1-0x2c1.7 (1)
0x2c0|   0b                                          | .              |                    end: 0xb (valid) 0x2c1-0x2c1.7 (1)
     |                                               |                |            [8]{}: code 0x2c2-0x2cd.7 (12)
0x2c0|      0b                                       |  .             |              size: 11 0x2c2-0x2c2.7 (1)
     |                                               |                |              code{}: 0x2c3-0x2cd.7 (11)
     |                                               |                |                t{}: 0x2c3-0x2c3.7 (1)
0x2c0|         00                                    |   .            |                  n: 0 0x2c3-0x2c3.7 (1)
     |                                               |                |                  x[0:0]: 0x2c4-NA (0)
     |                                               |                |                e[0:4]: 0x2c4-0x2cd.7 (10)
     |                                               |                |                  [0]{}: in 0x2c4-0x2c5.7 (2)
0x2c0|            20                                 |                |                    local.get: 0x20 (valid) 0x2c4-0x2c4.7 (1)
0x2c0|               00                              |     .          |                    x: 0 0x2c5-0x2c5.7 (1)
     |                                               |                |                  [1]{}: in 0x2c6-0x2c7.7 (2)
0x2c0|                  20                           |                |                    local.get: 0x20 (valid) 0x2c6-0x2c6.7 (1)
0x2c0|                     01                        |       .        |                    x: 1 0x2c7-0x2c7.7 (1)
     |                                               |                |                  [2]{}: in 0x2c8-0x2cc.7 (5)
0x2c0|                        fd                     |        .       |                    prefix: 0xfd (valid) 0x2c8-0x2c8.7 (1)
0x2c0|                           56                  |         V      |                    v128.load32_lane: 86 (valid) 0x2c9-0x2c9.7 (1)
     |                                               |                |                    m{}: 0x2ca-0x2cb.7 (2)
0x2c0|                              00               |          .     |                      a: 0 0x2ca-0x2ca.7 (1)
0x2c0|                                 00            |           .    |                      o: 0 0x2cb-0x2cb.7 (1)
0x2c0|                                    00         |            .   |                    l: 0 0x2cc-0x2cc.7 (1)
     |                                               |                |                  [3]{}: in 0x2cd-0x2cd.7 (1)
0x2c0|                                       0b      |             .  |                    end: 0xb (valid) 0x2cd-0x2cd.7 (1)
     |                                               |                |            [9]{}: code 0x2ce-0x2d9.7 (12)
0x2c0|                                          0b   |              . |              size: 11 0x2ce-0x2ce.7 (1)
     |                                               |                |              code{}: 0x2cf-0x2d9.7 (11)
     |                                               |                |                t{}: 0x2cf-0x2cf.7 (1)
0x2c0|                                             00|               .|                  n: 0 0x2cf-0x2cf.7 (1)
     |                                               |                |                  x[0:0]: 0x2d0-NA (0)
     |                                               |                |                e[0:4]: 0x2d0-0x2d9.7 (10)
     |                                               |                |                  [0]{}: in 0x2d0-0x2d1.7 (2)
0x2d0|20                                             |                |                    local.get: 0x20 (valid) 0x2d0-0x2d0.7 (1)
0x2d0|   00                                          | .              |                    x: 0 0x2d1-0x2d1.7 (1)
     |                                               |                |                  [1]{}: in 0x2d2-0x2d3.7 (2)
0x2d0|      20                                       |                |                    local.get: 0x20 (valid) 0x2d2-0x2d2.7 (1)
0x2d0|         01                                    |   .            |                    x: 1 0x2d3-0x2d3.7 (1)
     |                                               |                |                  [2]{}: in 0x2d4-0x2d8.7 (5)
0x2d0|            fd                                 |    .           |                    prefix: 0xfd (valid) 0x2d4-0x2d4.7 (1)
0x2d0|               56                              |     V          |                    v128.load32_lane: 86 (valid) 0x2d5-0x2d5.7 (1)
     |                                               |                |                    m{}: 0x2d6-0x2d7.7 (2)
0x2d0|                  01                           |      .         |                      a: 1 0x2d6-0x2d6.7 (1)
0x2d0|                     00                        |       .        |                      o: 0 0x2d7-0x2d7.7 (1)
0x2d0|                        00                     |        .       |                    l: 0 0x2d8-0x2d8.7 (1)
     |                                               |                |                  [3]{}: in 0x2d9-0x2d9.7 (1)
0x2d0|                           0b                  |         .      |                    end: 0xb (valid) 0x2d9-0x2d9.7 (1)
     |                                               |                |            [10]{}: code 0x2da-0x2e5.7 (12)
0x2d0|                              0b               |          .     |              size: 11 0x2da-0x2da.7 (1)
     |                                               |                |              code{}: 0x2db-0x2e5.7 (11)
     |                                               |                |                t{}: 0x2db-0x2db.7 (1)
0x2d0|                                 00            |           .    |                  n: 0 0x2db-0x2db.7 (1)
     |                                               |                |                  x[0:0]: 0x2dc-NA (0)
     |                                               |                |                e[0:4]: 0x2dc-0x2e5.7 (10)
     |                                               |                |                  [0]{}: in 0x2dc-0x2dd.7 (2)
0x2d0|                                    20         |                |                    local.get: 0x20 (valid) 0x2dc-0x2dc.7 (1)
0x2d0|                                       00      |             .  |                    x: 0 0x2dd-0x2dd.7 (1)
     |                                               |                |                  [1]{}: in 0x2de-0x2df.7 (2)
0x2d0|                                          20   |                |                    local.get: 0x20 (valid) 0x2de-0x2de.7 (1)
0x2d0|                                             01|               .|                    x: 1 0x2df-0x2df.7 (1)
     |                                               |                |                  [2]{}: in 0x2e0-0x2e4.7 (5)
0x2e0|fd                                             |.               |                    prefix: 0xfd (valid) 0x2e0-0x2e0.7 (1)
0x2e0|   56                                          | V              |                    v128.load32_lane: 86 (valid) 0x2e1-0x2e1.7 (1)
     |                                               |                |                    m{}: 0x2e2-0x2e3.7 (2)
0x2e0|      02                                       |  .             |                      a: 2 0x2e2-0x2e2.7 (1)
0x2e0|         00                                    |   .            |                      o: 0 0x2e3-0x2e3.7 (1)
0x2e0|            00                                 |    .           |                    l: 0 0x2e4-0x2e4.7 (1)
     |                                               |                |                  [3]{}: in 0x2e5-0x2e5.7 (1)
0x2e0|               0b                              |     .          |                    end: 0xb (valid) 0x2e5-0x2e5.7 (1)
     |                                               |                |            [11]{}: code 0x2e6-0x2f1.7 (12)
0x2e0|                  0b                           |      .         |              size: 11 0x2e6-0x2e6.7 (1)
     |                                               |                |              code{}: 0x2e7-0x2f1.7 (11)
     |                                               |                |                t{}: 0x2e7-0x2e7.7 (1)
0x2e0|                     00                        |       .        |                  n: 0 0x2e7-0x2e7.7 (1)
     |                                               |                |                  x[0:0]: 0x2e8-NA (0)
     |                                               |                |                e[0:4]: 0x2e8-0x2f1.7 (10)
     |                                               |                |                  [0]{}: in 0x2e8-0x2e9.7 (2)
0x2e0|                        20                     |                |                    local.get: 0x20 (valid) 0x2e8-0x2e8.7 (1)
0x2e0|                           00                  |         .      |                    x: 0 0x2e9-0x2e9.7 (1)
     |                                               |                |                  [1]{}: in 0x2ea-0x2eb.7 (2)
0x2e0|                              20               |                |                    local.get: 0x20 (valid) 0x2ea-0x2ea.7 (1)
0x2e0|                                 01            |           .    |                    x: 1 0x2eb-0x2eb.7 (1)
     |                                               |                |                  [2]{}: in 0x2ec-0x2f0.7 (5)
0x2e0|                                    fd         |            .   |                    prefix: 0xfd (valid) 0x2ec-0x2ec.7 (1)
0x2e0|                                       56      |             V  |                    v128.load32_lane: 86 (valid) 0x2ed-0x2ed.7 (1)
     |                                               |                |                    m{}: 0x2ee-0x2ef.7 (2)
0x2e0|                                          00   |              . |                      a: 0 0x2ee-0x2ee.7 (1)
0x2e0|                                             00|               .|                      o: 0 0x2ef-0x2ef.7 (1)
0x2f0|01                                             |.               |                    l: 1 0x2f0-0x2f0.7 (1)
     |                                               |                |                  [3]{}: in 0x2f1-0x2f1.7 (1)
0x2f0|   0b                                          | .              |                    end: 0xb (valid) 0x2f1-0x2f1.7 (1)
     |                                               |                |            [12]{}: code 0x2f2-0x2fd.7 (12)
0x2f0|      0b                                       |  .             |              size: 11 0x2f2-0x2f2.7 (1)
     |                                               |                |              code{}: 0x2f3-0x2fd.7 (11)
     |                                               |                |                t{}: 0x2f3-0x2f3.7 (1)
0x2f0|         00                                    |   .            |                  n: 0 0x2f3-0x2f3.7 (1)
     |                                               |                |                  x[0:0]: 0x2f4-NA (0)
     |                                               |                |                e[0:4]: 0x2f4-0x2fd.7 (10)
     |                                               |                |                  [0]{}: in 0x2f4-0x2f5.7 (2)
0x2f0|            20                                 |                |                    local.get: 0x20 (valid) 0x2f4-0x2f4.7 (1)
0x2f0|               00                              |     .          |                    x: 0 0x2f5-0x2f5.7 (1)
     |                                               |                |                  [1]{}: in 0x2f6-0x2f7.7 (2)
0x2f0|                  20                           |                |                    local.get: 0x20 (valid) 0x2f6-0x2f6.7 (1)
0x2f0|                     01                        |       .        |                    x: 1 0x2f7-0x2f7.7 (1)
     |                                               |                |                  [2]{}: in 0x2f8-0x2fc.7 (5)
0x2f0|                        fd                     |        .       |                    prefix: 0xfd (valid) 0x2f8-0x2f8.7 (1)
0x2f0|                           56                  |         V      |                    v128.load32_lane: 86 (valid) 0x2f9-0x2f9.7 (1)
     |                                               |                |                    m{}: 0x2fa-0x2fb.7 (2)
0x2f0|                              01               |          .     |                      a: 1 0x2fa-0x2fa.7 (1)
0x2f0|                                 00            |           .    |                      o: 0 0x2fb-0x2fb.7 (1)
0x2f0|                                    01         |            .   |                    l: 1 0x2fc-0x2fc.7 (1)
     |                                               |                |                  [3]{}: in 0x2fd-0x2fd.7 (1)
0x2f0|                                       0b      |             .  |                    end: 0xb (valid) 0x2fd-0x2fd.7 (1)
     |                                               |                |            [13]{}: code 0x2fe-0x309.7 (12)
0x2f0|                                          0b   |              . |              size: 11 0x2fe-0x2fe.7 (1)
     |                                               |                |              code{}: 0x2ff-0x309.7 (11)
     |                                               |                |                t{}: 0x2ff-0x2ff.7 (1)
0x2f0|                                             00|               .|                  n: 0 0x2ff-0x2ff.7 (1)
     |                                               |                |                  x[0:0]: 0x300-NA (0)
     |                                               |                |                e[0:4]: 0x300-0x309.7 (10)
     |                                               |                |                  [0]{}: in 0x300-0x301.7 (2)
0x300|20                                             |                |                    local.get: 0x20 (valid) 0x300-0x300.7 (1)
0x300|   00                                          | .              |                    x: 0 0x301-0x301.7 (1)
     |                                               |                |                  [1]{}: in 0x302-0x303.7 (2)
0x300|      20                                       |                |                    local.get: 0x20 (valid) 0x302-0x302.7 (1)
0x300|         01                                    |   .            |                    x: 1 0x303-0x303.7 (1)
     |                                               |                |                  [2]{}: in 0x304-0x308.7 (5)
0x300|            fd                                 |    .           |                    prefix: 0xfd (valid) 0x304-0x304.7 (1)
0x300|               56                              |     V          |                    v128.load32_lane: 86 (valid) 0x305-0x305.7 (1)
     |                                               |                |                    m{}: 0x306-0x307.7 (2)
0x300|                  02                           |      .         |                      a: 2 0x306-0x306.7 (1)
0x300|                     00                        |       .        |                      o: 0 0x307-0x307.7 (1)
0x300|                        01                     |        .       |                    l: 1 0x308-0x308.7 (1)
     |                                               |                |                  [3]{}: in 0x309-0x309.7 (1)
0x300|                           0b                  |         .      |                    end: 0xb (valid) 0x309-0x309.7 (1)
     |                                               |                |            [14]{}: code 0x30a-0x315.7 (12)
0x300|                              0b               |          .     |              size: 11 0x30a-0x30a.7 (1)
     |                                               |                |              code{}: 0x30b-0x315.7 (11)
     |                                               |                |                t{}: 0x30b-0x30b.7 (1)
0x300|                                 00            |           .    |                  n: 0 0x30b-0x30b.7 (1)
     |                                               |                |                  x[0:0]: 0x30c-NA (0)
     |                                               |                |                e[0:4]: 0x30c-0x315.7 (10)
     |                                               |                |                  [0]{}: in 0x30c-0x30d.7 (2)
0x300|                                    20         |                |                    local.get: 0x20 (valid) 0x30c-0x30c.7 (1)
0x300|                                       00      |             .  |                    x: 0 0x30d-0x30d.7 (1)
     |                                               |                |                  [1]{}: in 0x30e-0x30f.7 (2)
0x300|                                          20   |                |                    local.get: 0x20 (valid) 0x30e-0x30e.7 (1)
0x300|                                             01|               .|                    x: 1 0x30f-0x30f.7 (1)
     |                                               |                |                  [2]{}: in 0x310-0x314.7 (5)
0x310|fd                                             |.               |                    prefix: 0xfd (valid) 0x310-0x310.7 (1)
0x310|   56                                          | V              |                    v128.load32_lane: 86 (valid) 0x311-0x311.7 (1)
     |                                               |                |                    m{}: 0x312-0x313.7 (2)
0x310|      00                                       |  .             |                      a: 0 0x312-0x312.7 (1)
0x310|         00                                    |   .            |                      o: 0 0x313-0x313.7 (1)
0x310|            02                                 |    .           |                    l: 2 0x314-0x314.7 (1)
     |                                               |                |                  [3]{}: in 0x315-0x315.7 (1)
0x310|               0b                              |     .          |                    end: 0xb (valid) 0x315-0x315.7 (1)
     |                                               |                |            [15]{}: code 0x316-0x321.7 (12)
0x310|                  0b                           |      .         |              size: 11 0x316-0x316.7 (1)
     |                                               |                |              code{}: 0x317-0x321.7 (11)
     |                                               |                |                t{}: 0x317-0x317.7 (1)
0x310|                     00                        |       .        |                  n: 0 0x317-0x317.7 (1)
     |                                               |                |                  x[0:0]: 0x318-NA (0)
     |                                               |                |                e[0:4]: 0x318-0x321.7 (10)
     |                                               |                |                  [0]{}: in 0x318-0x319.7 (2)
0x310|                        20                     |                |                    local.get: 0x20 (valid) 0x318-0x318.7 (1)
0x310|                           00                  |         .      |                    x: 0 0x319-0x319.7 (1)
     |                                               |                |                  [1]{}: in 0x31a-0x31b.7 (2)
0x310|                              20               |                |                    local.get: 0x20 (valid) 0x31a-0x31a.7 (1)
0x310|                                 01            |           .    |                    x: 1 0x31b-0x31b.7 (1)
     |                                               |                |                  [2]{}: in 0x31c-0x320.7 (5)
0x310|                                    fd         |            .   |                    prefix: 0xfd (valid) 0x31c-0x31c.7 (1)
0x310|                                       56      |             V  |                    v128.load32_lane: 86 (valid) 0x31d-0x31d.7 (1)
     |                                               |                |                    m{}: 0x31e-0x31f.7 (2)
0x310|                                          01   |              . |                      a: 1 0x31e-0x31e.7 (1)
0x310|                                             00|               .|                      o: 0 0x31f-0x31f.7 (1)
0x320|02                                             |.               |                    l: 2 0x320-0x320.7 (1)
     |                                               |                |                  [3]{}: in 0x321-0x321.7 (1)
0x320|   0b                                          | .              |                    end: 0xb (valid) 0x321-0x321.7 (1)
     |                                               |                |            [16]{}: code 0x322-0x32d.7 (12)
0x320|      0b                                       |  .             |              size: 11 0x322-0x322.7 (1)
     |                                               |                |              code{}: 0x323-0x32d.7 (11)
     |                                               |                |                t{}: 0x323-0x323.7 (1)
0x320|         00                                    |   .            |                  n: 0 0x323-0x323.7 (1)
     |                                               |                |                  x[0:0]: 0x324-NA (0)
     |                                               |                |                e[0:4]: 0x324-0x32d.7 (10)
     |                                               |                |                  [0]{}: in 0x324-0x325.7 (2)
0x320|            20                                 |                |                    local.get: 0x20 (valid) 0x324-0x324.7 (1)
0x320|               00                              |     .          |                    x: 0 0x325-0x325.7 (1)
     |                                               |                |                  [1]{}: in 0x326-0x327.7 (2)
0x320|                  20                           |                |                    local.get: 0x20 (valid) 0x326-0x326.7 (1)
0x320|                     01                        |       .        |                    x: 1 0x327-0x327.7 (1)
     |                                               |                |                  [2]{}: in 0x328-0x32c.7 (5)
0x320|                        fd                     |        .       |                    prefix: 0xfd (valid) 0x328-0x328.7 (1)
0x320|                           56                  |         V      |                    v128.load32_lane: 86 (valid) 0x329-0x329.7 (1)
     |                                               |                |                    m{}: 0x32a-0x32b.7 (2)
0x320|                              02               |          .     |                      a: 2 0x32a-0x32a.7 (1)
0x320|                                 00            |           .    |                      o: 0 0x32b-0x32b.7 (1)
0x320|                                    02         |            .   |                    l: 2 0x32c-0x32c.7 (1)
     |                                               |                |                  [3]{}: in 0x32d-0x32d.7 (1)
0x320|                                       0b      |             .  |                    end: 0xb (valid) 0x32d-0x32d.7 (1)
     |                                               |                |            [17]{}: code 0x32e-0x339.7 (12)
0x320|                                          0b   |              . |              size: 11 0x32e-0x32e.7 (1)
     |                                               |                |              code{}: 0x32f-0x339.7 (11)
     |                                               |                |                t{}: 0x32f-0x32f.7 (1)
0x320|                                             00|               .|                  n: 0 0x32f-0x32f.7 (1)
     |                                               |                |                  x[0:0]: 0x330-NA (0)
     |                                               |                |                e[0:4]: 0x330-0x339.7 (10)
     |                                               |                |                  [0]{}: in 0x330-0x331.7 (2)
0x330|20                                             |                |                    local.get: 0x20 (valid) 0x330-0x330.7 (1)
0x330|   00                                          | .              |                    x: 0 0x331-0x331.7 (1)
     |                                               |                |                  [1]{}: in 0x332-0x333.7 (2)
0x330|      20                                       |                |                    local.get: 0x20 (valid) 0x332-0x332.7 (1)
0x330|         01                                    |   .            |                    x: 1 0x333-0x333.7 (1)
     |                                               |                |                  [2]{}: in 0x334-0x338.7 (5)
0x330|            fd                                 |    .           |                    prefix: 0xfd (valid) 0x334-0x334.7 (1)
0x330|               56                              |     V          |                    v128.load32_lane: 86 (valid) 0x335-0x335.7 (1)
     |                                               |                |                    m{}: 0x336-0x337.7 (2)
0x330|                  00                           |      .         |                      a: 0 0x336-0x336.7 (1)
0x330|                     00                        |       .        |                      o: 0 0x337-0x337.7 (1)
0x330|                        03                     |        .       |                    l: 3 0x338-0x338.7 (1)
     |                                               |                |                  [3]{}: in 0x339-0x339.7 (1)
0x330|                           0b                  |         .      |                    end: 0xb (valid) 0x339-0x339.7 (1)
     |                                               |                |            [18]{}: code 0x33a-0x345.7 (12)
0x330|                              0b               |          .     |              size: 11 0x33a-0x33a.7 (1)
     |                                               |                |              code{}: 0x33b-0x345.7 (11)
     |                                               |                |                t{}: 0x33b-0x33b.7 (1)
0x330|                                 00            |           .    |                  n: 0 0x33b-0x33b.7 (1)
     |                                               |                |                  x[0:0]: 0x33c-NA (0)
     |                                               |                |                e[0:4]: 0x33c-0x345.7 (10)
     |                                               |                |                  [0]{}: in 0x33c-0x33d.7 (2)
0x330|                                    20         |                |                    local.get: 0x20 (valid) 0x33c-0x33c.7 (1)
0x330|                                       00      |             .  |                    x: 0 0x33d-0x33d.7 (1)
     |                                               |                |                  [1]{}: in 0x33e-0x33f.7 (2)
0x330|                                          20   |                |                    local.get: 0x20 (valid) 0x33e-0x33e.7 (1)
0x330|                                             01|               .|                    x: 1 0x33f-0x33f.7 (1)
     |                                               |                |                  [2]{}: in 0x340-0x344.7 (5)
0x340|fd                                             |.               |                    prefix: 0xfd (valid) 0x340-0x340.7 (1)
0x340|   56                                          | V              |                    v128.load32_lane: 86 (valid) 0x341-0x341.7 (1)
     |                                               |                |                    m{}: 0x342-0x343.7 (2)
0x340|      01                                       |  .             |                      a: 1 0x342-0x342.7 (1)
0x340|         00                                    |   .            |                      o: 0 0x343-0x343.7 (1)
0x340|            03                                 |    .           |                    l: 3 0x344-0x344.7 (1)
     |                                               |                |                  [3]{}: in 0x345-0x345.7 (1)
0x340|               0b                              |     .          |                    end: 0xb (valid) 0x345-0x345.7 (1)
     |                                               |                |            [19]{}: code 0x346-0x351.7 (12)
0x340|                  0b                           |      .         |              size: 11 0x346-0x346.7 (1)
     |                                               |                |              code{}: 0x347-0x351.7 (11)
     |                                               |                |                t{}: 0x347-0x347.7 (1)
0x340|                     00                        |       .        |                  n: 0 0x347-0x347.7 (1)
     |                                               |                |                  x[0:0]: 0x348-NA (0)
     |                                               |                |                e[0:4]: 0x348-0x351.7 (10)
     |                                               |                |                  [0]{}: in 0x348-0x349.7 (2)
0x340|                        20                     |                |                    local.get: 0x20 (valid) 0x348-0x348.7 (1)
0x340|                           00                  |         .      |                    x: 0 0x349-0x349.7 (1)
     |                                               |                |                  [1]{}: in 0x34a-0x34b.7 (2)
0x340|                              20               |                |                    local.get: 0x20 (valid) 0x34a-0x34a.7 (1)
0x340|                                 01            |           .    |                    x: 1 0x34b-0x34b.7 (1)
     |                                               |                |                  [2]{}: in 0x34c-0x350.7 (5)
0x340|                                    fd         |            .   |                    prefix: 0xfd (valid) 0x34c-0x34c.7 (1)
0x340|                                       56      |             V  |                    v128.load32_lane: 86 (valid) 0x34d-0x34d.7 (1)
     |                                               |                |                    m{}: 0x34e-0x34f.7 (2)
0x340|                                          02   |              . |                      a: 2 0x34e-0x34e.7 (1)
0x340|                                             00|               .|                      o: 0 0x34f-0x34f.7 (1)
0x350|03                                             |.               |                    l: 3 0x350-0x350.7 (1)
     |                                               |                |                  [3]{}: in 0x351-0x351.7 (1)
0x350|   0b                                          | .              |                    end: 0xb (valid) 0x351-0x351.7 (1)
     |                                               |                |    [5]{}: section 0x352-0x369.7 (24)
0x350|      0b                                       |  .             |      id: "data section" (11) 0x352-0x352.7 (1)
0x350|         16                                    |   .            |      size: 22 0x353-0x353.7 (1)
     |                                               |                |      content{}: 0x354-0x369.7 (22)
     |                                               |                |        seg{}: 0x354-0x369.7 (22)
0x350|            01                                 |    .           |          n: 1 0x354-0x354.7 (1)
     |                                               |                |          x[0:1]: 0x355-0x369.7 (21)
     |                                               |                |            [0]{}: seg 0x355-0x369.7 (21)
0x350|               00                              |     .          |              tag: 0 0x355-0x355.7 (1)
     |                                               |                |              e[0:2]: 0x356-0x358.7 (3)
     |                                               |                |                [0]{}: in 0x356-0x357.7 (2)
0x350|                  41                           |      A         |                  i32.const: 0x41 (valid) 0x356-0x356.7 (1)
0x350|                     00                        |       .        |                  n: 0 0x357-0x357.7 (1)
     |                                               |                |                [1]{}: in 0x358-0x358.7 (1)
0x350|                        0b                     |        .       |                  end: 0xb (valid) 0x358-0x358.7 (1)
     |                                               |                |              b{}: 0x359-0x369.7 (17)
0x350|                           10                  |         .      |                n: 16 0x359-0x359.7 (1)
0x350|                              00 01 02 03 04 05|          ......|                x: raw bits 0x35a-0x369.7 (16)
0x360|06 07 08 09 0a 0b 0c 0d 0e 0f|                 |..........|     |
