$ fq -d wasm dv simd_load_extend-0.wasm
     |00 01 02 03 04 05 06 07 08 09 0a 0b 0c 0d 0e 0f|0123456789abcdef|.{}: simd_load_extend-0.wasm (wasm) 0x0-0x792.7 (1939)
0x000|00 61 73 6d                                    |.asm            |  magic: raw bits (valid) 0x0-0x3.7 (4)
0x000|            01 00 00 00                        |    ....        |  version: 1 0x4-0x7.7 (4)
     |                                               |                |  sections[0:6]: 0x8-0x792.7 (1931)
     |                                               |                |    [0]{}: section 0x8-0x13.7 (12)
0x000|                        01                     |        .       |      id: "type section" (1) 0x8-0x8.7 (1)
0x000|                           0a                  |         .      |      size: 10 0x9-0x9.7 (1)
     |                                               |                |      content{}: 0xa-0x13.7 (10)
     |                                               |                |        ft{}: 0xa-0x13.7 (10)
0x000|                              02               |          .     |          n: 2 0xa-0xa.7 (1)
     |                                               |                |          x[0:2]: 0xb-0x13.7 (9)
     |                                               |                |            [0]{}: ft 0xb-0xf.7 (5)
0x000|                                 60            |           `    |              tag: 0x60 (valid) 0xb-0xb.7 (1)
     |                                               |                |              rt1{}: 0xc-0xd.7 (2)
0x000|                                    01         |            .   |                n: 1 0xc-0xc.7 (1)
     |                                               |                |                x[0:1]: 0xd-0xd.7 (1)
0x000|                                       7f      |             .  |                  [0]: "i32" (0x7f) t 0xd-0xd.7 (1)
     |                                               |                |              rt2{}: 0xe-0xf.7 (2)
0x000|                                          01   |              . |                n: 1 0xe-0xe.7 (1)
     |                                               |                |                x[0:1]: 0xf-0xf.7 (1)
0x000|                                             7b|               {|                  [0]: "v128" (0x7b) t 0xf-0xf.7 (1)
     |                                               |                |            [1]{}: ft 0x10-0x13.7 (4)
0x010|60                                             |`               |              tag: 0x60 (valid) 0x10-0x10.7 (1)
     |                                               |                |              rt1{}: 0x11-0x11.7 (1)
0x010|   00                                          | .              |                n: 0 0x11-0x11.7 (1)
     |                                               |                |                x[0:0]: 0x12-NA (0)
     |                                               |                |              rt2{}: 0x12-0x13.7 (2)
0x010|      01                                       |  .             |                n: 1 0x12-0x12.7 (1)
     |                                               |                |                x[0:1]: 0x13-0x13.7 (1)
0x010|         7b                                    |   {            |                  [0]: "v128" (0x7b) t 0x13-0x13.7 (1)
     |                                               |                |    [1]{}: section 0x14-0x46.7 (51)
0x010|            03                                 |    .           |      id: "function section" (3) 0x14-0x14.7 (1)
0x010|               31                              |     1          |      size: 49 0x15-0x15.7 (1)
     |                                               |                |      content{}: 0x16-0x46.7 (49)
     |                                               |                |        x{}: 0x16-0x46.7 (49)
0x010|                  30                           |      0         |          n: 48 0x16-0x16.7 (1)
     |                                               |                |          x[0:48]: 0x17-0x46.7 (48)
0x010|                     00                        |       .        |            [0]: 0 x 0x17-0x17.7 (1)
0x010|                        00                     |        .       |            [1]: 0 x 0x18-0x18.7 (1)
0x010|                           00                  |         .      |            [2]: 0 x 0x19-0x19.7 (1)
0x010|                              00               |          .     |            [3]: 0 x 0x1a-0x1a.7 (1)
0x010|                                 00            |           .    |            [4]: 0 x 0x1b-0x1b.7 (1)
0x010|                                    00         |            .   |            [5]: 0 x 0x1c-0x1c.7 (1)
0x010|                                       01      |             .  |            [6]: 1 x 0x1d-0x1d.7 (1)
0x010|                                          01   |              . |            [7]: 1 x 0x1e-0x1e.7 (1)
0x010|                                             01|               .|            [8]: 1 x 0x1f-0x1f.7 (1)
0x020|01                                             |.               |            [9]: 1 x 0x20-0x20.7 (1)
0x020|   01                                          | .              |            [10]: 1 x 0x21-0x21.7 (1)
0x020|      01                                       |  .             |            [11]: 1 x 0x22-0x22.7 (1)
0x020|         00                                    |   .            |            [12]: 0 x 0x23-0x23.7 (1)
0x020|            00                                 |    .           |            [13]: 0 x 0x24-0x24.7 (1)
0x020|               00                              |     .          |            [14]: 0 x 0x25-0x25.7 (1)
0x020|                  00                           |      .         |            [15]: 0 x 0x26-0x26.7 (1)
0x020|                     00                        |       .        |            [16]: 0 x 0x27-0x27.7 (1)
0x020|                        00                     |        .       |            [17]: 0 x 0x28-0x28.7 (1)
0x020|                           00                  |         .      |            [18]: 0 x 0x29-0x29.7 (1)
0x020|                              00               |          .     |            [19]: 0 x 0x2a-0x2a.7 (1)
0x020|                                 00            |           .    |            [20]: 0 x 0x2b-0x2b.7 (1)
0x020|                                    00         |            .   |            [21]: 0 x 0x2c-0x2c.7 (1)
0x020|                                       00      |             .  |            [22]: 0 x 0x2d-0x2d.7 (1)
0x020|                                          00   |              . |            [23]: 0 x 0x2e-0x2e.7 (1)
0x020|                                             00|               .|            [24]: 0 x 0x2f-0x2f.7 (1)
0x030|00                                             |.               |            [25]: 0 x 0x30-0x30.7 (1)
0x030|   00                                          | .              |            [26]: 0 x 0x31-0x31.7 (1)
0x030|      00                                       |  .             |            [27]: 0 x 0x32-0x32.7 (1)
0x030|         00                                    |   .            |            [28]: 0 x 0x33-0x33.7 (1)
0x030|            00                                 |    .           |            [29]: 0 x 0x34-0x34.7 (1)
0x030|               00                              |     .          |            [30]: 0 x 0x35-0x35.7 (1)
0x030|                  00                           |      .         |            [31]: 0 x 0x36-0x36.7 (1)
0x030|                     00                        |       .        |            [32]: 0 x 0x37-0x37.7 (1)
0x030|                        00                     |        .       |            [33]: 0 x 0x38-0x38.7 (1)
0x030|                           00                  |         .      |            [34]: 0 x 0x39-0x39.7 (1)
0x030|                              00               |          .     |            [35]: 0 x 0x3a-0x3a.7 (1)
0x030|                                 00            |           .    |            [36]: 0 x 0x3b-0x3b.7 (1)
0x030|                                    00         |            .   |            [37]: 0 x 0x3c-0x3c.7 (1)
0x030|                                       00      |             .  |            [38]: 0 x 0x3d-0x3d.7 (1)
0x030|                                          00   |              . |            [39]: 0 x 0x3e-0x3e.7 (1)
0x030|                                             00|               .|            [40]: 0 x 0x3f-0x3f.7 (1)
0x040|00                                             |.               |            [41]: 0 x 0x40-0x40.7 (1)
0x040|   00                                          | .              |            [42]: 0 x 0x41-0x41.7 (1)
0x040|      00                                       |  .             |            [43]: 0 x 0x42-0x42.7 (1)
0x040|         00                                    |   .            |            [44]: 0 x 0x43-0x43.7 (1)
0x040|            00                                 |    .           |            [45]: 0 x 0x44-0x44.7 (1)
0x040|               00                              |     .          |            [46]: 0 x 0x45-0x45.7 (1)
0x040|                  00                           |      .         |            [47]: 0 x 0x46-0x46.7 (1)
     |                                               |                |    [2]{}: section 0x47-0x4b.7 (5)
0x040|                     05                        |       .        |      id: "memory section" (5) 0x47-0x47.7 (1)
0x040|                        03                     |        .       |      size: 3 0x48-0x48.7 (1)
     |                                               |                |      content{}: 0x49-0x4b.7 (3)
     |                                               |                |        mem{}: 0x49-0x4b.7 (3)
0x040|                           01                  |         .      |          n: 1 0x49-0x49.7 (1)
     |                                               |                |          x[0:1]: 0x4a-0x4b.7 (2)
     |                                               |                |            [0]{}: mem 0x4a-0x4b.7 (2)
     |                                               |                |              lim{}: 0x4a-0x4b.7 (2)
0x040|                              00               |          .     |                tag: 0x0 0x4a-0x4a.7 (1)
0x040|                                 01            |           .    |                n: 1 0x4b-0x4b.7 (1)
     |                                               |                |    [3]{}: section 0x4c-0x5a1.7 (1366)
0x040|                                    07         |            .   |      id: "export section" (7) 0x4c-0x4c.7 (1)
0x040|                                       d3 0a   |             .. |      size: 1363 0x4d-0x4e.7 (2)
     |                                               |                |      content{}: 0x4f-0x5a1.7 (1363)
     |                                               |                |        ex{}: 0x4f-0x5a1.7 (1363)
0x040|                                             30|               0|          n: 48 0x4f-0x4f.7 (1)
     |                                               |                |          x[0:48]: 0x50-0x5a1.7 (1362)
     |                                               |                |            [0]{}: ex 0x50-0x60.7 (17)
     |                                               |                |              nm{}: 0x50-0x5e.7 (15)
0x050|0e                                             |.               |                n: 14 0x50-0x50.7 (1)
0x050|   76 31 32 38 2e 6c 6f 61 64 38 78 38 5f 73   | v128.load8x8_s |                b: "v128.load8x8_s" 0x51-0x5e.7 (14)
     |                                               |                |              d{}: 0x5f-0x60.7 (2)
0x050|                                             00|               .|                tag: "funcidx" (0x0) 0x5f-0x5f.7 (1)
0x060|00                                             |.               |                x: 0 0x60-0x60.7 (1)
     |                                               |                |            [1]{}: ex 0x61-0x71.7 (17)
     |                                               |                |              nm{}: 0x61-0x6f.7 (15)
0x060|   0e                                          | .              |                n: 14 0x61-0x61.7 (1)
0x060|      76 31 32 38 2e 6c 6f 61 64 38 78 38 5f 75|  v128.load8x8_u|                b: "v128.load8x8_u" 0x62-0x6f.7 (14)
     |                                               |                |              d{}: 0x70-0x71.7 (2)
0x070|00                                             |.               |                tag: "funcidx" (0x0) 0x70-0x70.7 (1)
0x070|   01                                          | .              |                x: 1 0x71-0x71.7 (1)
     |                                               |                |            [2]{}: ex 0x72-0x83.7 (18)
     |                                               |                |              nm{}: 0x72-0x81.7 (16)
0x070|      0f                                       |  .             |                n: 15 0x72-0x72.7 (1)
0x070|         76 31 32 38 2e 6c 6f 61 64 31 36 78 34|   v128.load16x4|                b: "v128.load16x4_s" 0x73-0x81.7 (15)
0x080|5f 73                                          |_s              |
     |                                               |                |              d{}: 0x82-0x83.7 (2)
0x080|      00                                       |  .             |                tag: "funcidx" (0x0) 0x82-0x82.7 (1)
0x080|         02                                    |   .            |                x: 2 0x83-0x83.7 (1)
     |                                               |                |            [3]{}: ex 0x84-0x95.7 (18)
     |                                               |                |              nm{}: 0x84-0x93.7 (16)
0x080|            0f                                 |    .           |                n: 15 0x84-0x84.7 (1)
0x080|               76 31 32 38 2e 6c 6f 61 64 31 36|     v128.load16|                b: "v128.load16x4_u" 0x85-0x93.7 (15)
0x090|78 34 5f 75                                    |x4_u            |
     |                                               |                |              d{}: 0x94-0x95.7 (2)
0x090|            00                                 |    .           |                tag: "funcidx" (0x0) 0x94-0x94.7 (1)
0x090|               03                              |     .          |                x: 3 0x95-0x95.7 (1)
     |                                               |                |            [4]{}: ex 0x96-0xa7.7 (18)
     |                                               |                |              nm{}: 0x96-0xa5.7 (16)
0x090|                  0f                           |      .         |                n: 15 0x96-0x96.7 (1)
0x090|                     76 31 32 38 2e 6c 6f 61 64|       v128.load|                b: "v128.load32x2_s" 0x97-0xa5.7 (15)
0x0a0|33 32 78 32 5f 73                              |32x2_s          |
     |                                               |                |              d{}: 0xa6-0xa7.7 (2)
0x0a0|                  00                           |      .         |                tag: "funcidx" (0x0) 0xa6-0xa6.7 (1)
0x0a0|                     04                        |       .        |                x: 4 0xa7-0xa7.7 (1)
     |                                               |                |            [5]{}: ex 0xa8-0xb9.7 (18)
     |                                               |                |              nm{}: 0xa8-0xb7.7 (16)
0x0a0|                        0f                     |        .       |                n: 15 0xa8-0xa8.7 (1)
0x0a0|                           76 31 32 38 2e 6c 6f|         v128.lo|                b: "v128.load32x2_u" 0xa9-0xb7.7 (15)
0x0b0|61 64 33 32 78 32 5f 75                        |ad32x2_u        |
     |                                               |                |              d{}: 0xb8-0xb9.7 (2)
0x0b0|                        00                     |        .       |                tag: "funcidx" (0x0) 0xb8-0xb8.7 (1)
0x0b0|                           05                  |         .      |                x: 5 0xb9-0xb9.7 (1)
     |                                               |                |            [6]{}: ex 0xba-0xd1.7 (24)
     |                                               |                |              nm{}: 0xba-0xcf.7 (22)
0x0b0|                              15               |          .     |                n: 21 0xba-0xba.7 (1)
0x0b0|                                 76 31 32 38 2e|           v128.|                b: "v128.load8x8_s_const0" 0xbb-0xcf.7 (21)
0x0c0|6c 6f 61 64 38 78 38 5f 73 5f 63 6f 6e 73 74 30|load8x8_s_const0|
     |                                               |                |              d{}: 0xd0-0xd1.7 (2)
0x0d0|00                                             |.               |                tag: "funcidx" (0x0) 0xd0-0xd0.7 (1)
0x0d0|   06                                          | .              |                x: 6 0xd1-0xd1.7 (1)
     |                                               |                |            [7]{}: ex 0xd2-0xe9.7 (24)
     |                                               |                |              nm{}: 0xd2-0xe7.7 (22)
0x0d0|      15                                       |  .             |                n: 21 0xd2-0xd2.7 (1)
0x0d0|         76 31 32 38 2e 6c 6f 61 64 38 78 38 5f|   v128.load8x8_|                b: "v128.load8x8_u_const8" 0xd3-0xe7.7 (21)
0x0e0|75 5f 63 6f 6e 73 74 38                        |u_const8        |
     |                                               |                |              d{}: 0xe8-0xe9.7 (2)
0x0e0|                        00                     |        .       |                tag: "funcidx" (0x0) 0xe8-0xe8.7 (1)
0x0e0|                           07                  |         .      |                x: 7 0xe9-0xe9.7 (1)
     |                                               |                |            [8]{}: ex 0xea-0x103.7 (26)
     |                                               |                |              nm{}: 0xea-0x101.7 (24)
0x0e0|                              17               |          .     |                n: 23 0xea-0xea.7 (1)
0x0e0|                                 76 31 32 38 2e|           v128.|                b: "v128.load16x4_s_const10" 0xeb-0x101.7 (23)
0x0f0|6c 6f 61 64 31 36 78 34 5f 73 5f 63 6f 6e 73 74|load16x4_s_const|
0x100|31 30                                          |10              |
     |                                               |                |              d{}: 0x102-0x103.7 (2)
0x100|      00                                       |  .             |                tag: "funcidx" (0x0) 0x102-0x102.7 (1)
0x100|         08                                    |   .            |                x: 8 0x103-0x103.7 (1)
     |                                               |                |            [9]{}: ex 0x104-0x11d.7 (26)
     |                                               |                |              nm{}: 0x104-0x11b.7 (24)
0x100|            17                                 |    .           |                n: 23 0x104-0x104.7 (1)
0x100|               76 31 32 38 2e 6c 6f 61 64 31 36|     v128.load16|                b: "v128.load16x4_u_const20" 0x105-0x11b.7 (23)
0x110|78 34 5f 75 5f 63 6f 6e 73 74 32 30            |x4_u_const20    |
     |                                               |                |              d{}: 0x11c-0x11d.7 (2)
0x110|                                    00         |            .   |                tag: "funcidx" (0x0) 0x11c-0x11c.7 (1)
0x110|                                       09      |             .  |                x: 9 0x11d-0x11d.7 (1)
     |                                               |                |            [10]{}: ex 0x11e-0x13a.7 (29)
     |                                               |                |              nm{}: 0x11e-0x138.7 (27)
0x110|                                          1a   |              . |                n: 26 0x11e-0x11e.7 (1)
0x110|                                             76|               v|                b: "v128.load32x2_s_const65520" 0x11f-0x138.7 (26)
0x120|31 32 38 2e 6c 6f 61 64 33 32 78 32 5f 73 5f 63|128.load32x2_s_c|
0x130|6f 6e 73 74 36 35 35 32 30                     |onst65520       |
     |                                               |                |              d{}: 0x139-0x13a.7 (2)
0x130|                           00                  |         .      |                tag: "funcidx" (0x0) 0x139-0x139.7 (1)
0x130|                              0a               |          .     |                x: 10 0x13a-0x13a.7 (1)
     |                                               |                |            [11]{}: ex 0x13b-0x157.7 (29)
     |                                               |                |              nm{}: 0x13b-0x155.7 (27)
0x130|                                 1a            |           .    |                n: 26 0x13b-0x13b.7 (1)
0x130|                                    76 31 32 38|            v128|                b: "v128.load32x2_u_const65526" 0x13c-0x155.7 (26)
0x140|2e 6c 6f 61 64 33 32 78 32 5f 75 5f 63 6f 6e 73|.load32x2_u_cons|
0x150|74 36 35 35 32 36                              |t65526          |
     |                                               |                |              d{}: 0x156-0x157.7 (2)
0x150|                  00                           |      .         |                tag: "funcidx" (0x0) 0x156-0x156.7 (1)
0x150|                     0b                        |       .        |                x: 11 0x157-0x157.7 (1)
     |                                               |                |            [12]{}: ex 0x158-0x170.7 (25)
     |                                               |                |              nm{}: 0x158-0x16e.7 (23)
0x150|                        16                     |        .       |                n: 22 0x158-0x158.7 (1)
0x150|                           76 31 32 38 2e 6c 6f|         v128.lo|                b: "v128.load8x8_s_offset0" 0x159-0x16e.7 (22)
0x160|61 64 38 78 38 5f 73 5f 6f 66 66 73 65 74 30   |ad8x8_s_offset0 |
     |                                               |                |              d{}: 0x16f-0x170.7 (2)
0x160|                                             00|               .|                tag: "funcidx" (0x0) 0x16f-0x16f.7 (1)
0x170|0c                                             |.               |                x: 12 0x170-0x170.7 (1)
     |                                               |                |            [13]{}: ex 0x171-0x188.7 (24)
     |                                               |                |              nm{}: 0x171-0x186.7 (22)
0x170|   15                                          | .              |                n: 21 0x171-0x171.7 (1)
0x170|      76 31 32 38 2e 6c 6f 61 64 38 78 38 5f 73|  v128.load8x8_s|                b: "v128.load8x8_s_align1" 0x172-0x186.7 (21)
0x180|5f 61 6c 69 67 6e 31                           |_align1         |
     |                                               |                |              d{}: 0x187-0x188.7 (2)
0x180|                     00                        |       .        |                tag: "funcidx" (0x0) 0x187-0x187.7 (1)
0x180|                        0d                     |        .       |                x: 13 0x188-0x188.7 (1)
     |                                               |                |            [14]{}: ex 0x189-0x1a8.7 (32)
     |                                               |                |              nm{}: 0x189-0x1a6.7 (30)
0x180|                           1d                  |         .      |                n: 29 0x189-0x189.7 (1)
0x180|                              76 31 32 38 2e 6c|          v128.l|                b: "v128.load8x8_s_offset0_align1" 0x18a-0x1a6.7 (29)
0x190|6f 61 64 38 78 38 5f 73 5f 6f 66 66 73 65 74 30|oad8x8_s_offset0|
0x1a0|5f 61 6c 69 67 6e 31                           |_align1         |
     |                                               |                |              d{}: 0x1a7-0x1a8.7 (2)
0x1a0|                     00                        |       .        |                tag: "funcidx" (0x0) 0x1a7-0x1a7.7 (1)
0x1a0|                        0e                     |        .       |                x: 14 0x1a8-0x1a8.7 (1)
     |                                               |                |            [15]{}: ex 0x1a9-0x1c8.7 (32)
     |                                               |                |              nm{}: 0x1a9-0x1c6.7 (30)
0x1a0|                           1d                  |         .      |                n: 29 0x1a9-0x1a9.7 (1)
0x1a0|                              76 31 32 38 2e 6c|          v128.l|                b: "v128.load8x8_s_offset1_align1" 0x1aa-0x1c6.7 (29)
0x1b0|6f 61 64 38 78 38 5f 73 5f 6f 66 66 73 65 74 31|oad8x8_s_offset1|
0x1c0|5f 61 6c 69 67 6e 31                           |_align1         |
     |                                               |                |              d{}: 0x1c7-0x1c8.7 (2)
0x1c0|                     00                        |       .        |                tag: "funcidx" (0x0) 0x1c7-0x1c7.7 (1)
0x1c0|                        0f                     |        .       |                x: 15 0x1c8-0x1c8.7 (1)
     |                                               |                |            [16]{}: ex 0x1c9-0x1e9.7 (33)
     |                                               |                |              nm{}: 0x1c9-0x1e7.7 (31)
0x1c0|                           1e                  |         .      |                n: 30 0x1c9-0x1c9.7 (1)
0x1c0|                              76 31 32 38 2e 6c|          v128.l|                b: "v128.load8x8_s_offset10_align4" 0x1ca-0x1e7.7 (30)
0x1d0|6f 61 64 38 78 38 5f 73 5f 6f 66 66 73 65 74 31|oad8x8_s_offset1|
0x1e0|30 5f 61 6c 69 67 6e 34                        |0_align4        |
     |                                               |                |              d{}: 0x1e8-0x1e9.7 (2)
0x1e0|                        00                     |        .       |                tag: "funcidx" (0x0) 0x1e8-0x1e8.7 (1)
0x1e0|                           10                  |         .      |                x: 16 0x1e9-0x1e9.7 (1)
     |                                               |                |            [17]{}: ex 0x1ea-0x20a.7 (33)
     |                                               |                |              nm{}: 0x1ea-0x208.7 (31)
0x1e0|                              1e               |          .     |                n: 30 0x1ea-0x1ea.7 (1)
0x1e0|                                 76 31 32 38 2e|           v128.|                b: "v128.load8x8_s_offset20_align8" 0x1eb-0x208.7 (30)
0x1f0|6c 6f 61 64 38 78 38 5f 73 5f 6f 66 66 73 65 74|load8x8_s_offset|
0x200|32 30 5f 61 6c 69 67 6e 38                     |20_align8       |
     |                                               |                |              d{}: 0x209-0x20a.7 (2)
0x200|                           00                  |         .      |                tag: "funcidx" (0x0) 0x209-0x209.7 (1)
0x200|                              11               |          .     |                x: 17 0x20a-0x20a.7 (1)
     |                                               |                |            [18]{}: ex 0x20b-0x223.7 (25)
     |                                               |                |              nm{}: 0x20b-0x221.7 (23)
0x200|                                 16            |           .    |                n: 22 0x20b-0x20b.7 (1)
0x200|                                    76 31 32 38|            v128|                b: "v128.load8x8_u_offset0" 0x20c-0x221.7 (22)
0x210|2e 6c 6f 61 64 38 78 38 5f 75 5f 6f 66 66 73 65|.load8x8_u_offse|
0x220|74 30                                          |t0              |
     |                                               |                |              d{}: 0x222-0x223.7 (2)
0x220|      00                                       |  .             |                tag: "funcidx" (0x0) 0x222-0x222.7 (1)
0x220|         12                                    |   .            |                x: 18 0x223-0x223.7 (1)
     |                                               |                |            [19]{}: ex 0x224-0x23b.7 (24)
     |                                               |                |              nm{}: 0x224-0x239.7 (22)
0x220|            15                                 |    .           |                n: 21 0x224-0x224.7 (1)
0x220|               76 31 32 38 2e 6c 6f 61 64 38 78|     v128.load8x|                b: "v128.load8x8_u_align1" 0x225-0x239.7 (21)
0x230|38 5f 75 5f 61 6c 69 67 6e 31                  |8_u_align1      |
     |                                               |                |              d{}: 0x23a-0x23b.7 (2)
0x230|                              00               |          .     |                tag: "funcidx" (0x0) 0x23a-0x23a.7 (1)
0x230|                                 13            |           .    |                x: 19 0x23b-0x23b.7 (1)
     |                                               |                |            [20]{}: ex 0x23c-0x25b.7 (32)
     |                                               |                |              nm{}: 0x23c-0x259.7 (30)
0x230|                                    1d         |            .   |                n: 29 0x23c-0x23c.7 (1)
0x230|                                       76 31 32|             v12|                b: "v128.load8x8_u_offset0_align1" 0x23d-0x259.7 (29)
0x240|38 2e 6c 6f 61 64 38 78 38 5f 75 5f 6f 66 66 73|8.load8x8_u_offs|
0x250|65 74 30 5f 61 6c 69 67 6e 31                  |et0_align1      |
     |                                               |                |              d{}: 0x25a-0x25b.7 (2)
0x250|                              00               |          .     |                tag: "funcidx" (0x0) 0x25a-0x25a.7 (1)
0x250|                                 14            |           .    |                x: 20 0x25b-0x25b.7 (1)
     |                                               |                |            [21]{}: ex 0x25c-0x27b.7 (32)
     |                                               |                |              nm{}: 0x25c-0x279.7 (30)
0x250|                                    1d         |            .   |                n: 29 0x25c-0x25c.7 (1)
0x250|                                       76 31 32|             v12|                b: "v128.load8x8_u_offset1_align1" 0x25d-0x279.7 (29)
0x260|38 2e 6c 6f 61 64 38 78 38 5f 75 5f 6f 66 66 73|8.load8x8_u_offs|
0x270|65 74 31 5f 61 6c 69 67 6e 31                  |et1_align1      |
     |                                               |                |              d{}: 0x27a-0x27b.7 (2)
0x270|                              00               |          .     |                tag: "funcidx" (0x0) 0x27a-0x27a.7 (1)
0x270|                                 15            |           .    |                x: 21 0x27b-0x27b.7 (1)
     |                                               |                |            [22]{}: ex 0x27c-0x29c.7 (33)
     |                                               |                |              nm{}: 0x27c-0x29a.7 (31)
0x270|                                    1e         |            .   |                n: 30 0x27c-0x27c.7 (1)
0x270|                                       76 31 32|             v12|                b: "v128.load8x8_u_offset10_align4" 0x27d-0x29a.7 (30)
0x280|38 2e 6c 6f 61 64 38 78 38 5f 75 5f 6f 66 66 73|8.load8x8_u_offs|
0x290|65 74 31 30 5f 61 6c 69 67 6e 34               |et10_align4     |
     |                                               |                |              d{}: 0x29b-0x29c.7 (2)
0x290|                                 00            |           .    |                tag: "funcidx" (0x0) 0x29b-0x29b.7 (1)
0x290|                                    16         |            .   |                x: 22 0x29c-0x29c.7 (1)
     |                                               |                |            [23]{}: ex 0x29d-0x2bd.7 (33)
     |                                               |                |              nm{}: 0x29d-0x2bb.7 (31)
0x290|                                       1e      |             .  |                n: 30 0x29d-0x29d.7 (1)
0x290|                                          76 31|              v1|                b: "v128.load8x8_u_offset20_align8" 0x29e-0x2bb.7 (30)
0x2a0|32 38 2e 6c 6f 61 64 38 78 38 5f 75 5f 6f 66 66|28.load8x8_u_off|
0x2b0|73 65 74 32 30 5f 61 6c 69 67 6e 38            |set20_align8    |
     |                                               |                |              d{}: 0x2bc-0x2bd.7 (2)
0x2b0|                                    00         |            .   |                tag: "funcidx" (0x0) 0x2bc-0x2bc.7 (1)
0x2b0|                                       17      |             .  |                x: 23 0x2bd-0x2bd.7 (1)
     |                                               |                |            [24]{}: ex 0x2be-0x2d7.7 (26)
     |                                               |                |              nm{}: 0x2be-0x2d5.7 (24)
0x2b0|                                          17   |              . |                n: 23 0x2be-0x2be.7 (1)
0x2b0|                                             76|               v|                b: "v128.load16x4_s_offset0" 0x2bf-0x2d5.7 (23)
0x2c0|31 32 38 2e 6c 6f 61 64 31 36 78 34 5f 73 5f 6f|128.load16x4_s_o|
0x2d0|66 66 73 65 74 30                              |ffset0          |
     |                                               |                |              d{}: 0x2d6-0x2d7.7 (2)
0x2d0|                  00                           |      .         |                tag: "funcidx" (0x0) 0x2d6-0x2d6.7 (1)
0x2d0|                     18                        |       .        |                x: 24 0x2d7-0x2d7.7 (1)
     |                                               |                |            [25]{}: ex 0x2d8-0x2f0.7 (25)
     |                                               |                |              nm{}: 0x2d8-0x2ee.7 (23)
0x2d0|                        16                     |        .       |                n: 22 0x2d8-0x2d8.7 (1)
0x2d0|                           76 31 32 38 2e 6c 6f|         v128.lo|                b: "v128.load16x4_s_align1" 0x2d9-0x2ee.7 (22)
0x2e0|61 64 31 36 78 34 5f 73 5f 61 6c 69 67 6e 31   |ad16x4_s_align1 |
     |                                               |                |              d{}: 0x2ef-0x2f0.7 (2)
0x2e0|                                             00|               .|                tag: "funcidx" (0x0) 0x2ef-0x2ef.7 (1)
0x2f0|19                                             |.               |                x: 25 0x2f0-0x2f0.7 (1)
     |                                               |                |            [26]{}: ex 0x2f1-0x311.7 (33)
     |                                               |                |              nm{}: 0x2f1-0x30f.7 (31)
0x2f0|   1e                                          | .              |                n: 30 0x2f1-0x2f1.7 (1)
0x2f0|      76 31 32 38 2e 6c 6f 61 64 31 36 78 34 5f|  v128.load16x4_|                b: "v128.load16x4_s_offset0_align1" 0x2f2-0x30f.7 (30)
0x300|73 5f 6f 66 66 73 65 74 30 5f 61 6c 69 67 6e 31|s_offset0_align1|
     |                                               |                |              d{}: 0x310-0x311.7 (2)
0x310|00                                             |.               |                tag: "funcidx" (0x0) 0x310-0x310.7 (1)
0x310|   1a                                          | .              |                x: 26 0x311-0x311.7 (1)
     |                                               |                |            [27]{}: ex 0x312-0x332.7 (33)
     |                                               |                |              nm{}: 0x312-0x330.7 (31)
0x310|      1e                                       |  .             |                n: 30 0x312-0x312.7 (1)
0x310|         76 31 32 38 2e 6c 6f 61 64 31 36 78 34|   v128.load16x4|                b: "v128.load16x4_s_offset1_align1" 0x313-0x330.7 (30)
0x320|5f 73 5f 6f 66 66 73 65 74 31 5f 61 6c 69 67 6e|_s_offset1_align|
0x330|31                                             |1               |
     |                                               |                |              d{}: 0x331-0x332.7 (2)
0x330|   00                                          | .              |                tag: "funcidx" (0x0) 0x331-0x331.7 (1)
0x330|      1b                                       |  .             |                x: 27 0x332-0x332.7 (1)
     |                                               |                |            [28]{}: ex 0x333-0x354.7 (34)
     |                                               |                |              nm{}: 0x333-0x352.7 (32)
0x330|         1f                                    |   .            |                n: 31 0x333-0x333.7 (1)
0x330|            76 31 32 38 2e 6c 6f 61 64 31 36 78|    v128.load16x|                b: "v128.load16x4_s_offset10_align4" 0x334-0x352.7 (31)
0x340|34 5f 73 5f 6f 66 66 73 65 74 31 30 5f 61 6c 69|4_s_offset10_ali|
0x350|67 6e 34                                       |gn4             |
     |                                               |                |              d{}: 0x353-0x354.7 (2)
0x350|         00                                    |   .            |                tag: "funcidx" (0x0) 0x353-0x353.7 (1)
0x350|            1c                                 |    .           |                x: 28 0x354-0x354.7 (1)
     |                                               |                |            [29]{}: ex 0x355-0x376.7 (34)
     |                                               |                |              nm{}: 0x355-0x374.7 (32)
0x350|               1f                              |     .          |                n: 31 0x355-0x355.7 (1)
0x350|                  76 31 32 38 2e 6c 6f 61 64 31|      v128.load1|                b: "v128.load16x4_s_offset20_align8" 0x356-0x374.7 (31)
0x360|36 78 34 5f 73 5f 6f 66 66 73 65 74 32 30 5f 61|6x4_s_offset20_a|
0x370|6c 69 67 6e 38                                 |lign8           |
     |                                               |                |              d{}: 0x375-0x376.7 (2)
0x370|               00                              |     .          |                tag: "funcidx" (0x0) 0x375-0x375.7 (1)
0x370|                  1d                           |      .         |                x: 29 0x376-0x376.7 (1)
     |                                               |                |            [30]{}: ex 0x377-0x390.7 (26)
     |                                               |                |              nm{}: 0x377-0x38e.7 (24)
0x370|                     17                        |       .        |                n: 23 0x377-0x377.7 (1)
0x370|                        76 31 32 38 2e 6c 6f 61|        v128.loa|                b: "v128.load16x4_u_offset0" 0x378-0x38e.7 (23)
0x380|64 31 36 78 34 5f 75 5f 6f 66 66 73 65 74 30   |d16x4_u_offset0 |
     |                                               |                |              d{}: 0x38f-0x390.7 (2)
0x380|                                             00|               .|                tag: "funcidx" (0x0) 0x38f-0x38f.7 (1)
0x390|1e                                             |.               |                x: 30 0x390-0x390.7 (1)
     |                                               |                |            [31]{}: ex 0x391-0x3a9.7 (25)
     |                                               |                |              nm{}: 0x391-0x3a7.7 (23)
0x390|   16                                          | .              |                n: 22 0x391-0x391.7 (1)
0x390|      76 31 32 38 2e 6c 6f 61 64 31 36 78 34 5f|  v128.load16x4_|                b: "v128.load16x4_u_align1" 0x392-0x3a7.7 (22)
0x3a0|75 5f 61 6c 69 67 6e 31                        |u_align1        |
     |                                               |                |              d{}: 0x3a8-0x3a9.7 (2)
0x3a0|                        00                     |        .       |                tag: "funcidx" (0x0) 0x3a8-0x3a8.7 (1)
0x3a0|                           1f                  |         .      |                x: 31 0x3a9-0x3a9.7 (1)
     |                                               |                |            [32]{}: ex 0x3aa-0x3ca.7 (33)
     |                                               |                |              nm{}: 0x3aa-0x3c8.7 (31)
0x3a0|                              1e               |          .     |                n: 30 0x3aa-0x3aa.7 (1)
0x3a0|                                 76 31 32 38 2e|           v128.|                b: "v128.load16x4_u_offset0_align1" 0x3ab-0x3c8.7 (30)
0x3b0|6c 6f 61 64 31 36 78 34 5f 75 5f 6f 66 66 73 65|load16x4_u_offse|
0x3c0|74 30 5f 61 6c 69 67 6e 31                     |t0_align1       |
     |                                               |                |              d{}: 0x3c9-0x3ca.7 (2)
0x3c0|                           00                  |         .      |                tag: "funcidx" (0x0) 0x3c9-0x3c9.7 (1)
0x3c0|                              20               |                |                x: 32 0x3ca-0x3ca.7 (1)
     |                                               |                |            [33]{}: ex 0x3cb-0x3eb.7 (33)
     |                                               |                |              nm{}: 0x3cb-0x3e9.7 (31)
0x3c0|                                 1e            |           .    |                n: 30 0x3cb-0x3cb.7 (1)
0x3c0|                                    76 31 32 38|            v128|                b: "v128.load16x4_u_offset1_align1" 0x3cc-0x3e9.7 (30)
0x3d0|2e 6c 6f 61 64 31 36 78 34 5f 75 5f 6f 66 66 73|.load16x4_u_offs|
0x3e0|65 74 31 5f 61 6c 69 67 6e 31                  |et1_align1      |
     |                                               |                |              d{}: 0x3ea-0x3eb.7 (2)
0x3e0|                              00               |          .     |                tag: "funcidx" (0x0) 0x3ea-0x3ea.7 (1)
0x3e0|                                 21            |           !    |                x: 33 0x3eb-0x3eb.7 (1)
     |                                               |                |            [34]{}: ex 0x3ec-0x40d.7 (34)
     |                                               |                |              nm{}: 0x3ec-0x40b.7 (32)
0x3e0|                                    1f         |            .   |                n: 31 0x3ec-0x3ec.7 (1)
0x3e0|                                       76 31 32|             v12|                b: "v128.load16x4_u_offset10_align4" 0x3ed-0x40b.7 (31)
0x3f0|38 2e 6c 6f 61 64 31 36 78 34 5f 75 5f 6f 66 66|8.load16x4_u_off|
0x400|73 65 74 31 30 5f 61 6c 69 67 6e 34            |set10_align4    |
     |                                               |                |              d{}: 0x40c-0x40d.7 (2)
0x400|                                    00         |            .   |                tag: "funcidx" (0x0) 0x40c-0x40c.7 (1)
0x400|                                       22      |             "  |                x: 34 0x40d-0x40d.7 (1)
     |                                               |                |            [35]{}: ex 0x40e-0x42f.7 (34)
     |                                               |                |              nm{}: 0x40e-0x42d.7 (32)
0x400|                                          1f   |              . |                n: 31 0x40e-0x40e.7 (1)
0x400|                                             76|               v|                b: "v128.load16x4_u_offset20_align8" 0x40f-0x42d.7 (31)
0x410|31 32 38 2e 6c 6f 61 64 31 36 78 34 5f 75 5f 6f|128.load16x4_u_o|
0x420|66 66 73 65 74 32 30 5f 61 6c 69 67 6e 38      |ffset20_align8  |
     |                                               |                |              d{}: 0x42e-0x42f.7 (2)
0x420|                                          00   |              . |                tag: "funcidx" (0x0) 0x42e-0x42e.7 (1)
0x420|                                             23|               #|                x: 35 0x42f-0x42f.7 (1)
     |                                               |                |            [36]{}: ex 0x430-0x449.7 (26)
     |                                               |                |              nm{}: 0x430-0x447.7 (24)
0x430|17                                             |.               |                n: 23 0x430-0x430.7 (1)
0x430|   76 31 32 38 2e 6c 6f 61 64 33 32 78 32 5f 73| v128.load32x2_s|                b: "v128.load32x2_s_offset0" 0x431-0x447.7 (23)
0x440|5f 6f 66 66 73 65 74 30                        |_offset0        |
     |                                               |                |              d{}: 0x448-0x449.7 (2)
0x440|                        00                     |        .       |                tag: "funcidx" (0x0) 0x448-0x448.7 (1)
0x440|                           24                  |         $      |                x: 36 0x449-0x449.7 (1)
     |                                               |                |            [37]{}: ex 0x44a-0x462.7 (25)
     |                                               |                |              nm{}: 0x44a-0x460.7 (23)
0x440|                              16               |          .     |                n: 22 0x44a-0x44a.7 (1)
0x440|                                 76 31 32 38 2e|           v128.|                b: "v128.load32x2_s_align1" 0x44b-0x460.7 (22)
0x450|6c 6f 61 64 33 32 78 32 5f 73 5f 61 6c 69 67 6e|load32x2_s_align|
0x460|31                                             |1               |
     |                                               |                |              d{}: 0x461-0x462.7 (2)
0x460|   00                                          | .              |                tag: "funcidx" (0x0) 0x461-0x461.7 (1)
0x460|      25                                       |  %             |                x: 37 0x462-0x462.7 (1)
     |                                               |                |            [38]{}: ex 0x463-0x483.7 (33)
     |                                               |                |              nm{}: 0x463-0x481.7 (31)
0x460|         1e                                    |   .            |                n: 30 0x463-0x463.7 (1)
0x460|            76 31 32 38 2e 6c 6f 61 64 33 32 78|    v128.load32x|                b: "v128.load32x2_s_offset0_align1" 0x464-0x481.7 (30)
0x470|32 5f 73 5f 6f 66 66 73 65 74 30 5f 61 6c 69 67|2_s_offset0_alig|
0x480|6e 31                                          |n1              |
     |                                               |                |              d{}: 0x482-0x483.7 (2)
0x480|      00                                       |  .             |                tag: "funcidx" (0x0) 0x482-0x482.7 (1)
0x480|         26                                    |   &            |                x: 38 0x483-0x483.7 (1)
     |                                               |                |            [39]{}: ex 0x484-0x4a4.7 (33)
     |                                               |                |              nm{}: 0x484-0x4a2.7 (31)
0x480|            1e                                 |    .           |                n: 30 0x484-0x484.7 (1)
0x480|               76 31 32 38 2e 6c 6f 61 64 33 32|     v128.load32|                b: "v128.load32x2_s_offset1_align1" 0x485-0x4a2.7 (30)
0x490|78 32 5f 73 5f 6f 66 66 73 65 74 31 5f 61 6c 69|x2_s_offset1_ali|
0x4a0|67 6e 31                                       |gn1             |
     |                                               |                |              d{}: 0x4a3-0x4a4.7 (2)
0x4a0|         00                                    |   .            |                tag: "funcidx" (0x0) 0x4a3-0x4a3.7 (1)
0x4a0|            27                                 |    '           |                x: 39 0x4a4-0x4a4.7 (1)
     |                                               |                |            [40]{}: ex 0x4a5-0x4c6.7 (34)
     |                                               |                |              nm{}: 0x4a5-0x4c4.7 (32)
0x4a0|               1f                              |     .          |                n: 31 0x4a5-0x4a5.7 (1)
0x4a0|                  76 31 32 38 2e 6c 6f 61 64 33|      v128.load3|                b: "v128.load32x2_s_offset10_align4" 0x4a6-0x4c4.7 (31)
0x4b0|32 78 32 5f 73 5f 6f 66 66 73 65 74 31 30 5f 61|2x2_s_offset10_a|
0x4c0|6c 69 67 6e 34                                 |lign4           |
     |                                               |                |              d{}: 0x4c5-0x4c6.7 (2)
0x4c0|               00                              |     .          |                tag: "funcidx" (0x0) 0x4c5-0x4c5.7 (1)
0x4c0|                  28                           |      (         |                x: 40 0x4c6-0x4c6.7 (1)
     |                                               |                |            [41]{}: ex 0x4c7-0x4e8.7 (34)
     |                                               |                |              nm{}: 0x4c7-0x4e6.7 (32)
0x4c0|                     1f                        |       .        |                n: 31 0x4c7-0x4c7.7 (1)
0x4c0|                        76 31 32 38 2e 6c 6f 61|        v128.loa|                b: "v128.load32x2_s_offset20_align8" 0x4c8-0x4e6.7 (31)
0x4d0|64 33 32 78 32 5f 73 5f 6f 66 66 73 65 74 32 30|d32x2_s_offset20|
0x4e0|5f 61 6c 69 67 6e 38                           |_align8         |
     |                                               |                |              d{}: 0x4e7-0x4e8.7 (2)
0x4e0|                     00                        |       .        |                tag: "funcidx" (0x0) 0x4e7-0x4e7.7 (1)
0x4e0|                        29                     |        )       |                x: 41 0x4e8-0x4e8.7 (1)
     |                                               |                |            [42]{}: ex 0x4e9-0x502.7 (26)
     |                                               |                |              nm{}: 0x4e9-0x500.7 (24)
0x4e0|                           17                  |         .      |                n: 23 0x4e9-0x4e9.7 (1)
0x4e0|                              76 31 32 38 2e 6c|          v128.l|                b: "v128.load32x2_u_offset0" 0x4ea-0x500.7 (23)
0x4f0|6f 61 64 33 32 78 32 5f 75 5f 6f 66 66 73 65 74|oad32x2_u_offset|
0x500|30                                             |0               |
     |                                               |                |              d{}: 0x501-0x502.7 (2)
0x500|   00                                          | .              |                tag: "funcidx" (0x0) 0x501-0x501.7 (1)
0x500|      2a                                       |  *             |                x: 42 0x502-0x502.7 (1)
     |                                               |                |            [43]{}: ex 0x503-0x51b.7 (25)
     |                                               |                |              nm{}: 0x503-0x519.7 (23)
0x500|         16                                    |   .            |                n: 22 0x503-0x503.7 (1)
0x500|            76 31 32 38 2e 6c 6f 61 64 33 32 78|    v128.load32x|                b: "v128.load32x2_u_align1" 0x504-0x519.7 (22)
0x510|32 5f 75 5f 61 6c 69 67 6e 31                  |2_u_align1      |
     |                                               |                |              d{}: 0x51a-0x51b.7 (2)
0x510|                              00               |          .     |                tag: "funcidx" (0x0) 0x51a-0x51a.7 (1)
0x510|                                 2b            |           +    |                x: 43 0x51b-0x51b.7 (1)
     |                                               |                |            [44]{}: ex 0x51c-0x53c.7 (33)
     |                                               |                |              nm{}: 0x51c-0x53a.7 (31)
0x510|                                    1e         |            .   |                n: 30 0x51c-0x51c.7 (1)
0x510|                                       76 31 32|             v12|                b: "v128.load32x2_u_offset0_align1" 0x51d-0x53a.7 (30)
0x520|38 2e 6c 6f 61 64 33 32 78 32 5f 75 5f 6f 66 66|8.load32x2_u_off|
0x530|73 65 74 30 5f 61 6c 69 67 6e 31               |set0_align1     |
     |                                               |                |              d{}: 0x53b-0x53c.7 (2)
0x530|                                 00            |           .    |                tag: "funcidx" (0x0) 0x53b-0x53b.7 (1)
0x530|                                    2c         |            ,   |                x: 44 0x53c-0x53c.7 (1)
     |                                               |                |            [45]{}: ex 0x53d-0x55d.7 (33)
     |                                               |                |              nm{}: 0x53d-0x55b.7 (31)
0x530|                                       1e      |             .  |                n: 30 0x53d-0x53d.7 (1)
0x530|                                          76 31|              v1|                b: "v128.load32x2_u_offset1_align1" 0x53e-0x55b.7 (30)
0x540|32 38 2e 6c 6f 61 64 33 32 78 32 5f 75 5f 6f 66|28.load32x2_u_of|
0x550|66 73 65 74 31 5f 61 6c 69 67 6e 31            |fset1_align1    |
     |                                               |                |              d{}: 0x55c-0x55d.7 (2)
0x550|                                    00         |            .   |                tag: "funcidx" (0x0) 0x55c-0x55c.7 (1)
0x550|                                       2d      |             -  |                x: 45 0x55d-0x55d.7 (1)
     |                                               |                |            [46]{}: ex 0x55e-0x57f.7 (34)
     |                                               |                |              nm{}: 0x55e-0x57d.7 (32)
0x550|                                          1f   |              . |                n: 31 0x55e-0x55e.7 (1)
0x550|                                             76|               v|                b: "v128.load32x2_u_offset10_align4" 0x55f-0x57d.7 (31)
0x560|31 32 38 2e 6c 6f 61 64 33 32 78 32 5f 75 5f 6f|128.load32x2_u_o|
0x570|66 66 73 65 74 31 30 5f 61 6c 69 67 6e 34      |ffset10_align4  |
     |                                               |                |              d{}: 0x57e-0x57f.7 (2)
0x570|                                          00   |              . |                tag: "funcidx" (0x0) 0x57e-0x57e.7 (1)
0x570|                                             2e|               .|                x: 46 0x57f-0x57f.7 (1)
     |                                               |                |            [47]{}: ex 0x580-0x5a1.7 (34)
     |                                               |                |              nm{}: 0x580-0x59f.7 (32)
0x580|1f                                             |.               |                n: 31 0x580-0x580.7 (1)
0x580|   76 31 32 38 2e 6c 6f 61 64 33 32 78 32 5f 75| v128.load32x2_u|                b: "v128.load32x2_u_offset20_align8" 0x581-0x59f.7 (31)
0x590|5f 6f 66 66 73 65 74 32 30 5f 61 6c 69 67 6e 38|_offset20_align8|
     |                                               |                |              d{}: 0x5a0-0x5a1.7 (2)
0x5a0|00                                             |.               |                tag: "funcidx" (0x0) 0x5a0-0x5a0.7 (1)
0x5a0|   2f                                          | /              |                x: 47 0x5a1-0x5a1.7 (1)
     |                                               |                |    [4]{}: section 0x5a2-0x759.7 (440)
0x5a0|      0a                                       |  .             |      id: "code section" (10) 0x5a2-0x5a2.7 (1)
0x5a0|         b5 03                                 |   ..           |      size: 437 0x5a3-0x5a4.7 (2)
     |                                               |                |      content{}: 0x5a5-0x759.7 (437)
     |                                               |                |        code{}: 0x5a5-0x759.7 (437)
0x5a0|               30                              |     0          |          n: 48 0x5a5-0x5a5.7 (1)
     |                                               |                |          x[0:48]: 0x5a6-0x759.7 (436)
     |                                               |                |            [0]{}: code 0x5a6-0x5ae.7 (9)
0x5a0|                  08                           |      .         |              size: 8 0x5a6-0x5a6.7 (1)
     |                                               |                |              code{}: 0x5a7-0x5ae.7 (8)
     |                                               |                |                t{}: 0x5a7-0x5a7.7 (1)
0x5a0|                     00                        |       .        |                  n: 0 0x5a7-0x5a7.7 (1)
     |                                               |                |                  x[0:0]: 0x5a8-NA (0)
     |                                               |                |                e[0:3]: 0x5a8-0x5ae.7 (7)
     |                                               |                |                  [0]{}: in 0x5a8-0x5a9.7 (2)
0x5a0|                        20                     |                |                    local.get: 0x20 (valid) 0x5a8-0x5a8.7 (1)
0x5a0|                           00                  |         .      |                    x: 0 0x5a9-0x5a9.7 (1)
     |                                               |                |                  [1]{}: in 0x5aa-0x5ad.7 (4)
0x5a0|                              fd               |          .     |                    prefix: 0xfd (valid) 0x5aa-0x5aa.7 (1)
0x5a0|                                 01            |           .    |                    v128.load8x8_s: 1 (valid) 0x5ab-0x5ab.7 (1)
     |                                               |                |                    m{}: 0x5ac-0x5ad.7 (2)
0x5a0|                                    03         |            .   |                      a: 3 0x5ac-0x5ac.7 (1)
0x5a0|                                       00      |             .  |                      o: 0 0x5ad-0x5ad.7 (1)
     |                                               |                |                  [2]{}: in 0x5ae-0x5ae.7 (1)
0x5a0|                                          0b   |              . |                    end: 0xb (valid) 0x5ae-0x5ae.7 (1)
     |                                               |                |            [1]{}: code 0x5af-0x5b7.7 (9)
0x5a0|                                             08|               .|              size: 8 0x5af-0x5af.7 (1)
     |                                               |                |              code{}: 0x5b0-0x5b7.7 (8)
     |                                               |                |                t{}: 0x5b0-0x5b0.7 (1)
0x5b0|00                                             |.               |                  n: 0 0x5b0-0x5b0.7 (1)
     |                                               |                |                  x[0:0]: 0x5b1-NA (0)
     |                                               |                |                e[0:3]: 0x5b1-0x5b7.7 (7)
     |                                               |                |                  [0]{}: in 0x5b1-0x5b2.7 (2)
0x5b0|   20                                          |                |                    local.get: 0x20 (valid) 0x5b1-0x5b1.7 (1)
0x5b0|      00                                       |  .             |                    x: 0 0x5b2-0x5b2.7 (1)
     |                                               |                |                  [1]{}: in 0x5b3-0x5b6.7 (4)
0x5b0|         fd                                    |   .            |                    prefix: 0xfd (valid) 0x5b3-0x5b3.7 (1)
0x5b0|            02                                 |    .           |                    v128.load8x8_u: 2 (valid) 0x5b4-0x5b4.7 (1)
     |                                               |                |                    m{}: 0x5b5-0x5b6.7 (2)
0x5b0|               03                              |     .          |                      a: 3 0x5b5-0x5b5.7 (1)
0x5b0|                  00                           |      .         |                      o: 0 0x5b6-0x5b6.7 (1)
     |                                               |                |                  [2]{}: in 0x5b7-0x5b7.7 (1)
0x5b0|                     0b                        |       .        |                    end: 0xb (valid) 0x5b7-0x5b7.7 (1)
     |                                               |                |            [2]{}: code 0x5b8-0x5c0.7 (9)
0x5b0|                        08                     |        .       |              size: 8 0x5b8-0x5b8.7 (1)
     |                                               |                |              code{}: 0x5b9-0x5c0.7 (8)
     |                                               |                |                t{}: 0x5b9-0x5b9.7 (1)
0x5b0|                           00                  |         .      |                  n: 0 0x5b9-0x5b9.7 (1)
     |                                               |                |                  x[0:0]: 0x5ba-NA (0)
     |                                               |                |                e[0:3]: 0x5ba-0x5c0.7 (7)
     |                                               |                |                  [0]{}: in 0x5ba-0x5bb.7 (2)
0x5b0|                              20               |                |                    local.get: 0x20 (valid) 0x5ba-0x5ba.7 (1)
0x5b0|                                 00            |           .    |                    x: 0 0x5bb-0x5bb.7 (1)
     |                                               |                |                  [1]{}: in 0x5bc-0x5bf.7 (4)
0x5b0|                                    fd         |            .   |                    prefix: 0xfd (valid) 0x5bc-0x5bc.7 (1)
0x5b0|                                       03      |             .  |                    v128.load16x4_s: 3 (valid) 0x5bd-0x5bd.7 (1)
     |                                               |                |                    m{}: 0x5be-0x5bf.7 (2)
0x5b0|                                          03   |              . |                      a: 3 0x5be-0x5be.7 (1)
0x5b0|                                             00|               .|                      o: 0 0x5bf-0x5bf.7 (1)
     |                                               |                |                  [2]{}: in 0x5c0-0x5c0.7 (1)
0x5c0|0b                                             |.               |                    end: 0xb (valid) 0x5c0-0x5c0.7 (1)
     |                                               |                |            [3]{}: code 0x5c1-0x5c9.7 (9)
0x5c0|   08                                          | .              |              size: 8 0x5c1-0x5c1.7 (1)
     |                                               |                |              code{}: 0x5c2-0x5c9.7 (8)
     |                                               |                |                t{}: 0x5c2-0x5c2.7 (1)
0x5c0|      00                                       |  .             |                  n: 0 0x5c2-0x5c2.7 (1)
     |                                               |                |                  x[0:0]: 0x5c3-NA (0)
     |                                               |                |                e[0:3]: 0x5c3-0x5c9.7 (7)
     |                                               |                |                  [0]{}: in 0x5c3-0x5c4.7 (2)
0x5c0|         20                                    |                |                    local.get: 0x20 (valid) 0x5c3-0x5c3.7 (1)
0x5c0|            00                                 |    .           |                    x: 0 0x5c4-0x5c4.7 (1)
     |                                               |                |                  [1]{}: in 0x5c5-0x5c8.7 (4)
0x5c0|               fd                              |     .          |                    prefix: 0xfd (valid) 0x5c5-0x5c5.7 (1)
0x5c0|                  04                           |      .         |                    v128.load16x4_u: 4 (valid) 0x5c6-0x5c6.7 (1)
     |                                               |                |                    m{}: 0x5c7-0x5c8.7 (2)
0x5c0|                     03                        |       .        |                      a: 3 0x5c7-0x5c7.7 (1)
0x5c0|                        00                     |        .       |                      o: 0 0x5c8-0x5c8.7 (1)
     |                                               |                |                  [2]{}: in 0x5c9-0x5c9.7 (1)
0x5c0|                           0b                  |         .      |                    end: 0xb (valid) 0x5c9-0x5c9.7 (1)
     |                                               |                |            [4]{}: code 0x5ca-0x5d2.7 (9)
0x5c0|                              08               |          .     |              size: 8 0x5ca-0x5ca.7 (1)
     |                                               |                |              code{}: 0x5cb-0x5d2.7 (8)
     |                                               |                |                t{}: 0x5cb-0x5cb.7 (1)
0x5c0|                                 00            |           .    |                  n: 0 0x5cb-0x5cb.7 (1)
     |                                               |                |                  x[0:0]: 0x5cc-NA (0)
     |                                               |                |                e[0:3]: 0x5cc-0x5d2.7 (7)
     |                                               |                |                  [0]{}: in 0x5cc-0x5cd.7 (2)
0x5c0|                                    20         |                |                    local.get: 0x20 (valid) 0x5cc-0x5cc.7 (1)
0x5c0|                                       00      |             .  |                    x: 0 0x5cd-0x5cd.7 (1)
     |                                               |                |                  [1]{}: in 0x5ce-0x5d1.7 (4)
0x5c0|                                          fd   |              . |                    prefix: 0xfd (valid) 0x5ce-0x5ce.7 (1)
0x5c0|                                             05|               .|                    v128.load32x2_s: 5 (valid) 0x5cf-0x5cf.7 (1)
     |                                               |                |                    m{}: 0x5d0-0x5d1.7 (2)
0x5d0|03                                             |.               |                      a: 3 0x5d0-0x5d0.7 (1)
0x5d0|   00                                          | .              |                      o: 0 0x5d1-0x5d1.7 (1)
     |                                               |                |                  [2]{}: in 0x5d2-0x5d2.7 (1)
0x5d0|      0b                                       |  .             |                    end: 0xb (valid) 0x5d2-0x5d2.7 (1)
     |                                               |                |            [5]{}: code 0x5d3-0x5db.7 (9)
0x5d0|         08                                    |   .            |              size: 8 0x5d3-0x5d3.7 (1)
     |                                               |                |              code{}: 0x5d4-0x5db.7 (8)
     |                                               |                |                t{}: 0x5d4-0x5d4.7 (1)
0x5d0|            00                                 |    .           |                  n: 0 0x5d4-0x5d4.7 (1)
     |                                               |                |                  x[0:0]: 0x5d5-NA (0)
     |                                               |                |                e[0:3]: 0x5d5-0x5db.7 (7)
     |                                               |                |                  [0]{}: in 0x5d5-0x5d6.7 (2)
0x5d0|               20                              |                |                    local.get: 0x20 (valid) 0x5d5-0x5d5.7 (1)
0x5d0|                  00                           |      .         |                    x: 0 0x5d6-0x5d6.7 (1)
     |                                               |                |                  [1]{}: in 0x5d7-0x5da.7 (4)
0x5d0|                     fd                        |       .        |                    prefix: 0xfd (valid) 0x5d7-0x5d7.7 (1)
0x5d0|                        06                     |        .       |                    v128.load32x2_u: 6 (valid) 0x5d8-0x5d8.7 (1)
     |                                               |                |                    m{}: 0x5d9-0x5da.7 (2)
0x5d0|                           03                  |         .      |                      a: 3 0x5d9-0x5d9.7 (1)
0x5d0|                              00               |          .     |                      o: 0 0x5da-0x5da.7 (1)
     |                                               |                |                  [2]{}: in 0x5db-0x5db.7 (1)
0x5d0|                                 0b            |           .    |                    end: 0xb (valid) 0x5db-0x5db.7 (1)
     |                                               |                |            [6]{}: code 0x5dc-0x5e4.7 (9)
0x5d0|                                    08         |            .   |              size: 8 0x5dc-0x5dc.7 (1)
     |                                               |                |              code{}: 0x5dd-0x5e4.7 (8)
     |                                               |                |                t{}: 0x5dd-0x5dd.7 (1)
0x5d0|                                       00      |             .  |                  n: 0 0x5dd-0x5dd.7 (1)
     |                                               |                |                  x[0:0]: 0x5de-NA (0)
     |                                               |                |                e[0:3]: 0x5de-0x5e4.7 (7)
     |                                               |                |                  [0]{}: in 0x5de-0x5df.7 (2)
0x5d0|                                          41   |              A |                    i32.const: 0x41 (valid) 0x5de-0x5de.7 (1)
0x5d0|                                             00|               .|                    n: 0 0x5df-0x5df.7 (1)
     |                                               |                |                  [1]{}: in 0x5e0-0x5e3.7 (4)
0x5e0|fd                                             |.               |                    prefix: 0xfd (valid) 0x5e0-0x5e0.7 (1)
0x5e0|   01                                          | .              |                    v128.load8x8_s: 1 (valid) 0x5e1-0x5e1.7 (1)
     |                                               |                |                    m{}: 0x5e2-0x5e3.7 (2)
0x5e0|      03                                       |  .             |                      a: 3 0x5e2-0x5e2.7 (1)
0x5e0|         00                                    |   .            |                      o: 0 0x5e3-0x5e3.7 (1)
     |                                               |                |                  [2]{}: in 0x5e4-0x5e4.7 (1)
0x5e0|            0b                                 |    .           |                    end: 0xb (valid) 0x5e4-0x5e4.7 (1)
     |                                               |                |            [7]{}: code 0x5e5-0x5ed.7 (9)
0x5e0|               08                              |     .          |              size: 8 0x5e5-0x5e5.7 (1)
     |                                               |                |              code{}: 0x5e6-0x5ed.7 (8)
     |                                               |                |                t{}: 0x5e6-0x5e6.7 (1)
0x5e0|                  00                           |      .         |                  n: 0 0x5e6-0x5e6.7 (1)
     |                                               |                |                  x[0:0]: 0x5e7-NA (0)
     |                                               |                |                e[0:3]: 0x5e7-0x5ed.7 (7)
     |                                               |                |                  [0]{}: in 0x5e7-0x5e8.7 (2)
0x5e0|                     41                        |       A        |                    i32.const: 0x41 (valid) 0x5e7-0x5e7.7 (1)
0x5e0|                        08                     |        .       |                    n: 8 0x5e8-0x5e8.7 (1)
     |                                               |                |                  [1]{}: in 0x5e9-0x5ec.7 (4)
0x5e0|                           fd                  |         .      |                    prefix: 0xfd (valid) 0x5e9-0x5e9.7 (1)
0x5e0|                              02               |          .     |                    v128.load8x8_u: 2 (valid) 0x5ea-0x5ea.7 (1)
     |                                               |                |                    m{}: 0x5eb-0x5ec.7 (2)
0x5e0|                                 03            |           .    |                      a: 3 0x5eb-0x5eb.7 (1)
0x5e0|                                    00         |            .   |                      o: 0 0x5ec-0x5ec.7 (1)
     |                                               |                |                  [2]{}: in 0x5ed-0x5ed.7 (1)
0x5e0|                                       0b      |             .  |                    end: 0xb (valid) 0x5ed-0x5ed.7 (1)
     |                                               |                |            [8]{}: code 0x5ee-0x5f6.7 (9)
0x5e0|                                          08   |              . |              size: 8 0x5ee-0x5ee.7 (1)
     |                                               |                |              code{}: 0x5ef-0x5f6.7 (8)
     |                                               |                |                t{}: 0x5ef-0x5ef.7 (1)
0x5e0|                                             00|               .|                  n: 0 0x5ef-0x5ef.7 (1)
     |                                               |                |                  x[0:0]: 0x5f0-NA (0)
     |                                               |                |                e[0:3]: 0x5f0-0x5f6.7 (7)
     |                                               |                |                  [0]{}: in 0x5f0-0x5f1.7 (2)
0x5f0|41                                             |A               |                    i32.const: 0x41 (valid) 0x5f0-0x5f0.7 (1)
0x5f0|   0a                                          | .              |                    n: 10 0x5f1-0x5f1.7 (1)
     |                                               |                |                  [1]{}: in 0x5f2-0x5f5.7 (4)
0x5f0|      fd                                       |  .             |                    prefix: 0xfd (valid) 0x5f2-0x5f2.7 (1)
0x5f0|         03                                    |   .            |                    v128.load16x4_s: 3 (valid) 0x5f3-0x5f3.7 (1)
     |                                               |                |                    m{}: 0x5f4-0x5f5.7 (2)
0x5f0|            03                                 |    .           |                      a: 3 0x5f4-0x5f4.7 (1)
0x5f0|               00                              |     .          |                      o: 0 0x5f5-0x5f5.7 (1)
     |                                               |                |                  [2]{}: in 0x5f6-0x5f6.7 (1)
0x5f0|                  0b                           |      .         |                    end: 0xb (valid) 0x5f6-0x5f6.7 (1)
     |                                               |                |            [9]{}: code 0x5f7-0x5ff.7 (9)
0x5f0|                     08                        |       .        |              size: 8 0x5f7-0x5f7.7 (1)
     |                                               |                |              code{}: 0x5f8-0x5ff.7 (8)
     |                                               |                |                t{}: 0x5f8-0x5f8.7 (1)
0x5f0|                        00                     |        .       |                  n: 0 0x5f8-0x5f8.7 (1)
     |                                               |                |                  x[0:0]: 0x5f9-NA (0)
     |                                               |                |                e[0:3]: 0x5f9-0x5ff.7 (7)
     |                                               |                |                  [0]{}: in 0x5f9-0x5fa.7 (2)
0x5f0|                           41                  |         A      |                    i32.const: 0x41 (valid) 0x5f9-0x5f9.7 (1)
0x5f0|                              14               |          .     |                    n: 20 0x5fa-0x5fa.7 (1)
     |                                               |                |                  [1]{}: in 0x5fb-0x5fe.7 (4)
0x5f0|                                 fd            |           .    |                    prefix: 0xfd (valid) 0x5fb-0x5fb.7 (1)
0x5f0|                                    04         |            .   |                    v128.load16x4_u: 4 (valid) 0x5fc-0x5fc.7 (1)
     |                                               |                |                    m{}: 0x5fd-0x5fe.7 (2)
0x5f0|                                       03      |             .  |                      a: 3 0x5fd-0x5fd.7 (1)
0x5f0|                                          00   |              . |                      o: 0 0x5fe-0x5fe.7 (1)
     |                                               |                |                  [2]{}: in 0x5ff-0x5ff.7 (1)
0x5f0|                                             0b|               .|                    end: 0xb (valid) 0x5ff-0x5ff.7 (1)
     |                                               |                |            [10]{}: code 0x600-0x60a.7 (11)
0x600|0a                                             |.               |              size: 10 0x600-0x600.7 (1)
     |                                               |                |              code{}: 0x601-0x60a.7 (10)
     |                                               |                |                t{}: 0x601-0x601.7 (1)
0x600|   00                                          | .              |                  n: 0 0x601-0x601.7 (1)
     |                                               |                |                  x[0:0]: 0x602-NA (0)
     |                                               |                |                e[0:3]: 0x602-0x60a.7 (9)
     |                                               |                |                  [0]{}: in 0x602-0x605.7 (4)
0x600|      41                                       |  A             |                    i32.const: 0x41 (valid) 0x602-0x602.7 (1)
0x600|         f0 ff 03                              |   ...          |                    n: 65520 0x603-0x605.7 (3)
     |                                               |                |                  [1]{}: in 0x606-0x609.7 (4)
0x600|                  fd                           |      .         |                    prefix: 0xfd (valid) 0x606-0x606.7 (1)
0x600|                     05                        |       .        |                    v128.load32x2_s: 5 (valid) 0x607-0x607.7 (1)
     |                                               |                |                    m{}: 0x608-0x609.7 (2)
0x600|                        03                     |        .       |                      a: 3 0x608-0x608.7 (1)
0x600|                           00                  |         .      |                      o: 0 0x609-0x609.7 (1)
     |                                               |                |                  [2]{}: in 0x60a-0x60a.7 (1)
0x600|                              0b               |          .     |                    end: 0xb (valid) 0x60a-0x60a.7 (1)
     |                                               |                |            [11]{}: code 0x60b-0x615.7 (11)
0x600|                                 0a            |           .    |              size: 10 0x60b-0x60b.7 (1)
     |                                               |                |              code{}: 0x60c-0x615.7 (10)
     |                                               |                |                t{}: 0x60c-0x60c.7 (1)
0x600|                                    00         |            .   |                  n: 0 0x60c-0x60c.7 (1)
     |                                               |                |                  x[0:0]: 0x60d-NA (0)
     |                                               |                |                e[0:3]: 0x60d-0x615.7 (9)
     |                                               |                |                  [0]{}: in 0x60d-0x610.7 (4)
0x600|                                       41      |             A  |                    i32.const: 0x41 (valid) 0x60d-0x60d.7 (1)
0x600|                                          f6 ff|              ..|                    n: 65526 0x60e-0x610.7 (3)
0x610|03                                             |.               |
     |                                               |                |                  [1]{}: in 0x611-0x614.7 (4)
0x610|   fd                                          | .              |                    prefix: 0xfd (valid) 0x611-0x611.7 (1)
0x610|      06                                       |  .             |                    v128.load32x2_u: 6 (valid) 0x612-0x612.7 (1)
     |                                               |                |                    m{}: 0x613-0x614.7 (2)
0x610|         03                                    |   .            |                      a: 3 0x613-0x613.7 (1)
0x610|            00                                 |    .           |                      o: 0 0x614-0x614.7 (1)
     |                                               |                |                  [2]{}: in 0x615-0x615.7 (1)
0x610|               0b                              |     .          |                    end: 0xb (valid) 0x615-0x615.7 (1)
     |                                               |                |            [12]{}: code 0x616-0x61e.7 (9)
0x610|                  08                           |      .         |              size: 8 0x616-0x616.7 (1)
     |                                               |                |              code{}: 0x617-0x61e.7 (8)
     |                                               |                |                t{}: 0x617-0x617.7 (1)
0x610|                     00                        |       .        |                  n: 0 0x617-0x617.7 (1)
     |                                               |                |                  x[0:0]: 0x618-NA (0)
     |                                               |                |                e[0:3]: 0x618-0x61e.7 (7)
     |                                               |                |                  [0]{}: in 0x618-0x619.7 (2)
0x610|                        20                     |                |                    local.get: 0x20 (valid) 0x618-0x618.7 (1)
0x610|                           00                  |         .      |                    x: 0 0x619-0x619.7 (1)
     |                                               |                |                  [1]{}: in 0x61a-0x61d.7 (4)
0x610|                              fd               |          .     |                    prefix: 0xfd (valid) 0x61a-0x61a.7 (1)
0x610|                                 01            |           .    |                    v128.load8x8_s: 1 (valid) 0x61b-0x61b.7 (1)
     |                                               |                |                    m{}: 0x61c-0x61d.7 (2)
0x610|                                    03         |            .   |                      a: 3 0x61c-0x61c.7 (1)
0x610|                                       00      |             .  |                      o: 0 0x61d-0x61d.7 (1)
     |                                               |                |                  [2]{}: in 0x61e-0x61e.7 (1)
0x610|                                          0b   |              . |                    end: 0xb (valid) 0x61e-0x61e.7 (1)
     |                                               |                |            [13]{}: code 0x61f-0x627.7 (9)
0x610|                                             08|               .|              size: 8 0x61f-0x61f.7 (1)
     |                                               |                |              code{}: 0x620-0x627.7 (8)
     |                                               |                |                t{}: 0x620-0x620.7 (1)
0x620|00                                             |.               |                  n: 0 0x620-0x620.7 (1)
     |                                               |                |                  x[0:0]: 0x621-NA (0)
     |                                               |                |                e[0:3]: 0x621-0x627.7 (7)
     |                                               |                |                  [0]{}: in 0x621-0x622.7 (2)
0x620|   20                                          |                |                    local.get: 0x20 (valid) 0x621-0x621.7 (1)
0x620|      00                                       |  .             |                    x: 0 0x622-0x622.7 (1)
     |                                               |                |                  [1]{}: in 0x623-0x626.7 (4)
0x620|         fd                                    |   .            |                    prefix: 0xfd (valid) 0x623-0x623.7 (1)
0x620|            01                                 |    .           |                    v128.load8x8_s: 1 (valid) 0x624-0x624.7 (1)
     |                                               |                |                    m{}: 0x625-0x626.7 (2)
0x620|               00                              |     .          |                      a: 0 0x625-0x625.7 (1)
0x620|                  00                           |      .         |                      o: 0 0x626-0x626.7 (1)
     |                                               |                |                  [2]{}: in 0x627-0x627.7 (1)
0x620|                     0b                        |       .        |                    end: 0xb (valid) 0x627-0x627.7 (1)
     |                                               |                |            [14]{}: code 0x628-0x630.7 (9)
0x620|                        08                     |        .       |              size: 8 0x628-0x628.7 (1)
     |                                               |                |              code{}: 0x629-0x630.7 (8)
     |                                               |                |                t{}: 0x629-0x629.7 (1)
0x620|                           00                  |         .      |                  n: 0 0x629-0x629.7 (1)
     |                                               |                |                  x[0:0]: 0x62a-NA (0)
     |                                               |                |                e[0:3]: 0x62a-0x630.7 (7)
     |                                               |                |                  [0]{}: in 0x62a-0x62b.7 (2)
0x620|                              20               |                |                    local.get: 0x20 (valid) 0x62a-0x62a.7 (1)
0x620|                                 00            |           .    |                    x: 0 0x62b-0x62b.7 (1)
     |                                               |                |                  [1]{}: in 0x62c-0x62f.7 (4)
0x620|                                    fd         |            .   |                    prefix: 0xfd (valid) 0x62c-0x62c.7 (1)
0x620|                                       01      |             .  |                    v128.load8x8_s: 1 (valid) 0x62d-0x62d.7 (1)
     |                                               |                |                    m{}: 0x62e-0x62f.7 (2)
0x620|                                          00   |              . |                      a: 0 0x62e-0x62e.7 (1)
0x620|                                             00|               .|                      o: 0 0x62f-0x62f.7 (1)
     |                                               |                |                  [2]{}: in 0x630-0x630.7 (1)
0x630|0b                                             |.               |                    end: 0xb (valid) 0x630-0x630.7 (1)
     |                                               |                |            [15]{}: code 0x631-0x639.7 (9)
0x630|   08                                          | .              |              size: 8 0x631-0x631.7 (1)
     |                                               |                |              code{}: 0x632-0x639.7 (8)
     |                                               |                |                t{}: 0x632-0x632.7 (1)
0x630|      00                                       |  .             |                  n: 0 0x632-0x632.7 (1)
     |                                               |                |                  x[0:0]: 0x633-NA (0)
     |                                               |                |                e[0:3]: 0x633-0x639.7 (7)
     |                                               |                |                  [0]{}: in 0x633-0x634.7 (2)
0x630|         20                                    |                |                    local.get: 0x20 (valid) 0x633-0x633.7 (1)
0x630|            00                                 |    .           |                    x: 0 0x634-0x634.7 (1)
     |                                               |                |                  [1]{}: in 0x635-0x638.7 (4)
0x630|               fd                              |     .          |                    prefix: 0xfd (valid) 0x635-0x635.7 (1)
0x630|                  01                           |      .         |                    v128.load8x8_s: 1 (valid) 0x636-0x636.7 (1)
     |                                               |                |                    m{}: 0x637-0x638.7 (2)
0x630|                     00                        |       .        |                      a: 0 0x637-0x637.7 (1)
0x630|                        01                     |        .       |                      o: 1 0x638-0x638.7 (1)
     |                                               |                |                  [2]{}: in 0x639-0x639.7 (1)
0x630|                           0b                  |         .      |                    end: 0xb (valid) 0x639-0x639.7 (1)
     |                                               |                |            [16]{}: code 0x63a-0x642.7 (9)
0x630|                              08               |          .     |              size: 8 0x63a-0x63a.7 (1)
     |                                               |                |              code{}: 0x63b-0x642.7 (8)
     |                                               |                |                t{}: 0x63b-0x63b.7 (1)
0x630|                                 00            |           .    |                  n: 0 0x63b-0x63b.7 (1)
     |                                               |                |                  x[0:0]: 0x63c-NA (0)
     |                                               |                |                e[0:3]: 0x63c-0x642.7 (7)
     |                                               |                |                  [0]{}: in 0x63c-0x63d.7 (2)
0x630|                                    20         |                |                    local.get: 0x20 (valid) 0x63c-0x63c.7 (1)
0x630|                                       00      |             .  |                    x: 0 0x63d-0x63d.7 (1)
     |                                               |                |                  [1]{}: in 0x63e-0x641.7 (4)
0x630|                                          fd   |              . |                    prefix: 0xfd (valid) 0x63e-0x63e.7 (1)
0x630|                                             01|               .|                    v128.load8x8_s: 1 (valid) 0x63f-0x63f.7 (1)
     |                                               |                |                    m{}: 0x640-0x641.7 (2)
0x640|02                                             |.               |                      a: 2 0x640-0x640.7 (1)
0x640|   0a                                          | .              |                      o: 10 0x641-0x641.7 (1)
     |                                               |                |                  [2]{}: in 0x642-0x642.7 (1)
0x640|      0b                                       |  .             |                    end: 0xb (valid) 0x642-0x642.7 (1)
     |                                               |                |            [17]{}: code 0x643-0x64b.7 (9)
0x640|         08                                    |   .            |              size: 8 0x643-0x643.7 (1)
     |                                               |                |              code{}: 0x644-0x64b.7 (8)
     |                                               |                |                t{}: 0x644-0x644.7 (1)
0x640|            00                                 |    .           |                  n: 0 0x644-0x644.7 (1)
     |                                               |                |                  x[0:0]: 0x645-NA (0)
     |                                               |                |                e[0:3]: 0x645-0x64b.7 (7)
     |                                               |                |                  [0]{}: in 0x645-0x646.7 (2)
0x640|               20                              |                |                    local.get: 0x20 (valid) 0x645-0x645.7 (1)
0x640|                  00                           |      .         |                    x: 0 0x646-0x646.7 (1)
     |                                               |                |                  [1]{}: in 0x647-0x64a.7 (4)
0x640|                     fd                        |       .        |                    prefix: 0xfd (valid) 0x647-0x647.7 (1)
0x640|                        01                     |        .       |                    v128.load8x8_s: 1 (valid) 0x648-0x648.7 (1)
     |                                               |                |                    m{}: 0x649-0x64a.7 (2)
0x640|                           03                  |         .      |                      a: 3 0x649-0x649.7 (1)
0x640|                              14               |          .     |                      o: 20 0x64a-0x64a.7 (1)
     |                                               |                |                  [2]{}: in 0x64b-0x64b.7 (1)
0x640|                                 0b            |           .    |                    end: 0xb (valid) 0x64b-0x64b.7 (1)
     |                                               |                |            [18]{}: code 0x64c-0x654.7 (9)
0x640|                                    08         |            .   |              size: 8 0x64c-0x64c.7 (1)
     |                                               |                |              code{}: 0x64d-0x654.7 (8)
     |                                               |                |                t{}: 0x64d-0x64d.7 (1)
0x640|                                       00      |             .  |                  n: 0 0x64d-0x64d.7 (1)
     |                                               |                |                  x[0:0]: 0x64e-NA (0)
     |                                               |                |                e[0:3]: 0x64e-0x654.7 (7)
     |                                               |                |                  [0]{}: in 0x64e-0x64f.7 (2)
0x640|                                          20   |                |                    local.get: 0x20 (valid) 0x64e-0x64e.7 (1)
0x640|                                             00|               .|                    x: 0 0x64f-0x64f.7 (1)
     |                                               |                |                  [1]{}: in 0x650-0x653.7 (4)
0x650|fd                                             |.               |                    prefix: 0xfd (valid) 0x650-0x650.7 (1)
0x650|   02                                          | .              |                    v128.load8x8_u: 2 (valid) 0x651-0x651.7 (1)
     |                                               |                |                    m{}: 0x652-0x653.7 (2)
0x650|      03                                       |  .             |                      a: 3 0x652-0x652.7 (1)
0x650|         00                                    |   .            |                      o: 0 0x653-0x653.7 (1)
     |                                               |                |                  [2]{}: in 0x654-0x654.7 (1)
0x650|            0b                                 |    .           |                    end: 0xb (valid) 0x654-0x654.7 (1)
     |                                               |                |            [19]{}: code 0x655-0x65d.7 (9)
0x650|               08                              |     .          |              size: 8 0x655-0x655.7 (1)
     |                                               |                |              code{}: 0x656-0x65d.7 (8)
     |                                               |                |                t{}: 0x656-0x656.7 (1)
0x650|                  00                           |      .         |                  n: 0 0x656-0x656.7 (1)
     |                                               |                |                  x[0:0]: 0x657-NA (0)
     |                                               |                |                e[0:3]: 0x657-0x65d.7 (7)
     |                                               |                |                  [0]{}: in 0x657-0x658.7 (2)
0x650|                     20                        |                |                    local.get: 0x20 (valid) 0x657-0x657.7 (1)
0x650|                        00                     |        .       |                    x: 0 0x658-0x658.7 (1)
     |                                               |                |                  [1]{}: in 0x659-0x65c.7 (4)
0x650|                           fd                  |         .      |                    prefix: 0xfd (valid) 0x659-0x659.7 (1)
0x650|                              02               |          .     |                    v128.load8x8_u: 2 (valid) 0x65a-0x65a.7 (1)
     |                                               |                |                    m{}: 0x65b-0x65c.7 (2)
0x650|                                 00            |           .    |                      a: 0 0x65b-0x65b.7 (1)
0x650|                                    00         |            .   |                      o: 0 0x65c-0x65c.7 (1)
     |                                               |                |                  [2]{}: in 0x65d-0x65d.7 (1)
0x650|                                       0b      |             .  |                    end: 0xb (valid) 0x65d-0x65d.7 (1)
     |                                               |                |            [20]{}: code 0x65e-0x666.7 (9)
0x650|                                          08   |              . |              size: 8 0x65e-0x65e.7 (1)
     |                                               |                |              code{}: 0x65f-0x666.7 (8)
     |                                               |                |                t{}: 0x65f-0x65f.7 (1)
0x650|                                             00|               .|                  n: 0 0x65f-0x65f.7 (1)
     |                                               |                |                  x[0:0]: 0x660-NA (0)
     |                                               |                |                e[0:3]: 0x660-0x666.7 (7)
     |                                               |                |                  [0]{}: in 0x660-0x661.7 (2)
0x660|20                                             |                |                    local.get: 0x20 (valid) 0x660-0x660.7 (1)
0x660|   00                                          | .              |                    x: 0 0x661-0x661.7 (1)
     |                                               |                |                  [1]{}: in 0x662-0x665.7 (4)
0x660|      fd                                       |  .             |                    prefix: 0xfd (valid) 0x662-0x662.7 (1)
0x660|         02                                    |   .            |                    v128.load8x8_u: 2 (valid) 0x663-0x663.7 (1)
     |                                               |                |                    m{}: 0x664-0x665.7 (2)
0x660|            00                                 |    .           |                      a: 0 0x664-0x664.7 (1)
0x660|               00                              |     .          |                      o: 0 0x665-0x665.7 (1)
     |                                               |                |                  [2]{}: in 0x666-0x666.7 (1)
0x660|                  0b                           |      .         |                    end: 0xb (valid) 0x666-0x666.7 (1)
     |                                               |                |            [21]{}: code 0x667-0x66f.7 (9)
0x660|                     08                        |       .        |              size: 8 0x667-0x667.7 (1)
     |                                               |                |              code{}: 0x668-0x66f.7 (8)
     |                                               |                |                t{}: 0x668-0x668.7 (1)
0x660|                        00                     |        .       |                  n: 0 0x668-0x668.7 (1)
     |                                               |                |                  x[0:0]: 0x669-NA (0)
     |                                               |                |                e[0:3]: 0x669-0x66f.7 (7)
     |                                               |                |                  [0]{}: in 0x669-0x66a.7 (2)
0x660|                           20                  |                |                    local.get: 0x20 (valid) 0x669-0x669.7 (1)
0x660|                              00               |          .     |                    x: 0 0x66a-0x66a.7 (1)
     |                                               |                |                  [1]{}: in 0x66b-0x66e.7 (4)
0x660|                                 fd            |           .    |                    prefix: 0xfd (valid) 0x66b-0x66b.7 (1)
0x660|                                    02         |            .   |                    v128.load8x8_u: 2 (valid) 0x66c-0x66c.7 (1)
     |                                               |                |                    m{}: 0x66d-0x66e.7 (2)
0x660|                                       00      |             .  |                      a: 0 0x66d-0x66d.7 (1)
0x660|                                          01   |              . |                      o: 1 0x66e-0x66e.7 (1)
     |                                               |                |                  [2]{}: in 0x66f-0x66f.7 (1)
0x660|                                             0b|               .|                    end: 0xb (valid) 0x66f-0x66f.7 (1)
     |                                               |                |            [22]{}: code 0x670-0x678.7 (9)
0x670|08                                             |.               |              size: 8 0x670-0x670.7 (1)
     |                                               |                |              code{}: 0x671-0x678.7 (8)
     |                                               |                |                t{}: 0x671-0x671.7 (1)
0x670|   00                                          | .              |                  n: 0 0x671-0x671.7 (1)
     |                                               |                |                  x[0:0]: 0x672-NA (0)
     |                                               |                |                e[0:3]: 0x672-0x678.7 (7)
     |                                               |                |                  [0]{}: in 0x672-0x673.7 (2)
0x670|      20                                       |                |                    local.get: 0x20 (valid) 0x672-0x672.7 (1)
0x670|         00                                    |   .            |                    x: 0 0x673-0x673.7 (1)
     |                                               |                |                  [1]{}: in 0x674-0x677.7 (4)
0x670|            fd                                 |    .           |                    prefix: 0xfd (valid) 0x674-0x674.7 (1)
0x670|               02                              |     .          |                    v128.load8x8_u: 2 (valid) 0x675-0x675.7 (1)
     |                                               |                |                    m{}: 0x676-0x677.7 (2)
0x670|                  02                           |      .         |                      a: 2 0x676-0x676.7 (1)
0x670|                     0a                        |       .        |                      o: 10 0x677-0x677.7 (1)
     |                                               |                |                  [2]{}: in 0x678-0x678.7 (1)
0x670|                        0b                     |        .       |                    end: 0xb (valid) 0x678-0x678.7 (1)
     |                                               |                |            [23]{}: code 0x679-0x681.7 (9)
0x670|                           08                  |         .      |              size: 8 0x679-0x679.7 (1)
     |                                               |                |              code{}: 0x67a-0x681.7 (8)
     |                                               |                |                t{}: 0x67a-0x67a.7 (1)
0x670|                              00               |          .     |                  n: 0 0x67a-0x67a.7 (1)
     |                                               |                |                  x[0:0]: 0x67b-NA (0)
     |                                               |                |                e[0:3]: 0x67b-0x681.7 (7)
     |                                               |                |                  [0]{}: in 0x67b-0x67c.7 (2)
0x670|                                 20            |                |                    local.get: 0x20 (valid) 0x67b-0x67b.7 (1)
0x670|                                    00         |            .   |                    x: 0 0x67c-0x67c.7 (1)
     |                                               |                |                  [1]{}: in 0x67d-0x680.7 (4)
0x670|                                       fd      |             .  |                    prefix: 0xfd (valid) 0x67d-0x67d.7 (1)
0x670|                                          02   |              . |                    v128.load8x8_u: 2 (valid) 0x67e-0x67e.7 (1)
     |                                               |                |                    m{}: 0x67f-0x680.7 (2)
0x670|                                             03|               .|                      a: 3 0x67f-0x67f.7 (1)
0x680|14                                             |.               |                      o: 20 0x680-0x680.7 (1)
     |                                               |                |                  [2]{}: in 0x681-0x681.7 (1)
0x680|   0b                                          | .              |                    end: 0xb (valid) 0x681-0x681.7 (1)
     |                                               |                |            [24]{}: code 0x682-0x68a.7 (9)
0x680|      08                                       |  .             |              size: 8 0x682-0x682.7 (1)
     |                                               |                |              code{}: 0x683-0x68a.7 (8)
     |                                               |                |                t{}: 0x683-0x683.7 (1)
0x680|         00                                    |   .            |                  n: 0 0x683-0x683.7 (1)
     |                                               |                |                  x[0:0]: 0x684-NA (0)
     |                                               |                |                e[0:3]: 0x684-0x68a.7 (7)
     |                                               |                |                  [0]{}: in 0x684-0x685.7 (2)
0x680|            20                                 |                |                    local.get: 0x20 (valid) 0x684-0x684.7 (1)
0x680|               00                              |     .          |                    x: 0 0x685-0x685.7 (1)
     |                                               |                |                  [1]{}: in 0x686-0x689.7 (4)
0x680|                  fd                           |      .         |                    prefix: 0xfd (valid) 0x686-0x686.7 (1)
0x680|                     03                        |       .        |                    v128.load16x4_s: 3 (valid) 0x687-0x687.7 (1)
     |                                               |                |                    m{}: 0x688-0x689.7 (2)
0x680|                        03                     |        .       |                      a: 3 0x688-0x688.7 (1)
0x680|                           00                  |         .      |                      o: 0 0x689-0x689.7 (1)
     |                                               |                |                  [2]{}: in 0x68a-0x68a.7 (1)
0x680|                              0b               |          .     |                    end: 0xb (valid) 0x68a-0x68a.7 (1)
     |                                               |                |            [25]{}: code 0x68b-0x693.7 (9)
0x680|                                 08            |           .    |              size: 8 0x68b-0x68b.7 (1)
     |                                               |                |              code{}: 0x68c-0x693.7 (8)
     |                                               |                |                t{}: 0x68c-0x68c.7 (1)
0x680|                                    00         |            .   |                  n: 0 0x68c-0x68c.7 (1)
     |                                               |                |                  x[0:0]: 0x68d-NA (0)
     |                                               |                |                e[0:3]: 0x68d-0x693.7 (7)
     |                                               |                |                  [0]{}: in 0x68d-0x68e.7 (2)
0x680|                                       20      |                |                    local.get: 0x20 (valid) 0x68d-0x68d.7 (1)
0x680|                                          00   |              . |                    x: 0 0x68e-0x68e.7 (1)
     |                                               |                |                  [1]{}: in 0x68f-0x692.7 (4)
0x680|                                             fd|               .|                    prefix: 0xfd (valid) 0x68f-0x68f.7 (1)
0x690|03                                             |.               |                    v128.load16x4_s: 3 (valid) 0x690-0x690.7 (1)
     |                                               |                |                    m{}: 0x691-0x692.7 (2)
0x690|   00                                          | .              |                      a: 0 0x691-0x691.7 (1)
0x690|      00                                       |  .             |                      o: 0 0x692-0x692.7 (1)
     |                                               |                |                  [2]{}: in 0x693-0x693.7 (1)
0x690|         0b                                    |   .            |                    end: 0xb (valid) 0x693-0x693.7 (1)
     |                                               |                |            [26]{}: code 0x694-0x69c.7 (9)
0x690|            08                                 |    .           |              size: 8 0x694-0x694.7 (1)
     |                                               |                |              code{}: 0x695-0x69c.7 (8)
     |                                               |                |                t{}: 0x695-0x695.7 (1)
0x690|               00                              |     .          |                  n: 0 0x695-0x695.7 (1)
     |                                               |                |                  x[0:0]: 0x696-NA (0)
     |                                               |                |                e[0:3]: 0x696-0x69c.7 (7)
     |                                               |                |                  [0]{}: in 0x696-0x697.7 (2)
0x690|                  20                           |                |                    local.get: 0x20 (valid) 0x696-0x696.7 (1)
0x690|                     00                        |       .        |                    x: 0 0x697-0x697.7 (1)
     |                                               |                |                  [1]{}: in 0x698-0x69b.7 (4)
0x690|                        fd                     |        .       |                    prefix: 0xfd (valid) 0x698-0x698.7 (1)
0x690|                           03                  |         .      |                    v128.load16x4_s: 3 (valid) 0x699-0x699.7 (1)
     |                                               |                |                    m{}: 0x69a-0x69b.7 (2)
0x690|                              00               |          .     |                      a: 0 0x69a-0x69a.7 (1)
0x690|                                 00            |           .    |                      o: 0 0x69b-0x69b.7 (1)
     |                                               |                |                  [2]{}: in 0x69c-0x69c.7 (1)
0x690|                                    0b         |            .   |                    end: 0xb (valid) 0x69c-0x69c.7 (1)
     |                                               |                |            [27]{}: code 0x69d-0x6a5.7 (9)
0x690|                                       08      |             .  |              size: 8 0x69d-0x69d.7 (1)
     |                                               |                |              code{}: 0x69e-0x6a5.7 (8)
     |                                               |                |                t{}: 0x69e-0x69e.7 (1)
0x690|                                          00   |              . |                  n: 0 0x69e-0x69e.7 (1)
     |                                               |                |                  x[0:0]: 0x69f-NA (0)
     |                                               |                |                e[0:3]: 0x69f-0x6a5.7 (7)
     |                                               |                |                  [0]{}: in 0x69f-0x6a0.7 (2)
0x690|                                             20|                |                    local.get: 0x20 (valid) 0x69f-0x69f.7 (1)
0x6a0|00                                             |.               |                    x: 0 0x6a0-0x6a0.7 (1)
     |                                               |                |                  [1]{}: in 0x6a1-0x6a4.7 (4)
0x6a0|   fd                                          | .              |                    prefix: 0xfd (valid) 0x6a1-0x6a1.7 (1)
0x6a0|      03                                       |  .             |                    v128.load16x4_s: 3 (valid) 0x6a2-0x6a2.7 (1)
     |                                               |                |                    m{}: 0x6a3-0x6a4.7 (2)
0x6a0|         00                                    |   .            |                      a: 0 0x6a3-0x6a3.7 (1)
0x6a0|            01                                 |    .           |                      o: 1 0x6a4-0x6a4.7 (1)
     |                                               |                |                  [2]{}: in 0x6a5-0x6a5.7 (1)
0x6a0|               0b                              |     .          |                    end: 0xb (valid) 0x6a5-0x6a5.7 (1)
     |                                               |                |            [28]{}: code 0x6a6-0x6ae.7 (9)
0x6a0|                  08                           |      .         |              size: 8 0x6a6-0x6a6.7 (1)
     |                                               |                |              code{}: 0x6a7-0x6ae.7 (8)
     |                                               |                |                t{}: 0x6a7-0x6a7.7 (1)
0x6a0|                     00                        |       .        |                  n: 0 0x6a7-0x6a7.7 (1)
     |                                               |                |                  x[0:0]: 0x6a8-NA (0)
     |                                               |                |                e[0:3]: 0x6a8-0x6ae.7 (7)
     |                                               |                |                  [0]{}: in 0x6a8-0x6a9.7 (2)
0x6a0|                        20                     |                |                    local.get: 0x20 (valid) 0x6a8-0x6a8.7 (1)
0x6a0|                           00                  |         .      |                    x: 0 0x6a9-0x6a9.7 (1)
     |                                               |                |                  [1]{}: in 0x6aa-0x6ad.7 (4)
0x6a0|                              fd               |          .     |                    prefix: 0xfd (valid) 0x6aa-0x6aa.7 (1)
0x6a0|                                 03            |           .    |                    v128.load16x4_s: 3 (valid) 0x6ab-0x6ab.7 (1)
     |                                               |                |                    m{}: 0x6ac-0x6ad.7 (2)
0x6a0|                                    02         |            .   |                      a: 2 0x6ac-0x6ac.7 (1)
0x6a0|                                       0a      |             .  |                      o: 10 0x6ad-0x6ad.7 (1)
     |                                               |                |                  [2]{}: in 0x6ae-0x6ae.7 (1)
0x6a0|                                          0b   |              . |                    end: 0xb (valid) 0x6ae-0x6ae.7 (1)
     |                                               |                |            [29]{}: code 0x6af-0x6b7.7 (9)
0x6a0|                                             08|               .|              size: 8 0x6af-0x6af.7 (1)
     |                                               |                |              code{}: 0x6b0-0x6b7.7 (8)
     |                                               |                |                t{}: 0x6b0-0x6b0.7 (1)
0x6b0|00                                             |.               |                  n: 0 0x6b0-0x6b0.7 (1)
     |                                               |                |                  x[0:0]: 0x6b1-NA (0)
     |                                               |                |                e[0:3]: 0x6b1-0x6b7.7 (7)
     |                                               |                |                  [0]{}: in 0x6b1-0x6b2.7 (2)
0x6b0|   20                                          |                |                    local.get: 0x20 (valid) 0x6b1-0x6b1.7 (1)
0x6b0|      00                                       |  .             |                    x: 0 0x6b2-0x6b2.7 (1)
     |                                               |                |                  [1]{}: in 0x6b3-0x6b6.7 (4)
0x6b0|         fd                                    |   .            |                    prefix: 0xfd (valid) 0x6b3-0x6b3.7 (1)
0x6b0|            03                                 |    .           |                    v128.load16x4_s: 3 (valid) 0x6b4-0x6b4.7 (1)
     |                                               |                |                    m{}: 0x6b5-0x6b6.7 (2)
0x6b0|               03                              |     .          |                      a: 3 0x6b5-0x6b5.7 (1)
0x6b0|                  14                           |      .         |                      o: 20 0x6b6-0x6b6.7 (1)
     |                                               |                |                  [2]{}: in 0x6b7-0x6b7.7 (1)
0x6b0|                     0b                        |       .        |                    end: 0xb (valid) 0x6b7-0x6b7.7 (1)
     |                                               |                |            [30]{}: code 0x6b8-0x6c0.7 (9)
0x6b0|                        08                     |        .       |              size: 8 0x6b8-0x6b8.7 (1)
     |                                               |                |              code{}: 0x6b9-0x6c0.7 (8)
     |                                               |                |                t{}: 0x6b9-0x6b9.7 (1)
0x6b0|                           00                  |         .      |                  n: 0 0x6b9-0x6b9.7 (1)
     |                                               |                |                  x[0:0]: 0x6ba-NA (0)
     |                                               |                |                e[0:3]: 0x6ba-0x6c0.7 (7)
     |                                               |                |                  [0]{}: in 0x6ba-0x6bb.7 (2)
0x6b0|                              20               |                |                    local.get: 0x20 (valid) 0x6ba-0x6ba.7 (1)
0x6b0|                                 00            |           .    |                    x: 0 0x6bb-0x6bb.7 (1)
     |                                               |                |                  [1]{}: in 0x6bc-0x6bf.7 (4)
0x6b0|                                    fd         |            .   |                    prefix: 0xfd (valid) 0x6bc-0x6bc.7 (1)
0x6b0|                                       04      |             .  |                    v128.load16x4_u: 4 (valid) 0x6bd-0x6bd.7 (1)
     |                                               |                |                    m{}: 0x6be-0x6bf.7 (2)
0x6b0|                                          03   |              . |                      a: 3 0x6be-0x6be.7 (1)
0x6b0|                                             00|               .|                      o: 0 0x6bf-0x6bf.7 (1)
     |                                               |                |                  [2]{}: in 0x6c0-0x6c0.7 (1)
0x6c0|0b                                             |.               |                    end: 0xb (valid) 0x6c0-0x6c0.7 (1)
     |                                               |                |            [31]{}: code 0x6c1-0x6c9.7 (9)
0x6c0|   08                                          | .              |              size: 8 0x6c1-0x6c1.7 (1)
     |                                               |                |              code{}: 0x6c2-0x6c9.7 (8)
     |                                               |                |                t{}: 0x6c2-0x6c2.7 (1)
0x6c0|      00                                       |  .             |                  n: 0 0x6c2-0x6c2.7 (1)
     |                                               |                |                  x[0:0]: 0x6c3-NA (0)
     |                                               |                |                e[0:3]: 0x6c3-0x6c9.7 (7)
     |                                               |                |                  [0]{}: in 0x6c3-0x6c4.7 (2)
0x6c0|         20                                    |                |                    local.get: 0x20 (valid) 0x6c3-0x6c3.7 (1)
0x6c0|            00                                 |    .           |                    x: 0 0x6c4-0x6c4.7 (1)
     |                                               |                |                  [1]{}: in 0x6c5-0x6c8.7 (4)
0x6c0|               fd                              |     .          |                    prefix: 0xfd (valid) 0x6c5-0x6c5.7 (1)
0x6c0|                  04                           |      .         |                    v128.load16x4_u: 4 (valid) 0x6c6-0x6c6.7 (1)
     |                                               |                |                    m{}: 0x6c7-0x6c8.7 (2)
0x6c0|                     00                        |       .        |                      a: 0 0x6c7-0x6c7.7 (1)
0x6c0|                        00                     |        .       |                      o: 0 0x6c8-0x6c8.7 (1)
     |                                               |                |                  [2]{}: in 0x6c9-0x6c9.7 (1)
0x6c0|                           0b                  |         .      |                    end: 0xb (valid) 0x6c9-0x6c9.7 (1)
     |                                               |                |            [32]{}: code 0x6ca-0x6d2.7 (9)
0x6c0|                              08               |          .     |              size: 8 0x6ca-0x6ca.7 (1)
     |                                               |                |              code{}: 0x6cb-0x6d2.7 (8)
     |                                               |                |                t{}: 0x6cb-0x6cb.7 (1)
0x6c0|                                 00            |           .    |                  n: 0 0x6cb-0x6cb.7 (1)
     |                                               |                |                  x[0:0]: 0x6cc-NA (0)
     |                                               |                |                e[0:3]: 0x6cc-0x6d2.7 (7)
     |                                               |                |                  [0]{}: in 0x6cc-0x6cd.7 (2)
0x6c0|                                    20         |                |                    local.get: 0x20 (valid) 0x6cc-0x6cc.7 (1)
0x6c0|                                       00      |             .  |                    x: 0 0x6cd-0x6cd.7 (1)
     |                                               |                |                  [1]{}: in 0x6ce-0x6d1.7 (4)
0x6c0|                                          fd   |              . |                    prefix: 0xfd (valid) 0x6ce-0x6ce.7 (1)
0x6c0|                                             04|               .|                    v128.load16x4_u: 4 (valid) 0x6cf-0x6cf.7 (1)
     |                                               |                |                    m{}: 0x6d0-0x6d1.7 (2)
0x6d0|00                                             |.               |                      a: 0 0x6d0-0x6d0.7 (1)
0x6d0|   00                                          | .              |                      o: 0 0x6d1-0x6d1.7 (1)
     |                                               |                |                  [2]{}: in 0x6d2-0x6d2.7 (1)
0x6d0|      0b                                       |  .             |                    end: 0xb (valid) 0x6d2-0x6d2.7 (1)
     |                                               |                |            [33]{}: code 0x6d3-0x6db.7 (9)
0x6d0|         08                                    |   .            |              size: 8 0x6d3-0x6d3.7 (1)
     |                                               |                |              code{}: 0x6d4-0x6db.7 (8)
     |                                               |                |                t{}: 0x6d4-0x6d4.7 (1)
0x6d0|            00                                 |    .           |                  n: 0 0x6d4-0x6d4.7 (1)
     |                                               |                |                  x[0:0]: 0x6d5-NA (0)
     |                                               |                |                e[0:3]: 0x6d5-0x6db.7 (7)
     |                                               |                |                  [0]{}: in 0x6d5-0x6d6.7 (2)
0x6d0|               20                              |                |                    local.get: 0x20 (valid) 0x6d5-0x6d5.7 (1)
0x6d0|                  00                           |      .         |                    x: 0 0x6d6-0x6d6.7 (1)
     |                                               |                |                  [1]{}: in 0x6d7-0x6da.7 (4)
0x6d0|                     fd                        |       .        |                    prefix: 0xfd (valid) 0x6d7-0x6d7.7 (1)
0x6d0|                        04                     |        .       |                    v128.load16x4_u: 4 (valid) 0x6d8-0x6d8.7 (1)
     |                                               |                |                    m{}: 0x6d9-0x6da.7 (2)
0x6d0|                           00                  |         .      |                      a: 0 0x6d9-0x6d9.7 (1)
0x6d0|                              01               |          .     |                      o: 1 0x6da-0x6da.7 (1)
     |                                               |                |                  [2]{}: in 0x6db-0x6db.7 (1)
0x6d0|                                 0b            |           .    |                    end: 0xb (valid) 0x6db-0x6db.7 (1)
     |                                               |                |            [34]{}: code 0x6dc-0x6e4.7 (9)
0x6d0|                                    08         |            .   |              size: 8 0x6dc-0x6dc.7 (1)
     |                                               |                |              code{}: 0x6dd-0x6e4.7 (8)
     |                                               |                |                t{}: 0x6dd-0x6dd.7 (1)
0x6d0|                                       00      |             .  |                  n: 0 0x6dd-0x6dd.7 (1)
     |                                               |                |                  x[0:0]: 0x6de-NA (0)
     |                                               |                |                e[0:3]: 0x6de-0x6e4.7 (7)
     |                                               |                |                  [0]{}: in 0x6de-0x6df.7 (2)
0x6d0|                                          20   |                |                    local.get: 0x20 (valid) 0x6de-0x6de.7 (1)
0x6d0|                                             00|               .|                    x: 0 0x6df-0x6df.7 (1)
     |                                               |                |                  [1]{}: in 0x6e0-0x6e3.7 (4)
0x6e0|fd                                             |.               |                    prefix: 0xfd (valid) 0x6e0-0x6e0.7 (1)
0x6e0|   04                                          | .              |                    v128.load16x4_u: 4 (valid) 0x6e1-0x6e1.7 (1)
     |                                               |                |                    m{}: 0x6e2-0x6e3.7 (2)
0x6e0|      02                                       |  .             |                      a: 2 0x6e2-0x6e2.7 (1)
0x6e0|         0a                                    |   .            |                      o: 10 0x6e3-0x6e3.7 (1)
     |                                               |                |                  [2]{}: in 0x6e4-0x6e4.7 (1)
0x6e0|            0b                                 |    .           |                    end: 0xb (valid) 0x6e4-0x6e4.7 (1)
     |                                               |                |            [35]{}: code 0x6e5-0x6ed.7 (9)
0x6e0|               08                              |     .          |              size: 8 0x6e5-0x6e5.7 (1)
     |                                               |                |              code{}: 0x6e6-0x6ed.7 (8)
     |                                               |                |                t{}: 0x6e6-0x6e6.7 (1)
0x6e0|                  00                           |      .         |                  n: 0 0x6e6-0x6e6.7 (1)
     |                                               |                |                  x[0:0]: 0x6e7-NA (0)
     |                                               |                |                e[0:3]: 0x6e7-0x6ed.7 (7)
     |                                               |                |                  [0]{}: in 0x6e7-0x6e8.7 (2)
0x6e0|                     20                        |                |                    local.get: 0x20 (valid) 0x6e7-0x6e7.7 (1)
0x6e0|                        00                     |        .       |                    x: 0 0x6e8-0x6e8.7 (1)
     |                                               |                |                  [1]{}: in 0x6e9-0x6ec.7 (4)
0x6e0|                           fd                  |         .      |                    prefix: 0xfd (valid) 0x6e9-0x6e9.7 (1)
0x6e0|                              04               |          .     |                    v128.load16x4_u: 4 (valid) 0x6ea-0x6ea.7 (1)
     |                                               |                |                    m{}: 0x6eb-0x6ec.7 (2)
0x6e0|                                 03            |           .    |                      a: 3 0x6eb-0x6eb.7 (1)
0x6e0|                                    14         |            .   |                      o: 20 0x6ec-0x6ec.7 (1)
     |                                               |                |                  [2]{}: in 0x6ed-0x6ed.7 (1)
0x6e0|                                       0b      |             .  |                    end: 0xb (valid) 0x6ed-0x6ed.7 (1)
     |                                               |                |            [36]{}: code 0x6ee-0x6f6.7 (9)
0x6e0|                                          08   |              . |              size: 8 0x6ee-0x6ee.7 (1)
     |                                               |                |              code{}: 0x6ef-0x6f6.7 (8)
     |                                               |                |                t{}: 0x6ef-0x6ef.7 (1)
0x6e0|                                             00|               .|                  n: 0 0x6ef-0x6ef.7 (1)
     |                                               |                |                  x[0:0]: 0x6f0-NA (0)
     |                                               |                |                e[0:3]: 0x6f0-0x6f6.7 (7)
     |                                               |                |                  [0]{}: in 0x6f0-0x6f1.7 (2)
0x6f0|20                                             |                |                    local.get: 0x20 (valid) 0x6f0-0x6f0.7 (1)
0x6f0|   00                                          | .              |                    x: 0 0x6f1-0x6f1.7 (1)
     |                                               |                |                  [1]{}: in 0x6f2-0x6f5.7 (4)
0x6f0|      fd                                       |  .             |                    prefix: 0xfd (valid) 0x6f2-0x6f2.7 (1)
0x6f0|         05                                    |   .            |                    v128.load32x2_s: 5 (valid) 0x6f3-0x6f3.7 (1)
     |                                               |                |                    m{}: 0x6f4-0x6f5.7 (2)
0x6f0|            03                                 |    .           |                      a: 3 0x6f4-0x6f4.7 (1)
0x6f0|               00                              |     .          |                      o: 0 0x6f5-0x6f5.7 (1)
     |                                               |                |                  [2]{}: in 0x6f6-0x6f6.7 (1)
0x6f0|                  0b                           |      .         |                    end: 0xb (valid) 0x6f6-0x6f6.7 (1)
     |                                               |                |            [37]{}: code 0x6f7-0x6ff.7 (9)
0x6f0|                     08                        |       .        |              size: 8 0x6f7-0x6f7.7 (1)
     |                                               |                |              code{}: 0x6f8-0x6ff.7 (8)
     |                                               |                |                t{}: 0x6f8-0x6f8.7 (1)
0x6f0|                        00                     |        .       |                  n: 0 0x6f8-0x6f8.7 (1)
     |                                               |                |                  x[0:0]: 0x6f9-NA (0)
     |                                               |                |                e[0:3]: 0x6f9-0x6ff.7 (7)
     |                                               |                |                  [0]{}: in 0x6f9-0x6fa.7 (2)
0x6f0|                           20                  |                |                    local.get: 0x20 (valid) 0x6f9-0x6f9.7 (1)
0x6f0|                              00               |          .     |                    x: 0 0x6fa-0x6fa.7 (1)
     |                                               |                |                  [1]{}: in 0x6fb-0x6fe.7 (4)
0x6f0|                                 fd            |           .    |                    prefix: 0xfd (valid) 0x6fb-0x6fb.7 (1)
0x6f0|                                    05         |            .   |                    v128.load32x2_s: 5 (valid) 0x6fc-0x6fc.7 (1)
     |                                               |                |                    m{}: 0x6fd-0x6fe.7 (2)
0x6f0|                                       00      |             .  |                      a: 0 0x6fd-0x6fd.7 (1)
0x6f0|                                          00   |              . |                      o: 0 0x6fe-0x6fe.7 (1)
     |                                               |                |                  [2]{}: in 0x6ff-0x6ff.7 (1)
0x6f0|                                             0b|               .|                    end: 0xb (valid) 0x6ff-0x6ff.7 (1)
     |                                               |                |            [38]{}: code 0x700-0x708.7 (9)
0x700|08                                             |.               |              size: 8 0x700-0x700.7 (1)
     |                                               |                |              code{}: 0x701-0x708.7 (8)
     |                                               |                |                t{}: 0x701-0x701.7 (1)
0x700|   00                                          | .              |                  n: 0 0x701-0x701.7 (1)
     |                                               |                |                  x[0:0]: 0x702-NA (0)
     |                                               |                |                e[0:3]: 0x702-0x708.7 (7)
     |                                               |                |                  [0]{}: in 0x702-0x703.7 (2)
0x700|      20                                       |                |                    local.get: 0x20 (valid) 0x702-0x702.7 (1)
0x700|         00                                    |   .            |                    x: 0 0x703-0x703.7 (1)
     |                                               |                |                  [1]{}: in 0x704-0x707.7 (4)
0x700|            fd                                 |    .           |                    prefix: 0xfd (valid) 0x704-0x704.7 (1)
0x700|               05                              |     .          |                    v128.load32x2_s: 5 (valid) 0x705-0x705.7 (1)
     |                                               |                |                    m{}: 0x706-0x707.7 (2)
0x700|                  00                           |      .         |                      a: 0 0x706-0x706.7 (1)
0x700|                     00                        |       .        |                      o: 0 0x707-0x707.7 (1)
     |                                               |                |                  [2]{}: in 0x708-0x708.7 (1)
0x700|                        0b                     |        .       |                    end: 0xb (valid) 0x708-0x708.7 (1)
     |                                               |                |            [39]{}: code 0x709-0x711.7 (9)
0x700|                           08                  |         .      |              size: 8 0x709-0x709.7 (1)
     |                                               |                |              code{}: 0x70a-0x711.7 (8)
     |                                               |                |                t{}: 0x70a-0x70a.7 (1)
0x700|                              00               |          .     |                  n: 0 0x70a-0x70a.7 (1)
     |                                               |                |                  x[0:0]: 0x70b-NA (0)
     |                                               |                |                e[0:3]: 0x70b-0x711.7 (7)
     |                                               |                |                  [0]{}: in 0x70b-0x70c.7 (2)
0x700|                                 20            |                |                    local.get: 0x20 (valid) 0x70b-0x70b.7 (1)
0x700|                                    00         |            .   |                    x: 0 0x70c-0x70c.7 (1)
     |                                               |                |                  [1]{}: in 0x70d-0x710.7 (4)
0x700|                                       fd      |             .  |                    prefix: 0xfd (valid) 0x70d-0x70d.7 (1)
0x700|                                          05   |              . |                    v128.load32x2_s: 5 (valid) 0x70e-0x70e.7 (1)
     |                                               |                |                    m{}: 0x70f-0x710.7 (2)
0x700|                                             00|               .|                      a: 0 0x70f-0x70f.7 (1)
0x710|01                                             |.               |                      o: 1 0x710-0x710.7 (1)
     |                                               |                |                  [2]{}: in 0x711-0x711.7 (1)
0x710|   0b                                          | .              |                    end: 0xb (valid) 0x711-0x711.7 (1)
     |                                               |                |            [40]{}: code 0x712-0x71a.7 (9)
0x710|      08                                       |  .             |              size: 8 0x712-0x712.7 (1)
     |                                               |                |              code{}: 0x713-0x71a.7 (8)
     |                                               |                |                t{}: 0x713-0x713.7 (1)
0x710|         00                                    |   .            |                  n: 0 0x713-0x713.7 (1)
     |                                               |                |                  x[0:0]: 0x714-NA (0)
     |                                               |                |                e[0:3]: 0x714-0x71a.7 (7)
     |                                               |                |                  [0]{}: in 0x714-0x715.7 (2)
0x710|            20                                 |                |                    local.get: 0x20 (valid) 0x714-0x714.7 (1)
0x710|               00                              |     .          |                    x: 0 0x715-0x715.7 (1)
     |                                               |                |                  [1]{}: in 0x716-0x719.7 (4)
0x710|                  fd                           |      .         |                    prefix: 0xfd (valid) 0x716-0x716.7 (1)
0x710|                     05                        |       .        |                    v128.load32x2_s: 5 (valid) 0x717-0x717.7 (1)
     |                                               |                |                    m{}: 0x718-0x719.7 (2)
0x710|                        02                     |        .       |                      a: 2 0x718-0x718.7 (1)
0x710|                           0a                  |         .      |                      o: 10 0x719-0x719.7 (1)
     |                                               |                |                  [2]{}: in 0x71a-0x71a.7 (1)
0x710|                              0b               |          .     |                    end: 0xb (valid) 0x71a-0x71a.7 (1)
     |                                               |                |            [41]{}: code 0x71b-0x723.7 (9)
0x710|                                 08            |           .    |              size: 8 0x71b-0x71b.7 (1)
     |                                               |                |              code{}: 0x71c-0x723.7 (8)
     |                                               |                |                t{}: 0x71c-0x71c.7 (1)
0x710|                                    00         |            .   |                  n: 0 0x71c-0x71c.7 (1)
     |                                               |                |                  x[0:0]: 0x71d-NA (0)
     |                                               |                |                e[0:3]: 0x71d-0x723.7 (7)
     |                                               |                |                  [0]{}: in 0x71d-0x71e.7 (2)
0x710|                                       20      |                |                    local.get: 0x20 (valid) 0x71d-0x71d.7 (1)
0x710|                                          00   |              . |                    x: 0 0x71e-0x71e.7 (1)
     |                                               |                |                  [1]{}: in 0x71f-0x722.7 (4)
0x710|                                             fd|               .|                    prefix: 0xfd (valid) 0x71f-0x71f.7 (1)
0x720|05                                             |.               |                    v128.load32x2_s: 5 (valid) 0x720-0x720.7 (1)
     |                                               |                |                    m{}: 0x721-0x722.7 (2)
0x720|   03                                          | .              |                      a: 3 0x721-0x721.7 (1)
0x720|      14                                       |  .             |                      o: 20 0x722-0x722.7 (1)
     |                                               |                |                  [2]{}: in 0x723-0x723.7 (1)
0x720|         0b                                    |   .            |                    end: 0xb (valid) 0x723-0x723.7 (1)
     |                                               |                |            [42]{}: code 0x724-0x72c.7 (9)
0x720|            08                                 |    .           |              size: 8 0x724-0x724.7 (1)
     |                                               |                |              code{}: 0x725-0x72c.7 (8)
     |                                               |                |                t{}: 0x725-0x725.7 (1)
0x720|               00                              |     .          |                  n: 0 0x725-0x725.7 (1)
     |                                               |                |                  x[0:0]: 0x726-NA (0)
     |                                               |                |                e[0:3]: 0x726-0x72c.7 (7)
     |                                               |                |                  [0]{}: in 0x726-0x727.7 (2)
0x720|                  20                           |                |                    local.get: 0x20 (valid) 0x726-0x726.7 (1)
0x720|                     00                        |       .        |                    x: 0 0x727-0x727.7 (1)
     |                                               |                |                  [1]{}: in 0x728-0x72b.7 (4)
0x720|                        fd                     |        .       |                    prefix: 0xfd (valid) 0x728-0x728.7 (1)
0x720|                           06                  |         .      |                    v128.load32x2_u: 6 (valid) 0x729-0x729.7 (1)
     |                                               |                |                    m{}: 0x72a-0x72b.7 (2)
0x720|                              03               |          .     |                      a: 3 0x72a-0x72a.7 (1)
0x720|                                 00            |           .    |                      o: 0 0x72b-0x72b.7 (1)
     |                                               |                |                  [2]{}: in 0x72c-0x72c.7 (1)
0x720|                                    0b         |            .   |                    end: 0xb (valid) 0x72c-0x72c.7 (1)
     |                                               |                |            [43]{}: code 0x72d-0x735.7 (9)
0x720|                                       08      |             .  |              size: 8 0x72d-0x72d.7 (1)
     |                                               |                |              code{}: 0x72e-0x735.7 (8)
     |                                               |                |                t{}: 0x72e-0x72e.7 (1)
0x720|                                          00   |              . |                  n: 0 0x72e-0x72e.7 (1)
     |                                               |                |                  x[0:0]: 0x72f-NA (0)
     |                                               |                |                e[0:3]: 0x72f-0x735.7 (7)
     |                                               |                |                  [0]{}: in 0x72f-0x730.7 (2)
0x720|                                             20|                |                    local.get: 0x20 (valid) 0x72f-0x72f.7 (1)
0x730|00                                             |.               |                    x: 0 0x730-0x730.7 (1)
     |                                               |                |                  [1]{}: in 0x731-0x734.7 (4)
0x730|   fd                                          | .              |                    prefix: 0xfd (valid) 0x731-0x731.7 (1)
0x730|      06                                       |  .             |                    v128.load32x2_u: 6 (valid) 0x732-0x732.7 (1)
     |                                               |                |                    m{}: 0x733-0x734.7 (2)
0x730|         00                                    |   .            |                      a: 0 0x733-0x733.7 (1)
0x730|            00                                 |    .           |                      o: 0 0x734-0x734.7 (1)
     |                                               |                |                  [2]{}: in 0x735-0x735.7 (1)
0x730|               0b                              |     .          |                    end: 0xb (valid) 0x735-0x735.7 (1)
     |                                               |                |            [44]{}: code 0x736-0x73e.7 (9)
0x730|                  08                           |      .         |              size: 8 0x736-0x736.7 (1)
     |                                               |                |              code{}: 0x737-0x73e.7 (8)
     |                                               |                |                t{}: 0x737-0x737.7 (1)
0x730|                     00                        |       .        |                  n: 0 0x737-0x737.7 (1)
     |                                               |                |                  x[0:0]: 0x738-NA (0)
     |                                               |                |                e[0:3]: 0x738-0x73e.7 (7)
     |                                               |                |                  [0]{}: in 0x738-0x739.7 (2)
0x730|                        20                     |                |                    local.get: 0x20 (valid) 0x738-0x738.7 (1)
0x730|                           00                  |         .      |                    x: 0 0x739-0x739.7 (1)
     |                                               |                |                  [1]{}: in 0x73a-0x73d.7 (4)
0x730|                              fd               |          .     |                    prefix: 0xfd (valid) 0x73a-0x73a.7 (1)
0x730|                                 06            |           .    |                    v128.load32x2_u: 6 (valid) 0x73b-0x73b.7 (1)
     |                                               |                |                    m{}: 0x73c-0x73d.7 (2)
0x730|                                    00         |            .   |                      a: 0 0x73c-0x73c.7 (1)
0x730|                                       00      |             .  |                      o: 0 0x73d-0x73d.7 (1)
     |                                               |                |                  [2]{}: in 0x73e-0x73e.7 (1)
0x730|                                          0b   |              . |                    end: 0xb (valid) 0x73e-0x73e.7 (1)
     |                                               |                |            [45]{}: code 0x73f-0x747.7 (9)
0x730|                                             08|               .|              size: 8 0x73f-0x73f.7 (1)
     |                                               |                |              code{}: 0x740-0x747.7 (8)
     |                                               |                |                t{}: 0x740-0x740.7 (1)
0x740|00                                             |.               |                  n: 0 0x740-0x740.7 (1)
     |                                               |                |                  x[0:0]: 0x741-NA (0)
     |                                               |                |                e[0:3]: 0x741-0x747.7 (7)
     |                                               |                |                  [0]{}: in 0x741-0x742.7 (2)
0x740|   20                                          |                |                    local.get: 0x20 (valid) 0x741-0x741.7 (1)
0x740|      00                                       |  .             |                    x: 0 0x742-0x742.7 (1)
     |                                               |                |                  [1]{}: in 0x743-0x746.7 (4)
0x740|         fd                                    |   .            |                    prefix: 0xfd (valid) 0x743-0x743.7 (1)
0x740|            06                                 |    .           |                    v128.load32x2_u: 6 (valid) 0x744-0x744.7 (1)
     |                                               |                |                    m{}: 0x745-0x746.7 (2)
0x740|               00                              |     .          |                      a: 0 0x745-0x745.7 (1)
0x740|                  01                           |      .         |                      o: 1 0x746-0x746.7 (1)
     |                                               |                |                  [2]{}: in 0x747-0x747.7 (1)
0x740|                     0b                        |       .        |                    end: 0xb (valid) 0x747-0x747.7 (1)
     |                                               |                |            [46]{}: code 0x748-0x750.7 (9)
0x740|                        08                     |        .       |              size: 8 0x748-0x748.7 (1)
     |                                               |                |              code{}: 0x749-0x750.7 (8)
     |                                               |                |                t{}: 0x749-0x749.7 (1)
0x740|                           00                  |         .      |                  n: 0 0x749-0x749.7 (1)
     |                                               |                |                  x[0:0]: 0x74a-NA (0)
     |                                               |                |                e[0:3]: 0x74a-0x750.7 (7)
     |                                               |                |                  [0]{}: in 0x74a-0x74b.7 (2)
0x740|                              20               |                |                    local.get: 0x20 (valid) 0x74a-0x74a.7 (1)
0x740|                                 00            |           .    |                    x: 0 0x74b-0x74b.7 (1)
     |                                               |                |                  [1]{}: in 0x74c-0x74f.7 (4)
0x740|                                    fd         |            .   |                    prefix: 0xfd (valid) 0x74c-0x74c.7 (1)
0x740|                                       06      |             .  |                    v128.load32x2_u: 6 (valid) 0x74d-0x74d.7 (1)
     |                                               |                |                    m{}: 0x74e-0x74f.7 (2)
0x740|                                          02   |              . |                      a: 2 0x74e-0x74e.7 (1)
0x740|                                             0a|               .|                      o: 10 0x74f-0x74f.7 (1)
     |                                               |                |                  [2]{}: in 0x750-0x750.7 (1)
0x750|0b                                             |.               |                    end: 0xb (valid) 0x750-0x750.7 (1)
     |                                               |                |            [47]{}: code 0x751-0x759.7 (9)
0x750|   08                                          | .              |              size: 8 0x751-0x751.7 (1)
     |                                               |                |              code{}: 0x752-0x759.7 (8)
     |                                               |                |                t{}: 0x752-0x752.7 (1)
0x750|      00                                       |  .             |                  n: 0 0x752-0x752.7 (1)
     |                                               |                |                  x[0:0]: 0x753-NA (0)
     |                                               |                |                e[0:3]: 0x753-0x759.7 (7)
     |                                               |                |                  [0]{}: in 0x753-0x754.7 (2)
0x750|         20                                    |                |                    local.get: 0x20 (valid) 0x753-0x753.7 (1)
0x750|            00                                 |    .           |                    x: 0 0x754-0x754.7 (1)
     |                                               |                |                  [1]{}: in 0x755-0x758.7 (4)
0x750|               fd                              |     .          |                    prefix: 0xfd (valid) 0x755-0x755.7 (1)
0x750|                  06                           |      .         |                    v128.load32x2_u: 6 (valid) 0x756-0x756.7 (1)
     |                                               |                |                    m{}: 0x757-0x758.7 (2)
0x750|                     03                        |       .        |                      a: 3 0x757-0x757.7 (1)
0x750|                        14                     |        .       |                      o: 20 0x758-0x758.7 (1)
     |                                               |                |                  [2]{}: in 0x759-0x759.7 (1)
0x750|                           0b                  |         .      |                    end: 0xb (valid) 0x759-0x759.7 (1)
     |                                               |                |    [5]{}: section 0x75a-0x792.7 (57)
0x750|                              0b               |          .     |      id: "data section" (11) 0x75a-0x75a.7 (1)
0x750|                                 37            |           7    |      size: 55 0x75b-0x75b.7 (1)
     |                                               |                |      content{}: 0x75c-0x792.7 (55)
     |                                               |                |        seg{}: 0x75c-0x792.7 (55)
0x750|                                    02         |            .   |          n: 2 0x75c-0x75c.7 (1)
     |                                               |                |          x[0:2]: 0x75d-0x792.7 (54)
     |                                               |                |            [0]{}: seg 0x75d-0x77b.7 (31)
0x750|                                       00      |             .  |              tag: 0 0x75d-0x75d.7 (1)
     |                                               |                |              e[0:2]: 0x75e-0x760.7 (3)
     |                                               |                |                [0]{}: in 0x75e-0x75f.7 (2)
0x750|                                          41   |              A |                  i32.const: 0x41 (valid) 0x75e-0x75e.7 (1)
0x750|                                             00|               .|                  n: 0 0x75f-0x75f.7 (1)
     |                                               |                |                [1]{}: in 0x760-0x760.7 (1)
0x760|0b                                             |.               |                  end: 0xb (valid) 0x760-0x760.7 (1)
     |                                               |                |              b{}: 0x761-0x77b.7 (27)
0x760|   1a                                          | .              |                n: 26 0x761-0x761.7 (1)
0x760|      00 01 02 03 04 05 06 07 08 09 0a 0b 0c 0d|  ..............|                x: raw bits 0x762-0x77b.7 (26)
0x770|0e 0f 80 81 82 83 84 85 86 87 88 89            |............    |
     |                                               |                |            [1]{}: seg 0x77c-0x792.7 (23)
0x770|                                    00         |            .   |              tag: 0 0x77c-0x77c.7 (1)
     |                                               |                |              e[0:2]: 0x77d-0x781.7 (5)
     |                                               |                |                [0]{}: in 0x77d-0x780.7 (4)
0x770|                                       41      |             A  |                  i32.const: 0x41 (valid) 0x77d-0x77d.7 (1)
0x770|                                          f0 ff|              ..|                  n: 65520 0x77e-0x780.7 (3)
0x780|03                                             |.               |
     |                                               |                |                [1]{}: in 0x781-0x781.7 (1)
0x780|   0b                                          | .              |                  end: 0xb (valid) 0x781-0x781.7 (1)
     |                                               |                |              b{}: 0x782-0x792.7 (17)
0x780|      10                                       |  .             |                n: 16 0x782-0x782.7 (1)
0x780|         0a 0b 0c 0d 0e 0f 80 81 82 83 84 85 86|   .............|                x: raw bits 0x783-0x792.7 (16)
0x790|87 88 89|                                      |...|            |
