$ fq -d wasm dv simd_i8x16_arith2-0.wasm
     |00 01 02 03 04 05 06 07 08 09 0a 0b 0c 0d 0e 0f|0123456789abcdef|.{}: simd_i8x16_arith2-0.wasm (wasm) 0x0-0x602 (1538)
0x000|00 61 73 6d                                    |.asm            |  magic: raw bits (valid) 0x0-0x4 (4)
0x000|            01 00 00 00                        |    ....        |  version: 1 0x4-0x8 (4)
     |                                               |                |  sections[0:4]: 0x8-0x602 (1530)
     |                                               |                |    [0]{}: section 0x8-0x1a (18)
0x000|                        01                     |        .       |      id: "type_section" (1) 0x8-0x9 (1)
0x000|                           10                  |         .      |      size: 16 (valid) 0x9-0xa (1)
     |                                               |                |      content{}: 0xa-0x1a (16)
     |                                               |                |        ft{}: 0xa-0x1a (16)
0x000|                              03               |          .     |          n: 3 (valid) 0xa-0xb (1)
     |                                               |                |          x[0:3]: 0xb-0x1a (15)
     |                                               |                |            [0]{}: ft 0xb-0x11 (6)
0x000|                                 60            |           `    |              tag: 0x60 (valid) 0xb-0xc (1)
     |                                               |                |              rt1{}: 0xc-0xf (3)
0x000|                                    02         |            .   |                n: 2 (valid) 0xc-0xd (1)
     |                                               |                |                x[0:2]: 0xd-0xf (2)
0x000|                                       7b      |             {  |                  [0]: "v128" (0x7b) t 0xd-0xe (1)
0x000|                                          7b   |              { |                  [1]: "v128" (0x7b) t 0xe-0xf (1)
     |                                               |                |              rt2{}: 0xf-0x11 (2)
0x000|                                             01|               .|                n: 1 (valid) 0xf-0x10 (1)
     |                                               |                |                x[0:1]: 0x10-0x11 (1)
0x010|7b                                             |{               |                  [0]: "v128" (0x7b) t 0x10-0x11 (1)
     |                                               |                |            [1]{}: ft 0x11-0x16 (5)
0x010|   60                                          | `              |              tag: 0x60 (valid) 0x11-0x12 (1)
     |                                               |                |              rt1{}: 0x12-0x14 (2)
0x010|      01                                       |  .             |                n: 1 (valid) 0x12-0x13 (1)
     |                                               |                |                x[0:1]: 0x13-0x14 (1)
0x010|         7b                                    |   {            |                  [0]: "v128" (0x7b) t 0x13-0x14 (1)
     |                                               |                |              rt2{}: 0x14-0x16 (2)
0x010|            01                                 |    .           |                n: 1 (valid) 0x14-0x15 (1)
     |                                               |                |                x[0:1]: 0x15-0x16 (1)
0x010|               7b                              |     {          |                  [0]: "v128" (0x7b) t 0x15-0x16 (1)
     |                                               |                |            [2]{}: ft 0x16-0x1a (4)
0x010|                  60                           |      `         |              tag: 0x60 (valid) 0x16-0x17 (1)
     |                                               |                |              rt1{}: 0x17-0x18 (1)
0x010|                     00                        |       .        |                n: 0 (valid) 0x17-0x18 (1)
     |                                               |                |                x[0:0]: 0x18-0x18 (0)
     |                                               |                |              rt2{}: 0x18-0x1a (2)
0x010|                        01                     |        .       |                n: 1 (valid) 0x18-0x19 (1)
     |                                               |                |                x[0:1]: 0x19-0x1a (1)
0x010|                           7b                  |         {      |                  [0]: "v128" (0x7b) t 0x19-0x1a (1)
     |                                               |                |    [1]{}: section 0x1a-0x3a (32)
0x010|                              03               |          .     |      id: "function_section" (3) 0x1a-0x1b (1)
0x010|                                 1e            |           .    |      size: 30 (valid) 0x1b-0x1c (1)
     |                                               |                |      content{}: 0x1c-0x3a (30)
     |                                               |                |        x{}: 0x1c-0x3a (30)
0x010|                                    1d         |            .   |          n: 29 (valid) 0x1c-0x1d (1)
     |                                               |                |          x[0:29]: 0x1d-0x3a (29)
0x010|                                       00      |             .  |            [0]: 0 x (valid) 0x1d-0x1e (1)
0x010|                                          00   |              . |            [1]: 0 x (valid) 0x1e-0x1f (1)
0x010|                                             00|               .|            [2]: 0 x (valid) 0x1f-0x20 (1)
0x020|00                                             |.               |            [3]: 0 x (valid) 0x20-0x21 (1)
0x020|   00                                          | .              |            [4]: 0 x (valid) 0x21-0x22 (1)
0x020|      01                                       |  .             |            [5]: 1 x (valid) 0x22-0x23 (1)
0x020|         01                                    |   .            |            [6]: 1 x (valid) 0x23-0x24 (1)
0x020|            02                                 |    .           |            [7]: 2 x (valid) 0x24-0x25 (1)
0x020|               02                              |     .          |            [8]: 2 x (valid) 0x25-0x26 (1)
0x020|                  02                           |      .         |            [9]: 2 x (valid) 0x26-0x27 (1)
0x020|                     02                        |       .        |            [10]: 2 x (valid) 0x27-0x28 (1)
0x020|                        02                     |        .       |            [11]: 2 x (valid) 0x28-0x29 (1)
0x020|                           02                  |         .      |            [12]: 2 x (valid) 0x29-0x2a (1)
0x020|                              02               |          .     |            [13]: 2 x (valid) 0x2a-0x2b (1)
0x020|                                 02            |           .    |            [14]: 2 x (valid) 0x2b-0x2c (1)
0x020|                                    02         |            .   |            [15]: 2 x (valid) 0x2c-0x2d (1)
0x020|                                       02      |             .  |            [16]: 2 x (valid) 0x2d-0x2e (1)
0x020|                                          02   |              . |            [17]: 2 x (valid) 0x2e-0x2f (1)
0x020|                                             02|               .|            [18]: 2 x (valid) 0x2f-0x30 (1)
0x030|01                                             |.               |            [19]: 1 x (valid) 0x30-0x31 (1)
0x030|   01                                          | .              |            [20]: 1 x (valid) 0x31-0x32 (1)
0x030|      01                                       |  .             |            [21]: 1 x (valid) 0x32-0x33 (1)
0x030|         01                                    |   .            |            [22]: 1 x (valid) 0x33-0x34 (1)
0x030|            01                                 |    .           |            [23]: 1 x (valid) 0x34-0x35 (1)
0x030|               01                              |     .          |            [24]: 1 x (valid) 0x35-0x36 (1)
0x030|                  01                           |      .         |            [25]: 1 x (valid) 0x36-0x37 (1)
0x030|                     01                        |       .        |            [26]: 1 x (valid) 0x37-0x38 (1)
0x030|                        01                     |        .       |            [27]: 1 x (valid) 0x38-0x39 (1)
0x030|                           01                  |         .      |            [28]: 1 x (valid) 0x39-0x3a (1)
     |                                               |                |    [2]{}: section 0x3a-0x301 (711)
0x030|                              07               |          .     |      id: "export_section" (7) 0x3a-0x3b (1)
0x030|                                 c4 05         |           ..   |      size: 708 (valid) 0x3b-0x3d (2)
     |                                               |                |      content{}: 0x3d-0x301 (708)
     |                                               |                |        ex{}: 0x3d-0x301 (708)
0x030|                                       1d      |             .  |          n: 29 (valid) 0x3d-0x3e (1)
     |                                               |                |          x[0:29]: 0x3e-0x301 (707)
     |                                               |                |            [0]{}: ex 0x3e-0x4c (14)
     |                                               |                |              nm{}: 0x3e-0x4a (12)
0x030|                                          0b   |              . |                n: 11 (valid) 0x3e-0x3f (1)
0x030|                                             69|               i|                b: "i8x16.min_s" 0x3f-0x4a (11)
0x040|38 78 31 36 2e 6d 69 6e 5f 73                  |8x16.min_s      |
     |                                               |                |              d{}: 0x4a-0x4c (2)
0x040|                              00               |          .     |                tag: "funcidx" (0x0) 0x4a-0x4b (1)
0x040|                                 00            |           .    |                x: 0 (valid) 0x4b-0x4c (1)
     |                                               |                |            [1]{}: ex 0x4c-0x5a (14)
     |                                               |                |              nm{}: 0x4c-0x58 (12)
0x040|                                    0b         |            .   |                n: 11 (valid) 0x4c-0x4d (1)
0x040|                                       69 38 78|             i8x|                b: "i8x16.min_u" 0x4d-0x58 (11)
0x050|31 36 2e 6d 69 6e 5f 75                        |16.min_u        |
     |                                               |                |              d{}: 0x58-0x5a (2)
0x050|                        00                     |        .       |                tag: "funcidx" (0x0) 0x58-0x59 (1)
0x050|                           01                  |         .      |                x: 1 (valid) 0x59-0x5a (1)
     |                                               |                |            [2]{}: ex 0x5a-0x68 (14)
     |                                               |                |              nm{}: 0x5a-0x66 (12)
0x050|                              0b               |          .     |                n: 11 (valid) 0x5a-0x5b (1)
0x050|                                 69 38 78 31 36|           i8x16|                b: "i8x16.max_s" 0x5b-0x66 (11)
0x060|2e 6d 61 78 5f 73                              |.max_s          |
     |                                               |                |              d{}: 0x66-0x68 (2)
0x060|                  00                           |      .         |                tag: "funcidx" (0x0) 0x66-0x67 (1)
0x060|                     02                        |       .        |                x: 2 (valid) 0x67-0x68 (1)
     |                                               |                |            [3]{}: ex 0x68-0x76 (14)
     |                                               |                |              nm{}: 0x68-0x74 (12)
0x060|                        0b                     |        .       |                n: 11 (valid) 0x68-0x69 (1)
0x060|                           69 38 78 31 36 2e 6d|         i8x16.m|                b: "i8x16.max_u" 0x69-0x74 (11)
0x070|61 78 5f 75                                    |ax_u            |
     |                                               |                |              d{}: 0x74-0x76 (2)
0x070|            00                                 |    .           |                tag: "funcidx" (0x0) 0x74-0x75 (1)
0x070|               03                              |     .          |                x: 3 (valid) 0x75-0x76 (1)
     |                                               |                |            [4]{}: ex 0x76-0x85 (15)
     |                                               |                |              nm{}: 0x76-0x83 (13)
0x070|                  0c                           |      .         |                n: 12 (valid) 0x76-0x77 (1)
0x070|                     69 38 78 31 36 2e 61 76 67|       i8x16.avg|                b: "i8x16.avgr_u" 0x77-0x83 (12)
0x080|72 5f 75                                       |r_u             |
     |                                               |                |              d{}: 0x83-0x85 (2)
0x080|         00                                    |   .            |                tag: "funcidx" (0x0) 0x83-0x84 (1)
0x080|            04                                 |    .           |                x: 4 (valid) 0x84-0x85 (1)
     |                                               |                |            [5]{}: ex 0x85-0x91 (12)
     |                                               |                |              nm{}: 0x85-0x8f (10)
0x080|               09                              |     .          |                n: 9 (valid) 0x85-0x86 (1)
0x080|                  69 38 78 31 36 2e 61 62 73   |      i8x16.abs |                b: "i8x16.abs" 0x86-0x8f (9)
     |                                               |                |              d{}: 0x8f-0x91 (2)
0x080|                                             00|               .|                tag: "funcidx" (0x0) 0x8f-0x90 (1)
0x090|05                                             |.               |                x: 5 (valid) 0x90-0x91 (1)
     |                                               |                |            [6]{}: ex 0x91-0xa0 (15)
     |                                               |                |              nm{}: 0x91-0x9e (13)
0x090|   0c                                          | .              |                n: 12 (valid) 0x91-0x92 (1)
0x090|      69 38 78 31 36 2e 70 6f 70 63 6e 74      |  i8x16.popcnt  |                b: "i8x16.popcnt" 0x92-0x9e (12)
     |                                               |                |              d{}: 0x9e-0xa0 (2)
0x090|                                          00   |              . |                tag: "funcidx" (0x0) 0x9e-0x9f (1)
0x090|                                             06|               .|                x: 6 (valid) 0x9f-0xa0 (1)
     |                                               |                |            [7]{}: ex 0xa0-0xbb (27)
     |                                               |                |              nm{}: 0xa0-0xb9 (25)
0x0a0|18                                             |.               |                n: 24 (valid) 0xa0-0xa1 (1)
0x0a0|   69 38 78 31 36 2e 6d 69 6e 5f 73 5f 77 69 74| i8x16.min_s_wit|                b: "i8x16.min_s_with_const_0" 0xa1-0xb9 (24)
0x0b0|68 5f 63 6f 6e 73 74 5f 30                     |h_const_0       |
     |                                               |                |              d{}: 0xb9-0xbb (2)
0x0b0|                           00                  |         .      |                tag: "funcidx" (0x0) 0xb9-0xba (1)
0x0b0|                              07               |          .     |                x: 7 (valid) 0xba-0xbb (1)
     |                                               |                |            [8]{}: ex 0xbb-0xd6 (27)
     |                                               |                |              nm{}: 0xbb-0xd4 (25)
0x0b0|                                 18            |           .    |                n: 24 (valid) 0xbb-0xbc (1)
0x0b0|                                    69 38 78 31|            i8x1|                b: "i8x16.min_s_with_const_1" 0xbc-0xd4 (24)
0x0c0|36 2e 6d 69 6e 5f 73 5f 77 69 74 68 5f 63 6f 6e|6.min_s_with_con|
0x0d0|73 74 5f 31                                    |st_1            |
     |                                               |                |              d{}: 0xd4-0xd6 (2)
0x0d0|            00                                 |    .           |                tag: "funcidx" (0x0) 0xd4-0xd5 (1)
0x0d0|               08                              |     .          |                x: 8 (valid) 0xd5-0xd6 (1)
     |                                               |                |            [9]{}: ex 0xd6-0xf1 (27)
     |                                               |                |              nm{}: 0xd6-0xef (25)
0x0d0|                  18                           |      .         |                n: 24 (valid) 0xd6-0xd7 (1)
0x0d0|                     69 38 78 31 36 2e 6d 69 6e|       i8x16.min|                b: "i8x16.min_u_with_const_2" 0xd7-0xef (24)
0x0e0|5f 75 5f 77 69 74 68 5f 63 6f 6e 73 74 5f 32   |_u_with_const_2 |
     |                                               |                |              d{}: 0xef-0xf1 (2)
0x0e0|                                             00|               .|                tag: "funcidx" (0x0) 0xef-0xf0 (1)
0x0f0|09                                             |.               |                x: 9 (valid) 0xf0-0xf1 (1)
     |                                               |                |            [10]{}: ex 0xf1-0x10c (27)
     |                                               |                |              nm{}: 0xf1-0x10a (25)
0x0f0|   18                                          | .              |                n: 24 (valid) 0xf1-0xf2 (1)
0x0f0|      69 38 78 31 36 2e 6d 69 6e 5f 75 5f 77 69|  i8x16.min_u_wi|                b: "i8x16.min_u_with_const_3" 0xf2-0x10a (24)
0x100|74 68 5f 63 6f 6e 73 74 5f 33                  |th_const_3      |
     |                                               |                |              d{}: 0x10a-0x10c (2)
0x100|                              00               |          .     |                tag: "funcidx" (0x0) 0x10a-0x10b (1)
0x100|                                 0a            |           .    |                x: 10 (valid) 0x10b-0x10c (1)
     |                                               |                |            [11]{}: ex 0x10c-0x127 (27)
     |                                               |                |              nm{}: 0x10c-0x125 (25)
0x100|                                    18         |            .   |                n: 24 (valid) 0x10c-0x10d (1)
0x100|                                       69 38 78|             i8x|                b: "i8x16.max_s_with_const_4" 0x10d-0x125 (24)
0x110|31 36 2e 6d 61 78 5f 73 5f 77 69 74 68 5f 63 6f|16.max_s_with_co|
0x120|6e 73 74 5f 34                                 |nst_4           |
     |                                               |                |              d{}: 0x125-0x127 (2)
0x120|               00                              |     .          |                tag: "funcidx" (0x0) 0x125-0x126 (1)
0x120|                  0b                           |      .         |                x: 11 (valid) 0x126-0x127 (1)
     |                                               |                |            [12]{}: ex 0x127-0x142 (27)
     |                                               |                |              nm{}: 0x127-0x140 (25)
0x120|                     18                        |       .        |                n: 24 (valid) 0x127-0x128 (1)
0x120|                        69 38 78 31 36 2e 6d 61|        i8x16.ma|                b: "i8x16.max_s_with_const_5" 0x128-0x140 (24)
0x130|78 5f 73 5f 77 69 74 68 5f 63 6f 6e 73 74 5f 35|x_s_with_const_5|
     |                                               |                |              d{}: 0x140-0x142 (2)
0x140|00                                             |.               |                tag: "funcidx" (0x0) 0x140-0x141 (1)
0x140|   0c                                          | .              |                x: 12 (valid) 0x141-0x142 (1)
     |                                               |                |            [13]{}: ex 0x142-0x15d (27)
     |                                               |                |              nm{}: 0x142-0x15b (25)
0x140|      18                                       |  .             |                n: 24 (valid) 0x142-0x143 (1)
0x140|         69 38 78 31 36 2e 6d 61 78 5f 75 5f 77|   i8x16.max_u_w|                b: "i8x16.max_u_with_const_6" 0x143-0x15b (24)
0x150|69 74 68 5f 63 6f 6e 73 74 5f 36               |ith_const_6     |
     |                                               |                |              d{}: 0x15b-0x15d (2)
0x150|                                 00            |           .    |                tag: "funcidx" (0x0) 0x15b-0x15c (1)
0x150|                                    0d         |            .   |                x: 13 (valid) 0x15c-0x15d (1)
     |                                               |                |            [14]{}: ex 0x15d-0x178 (27)
     |                                               |                |              nm{}: 0x15d-0x176 (25)
0x150|                                       18      |             .  |                n: 24 (valid) 0x15d-0x15e (1)
0x150|                                          69 38|              i8|                b: "i8x16.max_u_with_const_7" 0x15e-0x176 (24)
0x160|78 31 36 2e 6d 61 78 5f 75 5f 77 69 74 68 5f 63|x16.max_u_with_c|
0x170|6f 6e 73 74 5f 37                              |onst_7          |
     |                                               |                |              d{}: 0x176-0x178 (2)
0x170|                  00                           |      .         |                tag: "funcidx" (0x0) 0x176-0x177 (1)
0x170|                     0e                        |       .        |                x: 14 (valid) 0x177-0x178 (1)
     |                                               |                |            [15]{}: ex 0x178-0x194 (28)
     |                                               |                |              nm{}: 0x178-0x192 (26)
0x170|                        19                     |        .       |                n: 25 (valid) 0x178-0x179 (1)
0x170|                           69 38 78 31 36 2e 61|         i8x16.a|                b: "i8x16.avgr_u_with_const_8" 0x179-0x192 (25)
0x180|76 67 72 5f 75 5f 77 69 74 68 5f 63 6f 6e 73 74|vgr_u_with_const|
0x190|5f 38                                          |_8              |
     |                                               |                |              d{}: 0x192-0x194 (2)
0x190|      00                                       |  .             |                tag: "funcidx" (0x0) 0x192-0x193 (1)
0x190|         0f                                    |   .            |                x: 15 (valid) 0x193-0x194 (1)
     |                                               |                |            [16]{}: ex 0x194-0x1b0 (28)
     |                                               |                |              nm{}: 0x194-0x1ae (26)
0x190|            19                                 |    .           |                n: 25 (valid) 0x194-0x195 (1)
0x190|               69 38 78 31 36 2e 61 76 67 72 5f|     i8x16.avgr_|                b: "i8x16.avgr_u_with_const_9" 0x195-0x1ae (25)
0x1a0|75 5f 77 69 74 68 5f 63 6f 6e 73 74 5f 39      |u_with_const_9  |
     |                                               |                |              d{}: 0x1ae-0x1b0 (2)
0x1a0|                                          00   |              . |                tag: "funcidx" (0x0) 0x1ae-0x1af (1)
0x1a0|                                             10|               .|                x: 16 (valid) 0x1af-0x1b0 (1)
     |                                               |                |            [17]{}: ex 0x1b0-0x1ca (26)
     |                                               |                |              nm{}: 0x1b0-0x1c8 (24)
0x1b0|17                                             |.               |                n: 23 (valid) 0x1b0-0x1b1 (1)
0x1b0|   69 38 78 31 36 2e 61 62 73 5f 77 69 74 68 5f| i8x16.abs_with_|                b: "i8x16.abs_with_const_10" 0x1b1-0x1c8 (23)
0x1c0|63 6f 6e 73 74 5f 31 30                        |const_10        |
     |                                               |                |              d{}: 0x1c8-0x1ca (2)
0x1c0|                        00                     |        .       |                tag: "funcidx" (0x0) 0x1c8-0x1c9 (1)
0x1c0|                           11                  |         .      |                x: 17 (valid) 0x1c9-0x1ca (1)
     |                                               |                |            [18]{}: ex 0x1ca-0x1e7 (29)
     |                                               |                |              nm{}: 0x1ca-0x1e5 (27)
0x1c0|                              1a               |          .     |                n: 26 (valid) 0x1ca-0x1cb (1)
0x1c0|                                 69 38 78 31 36|           i8x16|                b: "i8x16.popcnt_with_const_11" 0x1cb-0x1e5 (26)
0x1d0|2e 70 6f 70 63 6e 74 5f 77 69 74 68 5f 63 6f 6e|.popcnt_with_con|
0x1e0|73 74 5f 31 31                                 |st_11           |
     |                                               |                |              d{}: 0x1e5-0x1e7 (2)
0x1e0|               00                              |     .          |                tag: "funcidx" (0x0) 0x1e5-0x1e6 (1)
0x1e0|                  12                           |      .         |                x: 18 (valid) 0x1e6-0x1e7 (1)
     |                                               |                |            [19]{}: ex 0x1e7-0x203 (28)
     |                                               |                |              nm{}: 0x1e7-0x201 (26)
0x1e0|                     19                        |       .        |                n: 25 (valid) 0x1e7-0x1e8 (1)
0x1e0|                        69 38 78 31 36 2e 6d 69|        i8x16.mi|                b: "i8x16.min_s_with_const_12" 0x1e8-0x201 (25)
0x1f0|6e 5f 73 5f 77 69 74 68 5f 63 6f 6e 73 74 5f 31|n_s_with_const_1|
0x200|32                                             |2               |
     |                                               |                |              d{}: 0x201-0x203 (2)
0x200|   00                                          | .              |                tag: "funcidx" (0x0) 0x201-0x202 (1)
0x200|      13                                       |  .             |                x: 19 (valid) 0x202-0x203 (1)
     |                                               |                |            [20]{}: ex 0x203-0x21f (28)
     |                                               |                |              nm{}: 0x203-0x21d (26)
0x200|         19                                    |   .            |                n: 25 (valid) 0x203-0x204 (1)
0x200|            69 38 78 31 36 2e 6d 69 6e 5f 73 5f|    i8x16.min_s_|                b: "i8x16.min_s_with_const_13" 0x204-0x21d (25)
0x210|77 69 74 68 5f 63 6f 6e 73 74 5f 31 33         |with_const_13   |
     |                                               |                |              d{}: 0x21d-0x21f (2)
0x210|                                       00      |             .  |                tag: "funcidx" (0x0) 0x21d-0x21e (1)
0x210|                                          14   |              . |                x: 20 (valid) 0x21e-0x21f (1)
     |                                               |                |            [21]{}: ex 0x21f-0x23b (28)
     |                                               |                |              nm{}: 0x21f-0x239 (26)
0x210|                                             19|               .|                n: 25 (valid) 0x21f-0x220 (1)
0x220|69 38 78 31 36 2e 6d 69 6e 5f 75 5f 77 69 74 68|i8x16.min_u_with|                b: "i8x16.min_u_with_const_14" 0x220-0x239 (25)
0x230|5f 63 6f 6e 73 74 5f 31 34                     |_const_14       |
     |                                               |                |              d{}: 0x239-0x23b (2)
0x230|                           00                  |         .      |                tag: "funcidx" (0x0) 0x239-0x23a (1)
0x230|                              15               |          .     |                x: 21 (valid) 0x23a-0x23b (1)
     |                                               |                |            [22]{}: ex 0x23b-0x257 (28)
     |                                               |                |              nm{}: 0x23b-0x255 (26)
0x230|                                 19            |           .    |                n: 25 (valid) 0x23b-0x23c (1)
0x230|                                    69 38 78 31|            i8x1|                b: "i8x16.min_u_with_const_15" 0x23c-0x255 (25)
0x240|36 2e 6d 69 6e 5f 75 5f 77 69 74 68 5f 63 6f 6e|6.min_u_with_con|
0x250|73 74 5f 31 35                                 |st_15           |
     |                                               |                |              d{}: 0x255-0x257 (2)
0x250|               00                              |     .          |                tag: "funcidx" (0x0) 0x255-0x256 (1)
0x250|                  16                           |      .         |                x: 22 (valid) 0x256-0x257 (1)
     |                                               |                |            [23]{}: ex 0x257-0x273 (28)
     |                                               |                |              nm{}: 0x257-0x271 (26)
0x250|                     19                        |       .        |                n: 25 (valid) 0x257-0x258 (1)
0x250|                        69 38 78 31 36 2e 6d 61|        i8x16.ma|                b: "i8x16.max_s_with_const_16" 0x258-0x271 (25)
0x260|78 5f 73 5f 77 69 74 68 5f 63 6f 6e 73 74 5f 31|x_s_with_const_1|
0x270|36                                             |6               |
     |                                               |                |              d{}: 0x271-0x273 (2)
0x270|   00                                          | .              |                tag: "funcidx" (0x0) 0x271-0x272 (1)
0x270|      17                                       |  .             |                x: 23 (valid) 0x272-0x273 (1)
     |                                               |                |            [24]{}: ex 0x273-0x28f (28)
     |                                               |                |              nm{}: 0x273-0x28d (26)
0x270|         19                                    |   .            |                n: 25 (valid) 0x273-0x274 (1)
0x270|            69 38 78 31 36 2e 6d 61 78 5f 73 5f|    i8x16.max_s_|                b: "i8x16.max_s_with_const_17" 0x274-0x28d (25)
0x280|77 69 74 68 5f 63 6f 6e 73 74 5f 31 37         |with_const_17   |
     |                                               |                |              d{}: 0x28d-0x28f (2)
0x280|                                       00      |             .  |                tag: "funcidx" (0x0) 0x28d-0x28e (1)
0x280|                                          18   |              . |                x: 24 (valid) 0x28e-0x28f (1)
     |                                               |                |            [25]{}: ex 0x28f-0x2ab (28)
     |                                               |                |              nm{}: 0x28f-0x2a9 (26)
0x280|                                             19|               .|                n: 25 (valid) 0x28f-0x290 (1)
0x290|69 38 78 31 36 2e 6d 61 78 5f 75 5f 77 69 74 68|i8x16.max_u_with|                b: "i8x16.max_u_with_const_18" 0x290-0x2a9 (25)
0x2a0|5f 63 6f 6e 73 74 5f 31 38                     |_const_18       |
     |                                               |                |              d{}: 0x2a9-0x2ab (2)
0x2a0|                           00                  |         .      |                tag: "funcidx" (0x0) 0x2a9-0x2aa (1)
0x2a0|                              19               |          .     |                x: 25 (valid) 0x2aa-0x2ab (1)
     |                                               |                |            [26]{}: ex 0x2ab-0x2c7 (28)
     |                                               |                |              nm{}: 0x2ab-0x2c5 (26)
0x2a0|                                 19            |           .    |                n: 25 (valid) 0x2ab-0x2ac (1)
0x2a0|                                    69 38 78 31|            i8x1|                b: "i8x16.max_u_with_const_19" 0x2ac-0x2c5 (25)
0x2b0|36 2e 6d 61 78 5f 75 5f 77 69 74 68 5f 63 6f 6e|6.max_u_with_con|
0x2c0|73 74 5f 31 39                                 |st_19           |
     |                                               |                |              d{}: 0x2c5-0x2c7 (2)
0x2c0|               00                              |     .          |                tag: "funcidx" (0x0) 0x2c5-0x2c6 (1)
0x2c0|                  1a                           |      .         |                x: 26 (valid) 0x2c6-0x2c7 (1)
     |                                               |                |            [27]{}: ex 0x2c7-0x2e4 (29)
     |                                               |                |              nm{}: 0x2c7-0x2e2 (27)
0x2c0|                     1a                        |       .        |                n: 26 (valid) 0x2c7-0x2c8 (1)
0x2c0|                        69 38 78 31 36 2e 61 76|        i8x16.av|                b: "i8x16.avgr_u_with_const_20" 0x2c8-0x2e2 (26)
0x2d0|67 72 5f 75 5f 77 69 74 68 5f 63 6f 6e 73 74 5f|gr_u_with_const_|
0x2e0|32 30                                          |20              |
     |                                               |                |              d{}: 0x2e2-0x2e4 (2)
0x2e0|      00                                       |  .             |                tag: "funcidx" (0x0) 0x2e2-0x2e3 (1)
0x2e0|         1b                                    |   .            |                x: 27 (valid) 0x2e3-0x2e4 (1)
     |                                               |                |            [28]{}: ex 0x2e4-0x301 (29)
     |                                               |                |              nm{}: 0x2e4-0x2ff (27)
0x2e0|            1a                                 |    .           |                n: 26 (valid) 0x2e4-0x2e5 (1)
0x2e0|               69 38 78 31 36 2e 61 76 67 72 5f|     i8x16.avgr_|                b: "i8x16.avgr_u_with_const_21" 0x2e5-0x2ff (26)
0x2f0|75 5f 77 69 74 68 5f 63 6f 6e 73 74 5f 32 31   |u_with_const_21 |
     |                                               |                |              d{}: 0x2ff-0x301 (2)
0x2f0|                                             00|               .|                tag: "funcidx" (0x0) 0x2ff-0x300 (1)
0x300|1c                                             |.               |                x: 28 (valid) 0x300-0x301 (1)
     |                                               |                |    [3]{}: section 0x301-0x602 (769)
0x300|   0a                                          | .              |      id: "code_section" (10) 0x301-0x302 (1)
0x300|      fe 05                                    |  ..            |      size: 766 (valid) 0x302-0x304 (2)
     |                                               |                |      content{}: 0x304-0x602 (766)
     |                                               |                |        code{}: 0x304-0x602 (766)
0x300|            1d                                 |    .           |          n: 29 (valid) 0x304-0x305 (1)
     |                                               |                |          x[0:29]: 0x305-0x602 (765)
     |                                               |                |            [0]{}: code 0x305-0x30e (9)
0x300|               08                              |     .          |              size: 8 (valid) 0x305-0x306 (1)
     |                                               |                |              code{}: 0x306-0x30e (8)
     |                                               |                |                t{}: 0x306-0x307 (1)
0x300|                  00                           |      .         |                  n: 0 (valid) 0x306-0x307 (1)
     |                                               |                |                  x[0:0]: 0x307-0x307 (0)
     |                                               |                |                e[0:4]: 0x307-0x30e (7)
     |                                               |                |                  [0]{}: in 0x307-0x309 (2)
0x300|                     20                        |                |                    opcode: "local.get" (0x20) 0x307-0x308 (1)
0x300|                        00                     |        .       |                    x: 0 (valid) 0x308-0x309 (1)
     |                                               |                |                  [1]{}: in 0x309-0x30b (2)
0x300|                           20                  |                |                    opcode: "local.get" (0x20) 0x309-0x30a (1)
0x300|                              01               |          .     |                    x: 1 (valid) 0x30a-0x30b (1)
     |                                               |                |                  [2]{}: in 0x30b-0x30d (2)
0x300|                                 fd            |           .    |                    opcode: "vector" (0xfd) 0x30b-0x30c (1)
0x300|                                    76         |            v   |                    v_opcode: "i8x16.min_s" (118) 0x30c-0x30d (1)
     |                                               |                |                  [3]{}: in 0x30d-0x30e (1)
0x300|                                       0b      |             .  |                    opcode: "end" (0xb) 0x30d-0x30e (1)
     |                                               |                |            [1]{}: code 0x30e-0x317 (9)
0x300|                                          08   |              . |              size: 8 (valid) 0x30e-0x30f (1)
     |                                               |                |              code{}: 0x30f-0x317 (8)
     |                                               |                |                t{}: 0x30f-0x310 (1)
0x300|                                             00|               .|                  n: 0 (valid) 0x30f-0x310 (1)
     |                                               |                |                  x[0:0]: 0x310-0x310 (0)
     |                                               |                |                e[0:4]: 0x310-0x317 (7)
     |                                               |                |                  [0]{}: in 0x310-0x312 (2)
0x310|20                                             |                |                    opcode: "local.get" (0x20) 0x310-0x311 (1)
0x310|   00                                          | .              |                    x: 0 (valid) 0x311-0x312 (1)
     |                                               |                |                  [1]{}: in 0x312-0x314 (2)
0x310|      20                                       |                |                    opcode: "local.get" (0x20) 0x312-0x313 (1)
0x310|         01                                    |   .            |                    x: 1 (valid) 0x313-0x314 (1)
     |                                               |                |                  [2]{}: in 0x314-0x316 (2)
0x310|            fd                                 |    .           |                    opcode: "vector" (0xfd) 0x314-0x315 (1)
0x310|               77                              |     w          |                    v_opcode: "i8x16.min_u" (119) 0x315-0x316 (1)
     |                                               |                |                  [3]{}: in 0x316-0x317 (1)
0x310|                  0b                           |      .         |                    opcode: "end" (0xb) 0x316-0x317 (1)
     |                                               |                |            [2]{}: code 0x317-0x320 (9)
0x310|                     08                        |       .        |              size: 8 (valid) 0x317-0x318 (1)
     |                                               |                |              code{}: 0x318-0x320 (8)
     |                                               |                |                t{}: 0x318-0x319 (1)
0x310|                        00                     |        .       |                  n: 0 (valid) 0x318-0x319 (1)
     |                                               |                |                  x[0:0]: 0x319-0x319 (0)
     |                                               |                |                e[0:4]: 0x319-0x320 (7)
     |                                               |                |                  [0]{}: in 0x319-0x31b (2)
0x310|                           20                  |                |                    opcode: "local.get" (0x20) 0x319-0x31a (1)
0x310|                              00               |          .     |                    x: 0 (valid) 0x31a-0x31b (1)
     |                                               |                |                  [1]{}: in 0x31b-0x31d (2)
0x310|                                 20            |                |                    opcode: "local.get" (0x20) 0x31b-0x31c (1)
0x310|                                    01         |            .   |                    x: 1 (valid) 0x31c-0x31d (1)
     |                                               |                |                  [2]{}: in 0x31d-0x31f (2)
0x310|                                       fd      |             .  |                    opcode: "vector" (0xfd) 0x31d-0x31e (1)
0x310|                                          78   |              x |                    v_opcode: "i8x16.max_s" (120) 0x31e-0x31f (1)
     |                                               |                |                  [3]{}: in 0x31f-0x320 (1)
0x310|                                             0b|               .|                    opcode: "end" (0xb) 0x31f-0x320 (1)
     |                                               |                |            [3]{}: code 0x320-0x329 (9)
0x320|08                                             |.               |              size: 8 (valid) 0x320-0x321 (1)
     |                                               |                |              code{}: 0x321-0x329 (8)
     |                                               |                |                t{}: 0x321-0x322 (1)
0x320|   00                                          | .              |                  n: 0 (valid) 0x321-0x322 (1)
     |                                               |                |                  x[0:0]: 0x322-0x322 (0)
     |                                               |                |                e[0:4]: 0x322-0x329 (7)
     |                                               |                |                  [0]{}: in 0x322-0x324 (2)
0x320|      20                                       |                |                    opcode: "local.get" (0x20) 0x322-0x323 (1)
0x320|         00                                    |   .            |                    x: 0 (valid) 0x323-0x324 (1)
     |                                               |                |                  [1]{}: in 0x324-0x326 (2)
0x320|            20                                 |                |                    opcode: "local.get" (0x20) 0x324-0x325 (1)
0x320|               01                              |     .          |                    x: 1 (valid) 0x325-0x326 (1)
     |                                               |                |                  [2]{}: in 0x326-0x328 (2)
0x320|                  fd                           |      .         |                    opcode: "vector" (0xfd) 0x326-0x327 (1)
0x320|                     79                        |       y        |                    v_opcode: "i8x16.max_u" (121) 0x327-0x328 (1)
     |                                               |                |                  [3]{}: in 0x328-0x329 (1)
0x320|                        0b                     |        .       |                    opcode: "end" (0xb) 0x328-0x329 (1)
     |                                               |                |            [4]{}: code 0x329-0x332 (9)
0x320|                           08                  |         .      |              size: 8 (valid) 0x329-0x32a (1)
     |                                               |                |              code{}: 0x32a-0x332 (8)
     |                                               |                |                t{}: 0x32a-0x32b (1)
0x320|                              00               |          .     |                  n: 0 (valid) 0x32a-0x32b (1)
     |                                               |                |                  x[0:0]: 0x32b-0x32b (0)
     |                                               |                |                e[0:4]: 0x32b-0x332 (7)
     |                                               |                |                  [0]{}: in 0x32b-0x32d (2)
0x320|                                 20            |                |                    opcode: "local.get" (0x20) 0x32b-0x32c (1)
0x320|                                    00         |            .   |                    x: 0 (valid) 0x32c-0x32d (1)
     |                                               |                |                  [1]{}: in 0x32d-0x32f (2)
0x320|                                       20      |                |                    opcode: "local.get" (0x20) 0x32d-0x32e (1)
0x320|                                          01   |              . |                    x: 1 (valid) 0x32e-0x32f (1)
     |                                               |                |                  [2]{}: in 0x32f-0x331 (2)
0x320|                                             fd|               .|                    opcode: "vector" (0xfd) 0x32f-0x330 (1)
0x330|7b                                             |{               |                    v_opcode: "i8x16.avgr_u" (123) 0x330-0x331 (1)
     |                                               |                |                  [3]{}: in 0x331-0x332 (1)
0x330|   0b                                          | .              |                    opcode: "end" (0xb) 0x331-0x332 (1)
     |                                               |                |            [5]{}: code 0x332-0x339 (7)
0x330|      06                                       |  .             |              size: 6 (valid) 0x332-0x333 (1)
     |                                               |                |              code{}: 0x333-0x339 (6)
     |                                               |                |                t{}: 0x333-0x334 (1)
0x330|         00                                    |   .            |                  n: 0 (valid) 0x333-0x334 (1)
     |                                               |                |                  x[0:0]: 0x334-0x334 (0)
     |                                               |                |                e[0:3]: 0x334-0x339 (5)
     |                                               |                |                  [0]{}: in 0x334-0x336 (2)
0x330|            20                                 |                |                    opcode: "local.get" (0x20) 0x334-0x335 (1)
0x330|               00                              |     .          |                    x: 0 (valid) 0x335-0x336 (1)
     |                                               |                |                  [1]{}: in 0x336-0x338 (2)
0x330|                  fd                           |      .         |                    opcode: "vector" (0xfd) 0x336-0x337 (1)
0x330|                     60                        |       `        |                    v_opcode: "i8x16.abs" (96) 0x337-0x338 (1)
     |                                               |                |                  [2]{}: in 0x338-0x339 (1)
0x330|                        0b                     |        .       |                    opcode: "end" (0xb) 0x338-0x339 (1)
     |                                               |                |            [6]{}: code 0x339-0x340 (7)
0x330|                           06                  |         .      |              size: 6 (valid) 0x339-0x33a (1)
     |                                               |                |              code{}: 0x33a-0x340 (6)
     |                                               |                |                t{}: 0x33a-0x33b (1)
0x330|                              00               |          .     |                  n: 0 (valid) 0x33a-0x33b (1)
     |                                               |                |                  x[0:0]: 0x33b-0x33b (0)
     |                                               |                |                e[0:3]: 0x33b-0x340 (5)
     |                                               |                |                  [0]{}: in 0x33b-0x33d (2)
0x330|                                 20            |                |                    opcode: "local.get" (0x20) 0x33b-0x33c (1)
0x330|                                    00         |            .   |                    x: 0 (valid) 0x33c-0x33d (1)
     |                                               |                |                  [1]{}: in 0x33d-0x33f (2)
0x330|                                       fd      |             .  |                    opcode: "vector" (0xfd) 0x33d-0x33e (1)
0x330|                                          62   |              b |                    v_opcode: "i8x16.popcnt" (98) 0x33e-0x33f (1)
     |                                               |                |                  [2]{}: in 0x33f-0x340 (1)
0x330|                                             0b|               .|                    opcode: "end" (0xb) 0x33f-0x340 (1)
     |                                               |                |            [7]{}: code 0x340-0x369 (41)
0x340|28                                             |(               |              size: 40 (valid) 0x340-0x341 (1)
     |                                               |                |              code{}: 0x341-0x369 (40)
     |                                               |                |                t{}: 0x341-0x342 (1)
0x340|   00                                          | .              |                  n: 0 (valid) 0x341-0x342 (1)
     |                                               |                |                  x[0:0]: 0x342-0x342 (0)
     |                                               |                |                e[0:4]: 0x342-0x369 (39)
     |                                               |                |                  [0]{}: in 0x342-0x354 (18)
0x340|      fd                                       |  .             |                    opcode: "vector" (0xfd) 0x342-0x343 (1)
0x340|         0c                                    |   .            |                    v_opcode: "v128.const" (12) 0x343-0x344 (1)
0x340|            80 80 80 80 7f 7f 7f 7f 40 40 40 40|    ........@@@@|                    bytes: raw bits 0x344-0x354 (16)
0x350|ff ff ff ff                                    |....            |
     |                                               |                |                  [1]{}: in 0x354-0x366 (18)
0x350|            fd                                 |    .           |                    opcode: "vector" (0xfd) 0x354-0x355 (1)
0x350|               0c                              |     .          |                    v_opcode: "v128.const" (12) 0x355-0x356 (1)
0x350|                  ff ff ff ff 40 40 40 40 7f 7f|      ....@@@@..|                    bytes: raw bits 0x356-0x366 (16)
0x360|7f 7f 80 80 80 80                              |......          |
     |                                               |                |                  [2]{}: in 0x366-0x368 (2)
0x360|                  fd                           |      .         |                    opcode: "vector" (0xfd) 0x366-0x367 (1)
0x360|                     76                        |       v        |                    v_opcode: "i8x16.min_s" (118) 0x367-0x368 (1)
     |                                               |                |                  [3]{}: in 0x368-0x369 (1)
0x360|                        0b                     |        .       |                    opcode: "end" (0xb) 0x368-0x369 (1)
     |                                               |                |            [8]{}: code 0x369-0x392 (41)
0x360|                           28                  |         (      |              size: 40 (valid) 0x369-0x36a (1)
     |                                               |                |              code{}: 0x36a-0x392 (40)
     |                                               |                |                t{}: 0x36a-0x36b (1)
0x360|                              00               |          .     |                  n: 0 (valid) 0x36a-0x36b (1)
     |                                               |                |                  x[0:0]: 0x36b-0x36b (0)
     |                                               |                |                e[0:4]: 0x36b-0x392 (39)
     |                                               |                |                  [0]{}: in 0x36b-0x37d (18)
0x360|                                 fd            |           .    |                    opcode: "vector" (0xfd) 0x36b-0x36c (1)
0x360|                                    0c         |            .   |                    v_opcode: "v128.const" (12) 0x36c-0x36d (1)
0x360|                                       00 00 00|             ...|                    bytes: raw bits 0x36d-0x37d (16)
0x370|00 01 01 01 01 02 02 02 02 03 03 03 03         |.............   |
     |                                               |                |                  [1]{}: in 0x37d-0x38f (18)
0x370|                                       fd      |             .  |                    opcode: "vector" (0xfd) 0x37d-0x37e (1)
0x370|                                          0c   |              . |                    v_opcode: "v128.const" (12) 0x37e-0x37f (1)
0x370|                                             03|               .|                    bytes: raw bits 0x37f-0x38f (16)
0x380|03 03 03 02 02 02 02 01 01 01 01 00 00 00 00   |............... |
     |                                               |                |                  [2]{}: in 0x38f-0x391 (2)
0x380|                                             fd|               .|                    opcode: "vector" (0xfd) 0x38f-0x390 (1)
0x390|76                                             |v               |                    v_opcode: "i8x16.min_s" (118) 0x390-0x391 (1)
     |                                               |                |                  [3]{}: in 0x391-0x392 (1)
0x390|   0b                                          | .              |                    opcode: "end" (0xb) 0x391-0x392 (1)
     |                                               |                |            [9]{}: code 0x392-0x3bb (41)
0x390|      28                                       |  (             |              size: 40 (valid) 0x392-0x393 (1)
     |                                               |                |              code{}: 0x393-0x3bb (40)
     |                                               |                |                t{}: 0x393-0x394 (1)
0x390|         00                                    |   .            |                  n: 0 (valid) 0x393-0x394 (1)
     |                                               |                |                  x[0:0]: 0x394-0x394 (0)
     |                                               |                |                e[0:4]: 0x394-0x3bb (39)
     |                                               |                |                  [0]{}: in 0x394-0x3a6 (18)
0x390|            fd                                 |    .           |                    opcode: "vector" (0xfd) 0x394-0x395 (1)
0x390|               0c                              |     .          |                    v_opcode: "v128.const" (12) 0x395-0x396 (1)
0x390|                  80 80 80 80 7f 7f 7f 7f 40 40|      ........@@|                    bytes: raw bits 0x396-0x3a6 (16)
0x3a0|40 40 ff ff ff ff                              |@@....          |
     |                                               |                |                  [1]{}: in 0x3a6-0x3b8 (18)
0x3a0|                  fd                           |      .         |                    opcode: "vector" (0xfd) 0x3a6-0x3a7 (1)
0x3a0|                     0c                        |       .        |                    v_opcode: "v128.const" (12) 0x3a7-0x3a8 (1)
0x3a0|                        ff ff ff ff 40 40 40 40|        ....@@@@|                    bytes: raw bits 0x3a8-0x3b8 (16)
0x3b0|7f 7f 7f 7f 80 80 80 80                        |........        |
     |                                               |                |                  [2]{}: in 0x3b8-0x3ba (2)
0x3b0|                        fd                     |        .       |                    opcode: "vector" (0xfd) 0x3b8-0x3b9 (1)
0x3b0|                           77                  |         w      |                    v_opcode: "i8x16.min_u" (119) 0x3b9-0x3ba (1)
     |                                               |                |                  [3]{}: in 0x3ba-0x3bb (1)
0x3b0|                              0b               |          .     |                    opcode: "end" (0xb) 0x3ba-0x3bb (1)
     |                                               |                |            [10]{}: code 0x3bb-0x3e4 (41)
0x3b0|                                 28            |           (    |              size: 40 (valid) 0x3bb-0x3bc (1)
     |                                               |                |              code{}: 0x3bc-0x3e4 (40)
     |                                               |                |                t{}: 0x3bc-0x3bd (1)
0x3b0|                                    00         |            .   |                  n: 0 (valid) 0x3bc-0x3bd (1)
     |                                               |                |                  x[0:0]: 0x3bd-0x3bd (0)
     |                                               |                |                e[0:4]: 0x3bd-0x3e4 (39)
     |                                               |                |                  [0]{}: in 0x3bd-0x3cf (18)
0x3b0|                                       fd      |             .  |                    opcode: "vector" (0xfd) 0x3bd-0x3be (1)
0x3b0|                                          0c   |              . |                    v_opcode: "v128.const" (12) 0x3be-0x3bf (1)
0x3b0|                                             00|               .|                    bytes: raw bits 0x3bf-0x3cf (16)
0x3c0|00 00 00 01 01 01 01 02 02 02 02 03 03 03 03   |............... |
     |                                               |                |                  [1]{}: in 0x3cf-0x3e1 (18)
0x3c0|                                             fd|               .|                    opcode: "vector" (0xfd) 0x3cf-0x3d0 (1)
0x3d0|0c                                             |.               |                    v_opcode: "v128.const" (12) 0x3d0-0x3d1 (1)
0x3d0|   03 03 03 03 02 02 02 02 01 01 01 01 00 00 00| ...............|                    bytes: raw bits 0x3d1-0x3e1 (16)
0x3e0|00                                             |.               |
     |                                               |                |                  [2]{}: in 0x3e1-0x3e3 (2)
0x3e0|   fd                                          | .              |                    opcode: "vector" (0xfd) 0x3e1-0x3e2 (1)
0x3e0|      77                                       |  w             |                    v_opcode: "i8x16.min_u" (119) 0x3e2-0x3e3 (1)
     |                                               |                |                  [3]{}: in 0x3e3-0x3e4 (1)
0x3e0|         0b                                    |   .            |                    opcode: "end" (0xb) 0x3e3-0x3e4 (1)
     |                                               |                |            [11]{}: code 0x3e4-0x40d (41)
0x3e0|            28                                 |    (           |              size: 40 (valid) 0x3e4-0x3e5 (1)
     |                                               |                |              code{}: 0x3e5-0x40d (40)
     |                                               |                |                t{}: 0x3e5-0x3e6 (1)
0x3e0|               00                              |     .          |                  n: 0 (valid) 0x3e5-0x3e6 (1)
     |                                               |                |                  x[0:0]: 0x3e6-0x3e6 (0)
     |                                               |                |                e[0:4]: 0x3e6-0x40d (39)
     |                                               |                |                  [0]{}: in 0x3e6-0x3f8 (18)
0x3e0|                  fd                           |      .         |                    opcode: "vector" (0xfd) 0x3e6-0x3e7 (1)
0x3e0|                     0c                        |       .        |                    v_opcode: "v128.const" (12) 0x3e7-0x3e8 (1)
0x3e0|                        80 80 80 80 7f 7f 7f 7f|        ........|                    bytes: raw bits 0x3e8-0x3f8 (16)
0x3f0|40 40 40 40 ff ff ff ff                        |@@@@....        |
     |                                               |                |                  [1]{}: in 0x3f8-0x40a (18)
0x3f0|                        fd                     |        .       |                    opcode: "vector" (0xfd) 0x3f8-0x3f9 (1)
0x3f0|                           0c                  |         .      |                    v_opcode: "v128.const" (12) 0x3f9-0x3fa (1)
0x3f0|                              ff ff ff ff 40 40|          ....@@|                    bytes: raw bits 0x3fa-0x40a (16)
0x400|40 40 7f 7f 7f 7f 80 80 80 80                  |@@........      |
     |                                               |                |                  [2]{}: in 0x40a-0x40c (2)
0x400|                              fd               |          .     |                    opcode: "vector" (0xfd) 0x40a-0x40b (1)
0x400|                                 78            |           x    |                    v_opcode: "i8x16.max_s" (120) 0x40b-0x40c (1)
     |                                               |                |                  [3]{}: in 0x40c-0x40d (1)
0x400|                                    0b         |            .   |                    opcode: "end" (0xb) 0x40c-0x40d (1)
     |                                               |                |            [12]{}: code 0x40d-0x436 (41)
0x400|                                       28      |             (  |              size: 40 (valid) 0x40d-0x40e (1)
     |                                               |                |              code{}: 0x40e-0x436 (40)
     |                                               |                |                t{}: 0x40e-0x40f (1)
0x400|                                          00   |              . |                  n: 0 (valid) 0x40e-0x40f (1)
     |                                               |                |                  x[0:0]: 0x40f-0x40f (0)
     |                                               |                |                e[0:4]: 0x40f-0x436 (39)
     |                                               |                |                  [0]{}: in 0x40f-0x421 (18)
0x400|                                             fd|               .|                    opcode: "vector" (0xfd) 0x40f-0x410 (1)
0x410|0c                                             |.               |                    v_opcode: "v128.const" (12) 0x410-0x411 (1)
0x410|   00 00 00 00 01 01 01 01 02 02 02 02 03 03 03| ...............|                    bytes: raw bits 0x411-0x421 (16)
0x420|03                                             |.               |
     |                                               |                |                  [1]{}: in 0x421-0x433 (18)
0x420|   fd                                          | .              |                    opcode: "vector" (0xfd) 0x421-0x422 (1)
0x420|      0c                                       |  .             |                    v_opcode: "v128.const" (12) 0x422-0x423 (1)
0x420|         03 03 03 03 02 02 02 02 01 01 01 01 00|   .............|                    bytes: raw bits 0x423-0x433 (16)
0x430|00 00 00                                       |...             |
     |                                               |                |                  [2]{}: in 0x433-0x435 (2)
0x430|         fd                                    |   .            |                    opcode: "vector" (0xfd) 0x433-0x434 (1)
0x430|            78                                 |    x           |                    v_opcode: "i8x16.max_s" (120) 0x434-0x435 (1)
     |                                               |                |                  [3]{}: in 0x435-0x436 (1)
0x430|               0b                              |     .          |                    opcode: "end" (0xb) 0x435-0x436 (1)
     |                                               |                |            [13]{}: code 0x436-0x45f (41)
0x430|                  28                           |      (         |              size: 40 (valid) 0x436-0x437 (1)
     |                                               |                |              code{}: 0x437-0x45f (40)
     |                                               |                |                t{}: 0x437-0x438 (1)
0x430|                     00                        |       .        |                  n: 0 (valid) 0x437-0x438 (1)
     |                                               |                |                  x[0:0]: 0x438-0x438 (0)
     |                                               |                |                e[0:4]: 0x438-0x45f (39)
     |                                               |                |                  [0]{}: in 0x438-0x44a (18)
0x430|                        fd                     |        .       |                    opcode: "vector" (0xfd) 0x438-0x439 (1)
0x430|                           0c                  |         .      |                    v_opcode: "v128.const" (12) 0x439-0x43a (1)
0x430|                              80 80 80 80 7f 7f|          ......|                    bytes: raw bits 0x43a-0x44a (16)
0x440|7f 7f 40 40 40 40 ff ff ff ff                  |..@@@@....      |
     |                                               |                |                  [1]{}: in 0x44a-0x45c (18)
0x440|                              fd               |          .     |                    opcode: "vector" (0xfd) 0x44a-0x44b (1)
0x440|                                 0c            |           .    |                    v_opcode: "v128.const" (12) 0x44b-0x44c (1)
0x440|                                    ff ff ff ff|            ....|                    bytes: raw bits 0x44c-0x45c (16)
0x450|40 40 40 40 7f 7f 7f 7f 80 80 80 80            |@@@@........    |
     |                                               |                |                  [2]{}: in 0x45c-0x45e (2)
0x450|                                    fd         |            .   |                    opcode: "vector" (0xfd) 0x45c-0x45d (1)
0x450|                                       79      |             y  |                    v_opcode: "i8x16.max_u" (121) 0x45d-0x45e (1)
     |                                               |                |                  [3]{}: in 0x45e-0x45f (1)
0x450|                                          0b   |              . |                    opcode: "end" (0xb) 0x45e-0x45f (1)
     |                                               |                |            [14]{}: code 0x45f-0x488 (41)
0x450|                                             28|               (|              size: 40 (valid) 0x45f-0x460 (1)
     |                                               |                |              code{}: 0x460-0x488 (40)
     |                                               |                |                t{}: 0x460-0x461 (1)
0x460|00                                             |.               |                  n: 0 (valid) 0x460-0x461 (1)
     |                                               |                |                  x[0:0]: 0x461-0x461 (0)
     |                                               |                |                e[0:4]: 0x461-0x488 (39)
     |                                               |                |                  [0]{}: in 0x461-0x473 (18)
0x460|   fd                                          | .              |                    opcode: "vector" (0xfd) 0x461-0x462 (1)
0x460|      0c                                       |  .             |                    v_opcode: "v128.const" (12) 0x462-0x463 (1)
0x460|         00 00 00 00 01 01 01 01 02 02 02 02 03|   .............|                    bytes: raw bits 0x463-0x473 (16)
0x470|03 03 03                                       |...             |
     |                                               |                |                  [1]{}: in 0x473-0x485 (18)
0x470|         fd                                    |   .            |                    opcode: "vector" (0xfd) 0x473-0x474 (1)
0x470|            0c                                 |    .           |                    v_opcode: "v128.const" (12) 0x474-0x475 (1)
0x470|               03 03 03 03 02 02 02 02 01 01 01|     ...........|                    bytes: raw bits 0x475-0x485 (16)
0x480|01 00 00 00 00                                 |.....           |
     |                                               |                |                  [2]{}: in 0x485-0x487 (2)
0x480|               fd                              |     .          |                    opcode: "vector" (0xfd) 0x485-0x486 (1)
0x480|                  79                           |      y         |                    v_opcode: "i8x16.max_u" (121) 0x486-0x487 (1)
     |                                               |                |                  [3]{}: in 0x487-0x488 (1)
0x480|                     0b                        |       .        |                    opcode: "end" (0xb) 0x487-0x488 (1)
     |                                               |                |            [15]{}: code 0x488-0x4b1 (41)
0x480|                        28                     |        (       |              size: 40 (valid) 0x488-0x489 (1)
     |                                               |                |              code{}: 0x489-0x4b1 (40)
     |                                               |                |                t{}: 0x489-0x48a (1)
0x480|                           00                  |         .      |                  n: 0 (valid) 0x489-0x48a (1)
     |                                               |                |                  x[0:0]: 0x48a-0x48a (0)
     |                                               |                |                e[0:4]: 0x48a-0x4b1 (39)
     |                                               |                |                  [0]{}: in 0x48a-0x49c (18)
0x480|                              fd               |          .     |                    opcode: "vector" (0xfd) 0x48a-0x48b (1)
0x480|                                 0c            |           .    |                    v_opcode: "v128.const" (12) 0x48b-0x48c (1)
0x480|                                    80 80 80 80|            ....|                    bytes: raw bits 0x48c-0x49c (16)
0x490|7f 7f 7f 7f 40 40 40 40 ff ff ff ff            |....@@@@....    |
     |                                               |                |                  [1]{}: in 0x49c-0x4ae (18)
0x490|                                    fd         |            .   |                    opcode: "vector" (0xfd) 0x49c-0x49d (1)
0x490|                                       0c      |             .  |                    v_opcode: "v128.const" (12) 0x49d-0x49e (1)
0x490|                                          ff ff|              ..|                    bytes: raw bits 0x49e-0x4ae (16)
0x4a0|ff ff 40 40 40 40 7f 7f 7f 7f 80 80 80 80      |..@@@@........  |
     |                                               |                |                  [2]{}: in 0x4ae-0x4b0 (2)
0x4a0|                                          fd   |              . |                    opcode: "vector" (0xfd) 0x4ae-0x4af (1)
0x4a0|                                             7b|               {|                    v_opcode: "i8x16.avgr_u" (123) 0x4af-0x4b0 (1)
     |                                               |                |                  [3]{}: in 0x4b0-0x4b1 (1)
0x4b0|0b                                             |.               |                    opcode: "end" (0xb) 0x4b0-0x4b1 (1)
     |                                               |                |            [16]{}: code 0x4b1-0x4da (41)
0x4b0|   28                                          | (              |              size: 40 (valid) 0x4b1-0x4b2 (1)
     |                                               |                |              code{}: 0x4b2-0x4da (40)
     |                                               |                |                t{}: 0x4b2-0x4b3 (1)
0x4b0|      00                                       |  .             |                  n: 0 (valid) 0x4b2-0x4b3 (1)
     |                                               |                |                  x[0:0]: 0x4b3-0x4b3 (0)
     |                                               |                |                e[0:4]: 0x4b3-0x4da (39)
     |                                               |                |                  [0]{}: in 0x4b3-0x4c5 (18)
0x4b0|         fd                                    |   .            |                    opcode: "vector" (0xfd) 0x4b3-0x4b4 (1)
0x4b0|            0c                                 |    .           |                    v_opcode: "v128.const" (12) 0x4b4-0x4b5 (1)
0x4b0|               00 00 00 00 01 01 01 01 02 02 02|     ...........|                    bytes: raw bits 0x4b5-0x4c5 (16)
0x4c0|02 03 03 03 03                                 |.....           |
     |                                               |                |                  [1]{}: in 0x4c5-0x4d7 (18)
0x4c0|               fd                              |     .          |                    opcode: "vector" (0xfd) 0x4c5-0x4c6 (1)
0x4c0|                  0c                           |      .         |                    v_opcode: "v128.const" (12) 0x4c6-0x4c7 (1)
0x4c0|                     03 03 03 03 02 02 02 02 01|       .........|                    bytes: raw bits 0x4c7-0x4d7 (16)
0x4d0|01 01 01 00 00 00 00                           |.......         |
     |                                               |                |                  [2]{}: in 0x4d7-0x4d9 (2)
0x4d0|                     fd                        |       .        |                    opcode: "vector" (0xfd) 0x4d7-0x4d8 (1)
0x4d0|                        7b                     |        {       |                    v_opcode: "i8x16.avgr_u" (123) 0x4d8-0x4d9 (1)
     |                                               |                |                  [3]{}: in 0x4d9-0x4da (1)
0x4d0|                           0b                  |         .      |                    opcode: "end" (0xb) 0x4d9-0x4da (1)
     |                                               |                |            [17]{}: code 0x4da-0x4f1 (23)
0x4d0|                              16               |          .     |              size: 22 (valid) 0x4da-0x4db (1)
     |                                               |                |              code{}: 0x4db-0x4f1 (22)
     |                                               |                |                t{}: 0x4db-0x4dc (1)
0x4d0|                                 00            |           .    |                  n: 0 (valid) 0x4db-0x4dc (1)
     |                                               |                |                  x[0:0]: 0x4dc-0x4dc (0)
     |                                               |                |                e[0:3]: 0x4dc-0x4f1 (21)
     |                                               |                |                  [0]{}: in 0x4dc-0x4ee (18)
0x4d0|                                    fd         |            .   |                    opcode: "vector" (0xfd) 0x4dc-0x4dd (1)
0x4d0|                                       0c      |             .  |                    v_opcode: "v128.const" (12) 0x4dd-0x4de (1)
0x4d0|                                          80 80|              ..|                    bytes: raw bits 0x4de-0x4ee (16)
0x4e0|80 80 7f 7f 7f 7f 40 40 40 40 ff ff ff ff      |......@@@@....  |
     |                                               |                |                  [1]{}: in 0x4ee-0x4f0 (2)
0x4e0|                                          fd   |              . |                    opcode: "vector" (0xfd) 0x4ee-0x4ef (1)
0x4e0|                                             60|               `|                    v_opcode: "i8x16.abs" (96) 0x4ef-0x4f0 (1)
     |                                               |                |                  [2]{}: in 0x4f0-0x4f1 (1)
0x4f0|0b                                             |.               |                    opcode: "end" (0xb) 0x4f0-0x4f1 (1)
     |                                               |                |            [18]{}: code 0x4f1-0x508 (23)
0x4f0|   16                                          | .              |              size: 22 (valid) 0x4f1-0x4f2 (1)
     |                                               |                |              code{}: 0x4f2-0x508 (22)
     |                                               |                |                t{}: 0x4f2-0x4f3 (1)
0x4f0|      00                                       |  .             |                  n: 0 (valid) 0x4f2-0x4f3 (1)
     |                                               |                |                  x[0:0]: 0x4f3-0x4f3 (0)
     |                                               |                |                e[0:3]: 0x4f3-0x508 (21)
     |                                               |                |                  [0]{}: in 0x4f3-0x505 (18)
0x4f0|         fd                                    |   .            |                    opcode: "vector" (0xfd) 0x4f3-0x4f4 (1)
0x4f0|            0c                                 |    .           |                    v_opcode: "v128.const" (12) 0x4f4-0x4f5 (1)
0x4f0|               80 80 80 80 7f 7f 7f 7f 40 40 40|     ........@@@|                    bytes: raw bits 0x4f5-0x505 (16)
0x500|40 ff ff ff ff                                 |@....           |
     |                                               |                |                  [1]{}: in 0x505-0x507 (2)
0x500|               fd                              |     .          |                    opcode: "vector" (0xfd) 0x505-0x506 (1)
0x500|                  62                           |      b         |                    v_opcode: "i8x16.popcnt" (98) 0x506-0x507 (1)
     |                                               |                |                  [2]{}: in 0x507-0x508 (1)
0x500|                     0b                        |       .        |                    opcode: "end" (0xb) 0x507-0x508 (1)
     |                                               |                |            [19]{}: code 0x508-0x521 (25)
0x500|                        18                     |        .       |              size: 24 (valid) 0x508-0x509 (1)
     |                                               |                |              code{}: 0x509-0x521 (24)
     |                                               |                |                t{}: 0x509-0x50a (1)
0x500|                           00                  |         .      |                  n: 0 (valid) 0x509-0x50a (1)
     |                                               |                |                  x[0:0]: 0x50a-0x50a (0)
     |                                               |                |                e[0:4]: 0x50a-0x521 (23)
     |                                               |                |                  [0]{}: in 0x50a-0x50c (2)
0x500|                              20               |                |                    opcode: "local.get" (0x20) 0x50a-0x50b (1)
0x500|                                 00            |           .    |                    x: 0 (valid) 0x50b-0x50c (1)
     |                                               |                |                  [1]{}: in 0x50c-0x51e (18)
0x500|                                    fd         |            .   |                    opcode: "vector" (0xfd) 0x50c-0x50d (1)
0x500|                                       0c      |             .  |                    v_opcode: "v128.const" (12) 0x50d-0x50e (1)
0x500|                                          80 80|              ..|                    bytes: raw bits 0x50e-0x51e (16)
0x510|80 80 7f 7f 7f 7f 40 40 40 40 ff ff ff ff      |......@@@@....  |
     |                                               |                |                  [2]{}: in 0x51e-0x520 (2)
0x510|                                          fd   |              . |                    opcode: "vector" (0xfd) 0x51e-0x51f (1)
0x510|                                             76|               v|                    v_opcode: "i8x16.min_s" (118) 0x51f-0x520 (1)
     |                                               |                |                  [3]{}: in 0x520-0x521 (1)
0x520|0b                                             |.               |                    opcode: "end" (0xb) 0x520-0x521 (1)
     |                                               |                |            [20]{}: code 0x521-0x53a (25)
0x520|   18                                          | .              |              size: 24 (valid) 0x521-0x522 (1)
     |                                               |                |              code{}: 0x522-0x53a (24)
     |                                               |                |                t{}: 0x522-0x523 (1)
0x520|      00                                       |  .             |                  n: 0 (valid) 0x522-0x523 (1)
     |                                               |                |                  x[0:0]: 0x523-0x523 (0)
     |                                               |                |                e[0:4]: 0x523-0x53a (23)
     |                                               |                |                  [0]{}: in 0x523-0x525 (2)
0x520|         20                                    |                |                    opcode: "local.get" (0x20) 0x523-0x524 (1)
0x520|            00                                 |    .           |                    x: 0 (valid) 0x524-0x525 (1)
     |                                               |                |                  [1]{}: in 0x525-0x537 (18)
0x520|               fd                              |     .          |                    opcode: "vector" (0xfd) 0x525-0x526 (1)
0x520|                  0c                           |      .         |                    v_opcode: "v128.const" (12) 0x526-0x527 (1)
0x520|                     00 00 00 00 01 01 01 01 02|       .........|                    bytes: raw bits 0x527-0x537 (16)
0x530|02 02 02 03 03 03 03                           |.......         |
     |                                               |                |                  [2]{}: in 0x537-0x539 (2)
0x530|                     fd                        |       .        |                    opcode: "vector" (0xfd) 0x537-0x538 (1)
0x530|                        76                     |        v       |                    v_opcode: "i8x16.min_s" (118) 0x538-0x539 (1)
     |                                               |                |                  [3]{}: in 0x539-0x53a (1)
0x530|                           0b                  |         .      |                    opcode: "end" (0xb) 0x539-0x53a (1)
     |                                               |                |            [21]{}: code 0x53a-0x553 (25)
0x530|                              18               |          .     |              size: 24 (valid) 0x53a-0x53b (1)
     |                                               |                |              code{}: 0x53b-0x553 (24)
     |                                               |                |                t{}: 0x53b-0x53c (1)
0x530|                                 00            |           .    |                  n: 0 (valid) 0x53b-0x53c (1)
     |                                               |                |                  x[0:0]: 0x53c-0x53c (0)
     |                                               |                |                e[0:4]: 0x53c-0x553 (23)
     |                                               |                |                  [0]{}: in 0x53c-0x53e (2)
0x530|                                    20         |                |                    opcode: "local.get" (0x20) 0x53c-0x53d (1)
0x530|                                       00      |             .  |                    x: 0 (valid) 0x53d-0x53e (1)
     |                                               |                |                  [1]{}: in 0x53e-0x550 (18)
0x530|                                          fd   |              . |                    opcode: "vector" (0xfd) 0x53e-0x53f (1)
0x530|                                             0c|               .|                    v_opcode: "v128.const" (12) 0x53f-0x540 (1)
0x540|80 80 80 80 7f 7f 7f 7f 40 40 40 40 ff ff ff ff|........@@@@....|                    bytes: raw bits 0x540-0x550 (16)
     |                                               |                |                  [2]{}: in 0x550-0x552 (2)
0x550|fd                                             |.               |                    opcode: "vector" (0xfd) 0x550-0x551 (1)
0x550|   77                                          | w              |                    v_opcode: "i8x16.min_u" (119) 0x551-0x552 (1)
     |                                               |                |                  [3]{}: in 0x552-0x553 (1)
0x550|      0b                                       |  .             |                    opcode: "end" (0xb) 0x552-0x553 (1)
     |                                               |                |            [22]{}: code 0x553-0x56c (25)
0x550|         18                                    |   .            |              size: 24 (valid) 0x553-0x554 (1)
     |                                               |                |              code{}: 0x554-0x56c (24)
     |                                               |                |                t{}: 0x554-0x555 (1)
0x550|            00                                 |    .           |                  n: 0 (valid) 0x554-0x555 (1)
     |                                               |                |                  x[0:0]: 0x555-0x555 (0)
     |                                               |                |                e[0:4]: 0x555-0x56c (23)
     |                                               |                |                  [0]{}: in 0x555-0x557 (2)
0x550|               20                              |                |                    opcode: "local.get" (0x20) 0x555-0x556 (1)
0x550|                  00                           |      .         |                    x: 0 (valid) 0x556-0x557 (1)
     |                                               |                |                  [1]{}: in 0x557-0x569 (18)
0x550|                     fd                        |       .        |                    opcode: "vector" (0xfd) 0x557-0x558 (1)
0x550|                        0c                     |        .       |                    v_opcode: "v128.const" (12) 0x558-0x559 (1)
0x550|                           00 00 00 00 01 01 01|         .......|                    bytes: raw bits 0x559-0x569 (16)
0x560|01 02 02 02 02 03 03 03 03                     |.........       |
     |                                               |                |                  [2]{}: in 0x569-0x56b (2)
0x560|                           fd                  |         .      |                    opcode: "vector" (0xfd) 0x569-0x56a (1)
0x560|                              77               |          w     |                    v_opcode: "i8x16.min_u" (119) 0x56a-0x56b (1)
     |                                               |                |                  [3]{}: in 0x56b-0x56c (1)
0x560|                                 0b            |           .    |                    opcode: "end" (0xb) 0x56b-0x56c (1)
     |                                               |                |            [23]{}: code 0x56c-0x585 (25)
0x560|                                    18         |            .   |              size: 24 (valid) 0x56c-0x56d (1)
     |                                               |                |              code{}: 0x56d-0x585 (24)
     |                                               |                |                t{}: 0x56d-0x56e (1)
0x560|                                       00      |             .  |                  n: 0 (valid) 0x56d-0x56e (1)
     |                                               |                |                  x[0:0]: 0x56e-0x56e (0)
     |                                               |                |                e[0:4]: 0x56e-0x585 (23)
     |                                               |                |                  [0]{}: in 0x56e-0x570 (2)
0x560|                                          20   |                |                    opcode: "local.get" (0x20) 0x56e-0x56f (1)
0x560|                                             00|               .|                    x: 0 (valid) 0x56f-0x570 (1)
     |                                               |                |                  [1]{}: in 0x570-0x582 (18)
0x570|fd                                             |.               |                    opcode: "vector" (0xfd) 0x570-0x571 (1)
0x570|   0c                                          | .              |                    v_opcode: "v128.const" (12) 0x571-0x572 (1)
0x570|      80 80 80 80 7f 7f 7f 7f 40 40 40 40 ff ff|  ........@@@@..|                    bytes: raw bits 0x572-0x582 (16)
0x580|ff ff                                          |..              |
     |                                               |                |                  [2]{}: in 0x582-0x584 (2)
0x580|      fd                                       |  .             |                    opcode: "vector" (0xfd) 0x582-0x583 (1)
0x580|         78                                    |   x            |                    v_opcode: "i8x16.max_s" (120) 0x583-0x584 (1)
     |                                               |                |                  [3]{}: in 0x584-0x585 (1)
0x580|            0b                                 |    .           |                    opcode: "end" (0xb) 0x584-0x585 (1)
     |                                               |                |            [24]{}: code 0x585-0x59e (25)
0x580|               18                              |     .          |              size: 24 (valid) 0x585-0x586 (1)
     |                                               |                |              code{}: 0x586-0x59e (24)
     |                                               |                |                t{}: 0x586-0x587 (1)
0x580|                  00                           |      .         |                  n: 0 (valid) 0x586-0x587 (1)
     |                                               |                |                  x[0:0]: 0x587-0x587 (0)
     |                                               |                |                e[0:4]: 0x587-0x59e (23)
     |                                               |                |                  [0]{}: in 0x587-0x589 (2)
0x580|                     20                        |                |                    opcode: "local.get" (0x20) 0x587-0x588 (1)
0x580|                        00                     |        .       |                    x: 0 (valid) 0x588-0x589 (1)
     |                                               |                |                  [1]{}: in 0x589-0x59b (18)
0x580|                           fd                  |         .      |                    opcode: "vector" (0xfd) 0x589-0x58a (1)
0x580|                              0c               |          .     |                    v_opcode: "v128.const" (12) 0x58a-0x58b (1)
0x580|                                 00 00 00 00 01|           .....|                    bytes: raw bits 0x58b-0x59b (16)
0x590|01 01 01 02 02 02 02 03 03 03 03               |...........     |
     |                                               |                |                  [2]{}: in 0x59b-0x59d (2)
0x590|                                 fd            |           .    |                    opcode: "vector" (0xfd) 0x59b-0x59c (1)
0x590|                                    78         |            x   |                    v_opcode: "i8x16.max_s" (120) 0x59c-0x59d (1)
     |                                               |                |                  [3]{}: in 0x59d-0x59e (1)
0x590|                                       0b      |             .  |                    opcode: "end" (0xb) 0x59d-0x59e (1)
     |                                               |                |            [25]{}: code 0x59e-0x5b7 (25)
0x590|                                          18   |              . |              size: 24 (valid) 0x59e-0x59f (1)
     |                                               |                |              code{}: 0x59f-0x5b7 (24)
     |                                               |                |                t{}: 0x59f-0x5a0 (1)
0x590|                                             00|               .|                  n: 0 (valid) 0x59f-0x5a0 (1)
     |                                               |                |                  x[0:0]: 0x5a0-0x5a0 (0)
     |                                               |                |                e[0:4]: 0x5a0-0x5b7 (23)
     |                                               |                |                  [0]{}: in 0x5a0-0x5a2 (2)
0x5a0|20                                             |                |                    opcode: "local.get" (0x20) 0x5a0-0x5a1 (1)
0x5a0|   00                                          | .              |                    x: 0 (valid) 0x5a1-0x5a2 (1)
     |                                               |                |                  [1]{}: in 0x5a2-0x5b4 (18)
0x5a0|      fd                                       |  .             |                    opcode: "vector" (0xfd) 0x5a2-0x5a3 (1)
0x5a0|         0c                                    |   .            |                    v_opcode: "v128.const" (12) 0x5a3-0x5a4 (1)
0x5a0|            80 80 80 80 7f 7f 7f 7f 40 40 40 40|    ........@@@@|                    bytes: raw bits 0x5a4-0x5b4 (16)
0x5b0|ff ff ff ff                                    |....            |
     |                                               |                |                  [2]{}: in 0x5b4-0x5b6 (2)
0x5b0|            fd                                 |    .           |                    opcode: "vector" (0xfd) 0x5b4-0x5b5 (1)
0x5b0|               79                              |     y          |                    v_opcode: "i8x16.max_u" (121) 0x5b5-0x5b6 (1)
     |                                               |                |                  [3]{}: in 0x5b6-0x5b7 (1)
0x5b0|                  0b                           |      .         |                    opcode: "end" (0xb) 0x5b6-0x5b7 (1)
     |                                               |                |            [26]{}: code 0x5b7-0x5d0 (25)
0x5b0|                     18                        |       .        |              size: 24 (valid) 0x5b7-0x5b8 (1)
     |                                               |                |              code{}: 0x5b8-0x5d0 (24)
     |                                               |                |                t{}: 0x5b8-0x5b9 (1)
0x5b0|                        00                     |        .       |                  n: 0 (valid) 0x5b8-0x5b9 (1)
     |                                               |                |                  x[0:0]: 0x5b9-0x5b9 (0)
     |                                               |                |                e[0:4]: 0x5b9-0x5d0 (23)
     |                                               |                |                  [0]{}: in 0x5b9-0x5bb (2)
0x5b0|                           20                  |                |                    opcode: "local.get" (0x20) 0x5b9-0x5ba (1)
0x5b0|                              00               |          .     |                    x: 0 (valid) 0x5ba-0x5bb (1)
     |                                               |                |                  [1]{}: in 0x5bb-0x5cd (18)
0x5b0|                                 fd            |           .    |                    opcode: "vector" (0xfd) 0x5bb-0x5bc (1)
0x5b0|                                    0c         |            .   |                    v_opcode: "v128.const" (12) 0x5bc-0x5bd (1)
0x5b0|                                       00 00 00|             ...|                    bytes: raw bits 0x5bd-0x5cd (16)
0x5c0|00 01 01 01 01 02 02 02 02 03 03 03 03         |.............   |
     |                                               |                |                  [2]{}: in 0x5cd-0x5cf (2)
0x5c0|                                       fd      |             .  |                    opcode: "vector" (0xfd) 0x5cd-0x5ce (1)
0x5c0|                                          79   |              y |                    v_opcode: "i8x16.max_u" (121) 0x5ce-0x5cf (1)
     |                                               |                |                  [3]{}: in 0x5cf-0x5d0 (1)
0x5c0|                                             0b|               .|                    opcode: "end" (0xb) 0x5cf-0x5d0 (1)
     |                                               |                |            [27]{}: code 0x5d0-0x5e9 (25)
0x5d0|18                                             |.               |              size: 24 (valid) 0x5d0-0x5d1 (1)
     |                                               |                |              code{}: 0x5d1-0x5e9 (24)
     |                                               |                |                t{}: 0x5d1-0x5d2 (1)
0x5d0|   00                                          | .              |                  n: 0 (valid) 0x5d1-0x5d2 (1)
     |                                               |                |                  x[0:0]: 0x5d2-0x5d2 (0)
     |                                               |                |                e[0:4]: 0x5d2-0x5e9 (23)
     |                                               |                |                  [0]{}: in 0x5d2-0x5d4 (2)
0x5d0|      20                                       |                |                    opcode: "local.get" (0x20) 0x5d2-0x5d3 (1)
0x5d0|         00                                    |   .            |                    x: 0 (valid) 0x5d3-0x5d4 (1)
     |                                               |                |                  [1]{}: in 0x5d4-0x5e6 (18)
0x5d0|            fd                                 |    .           |                    opcode: "vector" (0xfd) 0x5d4-0x5d5 (1)
0x5d0|               0c                              |     .          |                    v_opcode: "v128.const" (12) 0x5d5-0x5d6 (1)
0x5d0|                  80 80 80 80 7f 7f 7f 7f 40 40|      ........@@|                    bytes: raw bits 0x5d6-0x5e6 (16)
0x5e0|40 40 ff ff ff ff                              |@@....          |
     |                                               |                |                  [2]{}: in 0x5e6-0x5e8 (2)
0x5e0|                  fd                           |      .         |                    opcode: "vector" (0xfd) 0x5e6-0x5e7 (1)
0x5e0|                     7b                        |       {        |                    v_opcode: "i8x16.avgr_u" (123) 0x5e7-0x5e8 (1)
     |                                               |                |                  [3]{}: in 0x5e8-0x5e9 (1)
0x5e0|                        0b                     |        .       |                    opcode: "end" (0xb) 0x5e8-0x5e9 (1)
     |                                               |                |            [28]{}: code 0x5e9-0x602 (25)
0x5e0|                           18                  |         .      |              size: 24 (valid) 0x5e9-0x5ea (1)
     |                                               |                |              code{}: 0x5ea-0x602 (24)
     |                                               |                |                t{}: 0x5ea-0x5eb (1)
0x5e0|                              00               |          .     |                  n: 0 (valid) 0x5ea-0x5eb (1)
     |                                               |                |                  x[0:0]: 0x5eb-0x5eb (0)
     |                                               |                |                e[0:4]: 0x5eb-0x602 (23)
     |                                               |                |                  [0]{}: in 0x5eb-0x5ed (2)
0x5e0|                                 20            |                |                    opcode: "local.get" (0x20) 0x5eb-0x5ec (1)
0x5e0|                                    00         |            .   |                    x: 0 (valid) 0x5ec-0x5ed (1)
     |                                               |                |                  [1]{}: in 0x5ed-0x5ff (18)
0x5e0|                                       fd      |             .  |                    opcode: "vector" (0xfd) 0x5ed-0x5ee (1)
0x5e0|                                          0c   |              . |                    v_opcode: "v128.const" (12) 0x5ee-0x5ef (1)
0x5e0|                                             00|               .|                    bytes: raw bits 0x5ef-0x5ff (16)
0x5f0|00 00 00 01 01 01 01 02 02 02 02 03 03 03 03   |............... |
     |                                               |                |                  [2]{}: in 0x5ff-0x601 (2)
0x5f0|                                             fd|               .|                    opcode: "vector" (0xfd) 0x5ff-0x600 (1)
0x600|7b                                             |{               |                    v_opcode: "i8x16.avgr_u" (123) 0x600-0x601 (1)
     |                                               |                |                  [3]{}: in 0x601-0x602 (1)
0x600|   0b|                                         | .|             |                    opcode: "end" (0xb) 0x601-0x602 (1)
