$ fq -d wasm dv simd_f64x2-1.wasm
    |00 01 02 03 04 05 06 07 08 09 0a 0b 0c 0d 0e 0f|0123456789abcdef|.{}: simd_f64x2-1.wasm (wasm) 0x0-0x85 (133)
0x00|00 61 73 6d                                    |.asm            |  magic: raw bits (valid) 0x0-0x4 (4)
0x00|            01 00 00 00                        |    ....        |  version: 1 0x4-0x8 (4)
    |                                               |                |  sections[0:4]: 0x8-0x85 (125)
    |                                               |                |    [0]{}: section 0x8-0x18 (16)
0x00|                        01                     |        .       |      id: "type_section" (1) 0x8-0x9 (1)
0x00|                           0e                  |         .      |      size: 14 (valid) 0x9-0xa (1)
    |                                               |                |      content{}: 0xa-0x18 (14)
    |                                               |                |        ft{}: 0xa-0x18 (14)
0x00|                              02               |          .     |          n: 2 (valid) 0xa-0xb (1)
    |                                               |                |          x[0:2]: 0xb-0x18 (13)
    |                                               |                |            [0]{}: ft 0xb-0x12 (7)
0x00|                                 60            |           `    |              tag: 0x60 (valid) 0xb-0xc (1)
    |                                               |                |              rt1{}: 0xc-0x10 (4)
0x00|                                    03         |            .   |                n: 3 (valid) 0xc-0xd (1)
    |                                               |                |                x[0:3]: 0xd-0x10 (3)
0x00|                                       7b      |             {  |                  [0]: "v128" (0x7b) t 0xd-0xe (1)
0x00|                                          7b   |              { |                  [1]: "v128" (0x7b) t 0xe-0xf (1)
0x00|                                             7b|               {|                  [2]: "v128" (0x7b) t 0xf-0x10 (1)
    |                                               |                |              rt2{}: 0x10-0x12 (2)
0x10|01                                             |.               |                n: 1 (valid) 0x10-0x11 (1)
    |                                               |                |                x[0:1]: 0x11-0x12 (1)
0x10|   7b                                          | {              |                  [0]: "v128" (0x7b) t 0x11-0x12 (1)
    |                                               |                |            [1]{}: ft 0x12-0x18 (6)
0x10|      60                                       |  `             |              tag: 0x60 (valid) 0x12-0x13 (1)
    |                                               |                |              rt1{}: 0x13-0x16 (3)
0x10|         02                                    |   .            |                n: 2 (valid) 0x13-0x14 (1)
    |                                               |                |                x[0:2]: 0x14-0x16 (2)
0x10|            7b                                 |    {           |                  [0]: "v128" (0x7b) t 0x14-0x15 (1)
0x10|               7b                              |     {          |                  [1]: "v128" (0x7b) t 0x15-0x16 (1)
    |                                               |                |              rt2{}: 0x16-0x18 (2)
0x10|                  01                           |      .         |                n: 1 (valid) 0x16-0x17 (1)
    |                                               |                |                x[0:1]: 0x17-0x18 (1)
0x10|                     7b                        |       {        |                  [0]: "v128" (0x7b) t 0x17-0x18 (1)
    |                                               |                |    [1]{}: section 0x18-0x1f (7)
0x10|                        03                     |        .       |      id: "function_section" (3) 0x18-0x19 (1)
0x10|                           05                  |         .      |      size: 5 (valid) 0x19-0x1a (1)
    |                                               |                |      content{}: 0x1a-0x1f (5)
    |                                               |                |        x{}: 0x1a-0x1f (5)
0x10|                              04               |          .     |          n: 4 (valid) 0x1a-0x1b (1)
    |                                               |                |          x[0:4]: 0x1b-0x1f (4)
0x10|                                 00            |           .    |            [0]: 0 x (valid) 0x1b-0x1c (1)
0x10|                                    00         |            .   |            [1]: 0 x (valid) 0x1c-0x1d (1)
0x10|                                       01      |             .  |            [2]: 1 x (valid) 0x1d-0x1e (1)
0x10|                                          01   |              . |            [3]: 1 x (valid) 0x1e-0x1f (1)
    |                                               |                |    [2]{}: section 0x1f-0x4a (43)
0x10|                                             07|               .|      id: "export_section" (7) 0x1f-0x20 (1)
0x20|29                                             |)               |      size: 41 (valid) 0x20-0x21 (1)
    |                                               |                |      content{}: 0x21-0x4a (41)
    |                                               |                |        ex{}: 0x21-0x4a (41)
0x20|   04                                          | .              |          n: 4 (valid) 0x21-0x22 (1)
    |                                               |                |          x[0:4]: 0x22-0x4a (40)
    |                                               |                |            [0]{}: ex 0x22-0x2c (10)
    |                                               |                |              nm{}: 0x22-0x2a (8)
0x20|      07                                       |  .             |                n: 7 (valid) 0x22-0x23 (1)
0x20|         6d 61 78 2d 6d 69 6e                  |   max-min      |                b: "max-min" 0x23-0x2a (7)
    |                                               |                |              d{}: 0x2a-0x2c (2)
0x20|                              00               |          .     |                tag: "funcidx" (0x0) 0x2a-0x2b (1)
0x20|                                 00            |           .    |                x: 0 (valid) 0x2b-0x2c (1)
    |                                               |                |            [1]{}: ex 0x2c-0x36 (10)
    |                                               |                |              nm{}: 0x2c-0x34 (8)
0x20|                                    07         |            .   |                n: 7 (valid) 0x2c-0x2d (1)
0x20|                                       6d 69 6e|             min|                b: "min-max" 0x2d-0x34 (7)
0x30|2d 6d 61 78                                    |-max            |
    |                                               |                |              d{}: 0x34-0x36 (2)
0x30|            00                                 |    .           |                tag: "funcidx" (0x0) 0x34-0x35 (1)
0x30|               01                              |     .          |                x: 1 (valid) 0x35-0x36 (1)
    |                                               |                |            [2]{}: ex 0x36-0x40 (10)
    |                                               |                |              nm{}: 0x36-0x3e (8)
0x30|                  07                           |      .         |                n: 7 (valid) 0x36-0x37 (1)
0x30|                     6d 61 78 2d 61 62 73      |       max-abs  |                b: "max-abs" 0x37-0x3e (7)
    |                                               |                |              d{}: 0x3e-0x40 (2)
0x30|                                          00   |              . |                tag: "funcidx" (0x0) 0x3e-0x3f (1)
0x30|                                             02|               .|                x: 2 (valid) 0x3f-0x40 (1)
    |                                               |                |            [3]{}: ex 0x40-0x4a (10)
    |                                               |                |              nm{}: 0x40-0x48 (8)
0x40|07                                             |.               |                n: 7 (valid) 0x40-0x41 (1)
0x40|   6d 69 6e 2d 61 62 73                        | min-abs        |                b: "min-abs" 0x41-0x48 (7)
    |                                               |                |              d{}: 0x48-0x4a (2)
0x40|                        00                     |        .       |                tag: "funcidx" (0x0) 0x48-0x49 (1)
0x40|                           03                  |         .      |                x: 3 (valid) 0x49-0x4a (1)
    |                                               |                |    [3]{}: section 0x4a-0x85 (59)
0x40|                              0a               |          .     |      id: "code_section" (10) 0x4a-0x4b (1)
0x40|                                 39            |           9    |      size: 57 (valid) 0x4b-0x4c (1)
    |                                               |                |      content{}: 0x4c-0x85 (57)
    |                                               |                |        code{}: 0x4c-0x85 (57)
0x40|                                    04         |            .   |          n: 4 (valid) 0x4c-0x4d (1)
    |                                               |                |          x[0:4]: 0x4d-0x85 (56)
    |                                               |                |            [0]{}: code 0x4d-0x5c (15)
0x40|                                       0e      |             .  |              size: 14 (valid) 0x4d-0x4e (1)
    |                                               |                |              code{}: 0x4e-0x5c (14)
    |                                               |                |                t{}: 0x4e-0x4f (1)
0x40|                                          00   |              . |                  n: 0 (valid) 0x4e-0x4f (1)
    |                                               |                |                  x[0:0]: 0x4f-0x4f (0)
    |                                               |                |                e[0:6]: 0x4f-0x5c (13)
    |                                               |                |                  [0]{}: in 0x4f-0x51 (2)
0x40|                                             20|                |                    opcode: "local.get" (0x20) 0x4f-0x50 (1)
0x50|00                                             |.               |                    x: 0 (valid) 0x50-0x51 (1)
    |                                               |                |                  [1]{}: in 0x51-0x53 (2)
0x50|   20                                          |                |                    opcode: "local.get" (0x20) 0x51-0x52 (1)
0x50|      01                                       |  .             |                    x: 1 (valid) 0x52-0x53 (1)
    |                                               |                |                  [2]{}: in 0x53-0x56 (3)
0x50|         fd                                    |   .            |                    opcode: "vector" (0xfd) 0x53-0x54 (1)
0x50|            f4 01                              |    ..          |                    v_opcode: "f64x2.min" (244) 0x54-0x56 (2)
    |                                               |                |                  [3]{}: in 0x56-0x58 (2)
0x50|                  20                           |                |                    opcode: "local.get" (0x20) 0x56-0x57 (1)
0x50|                     02                        |       .        |                    x: 2 (valid) 0x57-0x58 (1)
    |                                               |                |                  [4]{}: in 0x58-0x5b (3)
0x50|                        fd                     |        .       |                    opcode: "vector" (0xfd) 0x58-0x59 (1)
0x50|                           f5 01               |         ..     |                    v_opcode: "f64x2.max" (245) 0x59-0x5b (2)
    |                                               |                |                  [5]{}: in 0x5b-0x5c (1)
0x50|                                 0b            |           .    |                    opcode: "end" (0xb) 0x5b-0x5c (1)
    |                                               |                |            [1]{}: code 0x5c-0x6b (15)
0x50|                                    0e         |            .   |              size: 14 (valid) 0x5c-0x5d (1)
    |                                               |                |              code{}: 0x5d-0x6b (14)
    |                                               |                |                t{}: 0x5d-0x5e (1)
0x50|                                       00      |             .  |                  n: 0 (valid) 0x5d-0x5e (1)
    |                                               |                |                  x[0:0]: 0x5e-0x5e (0)
    |                                               |                |                e[0:6]: 0x5e-0x6b (13)
    |                                               |                |                  [0]{}: in 0x5e-0x60 (2)
0x50|                                          20   |                |                    opcode: "local.get" (0x20) 0x5e-0x5f (1)
0x50|                                             00|               .|                    x: 0 (valid) 0x5f-0x60 (1)
    |                                               |                |                  [1]{}: in 0x60-0x62 (2)
0x60|20                                             |                |                    opcode: "local.get" (0x20) 0x60-0x61 (1)
0x60|   01                                          | .              |                    x: 1 (valid) 0x61-0x62 (1)
    |                                               |                |                  [2]{}: in 0x62-0x65 (3)
0x60|      fd                                       |  .             |                    opcode: "vector" (0xfd) 0x62-0x63 (1)
0x60|         f5 01                                 |   ..           |                    v_opcode: "f64x2.max" (245) 0x63-0x65 (2)
    |                                               |                |                  [3]{}: in 0x65-0x67 (2)
0x60|               20                              |                |                    opcode: "local.get" (0x20) 0x65-0x66 (1)
0x60|                  02                           |      .         |                    x: 2 (valid) 0x66-0x67 (1)
    |                                               |                |                  [4]{}: in 0x67-0x6a (3)
0x60|                     fd                        |       .        |                    opcode: "vector" (0xfd) 0x67-0x68 (1)
0x60|                        f4 01                  |        ..      |                    v_opcode: "f64x2.min" (244) 0x68-0x6a (2)
    |                                               |                |                  [5]{}: in 0x6a-0x6b (1)
0x60|                              0b               |          .     |                    opcode: "end" (0xb) 0x6a-0x6b (1)
    |                                               |                |            [2]{}: code 0x6b-0x78 (13)
0x60|                                 0c            |           .    |              size: 12 (valid) 0x6b-0x6c (1)
    |                                               |                |              code{}: 0x6c-0x78 (12)
    |                                               |                |                t{}: 0x6c-0x6d (1)
0x60|                                    00         |            .   |                  n: 0 (valid) 0x6c-0x6d (1)
    |                                               |                |                  x[0:0]: 0x6d-0x6d (0)
    |                                               |                |                e[0:5]: 0x6d-0x78 (11)
    |                                               |                |                  [0]{}: in 0x6d-0x6f (2)
0x60|                                       20      |                |                    opcode: "local.get" (0x20) 0x6d-0x6e (1)
0x60|                                          00   |              . |                    x: 0 (valid) 0x6e-0x6f (1)
    |                                               |                |                  [1]{}: in 0x6f-0x72 (3)
0x60|                                             fd|               .|                    opcode: "vector" (0xfd) 0x6f-0x70 (1)
0x70|ec 01                                          |..              |                    v_opcode: "f64x2.abs" (236) 0x70-0x72 (2)
    |                                               |                |                  [2]{}: in 0x72-0x74 (2)
0x70|      20                                       |                |                    opcode: "local.get" (0x20) 0x72-0x73 (1)
0x70|         01                                    |   .            |                    x: 1 (valid) 0x73-0x74 (1)
    |                                               |                |                  [3]{}: in 0x74-0x77 (3)
0x70|            fd                                 |    .           |                    opcode: "vector" (0xfd) 0x74-0x75 (1)
0x70|               f5 01                           |     ..         |                    v_opcode: "f64x2.max" (245) 0x75-0x77 (2)
    |                                               |                |                  [4]{}: in 0x77-0x78 (1)
0x70|                     0b                        |       .        |                    opcode: "end" (0xb) 0x77-0x78 (1)
    |                                               |                |            [3]{}: code 0x78-0x85 (13)
0x70|                        0c                     |        .       |              size: 12 (valid) 0x78-0x79 (1)
    |                                               |                |              code{}: 0x79-0x85 (12)
    |                                               |                |                t{}: 0x79-0x7a (1)
0x70|                           00                  |         .      |                  n: 0 (valid) 0x79-0x7a (1)
    |                                               |                |                  x[0:0]: 0x7a-0x7a (0)
    |                                               |                |                e[0:5]: 0x7a-0x85 (11)
    |                                               |                |                  [0]{}: in 0x7a-0x7c (2)
0x70|                              20               |                |                    opcode: "local.get" (0x20) 0x7a-0x7b (1)
0x70|                                 00            |           .    |                    x: 0 (valid) 0x7b-0x7c (1)
    |                                               |                |                  [1]{}: in 0x7c-0x7f (3)
0x70|                                    fd         |            .   |                    opcode: "vector" (0xfd) 0x7c-0x7d (1)
0x70|                                       ec 01   |             .. |                    v_opcode: "f64x2.abs" (236) 0x7d-0x7f (2)
    |                                               |                |                  [2]{}: in 0x7f-0x81 (2)
0x70|                                             20|                |                    opcode: "local.get" (0x20) 0x7f-0x80 (1)
0x80|01                                             |.               |                    x: 1 (valid) 0x80-0x81 (1)
    |                                               |                |                  [3]{}: in 0x81-0x84 (3)
0x80|   fd                                          | .              |                    opcode: "vector" (0xfd) 0x81-0x82 (1)
0x80|      f4 01                                    |  ..            |                    v_opcode: "f64x2.min" (244) 0x82-0x84 (2)
    |                                               |                |                  [4]{}: in 0x84-0x85 (1)
0x80|            0b|                                |    .|          |                    opcode: "end" (0xb) 0x84-0x85 (1)
