$ fq -d wasm dv simd_load_zero-1.wasm
     |00 01 02 03 04 05 06 07 08 09 0a 0b 0c 0d 0e 0f|0123456789abcdef|.{}: simd_load_zero-1.wasm (wasm) 0x0-0x16a (362)
0x000|00 61 73 6d                                    |.asm            |  magic: raw bits (valid) 0x0-0x4 (4)
0x000|            01 00 00 00                        |    ....        |  version: 1 0x4-0x8 (4)
     |                                               |                |  sections[0:6]: 0x8-0x16a (354)
     |                                               |                |    [0]{}: section 0x8-0x17 (15)
0x000|                        01                     |        .       |      id: "type_section" (1) 0x8-0x9 (1)
0x000|                           0d                  |         .      |      size: 13 (valid) 0x9-0xa (1)
     |                                               |                |      content{}: 0xa-0x17 (13)
     |                                               |                |        ft{}: 0xa-0x17 (13)
0x000|                              03               |          .     |          n: 3 (valid) 0xa-0xb (1)
     |                                               |                |          x[0:3]: 0xb-0x17 (12)
     |                                               |                |            [0]{}: ft 0xb-0xf (4)
0x000|                                 60            |           `    |              tag: 0x60 (valid) 0xb-0xc (1)
     |                                               |                |              rt1{}: 0xc-0xd (1)
0x000|                                    00         |            .   |                n: 0 (valid) 0xc-0xd (1)
     |                                               |                |                x[0:0]: 0xd-0xd (0)
     |                                               |                |              rt2{}: 0xd-0xf (2)
0x000|                                       01      |             .  |                n: 1 (valid) 0xd-0xe (1)
     |                                               |                |                x[0:1]: 0xe-0xf (1)
0x000|                                          7b   |              { |                  [0]: "v128" (0x7b) t 0xe-0xf (1)
     |                                               |                |            [1]{}: ft 0xf-0x13 (4)
0x000|                                             60|               `|              tag: 0x60 (valid) 0xf-0x10 (1)
     |                                               |                |              rt1{}: 0x10-0x11 (1)
0x010|00                                             |.               |                n: 0 (valid) 0x10-0x11 (1)
     |                                               |                |                x[0:0]: 0x11-0x11 (0)
     |                                               |                |              rt2{}: 0x11-0x13 (2)
0x010|   01                                          | .              |                n: 1 (valid) 0x11-0x12 (1)
     |                                               |                |                x[0:1]: 0x12-0x13 (1)
0x010|      7f                                       |  .             |                  [0]: "i32" (0x7f) t 0x12-0x13 (1)
     |                                               |                |            [2]{}: ft 0x13-0x17 (4)
0x010|         60                                    |   `            |              tag: 0x60 (valid) 0x13-0x14 (1)
     |                                               |                |              rt1{}: 0x14-0x15 (1)
0x010|            00                                 |    .           |                n: 0 (valid) 0x14-0x15 (1)
     |                                               |                |                x[0:0]: 0x15-0x15 (0)
     |                                               |                |              rt2{}: 0x15-0x17 (2)
0x010|               01                              |     .          |                n: 1 (valid) 0x15-0x16 (1)
     |                                               |                |                x[0:1]: 0x16-0x17 (1)
0x010|                  7e                           |      ~         |                  [0]: "i64" (0x7e) t 0x16-0x17 (1)
     |                                               |                |    [1]{}: section 0x17-0x20 (9)
0x010|                     03                        |       .        |      id: "function_section" (3) 0x17-0x18 (1)
0x010|                        07                     |        .       |      size: 7 (valid) 0x18-0x19 (1)
     |                                               |                |      content{}: 0x19-0x20 (7)
     |                                               |                |        x{}: 0x19-0x20 (7)
0x010|                           06                  |         .      |          n: 6 (valid) 0x19-0x1a (1)
     |                                               |                |          x[0:6]: 0x1a-0x20 (6)
0x010|                              00               |          .     |            [0]: 0 x (valid) 0x1a-0x1b (1)
0x010|                                 00            |           .    |            [1]: 0 x (valid) 0x1b-0x1c (1)
0x010|                                    00         |            .   |            [2]: 0 x (valid) 0x1c-0x1d (1)
0x010|                                       00      |             .  |            [3]: 0 x (valid) 0x1d-0x1e (1)
0x010|                                          01   |              . |            [4]: 1 x (valid) 0x1e-0x1f (1)
0x010|                                             02|               .|            [5]: 2 x (valid) 0x1f-0x20 (1)
     |                                               |                |    [2]{}: section 0x20-0x25 (5)
0x020|05                                             |.               |      id: "memory_section" (5) 0x20-0x21 (1)
0x020|   03                                          | .              |      size: 3 (valid) 0x21-0x22 (1)
     |                                               |                |      content{}: 0x22-0x25 (3)
     |                                               |                |        mem{}: 0x22-0x25 (3)
0x020|      01                                       |  .             |          n: 1 (valid) 0x22-0x23 (1)
     |                                               |                |          x[0:1]: 0x23-0x25 (2)
     |                                               |                |            [0]{}: mem 0x23-0x25 (2)
     |                                               |                |              lim{}: 0x23-0x25 (2)
0x020|         00                                    |   .            |                tag: 0x0 0x23-0x24 (1)
0x020|            01                                 |    .           |                n: 1 (valid) 0x24-0x25 (1)
     |                                               |                |    [3]{}: section 0x25-0xf3 (206)
0x020|               07                              |     .          |      id: "export_section" (7) 0x25-0x26 (1)
0x020|                  cb 01                        |      ..        |      size: 203 (valid) 0x26-0x28 (2)
     |                                               |                |      content{}: 0x28-0xf3 (203)
     |                                               |                |        ex{}: 0x28-0xf3 (203)
0x020|                        06                     |        .       |          n: 6 (valid) 0x28-0x29 (1)
     |                                               |                |          x[0:6]: 0x29-0xf3 (202)
     |                                               |                |            [0]{}: ex 0x29-0x45 (28)
     |                                               |                |              nm{}: 0x29-0x43 (26)
0x020|                           19                  |         .      |                n: 25 (valid) 0x29-0x2a (1)
0x020|                              76 31 32 38 2e 6c|          v128.l|                b: "v128.load32_zero-in-block" 0x2a-0x43 (25)
0x030|6f 61 64 33 32 5f 7a 65 72 6f 2d 69 6e 2d 62 6c|oad32_zero-in-bl|
0x040|6f 63 6b                                       |ock             |
     |                                               |                |              d{}: 0x43-0x45 (2)
0x040|         00                                    |   .            |                tag: "funcidx" (0x0) 0x43-0x44 (1)
0x040|            00                                 |    .           |                x: 0 (valid) 0x44-0x45 (1)
     |                                               |                |            [1]{}: ex 0x45-0x61 (28)
     |                                               |                |              nm{}: 0x45-0x5f (26)
0x040|               19                              |     .          |                n: 25 (valid) 0x45-0x46 (1)
0x040|                  76 31 32 38 2e 6c 6f 61 64 36|      v128.load6|                b: "v128.load64_zero-in-block" 0x46-0x5f (25)
0x050|34 5f 7a 65 72 6f 2d 69 6e 2d 62 6c 6f 63 6b   |4_zero-in-block |
     |                                               |                |              d{}: 0x5f-0x61 (2)
0x050|                                             00|               .|                tag: "funcidx" (0x0) 0x5f-0x60 (1)
0x060|01                                             |.               |                x: 1 (valid) 0x60-0x61 (1)
     |                                               |                |            [2]{}: ex 0x61-0x80 (31)
     |                                               |                |              nm{}: 0x61-0x7e (29)
0x060|   1c                                          | .              |                n: 28 (valid) 0x61-0x62 (1)
0x060|      76 31 32 38 2e 6c 6f 61 64 33 32 5f 7a 65|  v128.load32_ze|                b: "v128.load32_zero-as-br-value" 0x62-0x7e (28)
0x070|72 6f 2d 61 73 2d 62 72 2d 76 61 6c 75 65      |ro-as-br-value  |
     |                                               |                |              d{}: 0x7e-0x80 (2)
0x070|                                          00   |              . |                tag: "funcidx" (0x0) 0x7e-0x7f (1)
0x070|                                             02|               .|                x: 2 (valid) 0x7f-0x80 (1)
     |                                               |                |            [3]{}: ex 0x80-0x9f (31)
     |                                               |                |              nm{}: 0x80-0x9d (29)
0x080|1c                                             |.               |                n: 28 (valid) 0x80-0x81 (1)
0x080|   76 31 32 38 2e 6c 6f 61 64 36 34 5f 7a 65 72| v128.load64_zer|                b: "v128.load64_zero-as-br-value" 0x81-0x9d (28)
0x090|6f 2d 61 73 2d 62 72 2d 76 61 6c 75 65         |o-as-br-value   |
     |                                               |                |              d{}: 0x9d-0x9f (2)
0x090|                                       00      |             .  |                tag: "funcidx" (0x0) 0x9d-0x9e (1)
0x090|                                          03   |              . |                x: 3 (valid) 0x9e-0x9f (1)
     |                                               |                |            [4]{}: ex 0x9f-0xc9 (42)
     |                                               |                |              nm{}: 0x9f-0xc7 (40)
0x090|                                             27|               '|                n: 39 (valid) 0x9f-0xa0 (1)
0x0a0|76 31 32 38 2e 6c 6f 61 64 33 32 5f 7a 65 72 6f|v128.load32_zero|                b: "v128.load32_zero-extract_lane_s-operand" 0xa0-0xc7 (39)
*    |until 0xc6.7 (39)                              |                |
     |                                               |                |              d{}: 0xc7-0xc9 (2)
0x0c0|                     00                        |       .        |                tag: "funcidx" (0x0) 0xc7-0xc8 (1)
0x0c0|                        04                     |        .       |                x: 4 (valid) 0xc8-0xc9 (1)
     |                                               |                |            [5]{}: ex 0xc9-0xf3 (42)
     |                                               |                |              nm{}: 0xc9-0xf1 (40)
0x0c0|                           27                  |         '      |                n: 39 (valid) 0xc9-0xca (1)
0x0c0|                              76 31 32 38 2e 6c|          v128.l|                b: "v128.load64_zero-extract_lane_s-operand" 0xca-0xf1 (39)
0x0d0|6f 61 64 36 34 5f 7a 65 72 6f 2d 65 78 74 72 61|oad64_zero-extra|
*    |until 0xf0.7 (39)                              |                |
     |                                               |                |              d{}: 0xf1-0xf3 (2)
0x0f0|   00                                          | .              |                tag: "funcidx" (0x0) 0xf1-0xf2 (1)
0x0f0|      05                                       |  .             |                x: 5 (valid) 0xf2-0xf3 (1)
     |                                               |                |    [4]{}: section 0xf3-0x148 (85)
0x0f0|         0a                                    |   .            |      id: "code_section" (10) 0xf3-0xf4 (1)
0x0f0|            53                                 |    S           |      size: 83 (valid) 0xf4-0xf5 (1)
     |                                               |                |      content{}: 0xf5-0x148 (83)
     |                                               |                |        code{}: 0xf5-0x148 (83)
0x0f0|               06                              |     .          |          n: 6 (valid) 0xf5-0xf6 (1)
     |                                               |                |          x[0:6]: 0xf6-0x148 (82)
     |                                               |                |            [0]{}: code 0xf6-0x105 (15)
0x0f0|                  0e                           |      .         |              size: 14 (valid) 0xf6-0xf7 (1)
     |                                               |                |              code{}: 0xf7-0x105 (14)
     |                                               |                |                t{}: 0xf7-0xf8 (1)
0x0f0|                     00                        |       .        |                  n: 0 (valid) 0xf7-0xf8 (1)
     |                                               |                |                  x[0:0]: 0xf8-0xf8 (0)
     |                                               |                |                e[0:2]: 0xf8-0x105 (13)
     |                                               |                |                  [0]{}: in 0xf8-0x104 (12)
0x0f0|                        02                     |        .       |                    opcode: "block" (0x2) 0xf8-0xf9 (1)
0x0f0|                           7b                  |         {      |                    bt: "v128" (123) 0xf9-0xfa (1)
     |                                               |                |                    instructions[0:1]: 0xfa-0x103 (9)
     |                                               |                |                      [0]{}: instr 0xfa-0x103 (9)
0x0f0|                              02               |          .     |                        opcode: "block" (0x2) 0xfa-0xfb (1)
0x0f0|                                 7b            |           {    |                        bt: "v128" (123) 0xfb-0xfc (1)
     |                                               |                |                        instructions[0:2]: 0xfc-0x102 (6)
     |                                               |                |                          [0]{}: instr 0xfc-0xfe (2)
0x0f0|                                    41         |            A   |                            opcode: "i32.const" (0x41) 0xfc-0xfd (1)
0x0f0|                                       00      |             .  |                            n: 0 (valid) 0xfd-0xfe (1)
     |                                               |                |                          [1]{}: instr 0xfe-0x102 (4)
0x0f0|                                          fd   |              . |                            opcode: "vector" (0xfd) 0xfe-0xff (1)
0x0f0|                                             5c|               \|                            v_opcode: "v128.load32_zero" (92) 0xff-0x100 (1)
     |                                               |                |                            m{}: 0x100-0x102 (2)
0x100|02                                             |.               |                              a: 2 (valid) 0x100-0x101 (1)
0x100|   00                                          | .              |                              o: 0 (valid) 0x101-0x102 (1)
0x100|      0b                                       |  .             |                        end: 0xb (valid) 0x102-0x103 (1)
0x100|         0b                                    |   .            |                    end: 0xb (valid) 0x103-0x104 (1)
     |                                               |                |                  [1]{}: in 0x104-0x105 (1)
0x100|            0b                                 |    .           |                    opcode: "end" (0xb) 0x104-0x105 (1)
     |                                               |                |            [1]{}: code 0x105-0x114 (15)
0x100|               0e                              |     .          |              size: 14 (valid) 0x105-0x106 (1)
     |                                               |                |              code{}: 0x106-0x114 (14)
     |                                               |                |                t{}: 0x106-0x107 (1)
0x100|                  00                           |      .         |                  n: 0 (valid) 0x106-0x107 (1)
     |                                               |                |                  x[0:0]: 0x107-0x107 (0)
     |                                               |                |                e[0:2]: 0x107-0x114 (13)
     |                                               |                |                  [0]{}: in 0x107-0x113 (12)
0x100|                     02                        |       .        |                    opcode: "block" (0x2) 0x107-0x108 (1)
0x100|                        7b                     |        {       |                    bt: "v128" (123) 0x108-0x109 (1)
     |                                               |                |                    instructions[0:1]: 0x109-0x112 (9)
     |                                               |                |                      [0]{}: instr 0x109-0x112 (9)
0x100|                           02                  |         .      |                        opcode: "block" (0x2) 0x109-0x10a (1)
0x100|                              7b               |          {     |                        bt: "v128" (123) 0x10a-0x10b (1)
     |                                               |                |                        instructions[0:2]: 0x10b-0x111 (6)
     |                                               |                |                          [0]{}: instr 0x10b-0x10d (2)
0x100|                                 41            |           A    |                            opcode: "i32.const" (0x41) 0x10b-0x10c (1)
0x100|                                    01         |            .   |                            n: 1 (valid) 0x10c-0x10d (1)
     |                                               |                |                          [1]{}: instr 0x10d-0x111 (4)
0x100|                                       fd      |             .  |                            opcode: "vector" (0xfd) 0x10d-0x10e (1)
0x100|                                          5d   |              ] |                            v_opcode: "v128.load64_zero" (93) 0x10e-0x10f (1)
     |                                               |                |                            m{}: 0x10f-0x111 (2)
0x100|                                             03|               .|                              a: 3 (valid) 0x10f-0x110 (1)
0x110|00                                             |.               |                              o: 0 (valid) 0x110-0x111 (1)
0x110|   0b                                          | .              |                        end: 0xb (valid) 0x111-0x112 (1)
0x110|      0b                                       |  .             |                    end: 0xb (valid) 0x112-0x113 (1)
     |                                               |                |                  [1]{}: in 0x113-0x114 (1)
0x110|         0b                                    |   .            |                    opcode: "end" (0xb) 0x113-0x114 (1)
     |                                               |                |            [2]{}: code 0x114-0x122 (14)
0x110|            0d                                 |    .           |              size: 13 (valid) 0x114-0x115 (1)
     |                                               |                |              code{}: 0x115-0x122 (13)
     |                                               |                |                t{}: 0x115-0x116 (1)
0x110|               00                              |     .          |                  n: 0 (valid) 0x115-0x116 (1)
     |                                               |                |                  x[0:0]: 0x116-0x116 (0)
     |                                               |                |                e[0:2]: 0x116-0x122 (12)
     |                                               |                |                  [0]{}: in 0x116-0x121 (11)
0x110|                  02                           |      .         |                    opcode: "block" (0x2) 0x116-0x117 (1)
0x110|                     7b                        |       {        |                    bt: "v128" (123) 0x117-0x118 (1)
     |                                               |                |                    instructions[0:3]: 0x118-0x120 (8)
     |                                               |                |                      [0]{}: instr 0x118-0x11a (2)
0x110|                        41                     |        A       |                        opcode: "i32.const" (0x41) 0x118-0x119 (1)
0x110|                           06                  |         .      |                        n: 6 (valid) 0x119-0x11a (1)
     |                                               |                |                      [1]{}: instr 0x11a-0x11e (4)
0x110|                              fd               |          .     |                        opcode: "vector" (0xfd) 0x11a-0x11b (1)
0x110|                                 5c            |           \    |                        v_opcode: "v128.load32_zero" (92) 0x11b-0x11c (1)
     |                                               |                |                        m{}: 0x11c-0x11e (2)
0x110|                                    02         |            .   |                          a: 2 (valid) 0x11c-0x11d (1)
0x110|                                       00      |             .  |                          o: 0 (valid) 0x11d-0x11e (1)
     |                                               |                |                      [2]{}: instr 0x11e-0x120 (2)
0x110|                                          0c   |              . |                        opcode: "br" (0xc) 0x11e-0x11f (1)
0x110|                                             00|               .|                        l: 0 (valid) 0x11f-0x120 (1)
0x120|0b                                             |.               |                    end: 0xb (valid) 0x120-0x121 (1)
     |                                               |                |                  [1]{}: in 0x121-0x122 (1)
0x120|   0b                                          | .              |                    opcode: "end" (0xb) 0x121-0x122 (1)
     |                                               |                |            [3]{}: code 0x122-0x130 (14)
0x120|      0d                                       |  .             |              size: 13 (valid) 0x122-0x123 (1)
     |                                               |                |              code{}: 0x123-0x130 (13)
     |                                               |                |                t{}: 0x123-0x124 (1)
0x120|         00                                    |   .            |                  n: 0 (valid) 0x123-0x124 (1)
     |                                               |                |                  x[0:0]: 0x124-0x124 (0)
     |                                               |                |                e[0:2]: 0x124-0x130 (12)
     |                                               |                |                  [0]{}: in 0x124-0x12f (11)
0x120|            02                                 |    .           |                    opcode: "block" (0x2) 0x124-0x125 (1)
0x120|               7b                              |     {          |                    bt: "v128" (123) 0x125-0x126 (1)
     |                                               |                |                    instructions[0:3]: 0x126-0x12e (8)
     |                                               |                |                      [0]{}: instr 0x126-0x128 (2)
0x120|                  41                           |      A         |                        opcode: "i32.const" (0x41) 0x126-0x127 (1)
0x120|                     07                        |       .        |                        n: 7 (valid) 0x127-0x128 (1)
     |                                               |                |                      [1]{}: instr 0x128-0x12c (4)
0x120|                        fd                     |        .       |                        opcode: "vector" (0xfd) 0x128-0x129 (1)
0x120|                           5d                  |         ]      |                        v_opcode: "v128.load64_zero" (93) 0x129-0x12a (1)
     |                                               |                |                        m{}: 0x12a-0x12c (2)
0x120|                              03               |          .     |                          a: 3 (valid) 0x12a-0x12b (1)
0x120|                                 00            |           .    |                          o: 0 (valid) 0x12b-0x12c (1)
     |                                               |                |                      [2]{}: instr 0x12c-0x12e (2)
0x120|                                    0c         |            .   |                        opcode: "br" (0xc) 0x12c-0x12d (1)
0x120|                                       00      |             .  |                        l: 0 (valid) 0x12d-0x12e (1)
0x120|                                          0b   |              . |                    end: 0xb (valid) 0x12e-0x12f (1)
     |                                               |                |                  [1]{}: in 0x12f-0x130 (1)
0x120|                                             0b|               .|                    opcode: "end" (0xb) 0x12f-0x130 (1)
     |                                               |                |            [4]{}: code 0x130-0x13c (12)
0x130|0b                                             |.               |              size: 11 (valid) 0x130-0x131 (1)
     |                                               |                |              code{}: 0x131-0x13c (11)
     |                                               |                |                t{}: 0x131-0x132 (1)
0x130|   00                                          | .              |                  n: 0 (valid) 0x131-0x132 (1)
     |                                               |                |                  x[0:0]: 0x132-0x132 (0)
     |                                               |                |                e[0:4]: 0x132-0x13c (10)
     |                                               |                |                  [0]{}: in 0x132-0x134 (2)
0x130|      41                                       |  A             |                    opcode: "i32.const" (0x41) 0x132-0x133 (1)
0x130|         0c                                    |   .            |                    n: 12 (valid) 0x133-0x134 (1)
     |                                               |                |                  [1]{}: in 0x134-0x138 (4)
0x130|            fd                                 |    .           |                    opcode: "vector" (0xfd) 0x134-0x135 (1)
0x130|               5c                              |     \          |                    v_opcode: "v128.load32_zero" (92) 0x135-0x136 (1)
     |                                               |                |                    m{}: 0x136-0x138 (2)
0x130|                  02                           |      .         |                      a: 2 (valid) 0x136-0x137 (1)
0x130|                     00                        |       .        |                      o: 0 (valid) 0x137-0x138 (1)
     |                                               |                |                  [2]{}: in 0x138-0x13b (3)
0x130|                        fd                     |        .       |                    opcode: "vector" (0xfd) 0x138-0x139 (1)
0x130|                           1b                  |         .      |                    v_opcode: "i32x4.extract_lane" (27) 0x139-0x13a (1)
0x130|                              00               |          .     |                    l: 0 0x13a-0x13b (1)
     |                                               |                |                  [3]{}: in 0x13b-0x13c (1)
0x130|                                 0b            |           .    |                    opcode: "end" (0xb) 0x13b-0x13c (1)
     |                                               |                |            [5]{}: code 0x13c-0x148 (12)
0x130|                                    0b         |            .   |              size: 11 (valid) 0x13c-0x13d (1)
     |                                               |                |              code{}: 0x13d-0x148 (11)
     |                                               |                |                t{}: 0x13d-0x13e (1)
0x130|                                       00      |             .  |                  n: 0 (valid) 0x13d-0x13e (1)
     |                                               |                |                  x[0:0]: 0x13e-0x13e (0)
     |                                               |                |                e[0:4]: 0x13e-0x148 (10)
     |                                               |                |                  [0]{}: in 0x13e-0x140 (2)
0x130|                                          41   |              A |                    opcode: "i32.const" (0x41) 0x13e-0x13f (1)
0x130|                                             0d|               .|                    n: 13 (valid) 0x13f-0x140 (1)
     |                                               |                |                  [1]{}: in 0x140-0x144 (4)
0x140|fd                                             |.               |                    opcode: "vector" (0xfd) 0x140-0x141 (1)
0x140|   5d                                          | ]              |                    v_opcode: "v128.load64_zero" (93) 0x141-0x142 (1)
     |                                               |                |                    m{}: 0x142-0x144 (2)
0x140|      03                                       |  .             |                      a: 3 (valid) 0x142-0x143 (1)
0x140|         00                                    |   .            |                      o: 0 (valid) 0x143-0x144 (1)
     |                                               |                |                  [2]{}: in 0x144-0x147 (3)
0x140|            fd                                 |    .           |                    opcode: "vector" (0xfd) 0x144-0x145 (1)
0x140|               1d                              |     .          |                    v_opcode: "i64x2.extract_lane" (29) 0x145-0x146 (1)
0x140|                  00                           |      .         |                    l: 0 0x146-0x147 (1)
     |                                               |                |                  [3]{}: in 0x147-0x148 (1)
0x140|                     0b                        |       .        |                    opcode: "end" (0xb) 0x147-0x148 (1)
     |                                               |                |    [5]{}: section 0x148-0x16a (34)
0x140|                        0b                     |        .       |      id: "data_section" (11) 0x148-0x149 (1)
0x140|                           20                  |                |      size: 32 (valid) 0x149-0x14a (1)
     |                                               |                |      content{}: 0x14a-0x16a (32)
     |                                               |                |        seg{}: 0x14a-0x16a (32)
0x140|                              01               |          .     |          n: 1 (valid) 0x14a-0x14b (1)
     |                                               |                |          x[0:1]: 0x14b-0x16a (31)
     |                                               |                |            [0]{}: seg 0x14b-0x16a (31)
0x140|                                 00            |           .    |              tag: 0 (valid) 0x14b-0x14c (1)
     |                                               |                |              e[0:2]: 0x14c-0x14f (3)
     |                                               |                |                [0]{}: in 0x14c-0x14e (2)
0x140|                                    41         |            A   |                  opcode: "i32.const" (0x41) 0x14c-0x14d (1)
0x140|                                       00      |             .  |                  n: 0 (valid) 0x14d-0x14e (1)
     |                                               |                |                [1]{}: in 0x14e-0x14f (1)
0x140|                                          0b   |              . |                  opcode: "end" (0xb) 0x14e-0x14f (1)
     |                                               |                |              b{}: 0x14f-0x16a (27)
0x140|                                             1a|               .|                n: 26 (valid) 0x14f-0x150 (1)
0x150|00 01 02 03 04 05 06 07 08 09 0a 0b 0c 0d 0e 0f|................|                x: raw bits 0x150-0x16a (26)
0x160|80 81 82 83 84 85 86 87 88 89|                 |..........|     |
