$ fq -d wasm dv simd_load_zero-1.wasm
     |00 01 02 03 04 05 06 07 08 09 0a 0b 0c 0d 0e 0f|0123456789abcdef|.{}: simd_load_zero-1.wasm (wasm) 0x0-0x169.7 (362)
0x000|00 61 73 6d                                    |.asm            |  magic: raw bits (valid) 0x0-0x3.7 (4)
0x000|            01 00 00 00                        |    ....        |  version: 1 0x4-0x7.7 (4)
     |                                               |                |  sections[0:6]: 0x8-0x169.7 (354)
     |                                               |                |    [0]{}: section 0x8-0x16.7 (15)
0x000|                        01                     |        .       |      id: "type section" (1) 0x8-0x8.7 (1)
0x000|                           0d                  |         .      |      size: 13 0x9-0x9.7 (1)
     |                                               |                |      content{}: 0xa-0x16.7 (13)
     |                                               |                |        ft{}: 0xa-0x16.7 (13)
0x000|                              03               |          .     |          n: 3 0xa-0xa.7 (1)
     |                                               |                |          x[0:3]: 0xb-0x16.7 (12)
     |                                               |                |            [0]{}: ft 0xb-0xe.7 (4)
0x000|                                 60            |           `    |              tag: 0x60 (valid) 0xb-0xb.7 (1)
     |                                               |                |              rt1{}: 0xc-0xc.7 (1)
0x000|                                    00         |            .   |                n: 0 0xc-0xc.7 (1)
     |                                               |                |                x[0:0]: 0xd-NA (0)
     |                                               |                |              rt2{}: 0xd-0xe.7 (2)
0x000|                                       01      |             .  |                n: 1 0xd-0xd.7 (1)
     |                                               |                |                x[0:1]: 0xe-0xe.7 (1)
0x000|                                          7b   |              { |                  [0]: "v128" (0x7b) t 0xe-0xe.7 (1)
     |                                               |                |            [1]{}: ft 0xf-0x12.7 (4)
0x000|                                             60|               `|              tag: 0x60 (valid) 0xf-0xf.7 (1)
     |                                               |                |              rt1{}: 0x10-0x10.7 (1)
0x010|00                                             |.               |                n: 0 0x10-0x10.7 (1)
     |                                               |                |                x[0:0]: 0x11-NA (0)
     |                                               |                |              rt2{}: 0x11-0x12.7 (2)
0x010|   01                                          | .              |                n: 1 0x11-0x11.7 (1)
     |                                               |                |                x[0:1]: 0x12-0x12.7 (1)
0x010|      7f                                       |  .             |                  [0]: "i32" (0x7f) t 0x12-0x12.7 (1)
     |                                               |                |            [2]{}: ft 0x13-0x16.7 (4)
0x010|         60                                    |   `            |              tag: 0x60 (valid) 0x13-0x13.7 (1)
     |                                               |                |              rt1{}: 0x14-0x14.7 (1)
0x010|            00                                 |    .           |                n: 0 0x14-0x14.7 (1)
     |                                               |                |                x[0:0]: 0x15-NA (0)
     |                                               |                |              rt2{}: 0x15-0x16.7 (2)
0x010|               01                              |     .          |                n: 1 0x15-0x15.7 (1)
     |                                               |                |                x[0:1]: 0x16-0x16.7 (1)
0x010|                  7e                           |      ~         |                  [0]: "i64" (0x7e) t 0x16-0x16.7 (1)
     |                                               |                |    [1]{}: section 0x17-0x1f.7 (9)
0x010|                     03                        |       .        |      id: "function section" (3) 0x17-0x17.7 (1)
0x010|                        07                     |        .       |      size: 7 0x18-0x18.7 (1)
     |                                               |                |      content{}: 0x19-0x1f.7 (7)
     |                                               |                |        x{}: 0x19-0x1f.7 (7)
0x010|                           06                  |         .      |          n: 6 0x19-0x19.7 (1)
     |                                               |                |          x[0:6]: 0x1a-0x1f.7 (6)
0x010|                              00               |          .     |            [0]: 0 x 0x1a-0x1a.7 (1)
0x010|                                 00            |           .    |            [1]: 0 x 0x1b-0x1b.7 (1)
0x010|                                    00         |            .   |            [2]: 0 x 0x1c-0x1c.7 (1)
0x010|                                       00      |             .  |            [3]: 0 x 0x1d-0x1d.7 (1)
0x010|                                          01   |              . |            [4]: 1 x 0x1e-0x1e.7 (1)
0x010|                                             02|               .|            [5]: 2 x 0x1f-0x1f.7 (1)
     |                                               |                |    [2]{}: section 0x20-0x24.7 (5)
0x020|05                                             |.               |      id: "memory section" (5) 0x20-0x20.7 (1)
0x020|   03                                          | .              |      size: 3 0x21-0x21.7 (1)
     |                                               |                |      content{}: 0x22-0x24.7 (3)
     |                                               |                |        mem{}: 0x22-0x24.7 (3)
0x020|      01                                       |  .             |          n: 1 0x22-0x22.7 (1)
     |                                               |                |          x[0:1]: 0x23-0x24.7 (2)
     |                                               |                |            [0]{}: mem 0x23-0x24.7 (2)
     |                                               |                |              lim{}: 0x23-0x24.7 (2)
0x020|         00                                    |   .            |                tag: 0x0 0x23-0x23.7 (1)
0x020|            01                                 |    .           |                n: 1 0x24-0x24.7 (1)
     |                                               |                |    [3]{}: section 0x25-0xf2.7 (206)
0x020|               07                              |     .          |      id: "export section" (7) 0x25-0x25.7 (1)
0x020|                  cb 01                        |      ..        |      size: 203 0x26-0x27.7 (2)
     |                                               |                |      content{}: 0x28-0xf2.7 (203)
     |                                               |                |        ex{}: 0x28-0xf2.7 (203)
0x020|                        06                     |        .       |          n: 6 0x28-0x28.7 (1)
     |                                               |                |          x[0:6]: 0x29-0xf2.7 (202)
     |                                               |                |            [0]{}: ex 0x29-0x44.7 (28)
     |                                               |                |              nm{}: 0x29-0x42.7 (26)
0x020|                           19                  |         .      |                n: 25 0x29-0x29.7 (1)
0x020|                              76 31 32 38 2e 6c|          v128.l|                b: "v128.load32_zero-in-block" 0x2a-0x42.7 (25)
0x030|6f 61 64 33 32 5f 7a 65 72 6f 2d 69 6e 2d 62 6c|oad32_zero-in-bl|
0x040|6f 63 6b                                       |ock             |
     |                                               |                |              d{}: 0x43-0x44.7 (2)
0x040|         00                                    |   .            |                tag: "funcidx" (0x0) 0x43-0x43.7 (1)
0x040|            00                                 |    .           |                x: 0 0x44-0x44.7 (1)
     |                                               |                |            [1]{}: ex 0x45-0x60.7 (28)
     |                                               |                |              nm{}: 0x45-0x5e.7 (26)
0x040|               19                              |     .          |                n: 25 0x45-0x45.7 (1)
0x040|                  76 31 32 38 2e 6c 6f 61 64 36|      v128.load6|                b: "v128.load64_zero-in-block" 0x46-0x5e.7 (25)
0x050|34 5f 7a 65 72 6f 2d 69 6e 2d 62 6c 6f 63 6b   |4_zero-in-block |
     |                                               |                |              d{}: 0x5f-0x60.7 (2)
0x050|                                             00|               .|                tag: "funcidx" (0x0) 0x5f-0x5f.7 (1)
0x060|01                                             |.               |                x: 1 0x60-0x60.7 (1)
     |                                               |                |            [2]{}: ex 0x61-0x7f.7 (31)
     |                                               |                |              nm{}: 0x61-0x7d.7 (29)
0x060|   1c                                          | .              |                n: 28 0x61-0x61.7 (1)
0x060|      76 31 32 38 2e 6c 6f 61 64 33 32 5f 7a 65|  v128.load32_ze|                b: "v128.load32_zero-as-br-value" 0x62-0x7d.7 (28)
0x070|72 6f 2d 61 73 2d 62 72 2d 76 61 6c 75 65      |ro-as-br-value  |
     |                                               |                |              d{}: 0x7e-0x7f.7 (2)
0x070|                                          00   |              . |                tag: "funcidx" (0x0) 0x7e-0x7e.7 (1)
0x070|                                             02|               .|                x: 2 0x7f-0x7f.7 (1)
     |                                               |                |            [3]{}: ex 0x80-0x9e.7 (31)
     |                                               |                |              nm{}: 0x80-0x9c.7 (29)
0x080|1c                                             |.               |                n: 28 0x80-0x80.7 (1)
0x080|   76 31 32 38 2e 6c 6f 61 64 36 34 5f 7a 65 72| v128.load64_zer|                b: "v128.load64_zero-as-br-value" 0x81-0x9c.7 (28)
0x090|6f 2d 61 73 2d 62 72 2d 76 61 6c 75 65         |o-as-br-value   |
     |                                               |                |              d{}: 0x9d-0x9e.7 (2)
0x090|                                       00      |             .  |                tag: "funcidx" (0x0) 0x9d-0x9d.7 (1)
0x090|                                          03   |              . |                x: 3 0x9e-0x9e.7 (1)
     |                                               |                |            [4]{}: ex 0x9f-0xc8.7 (42)
     |                                               |                |              nm{}: 0x9f-0xc6.7 (40)
0x090|                                             27|               '|                n: 39 0x9f-0x9f.7 (1)
0x0a0|76 31 32 38 2e 6c 6f 61 64 33 32 5f 7a 65 72 6f|v128.load32_zero|                b: "v128.load32_zero-extract_lane_s-operand" 0xa0-0xc6.7 (39)
*    |until 0xc6.7 (39)                              |                |
     |                                               |                |              d{}: 0xc7-0xc8.7 (2)
0x0c0|                     00                        |       .        |                tag: "funcidx" (0x0) 0xc7-0xc7.7 (1)
0x0c0|                        04                     |        .       |                x: 4 0xc8-0xc8.7 (1)
     |                                               |                |            [5]{}: ex 0xc9-0xf2.7 (42)
     |                                               |                |              nm{}: 0xc9-0xf0.7 (40)
0x0c0|                           27                  |         '      |                n: 39 0xc9-0xc9.7 (1)
0x0c0|                              76 31 32 38 2e 6c|          v128.l|                b: "v128.load64_zero-extract_lane_s-operand" 0xca-0xf0.7 (39)
0x0d0|6f 61 64 36 34 5f 7a 65 72 6f 2d 65 78 74 72 61|oad64_zero-extra|
*    |until 0xf0.7 (39)                              |                |
     |                                               |                |              d{}: 0xf1-0xf2.7 (2)
0x0f0|   00                                          | .              |                tag: "funcidx" (0x0) 0xf1-0xf1.7 (1)
0x0f0|      05                                       |  .             |                x: 5 0xf2-0xf2.7 (1)
     |                                               |                |    [4]{}: section 0xf3-0x147.7 (85)
0x0f0|         0a                                    |   .            |      id: "code section" (10) 0xf3-0xf3.7 (1)
0x0f0|            53                                 |    S           |      size: 83 0xf4-0xf4.7 (1)
     |                                               |                |      content{}: 0xf5-0x147.7 (83)
     |                                               |                |        code{}: 0xf5-0x147.7 (83)
0x0f0|               06                              |     .          |          n: 6 0xf5-0xf5.7 (1)
     |                                               |                |          x[0:6]: 0xf6-0x147.7 (82)
     |                                               |                |            [0]{}: code 0xf6-0x104.7 (15)
0x0f0|                  0e                           |      .         |              size: 14 0xf6-0xf6.7 (1)
     |                                               |                |              code{}: 0xf7-0x104.7 (14)
     |                                               |                |                t{}: 0xf7-0xf7.7 (1)
0x0f0|                     00                        |       .        |                  n: 0 0xf7-0xf7.7 (1)
     |                                               |                |                  x[0:0]: 0xf8-NA (0)
     |                                               |                |                e[0:2]: 0xf8-0x104.7 (13)
     |                                               |                |                  [0]{}: in 0xf8-0x103.7 (12)
0x0f0|                        02                     |        .       |                    block: 0x2 (valid) 0xf8-0xf8.7 (1)
0x0f0|                           7b                  |         {      |                    bt: "v128" (123) 0xf9-0xf9.7 (1)
     |                                               |                |                    instructions[0:1]: 0xfa-0x102.7 (9)
     |                                               |                |                      [0]{}: instr 0xfa-0x102.7 (9)
0x0f0|                              02               |          .     |                        block: 0x2 (valid) 0xfa-0xfa.7 (1)
0x0f0|                                 7b            |           {    |                        bt: "v128" (123) 0xfb-0xfb.7 (1)
     |                                               |                |                        instructions[0:2]: 0xfc-0x101.7 (6)
     |                                               |                |                          [0]{}: instr 0xfc-0xfd.7 (2)
0x0f0|                                    41         |            A   |                            i32.const: 0x41 (valid) 0xfc-0xfc.7 (1)
0x0f0|                                       00      |             .  |                            n: 0 0xfd-0xfd.7 (1)
     |                                               |                |                          [1]{}: instr 0xfe-0x101.7 (4)
0x0f0|                                          fd   |              . |                            prefix: 0xfd (valid) 0xfe-0xfe.7 (1)
0x0f0|                                             5c|               \|                            v128.load32_zero: 92 (valid) 0xff-0xff.7 (1)
     |                                               |                |                            m{}: 0x100-0x101.7 (2)
0x100|02                                             |.               |                              a: 2 0x100-0x100.7 (1)
0x100|   00                                          | .              |                              o: 0 0x101-0x101.7 (1)
0x100|      0b                                       |  .             |                        end: 11 (valid) 0x102-0x102.7 (1)
0x100|         0b                                    |   .            |                    end: 11 (valid) 0x103-0x103.7 (1)
     |                                               |                |                  [1]{}: in 0x104-0x104.7 (1)
0x100|            0b                                 |    .           |                    end: 0xb (valid) 0x104-0x104.7 (1)
     |                                               |                |            [1]{}: code 0x105-0x113.7 (15)
0x100|               0e                              |     .          |              size: 14 0x105-0x105.7 (1)
     |                                               |                |              code{}: 0x106-0x113.7 (14)
     |                                               |                |                t{}: 0x106-0x106.7 (1)
0x100|                  00                           |      .         |                  n: 0 0x106-0x106.7 (1)
     |                                               |                |                  x[0:0]: 0x107-NA (0)
     |                                               |                |                e[0:2]: 0x107-0x113.7 (13)
     |                                               |                |                  [0]{}: in 0x107-0x112.7 (12)
0x100|                     02                        |       .        |                    block: 0x2 (valid) 0x107-0x107.7 (1)
0x100|                        7b                     |        {       |                    bt: "v128" (123) 0x108-0x108.7 (1)
     |                                               |                |                    instructions[0:1]: 0x109-0x111.7 (9)
     |                                               |                |                      [0]{}: instr 0x109-0x111.7 (9)
0x100|                           02                  |         .      |                        block: 0x2 (valid) 0x109-0x109.7 (1)
0x100|                              7b               |          {     |                        bt: "v128" (123) 0x10a-0x10a.7 (1)
     |                                               |                |                        instructions[0:2]: 0x10b-0x110.7 (6)
     |                                               |                |                          [0]{}: instr 0x10b-0x10c.7 (2)
0x100|                                 41            |           A    |                            i32.const: 0x41 (valid) 0x10b-0x10b.7 (1)
0x100|                                    01         |            .   |                            n: 1 0x10c-0x10c.7 (1)
     |                                               |                |                          [1]{}: instr 0x10d-0x110.7 (4)
0x100|                                       fd      |             .  |                            prefix: 0xfd (valid) 0x10d-0x10d.7 (1)
0x100|                                          5d   |              ] |                            v128.load64_zero: 93 (valid) 0x10e-0x10e.7 (1)
     |                                               |                |                            m{}: 0x10f-0x110.7 (2)
0x100|                                             03|               .|                              a: 3 0x10f-0x10f.7 (1)
0x110|00                                             |.               |                              o: 0 0x110-0x110.7 (1)
0x110|   0b                                          | .              |                        end: 11 (valid) 0x111-0x111.7 (1)
0x110|      0b                                       |  .             |                    end: 11 (valid) 0x112-0x112.7 (1)
     |                                               |                |                  [1]{}: in 0x113-0x113.7 (1)
0x110|         0b                                    |   .            |                    end: 0xb (valid) 0x113-0x113.7 (1)
     |                                               |                |            [2]{}: code 0x114-0x121.7 (14)
0x110|            0d                                 |    .           |              size: 13 0x114-0x114.7 (1)
     |                                               |                |              code{}: 0x115-0x121.7 (13)
     |                                               |                |                t{}: 0x115-0x115.7 (1)
0x110|               00                              |     .          |                  n: 0 0x115-0x115.7 (1)
     |                                               |                |                  x[0:0]: 0x116-NA (0)
     |                                               |                |                e[0:2]: 0x116-0x121.7 (12)
     |                                               |                |                  [0]{}: in 0x116-0x120.7 (11)
0x110|                  02                           |      .         |                    block: 0x2 (valid) 0x116-0x116.7 (1)
0x110|                     7b                        |       {        |                    bt: "v128" (123) 0x117-0x117.7 (1)
     |                                               |                |                    instructions[0:3]: 0x118-0x11f.7 (8)
     |                                               |                |                      [0]{}: instr 0x118-0x119.7 (2)
0x110|                        41                     |        A       |                        i32.const: 0x41 (valid) 0x118-0x118.7 (1)
0x110|                           06                  |         .      |                        n: 6 0x119-0x119.7 (1)
     |                                               |                |                      [1]{}: instr 0x11a-0x11d.7 (4)
0x110|                              fd               |          .     |                        prefix: 0xfd (valid) 0x11a-0x11a.7 (1)
0x110|                                 5c            |           \    |                        v128.load32_zero: 92 (valid) 0x11b-0x11b.7 (1)
     |                                               |                |                        m{}: 0x11c-0x11d.7 (2)
0x110|                                    02         |            .   |                          a: 2 0x11c-0x11c.7 (1)
0x110|                                       00      |             .  |                          o: 0 0x11d-0x11d.7 (1)
     |                                               |                |                      [2]{}: instr 0x11e-0x11f.7 (2)
0x110|                                          0c   |              . |                        br: 0xc (valid) 0x11e-0x11e.7 (1)
0x110|                                             00|               .|                        l: 0 0x11f-0x11f.7 (1)
0x120|0b                                             |.               |                    end: 11 (valid) 0x120-0x120.7 (1)
     |                                               |                |                  [1]{}: in 0x121-0x121.7 (1)
0x120|   0b                                          | .              |                    end: 0xb (valid) 0x121-0x121.7 (1)
     |                                               |                |            [3]{}: code 0x122-0x12f.7 (14)
0x120|      0d                                       |  .             |              size: 13 0x122-0x122.7 (1)
     |                                               |                |              code{}: 0x123-0x12f.7 (13)
     |                                               |                |                t{}: 0x123-0x123.7 (1)
0x120|         00                                    |   .            |                  n: 0 0x123-0x123.7 (1)
     |                                               |                |                  x[0:0]: 0x124-NA (0)
     |                                               |                |                e[0:2]: 0x124-0x12f.7 (12)
     |                                               |                |                  [0]{}: in 0x124-0x12e.7 (11)
0x120|            02                                 |    .           |                    block: 0x2 (valid) 0x124-0x124.7 (1)
0x120|               7b                              |     {          |                    bt: "v128" (123) 0x125-0x125.7 (1)
     |                                               |                |                    instructions[0:3]: 0x126-0x12d.7 (8)
     |                                               |                |                      [0]{}: instr 0x126-0x127.7 (2)
0x120|                  41                           |      A         |                        i32.const: 0x41 (valid) 0x126-0x126.7 (1)
0x120|                     07                        |       .        |                        n: 7 0x127-0x127.7 (1)
     |                                               |                |                      [1]{}: instr 0x128-0x12b.7 (4)
0x120|                        fd                     |        .       |                        prefix: 0xfd (valid) 0x128-0x128.7 (1)
0x120|                           5d                  |         ]      |                        v128.load64_zero: 93 (valid) 0x129-0x129.7 (1)
     |                                               |                |                        m{}: 0x12a-0x12b.7 (2)
0x120|                              03               |          .     |                          a: 3 0x12a-0x12a.7 (1)
0x120|                                 00            |           .    |                          o: 0 0x12b-0x12b.7 (1)
     |                                               |                |                      [2]{}: instr 0x12c-0x12d.7 (2)
0x120|                                    0c         |            .   |                        br: 0xc (valid) 0x12c-0x12c.7 (1)
0x120|                                       00      |             .  |                        l: 0 0x12d-0x12d.7 (1)
0x120|                                          0b   |              . |                    end: 11 (valid) 0x12e-0x12e.7 (1)
     |                                               |                |                  [1]{}: in 0x12f-0x12f.7 (1)
0x120|                                             0b|               .|                    end: 0xb (valid) 0x12f-0x12f.7 (1)
     |                                               |                |            [4]{}: code 0x130-0x13b.7 (12)
0x130|0b                                             |.               |              size: 11 0x130-0x130.7 (1)
     |                                               |                |              code{}: 0x131-0x13b.7 (11)
     |                                               |                |                t{}: 0x131-0x131.7 (1)
0x130|   00                                          | .              |                  n: 0 0x131-0x131.7 (1)
     |                                               |                |                  x[0:0]: 0x132-NA (0)
     |                                               |                |                e[0:4]: 0x132-0x13b.7 (10)
     |                                               |                |                  [0]{}: in 0x132-0x133.7 (2)
0x130|      41                                       |  A             |                    i32.const: 0x41 (valid) 0x132-0x132.7 (1)
0x130|         0c                                    |   .            |                    n: 12 0x133-0x133.7 (1)
     |                                               |                |                  [1]{}: in 0x134-0x137.7 (4)
0x130|            fd                                 |    .           |                    prefix: 0xfd (valid) 0x134-0x134.7 (1)
0x130|               5c                              |     \          |                    v128.load32_zero: 92 (valid) 0x135-0x135.7 (1)
     |                                               |                |                    m{}: 0x136-0x137.7 (2)
0x130|                  02                           |      .         |                      a: 2 0x136-0x136.7 (1)
0x130|                     00                        |       .        |                      o: 0 0x137-0x137.7 (1)
     |                                               |                |                  [2]{}: in 0x138-0x13a.7 (3)
0x130|                        fd                     |        .       |                    prefix: 0xfd (valid) 0x138-0x138.7 (1)
0x130|                           1b                  |         .      |                    i32x4.extract_lane_u: 27 (valid) 0x139-0x139.7 (1)
0x130|                              00               |          .     |                    l: 0 0x13a-0x13a.7 (1)
     |                                               |                |                  [3]{}: in 0x13b-0x13b.7 (1)
0x130|                                 0b            |           .    |                    end: 0xb (valid) 0x13b-0x13b.7 (1)
     |                                               |                |            [5]{}: code 0x13c-0x147.7 (12)
0x130|                                    0b         |            .   |              size: 11 0x13c-0x13c.7 (1)
     |                                               |                |              code{}: 0x13d-0x147.7 (11)
     |                                               |                |                t{}: 0x13d-0x13d.7 (1)
0x130|                                       00      |             .  |                  n: 0 0x13d-0x13d.7 (1)
     |                                               |                |                  x[0:0]: 0x13e-NA (0)
     |                                               |                |                e[0:4]: 0x13e-0x147.7 (10)
     |                                               |                |                  [0]{}: in 0x13e-0x13f.7 (2)
0x130|                                          41   |              A |                    i32.const: 0x41 (valid) 0x13e-0x13e.7 (1)
0x130|                                             0d|               .|                    n: 13 0x13f-0x13f.7 (1)
     |                                               |                |                  [1]{}: in 0x140-0x143.7 (4)
0x140|fd                                             |.               |                    prefix: 0xfd (valid) 0x140-0x140.7 (1)
0x140|   5d                                          | ]              |                    v128.load64_zero: 93 (valid) 0x141-0x141.7 (1)
     |                                               |                |                    m{}: 0x142-0x143.7 (2)
0x140|      03                                       |  .             |                      a: 3 0x142-0x142.7 (1)
0x140|         00                                    |   .            |                      o: 0 0x143-0x143.7 (1)
     |                                               |                |                  [2]{}: in 0x144-0x146.7 (3)
0x140|            fd                                 |    .           |                    prefix: 0xfd (valid) 0x144-0x144.7 (1)
0x140|               1d                              |     .          |                    i64x2.extract_lane_u: 29 (valid) 0x145-0x145.7 (1)
0x140|                  00                           |      .         |                    l: 0 0x146-0x146.7 (1)
     |                                               |                |                  [3]{}: in 0x147-0x147.7 (1)
0x140|                     0b                        |       .        |                    end: 0xb (valid) 0x147-0x147.7 (1)
     |                                               |                |    [5]{}: section 0x148-0x169.7 (34)
0x140|                        0b                     |        .       |      id: "data section" (11) 0x148-0x148.7 (1)
0x140|                           20                  |                |      size: 32 0x149-0x149.7 (1)
     |                                               |                |      content{}: 0x14a-0x169.7 (32)
     |                                               |                |        seg{}: 0x14a-0x169.7 (32)
0x140|                              01               |          .     |          n: 1 0x14a-0x14a.7 (1)
     |                                               |                |          x[0:1]: 0x14b-0x169.7 (31)
     |                                               |                |            [0]{}: seg 0x14b-0x169.7 (31)
0x140|                                 00            |           .    |              tag: 0 0x14b-0x14b.7 (1)
     |                                               |                |              e[0:2]: 0x14c-0x14e.7 (3)
     |                                               |                |                [0]{}: in 0x14c-0x14d.7 (2)
0x140|                                    41         |            A   |                  i32.const: 0x41 (valid) 0x14c-0x14c.7 (1)
0x140|                                       00      |             .  |                  n: 0 0x14d-0x14d.7 (1)
     |                                               |                |                [1]{}: in 0x14e-0x14e.7 (1)
0x140|                                          0b   |              . |                  end: 0xb (valid) 0x14e-0x14e.7 (1)
     |                                               |                |              b{}: 0x14f-0x169.7 (27)
0x140|                                             1a|               .|                n: 26 0x14f-0x14f.7 (1)
0x150|00 01 02 03 04 05 06 07 08 09 0a 0b 0c 0d 0e 0f|................|                x: raw bits 0x150-0x169.7 (26)
0x160|80 81 82 83 84 85 86 87 88 89|                 |..........|     |
