$ fq -d wasm dv simd_i8x16_sat_arith-1.wasm
     |00 01 02 03 04 05 06 07 08 09 0a 0b 0c 0d 0e 0f|0123456789abcdef|.{}: simd_i8x16_sat_arith-1.wasm (wasm) 0x0-0x112 (274)
0x000|00 61 73 6d                                    |.asm            |  magic: raw bits (valid) 0x0-0x4 (4)
0x000|            01 00 00 00                        |    ....        |  version: 1 0x4-0x8 (4)
     |                                               |                |  sections[0:4]: 0x8-0x112 (266)
     |                                               |                |    [0]{}: section 0x8-0x18 (16)
0x000|                        01                     |        .       |      id: "type_section" (1) 0x8-0x9 (1)
0x000|                           0e                  |         .      |      size: 14 (valid) 0x9-0xa (1)
     |                                               |                |      content{}: 0xa-0x18 (14)
     |                                               |                |        ft{}: 0xa-0x18 (14)
0x000|                              02               |          .     |          n: 2 (valid) 0xa-0xb (1)
     |                                               |                |          x[0:2]: 0xb-0x18 (13)
     |                                               |                |            [0]{}: ft 0xb-0x12 (7)
0x000|                                 60            |           `    |              tag: 0x60 (valid) 0xb-0xc (1)
     |                                               |                |              rt1{}: 0xc-0x10 (4)
0x000|                                    03         |            .   |                n: 3 (valid) 0xc-0xd (1)
     |                                               |                |                x[0:3]: 0xd-0x10 (3)
0x000|                                       7b      |             {  |                  [0]: "v128" (0x7b) t 0xd-0xe (1)
0x000|                                          7b   |              { |                  [1]: "v128" (0x7b) t 0xe-0xf (1)
0x000|                                             7b|               {|                  [2]: "v128" (0x7b) t 0xf-0x10 (1)
     |                                               |                |              rt2{}: 0x10-0x12 (2)
0x010|01                                             |.               |                n: 1 (valid) 0x10-0x11 (1)
     |                                               |                |                x[0:1]: 0x11-0x12 (1)
0x010|   7b                                          | {              |                  [0]: "v128" (0x7b) t 0x11-0x12 (1)
     |                                               |                |            [1]{}: ft 0x12-0x18 (6)
0x010|      60                                       |  `             |              tag: 0x60 (valid) 0x12-0x13 (1)
     |                                               |                |              rt1{}: 0x13-0x16 (3)
0x010|         02                                    |   .            |                n: 2 (valid) 0x13-0x14 (1)
     |                                               |                |                x[0:2]: 0x14-0x16 (2)
0x010|            7b                                 |    {           |                  [0]: "v128" (0x7b) t 0x14-0x15 (1)
0x010|               7b                              |     {          |                  [1]: "v128" (0x7b) t 0x15-0x16 (1)
     |                                               |                |              rt2{}: 0x16-0x18 (2)
0x010|                  01                           |      .         |                n: 1 (valid) 0x16-0x17 (1)
     |                                               |                |                x[0:1]: 0x17-0x18 (1)
0x010|                     7b                        |       {        |                  [0]: "v128" (0x7b) t 0x17-0x18 (1)
     |                                               |                |    [1]{}: section 0x18-0x23 (11)
0x010|                        03                     |        .       |      id: "function_section" (3) 0x18-0x19 (1)
0x010|                           09                  |         .      |      size: 9 (valid) 0x19-0x1a (1)
     |                                               |                |      content{}: 0x1a-0x23 (9)
     |                                               |                |        x{}: 0x1a-0x23 (9)
0x010|                              08               |          .     |          n: 8 (valid) 0x1a-0x1b (1)
     |                                               |                |          x[0:8]: 0x1b-0x23 (8)
0x010|                                 00            |           .    |            [0]: 0 x (valid) 0x1b-0x1c (1)
0x010|                                    00         |            .   |            [1]: 0 x (valid) 0x1c-0x1d (1)
0x010|                                       00      |             .  |            [2]: 0 x (valid) 0x1d-0x1e (1)
0x010|                                          00   |              . |            [3]: 0 x (valid) 0x1e-0x1f (1)
0x010|                                             01|               .|            [4]: 1 x (valid) 0x1f-0x20 (1)
0x020|01                                             |.               |            [5]: 1 x (valid) 0x20-0x21 (1)
0x020|   01                                          | .              |            [6]: 1 x (valid) 0x21-0x22 (1)
0x020|      01                                       |  .             |            [7]: 1 x (valid) 0x22-0x23 (1)
     |                                               |                |    [2]{}: section 0x23-0xaf (140)
0x020|         07                                    |   .            |      id: "export_section" (7) 0x23-0x24 (1)
0x020|            89 01                              |    ..          |      size: 137 (valid) 0x24-0x26 (2)
     |                                               |                |      content{}: 0x26-0xaf (137)
     |                                               |                |        ex{}: 0x26-0xaf (137)
0x020|                  08                           |      .         |          n: 8 (valid) 0x26-0x27 (1)
     |                                               |                |          x[0:8]: 0x27-0xaf (136)
     |                                               |                |            [0]{}: ex 0x27-0x39 (18)
     |                                               |                |              nm{}: 0x27-0x37 (16)
0x020|                     0f                        |       .        |                n: 15 (valid) 0x27-0x28 (1)
0x020|                        73 61 74 2d 61 64 64 5f|        sat-add_|                b: "sat-add_s-sub_s" 0x28-0x37 (15)
0x030|73 2d 73 75 62 5f 73                           |s-sub_s         |
     |                                               |                |              d{}: 0x37-0x39 (2)
0x030|                     00                        |       .        |                tag: "funcidx" (0x0) 0x37-0x38 (1)
0x030|                        00                     |        .       |                x: 0 (valid) 0x38-0x39 (1)
     |                                               |                |            [1]{}: ex 0x39-0x4b (18)
     |                                               |                |              nm{}: 0x39-0x49 (16)
0x030|                           0f                  |         .      |                n: 15 (valid) 0x39-0x3a (1)
0x030|                              73 61 74 2d 61 64|          sat-ad|                b: "sat-add_s-sub_u" 0x3a-0x49 (15)
0x040|64 5f 73 2d 73 75 62 5f 75                     |d_s-sub_u       |
     |                                               |                |              d{}: 0x49-0x4b (2)
0x040|                           00                  |         .      |                tag: "funcidx" (0x0) 0x49-0x4a (1)
0x040|                              01               |          .     |                x: 1 (valid) 0x4a-0x4b (1)
     |                                               |                |            [2]{}: ex 0x4b-0x5d (18)
     |                                               |                |              nm{}: 0x4b-0x5b (16)
0x040|                                 0f            |           .    |                n: 15 (valid) 0x4b-0x4c (1)
0x040|                                    73 61 74 2d|            sat-|                b: "sat-add_u-sub_s" 0x4c-0x5b (15)
0x050|61 64 64 5f 75 2d 73 75 62 5f 73               |add_u-sub_s     |
     |                                               |                |              d{}: 0x5b-0x5d (2)
0x050|                                 00            |           .    |                tag: "funcidx" (0x0) 0x5b-0x5c (1)
0x050|                                    02         |            .   |                x: 2 (valid) 0x5c-0x5d (1)
     |                                               |                |            [3]{}: ex 0x5d-0x6f (18)
     |                                               |                |              nm{}: 0x5d-0x6d (16)
0x050|                                       0f      |             .  |                n: 15 (valid) 0x5d-0x5e (1)
0x050|                                          73 61|              sa|                b: "sat-add_u-sub_u" 0x5e-0x6d (15)
0x060|74 2d 61 64 64 5f 75 2d 73 75 62 5f 75         |t-add_u-sub_u   |
     |                                               |                |              d{}: 0x6d-0x6f (2)
0x060|                                       00      |             .  |                tag: "funcidx" (0x0) 0x6d-0x6e (1)
0x060|                                          03   |              . |                x: 3 (valid) 0x6e-0x6f (1)
     |                                               |                |            [4]{}: ex 0x6f-0x7f (16)
     |                                               |                |              nm{}: 0x6f-0x7d (14)
0x060|                                             0d|               .|                n: 13 (valid) 0x6f-0x70 (1)
0x070|73 61 74 2d 61 64 64 5f 73 2d 6e 65 67         |sat-add_s-neg   |                b: "sat-add_s-neg" 0x70-0x7d (13)
     |                                               |                |              d{}: 0x7d-0x7f (2)
0x070|                                       00      |             .  |                tag: "funcidx" (0x0) 0x7d-0x7e (1)
0x070|                                          04   |              . |                x: 4 (valid) 0x7e-0x7f (1)
     |                                               |                |            [5]{}: ex 0x7f-0x8f (16)
     |                                               |                |              nm{}: 0x7f-0x8d (14)
0x070|                                             0d|               .|                n: 13 (valid) 0x7f-0x80 (1)
0x080|73 61 74 2d 61 64 64 5f 75 2d 6e 65 67         |sat-add_u-neg   |                b: "sat-add_u-neg" 0x80-0x8d (13)
     |                                               |                |              d{}: 0x8d-0x8f (2)
0x080|                                       00      |             .  |                tag: "funcidx" (0x0) 0x8d-0x8e (1)
0x080|                                          05   |              . |                x: 5 (valid) 0x8e-0x8f (1)
     |                                               |                |            [6]{}: ex 0x8f-0x9f (16)
     |                                               |                |              nm{}: 0x8f-0x9d (14)
0x080|                                             0d|               .|                n: 13 (valid) 0x8f-0x90 (1)
0x090|73 61 74 2d 73 75 62 5f 73 2d 6e 65 67         |sat-sub_s-neg   |                b: "sat-sub_s-neg" 0x90-0x9d (13)
     |                                               |                |              d{}: 0x9d-0x9f (2)
0x090|                                       00      |             .  |                tag: "funcidx" (0x0) 0x9d-0x9e (1)
0x090|                                          06   |              . |                x: 6 (valid) 0x9e-0x9f (1)
     |                                               |                |            [7]{}: ex 0x9f-0xaf (16)
     |                                               |                |              nm{}: 0x9f-0xad (14)
0x090|                                             0d|               .|                n: 13 (valid) 0x9f-0xa0 (1)
0x0a0|73 61 74 2d 73 75 62 5f 75 2d 6e 65 67         |sat-sub_u-neg   |                b: "sat-sub_u-neg" 0xa0-0xad (13)
     |                                               |                |              d{}: 0xad-0xaf (2)
0x0a0|                                       00      |             .  |                tag: "funcidx" (0x0) 0xad-0xae (1)
0x0a0|                                          07   |              . |                x: 7 (valid) 0xae-0xaf (1)
     |                                               |                |    [3]{}: section 0xaf-0x112 (99)
0x0a0|                                             0a|               .|      id: "code_section" (10) 0xaf-0xb0 (1)
0x0b0|61                                             |a               |      size: 97 (valid) 0xb0-0xb1 (1)
     |                                               |                |      content{}: 0xb1-0x112 (97)
     |                                               |                |        code{}: 0xb1-0x112 (97)
0x0b0|   08                                          | .              |          n: 8 (valid) 0xb1-0xb2 (1)
     |                                               |                |          x[0:8]: 0xb2-0x112 (96)
     |                                               |                |            [0]{}: code 0xb2-0xbf (13)
0x0b0|      0c                                       |  .             |              size: 12 (valid) 0xb2-0xb3 (1)
     |                                               |                |              code{}: 0xb3-0xbf (12)
     |                                               |                |                t{}: 0xb3-0xb4 (1)
0x0b0|         00                                    |   .            |                  n: 0 (valid) 0xb3-0xb4 (1)
     |                                               |                |                  x[0:0]: 0xb4-0xb4 (0)
     |                                               |                |                e[0:6]: 0xb4-0xbf (11)
     |                                               |                |                  [0]{}: in 0xb4-0xb6 (2)
0x0b0|            20                                 |                |                    opcode: "local.get" (0x20) 0xb4-0xb5 (1)
0x0b0|               00                              |     .          |                    x: 0 (valid) 0xb5-0xb6 (1)
     |                                               |                |                  [1]{}: in 0xb6-0xb8 (2)
0x0b0|                  20                           |                |                    opcode: "local.get" (0x20) 0xb6-0xb7 (1)
0x0b0|                     01                        |       .        |                    x: 1 (valid) 0xb7-0xb8 (1)
     |                                               |                |                  [2]{}: in 0xb8-0xba (2)
0x0b0|                        fd                     |        .       |                    opcode: "vector" (0xfd) 0xb8-0xb9 (1)
0x0b0|                           72                  |         r      |                    v_opcode: "i8x16.sub_sat_s" (114) 0xb9-0xba (1)
     |                                               |                |                  [3]{}: in 0xba-0xbc (2)
0x0b0|                              20               |                |                    opcode: "local.get" (0x20) 0xba-0xbb (1)
0x0b0|                                 02            |           .    |                    x: 2 (valid) 0xbb-0xbc (1)
     |                                               |                |                  [4]{}: in 0xbc-0xbe (2)
0x0b0|                                    fd         |            .   |                    opcode: "vector" (0xfd) 0xbc-0xbd (1)
0x0b0|                                       6f      |             o  |                    v_opcode: "i8x16.add_sat_s" (111) 0xbd-0xbe (1)
     |                                               |                |                  [5]{}: in 0xbe-0xbf (1)
0x0b0|                                          0b   |              . |                    opcode: "end" (0xb) 0xbe-0xbf (1)
     |                                               |                |            [1]{}: code 0xbf-0xcc (13)
0x0b0|                                             0c|               .|              size: 12 (valid) 0xbf-0xc0 (1)
     |                                               |                |              code{}: 0xc0-0xcc (12)
     |                                               |                |                t{}: 0xc0-0xc1 (1)
0x0c0|00                                             |.               |                  n: 0 (valid) 0xc0-0xc1 (1)
     |                                               |                |                  x[0:0]: 0xc1-0xc1 (0)
     |                                               |                |                e[0:6]: 0xc1-0xcc (11)
     |                                               |                |                  [0]{}: in 0xc1-0xc3 (2)
0x0c0|   20                                          |                |                    opcode: "local.get" (0x20) 0xc1-0xc2 (1)
0x0c0|      00                                       |  .             |                    x: 0 (valid) 0xc2-0xc3 (1)
     |                                               |                |                  [1]{}: in 0xc3-0xc5 (2)
0x0c0|         20                                    |                |                    opcode: "local.get" (0x20) 0xc3-0xc4 (1)
0x0c0|            01                                 |    .           |                    x: 1 (valid) 0xc4-0xc5 (1)
     |                                               |                |                  [2]{}: in 0xc5-0xc7 (2)
0x0c0|               fd                              |     .          |                    opcode: "vector" (0xfd) 0xc5-0xc6 (1)
0x0c0|                  73                           |      s         |                    v_opcode: "i8x16.sub_sat_u" (115) 0xc6-0xc7 (1)
     |                                               |                |                  [3]{}: in 0xc7-0xc9 (2)
0x0c0|                     20                        |                |                    opcode: "local.get" (0x20) 0xc7-0xc8 (1)
0x0c0|                        02                     |        .       |                    x: 2 (valid) 0xc8-0xc9 (1)
     |                                               |                |                  [4]{}: in 0xc9-0xcb (2)
0x0c0|                           fd                  |         .      |                    opcode: "vector" (0xfd) 0xc9-0xca (1)
0x0c0|                              6f               |          o     |                    v_opcode: "i8x16.add_sat_s" (111) 0xca-0xcb (1)
     |                                               |                |                  [5]{}: in 0xcb-0xcc (1)
0x0c0|                                 0b            |           .    |                    opcode: "end" (0xb) 0xcb-0xcc (1)
     |                                               |                |            [2]{}: code 0xcc-0xd9 (13)
0x0c0|                                    0c         |            .   |              size: 12 (valid) 0xcc-0xcd (1)
     |                                               |                |              code{}: 0xcd-0xd9 (12)
     |                                               |                |                t{}: 0xcd-0xce (1)
0x0c0|                                       00      |             .  |                  n: 0 (valid) 0xcd-0xce (1)
     |                                               |                |                  x[0:0]: 0xce-0xce (0)
     |                                               |                |                e[0:6]: 0xce-0xd9 (11)
     |                                               |                |                  [0]{}: in 0xce-0xd0 (2)
0x0c0|                                          20   |                |                    opcode: "local.get" (0x20) 0xce-0xcf (1)
0x0c0|                                             00|               .|                    x: 0 (valid) 0xcf-0xd0 (1)
     |                                               |                |                  [1]{}: in 0xd0-0xd2 (2)
0x0d0|20                                             |                |                    opcode: "local.get" (0x20) 0xd0-0xd1 (1)
0x0d0|   01                                          | .              |                    x: 1 (valid) 0xd1-0xd2 (1)
     |                                               |                |                  [2]{}: in 0xd2-0xd4 (2)
0x0d0|      fd                                       |  .             |                    opcode: "vector" (0xfd) 0xd2-0xd3 (1)
0x0d0|         72                                    |   r            |                    v_opcode: "i8x16.sub_sat_s" (114) 0xd3-0xd4 (1)
     |                                               |                |                  [3]{}: in 0xd4-0xd6 (2)
0x0d0|            20                                 |                |                    opcode: "local.get" (0x20) 0xd4-0xd5 (1)
0x0d0|               02                              |     .          |                    x: 2 (valid) 0xd5-0xd6 (1)
     |                                               |                |                  [4]{}: in 0xd6-0xd8 (2)
0x0d0|                  fd                           |      .         |                    opcode: "vector" (0xfd) 0xd6-0xd7 (1)
0x0d0|                     70                        |       p        |                    v_opcode: "i8x16.add_sat_u" (112) 0xd7-0xd8 (1)
     |                                               |                |                  [5]{}: in 0xd8-0xd9 (1)
0x0d0|                        0b                     |        .       |                    opcode: "end" (0xb) 0xd8-0xd9 (1)
     |                                               |                |            [3]{}: code 0xd9-0xe6 (13)
0x0d0|                           0c                  |         .      |              size: 12 (valid) 0xd9-0xda (1)
     |                                               |                |              code{}: 0xda-0xe6 (12)
     |                                               |                |                t{}: 0xda-0xdb (1)
0x0d0|                              00               |          .     |                  n: 0 (valid) 0xda-0xdb (1)
     |                                               |                |                  x[0:0]: 0xdb-0xdb (0)
     |                                               |                |                e[0:6]: 0xdb-0xe6 (11)
     |                                               |                |                  [0]{}: in 0xdb-0xdd (2)
0x0d0|                                 20            |                |                    opcode: "local.get" (0x20) 0xdb-0xdc (1)
0x0d0|                                    00         |            .   |                    x: 0 (valid) 0xdc-0xdd (1)
     |                                               |                |                  [1]{}: in 0xdd-0xdf (2)
0x0d0|                                       20      |                |                    opcode: "local.get" (0x20) 0xdd-0xde (1)
0x0d0|                                          01   |              . |                    x: 1 (valid) 0xde-0xdf (1)
     |                                               |                |                  [2]{}: in 0xdf-0xe1 (2)
0x0d0|                                             fd|               .|                    opcode: "vector" (0xfd) 0xdf-0xe0 (1)
0x0e0|73                                             |s               |                    v_opcode: "i8x16.sub_sat_u" (115) 0xe0-0xe1 (1)
     |                                               |                |                  [3]{}: in 0xe1-0xe3 (2)
0x0e0|   20                                          |                |                    opcode: "local.get" (0x20) 0xe1-0xe2 (1)
0x0e0|      02                                       |  .             |                    x: 2 (valid) 0xe2-0xe3 (1)
     |                                               |                |                  [4]{}: in 0xe3-0xe5 (2)
0x0e0|         fd                                    |   .            |                    opcode: "vector" (0xfd) 0xe3-0xe4 (1)
0x0e0|            70                                 |    p           |                    v_opcode: "i8x16.add_sat_u" (112) 0xe4-0xe5 (1)
     |                                               |                |                  [5]{}: in 0xe5-0xe6 (1)
0x0e0|               0b                              |     .          |                    opcode: "end" (0xb) 0xe5-0xe6 (1)
     |                                               |                |            [4]{}: code 0xe6-0xf1 (11)
0x0e0|                  0a                           |      .         |              size: 10 (valid) 0xe6-0xe7 (1)
     |                                               |                |              code{}: 0xe7-0xf1 (10)
     |                                               |                |                t{}: 0xe7-0xe8 (1)
0x0e0|                     00                        |       .        |                  n: 0 (valid) 0xe7-0xe8 (1)
     |                                               |                |                  x[0:0]: 0xe8-0xe8 (0)
     |                                               |                |                e[0:5]: 0xe8-0xf1 (9)
     |                                               |                |                  [0]{}: in 0xe8-0xea (2)
0x0e0|                        20                     |                |                    opcode: "local.get" (0x20) 0xe8-0xe9 (1)
0x0e0|                           00                  |         .      |                    x: 0 (valid) 0xe9-0xea (1)
     |                                               |                |                  [1]{}: in 0xea-0xec (2)
0x0e0|                              fd               |          .     |                    opcode: "vector" (0xfd) 0xea-0xeb (1)
0x0e0|                                 61            |           a    |                    v_opcode: "i8x16.neg" (97) 0xeb-0xec (1)
     |                                               |                |                  [2]{}: in 0xec-0xee (2)
0x0e0|                                    20         |                |                    opcode: "local.get" (0x20) 0xec-0xed (1)
0x0e0|                                       01      |             .  |                    x: 1 (valid) 0xed-0xee (1)
     |                                               |                |                  [3]{}: in 0xee-0xf0 (2)
0x0e0|                                          fd   |              . |                    opcode: "vector" (0xfd) 0xee-0xef (1)
0x0e0|                                             6f|               o|                    v_opcode: "i8x16.add_sat_s" (111) 0xef-0xf0 (1)
     |                                               |                |                  [4]{}: in 0xf0-0xf1 (1)
0x0f0|0b                                             |.               |                    opcode: "end" (0xb) 0xf0-0xf1 (1)
     |                                               |                |            [5]{}: code 0xf1-0xfc (11)
0x0f0|   0a                                          | .              |              size: 10 (valid) 0xf1-0xf2 (1)
     |                                               |                |              code{}: 0xf2-0xfc (10)
     |                                               |                |                t{}: 0xf2-0xf3 (1)
0x0f0|      00                                       |  .             |                  n: 0 (valid) 0xf2-0xf3 (1)
     |                                               |                |                  x[0:0]: 0xf3-0xf3 (0)
     |                                               |                |                e[0:5]: 0xf3-0xfc (9)
     |                                               |                |                  [0]{}: in 0xf3-0xf5 (2)
0x0f0|         20                                    |                |                    opcode: "local.get" (0x20) 0xf3-0xf4 (1)
0x0f0|            00                                 |    .           |                    x: 0 (valid) 0xf4-0xf5 (1)
     |                                               |                |                  [1]{}: in 0xf5-0xf7 (2)
0x0f0|               fd                              |     .          |                    opcode: "vector" (0xfd) 0xf5-0xf6 (1)
0x0f0|                  61                           |      a         |                    v_opcode: "i8x16.neg" (97) 0xf6-0xf7 (1)
     |                                               |                |                  [2]{}: in 0xf7-0xf9 (2)
0x0f0|                     20                        |                |                    opcode: "local.get" (0x20) 0xf7-0xf8 (1)
0x0f0|                        01                     |        .       |                    x: 1 (valid) 0xf8-0xf9 (1)
     |                                               |                |                  [3]{}: in 0xf9-0xfb (2)
0x0f0|                           fd                  |         .      |                    opcode: "vector" (0xfd) 0xf9-0xfa (1)
0x0f0|                              70               |          p     |                    v_opcode: "i8x16.add_sat_u" (112) 0xfa-0xfb (1)
     |                                               |                |                  [4]{}: in 0xfb-0xfc (1)
0x0f0|                                 0b            |           .    |                    opcode: "end" (0xb) 0xfb-0xfc (1)
     |                                               |                |            [6]{}: code 0xfc-0x107 (11)
0x0f0|                                    0a         |            .   |              size: 10 (valid) 0xfc-0xfd (1)
     |                                               |                |              code{}: 0xfd-0x107 (10)
     |                                               |                |                t{}: 0xfd-0xfe (1)
0x0f0|                                       00      |             .  |                  n: 0 (valid) 0xfd-0xfe (1)
     |                                               |                |                  x[0:0]: 0xfe-0xfe (0)
     |                                               |                |                e[0:5]: 0xfe-0x107 (9)
     |                                               |                |                  [0]{}: in 0xfe-0x100 (2)
0x0f0|                                          20   |                |                    opcode: "local.get" (0x20) 0xfe-0xff (1)
0x0f0|                                             00|               .|                    x: 0 (valid) 0xff-0x100 (1)
     |                                               |                |                  [1]{}: in 0x100-0x102 (2)
0x100|fd                                             |.               |                    opcode: "vector" (0xfd) 0x100-0x101 (1)
0x100|   61                                          | a              |                    v_opcode: "i8x16.neg" (97) 0x101-0x102 (1)
     |                                               |                |                  [2]{}: in 0x102-0x104 (2)
0x100|      20                                       |                |                    opcode: "local.get" (0x20) 0x102-0x103 (1)
0x100|         01                                    |   .            |                    x: 1 (valid) 0x103-0x104 (1)
     |                                               |                |                  [3]{}: in 0x104-0x106 (2)
0x100|            fd                                 |    .           |                    opcode: "vector" (0xfd) 0x104-0x105 (1)
0x100|               72                              |     r          |                    v_opcode: "i8x16.sub_sat_s" (114) 0x105-0x106 (1)
     |                                               |                |                  [4]{}: in 0x106-0x107 (1)
0x100|                  0b                           |      .         |                    opcode: "end" (0xb) 0x106-0x107 (1)
     |                                               |                |            [7]{}: code 0x107-0x112 (11)
0x100|                     0a                        |       .        |              size: 10 (valid) 0x107-0x108 (1)
     |                                               |                |              code{}: 0x108-0x112 (10)
     |                                               |                |                t{}: 0x108-0x109 (1)
0x100|                        00                     |        .       |                  n: 0 (valid) 0x108-0x109 (1)
     |                                               |                |                  x[0:0]: 0x109-0x109 (0)
     |                                               |                |                e[0:5]: 0x109-0x112 (9)
     |                                               |                |                  [0]{}: in 0x109-0x10b (2)
0x100|                           20                  |                |                    opcode: "local.get" (0x20) 0x109-0x10a (1)
0x100|                              00               |          .     |                    x: 0 (valid) 0x10a-0x10b (1)
     |                                               |                |                  [1]{}: in 0x10b-0x10d (2)
0x100|                                 fd            |           .    |                    opcode: "vector" (0xfd) 0x10b-0x10c (1)
0x100|                                    61         |            a   |                    v_opcode: "i8x16.neg" (97) 0x10c-0x10d (1)
     |                                               |                |                  [2]{}: in 0x10d-0x10f (2)
0x100|                                       20      |                |                    opcode: "local.get" (0x20) 0x10d-0x10e (1)
0x100|                                          01   |              . |                    x: 1 (valid) 0x10e-0x10f (1)
     |                                               |                |                  [3]{}: in 0x10f-0x111 (2)
0x100|                                             fd|               .|                    opcode: "vector" (0xfd) 0x10f-0x110 (1)
0x110|73                                             |s               |                    v_opcode: "i8x16.sub_sat_u" (115) 0x110-0x111 (1)
     |                                               |                |                  [4]{}: in 0x111-0x112 (1)
0x110|   0b|                                         | .|             |                    opcode: "end" (0xb) 0x111-0x112 (1)
