$ fq -d wasm dv simd_splat-3.wasm
     |00 01 02 03 04 05 06 07 08 09 0a 0b 0c 0d 0e 0f|0123456789abcdef|.{}: simd_splat-3.wasm (wasm) 0x0-0x142.7 (323)
0x000|00 61 73 6d                                    |.asm            |  magic: raw bits (valid) 0x0-0x3.7 (4)
0x000|            01 00 00 00                        |    ....        |  version: 1 0x4-0x7.7 (4)
     |                                               |                |  sections[0:5]: 0x8-0x142.7 (315)
     |                                               |                |    [0]{}: section 0x8-0x1e.7 (23)
0x000|                        01                     |        .       |      id: "type section" (1) 0x8-0x8.7 (1)
0x000|                           15                  |         .      |      size: 21 0x9-0x9.7 (1)
     |                                               |                |      content{}: 0xa-0x1e.7 (21)
     |                                               |                |        ft{}: 0xa-0x1e.7 (21)
0x000|                              04               |          .     |          n: 4 0xa-0xa.7 (1)
     |                                               |                |          x[0:4]: 0xb-0x1e.7 (20)
     |                                               |                |            [0]{}: ft 0xb-0xf.7 (5)
0x000|                                 60            |           `    |              tag: 0x60 (valid) 0xb-0xb.7 (1)
     |                                               |                |              rt1{}: 0xc-0xd.7 (2)
0x000|                                    01         |            .   |                n: 1 0xc-0xc.7 (1)
     |                                               |                |                x[0:1]: 0xd-0xd.7 (1)
0x000|                                       7f      |             .  |                  [0]: "i32" (0x7f) t 0xd-0xd.7 (1)
     |                                               |                |              rt2{}: 0xe-0xf.7 (2)
0x000|                                          01   |              . |                n: 1 0xe-0xe.7 (1)
     |                                               |                |                x[0:1]: 0xf-0xf.7 (1)
0x000|                                             7b|               {|                  [0]: "v128" (0x7b) t 0xf-0xf.7 (1)
     |                                               |                |            [1]{}: ft 0x10-0x14.7 (5)
0x010|60                                             |`               |              tag: 0x60 (valid) 0x10-0x10.7 (1)
     |                                               |                |              rt1{}: 0x11-0x12.7 (2)
0x010|   01                                          | .              |                n: 1 0x11-0x11.7 (1)
     |                                               |                |                x[0:1]: 0x12-0x12.7 (1)
0x010|      7d                                       |  }             |                  [0]: "f32" (0x7d) t 0x12-0x12.7 (1)
     |                                               |                |              rt2{}: 0x13-0x14.7 (2)
0x010|         01                                    |   .            |                n: 1 0x13-0x13.7 (1)
     |                                               |                |                x[0:1]: 0x14-0x14.7 (1)
0x010|            7b                                 |    {           |                  [0]: "v128" (0x7b) t 0x14-0x14.7 (1)
     |                                               |                |            [2]{}: ft 0x15-0x19.7 (5)
0x010|               60                              |     `          |              tag: 0x60 (valid) 0x15-0x15.7 (1)
     |                                               |                |              rt1{}: 0x16-0x17.7 (2)
0x010|                  01                           |      .         |                n: 1 0x16-0x16.7 (1)
     |                                               |                |                x[0:1]: 0x17-0x17.7 (1)
0x010|                     7e                        |       ~        |                  [0]: "i64" (0x7e) t 0x17-0x17.7 (1)
     |                                               |                |              rt2{}: 0x18-0x19.7 (2)
0x010|                        01                     |        .       |                n: 1 0x18-0x18.7 (1)
     |                                               |                |                x[0:1]: 0x19-0x19.7 (1)
0x010|                           7b                  |         {      |                  [0]: "v128" (0x7b) t 0x19-0x19.7 (1)
     |                                               |                |            [3]{}: ft 0x1a-0x1e.7 (5)
0x010|                              60               |          `     |              tag: 0x60 (valid) 0x1a-0x1a.7 (1)
     |                                               |                |              rt1{}: 0x1b-0x1c.7 (2)
0x010|                                 01            |           .    |                n: 1 0x1b-0x1b.7 (1)
     |                                               |                |                x[0:1]: 0x1c-0x1c.7 (1)
0x010|                                    7c         |            |   |                  [0]: "f64" (0x7c) t 0x1c-0x1c.7 (1)
     |                                               |                |              rt2{}: 0x1d-0x1e.7 (2)
0x010|                                       01      |             .  |                n: 1 0x1d-0x1d.7 (1)
     |                                               |                |                x[0:1]: 0x1e-0x1e.7 (1)
0x010|                                          7b   |              { |                  [0]: "v128" (0x7b) t 0x1e-0x1e.7 (1)
     |                                               |                |    [1]{}: section 0x1f-0x29.7 (11)
0x010|                                             03|               .|      id: "function section" (3) 0x1f-0x1f.7 (1)
0x020|09                                             |.               |      size: 9 0x20-0x20.7 (1)
     |                                               |                |      content{}: 0x21-0x29.7 (9)
     |                                               |                |        x{}: 0x21-0x29.7 (9)
0x020|   08                                          | .              |          n: 8 0x21-0x21.7 (1)
     |                                               |                |          x[0:8]: 0x22-0x29.7 (8)
0x020|      00                                       |  .             |            [0]: 0 x 0x22-0x22.7 (1)
0x020|         00                                    |   .            |            [1]: 0 x 0x23-0x23.7 (1)
0x020|            00                                 |    .           |            [2]: 0 x 0x24-0x24.7 (1)
0x020|               01                              |     .          |            [3]: 1 x 0x25-0x25.7 (1)
0x020|                  02                           |      .         |            [4]: 2 x 0x26-0x26.7 (1)
0x020|                     02                        |       .        |            [5]: 2 x 0x27-0x27.7 (1)
0x020|                        02                     |        .       |            [6]: 2 x 0x28-0x28.7 (1)
0x020|                           03                  |         .      |            [7]: 3 x 0x29-0x29.7 (1)
     |                                               |                |    [2]{}: section 0x2a-0x41.7 (24)
0x020|                              06               |          .     |      id: "global section" (6) 0x2a-0x2a.7 (1)
0x020|                                 16            |           .    |      size: 22 0x2b-0x2b.7 (1)
     |                                               |                |      content{}: 0x2c-0x41.7 (22)
     |                                               |                |        glob{}: 0x2c-0x41.7 (22)
0x020|                                    01         |            .   |          n: 1 0x2c-0x2c.7 (1)
     |                                               |                |          x[0:1]: 0x2d-0x41.7 (21)
     |                                               |                |            [0]{}: glob 0x2d-0x41.7 (21)
     |                                               |                |              gt{}: 0x2d-0x2e.7 (2)
0x020|                                       7b      |             {  |                t: "v128" (0x7b) 0x2d-0x2d.7 (1)
0x020|                                          01   |              . |                m: "var" (1) 0x2e-0x2e.7 (1)
     |                                               |                |              e[0:2]: 0x2f-0x41.7 (19)
     |                                               |                |                [0]{}: in 0x2f-0x40.7 (18)
0x020|                                             fd|               .|                  prefix: 0xfd (valid) 0x2f-0x2f.7 (1)
0x030|0c                                             |.               |                  v128.const: 12 (valid) 0x30-0x30.7 (1)
0x030|   00 00 00 00 00 00 00 00 00 00 00 00 00 00 00| ...............|                  bytes: raw bits 0x31-0x40.7 (16)
0x040|00                                             |.               |
     |                                               |                |                [1]{}: in 0x41-0x41.7 (1)
0x040|   0b                                          | .              |                  end: 0xb (valid) 0x41-0x41.7 (1)
     |                                               |                |    [3]{}: section 0x42-0xe3.7 (162)
0x040|      07                                       |  .             |      id: "export section" (7) 0x42-0x42.7 (1)
0x040|         9f 01                                 |   ..           |      size: 159 0x43-0x44.7 (2)
     |                                               |                |      content{}: 0x45-0xe3.7 (159)
     |                                               |                |        ex{}: 0x45-0xe3.7 (159)
0x040|               08                              |     .          |          n: 8 0x45-0x45.7 (1)
     |                                               |                |          x[0:8]: 0x46-0xe3.7 (158)
     |                                               |                |            [0]{}: ex 0x46-0x54.7 (15)
     |                                               |                |              nm{}: 0x46-0x52.7 (13)
0x040|                  0c                           |      .         |                n: 12 0x46-0x46.7 (1)
0x040|                     61 73 2d 62 72 2d 76 61 6c|       as-br-val|                b: "as-br-value1" 0x47-0x52.7 (12)
0x050|75 65 31                                       |ue1             |
     |                                               |                |              d{}: 0x53-0x54.7 (2)
0x050|         00                                    |   .            |                tag: "funcidx" (0x0) 0x53-0x53.7 (1)
0x050|            00                                 |    .           |                x: 0 0x54-0x54.7 (1)
     |                                               |                |            [1]{}: ex 0x55-0x67.7 (19)
     |                                               |                |              nm{}: 0x55-0x65.7 (17)
0x050|               10                              |     .          |                n: 16 0x55-0x55.7 (1)
0x050|                  61 73 2d 72 65 74 75 72 6e 2d|      as-return-|                b: "as-return-value1" 0x56-0x65.7 (16)
0x060|76 61 6c 75 65 31                              |value1          |
     |                                               |                |              d{}: 0x66-0x67.7 (2)
0x060|                  00                           |      .         |                tag: "funcidx" (0x0) 0x66-0x66.7 (1)
0x060|                     01                        |       .        |                x: 1 0x67-0x67.7 (1)
     |                                               |                |            [2]{}: ex 0x68-0x7d.7 (22)
     |                                               |                |              nm{}: 0x68-0x7b.7 (20)
0x060|                        13                     |        .       |                n: 19 0x68-0x68.7 (1)
0x060|                           61 73 2d 6c 6f 63 61|         as-loca|                b: "as-local_set-value1" 0x69-0x7b.7 (19)
0x070|6c 5f 73 65 74 2d 76 61 6c 75 65 31            |l_set-value1    |
     |                                               |                |              d{}: 0x7c-0x7d.7 (2)
0x070|                                    00         |            .   |                tag: "funcidx" (0x0) 0x7c-0x7c.7 (1)
0x070|                                       02      |             .  |                x: 2 0x7d-0x7d.7 (1)
     |                                               |                |            [3]{}: ex 0x7e-0x94.7 (23)
     |                                               |                |              nm{}: 0x7e-0x92.7 (21)
0x070|                                          14   |              . |                n: 20 0x7e-0x7e.7 (1)
0x070|                                             61|               a|                b: "as-global_set-value1" 0x7f-0x92.7 (20)
0x080|73 2d 67 6c 6f 62 61 6c 5f 73 65 74 2d 76 61 6c|s-global_set-val|
0x090|75 65 31                                       |ue1             |
     |                                               |                |              d{}: 0x93-0x94.7 (2)
0x090|         00                                    |   .            |                tag: "funcidx" (0x0) 0x93-0x93.7 (1)
0x090|            03                                 |    .           |                x: 3 0x94-0x94.7 (1)
     |                                               |                |            [4]{}: ex 0x95-0xa3.7 (15)
     |                                               |                |              nm{}: 0x95-0xa1.7 (13)
0x090|               0c                              |     .          |                n: 12 0x95-0x95.7 (1)
0x090|                  61 73 2d 62 72 2d 76 61 6c 75|      as-br-valu|                b: "as-br-value2" 0x96-0xa1.7 (12)
0x0a0|65 32                                          |e2              |
     |                                               |                |              d{}: 0xa2-0xa3.7 (2)
0x0a0|      00                                       |  .             |                tag: "funcidx" (0x0) 0xa2-0xa2.7 (1)
0x0a0|         04                                    |   .            |                x: 4 0xa3-0xa3.7 (1)
     |                                               |                |            [5]{}: ex 0xa4-0xb6.7 (19)
     |                                               |                |              nm{}: 0xa4-0xb4.7 (17)
0x0a0|            10                                 |    .           |                n: 16 0xa4-0xa4.7 (1)
0x0a0|               61 73 2d 72 65 74 75 72 6e 2d 76|     as-return-v|                b: "as-return-value2" 0xa5-0xb4.7 (16)
0x0b0|61 6c 75 65 32                                 |alue2           |
     |                                               |                |              d{}: 0xb5-0xb6.7 (2)
0x0b0|               00                              |     .          |                tag: "funcidx" (0x0) 0xb5-0xb5.7 (1)
0x0b0|                  05                           |      .         |                x: 5 0xb6-0xb6.7 (1)
     |                                               |                |            [6]{}: ex 0xb7-0xcc.7 (22)
     |                                               |                |              nm{}: 0xb7-0xca.7 (20)
0x0b0|                     13                        |       .        |                n: 19 0xb7-0xb7.7 (1)
0x0b0|                        61 73 2d 6c 6f 63 61 6c|        as-local|                b: "as-local_set-value2" 0xb8-0xca.7 (19)
0x0c0|5f 73 65 74 2d 76 61 6c 75 65 32               |_set-value2     |
     |                                               |                |              d{}: 0xcb-0xcc.7 (2)
0x0c0|                                 00            |           .    |                tag: "funcidx" (0x0) 0xcb-0xcb.7 (1)
0x0c0|                                    06         |            .   |                x: 6 0xcc-0xcc.7 (1)
     |                                               |                |            [7]{}: ex 0xcd-0xe3.7 (23)
     |                                               |                |              nm{}: 0xcd-0xe1.7 (21)
0x0c0|                                       14      |             .  |                n: 20 0xcd-0xcd.7 (1)
0x0c0|                                          61 73|              as|                b: "as-global_set-value2" 0xce-0xe1.7 (20)
0x0d0|2d 67 6c 6f 62 61 6c 5f 73 65 74 2d 76 61 6c 75|-global_set-valu|
0x0e0|65 32                                          |e2              |
     |                                               |                |              d{}: 0xe2-0xe3.7 (2)
0x0e0|      00                                       |  .             |                tag: "funcidx" (0x0) 0xe2-0xe2.7 (1)
0x0e0|         07                                    |   .            |                x: 7 0xe3-0xe3.7 (1)
     |                                               |                |    [4]{}: section 0xe4-0x142.7 (95)
0x0e0|            0a                                 |    .           |      id: "code section" (10) 0xe4-0xe4.7 (1)
0x0e0|               5d                              |     ]          |      size: 93 0xe5-0xe5.7 (1)
     |                                               |                |      content{}: 0xe6-0x142.7 (93)
     |                                               |                |        code{}: 0xe6-0x142.7 (93)
0x0e0|                  08                           |      .         |          n: 8 0xe6-0xe6.7 (1)
     |                                               |                |          x[0:8]: 0xe7-0x142.7 (92)
     |                                               |                |            [0]{}: code 0xe7-0xf2.7 (12)
0x0e0|                     0b                        |       .        |              size: 11 0xe7-0xe7.7 (1)
     |                                               |                |              code{}: 0xe8-0xf2.7 (11)
     |                                               |                |                t{}: 0xe8-0xe8.7 (1)
0x0e0|                        00                     |        .       |                  n: 0 0xe8-0xe8.7 (1)
     |                                               |                |                  x[0:0]: 0xe9-NA (0)
     |                                               |                |                e[0:2]: 0xe9-0xf2.7 (10)
     |                                               |                |                  [0]{}: in 0xe9-0xf1.7 (9)
0x0e0|                           02                  |         .      |                    block: 0x2 (valid) 0xe9-0xe9.7 (1)
0x0e0|                              7b               |          {     |                    bt: "v128" (123) 0xea-0xea.7 (1)
     |                                               |                |                    instructions[0:3]: 0xeb-0xf0.7 (6)
     |                                               |                |                      [0]{}: instr 0xeb-0xec.7 (2)
0x0e0|                                 20            |                |                        local.get: 0x20 (valid) 0xeb-0xeb.7 (1)
0x0e0|                                    00         |            .   |                        x: 0 0xec-0xec.7 (1)
     |                                               |                |                      [1]{}: instr 0xed-0xee.7 (2)
0x0e0|                                       fd      |             .  |                        prefix: 0xfd (valid) 0xed-0xed.7 (1)
0x0e0|                                          0f   |              . |                        i8x16.splat: 15 (valid) 0xee-0xee.7 (1)
     |                                               |                |                      [2]{}: instr 0xef-0xf0.7 (2)
0x0e0|                                             0c|               .|                        br: 0xc (valid) 0xef-0xef.7 (1)
0x0f0|00                                             |.               |                        l: 0 0xf0-0xf0.7 (1)
0x0f0|   0b                                          | .              |                    end: 11 (valid) 0xf1-0xf1.7 (1)
     |                                               |                |                  [1]{}: in 0xf2-0xf2.7 (1)
0x0f0|      0b                                       |  .             |                    end: 0xb (valid) 0xf2-0xf2.7 (1)
     |                                               |                |            [1]{}: code 0xf3-0xfa.7 (8)
0x0f0|         07                                    |   .            |              size: 7 0xf3-0xf3.7 (1)
     |                                               |                |              code{}: 0xf4-0xfa.7 (7)
     |                                               |                |                t{}: 0xf4-0xf4.7 (1)
0x0f0|            00                                 |    .           |                  n: 0 0xf4-0xf4.7 (1)
     |                                               |                |                  x[0:0]: 0xf5-NA (0)
     |                                               |                |                e[0:4]: 0xf5-0xfa.7 (6)
     |                                               |                |                  [0]{}: in 0xf5-0xf6.7 (2)
0x0f0|               20                              |                |                    local.get: 0x20 (valid) 0xf5-0xf5.7 (1)
0x0f0|                  00                           |      .         |                    x: 0 0xf6-0xf6.7 (1)
     |                                               |                |                  [1]{}: in 0xf7-0xf8.7 (2)
0x0f0|                     fd                        |       .        |                    prefix: 0xfd (valid) 0xf7-0xf7.7 (1)
0x0f0|                        10                     |        .       |                    i16x8.splat: 16 (valid) 0xf8-0xf8.7 (1)
     |                                               |                |                  [2]{}: in 0xf9-0xf9.7 (1)
0x0f0|                           0f                  |         .      |                    return: 0xf (valid) 0xf9-0xf9.7 (1)
     |                                               |                |                  [3]{}: in 0xfa-0xfa.7 (1)
0x0f0|                              0b               |          .     |                    end: 0xb (valid) 0xfa-0xfa.7 (1)
     |                                               |                |            [2]{}: code 0xfb-0x108.7 (14)
0x0f0|                                 0d            |           .    |              size: 13 0xfb-0xfb.7 (1)
     |                                               |                |              code{}: 0xfc-0x108.7 (13)
     |                                               |                |                t{}: 0xfc-0xfe.7 (3)
0x0f0|                                    01         |            .   |                  n: 1 0xfc-0xfc.7 (1)
     |                                               |                |                  x[0:1]: 0xfd-0xfe.7 (2)
     |                                               |                |                    [0]{}: t 0xfd-0xfe.7 (2)
0x0f0|                                       01      |             .  |                      n: 1 0xfd-0xfd.7 (1)
0x0f0|                                          7b   |              { |                      t: "v128" (0x7b) 0xfe-0xfe.7 (1)
     |                                               |                |                e[0:6]: 0xff-0x108.7 (10)
     |                                               |                |                  [0]{}: in 0xff-0x100.7 (2)
0x0f0|                                             20|                |                    local.get: 0x20 (valid) 0xff-0xff.7 (1)
0x100|00                                             |.               |                    x: 0 0x100-0x100.7 (1)
     |                                               |                |                  [1]{}: in 0x101-0x102.7 (2)
0x100|   fd                                          | .              |                    prefix: 0xfd (valid) 0x101-0x101.7 (1)
0x100|      11                                       |  .             |                    i32x4.splat: 17 (valid) 0x102-0x102.7 (1)
     |                                               |                |                  [2]{}: in 0x103-0x104.7 (2)
0x100|         21                                    |   !            |                    local.set: 0x21 (valid) 0x103-0x103.7 (1)
0x100|            01                                 |    .           |                    x: 1 0x104-0x104.7 (1)
     |                                               |                |                  [3]{}: in 0x105-0x106.7 (2)
0x100|               20                              |                |                    local.get: 0x20 (valid) 0x105-0x105.7 (1)
0x100|                  01                           |      .         |                    x: 1 0x106-0x106.7 (1)
     |                                               |                |                  [4]{}: in 0x107-0x107.7 (1)
0x100|                     0f                        |       .        |                    return: 0xf (valid) 0x107-0x107.7 (1)
     |                                               |                |                  [5]{}: in 0x108-0x108.7 (1)
0x100|                        0b                     |        .       |                    end: 0xb (valid) 0x108-0x108.7 (1)
     |                                               |                |            [3]{}: code 0x109-0x114.7 (12)
0x100|                           0b                  |         .      |              size: 11 0x109-0x109.7 (1)
     |                                               |                |              code{}: 0x10a-0x114.7 (11)
     |                                               |                |                t{}: 0x10a-0x10a.7 (1)
0x100|                              00               |          .     |                  n: 0 0x10a-0x10a.7 (1)
     |                                               |                |                  x[0:0]: 0x10b-NA (0)
     |                                               |                |                e[0:6]: 0x10b-0x114.7 (10)
     |                                               |                |                  [0]{}: in 0x10b-0x10c.7 (2)
0x100|                                 20            |                |                    local.get: 0x20 (valid) 0x10b-0x10b.7 (1)
0x100|                                    00         |            .   |                    x: 0 0x10c-0x10c.7 (1)
     |                                               |                |                  [1]{}: in 0x10d-0x10e.7 (2)
0x100|                                       fd      |             .  |                    prefix: 0xfd (valid) 0x10d-0x10d.7 (1)
0x100|                                          13   |              . |                    f32x4.splat: 19 (valid) 0x10e-0x10e.7 (1)
     |                                               |                |                  [2]{}: in 0x10f-0x110.7 (2)
0x100|                                             24|               $|                    global.set: 0x24 (valid) 0x10f-0x10f.7 (1)
0x110|00                                             |.               |                    x: 0 0x110-0x110.7 (1)
     |                                               |                |                  [3]{}: in 0x111-0x112.7 (2)
0x110|   23                                          | #              |                    global.get: 0x23 (valid) 0x111-0x111.7 (1)
0x110|      00                                       |  .             |                    x: 0 0x112-0x112.7 (1)
     |                                               |                |                  [4]{}: in 0x113-0x113.7 (1)
0x110|         0f                                    |   .            |                    return: 0xf (valid) 0x113-0x113.7 (1)
     |                                               |                |                  [5]{}: in 0x114-0x114.7 (1)
0x110|            0b                                 |    .           |                    end: 0xb (valid) 0x114-0x114.7 (1)
     |                                               |                |            [4]{}: code 0x115-0x120.7 (12)
0x110|               0b                              |     .          |              size: 11 0x115-0x115.7 (1)
     |                                               |                |              code{}: 0x116-0x120.7 (11)
     |                                               |                |                t{}: 0x116-0x116.7 (1)
0x110|                  00                           |      .         |                  n: 0 0x116-0x116.7 (1)
     |                                               |                |                  x[0:0]: 0x117-NA (0)
     |                                               |                |                e[0:2]: 0x117-0x120.7 (10)
     |                                               |                |                  [0]{}: in 0x117-0x11f.7 (9)
0x110|                     02                        |       .        |                    block: 0x2 (valid) 0x117-0x117.7 (1)
0x110|                        7b                     |        {       |                    bt: "v128" (123) 0x118-0x118.7 (1)
     |                                               |                |                    instructions[0:3]: 0x119-0x11e.7 (6)
     |                                               |                |                      [0]{}: instr 0x119-0x11a.7 (2)
0x110|                           20                  |                |                        local.get: 0x20 (valid) 0x119-0x119.7 (1)
0x110|                              00               |          .     |                        x: 0 0x11a-0x11a.7 (1)
     |                                               |                |                      [1]{}: instr 0x11b-0x11c.7 (2)
0x110|                                 fd            |           .    |                        prefix: 0xfd (valid) 0x11b-0x11b.7 (1)
0x110|                                    12         |            .   |                        i64x2.splat: 18 (valid) 0x11c-0x11c.7 (1)
     |                                               |                |                      [2]{}: instr 0x11d-0x11e.7 (2)
0x110|                                       0c      |             .  |                        br: 0xc (valid) 0x11d-0x11d.7 (1)
0x110|                                          00   |              . |                        l: 0 0x11e-0x11e.7 (1)
0x110|                                             0b|               .|                    end: 11 (valid) 0x11f-0x11f.7 (1)
     |                                               |                |                  [1]{}: in 0x120-0x120.7 (1)
0x120|0b                                             |.               |                    end: 0xb (valid) 0x120-0x120.7 (1)
     |                                               |                |            [5]{}: code 0x121-0x128.7 (8)
0x120|   07                                          | .              |              size: 7 0x121-0x121.7 (1)
     |                                               |                |              code{}: 0x122-0x128.7 (7)
     |                                               |                |                t{}: 0x122-0x122.7 (1)
0x120|      00                                       |  .             |                  n: 0 0x122-0x122.7 (1)
     |                                               |                |                  x[0:0]: 0x123-NA (0)
     |                                               |                |                e[0:4]: 0x123-0x128.7 (6)
     |                                               |                |                  [0]{}: in 0x123-0x124.7 (2)
0x120|         20                                    |                |                    local.get: 0x20 (valid) 0x123-0x123.7 (1)
0x120|            00                                 |    .           |                    x: 0 0x124-0x124.7 (1)
     |                                               |                |                  [1]{}: in 0x125-0x126.7 (2)
0x120|               fd                              |     .          |                    prefix: 0xfd (valid) 0x125-0x125.7 (1)
0x120|                  12                           |      .         |                    i64x2.splat: 18 (valid) 0x126-0x126.7 (1)
     |                                               |                |                  [2]{}: in 0x127-0x127.7 (1)
0x120|                     0f                        |       .        |                    return: 0xf (valid) 0x127-0x127.7 (1)
     |                                               |                |                  [3]{}: in 0x128-0x128.7 (1)
0x120|                        0b                     |        .       |                    end: 0xb (valid) 0x128-0x128.7 (1)
     |                                               |                |            [6]{}: code 0x129-0x136.7 (14)
0x120|                           0d                  |         .      |              size: 13 0x129-0x129.7 (1)
     |                                               |                |              code{}: 0x12a-0x136.7 (13)
     |                                               |                |                t{}: 0x12a-0x12c.7 (3)
0x120|                              01               |          .     |                  n: 1 0x12a-0x12a.7 (1)
     |                                               |                |                  x[0:1]: 0x12b-0x12c.7 (2)
     |                                               |                |                    [0]{}: t 0x12b-0x12c.7 (2)
0x120|                                 01            |           .    |                      n: 1 0x12b-0x12b.7 (1)
0x120|                                    7b         |            {   |                      t: "v128" (0x7b) 0x12c-0x12c.7 (1)
     |                                               |                |                e[0:6]: 0x12d-0x136.7 (10)
     |                                               |                |                  [0]{}: in 0x12d-0x12e.7 (2)
0x120|                                       20      |                |                    local.get: 0x20 (valid) 0x12d-0x12d.7 (1)
0x120|                                          00   |              . |                    x: 0 0x12e-0x12e.7 (1)
     |                                               |                |                  [1]{}: in 0x12f-0x130.7 (2)
0x120|                                             fd|               .|                    prefix: 0xfd (valid) 0x12f-0x12f.7 (1)
0x130|12                                             |.               |                    i64x2.splat: 18 (valid) 0x130-0x130.7 (1)
     |                                               |                |                  [2]{}: in 0x131-0x132.7 (2)
0x130|   21                                          | !              |                    local.set: 0x21 (valid) 0x131-0x131.7 (1)
0x130|      01                                       |  .             |                    x: 1 0x132-0x132.7 (1)
     |                                               |                |                  [3]{}: in 0x133-0x134.7 (2)
0x130|         20                                    |                |                    local.get: 0x20 (valid) 0x133-0x133.7 (1)
0x130|            01                                 |    .           |                    x: 1 0x134-0x134.7 (1)
     |                                               |                |                  [4]{}: in 0x135-0x135.7 (1)
0x130|               0f                              |     .          |                    return: 0xf (valid) 0x135-0x135.7 (1)
     |                                               |                |                  [5]{}: in 0x136-0x136.7 (1)
0x130|                  0b                           |      .         |                    end: 0xb (valid) 0x136-0x136.7 (1)
     |                                               |                |            [7]{}: code 0x137-0x142.7 (12)
0x130|                     0b                        |       .        |              size: 11 0x137-0x137.7 (1)
     |                                               |                |              code{}: 0x138-0x142.7 (11)
     |                                               |                |                t{}: 0x138-0x138.7 (1)
0x130|                        00                     |        .       |                  n: 0 0x138-0x138.7 (1)
     |                                               |                |                  x[0:0]: 0x139-NA (0)
     |                                               |                |                e[0:6]: 0x139-0x142.7 (10)
     |                                               |                |                  [0]{}: in 0x139-0x13a.7 (2)
0x130|                           20                  |                |                    local.get: 0x20 (valid) 0x139-0x139.7 (1)
0x130|                              00               |          .     |                    x: 0 0x13a-0x13a.7 (1)
     |                                               |                |                  [1]{}: in 0x13b-0x13c.7 (2)
0x130|                                 fd            |           .    |                    prefix: 0xfd (valid) 0x13b-0x13b.7 (1)
0x130|                                    14         |            .   |                    f64x2.splat: 20 (valid) 0x13c-0x13c.7 (1)
     |                                               |                |                  [2]{}: in 0x13d-0x13e.7 (2)
0x130|                                       24      |             $  |                    global.set: 0x24 (valid) 0x13d-0x13d.7 (1)
0x130|                                          00   |              . |                    x: 0 0x13e-0x13e.7 (1)
     |                                               |                |                  [3]{}: in 0x13f-0x140.7 (2)
0x130|                                             23|               #|                    global.get: 0x23 (valid) 0x13f-0x13f.7 (1)
0x140|00                                             |.               |                    x: 0 0x140-0x140.7 (1)
     |                                               |                |                  [4]{}: in 0x141-0x141.7 (1)
0x140|   0f                                          | .              |                    return: 0xf (valid) 0x141-0x141.7 (1)
     |                                               |                |                  [5]{}: in 0x142-0x142.7 (1)
0x140|      0b|                                      |  .|            |                    end: 0xb (valid) 0x142-0x142.7 (1)
