$ fq -d wasm dv simd_const-303.wasm
     |00 01 02 03 04 05 06 07 08 09 0a 0b 0c 0d 0e 0f|0123456789abcdef|.{}: simd_const-303.wasm (wasm) 0x0-0x176 (374)
0x000|00 61 73 6d                                    |.asm            |  magic: raw bits (valid) 0x0-0x4 (4)
0x000|            01 00 00 00                        |    ....        |  version: 1 0x4-0x8 (4)
     |                                               |                |  sections[0:6]: 0x8-0x176 (366)
     |                                               |                |    [0]{}: section 0x8-0x1f (23)
0x000|                        01                     |        .       |      id: "type_section" (1) 0x8-0x9 (1)
0x000|                           15                  |         .      |      size: 21 (valid) 0x9-0xa (1)
     |                                               |                |      content{}: 0xa-0x1f (21)
     |                                               |                |        ft{}: 0xa-0x1f (21)
0x000|                              04               |          .     |          n: 4 (valid) 0xa-0xb (1)
     |                                               |                |          x[0:4]: 0xb-0x1f (20)
     |                                               |                |            [0]{}: ft 0xb-0xf (4)
0x000|                                 60            |           `    |              tag: 0x60 (valid) 0xb-0xc (1)
     |                                               |                |              rt1{}: 0xc-0xe (2)
0x000|                                    01         |            .   |                n: 1 (valid) 0xc-0xd (1)
     |                                               |                |                x[0:1]: 0xd-0xe (1)
0x000|                                       7b      |             {  |                  [0]: "v128" (0x7b) t 0xd-0xe (1)
     |                                               |                |              rt2{}: 0xe-0xf (1)
0x000|                                          00   |              . |                n: 0 (valid) 0xe-0xf (1)
     |                                               |                |                x[0:0]: 0xf-0xf (0)
     |                                               |                |            [1]{}: ft 0xf-0x14 (5)
0x000|                                             60|               `|              tag: 0x60 (valid) 0xf-0x10 (1)
     |                                               |                |              rt1{}: 0x10-0x13 (3)
0x010|02                                             |.               |                n: 2 (valid) 0x10-0x11 (1)
     |                                               |                |                x[0:2]: 0x11-0x13 (2)
0x010|   7b                                          | {              |                  [0]: "v128" (0x7b) t 0x11-0x12 (1)
0x010|      7b                                       |  {             |                  [1]: "v128" (0x7b) t 0x12-0x13 (1)
     |                                               |                |              rt2{}: 0x13-0x14 (1)
0x010|         00                                    |   .            |                n: 0 (valid) 0x13-0x14 (1)
     |                                               |                |                x[0:0]: 0x14-0x14 (0)
     |                                               |                |            [2]{}: ft 0x14-0x1b (7)
0x010|            60                                 |    `           |              tag: 0x60 (valid) 0x14-0x15 (1)
     |                                               |                |              rt1{}: 0x15-0x1a (5)
0x010|               04                              |     .          |                n: 4 (valid) 0x15-0x16 (1)
     |                                               |                |                x[0:4]: 0x16-0x1a (4)
0x010|                  7b                           |      {         |                  [0]: "v128" (0x7b) t 0x16-0x17 (1)
0x010|                     7b                        |       {        |                  [1]: "v128" (0x7b) t 0x17-0x18 (1)
0x010|                        7b                     |        {       |                  [2]: "v128" (0x7b) t 0x18-0x19 (1)
0x010|                           7b                  |         {      |                  [3]: "v128" (0x7b) t 0x19-0x1a (1)
     |                                               |                |              rt2{}: 0x1a-0x1b (1)
0x010|                              00               |          .     |                n: 0 (valid) 0x1a-0x1b (1)
     |                                               |                |                x[0:0]: 0x1b-0x1b (0)
     |                                               |                |            [3]{}: ft 0x1b-0x1f (4)
0x010|                                 60            |           `    |              tag: 0x60 (valid) 0x1b-0x1c (1)
     |                                               |                |              rt1{}: 0x1c-0x1d (1)
0x010|                                    00         |            .   |                n: 0 (valid) 0x1c-0x1d (1)
     |                                               |                |                x[0:0]: 0x1d-0x1d (0)
     |                                               |                |              rt2{}: 0x1d-0x1f (2)
0x010|                                       01      |             .  |                n: 1 (valid) 0x1d-0x1e (1)
     |                                               |                |                x[0:1]: 0x1e-0x1f (1)
0x010|                                          7b   |              { |                  [0]: "v128" (0x7b) t 0x1e-0x1f (1)
     |                                               |                |    [1]{}: section 0x1f-0x29 (10)
0x010|                                             03|               .|      id: "function_section" (3) 0x1f-0x20 (1)
0x020|08                                             |.               |      size: 8 (valid) 0x20-0x21 (1)
     |                                               |                |      content{}: 0x21-0x29 (8)
     |                                               |                |        x{}: 0x21-0x29 (8)
0x020|   07                                          | .              |          n: 7 (valid) 0x21-0x22 (1)
     |                                               |                |          x[0:7]: 0x22-0x29 (7)
0x020|      00                                       |  .             |            [0]: 0 x (valid) 0x22-0x23 (1)
0x020|         01                                    |   .            |            [1]: 1 x (valid) 0x23-0x24 (1)
0x020|            02                                 |    .           |            [2]: 2 x (valid) 0x24-0x25 (1)
0x020|               03                              |     .          |            [3]: 3 x (valid) 0x25-0x26 (1)
0x020|                  03                           |      .         |            [4]: 3 x (valid) 0x26-0x27 (1)
0x020|                     03                        |       .        |            [5]: 3 x (valid) 0x27-0x28 (1)
0x020|                        03                     |        .       |            [6]: 3 x (valid) 0x28-0x29 (1)
     |                                               |                |    [2]{}: section 0x29-0x2e (5)
0x020|                           05                  |         .      |      id: "memory_section" (5) 0x29-0x2a (1)
0x020|                              03               |          .     |      size: 3 (valid) 0x2a-0x2b (1)
     |                                               |                |      content{}: 0x2b-0x2e (3)
     |                                               |                |        mem{}: 0x2b-0x2e (3)
0x020|                                 01            |           .    |          n: 1 (valid) 0x2b-0x2c (1)
     |                                               |                |          x[0:1]: 0x2c-0x2e (2)
     |                                               |                |            [0]{}: mem 0x2c-0x2e (2)
     |                                               |                |              lim{}: 0x2c-0x2e (2)
0x020|                                    00         |            .   |                tag: 0x0 0x2c-0x2d (1)
0x020|                                       01      |             .  |                n: 1 (valid) 0x2d-0x2e (1)
     |                                               |                |    [3]{}: section 0x2e-0x9a (108)
0x020|                                          06   |              . |      id: "global_section" (6) 0x2e-0x2f (1)
0x020|                                             6a|               j|      size: 106 (valid) 0x2f-0x30 (1)
     |                                               |                |      content{}: 0x30-0x9a (106)
     |                                               |                |        glob{}: 0x30-0x9a (106)
0x030|05                                             |.               |          n: 5 (valid) 0x30-0x31 (1)
     |                                               |                |          x[0:5]: 0x31-0x9a (105)
     |                                               |                |            [0]{}: glob 0x31-0x46 (21)
     |                                               |                |              gt{}: 0x31-0x33 (2)
0x030|   7b                                          | {              |                t: "v128" (0x7b) 0x31-0x32 (1)
0x030|      01                                       |  .             |                m: "var" (1) 0x32-0x33 (1)
     |                                               |                |              e[0:2]: 0x33-0x46 (19)
     |                                               |                |                [0]{}: in 0x33-0x45 (18)
0x030|         fd                                    |   .            |                  opcode: "vector" (0xfd) 0x33-0x34 (1)
0x030|            0c                                 |    .           |                  v_opcode: "v128.const" (12) 0x34-0x35 (1)
0x030|               00 00 00 00 01 00 00 00 02 00 00|     ...........|                  bytes: raw bits 0x35-0x45 (16)
0x040|00 03 00 00 00                                 |.....           |
     |                                               |                |                [1]{}: in 0x45-0x46 (1)
0x040|               0b                              |     .          |                  opcode: "end" (0xb) 0x45-0x46 (1)
     |                                               |                |            [1]{}: glob 0x46-0x5b (21)
     |                                               |                |              gt{}: 0x46-0x48 (2)
0x040|                  7b                           |      {         |                t: "v128" (0x7b) 0x46-0x47 (1)
0x040|                     01                        |       .        |                m: "var" (1) 0x47-0x48 (1)
     |                                               |                |              e[0:2]: 0x48-0x5b (19)
     |                                               |                |                [0]{}: in 0x48-0x5a (18)
0x040|                        fd                     |        .       |                  opcode: "vector" (0xfd) 0x48-0x49 (1)
0x040|                           0c                  |         .      |                  v_opcode: "v128.const" (12) 0x49-0x4a (1)
0x040|                              04 00 00 00 05 00|          ......|                  bytes: raw bits 0x4a-0x5a (16)
0x050|00 00 06 00 00 00 07 00 00 00                  |..........      |
     |                                               |                |                [1]{}: in 0x5a-0x5b (1)
0x050|                              0b               |          .     |                  opcode: "end" (0xb) 0x5a-0x5b (1)
     |                                               |                |            [2]{}: glob 0x5b-0x70 (21)
     |                                               |                |              gt{}: 0x5b-0x5d (2)
0x050|                                 7b            |           {    |                t: "v128" (0x7b) 0x5b-0x5c (1)
0x050|                                    01         |            .   |                m: "var" (1) 0x5c-0x5d (1)
     |                                               |                |              e[0:2]: 0x5d-0x70 (19)
     |                                               |                |                [0]{}: in 0x5d-0x6f (18)
0x050|                                       fd      |             .  |                  opcode: "vector" (0xfd) 0x5d-0x5e (1)
0x050|                                          0c   |              . |                  v_opcode: "v128.const" (12) 0x5e-0x5f (1)
0x050|                                             08|               .|                  bytes: raw bits 0x5f-0x6f (16)
0x060|00 00 00 09 00 00 00 0a 00 00 00 0b 00 00 00   |............... |
     |                                               |                |                [1]{}: in 0x6f-0x70 (1)
0x060|                                             0b|               .|                  opcode: "end" (0xb) 0x6f-0x70 (1)
     |                                               |                |            [3]{}: glob 0x70-0x85 (21)
     |                                               |                |              gt{}: 0x70-0x72 (2)
0x070|7b                                             |{               |                t: "v128" (0x7b) 0x70-0x71 (1)
0x070|   01                                          | .              |                m: "var" (1) 0x71-0x72 (1)
     |                                               |                |              e[0:2]: 0x72-0x85 (19)
     |                                               |                |                [0]{}: in 0x72-0x84 (18)
0x070|      fd                                       |  .             |                  opcode: "vector" (0xfd) 0x72-0x73 (1)
0x070|         0c                                    |   .            |                  v_opcode: "v128.const" (12) 0x73-0x74 (1)
0x070|            0c 00 00 00 0d 00 00 00 0e 00 00 00|    ............|                  bytes: raw bits 0x74-0x84 (16)
0x080|0f 00 00 00                                    |....            |
     |                                               |                |                [1]{}: in 0x84-0x85 (1)
0x080|            0b                                 |    .           |                  opcode: "end" (0xb) 0x84-0x85 (1)
     |                                               |                |            [4]{}: glob 0x85-0x9a (21)
     |                                               |                |              gt{}: 0x85-0x87 (2)
0x080|               7b                              |     {          |                t: "v128" (0x7b) 0x85-0x86 (1)
0x080|                  01                           |      .         |                m: "var" (1) 0x86-0x87 (1)
     |                                               |                |              e[0:2]: 0x87-0x9a (19)
     |                                               |                |                [0]{}: in 0x87-0x99 (18)
0x080|                     fd                        |       .        |                  opcode: "vector" (0xfd) 0x87-0x88 (1)
0x080|                        0c                     |        .       |                  v_opcode: "v128.const" (12) 0x88-0x89 (1)
0x080|                           10 00 00 00 11 00 00|         .......|                  bytes: raw bits 0x89-0x99 (16)
0x090|00 12 00 00 00 13 00 00 00                     |.........       |
     |                                               |                |                [1]{}: in 0x99-0x9a (1)
0x090|                           0b                  |         .      |                  opcode: "end" (0xb) 0x99-0x9a (1)
     |                                               |                |    [4]{}: section 0x9a-0x13c (162)
0x090|                              07               |          .     |      id: "export_section" (7) 0x9a-0x9b (1)
0x090|                                 9f 01         |           ..   |      size: 159 (valid) 0x9b-0x9d (2)
     |                                               |                |      content{}: 0x9d-0x13c (159)
     |                                               |                |        ex{}: 0x9d-0x13c (159)
0x090|                                       07      |             .  |          n: 7 (valid) 0x9d-0x9e (1)
     |                                               |                |          x[0:7]: 0x9e-0x13c (158)
     |                                               |                |            [0]{}: ex 0x9e-0xb8 (26)
     |                                               |                |              nm{}: 0x9e-0xb6 (24)
0x090|                                          17   |              . |                n: 23 (valid) 0x9e-0x9f (1)
0x090|                                             61|               a|                b: "as-global.set_value_$g0" 0x9f-0xb6 (23)
0x0a0|73 2d 67 6c 6f 62 61 6c 2e 73 65 74 5f 76 61 6c|s-global.set_val|
0x0b0|75 65 5f 24 67 30                              |ue_$g0          |
     |                                               |                |              d{}: 0xb6-0xb8 (2)
0x0b0|                  00                           |      .         |                tag: "funcidx" (0x0) 0xb6-0xb7 (1)
0x0b0|                     00                        |       .        |                x: 0 (valid) 0xb7-0xb8 (1)
     |                                               |                |            [1]{}: ex 0xb8-0xd6 (30)
     |                                               |                |              nm{}: 0xb8-0xd4 (28)
0x0b0|                        1b                     |        .       |                n: 27 (valid) 0xb8-0xb9 (1)
0x0b0|                           61 73 2d 67 6c 6f 62|         as-glob|                b: "as-global.set_value_$g1_$g2" 0xb9-0xd4 (27)
0x0c0|61 6c 2e 73 65 74 5f 76 61 6c 75 65 5f 24 67 31|al.set_value_$g1|
0x0d0|5f 24 67 32                                    |_$g2            |
     |                                               |                |              d{}: 0xd4-0xd6 (2)
0x0d0|            00                                 |    .           |                tag: "funcidx" (0x0) 0xd4-0xd5 (1)
0x0d0|               01                              |     .          |                x: 1 (valid) 0xd5-0xd6 (1)
     |                                               |                |            [2]{}: ex 0xd6-0xfc (38)
     |                                               |                |              nm{}: 0xd6-0xfa (36)
0x0d0|                  23                           |      #         |                n: 35 (valid) 0xd6-0xd7 (1)
0x0d0|                     61 73 2d 67 6c 6f 62 61 6c|       as-global|                b: "as-global.set_value_$g0_$g1_$g2_$g3" 0xd7-0xfa (35)
0x0e0|2e 73 65 74 5f 76 61 6c 75 65 5f 24 67 30 5f 24|.set_value_$g0_$|
0x0f0|67 31 5f 24 67 32 5f 24 67 33                  |g1_$g2_$g3      |
     |                                               |                |              d{}: 0xfa-0xfc (2)
0x0f0|                              00               |          .     |                tag: "funcidx" (0x0) 0xfa-0xfb (1)
0x0f0|                                 02            |           .    |                x: 2 (valid) 0xfb-0xfc (1)
     |                                               |                |            [3]{}: ex 0xfc-0x10c (16)
     |                                               |                |              nm{}: 0xfc-0x10a (14)
0x0f0|                                    0d         |            .   |                n: 13 (valid) 0xfc-0xfd (1)
0x0f0|                                       67 6c 6f|             glo|                b: "global.get_g0" 0xfd-0x10a (13)
0x100|62 61 6c 2e 67 65 74 5f 67 30                  |bal.get_g0      |
     |                                               |                |              d{}: 0x10a-0x10c (2)
0x100|                              00               |          .     |                tag: "funcidx" (0x0) 0x10a-0x10b (1)
0x100|                                 03            |           .    |                x: 3 (valid) 0x10b-0x10c (1)
     |                                               |                |            [4]{}: ex 0x10c-0x11c (16)
     |                                               |                |              nm{}: 0x10c-0x11a (14)
0x100|                                    0d         |            .   |                n: 13 (valid) 0x10c-0x10d (1)
0x100|                                       67 6c 6f|             glo|                b: "global.get_g1" 0x10d-0x11a (13)
0x110|62 61 6c 2e 67 65 74 5f 67 31                  |bal.get_g1      |
     |                                               |                |              d{}: 0x11a-0x11c (2)
0x110|                              00               |          .     |                tag: "funcidx" (0x0) 0x11a-0x11b (1)
0x110|                                 04            |           .    |                x: 4 (valid) 0x11b-0x11c (1)
     |                                               |                |            [5]{}: ex 0x11c-0x12c (16)
     |                                               |                |              nm{}: 0x11c-0x12a (14)
0x110|                                    0d         |            .   |                n: 13 (valid) 0x11c-0x11d (1)
0x110|                                       67 6c 6f|             glo|                b: "global.get_g2" 0x11d-0x12a (13)
0x120|62 61 6c 2e 67 65 74 5f 67 32                  |bal.get_g2      |
     |                                               |                |              d{}: 0x12a-0x12c (2)
0x120|                              00               |          .     |                tag: "funcidx" (0x0) 0x12a-0x12b (1)
0x120|                                 05            |           .    |                x: 5 (valid) 0x12b-0x12c (1)
     |                                               |                |            [6]{}: ex 0x12c-0x13c (16)
     |                                               |                |              nm{}: 0x12c-0x13a (14)
0x120|                                    0d         |            .   |                n: 13 (valid) 0x12c-0x12d (1)
0x120|                                       67 6c 6f|             glo|                b: "global.get_g3" 0x12d-0x13a (13)
0x130|62 61 6c 2e 67 65 74 5f 67 33                  |bal.get_g3      |
     |                                               |                |              d{}: 0x13a-0x13c (2)
0x130|                              00               |          .     |                tag: "funcidx" (0x0) 0x13a-0x13b (1)
0x130|                                 06            |           .    |                x: 6 (valid) 0x13b-0x13c (1)
     |                                               |                |    [5]{}: section 0x13c-0x176 (58)
0x130|                                    0a         |            .   |      id: "code_section" (10) 0x13c-0x13d (1)
0x130|                                       38      |             8  |      size: 56 (valid) 0x13d-0x13e (1)
     |                                               |                |      content{}: 0x13e-0x176 (56)
     |                                               |                |        code{}: 0x13e-0x176 (56)
0x130|                                          07   |              . |          n: 7 (valid) 0x13e-0x13f (1)
     |                                               |                |          x[0:7]: 0x13f-0x176 (55)
     |                                               |                |            [0]{}: code 0x13f-0x146 (7)
0x130|                                             06|               .|              size: 6 (valid) 0x13f-0x140 (1)
     |                                               |                |              code{}: 0x140-0x146 (6)
     |                                               |                |                t{}: 0x140-0x141 (1)
0x140|00                                             |.               |                  n: 0 (valid) 0x140-0x141 (1)
     |                                               |                |                  x[0:0]: 0x141-0x141 (0)
     |                                               |                |                e[0:3]: 0x141-0x146 (5)
     |                                               |                |                  [0]{}: in 0x141-0x143 (2)
0x140|   20                                          |                |                    opcode: "local.get" (0x20) 0x141-0x142 (1)
0x140|      00                                       |  .             |                    x: 0 (valid) 0x142-0x143 (1)
     |                                               |                |                  [1]{}: in 0x143-0x145 (2)
0x140|         24                                    |   $            |                    opcode: "global.set" (0x24) 0x143-0x144 (1)
0x140|            00                                 |    .           |                    x: 0 (valid) 0x144-0x145 (1)
     |                                               |                |                  [2]{}: in 0x145-0x146 (1)
0x140|               0b                              |     .          |                    opcode: "end" (0xb) 0x145-0x146 (1)
     |                                               |                |            [1]{}: code 0x146-0x151 (11)
0x140|                  0a                           |      .         |              size: 10 (valid) 0x146-0x147 (1)
     |                                               |                |              code{}: 0x147-0x151 (10)
     |                                               |                |                t{}: 0x147-0x148 (1)
0x140|                     00                        |       .        |                  n: 0 (valid) 0x147-0x148 (1)
     |                                               |                |                  x[0:0]: 0x148-0x148 (0)
     |                                               |                |                e[0:5]: 0x148-0x151 (9)
     |                                               |                |                  [0]{}: in 0x148-0x14a (2)
0x140|                        20                     |                |                    opcode: "local.get" (0x20) 0x148-0x149 (1)
0x140|                           00                  |         .      |                    x: 0 (valid) 0x149-0x14a (1)
     |                                               |                |                  [1]{}: in 0x14a-0x14c (2)
0x140|                              24               |          $     |                    opcode: "global.set" (0x24) 0x14a-0x14b (1)
0x140|                                 01            |           .    |                    x: 1 (valid) 0x14b-0x14c (1)
     |                                               |                |                  [2]{}: in 0x14c-0x14e (2)
0x140|                                    20         |                |                    opcode: "local.get" (0x20) 0x14c-0x14d (1)
0x140|                                       01      |             .  |                    x: 1 (valid) 0x14d-0x14e (1)
     |                                               |                |                  [3]{}: in 0x14e-0x150 (2)
0x140|                                          24   |              $ |                    opcode: "global.set" (0x24) 0x14e-0x14f (1)
0x140|                                             02|               .|                    x: 2 (valid) 0x14f-0x150 (1)
     |                                               |                |                  [4]{}: in 0x150-0x151 (1)
0x150|0b                                             |.               |                    opcode: "end" (0xb) 0x150-0x151 (1)
     |                                               |                |            [2]{}: code 0x151-0x162 (17)
0x150|   10                                          | .              |              size: 16 (valid) 0x151-0x152 (1)
     |                                               |                |              code{}: 0x152-0x162 (16)
     |                                               |                |                t{}: 0x152-0x153 (1)
0x150|      00                                       |  .             |                  n: 0 (valid) 0x152-0x153 (1)
     |                                               |                |                  x[0:0]: 0x153-0x153 (0)
     |                                               |                |                e[0:8]: 0x153-0x162 (15)
     |                                               |                |                  [0]{}: in 0x153-0x155 (2)
0x150|         20                                    |                |                    opcode: "local.get" (0x20) 0x153-0x154 (1)
0x150|            00                                 |    .           |                    x: 0 (valid) 0x154-0x155 (1)
     |                                               |                |                  [1]{}: in 0x155-0x157 (2)
0x150|               10                              |     .          |                    opcode: "call" (0x10) 0x155-0x156 (1)
0x150|                  00                           |      .         |                    x: 0 (valid) 0x156-0x157 (1)
     |                                               |                |                  [2]{}: in 0x157-0x159 (2)
0x150|                     20                        |                |                    opcode: "local.get" (0x20) 0x157-0x158 (1)
0x150|                        01                     |        .       |                    x: 1 (valid) 0x158-0x159 (1)
     |                                               |                |                  [3]{}: in 0x159-0x15b (2)
0x150|                           20                  |                |                    opcode: "local.get" (0x20) 0x159-0x15a (1)
0x150|                              02               |          .     |                    x: 2 (valid) 0x15a-0x15b (1)
     |                                               |                |                  [4]{}: in 0x15b-0x15d (2)
0x150|                                 10            |           .    |                    opcode: "call" (0x10) 0x15b-0x15c (1)
0x150|                                    01         |            .   |                    x: 1 (valid) 0x15c-0x15d (1)
     |                                               |                |                  [5]{}: in 0x15d-0x15f (2)
0x150|                                       20      |                |                    opcode: "local.get" (0x20) 0x15d-0x15e (1)
0x150|                                          03   |              . |                    x: 3 (valid) 0x15e-0x15f (1)
     |                                               |                |                  [6]{}: in 0x15f-0x161 (2)
0x150|                                             24|               $|                    opcode: "global.set" (0x24) 0x15f-0x160 (1)
0x160|03                                             |.               |                    x: 3 (valid) 0x160-0x161 (1)
     |                                               |                |                  [7]{}: in 0x161-0x162 (1)
0x160|   0b                                          | .              |                    opcode: "end" (0xb) 0x161-0x162 (1)
     |                                               |                |            [3]{}: code 0x162-0x167 (5)
0x160|      04                                       |  .             |              size: 4 (valid) 0x162-0x163 (1)
     |                                               |                |              code{}: 0x163-0x167 (4)
     |                                               |                |                t{}: 0x163-0x164 (1)
0x160|         00                                    |   .            |                  n: 0 (valid) 0x163-0x164 (1)
     |                                               |                |                  x[0:0]: 0x164-0x164 (0)
     |                                               |                |                e[0:2]: 0x164-0x167 (3)
     |                                               |                |                  [0]{}: in 0x164-0x166 (2)
0x160|            23                                 |    #           |                    opcode: "global.get" (0x23) 0x164-0x165 (1)
0x160|               00                              |     .          |                    x: 0 (valid) 0x165-0x166 (1)
     |                                               |                |                  [1]{}: in 0x166-0x167 (1)
0x160|                  0b                           |      .         |                    opcode: "end" (0xb) 0x166-0x167 (1)
     |                                               |                |            [4]{}: code 0x167-0x16c (5)
0x160|                     04                        |       .        |              size: 4 (valid) 0x167-0x168 (1)
     |                                               |                |              code{}: 0x168-0x16c (4)
     |                                               |                |                t{}: 0x168-0x169 (1)
0x160|                        00                     |        .       |                  n: 0 (valid) 0x168-0x169 (1)
     |                                               |                |                  x[0:0]: 0x169-0x169 (0)
     |                                               |                |                e[0:2]: 0x169-0x16c (3)
     |                                               |                |                  [0]{}: in 0x169-0x16b (2)
0x160|                           23                  |         #      |                    opcode: "global.get" (0x23) 0x169-0x16a (1)
0x160|                              01               |          .     |                    x: 1 (valid) 0x16a-0x16b (1)
     |                                               |                |                  [1]{}: in 0x16b-0x16c (1)
0x160|                                 0b            |           .    |                    opcode: "end" (0xb) 0x16b-0x16c (1)
     |                                               |                |            [5]{}: code 0x16c-0x171 (5)
0x160|                                    04         |            .   |              size: 4 (valid) 0x16c-0x16d (1)
     |                                               |                |              code{}: 0x16d-0x171 (4)
     |                                               |                |                t{}: 0x16d-0x16e (1)
0x160|                                       00      |             .  |                  n: 0 (valid) 0x16d-0x16e (1)
     |                                               |                |                  x[0:0]: 0x16e-0x16e (0)
     |                                               |                |                e[0:2]: 0x16e-0x171 (3)
     |                                               |                |                  [0]{}: in 0x16e-0x170 (2)
0x160|                                          23   |              # |                    opcode: "global.get" (0x23) 0x16e-0x16f (1)
0x160|                                             02|               .|                    x: 2 (valid) 0x16f-0x170 (1)
     |                                               |                |                  [1]{}: in 0x170-0x171 (1)
0x170|0b                                             |.               |                    opcode: "end" (0xb) 0x170-0x171 (1)
     |                                               |                |            [6]{}: code 0x171-0x176 (5)
0x170|   04                                          | .              |              size: 4 (valid) 0x171-0x172 (1)
     |                                               |                |              code{}: 0x172-0x176 (4)
     |                                               |                |                t{}: 0x172-0x173 (1)
0x170|      00                                       |  .             |                  n: 0 (valid) 0x172-0x173 (1)
     |                                               |                |                  x[0:0]: 0x173-0x173 (0)
     |                                               |                |                e[0:2]: 0x173-0x176 (3)
     |                                               |                |                  [0]{}: in 0x173-0x175 (2)
0x170|         23                                    |   #            |                    opcode: "global.get" (0x23) 0x173-0x174 (1)
0x170|            03                                 |    .           |                    x: 3 (valid) 0x174-0x175 (1)
     |                                               |                |                  [1]{}: in 0x175-0x176 (1)
0x170|               0b|                             |     .|         |                    opcode: "end" (0xb) 0x175-0x176 (1)
