$ fq -d wasm dv simd_bit_shift-1.wasm
     |00 01 02 03 04 05 06 07 08 09 0a 0b 0c 0d 0e 0f|0123456789abcdef|.{}: simd_bit_shift-1.wasm (wasm) 0x0-0x476 (1142)
0x000|00 61 73 6d                                    |.asm            |  magic: raw bits (valid) 0x0-0x4 (4)
0x000|            01 00 00 00                        |    ....        |  version: 1 0x4-0x8 (4)
     |                                               |                |  sections[0:5]: 0x8-0x476 (1134)
     |                                               |                |    [0]{}: section 0x8-0xe (6)
0x000|                        01                     |        .       |      id: "type_section" (1) 0x8-0x9 (1)
0x000|                           04                  |         .      |      size: 4 (valid) 0x9-0xa (1)
     |                                               |                |      content{}: 0xa-0xe (4)
     |                                               |                |        ft{}: 0xa-0xe (4)
0x000|                              01               |          .     |          n: 1 (valid) 0xa-0xb (1)
     |                                               |                |          x[0:1]: 0xb-0xe (3)
     |                                               |                |            [0]{}: ft 0xb-0xe (3)
0x000|                                 60            |           `    |              tag: 0x60 (valid) 0xb-0xc (1)
     |                                               |                |              rt1{}: 0xc-0xd (1)
0x000|                                    00         |            .   |                n: 0 (valid) 0xc-0xd (1)
     |                                               |                |                x[0:0]: 0xd-0xd (0)
     |                                               |                |              rt2{}: 0xd-0xe (1)
0x000|                                       00      |             .  |                n: 0 (valid) 0xd-0xe (1)
     |                                               |                |                x[0:0]: 0xe-0xe (0)
     |                                               |                |    [1]{}: section 0xe-0x29 (27)
0x000|                                          03   |              . |      id: "function_section" (3) 0xe-0xf (1)
0x000|                                             19|               .|      size: 25 (valid) 0xf-0x10 (1)
     |                                               |                |      content{}: 0x10-0x29 (25)
     |                                               |                |        x{}: 0x10-0x29 (25)
0x010|18                                             |.               |          n: 24 (valid) 0x10-0x11 (1)
     |                                               |                |          x[0:24]: 0x11-0x29 (24)
0x010|   00                                          | .              |            [0]: 0 x (valid) 0x11-0x12 (1)
0x010|      00                                       |  .             |            [1]: 0 x (valid) 0x12-0x13 (1)
0x010|         00                                    |   .            |            [2]: 0 x (valid) 0x13-0x14 (1)
0x010|            00                                 |    .           |            [3]: 0 x (valid) 0x14-0x15 (1)
0x010|               00                              |     .          |            [4]: 0 x (valid) 0x15-0x16 (1)
0x010|                  00                           |      .         |            [5]: 0 x (valid) 0x16-0x17 (1)
0x010|                     00                        |       .        |            [6]: 0 x (valid) 0x17-0x18 (1)
0x010|                        00                     |        .       |            [7]: 0 x (valid) 0x18-0x19 (1)
0x010|                           00                  |         .      |            [8]: 0 x (valid) 0x19-0x1a (1)
0x010|                              00               |          .     |            [9]: 0 x (valid) 0x1a-0x1b (1)
0x010|                                 00            |           .    |            [10]: 0 x (valid) 0x1b-0x1c (1)
0x010|                                    00         |            .   |            [11]: 0 x (valid) 0x1c-0x1d (1)
0x010|                                       00      |             .  |            [12]: 0 x (valid) 0x1d-0x1e (1)
0x010|                                          00   |              . |            [13]: 0 x (valid) 0x1e-0x1f (1)
0x010|                                             00|               .|            [14]: 0 x (valid) 0x1f-0x20 (1)
0x020|00                                             |.               |            [15]: 0 x (valid) 0x20-0x21 (1)
0x020|   00                                          | .              |            [16]: 0 x (valid) 0x21-0x22 (1)
0x020|      00                                       |  .             |            [17]: 0 x (valid) 0x22-0x23 (1)
0x020|         00                                    |   .            |            [18]: 0 x (valid) 0x23-0x24 (1)
0x020|            00                                 |    .           |            [19]: 0 x (valid) 0x24-0x25 (1)
0x020|               00                              |     .          |            [20]: 0 x (valid) 0x25-0x26 (1)
0x020|                  00                           |      .         |            [21]: 0 x (valid) 0x26-0x27 (1)
0x020|                     00                        |       .        |            [22]: 0 x (valid) 0x27-0x28 (1)
0x020|                        00                     |        .       |            [23]: 0 x (valid) 0x28-0x29 (1)
     |                                               |                |    [2]{}: section 0x29-0x2e (5)
0x020|                           05                  |         .      |      id: "memory_section" (5) 0x29-0x2a (1)
0x020|                              03               |          .     |      size: 3 (valid) 0x2a-0x2b (1)
     |                                               |                |      content{}: 0x2b-0x2e (3)
     |                                               |                |        mem{}: 0x2b-0x2e (3)
0x020|                                 01            |           .    |          n: 1 (valid) 0x2b-0x2c (1)
     |                                               |                |          x[0:1]: 0x2c-0x2e (2)
     |                                               |                |            [0]{}: mem 0x2c-0x2e (2)
     |                                               |                |              lim{}: 0x2c-0x2e (2)
0x020|                                    00         |            .   |                tag: 0x0 0x2c-0x2d (1)
0x020|                                       01      |             .  |                n: 1 (valid) 0x2d-0x2e (1)
     |                                               |                |    [3]{}: section 0x2e-0x232 (516)
0x020|                                          07   |              . |      id: "export_section" (7) 0x2e-0x2f (1)
0x020|                                             81|               .|      size: 513 (valid) 0x2f-0x31 (2)
0x030|04                                             |.               |
     |                                               |                |      content{}: 0x31-0x232 (513)
     |                                               |                |        ex{}: 0x31-0x232 (513)
0x030|   18                                          | .              |          n: 24 (valid) 0x31-0x32 (1)
     |                                               |                |          x[0:24]: 0x32-0x232 (512)
     |                                               |                |            [0]{}: ex 0x32-0x47 (21)
     |                                               |                |              nm{}: 0x32-0x45 (19)
0x030|      12                                       |  .             |                n: 18 (valid) 0x32-0x33 (1)
0x030|         69 38 78 31 36 2e 73 68 6c 2d 69 6e 2d|   i8x16.shl-in-|                b: "i8x16.shl-in-block" 0x33-0x45 (18)
0x040|62 6c 6f 63 6b                                 |block           |
     |                                               |                |              d{}: 0x45-0x47 (2)
0x040|               00                              |     .          |                tag: "funcidx" (0x0) 0x45-0x46 (1)
0x040|                  00                           |      .         |                x: 0 (valid) 0x46-0x47 (1)
     |                                               |                |            [1]{}: ex 0x47-0x5e (23)
     |                                               |                |              nm{}: 0x47-0x5c (21)
0x040|                     14                        |       .        |                n: 20 (valid) 0x47-0x48 (1)
0x040|                        69 38 78 31 36 2e 73 68|        i8x16.sh|                b: "i8x16.shr_s-in-block" 0x48-0x5c (20)
0x050|72 5f 73 2d 69 6e 2d 62 6c 6f 63 6b            |r_s-in-block    |
     |                                               |                |              d{}: 0x5c-0x5e (2)
0x050|                                    00         |            .   |                tag: "funcidx" (0x0) 0x5c-0x5d (1)
0x050|                                       01      |             .  |                x: 1 (valid) 0x5d-0x5e (1)
     |                                               |                |            [2]{}: ex 0x5e-0x75 (23)
     |                                               |                |              nm{}: 0x5e-0x73 (21)
0x050|                                          14   |              . |                n: 20 (valid) 0x5e-0x5f (1)
0x050|                                             69|               i|                b: "i8x16.shr_u-in-block" 0x5f-0x73 (20)
0x060|38 78 31 36 2e 73 68 72 5f 75 2d 69 6e 2d 62 6c|8x16.shr_u-in-bl|
0x070|6f 63 6b                                       |ock             |
     |                                               |                |              d{}: 0x73-0x75 (2)
0x070|         00                                    |   .            |                tag: "funcidx" (0x0) 0x73-0x74 (1)
0x070|            02                                 |    .           |                x: 2 (valid) 0x74-0x75 (1)
     |                                               |                |            [3]{}: ex 0x75-0x8a (21)
     |                                               |                |              nm{}: 0x75-0x88 (19)
0x070|               12                              |     .          |                n: 18 (valid) 0x75-0x76 (1)
0x070|                  69 31 36 78 38 2e 73 68 6c 2d|      i16x8.shl-|                b: "i16x8.shl-in-block" 0x76-0x88 (18)
0x080|69 6e 2d 62 6c 6f 63 6b                        |in-block        |
     |                                               |                |              d{}: 0x88-0x8a (2)
0x080|                        00                     |        .       |                tag: "funcidx" (0x0) 0x88-0x89 (1)
0x080|                           03                  |         .      |                x: 3 (valid) 0x89-0x8a (1)
     |                                               |                |            [4]{}: ex 0x8a-0xa1 (23)
     |                                               |                |              nm{}: 0x8a-0x9f (21)
0x080|                              14               |          .     |                n: 20 (valid) 0x8a-0x8b (1)
0x080|                                 69 31 36 78 38|           i16x8|                b: "i16x8.shr_s-in-block" 0x8b-0x9f (20)
0x090|2e 73 68 72 5f 73 2d 69 6e 2d 62 6c 6f 63 6b   |.shr_s-in-block |
     |                                               |                |              d{}: 0x9f-0xa1 (2)
0x090|                                             00|               .|                tag: "funcidx" (0x0) 0x9f-0xa0 (1)
0x0a0|04                                             |.               |                x: 4 (valid) 0xa0-0xa1 (1)
     |                                               |                |            [5]{}: ex 0xa1-0xb8 (23)
     |                                               |                |              nm{}: 0xa1-0xb6 (21)
0x0a0|   14                                          | .              |                n: 20 (valid) 0xa1-0xa2 (1)
0x0a0|      69 31 36 78 38 2e 73 68 72 5f 75 2d 69 6e|  i16x8.shr_u-in|                b: "i16x8.shr_u-in-block" 0xa2-0xb6 (20)
0x0b0|2d 62 6c 6f 63 6b                              |-block          |
     |                                               |                |              d{}: 0xb6-0xb8 (2)
0x0b0|                  00                           |      .         |                tag: "funcidx" (0x0) 0xb6-0xb7 (1)
0x0b0|                     05                        |       .        |                x: 5 (valid) 0xb7-0xb8 (1)
     |                                               |                |            [6]{}: ex 0xb8-0xcd (21)
     |                                               |                |              nm{}: 0xb8-0xcb (19)
0x0b0|                        12                     |        .       |                n: 18 (valid) 0xb8-0xb9 (1)
0x0b0|                           69 33 32 78 34 2e 73|         i32x4.s|                b: "i32x4.shl-in-block" 0xb9-0xcb (18)
0x0c0|68 6c 2d 69 6e 2d 62 6c 6f 63 6b               |hl-in-block     |
     |                                               |                |              d{}: 0xcb-0xcd (2)
0x0c0|                                 00            |           .    |                tag: "funcidx" (0x0) 0xcb-0xcc (1)
0x0c0|                                    06         |            .   |                x: 6 (valid) 0xcc-0xcd (1)
     |                                               |                |            [7]{}: ex 0xcd-0xe4 (23)
     |                                               |                |              nm{}: 0xcd-0xe2 (21)
0x0c0|                                       14      |             .  |                n: 20 (valid) 0xcd-0xce (1)
0x0c0|                                          69 33|              i3|                b: "i32x4.shr_s-in-block" 0xce-0xe2 (20)
0x0d0|32 78 34 2e 73 68 72 5f 73 2d 69 6e 2d 62 6c 6f|2x4.shr_s-in-blo|
0x0e0|63 6b                                          |ck              |
     |                                               |                |              d{}: 0xe2-0xe4 (2)
0x0e0|      00                                       |  .             |                tag: "funcidx" (0x0) 0xe2-0xe3 (1)
0x0e0|         07                                    |   .            |                x: 7 (valid) 0xe3-0xe4 (1)
     |                                               |                |            [8]{}: ex 0xe4-0xfb (23)
     |                                               |                |              nm{}: 0xe4-0xf9 (21)
0x0e0|            14                                 |    .           |                n: 20 (valid) 0xe4-0xe5 (1)
0x0e0|               69 33 32 78 34 2e 73 68 72 5f 75|     i32x4.shr_u|                b: "i32x4.shr_u-in-block" 0xe5-0xf9 (20)
0x0f0|2d 69 6e 2d 62 6c 6f 63 6b                     |-in-block       |
     |                                               |                |              d{}: 0xf9-0xfb (2)
0x0f0|                           00                  |         .      |                tag: "funcidx" (0x0) 0xf9-0xfa (1)
0x0f0|                              08               |          .     |                x: 8 (valid) 0xfa-0xfb (1)
     |                                               |                |            [9]{}: ex 0xfb-0x110 (21)
     |                                               |                |              nm{}: 0xfb-0x10e (19)
0x0f0|                                 12            |           .    |                n: 18 (valid) 0xfb-0xfc (1)
0x0f0|                                    69 36 34 78|            i64x|                b: "i64x2.shl-in-block" 0xfc-0x10e (18)
0x100|32 2e 73 68 6c 2d 69 6e 2d 62 6c 6f 63 6b      |2.shl-in-block  |
     |                                               |                |              d{}: 0x10e-0x110 (2)
0x100|                                          00   |              . |                tag: "funcidx" (0x0) 0x10e-0x10f (1)
0x100|                                             09|               .|                x: 9 (valid) 0x10f-0x110 (1)
     |                                               |                |            [10]{}: ex 0x110-0x127 (23)
     |                                               |                |              nm{}: 0x110-0x125 (21)
0x110|14                                             |.               |                n: 20 (valid) 0x110-0x111 (1)
0x110|   69 36 34 78 32 2e 73 68 72 5f 73 2d 69 6e 2d| i64x2.shr_s-in-|                b: "i64x2.shr_s-in-block" 0x111-0x125 (20)
0x120|62 6c 6f 63 6b                                 |block           |
     |                                               |                |              d{}: 0x125-0x127 (2)
0x120|               00                              |     .          |                tag: "funcidx" (0x0) 0x125-0x126 (1)
0x120|                  0a                           |      .         |                x: 10 (valid) 0x126-0x127 (1)
     |                                               |                |            [11]{}: ex 0x127-0x13e (23)
     |                                               |                |              nm{}: 0x127-0x13c (21)
0x120|                     14                        |       .        |                n: 20 (valid) 0x127-0x128 (1)
0x120|                        69 36 34 78 32 2e 73 68|        i64x2.sh|                b: "i64x2.shr_u-in-block" 0x128-0x13c (20)
0x130|72 5f 75 2d 69 6e 2d 62 6c 6f 63 6b            |r_u-in-block    |
     |                                               |                |              d{}: 0x13c-0x13e (2)
0x130|                                    00         |            .   |                tag: "funcidx" (0x0) 0x13c-0x13d (1)
0x130|                                       0b      |             .  |                x: 11 (valid) 0x13d-0x13e (1)
     |                                               |                |            [12]{}: ex 0x13e-0x151 (19)
     |                                               |                |              nm{}: 0x13e-0x14f (17)
0x130|                                          10   |              . |                n: 16 (valid) 0x13e-0x13f (1)
0x130|                                             6e|               n|                b: "nested-i8x16.shl" 0x13f-0x14f (16)
0x140|65 73 74 65 64 2d 69 38 78 31 36 2e 73 68 6c   |ested-i8x16.shl |
     |                                               |                |              d{}: 0x14f-0x151 (2)
0x140|                                             00|               .|                tag: "funcidx" (0x0) 0x14f-0x150 (1)
0x150|0c                                             |.               |                x: 12 (valid) 0x150-0x151 (1)
     |                                               |                |            [13]{}: ex 0x151-0x166 (21)
     |                                               |                |              nm{}: 0x151-0x164 (19)
0x150|   12                                          | .              |                n: 18 (valid) 0x151-0x152 (1)
0x150|      6e 65 73 74 65 64 2d 69 38 78 31 36 2e 73|  nested-i8x16.s|                b: "nested-i8x16.shr_s" 0x152-0x164 (18)
0x160|68 72 5f 73                                    |hr_s            |
     |                                               |                |              d{}: 0x164-0x166 (2)
0x160|            00                                 |    .           |                tag: "funcidx" (0x0) 0x164-0x165 (1)
0x160|               0d                              |     .          |                x: 13 (valid) 0x165-0x166 (1)
     |                                               |                |            [14]{}: ex 0x166-0x17b (21)
     |                                               |                |              nm{}: 0x166-0x179 (19)
0x160|                  12                           |      .         |                n: 18 (valid) 0x166-0x167 (1)
0x160|                     6e 65 73 74 65 64 2d 69 38|       nested-i8|                b: "nested-i8x16.shr_u" 0x167-0x179 (18)
0x170|78 31 36 2e 73 68 72 5f 75                     |x16.shr_u       |
     |                                               |                |              d{}: 0x179-0x17b (2)
0x170|                           00                  |         .      |                tag: "funcidx" (0x0) 0x179-0x17a (1)
0x170|                              0e               |          .     |                x: 14 (valid) 0x17a-0x17b (1)
     |                                               |                |            [15]{}: ex 0x17b-0x18e (19)
     |                                               |                |              nm{}: 0x17b-0x18c (17)
0x170|                                 10            |           .    |                n: 16 (valid) 0x17b-0x17c (1)
0x170|                                    6e 65 73 74|            nest|                b: "nested-i16x8.shl" 0x17c-0x18c (16)
0x180|65 64 2d 69 31 36 78 38 2e 73 68 6c            |ed-i16x8.shl    |
     |                                               |                |              d{}: 0x18c-0x18e (2)
0x180|                                    00         |            .   |                tag: "funcidx" (0x0) 0x18c-0x18d (1)
0x180|                                       0f      |             .  |                x: 15 (valid) 0x18d-0x18e (1)
     |                                               |                |            [16]{}: ex 0x18e-0x1a3 (21)
     |                                               |                |              nm{}: 0x18e-0x1a1 (19)
0x180|                                          12   |              . |                n: 18 (valid) 0x18e-0x18f (1)
0x180|                                             6e|               n|                b: "nested-i16x8.shr_s" 0x18f-0x1a1 (18)
0x190|65 73 74 65 64 2d 69 31 36 78 38 2e 73 68 72 5f|ested-i16x8.shr_|
0x1a0|73                                             |s               |
     |                                               |                |              d{}: 0x1a1-0x1a3 (2)
0x1a0|   00                                          | .              |                tag: "funcidx" (0x0) 0x1a1-0x1a2 (1)
0x1a0|      10                                       |  .             |                x: 16 (valid) 0x1a2-0x1a3 (1)
     |                                               |                |            [17]{}: ex 0x1a3-0x1b8 (21)
     |                                               |                |              nm{}: 0x1a3-0x1b6 (19)
0x1a0|         12                                    |   .            |                n: 18 (valid) 0x1a3-0x1a4 (1)
0x1a0|            6e 65 73 74 65 64 2d 69 31 36 78 38|    nested-i16x8|                b: "nested-i16x8.shr_u" 0x1a4-0x1b6 (18)
0x1b0|2e 73 68 72 5f 75                              |.shr_u          |
     |                                               |                |              d{}: 0x1b6-0x1b8 (2)
0x1b0|                  00                           |      .         |                tag: "funcidx" (0x0) 0x1b6-0x1b7 (1)
0x1b0|                     11                        |       .        |                x: 17 (valid) 0x1b7-0x1b8 (1)
     |                                               |                |            [18]{}: ex 0x1b8-0x1cb (19)
     |                                               |                |              nm{}: 0x1b8-0x1c9 (17)
0x1b0|                        10                     |        .       |                n: 16 (valid) 0x1b8-0x1b9 (1)
0x1b0|                           6e 65 73 74 65 64 2d|         nested-|                b: "nested-i32x4.shl" 0x1b9-0x1c9 (16)
0x1c0|69 33 32 78 34 2e 73 68 6c                     |i32x4.shl       |
     |                                               |                |              d{}: 0x1c9-0x1cb (2)
0x1c0|                           00                  |         .      |                tag: "funcidx" (0x0) 0x1c9-0x1ca (1)
0x1c0|                              12               |          .     |                x: 18 (valid) 0x1ca-0x1cb (1)
     |                                               |                |            [19]{}: ex 0x1cb-0x1e0 (21)
     |                                               |                |              nm{}: 0x1cb-0x1de (19)
0x1c0|                                 12            |           .    |                n: 18 (valid) 0x1cb-0x1cc (1)
0x1c0|                                    6e 65 73 74|            nest|                b: "nested-i32x4.shr_s" 0x1cc-0x1de (18)
0x1d0|65 64 2d 69 33 32 78 34 2e 73 68 72 5f 73      |ed-i32x4.shr_s  |
     |                                               |                |              d{}: 0x1de-0x1e0 (2)
0x1d0|                                          00   |              . |                tag: "funcidx" (0x0) 0x1de-0x1df (1)
0x1d0|                                             13|               .|                x: 19 (valid) 0x1df-0x1e0 (1)
     |                                               |                |            [20]{}: ex 0x1e0-0x1f5 (21)
     |                                               |                |              nm{}: 0x1e0-0x1f3 (19)
0x1e0|12                                             |.               |                n: 18 (valid) 0x1e0-0x1e1 (1)
0x1e0|   6e 65 73 74 65 64 2d 69 33 32 78 34 2e 73 68| nested-i32x4.sh|                b: "nested-i32x4.shr_u" 0x1e1-0x1f3 (18)
0x1f0|72 5f 75                                       |r_u             |
     |                                               |                |              d{}: 0x1f3-0x1f5 (2)
0x1f0|         00                                    |   .            |                tag: "funcidx" (0x0) 0x1f3-0x1f4 (1)
0x1f0|            14                                 |    .           |                x: 20 (valid) 0x1f4-0x1f5 (1)
     |                                               |                |            [21]{}: ex 0x1f5-0x208 (19)
     |                                               |                |              nm{}: 0x1f5-0x206 (17)
0x1f0|               10                              |     .          |                n: 16 (valid) 0x1f5-0x1f6 (1)
0x1f0|                  6e 65 73 74 65 64 2d 69 36 34|      nested-i64|                b: "nested-i64x2.shl" 0x1f6-0x206 (16)
0x200|78 32 2e 73 68 6c                              |x2.shl          |
     |                                               |                |              d{}: 0x206-0x208 (2)
0x200|                  00                           |      .         |                tag: "funcidx" (0x0) 0x206-0x207 (1)
0x200|                     15                        |       .        |                x: 21 (valid) 0x207-0x208 (1)
     |                                               |                |            [22]{}: ex 0x208-0x21d (21)
     |                                               |                |              nm{}: 0x208-0x21b (19)
0x200|                        12                     |        .       |                n: 18 (valid) 0x208-0x209 (1)
0x200|                           6e 65 73 74 65 64 2d|         nested-|                b: "nested-i64x2.shr_s" 0x209-0x21b (18)
0x210|69 36 34 78 32 2e 73 68 72 5f 73               |i64x2.shr_s     |
     |                                               |                |              d{}: 0x21b-0x21d (2)
0x210|                                 00            |           .    |                tag: "funcidx" (0x0) 0x21b-0x21c (1)
0x210|                                    16         |            .   |                x: 22 (valid) 0x21c-0x21d (1)
     |                                               |                |            [23]{}: ex 0x21d-0x232 (21)
     |                                               |                |              nm{}: 0x21d-0x230 (19)
0x210|                                       12      |             .  |                n: 18 (valid) 0x21d-0x21e (1)
0x210|                                          6e 65|              ne|                b: "nested-i64x2.shr_u" 0x21e-0x230 (18)
0x220|73 74 65 64 2d 69 36 34 78 32 2e 73 68 72 5f 75|sted-i64x2.shr_u|
     |                                               |                |              d{}: 0x230-0x232 (2)
0x230|00                                             |.               |                tag: "funcidx" (0x0) 0x230-0x231 (1)
0x230|   17                                          | .              |                x: 23 (valid) 0x231-0x232 (1)
     |                                               |                |    [4]{}: section 0x232-0x476 (580)
0x230|      0a                                       |  .             |      id: "code_section" (10) 0x232-0x233 (1)
0x230|         c1 04                                 |   ..           |      size: 577 (valid) 0x233-0x235 (2)
     |                                               |                |      content{}: 0x235-0x476 (577)
     |                                               |                |        code{}: 0x235-0x476 (577)
0x230|               18                              |     .          |          n: 24 (valid) 0x235-0x236 (1)
     |                                               |                |          x[0:24]: 0x236-0x476 (576)
     |                                               |                |            [0]{}: code 0x236-0x24d (23)
0x230|                  16                           |      .         |              size: 22 (valid) 0x236-0x237 (1)
     |                                               |                |              code{}: 0x237-0x24d (22)
     |                                               |                |                t{}: 0x237-0x238 (1)
0x230|                     00                        |       .        |                  n: 0 (valid) 0x237-0x238 (1)
     |                                               |                |                  x[0:0]: 0x238-0x238 (0)
     |                                               |                |                e[0:2]: 0x238-0x24d (21)
     |                                               |                |                  [0]{}: in 0x238-0x24c (20)
0x230|                        02                     |        .       |                    opcode: "block" (0x2) 0x238-0x239 (1)
0x230|                           40                  |         @      |                    bt: "ε" (64) 0x239-0x23a (1)
     |                                               |                |                    instructions[0:2]: 0x23a-0x24b (17)
     |                                               |                |                      [0]{}: instr 0x23a-0x24a (16)
0x230|                              02               |          .     |                        opcode: "block" (0x2) 0x23a-0x23b (1)
0x230|                                 7b            |           {    |                        bt: "v128" (123) 0x23b-0x23c (1)
     |                                               |                |                        instructions[0:3]: 0x23c-0x249 (13)
     |                                               |                |                          [0]{}: instr 0x23c-0x245 (9)
0x230|                                    02         |            .   |                            opcode: "block" (0x2) 0x23c-0x23d (1)
0x230|                                       7b      |             {  |                            bt: "v128" (123) 0x23d-0x23e (1)
     |                                               |                |                            instructions[0:2]: 0x23e-0x244 (6)
     |                                               |                |                              [0]{}: instr 0x23e-0x240 (2)
0x230|                                          41   |              A |                                opcode: "i32.const" (0x41) 0x23e-0x23f (1)
0x230|                                             00|               .|                                n: 0 (valid) 0x23f-0x240 (1)
     |                                               |                |                              [1]{}: instr 0x240-0x244 (4)
0x240|fd                                             |.               |                                opcode: "vector" (0xfd) 0x240-0x241 (1)
0x240|   00                                          | .              |                                v_opcode: "v128.load" (0) 0x241-0x242 (1)
     |                                               |                |                                m{}: 0x242-0x244 (2)
0x240|      04                                       |  .             |                                  a: 4 (valid) 0x242-0x243 (1)
0x240|         00                                    |   .            |                                  o: 0 (valid) 0x243-0x244 (1)
0x240|            0b                                 |    .           |                            end: 0xb (valid) 0x244-0x245 (1)
     |                                               |                |                          [1]{}: instr 0x245-0x247 (2)
0x240|               41                              |     A          |                            opcode: "i32.const" (0x41) 0x245-0x246 (1)
0x240|                  01                           |      .         |                            n: 1 (valid) 0x246-0x247 (1)
     |                                               |                |                          [2]{}: instr 0x247-0x249 (2)
0x240|                     fd                        |       .        |                            opcode: "vector" (0xfd) 0x247-0x248 (1)
0x240|                        6b                     |        k       |                            v_opcode: "i8x16.shl" (107) 0x248-0x249 (1)
0x240|                           0b                  |         .      |                        end: 0xb (valid) 0x249-0x24a (1)
     |                                               |                |                      [1]{}: instr 0x24a-0x24b (1)
0x240|                              1a               |          .     |                        opcode: "drop" (0x1a) 0x24a-0x24b (1)
0x240|                                 0b            |           .    |                    end: 0xb (valid) 0x24b-0x24c (1)
     |                                               |                |                  [1]{}: in 0x24c-0x24d (1)
0x240|                                    0b         |            .   |                    opcode: "end" (0xb) 0x24c-0x24d (1)
     |                                               |                |            [1]{}: code 0x24d-0x264 (23)
0x240|                                       16      |             .  |              size: 22 (valid) 0x24d-0x24e (1)
     |                                               |                |              code{}: 0x24e-0x264 (22)
     |                                               |                |                t{}: 0x24e-0x24f (1)
0x240|                                          00   |              . |                  n: 0 (valid) 0x24e-0x24f (1)
     |                                               |                |                  x[0:0]: 0x24f-0x24f (0)
     |                                               |                |                e[0:2]: 0x24f-0x264 (21)
     |                                               |                |                  [0]{}: in 0x24f-0x263 (20)
0x240|                                             02|               .|                    opcode: "block" (0x2) 0x24f-0x250 (1)
0x250|40                                             |@               |                    bt: "ε" (64) 0x250-0x251 (1)
     |                                               |                |                    instructions[0:2]: 0x251-0x262 (17)
     |                                               |                |                      [0]{}: instr 0x251-0x261 (16)
0x250|   02                                          | .              |                        opcode: "block" (0x2) 0x251-0x252 (1)
0x250|      7b                                       |  {             |                        bt: "v128" (123) 0x252-0x253 (1)
     |                                               |                |                        instructions[0:3]: 0x253-0x260 (13)
     |                                               |                |                          [0]{}: instr 0x253-0x25c (9)
0x250|         02                                    |   .            |                            opcode: "block" (0x2) 0x253-0x254 (1)
0x250|            7b                                 |    {           |                            bt: "v128" (123) 0x254-0x255 (1)
     |                                               |                |                            instructions[0:2]: 0x255-0x25b (6)
     |                                               |                |                              [0]{}: instr 0x255-0x257 (2)
0x250|               41                              |     A          |                                opcode: "i32.const" (0x41) 0x255-0x256 (1)
0x250|                  00                           |      .         |                                n: 0 (valid) 0x256-0x257 (1)
     |                                               |                |                              [1]{}: instr 0x257-0x25b (4)
0x250|                     fd                        |       .        |                                opcode: "vector" (0xfd) 0x257-0x258 (1)
0x250|                        00                     |        .       |                                v_opcode: "v128.load" (0) 0x258-0x259 (1)
     |                                               |                |                                m{}: 0x259-0x25b (2)
0x250|                           04                  |         .      |                                  a: 4 (valid) 0x259-0x25a (1)
0x250|                              00               |          .     |                                  o: 0 (valid) 0x25a-0x25b (1)
0x250|                                 0b            |           .    |                            end: 0xb (valid) 0x25b-0x25c (1)
     |                                               |                |                          [1]{}: instr 0x25c-0x25e (2)
0x250|                                    41         |            A   |                            opcode: "i32.const" (0x41) 0x25c-0x25d (1)
0x250|                                       01      |             .  |                            n: 1 (valid) 0x25d-0x25e (1)
     |                                               |                |                          [2]{}: instr 0x25e-0x260 (2)
0x250|                                          fd   |              . |                            opcode: "vector" (0xfd) 0x25e-0x25f (1)
0x250|                                             6c|               l|                            v_opcode: "i8x16.shr_s" (108) 0x25f-0x260 (1)
0x260|0b                                             |.               |                        end: 0xb (valid) 0x260-0x261 (1)
     |                                               |                |                      [1]{}: instr 0x261-0x262 (1)
0x260|   1a                                          | .              |                        opcode: "drop" (0x1a) 0x261-0x262 (1)
0x260|      0b                                       |  .             |                    end: 0xb (valid) 0x262-0x263 (1)
     |                                               |                |                  [1]{}: in 0x263-0x264 (1)
0x260|         0b                                    |   .            |                    opcode: "end" (0xb) 0x263-0x264 (1)
     |                                               |                |            [2]{}: code 0x264-0x27b (23)
0x260|            16                                 |    .           |              size: 22 (valid) 0x264-0x265 (1)
     |                                               |                |              code{}: 0x265-0x27b (22)
     |                                               |                |                t{}: 0x265-0x266 (1)
0x260|               00                              |     .          |                  n: 0 (valid) 0x265-0x266 (1)
     |                                               |                |                  x[0:0]: 0x266-0x266 (0)
     |                                               |                |                e[0:2]: 0x266-0x27b (21)
     |                                               |                |                  [0]{}: in 0x266-0x27a (20)
0x260|                  02                           |      .         |                    opcode: "block" (0x2) 0x266-0x267 (1)
0x260|                     40                        |       @        |                    bt: "ε" (64) 0x267-0x268 (1)
     |                                               |                |                    instructions[0:2]: 0x268-0x279 (17)
     |                                               |                |                      [0]{}: instr 0x268-0x278 (16)
0x260|                        02                     |        .       |                        opcode: "block" (0x2) 0x268-0x269 (1)
0x260|                           7b                  |         {      |                        bt: "v128" (123) 0x269-0x26a (1)
     |                                               |                |                        instructions[0:3]: 0x26a-0x277 (13)
     |                                               |                |                          [0]{}: instr 0x26a-0x273 (9)
0x260|                              02               |          .     |                            opcode: "block" (0x2) 0x26a-0x26b (1)
0x260|                                 7b            |           {    |                            bt: "v128" (123) 0x26b-0x26c (1)
     |                                               |                |                            instructions[0:2]: 0x26c-0x272 (6)
     |                                               |                |                              [0]{}: instr 0x26c-0x26e (2)
0x260|                                    41         |            A   |                                opcode: "i32.const" (0x41) 0x26c-0x26d (1)
0x260|                                       00      |             .  |                                n: 0 (valid) 0x26d-0x26e (1)
     |                                               |                |                              [1]{}: instr 0x26e-0x272 (4)
0x260|                                          fd   |              . |                                opcode: "vector" (0xfd) 0x26e-0x26f (1)
0x260|                                             00|               .|                                v_opcode: "v128.load" (0) 0x26f-0x270 (1)
     |                                               |                |                                m{}: 0x270-0x272 (2)
0x270|04                                             |.               |                                  a: 4 (valid) 0x270-0x271 (1)
0x270|   00                                          | .              |                                  o: 0 (valid) 0x271-0x272 (1)
0x270|      0b                                       |  .             |                            end: 0xb (valid) 0x272-0x273 (1)
     |                                               |                |                          [1]{}: instr 0x273-0x275 (2)
0x270|         41                                    |   A            |                            opcode: "i32.const" (0x41) 0x273-0x274 (1)
0x270|            01                                 |    .           |                            n: 1 (valid) 0x274-0x275 (1)
     |                                               |                |                          [2]{}: instr 0x275-0x277 (2)
0x270|               fd                              |     .          |                            opcode: "vector" (0xfd) 0x275-0x276 (1)
0x270|                  6d                           |      m         |                            v_opcode: "i8x16.shr_u" (109) 0x276-0x277 (1)
0x270|                     0b                        |       .        |                        end: 0xb (valid) 0x277-0x278 (1)
     |                                               |                |                      [1]{}: instr 0x278-0x279 (1)
0x270|                        1a                     |        .       |                        opcode: "drop" (0x1a) 0x278-0x279 (1)
0x270|                           0b                  |         .      |                    end: 0xb (valid) 0x279-0x27a (1)
     |                                               |                |                  [1]{}: in 0x27a-0x27b (1)
0x270|                              0b               |          .     |                    opcode: "end" (0xb) 0x27a-0x27b (1)
     |                                               |                |            [3]{}: code 0x27b-0x293 (24)
0x270|                                 17            |           .    |              size: 23 (valid) 0x27b-0x27c (1)
     |                                               |                |              code{}: 0x27c-0x293 (23)
     |                                               |                |                t{}: 0x27c-0x27d (1)
0x270|                                    00         |            .   |                  n: 0 (valid) 0x27c-0x27d (1)
     |                                               |                |                  x[0:0]: 0x27d-0x27d (0)
     |                                               |                |                e[0:2]: 0x27d-0x293 (22)
     |                                               |                |                  [0]{}: in 0x27d-0x292 (21)
0x270|                                       02      |             .  |                    opcode: "block" (0x2) 0x27d-0x27e (1)
0x270|                                          40   |              @ |                    bt: "ε" (64) 0x27e-0x27f (1)
     |                                               |                |                    instructions[0:2]: 0x27f-0x291 (18)
     |                                               |                |                      [0]{}: instr 0x27f-0x290 (17)
0x270|                                             02|               .|                        opcode: "block" (0x2) 0x27f-0x280 (1)
0x280|7b                                             |{               |                        bt: "v128" (123) 0x280-0x281 (1)
     |                                               |                |                        instructions[0:3]: 0x281-0x28f (14)
     |                                               |                |                          [0]{}: instr 0x281-0x28a (9)
0x280|   02                                          | .              |                            opcode: "block" (0x2) 0x281-0x282 (1)
0x280|      7b                                       |  {             |                            bt: "v128" (123) 0x282-0x283 (1)
     |                                               |                |                            instructions[0:2]: 0x283-0x289 (6)
     |                                               |                |                              [0]{}: instr 0x283-0x285 (2)
0x280|         41                                    |   A            |                                opcode: "i32.const" (0x41) 0x283-0x284 (1)
0x280|            00                                 |    .           |                                n: 0 (valid) 0x284-0x285 (1)
     |                                               |                |                              [1]{}: instr 0x285-0x289 (4)
0x280|               fd                              |     .          |                                opcode: "vector" (0xfd) 0x285-0x286 (1)
0x280|                  00                           |      .         |                                v_opcode: "v128.load" (0) 0x286-0x287 (1)
     |                                               |                |                                m{}: 0x287-0x289 (2)
0x280|                     04                        |       .        |                                  a: 4 (valid) 0x287-0x288 (1)
0x280|                        00                     |        .       |                                  o: 0 (valid) 0x288-0x289 (1)
0x280|                           0b                  |         .      |                            end: 0xb (valid) 0x289-0x28a (1)
     |                                               |                |                          [1]{}: instr 0x28a-0x28c (2)
0x280|                              41               |          A     |                            opcode: "i32.const" (0x41) 0x28a-0x28b (1)
0x280|                                 01            |           .    |                            n: 1 (valid) 0x28b-0x28c (1)
     |                                               |                |                          [2]{}: instr 0x28c-0x28f (3)
0x280|                                    fd         |            .   |                            opcode: "vector" (0xfd) 0x28c-0x28d (1)
0x280|                                       8b 01   |             .. |                            v_opcode: "i16x8.shl" (139) 0x28d-0x28f (2)
0x280|                                             0b|               .|                        end: 0xb (valid) 0x28f-0x290 (1)
     |                                               |                |                      [1]{}: instr 0x290-0x291 (1)
0x290|1a                                             |.               |                        opcode: "drop" (0x1a) 0x290-0x291 (1)
0x290|   0b                                          | .              |                    end: 0xb (valid) 0x291-0x292 (1)
     |                                               |                |                  [1]{}: in 0x292-0x293 (1)
0x290|      0b                                       |  .             |                    opcode: "end" (0xb) 0x292-0x293 (1)
     |                                               |                |            [4]{}: code 0x293-0x2ab (24)
0x290|         17                                    |   .            |              size: 23 (valid) 0x293-0x294 (1)
     |                                               |                |              code{}: 0x294-0x2ab (23)
     |                                               |                |                t{}: 0x294-0x295 (1)
0x290|            00                                 |    .           |                  n: 0 (valid) 0x294-0x295 (1)
     |                                               |                |                  x[0:0]: 0x295-0x295 (0)
     |                                               |                |                e[0:2]: 0x295-0x2ab (22)
     |                                               |                |                  [0]{}: in 0x295-0x2aa (21)
0x290|               02                              |     .          |                    opcode: "block" (0x2) 0x295-0x296 (1)
0x290|                  40                           |      @         |                    bt: "ε" (64) 0x296-0x297 (1)
     |                                               |                |                    instructions[0:2]: 0x297-0x2a9 (18)
     |                                               |                |                      [0]{}: instr 0x297-0x2a8 (17)
0x290|                     02                        |       .        |                        opcode: "block" (0x2) 0x297-0x298 (1)
0x290|                        7b                     |        {       |                        bt: "v128" (123) 0x298-0x299 (1)
     |                                               |                |                        instructions[0:3]: 0x299-0x2a7 (14)
     |                                               |                |                          [0]{}: instr 0x299-0x2a2 (9)
0x290|                           02                  |         .      |                            opcode: "block" (0x2) 0x299-0x29a (1)
0x290|                              7b               |          {     |                            bt: "v128" (123) 0x29a-0x29b (1)
     |                                               |                |                            instructions[0:2]: 0x29b-0x2a1 (6)
     |                                               |                |                              [0]{}: instr 0x29b-0x29d (2)
0x290|                                 41            |           A    |                                opcode: "i32.const" (0x41) 0x29b-0x29c (1)
0x290|                                    00         |            .   |                                n: 0 (valid) 0x29c-0x29d (1)
     |                                               |                |                              [1]{}: instr 0x29d-0x2a1 (4)
0x290|                                       fd      |             .  |                                opcode: "vector" (0xfd) 0x29d-0x29e (1)
0x290|                                          00   |              . |                                v_opcode: "v128.load" (0) 0x29e-0x29f (1)
     |                                               |                |                                m{}: 0x29f-0x2a1 (2)
0x290|                                             04|               .|                                  a: 4 (valid) 0x29f-0x2a0 (1)
0x2a0|00                                             |.               |                                  o: 0 (valid) 0x2a0-0x2a1 (1)
0x2a0|   0b                                          | .              |                            end: 0xb (valid) 0x2a1-0x2a2 (1)
     |                                               |                |                          [1]{}: instr 0x2a2-0x2a4 (2)
0x2a0|      41                                       |  A             |                            opcode: "i32.const" (0x41) 0x2a2-0x2a3 (1)
0x2a0|         01                                    |   .            |                            n: 1 (valid) 0x2a3-0x2a4 (1)
     |                                               |                |                          [2]{}: instr 0x2a4-0x2a7 (3)
0x2a0|            fd                                 |    .           |                            opcode: "vector" (0xfd) 0x2a4-0x2a5 (1)
0x2a0|               8c 01                           |     ..         |                            v_opcode: "i16x8.shr_s" (140) 0x2a5-0x2a7 (2)
0x2a0|                     0b                        |       .        |                        end: 0xb (valid) 0x2a7-0x2a8 (1)
     |                                               |                |                      [1]{}: instr 0x2a8-0x2a9 (1)
0x2a0|                        1a                     |        .       |                        opcode: "drop" (0x1a) 0x2a8-0x2a9 (1)
0x2a0|                           0b                  |         .      |                    end: 0xb (valid) 0x2a9-0x2aa (1)
     |                                               |                |                  [1]{}: in 0x2aa-0x2ab (1)
0x2a0|                              0b               |          .     |                    opcode: "end" (0xb) 0x2aa-0x2ab (1)
     |                                               |                |            [5]{}: code 0x2ab-0x2c3 (24)
0x2a0|                                 17            |           .    |              size: 23 (valid) 0x2ab-0x2ac (1)
     |                                               |                |              code{}: 0x2ac-0x2c3 (23)
     |                                               |                |                t{}: 0x2ac-0x2ad (1)
0x2a0|                                    00         |            .   |                  n: 0 (valid) 0x2ac-0x2ad (1)
     |                                               |                |                  x[0:0]: 0x2ad-0x2ad (0)
     |                                               |                |                e[0:2]: 0x2ad-0x2c3 (22)
     |                                               |                |                  [0]{}: in 0x2ad-0x2c2 (21)
0x2a0|                                       02      |             .  |                    opcode: "block" (0x2) 0x2ad-0x2ae (1)
0x2a0|                                          40   |              @ |                    bt: "ε" (64) 0x2ae-0x2af (1)
     |                                               |                |                    instructions[0:2]: 0x2af-0x2c1 (18)
     |                                               |                |                      [0]{}: instr 0x2af-0x2c0 (17)
0x2a0|                                             02|               .|                        opcode: "block" (0x2) 0x2af-0x2b0 (1)
0x2b0|7b                                             |{               |                        bt: "v128" (123) 0x2b0-0x2b1 (1)
     |                                               |                |                        instructions[0:3]: 0x2b1-0x2bf (14)
     |                                               |                |                          [0]{}: instr 0x2b1-0x2ba (9)
0x2b0|   02                                          | .              |                            opcode: "block" (0x2) 0x2b1-0x2b2 (1)
0x2b0|      7b                                       |  {             |                            bt: "v128" (123) 0x2b2-0x2b3 (1)
     |                                               |                |                            instructions[0:2]: 0x2b3-0x2b9 (6)
     |                                               |                |                              [0]{}: instr 0x2b3-0x2b5 (2)
0x2b0|         41                                    |   A            |                                opcode: "i32.const" (0x41) 0x2b3-0x2b4 (1)
0x2b0|            00                                 |    .           |                                n: 0 (valid) 0x2b4-0x2b5 (1)
     |                                               |                |                              [1]{}: instr 0x2b5-0x2b9 (4)
0x2b0|               fd                              |     .          |                                opcode: "vector" (0xfd) 0x2b5-0x2b6 (1)
0x2b0|                  00                           |      .         |                                v_opcode: "v128.load" (0) 0x2b6-0x2b7 (1)
     |                                               |                |                                m{}: 0x2b7-0x2b9 (2)
0x2b0|                     04                        |       .        |                                  a: 4 (valid) 0x2b7-0x2b8 (1)
0x2b0|                        00                     |        .       |                                  o: 0 (valid) 0x2b8-0x2b9 (1)
0x2b0|                           0b                  |         .      |                            end: 0xb (valid) 0x2b9-0x2ba (1)
     |                                               |                |                          [1]{}: instr 0x2ba-0x2bc (2)
0x2b0|                              41               |          A     |                            opcode: "i32.const" (0x41) 0x2ba-0x2bb (1)
0x2b0|                                 01            |           .    |                            n: 1 (valid) 0x2bb-0x2bc (1)
     |                                               |                |                          [2]{}: instr 0x2bc-0x2bf (3)
0x2b0|                                    fd         |            .   |                            opcode: "vector" (0xfd) 0x2bc-0x2bd (1)
0x2b0|                                       8d 01   |             .. |                            v_opcode: "i16x8.shr_u" (141) 0x2bd-0x2bf (2)
0x2b0|                                             0b|               .|                        end: 0xb (valid) 0x2bf-0x2c0 (1)
     |                                               |                |                      [1]{}: instr 0x2c0-0x2c1 (1)
0x2c0|1a                                             |.               |                        opcode: "drop" (0x1a) 0x2c0-0x2c1 (1)
0x2c0|   0b                                          | .              |                    end: 0xb (valid) 0x2c1-0x2c2 (1)
     |                                               |                |                  [1]{}: in 0x2c2-0x2c3 (1)
0x2c0|      0b                                       |  .             |                    opcode: "end" (0xb) 0x2c2-0x2c3 (1)
     |                                               |                |            [6]{}: code 0x2c3-0x2db (24)
0x2c0|         17                                    |   .            |              size: 23 (valid) 0x2c3-0x2c4 (1)
     |                                               |                |              code{}: 0x2c4-0x2db (23)
     |                                               |                |                t{}: 0x2c4-0x2c5 (1)
0x2c0|            00                                 |    .           |                  n: 0 (valid) 0x2c4-0x2c5 (1)
     |                                               |                |                  x[0:0]: 0x2c5-0x2c5 (0)
     |                                               |                |                e[0:2]: 0x2c5-0x2db (22)
     |                                               |                |                  [0]{}: in 0x2c5-0x2da (21)
0x2c0|               02                              |     .          |                    opcode: "block" (0x2) 0x2c5-0x2c6 (1)
0x2c0|                  40                           |      @         |                    bt: "ε" (64) 0x2c6-0x2c7 (1)
     |                                               |                |                    instructions[0:2]: 0x2c7-0x2d9 (18)
     |                                               |                |                      [0]{}: instr 0x2c7-0x2d8 (17)
0x2c0|                     02                        |       .        |                        opcode: "block" (0x2) 0x2c7-0x2c8 (1)
0x2c0|                        7b                     |        {       |                        bt: "v128" (123) 0x2c8-0x2c9 (1)
     |                                               |                |                        instructions[0:3]: 0x2c9-0x2d7 (14)
     |                                               |                |                          [0]{}: instr 0x2c9-0x2d2 (9)
0x2c0|                           02                  |         .      |                            opcode: "block" (0x2) 0x2c9-0x2ca (1)
0x2c0|                              7b               |          {     |                            bt: "v128" (123) 0x2ca-0x2cb (1)
     |                                               |                |                            instructions[0:2]: 0x2cb-0x2d1 (6)
     |                                               |                |                              [0]{}: instr 0x2cb-0x2cd (2)
0x2c0|                                 41            |           A    |                                opcode: "i32.const" (0x41) 0x2cb-0x2cc (1)
0x2c0|                                    00         |            .   |                                n: 0 (valid) 0x2cc-0x2cd (1)
     |                                               |                |                              [1]{}: instr 0x2cd-0x2d1 (4)
0x2c0|                                       fd      |             .  |                                opcode: "vector" (0xfd) 0x2cd-0x2ce (1)
0x2c0|                                          00   |              . |                                v_opcode: "v128.load" (0) 0x2ce-0x2cf (1)
     |                                               |                |                                m{}: 0x2cf-0x2d1 (2)
0x2c0|                                             04|               .|                                  a: 4 (valid) 0x2cf-0x2d0 (1)
0x2d0|00                                             |.               |                                  o: 0 (valid) 0x2d0-0x2d1 (1)
0x2d0|   0b                                          | .              |                            end: 0xb (valid) 0x2d1-0x2d2 (1)
     |                                               |                |                          [1]{}: instr 0x2d2-0x2d4 (2)
0x2d0|      41                                       |  A             |                            opcode: "i32.const" (0x41) 0x2d2-0x2d3 (1)
0x2d0|         01                                    |   .            |                            n: 1 (valid) 0x2d3-0x2d4 (1)
     |                                               |                |                          [2]{}: instr 0x2d4-0x2d7 (3)
0x2d0|            fd                                 |    .           |                            opcode: "vector" (0xfd) 0x2d4-0x2d5 (1)
0x2d0|               ab 01                           |     ..         |                            v_opcode: "i32x4.shl" (171) 0x2d5-0x2d7 (2)
0x2d0|                     0b                        |       .        |                        end: 0xb (valid) 0x2d7-0x2d8 (1)
     |                                               |                |                      [1]{}: instr 0x2d8-0x2d9 (1)
0x2d0|                        1a                     |        .       |                        opcode: "drop" (0x1a) 0x2d8-0x2d9 (1)
0x2d0|                           0b                  |         .      |                    end: 0xb (valid) 0x2d9-0x2da (1)
     |                                               |                |                  [1]{}: in 0x2da-0x2db (1)
0x2d0|                              0b               |          .     |                    opcode: "end" (0xb) 0x2da-0x2db (1)
     |                                               |                |            [7]{}: code 0x2db-0x2f3 (24)
0x2d0|                                 17            |           .    |              size: 23 (valid) 0x2db-0x2dc (1)
     |                                               |                |              code{}: 0x2dc-0x2f3 (23)
     |                                               |                |                t{}: 0x2dc-0x2dd (1)
0x2d0|                                    00         |            .   |                  n: 0 (valid) 0x2dc-0x2dd (1)
     |                                               |                |                  x[0:0]: 0x2dd-0x2dd (0)
     |                                               |                |                e[0:2]: 0x2dd-0x2f3 (22)
     |                                               |                |                  [0]{}: in 0x2dd-0x2f2 (21)
0x2d0|                                       02      |             .  |                    opcode: "block" (0x2) 0x2dd-0x2de (1)
0x2d0|                                          40   |              @ |                    bt: "ε" (64) 0x2de-0x2df (1)
     |                                               |                |                    instructions[0:2]: 0x2df-0x2f1 (18)
     |                                               |                |                      [0]{}: instr 0x2df-0x2f0 (17)
0x2d0|                                             02|               .|                        opcode: "block" (0x2) 0x2df-0x2e0 (1)
0x2e0|7b                                             |{               |                        bt: "v128" (123) 0x2e0-0x2e1 (1)
     |                                               |                |                        instructions[0:3]: 0x2e1-0x2ef (14)
     |                                               |                |                          [0]{}: instr 0x2e1-0x2ea (9)
0x2e0|   02                                          | .              |                            opcode: "block" (0x2) 0x2e1-0x2e2 (1)
0x2e0|      7b                                       |  {             |                            bt: "v128" (123) 0x2e2-0x2e3 (1)
     |                                               |                |                            instructions[0:2]: 0x2e3-0x2e9 (6)
     |                                               |                |                              [0]{}: instr 0x2e3-0x2e5 (2)
0x2e0|         41                                    |   A            |                                opcode: "i32.const" (0x41) 0x2e3-0x2e4 (1)
0x2e0|            00                                 |    .           |                                n: 0 (valid) 0x2e4-0x2e5 (1)
     |                                               |                |                              [1]{}: instr 0x2e5-0x2e9 (4)
0x2e0|               fd                              |     .          |                                opcode: "vector" (0xfd) 0x2e5-0x2e6 (1)
0x2e0|                  00                           |      .         |                                v_opcode: "v128.load" (0) 0x2e6-0x2e7 (1)
     |                                               |                |                                m{}: 0x2e7-0x2e9 (2)
0x2e0|                     04                        |       .        |                                  a: 4 (valid) 0x2e7-0x2e8 (1)
0x2e0|                        00                     |        .       |                                  o: 0 (valid) 0x2e8-0x2e9 (1)
0x2e0|                           0b                  |         .      |                            end: 0xb (valid) 0x2e9-0x2ea (1)
     |                                               |                |                          [1]{}: instr 0x2ea-0x2ec (2)
0x2e0|                              41               |          A     |                            opcode: "i32.const" (0x41) 0x2ea-0x2eb (1)
0x2e0|                                 01            |           .    |                            n: 1 (valid) 0x2eb-0x2ec (1)
     |                                               |                |                          [2]{}: instr 0x2ec-0x2ef (3)
0x2e0|                                    fd         |            .   |                            opcode: "vector" (0xfd) 0x2ec-0x2ed (1)
0x2e0|                                       ac 01   |             .. |                            v_opcode: "i32x4.shr_s" (172) 0x2ed-0x2ef (2)
0x2e0|                                             0b|               .|                        end: 0xb (valid) 0x2ef-0x2f0 (1)
     |                                               |                |                      [1]{}: instr 0x2f0-0x2f1 (1)
0x2f0|1a                                             |.               |                        opcode: "drop" (0x1a) 0x2f0-0x2f1 (1)
0x2f0|   0b                                          | .              |                    end: 0xb (valid) 0x2f1-0x2f2 (1)
     |                                               |                |                  [1]{}: in 0x2f2-0x2f3 (1)
0x2f0|      0b                                       |  .             |                    opcode: "end" (0xb) 0x2f2-0x2f3 (1)
     |                                               |                |            [8]{}: code 0x2f3-0x30b (24)
0x2f0|         17                                    |   .            |              size: 23 (valid) 0x2f3-0x2f4 (1)
     |                                               |                |              code{}: 0x2f4-0x30b (23)
     |                                               |                |                t{}: 0x2f4-0x2f5 (1)
0x2f0|            00                                 |    .           |                  n: 0 (valid) 0x2f4-0x2f5 (1)
     |                                               |                |                  x[0:0]: 0x2f5-0x2f5 (0)
     |                                               |                |                e[0:2]: 0x2f5-0x30b (22)
     |                                               |                |                  [0]{}: in 0x2f5-0x30a (21)
0x2f0|               02                              |     .          |                    opcode: "block" (0x2) 0x2f5-0x2f6 (1)
0x2f0|                  40                           |      @         |                    bt: "ε" (64) 0x2f6-0x2f7 (1)
     |                                               |                |                    instructions[0:2]: 0x2f7-0x309 (18)
     |                                               |                |                      [0]{}: instr 0x2f7-0x308 (17)
0x2f0|                     02                        |       .        |                        opcode: "block" (0x2) 0x2f7-0x2f8 (1)
0x2f0|                        7b                     |        {       |                        bt: "v128" (123) 0x2f8-0x2f9 (1)
     |                                               |                |                        instructions[0:3]: 0x2f9-0x307 (14)
     |                                               |                |                          [0]{}: instr 0x2f9-0x302 (9)
0x2f0|                           02                  |         .      |                            opcode: "block" (0x2) 0x2f9-0x2fa (1)
0x2f0|                              7b               |          {     |                            bt: "v128" (123) 0x2fa-0x2fb (1)
     |                                               |                |                            instructions[0:2]: 0x2fb-0x301 (6)
     |                                               |                |                              [0]{}: instr 0x2fb-0x2fd (2)
0x2f0|                                 41            |           A    |                                opcode: "i32.const" (0x41) 0x2fb-0x2fc (1)
0x2f0|                                    00         |            .   |                                n: 0 (valid) 0x2fc-0x2fd (1)
     |                                               |                |                              [1]{}: instr 0x2fd-0x301 (4)
0x2f0|                                       fd      |             .  |                                opcode: "vector" (0xfd) 0x2fd-0x2fe (1)
0x2f0|                                          00   |              . |                                v_opcode: "v128.load" (0) 0x2fe-0x2ff (1)
     |                                               |                |                                m{}: 0x2ff-0x301 (2)
0x2f0|                                             04|               .|                                  a: 4 (valid) 0x2ff-0x300 (1)
0x300|00                                             |.               |                                  o: 0 (valid) 0x300-0x301 (1)
0x300|   0b                                          | .              |                            end: 0xb (valid) 0x301-0x302 (1)
     |                                               |                |                          [1]{}: instr 0x302-0x304 (2)
0x300|      41                                       |  A             |                            opcode: "i32.const" (0x41) 0x302-0x303 (1)
0x300|         01                                    |   .            |                            n: 1 (valid) 0x303-0x304 (1)
     |                                               |                |                          [2]{}: instr 0x304-0x307 (3)
0x300|            fd                                 |    .           |                            opcode: "vector" (0xfd) 0x304-0x305 (1)
0x300|               ad 01                           |     ..         |                            v_opcode: "i32x4.shr_u" (173) 0x305-0x307 (2)
0x300|                     0b                        |       .        |                        end: 0xb (valid) 0x307-0x308 (1)
     |                                               |                |                      [1]{}: instr 0x308-0x309 (1)
0x300|                        1a                     |        .       |                        opcode: "drop" (0x1a) 0x308-0x309 (1)
0x300|                           0b                  |         .      |                    end: 0xb (valid) 0x309-0x30a (1)
     |                                               |                |                  [1]{}: in 0x30a-0x30b (1)
0x300|                              0b               |          .     |                    opcode: "end" (0xb) 0x30a-0x30b (1)
     |                                               |                |            [9]{}: code 0x30b-0x323 (24)
0x300|                                 17            |           .    |              size: 23 (valid) 0x30b-0x30c (1)
     |                                               |                |              code{}: 0x30c-0x323 (23)
     |                                               |                |                t{}: 0x30c-0x30d (1)
0x300|                                    00         |            .   |                  n: 0 (valid) 0x30c-0x30d (1)
     |                                               |                |                  x[0:0]: 0x30d-0x30d (0)
     |                                               |                |                e[0:2]: 0x30d-0x323 (22)
     |                                               |                |                  [0]{}: in 0x30d-0x322 (21)
0x300|                                       02      |             .  |                    opcode: "block" (0x2) 0x30d-0x30e (1)
0x300|                                          40   |              @ |                    bt: "ε" (64) 0x30e-0x30f (1)
     |                                               |                |                    instructions[0:2]: 0x30f-0x321 (18)
     |                                               |                |                      [0]{}: instr 0x30f-0x320 (17)
0x300|                                             02|               .|                        opcode: "block" (0x2) 0x30f-0x310 (1)
0x310|7b                                             |{               |                        bt: "v128" (123) 0x310-0x311 (1)
     |                                               |                |                        instructions[0:3]: 0x311-0x31f (14)
     |                                               |                |                          [0]{}: instr 0x311-0x31a (9)
0x310|   02                                          | .              |                            opcode: "block" (0x2) 0x311-0x312 (1)
0x310|      7b                                       |  {             |                            bt: "v128" (123) 0x312-0x313 (1)
     |                                               |                |                            instructions[0:2]: 0x313-0x319 (6)
     |                                               |                |                              [0]{}: instr 0x313-0x315 (2)
0x310|         41                                    |   A            |                                opcode: "i32.const" (0x41) 0x313-0x314 (1)
0x310|            00                                 |    .           |                                n: 0 (valid) 0x314-0x315 (1)
     |                                               |                |                              [1]{}: instr 0x315-0x319 (4)
0x310|               fd                              |     .          |                                opcode: "vector" (0xfd) 0x315-0x316 (1)
0x310|                  00                           |      .         |                                v_opcode: "v128.load" (0) 0x316-0x317 (1)
     |                                               |                |                                m{}: 0x317-0x319 (2)
0x310|                     04                        |       .        |                                  a: 4 (valid) 0x317-0x318 (1)
0x310|                        00                     |        .       |                                  o: 0 (valid) 0x318-0x319 (1)
0x310|                           0b                  |         .      |                            end: 0xb (valid) 0x319-0x31a (1)
     |                                               |                |                          [1]{}: instr 0x31a-0x31c (2)
0x310|                              41               |          A     |                            opcode: "i32.const" (0x41) 0x31a-0x31b (1)
0x310|                                 01            |           .    |                            n: 1 (valid) 0x31b-0x31c (1)
     |                                               |                |                          [2]{}: instr 0x31c-0x31f (3)
0x310|                                    fd         |            .   |                            opcode: "vector" (0xfd) 0x31c-0x31d (1)
0x310|                                       cb 01   |             .. |                            v_opcode: "i64x2.shl" (203) 0x31d-0x31f (2)
0x310|                                             0b|               .|                        end: 0xb (valid) 0x31f-0x320 (1)
     |                                               |                |                      [1]{}: instr 0x320-0x321 (1)
0x320|1a                                             |.               |                        opcode: "drop" (0x1a) 0x320-0x321 (1)
0x320|   0b                                          | .              |                    end: 0xb (valid) 0x321-0x322 (1)
     |                                               |                |                  [1]{}: in 0x322-0x323 (1)
0x320|      0b                                       |  .             |                    opcode: "end" (0xb) 0x322-0x323 (1)
     |                                               |                |            [10]{}: code 0x323-0x33b (24)
0x320|         17                                    |   .            |              size: 23 (valid) 0x323-0x324 (1)
     |                                               |                |              code{}: 0x324-0x33b (23)
     |                                               |                |                t{}: 0x324-0x325 (1)
0x320|            00                                 |    .           |                  n: 0 (valid) 0x324-0x325 (1)
     |                                               |                |                  x[0:0]: 0x325-0x325 (0)
     |                                               |                |                e[0:2]: 0x325-0x33b (22)
     |                                               |                |                  [0]{}: in 0x325-0x33a (21)
0x320|               02                              |     .          |                    opcode: "block" (0x2) 0x325-0x326 (1)
0x320|                  40                           |      @         |                    bt: "ε" (64) 0x326-0x327 (1)
     |                                               |                |                    instructions[0:2]: 0x327-0x339 (18)
     |                                               |                |                      [0]{}: instr 0x327-0x338 (17)
0x320|                     02                        |       .        |                        opcode: "block" (0x2) 0x327-0x328 (1)
0x320|                        7b                     |        {       |                        bt: "v128" (123) 0x328-0x329 (1)
     |                                               |                |                        instructions[0:3]: 0x329-0x337 (14)
     |                                               |                |                          [0]{}: instr 0x329-0x332 (9)
0x320|                           02                  |         .      |                            opcode: "block" (0x2) 0x329-0x32a (1)
0x320|                              7b               |          {     |                            bt: "v128" (123) 0x32a-0x32b (1)
     |                                               |                |                            instructions[0:2]: 0x32b-0x331 (6)
     |                                               |                |                              [0]{}: instr 0x32b-0x32d (2)
0x320|                                 41            |           A    |                                opcode: "i32.const" (0x41) 0x32b-0x32c (1)
0x320|                                    00         |            .   |                                n: 0 (valid) 0x32c-0x32d (1)
     |                                               |                |                              [1]{}: instr 0x32d-0x331 (4)
0x320|                                       fd      |             .  |                                opcode: "vector" (0xfd) 0x32d-0x32e (1)
0x320|                                          00   |              . |                                v_opcode: "v128.load" (0) 0x32e-0x32f (1)
     |                                               |                |                                m{}: 0x32f-0x331 (2)
0x320|                                             04|               .|                                  a: 4 (valid) 0x32f-0x330 (1)
0x330|00                                             |.               |                                  o: 0 (valid) 0x330-0x331 (1)
0x330|   0b                                          | .              |                            end: 0xb (valid) 0x331-0x332 (1)
     |                                               |                |                          [1]{}: instr 0x332-0x334 (2)
0x330|      41                                       |  A             |                            opcode: "i32.const" (0x41) 0x332-0x333 (1)
0x330|         01                                    |   .            |                            n: 1 (valid) 0x333-0x334 (1)
     |                                               |                |                          [2]{}: instr 0x334-0x337 (3)
0x330|            fd                                 |    .           |                            opcode: "vector" (0xfd) 0x334-0x335 (1)
0x330|               cc 01                           |     ..         |                            v_opcode: "i64x2.shr_s" (204) 0x335-0x337 (2)
0x330|                     0b                        |       .        |                        end: 0xb (valid) 0x337-0x338 (1)
     |                                               |                |                      [1]{}: instr 0x338-0x339 (1)
0x330|                        1a                     |        .       |                        opcode: "drop" (0x1a) 0x338-0x339 (1)
0x330|                           0b                  |         .      |                    end: 0xb (valid) 0x339-0x33a (1)
     |                                               |                |                  [1]{}: in 0x33a-0x33b (1)
0x330|                              0b               |          .     |                    opcode: "end" (0xb) 0x33a-0x33b (1)
     |                                               |                |            [11]{}: code 0x33b-0x353 (24)
0x330|                                 17            |           .    |              size: 23 (valid) 0x33b-0x33c (1)
     |                                               |                |              code{}: 0x33c-0x353 (23)
     |                                               |                |                t{}: 0x33c-0x33d (1)
0x330|                                    00         |            .   |                  n: 0 (valid) 0x33c-0x33d (1)
     |                                               |                |                  x[0:0]: 0x33d-0x33d (0)
     |                                               |                |                e[0:2]: 0x33d-0x353 (22)
     |                                               |                |                  [0]{}: in 0x33d-0x352 (21)
0x330|                                       02      |             .  |                    opcode: "block" (0x2) 0x33d-0x33e (1)
0x330|                                          40   |              @ |                    bt: "ε" (64) 0x33e-0x33f (1)
     |                                               |                |                    instructions[0:2]: 0x33f-0x351 (18)
     |                                               |                |                      [0]{}: instr 0x33f-0x350 (17)
0x330|                                             02|               .|                        opcode: "block" (0x2) 0x33f-0x340 (1)
0x340|7b                                             |{               |                        bt: "v128" (123) 0x340-0x341 (1)
     |                                               |                |                        instructions[0:3]: 0x341-0x34f (14)
     |                                               |                |                          [0]{}: instr 0x341-0x34a (9)
0x340|   02                                          | .              |                            opcode: "block" (0x2) 0x341-0x342 (1)
0x340|      7b                                       |  {             |                            bt: "v128" (123) 0x342-0x343 (1)
     |                                               |                |                            instructions[0:2]: 0x343-0x349 (6)
     |                                               |                |                              [0]{}: instr 0x343-0x345 (2)
0x340|         41                                    |   A            |                                opcode: "i32.const" (0x41) 0x343-0x344 (1)
0x340|            00                                 |    .           |                                n: 0 (valid) 0x344-0x345 (1)
     |                                               |                |                              [1]{}: instr 0x345-0x349 (4)
0x340|               fd                              |     .          |                                opcode: "vector" (0xfd) 0x345-0x346 (1)
0x340|                  00                           |      .         |                                v_opcode: "v128.load" (0) 0x346-0x347 (1)
     |                                               |                |                                m{}: 0x347-0x349 (2)
0x340|                     04                        |       .        |                                  a: 4 (valid) 0x347-0x348 (1)
0x340|                        00                     |        .       |                                  o: 0 (valid) 0x348-0x349 (1)
0x340|                           0b                  |         .      |                            end: 0xb (valid) 0x349-0x34a (1)
     |                                               |                |                          [1]{}: instr 0x34a-0x34c (2)
0x340|                              41               |          A     |                            opcode: "i32.const" (0x41) 0x34a-0x34b (1)
0x340|                                 01            |           .    |                            n: 1 (valid) 0x34b-0x34c (1)
     |                                               |                |                          [2]{}: instr 0x34c-0x34f (3)
0x340|                                    fd         |            .   |                            opcode: "vector" (0xfd) 0x34c-0x34d (1)
0x340|                                       cd 01   |             .. |                            v_opcode: "i64x2.shr_u" (205) 0x34d-0x34f (2)
0x340|                                             0b|               .|                        end: 0xb (valid) 0x34f-0x350 (1)
     |                                               |                |                      [1]{}: instr 0x350-0x351 (1)
0x350|1a                                             |.               |                        opcode: "drop" (0x1a) 0x350-0x351 (1)
0x350|   0b                                          | .              |                    end: 0xb (valid) 0x351-0x352 (1)
     |                                               |                |                  [1]{}: in 0x352-0x353 (1)
0x350|      0b                                       |  .             |                    opcode: "end" (0xb) 0x352-0x353 (1)
     |                                               |                |            [12]{}: code 0x353-0x369 (22)
0x350|         15                                    |   .            |              size: 21 (valid) 0x353-0x354 (1)
     |                                               |                |              code{}: 0x354-0x369 (21)
     |                                               |                |                t{}: 0x354-0x355 (1)
0x350|            00                                 |    .           |                  n: 0 (valid) 0x354-0x355 (1)
     |                                               |                |                  x[0:0]: 0x355-0x355 (0)
     |                                               |                |                e[0:10]: 0x355-0x369 (20)
     |                                               |                |                  [0]{}: in 0x355-0x357 (2)
0x350|               41                              |     A          |                    opcode: "i32.const" (0x41) 0x355-0x356 (1)
0x350|                  00                           |      .         |                    n: 0 (valid) 0x356-0x357 (1)
     |                                               |                |                  [1]{}: in 0x357-0x35b (4)
0x350|                     fd                        |       .        |                    opcode: "vector" (0xfd) 0x357-0x358 (1)
0x350|                        00                     |        .       |                    v_opcode: "v128.load" (0) 0x358-0x359 (1)
     |                                               |                |                    m{}: 0x359-0x35b (2)
0x350|                           04                  |         .      |                      a: 4 (valid) 0x359-0x35a (1)
0x350|                              00               |          .     |                      o: 0 (valid) 0x35a-0x35b (1)
     |                                               |                |                  [2]{}: in 0x35b-0x35d (2)
0x350|                                 41            |           A    |                    opcode: "i32.const" (0x41) 0x35b-0x35c (1)
0x350|                                    01         |            .   |                    n: 1 (valid) 0x35c-0x35d (1)
     |                                               |                |                  [3]{}: in 0x35d-0x35f (2)
0x350|                                       fd      |             .  |                    opcode: "vector" (0xfd) 0x35d-0x35e (1)
0x350|                                          6b   |              k |                    v_opcode: "i8x16.shl" (107) 0x35e-0x35f (1)
     |                                               |                |                  [4]{}: in 0x35f-0x361 (2)
0x350|                                             41|               A|                    opcode: "i32.const" (0x41) 0x35f-0x360 (1)
0x360|01                                             |.               |                    n: 1 (valid) 0x360-0x361 (1)
     |                                               |                |                  [5]{}: in 0x361-0x363 (2)
0x360|   fd                                          | .              |                    opcode: "vector" (0xfd) 0x361-0x362 (1)
0x360|      6b                                       |  k             |                    v_opcode: "i8x16.shl" (107) 0x362-0x363 (1)
     |                                               |                |                  [6]{}: in 0x363-0x365 (2)
0x360|         41                                    |   A            |                    opcode: "i32.const" (0x41) 0x363-0x364 (1)
0x360|            01                                 |    .           |                    n: 1 (valid) 0x364-0x365 (1)
     |                                               |                |                  [7]{}: in 0x365-0x367 (2)
0x360|               fd                              |     .          |                    opcode: "vector" (0xfd) 0x365-0x366 (1)
0x360|                  6b                           |      k         |                    v_opcode: "i8x16.shl" (107) 0x366-0x367 (1)
     |                                               |                |                  [8]{}: in 0x367-0x368 (1)
0x360|                     1a                        |       .        |                    opcode: "drop" (0x1a) 0x367-0x368 (1)
     |                                               |                |                  [9]{}: in 0x368-0x369 (1)
0x360|                        0b                     |        .       |                    opcode: "end" (0xb) 0x368-0x369 (1)
     |                                               |                |            [13]{}: code 0x369-0x37f (22)
0x360|                           15                  |         .      |              size: 21 (valid) 0x369-0x36a (1)
     |                                               |                |              code{}: 0x36a-0x37f (21)
     |                                               |                |                t{}: 0x36a-0x36b (1)
0x360|                              00               |          .     |                  n: 0 (valid) 0x36a-0x36b (1)
     |                                               |                |                  x[0:0]: 0x36b-0x36b (0)
     |                                               |                |                e[0:10]: 0x36b-0x37f (20)
     |                                               |                |                  [0]{}: in 0x36b-0x36d (2)
0x360|                                 41            |           A    |                    opcode: "i32.const" (0x41) 0x36b-0x36c (1)
0x360|                                    00         |            .   |                    n: 0 (valid) 0x36c-0x36d (1)
     |                                               |                |                  [1]{}: in 0x36d-0x371 (4)
0x360|                                       fd      |             .  |                    opcode: "vector" (0xfd) 0x36d-0x36e (1)
0x360|                                          00   |              . |                    v_opcode: "v128.load" (0) 0x36e-0x36f (1)
     |                                               |                |                    m{}: 0x36f-0x371 (2)
0x360|                                             04|               .|                      a: 4 (valid) 0x36f-0x370 (1)
0x370|00                                             |.               |                      o: 0 (valid) 0x370-0x371 (1)
     |                                               |                |                  [2]{}: in 0x371-0x373 (2)
0x370|   41                                          | A              |                    opcode: "i32.const" (0x41) 0x371-0x372 (1)
0x370|      01                                       |  .             |                    n: 1 (valid) 0x372-0x373 (1)
     |                                               |                |                  [3]{}: in 0x373-0x375 (2)
0x370|         fd                                    |   .            |                    opcode: "vector" (0xfd) 0x373-0x374 (1)
0x370|            6c                                 |    l           |                    v_opcode: "i8x16.shr_s" (108) 0x374-0x375 (1)
     |                                               |                |                  [4]{}: in 0x375-0x377 (2)
0x370|               41                              |     A          |                    opcode: "i32.const" (0x41) 0x375-0x376 (1)
0x370|                  01                           |      .         |                    n: 1 (valid) 0x376-0x377 (1)
     |                                               |                |                  [5]{}: in 0x377-0x379 (2)
0x370|                     fd                        |       .        |                    opcode: "vector" (0xfd) 0x377-0x378 (1)
0x370|                        6c                     |        l       |                    v_opcode: "i8x16.shr_s" (108) 0x378-0x379 (1)
     |                                               |                |                  [6]{}: in 0x379-0x37b (2)
0x370|                           41                  |         A      |                    opcode: "i32.const" (0x41) 0x379-0x37a (1)
0x370|                              01               |          .     |                    n: 1 (valid) 0x37a-0x37b (1)
     |                                               |                |                  [7]{}: in 0x37b-0x37d (2)
0x370|                                 fd            |           .    |                    opcode: "vector" (0xfd) 0x37b-0x37c (1)
0x370|                                    6c         |            l   |                    v_opcode: "i8x16.shr_s" (108) 0x37c-0x37d (1)
     |                                               |                |                  [8]{}: in 0x37d-0x37e (1)
0x370|                                       1a      |             .  |                    opcode: "drop" (0x1a) 0x37d-0x37e (1)
     |                                               |                |                  [9]{}: in 0x37e-0x37f (1)
0x370|                                          0b   |              . |                    opcode: "end" (0xb) 0x37e-0x37f (1)
     |                                               |                |            [14]{}: code 0x37f-0x395 (22)
0x370|                                             15|               .|              size: 21 (valid) 0x37f-0x380 (1)
     |                                               |                |              code{}: 0x380-0x395 (21)
     |                                               |                |                t{}: 0x380-0x381 (1)
0x380|00                                             |.               |                  n: 0 (valid) 0x380-0x381 (1)
     |                                               |                |                  x[0:0]: 0x381-0x381 (0)
     |                                               |                |                e[0:10]: 0x381-0x395 (20)
     |                                               |                |                  [0]{}: in 0x381-0x383 (2)
0x380|   41                                          | A              |                    opcode: "i32.const" (0x41) 0x381-0x382 (1)
0x380|      00                                       |  .             |                    n: 0 (valid) 0x382-0x383 (1)
     |                                               |                |                  [1]{}: in 0x383-0x387 (4)
0x380|         fd                                    |   .            |                    opcode: "vector" (0xfd) 0x383-0x384 (1)
0x380|            00                                 |    .           |                    v_opcode: "v128.load" (0) 0x384-0x385 (1)
     |                                               |                |                    m{}: 0x385-0x387 (2)
0x380|               04                              |     .          |                      a: 4 (valid) 0x385-0x386 (1)
0x380|                  00                           |      .         |                      o: 0 (valid) 0x386-0x387 (1)
     |                                               |                |                  [2]{}: in 0x387-0x389 (2)
0x380|                     41                        |       A        |                    opcode: "i32.const" (0x41) 0x387-0x388 (1)
0x380|                        01                     |        .       |                    n: 1 (valid) 0x388-0x389 (1)
     |                                               |                |                  [3]{}: in 0x389-0x38b (2)
0x380|                           fd                  |         .      |                    opcode: "vector" (0xfd) 0x389-0x38a (1)
0x380|                              6d               |          m     |                    v_opcode: "i8x16.shr_u" (109) 0x38a-0x38b (1)
     |                                               |                |                  [4]{}: in 0x38b-0x38d (2)
0x380|                                 41            |           A    |                    opcode: "i32.const" (0x41) 0x38b-0x38c (1)
0x380|                                    01         |            .   |                    n: 1 (valid) 0x38c-0x38d (1)
     |                                               |                |                  [5]{}: in 0x38d-0x38f (2)
0x380|                                       fd      |             .  |                    opcode: "vector" (0xfd) 0x38d-0x38e (1)
0x380|                                          6d   |              m |                    v_opcode: "i8x16.shr_u" (109) 0x38e-0x38f (1)
     |                                               |                |                  [6]{}: in 0x38f-0x391 (2)
0x380|                                             41|               A|                    opcode: "i32.const" (0x41) 0x38f-0x390 (1)
0x390|01                                             |.               |                    n: 1 (valid) 0x390-0x391 (1)
     |                                               |                |                  [7]{}: in 0x391-0x393 (2)
0x390|   fd                                          | .              |                    opcode: "vector" (0xfd) 0x391-0x392 (1)
0x390|      6d                                       |  m             |                    v_opcode: "i8x16.shr_u" (109) 0x392-0x393 (1)
     |                                               |                |                  [8]{}: in 0x393-0x394 (1)
0x390|         1a                                    |   .            |                    opcode: "drop" (0x1a) 0x393-0x394 (1)
     |                                               |                |                  [9]{}: in 0x394-0x395 (1)
0x390|            0b                                 |    .           |                    opcode: "end" (0xb) 0x394-0x395 (1)
     |                                               |                |            [15]{}: code 0x395-0x3ae (25)
0x390|               18                              |     .          |              size: 24 (valid) 0x395-0x396 (1)
     |                                               |                |              code{}: 0x396-0x3ae (24)
     |                                               |                |                t{}: 0x396-0x397 (1)
0x390|                  00                           |      .         |                  n: 0 (valid) 0x396-0x397 (1)
     |                                               |                |                  x[0:0]: 0x397-0x397 (0)
     |                                               |                |                e[0:10]: 0x397-0x3ae (23)
     |                                               |                |                  [0]{}: in 0x397-0x399 (2)
0x390|                     41                        |       A        |                    opcode: "i32.const" (0x41) 0x397-0x398 (1)
0x390|                        00                     |        .       |                    n: 0 (valid) 0x398-0x399 (1)
     |                                               |                |                  [1]{}: in 0x399-0x39d (4)
0x390|                           fd                  |         .      |                    opcode: "vector" (0xfd) 0x399-0x39a (1)
0x390|                              00               |          .     |                    v_opcode: "v128.load" (0) 0x39a-0x39b (1)
     |                                               |                |                    m{}: 0x39b-0x39d (2)
0x390|                                 04            |           .    |                      a: 4 (valid) 0x39b-0x39c (1)
0x390|                                    00         |            .   |                      o: 0 (valid) 0x39c-0x39d (1)
     |                                               |                |                  [2]{}: in 0x39d-0x39f (2)
0x390|                                       41      |             A  |                    opcode: "i32.const" (0x41) 0x39d-0x39e (1)
0x390|                                          01   |              . |                    n: 1 (valid) 0x39e-0x39f (1)
     |                                               |                |                  [3]{}: in 0x39f-0x3a2 (3)
0x390|                                             fd|               .|                    opcode: "vector" (0xfd) 0x39f-0x3a0 (1)
0x3a0|8b 01                                          |..              |                    v_opcode: "i16x8.shl" (139) 0x3a0-0x3a2 (2)
     |                                               |                |                  [4]{}: in 0x3a2-0x3a4 (2)
0x3a0|      41                                       |  A             |                    opcode: "i32.const" (0x41) 0x3a2-0x3a3 (1)
0x3a0|         01                                    |   .            |                    n: 1 (valid) 0x3a3-0x3a4 (1)
     |                                               |                |                  [5]{}: in 0x3a4-0x3a7 (3)
0x3a0|            fd                                 |    .           |                    opcode: "vector" (0xfd) 0x3a4-0x3a5 (1)
0x3a0|               8b 01                           |     ..         |                    v_opcode: "i16x8.shl" (139) 0x3a5-0x3a7 (2)
     |                                               |                |                  [6]{}: in 0x3a7-0x3a9 (2)
0x3a0|                     41                        |       A        |                    opcode: "i32.const" (0x41) 0x3a7-0x3a8 (1)
0x3a0|                        01                     |        .       |                    n: 1 (valid) 0x3a8-0x3a9 (1)
     |                                               |                |                  [7]{}: in 0x3a9-0x3ac (3)
0x3a0|                           fd                  |         .      |                    opcode: "vector" (0xfd) 0x3a9-0x3aa (1)
0x3a0|                              8b 01            |          ..    |                    v_opcode: "i16x8.shl" (139) 0x3aa-0x3ac (2)
     |                                               |                |                  [8]{}: in 0x3ac-0x3ad (1)
0x3a0|                                    1a         |            .   |                    opcode: "drop" (0x1a) 0x3ac-0x3ad (1)
     |                                               |                |                  [9]{}: in 0x3ad-0x3ae (1)
0x3a0|                                       0b      |             .  |                    opcode: "end" (0xb) 0x3ad-0x3ae (1)
     |                                               |                |            [16]{}: code 0x3ae-0x3c7 (25)
0x3a0|                                          18   |              . |              size: 24 (valid) 0x3ae-0x3af (1)
     |                                               |                |              code{}: 0x3af-0x3c7 (24)
     |                                               |                |                t{}: 0x3af-0x3b0 (1)
0x3a0|                                             00|               .|                  n: 0 (valid) 0x3af-0x3b0 (1)
     |                                               |                |                  x[0:0]: 0x3b0-0x3b0 (0)
     |                                               |                |                e[0:10]: 0x3b0-0x3c7 (23)
     |                                               |                |                  [0]{}: in 0x3b0-0x3b2 (2)
0x3b0|41                                             |A               |                    opcode: "i32.const" (0x41) 0x3b0-0x3b1 (1)
0x3b0|   00                                          | .              |                    n: 0 (valid) 0x3b1-0x3b2 (1)
     |                                               |                |                  [1]{}: in 0x3b2-0x3b6 (4)
0x3b0|      fd                                       |  .             |                    opcode: "vector" (0xfd) 0x3b2-0x3b3 (1)
0x3b0|         00                                    |   .            |                    v_opcode: "v128.load" (0) 0x3b3-0x3b4 (1)
     |                                               |                |                    m{}: 0x3b4-0x3b6 (2)
0x3b0|            04                                 |    .           |                      a: 4 (valid) 0x3b4-0x3b5 (1)
0x3b0|               00                              |     .          |                      o: 0 (valid) 0x3b5-0x3b6 (1)
     |                                               |                |                  [2]{}: in 0x3b6-0x3b8 (2)
0x3b0|                  41                           |      A         |                    opcode: "i32.const" (0x41) 0x3b6-0x3b7 (1)
0x3b0|                     01                        |       .        |                    n: 1 (valid) 0x3b7-0x3b8 (1)
     |                                               |                |                  [3]{}: in 0x3b8-0x3bb (3)
0x3b0|                        fd                     |        .       |                    opcode: "vector" (0xfd) 0x3b8-0x3b9 (1)
0x3b0|                           8c 01               |         ..     |                    v_opcode: "i16x8.shr_s" (140) 0x3b9-0x3bb (2)
     |                                               |                |                  [4]{}: in 0x3bb-0x3bd (2)
0x3b0|                                 41            |           A    |                    opcode: "i32.const" (0x41) 0x3bb-0x3bc (1)
0x3b0|                                    01         |            .   |                    n: 1 (valid) 0x3bc-0x3bd (1)
     |                                               |                |                  [5]{}: in 0x3bd-0x3c0 (3)
0x3b0|                                       fd      |             .  |                    opcode: "vector" (0xfd) 0x3bd-0x3be (1)
0x3b0|                                          8c 01|              ..|                    v_opcode: "i16x8.shr_s" (140) 0x3be-0x3c0 (2)
     |                                               |                |                  [6]{}: in 0x3c0-0x3c2 (2)
0x3c0|41                                             |A               |                    opcode: "i32.const" (0x41) 0x3c0-0x3c1 (1)
0x3c0|   01                                          | .              |                    n: 1 (valid) 0x3c1-0x3c2 (1)
     |                                               |                |                  [7]{}: in 0x3c2-0x3c5 (3)
0x3c0|      fd                                       |  .             |                    opcode: "vector" (0xfd) 0x3c2-0x3c3 (1)
0x3c0|         8c 01                                 |   ..           |                    v_opcode: "i16x8.shr_s" (140) 0x3c3-0x3c5 (2)
     |                                               |                |                  [8]{}: in 0x3c5-0x3c6 (1)
0x3c0|               1a                              |     .          |                    opcode: "drop" (0x1a) 0x3c5-0x3c6 (1)
     |                                               |                |                  [9]{}: in 0x3c6-0x3c7 (1)
0x3c0|                  0b                           |      .         |                    opcode: "end" (0xb) 0x3c6-0x3c7 (1)
     |                                               |                |            [17]{}: code 0x3c7-0x3e0 (25)
0x3c0|                     18                        |       .        |              size: 24 (valid) 0x3c7-0x3c8 (1)
     |                                               |                |              code{}: 0x3c8-0x3e0 (24)
     |                                               |                |                t{}: 0x3c8-0x3c9 (1)
0x3c0|                        00                     |        .       |                  n: 0 (valid) 0x3c8-0x3c9 (1)
     |                                               |                |                  x[0:0]: 0x3c9-0x3c9 (0)
     |                                               |                |                e[0:10]: 0x3c9-0x3e0 (23)
     |                                               |                |                  [0]{}: in 0x3c9-0x3cb (2)
0x3c0|                           41                  |         A      |                    opcode: "i32.const" (0x41) 0x3c9-0x3ca (1)
0x3c0|                              00               |          .     |                    n: 0 (valid) 0x3ca-0x3cb (1)
     |                                               |                |                  [1]{}: in 0x3cb-0x3cf (4)
0x3c0|                                 fd            |           .    |                    opcode: "vector" (0xfd) 0x3cb-0x3cc (1)
0x3c0|                                    00         |            .   |                    v_opcode: "v128.load" (0) 0x3cc-0x3cd (1)
     |                                               |                |                    m{}: 0x3cd-0x3cf (2)
0x3c0|                                       04      |             .  |                      a: 4 (valid) 0x3cd-0x3ce (1)
0x3c0|                                          00   |              . |                      o: 0 (valid) 0x3ce-0x3cf (1)
     |                                               |                |                  [2]{}: in 0x3cf-0x3d1 (2)
0x3c0|                                             41|               A|                    opcode: "i32.const" (0x41) 0x3cf-0x3d0 (1)
0x3d0|01                                             |.               |                    n: 1 (valid) 0x3d0-0x3d1 (1)
     |                                               |                |                  [3]{}: in 0x3d1-0x3d4 (3)
0x3d0|   fd                                          | .              |                    opcode: "vector" (0xfd) 0x3d1-0x3d2 (1)
0x3d0|      8d 01                                    |  ..            |                    v_opcode: "i16x8.shr_u" (141) 0x3d2-0x3d4 (2)
     |                                               |                |                  [4]{}: in 0x3d4-0x3d6 (2)
0x3d0|            41                                 |    A           |                    opcode: "i32.const" (0x41) 0x3d4-0x3d5 (1)
0x3d0|               01                              |     .          |                    n: 1 (valid) 0x3d5-0x3d6 (1)
     |                                               |                |                  [5]{}: in 0x3d6-0x3d9 (3)
0x3d0|                  fd                           |      .         |                    opcode: "vector" (0xfd) 0x3d6-0x3d7 (1)
0x3d0|                     8d 01                     |       ..       |                    v_opcode: "i16x8.shr_u" (141) 0x3d7-0x3d9 (2)
     |                                               |                |                  [6]{}: in 0x3d9-0x3db (2)
0x3d0|                           41                  |         A      |                    opcode: "i32.const" (0x41) 0x3d9-0x3da (1)
0x3d0|                              01               |          .     |                    n: 1 (valid) 0x3da-0x3db (1)
     |                                               |                |                  [7]{}: in 0x3db-0x3de (3)
0x3d0|                                 fd            |           .    |                    opcode: "vector" (0xfd) 0x3db-0x3dc (1)
0x3d0|                                    8d 01      |            ..  |                    v_opcode: "i16x8.shr_u" (141) 0x3dc-0x3de (2)
     |                                               |                |                  [8]{}: in 0x3de-0x3df (1)
0x3d0|                                          1a   |              . |                    opcode: "drop" (0x1a) 0x3de-0x3df (1)
     |                                               |                |                  [9]{}: in 0x3df-0x3e0 (1)
0x3d0|                                             0b|               .|                    opcode: "end" (0xb) 0x3df-0x3e0 (1)
     |                                               |                |            [18]{}: code 0x3e0-0x3f9 (25)
0x3e0|18                                             |.               |              size: 24 (valid) 0x3e0-0x3e1 (1)
     |                                               |                |              code{}: 0x3e1-0x3f9 (24)
     |                                               |                |                t{}: 0x3e1-0x3e2 (1)
0x3e0|   00                                          | .              |                  n: 0 (valid) 0x3e1-0x3e2 (1)
     |                                               |                |                  x[0:0]: 0x3e2-0x3e2 (0)
     |                                               |                |                e[0:10]: 0x3e2-0x3f9 (23)
     |                                               |                |                  [0]{}: in 0x3e2-0x3e4 (2)
0x3e0|      41                                       |  A             |                    opcode: "i32.const" (0x41) 0x3e2-0x3e3 (1)
0x3e0|         00                                    |   .            |                    n: 0 (valid) 0x3e3-0x3e4 (1)
     |                                               |                |                  [1]{}: in 0x3e4-0x3e8 (4)
0x3e0|            fd                                 |    .           |                    opcode: "vector" (0xfd) 0x3e4-0x3e5 (1)
0x3e0|               00                              |     .          |                    v_opcode: "v128.load" (0) 0x3e5-0x3e6 (1)
     |                                               |                |                    m{}: 0x3e6-0x3e8 (2)
0x3e0|                  04                           |      .         |                      a: 4 (valid) 0x3e6-0x3e7 (1)
0x3e0|                     00                        |       .        |                      o: 0 (valid) 0x3e7-0x3e8 (1)
     |                                               |                |                  [2]{}: in 0x3e8-0x3ea (2)
0x3e0|                        41                     |        A       |                    opcode: "i32.const" (0x41) 0x3e8-0x3e9 (1)
0x3e0|                           01                  |         .      |                    n: 1 (valid) 0x3e9-0x3ea (1)
     |                                               |                |                  [3]{}: in 0x3ea-0x3ed (3)
0x3e0|                              fd               |          .     |                    opcode: "vector" (0xfd) 0x3ea-0x3eb (1)
0x3e0|                                 ab 01         |           ..   |                    v_opcode: "i32x4.shl" (171) 0x3eb-0x3ed (2)
     |                                               |                |                  [4]{}: in 0x3ed-0x3ef (2)
0x3e0|                                       41      |             A  |                    opcode: "i32.const" (0x41) 0x3ed-0x3ee (1)
0x3e0|                                          01   |              . |                    n: 1 (valid) 0x3ee-0x3ef (1)
     |                                               |                |                  [5]{}: in 0x3ef-0x3f2 (3)
0x3e0|                                             fd|               .|                    opcode: "vector" (0xfd) 0x3ef-0x3f0 (1)
0x3f0|ab 01                                          |..              |                    v_opcode: "i32x4.shl" (171) 0x3f0-0x3f2 (2)
     |                                               |                |                  [6]{}: in 0x3f2-0x3f4 (2)
0x3f0|      41                                       |  A             |                    opcode: "i32.const" (0x41) 0x3f2-0x3f3 (1)
0x3f0|         01                                    |   .            |                    n: 1 (valid) 0x3f3-0x3f4 (1)
     |                                               |                |                  [7]{}: in 0x3f4-0x3f7 (3)
0x3f0|            fd                                 |    .           |                    opcode: "vector" (0xfd) 0x3f4-0x3f5 (1)
0x3f0|               ab 01                           |     ..         |                    v_opcode: "i32x4.shl" (171) 0x3f5-0x3f7 (2)
     |                                               |                |                  [8]{}: in 0x3f7-0x3f8 (1)
0x3f0|                     1a                        |       .        |                    opcode: "drop" (0x1a) 0x3f7-0x3f8 (1)
     |                                               |                |                  [9]{}: in 0x3f8-0x3f9 (1)
0x3f0|                        0b                     |        .       |                    opcode: "end" (0xb) 0x3f8-0x3f9 (1)
     |                                               |                |            [19]{}: code 0x3f9-0x412 (25)
0x3f0|                           18                  |         .      |              size: 24 (valid) 0x3f9-0x3fa (1)
     |                                               |                |              code{}: 0x3fa-0x412 (24)
     |                                               |                |                t{}: 0x3fa-0x3fb (1)
0x3f0|                              00               |          .     |                  n: 0 (valid) 0x3fa-0x3fb (1)
     |                                               |                |                  x[0:0]: 0x3fb-0x3fb (0)
     |                                               |                |                e[0:10]: 0x3fb-0x412 (23)
     |                                               |                |                  [0]{}: in 0x3fb-0x3fd (2)
0x3f0|                                 41            |           A    |                    opcode: "i32.const" (0x41) 0x3fb-0x3fc (1)
0x3f0|                                    00         |            .   |                    n: 0 (valid) 0x3fc-0x3fd (1)
     |                                               |                |                  [1]{}: in 0x3fd-0x401 (4)
0x3f0|                                       fd      |             .  |                    opcode: "vector" (0xfd) 0x3fd-0x3fe (1)
0x3f0|                                          00   |              . |                    v_opcode: "v128.load" (0) 0x3fe-0x3ff (1)
     |                                               |                |                    m{}: 0x3ff-0x401 (2)
0x3f0|                                             04|               .|                      a: 4 (valid) 0x3ff-0x400 (1)
0x400|00                                             |.               |                      o: 0 (valid) 0x400-0x401 (1)
     |                                               |                |                  [2]{}: in 0x401-0x403 (2)
0x400|   41                                          | A              |                    opcode: "i32.const" (0x41) 0x401-0x402 (1)
0x400|      01                                       |  .             |                    n: 1 (valid) 0x402-0x403 (1)
     |                                               |                |                  [3]{}: in 0x403-0x406 (3)
0x400|         fd                                    |   .            |                    opcode: "vector" (0xfd) 0x403-0x404 (1)
0x400|            ac 01                              |    ..          |                    v_opcode: "i32x4.shr_s" (172) 0x404-0x406 (2)
     |                                               |                |                  [4]{}: in 0x406-0x408 (2)
0x400|                  41                           |      A         |                    opcode: "i32.const" (0x41) 0x406-0x407 (1)
0x400|                     01                        |       .        |                    n: 1 (valid) 0x407-0x408 (1)
     |                                               |                |                  [5]{}: in 0x408-0x40b (3)
0x400|                        fd                     |        .       |                    opcode: "vector" (0xfd) 0x408-0x409 (1)
0x400|                           ac 01               |         ..     |                    v_opcode: "i32x4.shr_s" (172) 0x409-0x40b (2)
     |                                               |                |                  [6]{}: in 0x40b-0x40d (2)
0x400|                                 41            |           A    |                    opcode: "i32.const" (0x41) 0x40b-0x40c (1)
0x400|                                    01         |            .   |                    n: 1 (valid) 0x40c-0x40d (1)
     |                                               |                |                  [7]{}: in 0x40d-0x410 (3)
0x400|                                       fd      |             .  |                    opcode: "vector" (0xfd) 0x40d-0x40e (1)
0x400|                                          ac 01|              ..|                    v_opcode: "i32x4.shr_s" (172) 0x40e-0x410 (2)
     |                                               |                |                  [8]{}: in 0x410-0x411 (1)
0x410|1a                                             |.               |                    opcode: "drop" (0x1a) 0x410-0x411 (1)
     |                                               |                |                  [9]{}: in 0x411-0x412 (1)
0x410|   0b                                          | .              |                    opcode: "end" (0xb) 0x411-0x412 (1)
     |                                               |                |            [20]{}: code 0x412-0x42b (25)
0x410|      18                                       |  .             |              size: 24 (valid) 0x412-0x413 (1)
     |                                               |                |              code{}: 0x413-0x42b (24)
     |                                               |                |                t{}: 0x413-0x414 (1)
0x410|         00                                    |   .            |                  n: 0 (valid) 0x413-0x414 (1)
     |                                               |                |                  x[0:0]: 0x414-0x414 (0)
     |                                               |                |                e[0:10]: 0x414-0x42b (23)
     |                                               |                |                  [0]{}: in 0x414-0x416 (2)
0x410|            41                                 |    A           |                    opcode: "i32.const" (0x41) 0x414-0x415 (1)
0x410|               00                              |     .          |                    n: 0 (valid) 0x415-0x416 (1)
     |                                               |                |                  [1]{}: in 0x416-0x41a (4)
0x410|                  fd                           |      .         |                    opcode: "vector" (0xfd) 0x416-0x417 (1)
0x410|                     00                        |       .        |                    v_opcode: "v128.load" (0) 0x417-0x418 (1)
     |                                               |                |                    m{}: 0x418-0x41a (2)
0x410|                        04                     |        .       |                      a: 4 (valid) 0x418-0x419 (1)
0x410|                           00                  |         .      |                      o: 0 (valid) 0x419-0x41a (1)
     |                                               |                |                  [2]{}: in 0x41a-0x41c (2)
0x410|                              41               |          A     |                    opcode: "i32.const" (0x41) 0x41a-0x41b (1)
0x410|                                 01            |           .    |                    n: 1 (valid) 0x41b-0x41c (1)
     |                                               |                |                  [3]{}: in 0x41c-0x41f (3)
0x410|                                    fd         |            .   |                    opcode: "vector" (0xfd) 0x41c-0x41d (1)
0x410|                                       ad 01   |             .. |                    v_opcode: "i32x4.shr_u" (173) 0x41d-0x41f (2)
     |                                               |                |                  [4]{}: in 0x41f-0x421 (2)
0x410|                                             41|               A|                    opcode: "i32.const" (0x41) 0x41f-0x420 (1)
0x420|01                                             |.               |                    n: 1 (valid) 0x420-0x421 (1)
     |                                               |                |                  [5]{}: in 0x421-0x424 (3)
0x420|   fd                                          | .              |                    opcode: "vector" (0xfd) 0x421-0x422 (1)
0x420|      ad 01                                    |  ..            |                    v_opcode: "i32x4.shr_u" (173) 0x422-0x424 (2)
     |                                               |                |                  [6]{}: in 0x424-0x426 (2)
0x420|            41                                 |    A           |                    opcode: "i32.const" (0x41) 0x424-0x425 (1)
0x420|               01                              |     .          |                    n: 1 (valid) 0x425-0x426 (1)
     |                                               |                |                  [7]{}: in 0x426-0x429 (3)
0x420|                  fd                           |      .         |                    opcode: "vector" (0xfd) 0x426-0x427 (1)
0x420|                     ad 01                     |       ..       |                    v_opcode: "i32x4.shr_u" (173) 0x427-0x429 (2)
     |                                               |                |                  [8]{}: in 0x429-0x42a (1)
0x420|                           1a                  |         .      |                    opcode: "drop" (0x1a) 0x429-0x42a (1)
     |                                               |                |                  [9]{}: in 0x42a-0x42b (1)
0x420|                              0b               |          .     |                    opcode: "end" (0xb) 0x42a-0x42b (1)
     |                                               |                |            [21]{}: code 0x42b-0x444 (25)
0x420|                                 18            |           .    |              size: 24 (valid) 0x42b-0x42c (1)
     |                                               |                |              code{}: 0x42c-0x444 (24)
     |                                               |                |                t{}: 0x42c-0x42d (1)
0x420|                                    00         |            .   |                  n: 0 (valid) 0x42c-0x42d (1)
     |                                               |                |                  x[0:0]: 0x42d-0x42d (0)
     |                                               |                |                e[0:10]: 0x42d-0x444 (23)
     |                                               |                |                  [0]{}: in 0x42d-0x42f (2)
0x420|                                       41      |             A  |                    opcode: "i32.const" (0x41) 0x42d-0x42e (1)
0x420|                                          00   |              . |                    n: 0 (valid) 0x42e-0x42f (1)
     |                                               |                |                  [1]{}: in 0x42f-0x433 (4)
0x420|                                             fd|               .|                    opcode: "vector" (0xfd) 0x42f-0x430 (1)
0x430|00                                             |.               |                    v_opcode: "v128.load" (0) 0x430-0x431 (1)
     |                                               |                |                    m{}: 0x431-0x433 (2)
0x430|   04                                          | .              |                      a: 4 (valid) 0x431-0x432 (1)
0x430|      00                                       |  .             |                      o: 0 (valid) 0x432-0x433 (1)
     |                                               |                |                  [2]{}: in 0x433-0x435 (2)
0x430|         41                                    |   A            |                    opcode: "i32.const" (0x41) 0x433-0x434 (1)
0x430|            01                                 |    .           |                    n: 1 (valid) 0x434-0x435 (1)
     |                                               |                |                  [3]{}: in 0x435-0x438 (3)
0x430|               fd                              |     .          |                    opcode: "vector" (0xfd) 0x435-0x436 (1)
0x430|                  cb 01                        |      ..        |                    v_opcode: "i64x2.shl" (203) 0x436-0x438 (2)
     |                                               |                |                  [4]{}: in 0x438-0x43a (2)
0x430|                        41                     |        A       |                    opcode: "i32.const" (0x41) 0x438-0x439 (1)
0x430|                           01                  |         .      |                    n: 1 (valid) 0x439-0x43a (1)
     |                                               |                |                  [5]{}: in 0x43a-0x43d (3)
0x430|                              fd               |          .     |                    opcode: "vector" (0xfd) 0x43a-0x43b (1)
0x430|                                 cb 01         |           ..   |                    v_opcode: "i64x2.shl" (203) 0x43b-0x43d (2)
     |                                               |                |                  [6]{}: in 0x43d-0x43f (2)
0x430|                                       41      |             A  |                    opcode: "i32.const" (0x41) 0x43d-0x43e (1)
0x430|                                          01   |              . |                    n: 1 (valid) 0x43e-0x43f (1)
     |                                               |                |                  [7]{}: in 0x43f-0x442 (3)
0x430|                                             fd|               .|                    opcode: "vector" (0xfd) 0x43f-0x440 (1)
0x440|cb 01                                          |..              |                    v_opcode: "i64x2.shl" (203) 0x440-0x442 (2)
     |                                               |                |                  [8]{}: in 0x442-0x443 (1)
0x440|      1a                                       |  .             |                    opcode: "drop" (0x1a) 0x442-0x443 (1)
     |                                               |                |                  [9]{}: in 0x443-0x444 (1)
0x440|         0b                                    |   .            |                    opcode: "end" (0xb) 0x443-0x444 (1)
     |                                               |                |            [22]{}: code 0x444-0x45d (25)
0x440|            18                                 |    .           |              size: 24 (valid) 0x444-0x445 (1)
     |                                               |                |              code{}: 0x445-0x45d (24)
     |                                               |                |                t{}: 0x445-0x446 (1)
0x440|               00                              |     .          |                  n: 0 (valid) 0x445-0x446 (1)
     |                                               |                |                  x[0:0]: 0x446-0x446 (0)
     |                                               |                |                e[0:10]: 0x446-0x45d (23)
     |                                               |                |                  [0]{}: in 0x446-0x448 (2)
0x440|                  41                           |      A         |                    opcode: "i32.const" (0x41) 0x446-0x447 (1)
0x440|                     00                        |       .        |                    n: 0 (valid) 0x447-0x448 (1)
     |                                               |                |                  [1]{}: in 0x448-0x44c (4)
0x440|                        fd                     |        .       |                    opcode: "vector" (0xfd) 0x448-0x449 (1)
0x440|                           00                  |         .      |                    v_opcode: "v128.load" (0) 0x449-0x44a (1)
     |                                               |                |                    m{}: 0x44a-0x44c (2)
0x440|                              04               |          .     |                      a: 4 (valid) 0x44a-0x44b (1)
0x440|                                 00            |           .    |                      o: 0 (valid) 0x44b-0x44c (1)
     |                                               |                |                  [2]{}: in 0x44c-0x44e (2)
0x440|                                    41         |            A   |                    opcode: "i32.const" (0x41) 0x44c-0x44d (1)
0x440|                                       01      |             .  |                    n: 1 (valid) 0x44d-0x44e (1)
     |                                               |                |                  [3]{}: in 0x44e-0x451 (3)
0x440|                                          fd   |              . |                    opcode: "vector" (0xfd) 0x44e-0x44f (1)
0x440|                                             cc|               .|                    v_opcode: "i64x2.shr_s" (204) 0x44f-0x451 (2)
0x450|01                                             |.               |
     |                                               |                |                  [4]{}: in 0x451-0x453 (2)
0x450|   41                                          | A              |                    opcode: "i32.const" (0x41) 0x451-0x452 (1)
0x450|      01                                       |  .             |                    n: 1 (valid) 0x452-0x453 (1)
     |                                               |                |                  [5]{}: in 0x453-0x456 (3)
0x450|         fd                                    |   .            |                    opcode: "vector" (0xfd) 0x453-0x454 (1)
0x450|            cc 01                              |    ..          |                    v_opcode: "i64x2.shr_s" (204) 0x454-0x456 (2)
     |                                               |                |                  [6]{}: in 0x456-0x458 (2)
0x450|                  41                           |      A         |                    opcode: "i32.const" (0x41) 0x456-0x457 (1)
0x450|                     01                        |       .        |                    n: 1 (valid) 0x457-0x458 (1)
     |                                               |                |                  [7]{}: in 0x458-0x45b (3)
0x450|                        fd                     |        .       |                    opcode: "vector" (0xfd) 0x458-0x459 (1)
0x450|                           cc 01               |         ..     |                    v_opcode: "i64x2.shr_s" (204) 0x459-0x45b (2)
     |                                               |                |                  [8]{}: in 0x45b-0x45c (1)
0x450|                                 1a            |           .    |                    opcode: "drop" (0x1a) 0x45b-0x45c (1)
     |                                               |                |                  [9]{}: in 0x45c-0x45d (1)
0x450|                                    0b         |            .   |                    opcode: "end" (0xb) 0x45c-0x45d (1)
     |                                               |                |            [23]{}: code 0x45d-0x476 (25)
0x450|                                       18      |             .  |              size: 24 (valid) 0x45d-0x45e (1)
     |                                               |                |              code{}: 0x45e-0x476 (24)
     |                                               |                |                t{}: 0x45e-0x45f (1)
0x450|                                          00   |              . |                  n: 0 (valid) 0x45e-0x45f (1)
     |                                               |                |                  x[0:0]: 0x45f-0x45f (0)
     |                                               |                |                e[0:10]: 0x45f-0x476 (23)
     |                                               |                |                  [0]{}: in 0x45f-0x461 (2)
0x450|                                             41|               A|                    opcode: "i32.const" (0x41) 0x45f-0x460 (1)
0x460|00                                             |.               |                    n: 0 (valid) 0x460-0x461 (1)
     |                                               |                |                  [1]{}: in 0x461-0x465 (4)
0x460|   fd                                          | .              |                    opcode: "vector" (0xfd) 0x461-0x462 (1)
0x460|      00                                       |  .             |                    v_opcode: "v128.load" (0) 0x462-0x463 (1)
     |                                               |                |                    m{}: 0x463-0x465 (2)
0x460|         04                                    |   .            |                      a: 4 (valid) 0x463-0x464 (1)
0x460|            00                                 |    .           |                      o: 0 (valid) 0x464-0x465 (1)
     |                                               |                |                  [2]{}: in 0x465-0x467 (2)
0x460|               41                              |     A          |                    opcode: "i32.const" (0x41) 0x465-0x466 (1)
0x460|                  01                           |      .         |                    n: 1 (valid) 0x466-0x467 (1)
     |                                               |                |                  [3]{}: in 0x467-0x46a (3)
0x460|                     fd                        |       .        |                    opcode: "vector" (0xfd) 0x467-0x468 (1)
0x460|                        cd 01                  |        ..      |                    v_opcode: "i64x2.shr_u" (205) 0x468-0x46a (2)
     |                                               |                |                  [4]{}: in 0x46a-0x46c (2)
0x460|                              41               |          A     |                    opcode: "i32.const" (0x41) 0x46a-0x46b (1)
0x460|                                 01            |           .    |                    n: 1 (valid) 0x46b-0x46c (1)
     |                                               |                |                  [5]{}: in 0x46c-0x46f (3)
0x460|                                    fd         |            .   |                    opcode: "vector" (0xfd) 0x46c-0x46d (1)
0x460|                                       cd 01   |             .. |                    v_opcode: "i64x2.shr_u" (205) 0x46d-0x46f (2)
     |                                               |                |                  [6]{}: in 0x46f-0x471 (2)
0x460|                                             41|               A|                    opcode: "i32.const" (0x41) 0x46f-0x470 (1)
0x470|01                                             |.               |                    n: 1 (valid) 0x470-0x471 (1)
     |                                               |                |                  [7]{}: in 0x471-0x474 (3)
0x470|   fd                                          | .              |                    opcode: "vector" (0xfd) 0x471-0x472 (1)
0x470|      cd 01                                    |  ..            |                    v_opcode: "i64x2.shr_u" (205) 0x472-0x474 (2)
     |                                               |                |                  [8]{}: in 0x474-0x475 (1)
0x470|            1a                                 |    .           |                    opcode: "drop" (0x1a) 0x474-0x475 (1)
     |                                               |                |                  [9]{}: in 0x475-0x476 (1)
0x470|               0b|                             |     .|         |                    opcode: "end" (0xb) 0x475-0x476 (1)
