$ fq -d wasm dv simd_bit_shift-0.wasm
     |00 01 02 03 04 05 06 07 08 09 0a 0b 0c 0d 0e 0f|0123456789abcdef|.{}: simd_bit_shift-0.wasm (wasm) 0x0-0x282.7 (643)
0x000|00 61 73 6d                                    |.asm            |  magic: raw bits (valid) 0x0-0x3.7 (4)
0x000|            01 00 00 00                        |    ....        |  version: 1 0x4-0x7.7 (4)
     |                                               |                |  sections[0:4]: 0x8-0x282.7 (635)
     |                                               |                |    [0]{}: section 0x8-0x15.7 (14)
0x000|                        01                     |        .       |      id: "type section" (1) 0x8-0x8.7 (1)
0x000|                           0c                  |         .      |      size: 12 0x9-0x9.7 (1)
     |                                               |                |      content{}: 0xa-0x15.7 (12)
     |                                               |                |        ft{}: 0xa-0x15.7 (12)
0x000|                              02               |          .     |          n: 2 0xa-0xa.7 (1)
     |                                               |                |          x[0:2]: 0xb-0x15.7 (11)
     |                                               |                |            [0]{}: ft 0xb-0x10.7 (6)
0x000|                                 60            |           `    |              tag: 0x60 (valid) 0xb-0xb.7 (1)
     |                                               |                |              rt1{}: 0xc-0xe.7 (3)
0x000|                                    02         |            .   |                n: 2 0xc-0xc.7 (1)
     |                                               |                |                x[0:2]: 0xd-0xe.7 (2)
0x000|                                       7b      |             {  |                  [0]: "v128" (0x7b) t 0xd-0xd.7 (1)
0x000|                                          7f   |              . |                  [1]: "i32" (0x7f) t 0xe-0xe.7 (1)
     |                                               |                |              rt2{}: 0xf-0x10.7 (2)
0x000|                                             01|               .|                n: 1 0xf-0xf.7 (1)
     |                                               |                |                x[0:1]: 0x10-0x10.7 (1)
0x010|7b                                             |{               |                  [0]: "v128" (0x7b) t 0x10-0x10.7 (1)
     |                                               |                |            [1]{}: ft 0x11-0x15.7 (5)
0x010|   60                                          | `              |              tag: 0x60 (valid) 0x11-0x11.7 (1)
     |                                               |                |              rt1{}: 0x12-0x13.7 (2)
0x010|      01                                       |  .             |                n: 1 0x12-0x12.7 (1)
     |                                               |                |                x[0:1]: 0x13-0x13.7 (1)
0x010|         7b                                    |   {            |                  [0]: "v128" (0x7b) t 0x13-0x13.7 (1)
     |                                               |                |              rt2{}: 0x14-0x15.7 (2)
0x010|            01                                 |    .           |                n: 1 0x14-0x14.7 (1)
     |                                               |                |                x[0:1]: 0x15-0x15.7 (1)
0x010|               7b                              |     {          |                  [0]: "v128" (0x7b) t 0x15-0x15.7 (1)
     |                                               |                |    [1]{}: section 0x16-0x30.7 (27)
0x010|                  03                           |      .         |      id: "function section" (3) 0x16-0x16.7 (1)
0x010|                     19                        |       .        |      size: 25 0x17-0x17.7 (1)
     |                                               |                |      content{}: 0x18-0x30.7 (25)
     |                                               |                |        x{}: 0x18-0x30.7 (25)
0x010|                        18                     |        .       |          n: 24 0x18-0x18.7 (1)
     |                                               |                |          x[0:24]: 0x19-0x30.7 (24)
0x010|                           00                  |         .      |            [0]: 0 x 0x19-0x19.7 (1)
0x010|                              00               |          .     |            [1]: 0 x 0x1a-0x1a.7 (1)
0x010|                                 00            |           .    |            [2]: 0 x 0x1b-0x1b.7 (1)
0x010|                                    00         |            .   |            [3]: 0 x 0x1c-0x1c.7 (1)
0x010|                                       00      |             .  |            [4]: 0 x 0x1d-0x1d.7 (1)
0x010|                                          00   |              . |            [5]: 0 x 0x1e-0x1e.7 (1)
0x010|                                             00|               .|            [6]: 0 x 0x1f-0x1f.7 (1)
0x020|00                                             |.               |            [7]: 0 x 0x20-0x20.7 (1)
0x020|   00                                          | .              |            [8]: 0 x 0x21-0x21.7 (1)
0x020|      00                                       |  .             |            [9]: 0 x 0x22-0x22.7 (1)
0x020|         00                                    |   .            |            [10]: 0 x 0x23-0x23.7 (1)
0x020|            00                                 |    .           |            [11]: 0 x 0x24-0x24.7 (1)
0x020|               01                              |     .          |            [12]: 1 x 0x25-0x25.7 (1)
0x020|                  01                           |      .         |            [13]: 1 x 0x26-0x26.7 (1)
0x020|                     01                        |       .        |            [14]: 1 x 0x27-0x27.7 (1)
0x020|                        01                     |        .       |            [15]: 1 x 0x28-0x28.7 (1)
0x020|                           01                  |         .      |            [16]: 1 x 0x29-0x29.7 (1)
0x020|                              01               |          .     |            [17]: 1 x 0x2a-0x2a.7 (1)
0x020|                                 01            |           .    |            [18]: 1 x 0x2b-0x2b.7 (1)
0x020|                                    01         |            .   |            [19]: 1 x 0x2c-0x2c.7 (1)
0x020|                                       01      |             .  |            [20]: 1 x 0x2d-0x2d.7 (1)
0x020|                                          01   |              . |            [21]: 1 x 0x2e-0x2e.7 (1)
0x020|                                             01|               .|            [22]: 1 x 0x2f-0x2f.7 (1)
0x030|01                                             |.               |            [23]: 1 x 0x30-0x30.7 (1)
     |                                               |                |    [2]{}: section 0x31-0x192.7 (354)
0x030|   07                                          | .              |      id: "export section" (7) 0x31-0x31.7 (1)
0x030|      df 02                                    |  ..            |      size: 351 0x32-0x33.7 (2)
     |                                               |                |      content{}: 0x34-0x192.7 (351)
     |                                               |                |        ex{}: 0x34-0x192.7 (351)
0x030|            18                                 |    .           |          n: 24 0x34-0x34.7 (1)
     |                                               |                |          x[0:24]: 0x35-0x192.7 (350)
     |                                               |                |            [0]{}: ex 0x35-0x40.7 (12)
     |                                               |                |              nm{}: 0x35-0x3e.7 (10)
0x030|               09                              |     .          |                n: 9 0x35-0x35.7 (1)
0x030|                  69 38 78 31 36 2e 73 68 6c   |      i8x16.shl |                b: "i8x16.shl" 0x36-0x3e.7 (9)
     |                                               |                |              d{}: 0x3f-0x40.7 (2)
0x030|                                             00|               .|                tag: "funcidx" (0x0) 0x3f-0x3f.7 (1)
0x040|00                                             |.               |                x: 0 0x40-0x40.7 (1)
     |                                               |                |            [1]{}: ex 0x41-0x4e.7 (14)
     |                                               |                |              nm{}: 0x41-0x4c.7 (12)
0x040|   0b                                          | .              |                n: 11 0x41-0x41.7 (1)
0x040|      69 38 78 31 36 2e 73 68 72 5f 73         |  i8x16.shr_s   |                b: "i8x16.shr_s" 0x42-0x4c.7 (11)
     |                                               |                |              d{}: 0x4d-0x4e.7 (2)
0x040|                                       00      |             .  |                tag: "funcidx" (0x0) 0x4d-0x4d.7 (1)
0x040|                                          01   |              . |                x: 1 0x4e-0x4e.7 (1)
     |                                               |                |            [2]{}: ex 0x4f-0x5c.7 (14)
     |                                               |                |              nm{}: 0x4f-0x5a.7 (12)
0x040|                                             0b|               .|                n: 11 0x4f-0x4f.7 (1)
0x050|69 38 78 31 36 2e 73 68 72 5f 75               |i8x16.shr_u     |                b: "i8x16.shr_u" 0x50-0x5a.7 (11)
     |                                               |                |              d{}: 0x5b-0x5c.7 (2)
0x050|                                 00            |           .    |                tag: "funcidx" (0x0) 0x5b-0x5b.7 (1)
0x050|                                    02         |            .   |                x: 2 0x5c-0x5c.7 (1)
     |                                               |                |            [3]{}: ex 0x5d-0x68.7 (12)
     |                                               |                |              nm{}: 0x5d-0x66.7 (10)
0x050|                                       09      |             .  |                n: 9 0x5d-0x5d.7 (1)
0x050|                                          69 31|              i1|                b: "i16x8.shl" 0x5e-0x66.7 (9)
0x060|36 78 38 2e 73 68 6c                           |6x8.shl         |
     |                                               |                |              d{}: 0x67-0x68.7 (2)
0x060|                     00                        |       .        |                tag: "funcidx" (0x0) 0x67-0x67.7 (1)
0x060|                        03                     |        .       |                x: 3 0x68-0x68.7 (1)
     |                                               |                |            [4]{}: ex 0x69-0x76.7 (14)
     |                                               |                |              nm{}: 0x69-0x74.7 (12)
0x060|                           0b                  |         .      |                n: 11 0x69-0x69.7 (1)
0x060|                              69 31 36 78 38 2e|          i16x8.|                b: "i16x8.shr_s" 0x6a-0x74.7 (11)
0x070|73 68 72 5f 73                                 |shr_s           |
     |                                               |                |              d{}: 0x75-0x76.7 (2)
0x070|               00                              |     .          |                tag: "funcidx" (0x0) 0x75-0x75.7 (1)
0x070|                  04                           |      .         |                x: 4 0x76-0x76.7 (1)
     |                                               |                |            [5]{}: ex 0x77-0x84.7 (14)
     |                                               |                |              nm{}: 0x77-0x82.7 (12)
0x070|                     0b                        |       .        |                n: 11 0x77-0x77.7 (1)
0x070|                        69 31 36 78 38 2e 73 68|        i16x8.sh|                b: "i16x8.shr_u" 0x78-0x82.7 (11)
0x080|72 5f 75                                       |r_u             |
     |                                               |                |              d{}: 0x83-0x84.7 (2)
0x080|         00                                    |   .            |                tag: "funcidx" (0x0) 0x83-0x83.7 (1)
0x080|            05                                 |    .           |                x: 5 0x84-0x84.7 (1)
     |                                               |                |            [6]{}: ex 0x85-0x90.7 (12)
     |                                               |                |              nm{}: 0x85-0x8e.7 (10)
0x080|               09                              |     .          |                n: 9 0x85-0x85.7 (1)
0x080|                  69 33 32 78 34 2e 73 68 6c   |      i32x4.shl |                b: "i32x4.shl" 0x86-0x8e.7 (9)
     |                                               |                |              d{}: 0x8f-0x90.7 (2)
0x080|                                             00|               .|                tag: "funcidx" (0x0) 0x8f-0x8f.7 (1)
0x090|06                                             |.               |                x: 6 0x90-0x90.7 (1)
     |                                               |                |            [7]{}: ex 0x91-0x9e.7 (14)
     |                                               |                |              nm{}: 0x91-0x9c.7 (12)
0x090|   0b                                          | .              |                n: 11 0x91-0x91.7 (1)
0x090|      69 33 32 78 34 2e 73 68 72 5f 73         |  i32x4.shr_s   |                b: "i32x4.shr_s" 0x92-0x9c.7 (11)
     |                                               |                |              d{}: 0x9d-0x9e.7 (2)
0x090|                                       00      |             .  |                tag: "funcidx" (0x0) 0x9d-0x9d.7 (1)
0x090|                                          07   |              . |                x: 7 0x9e-0x9e.7 (1)
     |                                               |                |            [8]{}: ex 0x9f-0xac.7 (14)
     |                                               |                |              nm{}: 0x9f-0xaa.7 (12)
0x090|                                             0b|               .|                n: 11 0x9f-0x9f.7 (1)
0x0a0|69 33 32 78 34 2e 73 68 72 5f 75               |i32x4.shr_u     |                b: "i32x4.shr_u" 0xa0-0xaa.7 (11)
     |                                               |                |              d{}: 0xab-0xac.7 (2)
0x0a0|                                 00            |           .    |                tag: "funcidx" (0x0) 0xab-0xab.7 (1)
0x0a0|                                    08         |            .   |                x: 8 0xac-0xac.7 (1)
     |                                               |                |            [9]{}: ex 0xad-0xb8.7 (12)
     |                                               |                |              nm{}: 0xad-0xb6.7 (10)
0x0a0|                                       09      |             .  |                n: 9 0xad-0xad.7 (1)
0x0a0|                                          69 36|              i6|                b: "i64x2.shl" 0xae-0xb6.7 (9)
0x0b0|34 78 32 2e 73 68 6c                           |4x2.shl         |
     |                                               |                |              d{}: 0xb7-0xb8.7 (2)
0x0b0|                     00                        |       .        |                tag: "funcidx" (0x0) 0xb7-0xb7.7 (1)
0x0b0|                        09                     |        .       |                x: 9 0xb8-0xb8.7 (1)
     |                                               |                |            [10]{}: ex 0xb9-0xc6.7 (14)
     |                                               |                |              nm{}: 0xb9-0xc4.7 (12)
0x0b0|                           0b                  |         .      |                n: 11 0xb9-0xb9.7 (1)
0x0b0|                              69 36 34 78 32 2e|          i64x2.|                b: "i64x2.shr_s" 0xba-0xc4.7 (11)
0x0c0|73 68 72 5f 73                                 |shr_s           |
     |                                               |                |              d{}: 0xc5-0xc6.7 (2)
0x0c0|               00                              |     .          |                tag: "funcidx" (0x0) 0xc5-0xc5.7 (1)
0x0c0|                  0a                           |      .         |                x: 10 0xc6-0xc6.7 (1)
     |                                               |                |            [11]{}: ex 0xc7-0xd4.7 (14)
     |                                               |                |              nm{}: 0xc7-0xd2.7 (12)
0x0c0|                     0b                        |       .        |                n: 11 0xc7-0xc7.7 (1)
0x0c0|                        69 36 34 78 32 2e 73 68|        i64x2.sh|                b: "i64x2.shr_u" 0xc8-0xd2.7 (11)
0x0d0|72 5f 75                                       |r_u             |
     |                                               |                |              d{}: 0xd3-0xd4.7 (2)
0x0d0|         00                                    |   .            |                tag: "funcidx" (0x0) 0xd3-0xd3.7 (1)
0x0d0|            0b                                 |    .           |                x: 11 0xd4-0xd4.7 (1)
     |                                               |                |            [12]{}: ex 0xd5-0xe2.7 (14)
     |                                               |                |              nm{}: 0xd5-0xe0.7 (12)
0x0d0|               0b                              |     .          |                n: 11 0xd5-0xd5.7 (1)
0x0d0|                  69 38 78 31 36 2e 73 68 6c 5f|      i8x16.shl_|                b: "i8x16.shl_1" 0xd6-0xe0.7 (11)
0x0e0|31                                             |1               |
     |                                               |                |              d{}: 0xe1-0xe2.7 (2)
0x0e0|   00                                          | .              |                tag: "funcidx" (0x0) 0xe1-0xe1.7 (1)
0x0e0|      0c                                       |  .             |                x: 12 0xe2-0xe2.7 (1)
     |                                               |                |            [13]{}: ex 0xe3-0xf2.7 (16)
     |                                               |                |              nm{}: 0xe3-0xf0.7 (14)
0x0e0|         0d                                    |   .            |                n: 13 0xe3-0xe3.7 (1)
0x0e0|            69 38 78 31 36 2e 73 68 72 5f 75 5f|    i8x16.shr_u_|                b: "i8x16.shr_u_8" 0xe4-0xf0.7 (13)
0x0f0|38                                             |8               |
     |                                               |                |              d{}: 0xf1-0xf2.7 (2)
0x0f0|   00                                          | .              |                tag: "funcidx" (0x0) 0xf1-0xf1.7 (1)
0x0f0|      0d                                       |  .             |                x: 13 0xf2-0xf2.7 (1)
     |                                               |                |            [14]{}: ex 0xf3-0x102.7 (16)
     |                                               |                |              nm{}: 0xf3-0x100.7 (14)
0x0f0|         0d                                    |   .            |                n: 13 0xf3-0xf3.7 (1)
0x0f0|            69 38 78 31 36 2e 73 68 72 5f 73 5f|    i8x16.shr_s_|                b: "i8x16.shr_s_9" 0xf4-0x100.7 (13)
0x100|39                                             |9               |
     |                                               |                |              d{}: 0x101-0x102.7 (2)
0x100|   00                                          | .              |                tag: "funcidx" (0x0) 0x101-0x101.7 (1)
0x100|      0e                                       |  .             |                x: 14 0x102-0x102.7 (1)
     |                                               |                |            [15]{}: ex 0x103-0x110.7 (14)
     |                                               |                |              nm{}: 0x103-0x10e.7 (12)
0x100|         0b                                    |   .            |                n: 11 0x103-0x103.7 (1)
0x100|            69 31 36 78 38 2e 73 68 6c 5f 31   |    i16x8.shl_1 |                b: "i16x8.shl_1" 0x104-0x10e.7 (11)
     |                                               |                |              d{}: 0x10f-0x110.7 (2)
0x100|                                             00|               .|                tag: "funcidx" (0x0) 0x10f-0x10f.7 (1)
0x110|0f                                             |.               |                x: 15 0x110-0x110.7 (1)
     |                                               |                |            [16]{}: ex 0x111-0x121.7 (17)
     |                                               |                |              nm{}: 0x111-0x11f.7 (15)
0x110|   0e                                          | .              |                n: 14 0x111-0x111.7 (1)
0x110|      69 31 36 78 38 2e 73 68 72 5f 75 5f 31 36|  i16x8.shr_u_16|                b: "i16x8.shr_u_16" 0x112-0x11f.7 (14)
     |                                               |                |              d{}: 0x120-0x121.7 (2)
0x120|00                                             |.               |                tag: "funcidx" (0x0) 0x120-0x120.7 (1)
0x120|   10                                          | .              |                x: 16 0x121-0x121.7 (1)
     |                                               |                |            [17]{}: ex 0x122-0x132.7 (17)
     |                                               |                |              nm{}: 0x122-0x130.7 (15)
0x120|      0e                                       |  .             |                n: 14 0x122-0x122.7 (1)
0x120|         69 31 36 78 38 2e 73 68 72 5f 73 5f 31|   i16x8.shr_s_1|                b: "i16x8.shr_s_17" 0x123-0x130.7 (14)
0x130|37                                             |7               |
     |                                               |                |              d{}: 0x131-0x132.7 (2)
0x130|   00                                          | .              |                tag: "funcidx" (0x0) 0x131-0x131.7 (1)
0x130|      11                                       |  .             |                x: 17 0x132-0x132.7 (1)
     |                                               |                |            [18]{}: ex 0x133-0x140.7 (14)
     |                                               |                |              nm{}: 0x133-0x13e.7 (12)
0x130|         0b                                    |   .            |                n: 11 0x133-0x133.7 (1)
0x130|            69 33 32 78 34 2e 73 68 6c 5f 31   |    i32x4.shl_1 |                b: "i32x4.shl_1" 0x134-0x13e.7 (11)
     |                                               |                |              d{}: 0x13f-0x140.7 (2)
0x130|                                             00|               .|                tag: "funcidx" (0x0) 0x13f-0x13f.7 (1)
0x140|12                                             |.               |                x: 18 0x140-0x140.7 (1)
     |                                               |                |            [19]{}: ex 0x141-0x151.7 (17)
     |                                               |                |              nm{}: 0x141-0x14f.7 (15)
0x140|   0e                                          | .              |                n: 14 0x141-0x141.7 (1)
0x140|      69 33 32 78 34 2e 73 68 72 5f 75 5f 33 32|  i32x4.shr_u_32|                b: "i32x4.shr_u_32" 0x142-0x14f.7 (14)
     |                                               |                |              d{}: 0x150-0x151.7 (2)
0x150|00                                             |.               |                tag: "funcidx" (0x0) 0x150-0x150.7 (1)
0x150|   13                                          | .              |                x: 19 0x151-0x151.7 (1)
     |                                               |                |            [20]{}: ex 0x152-0x162.7 (17)
     |                                               |                |              nm{}: 0x152-0x160.7 (15)
0x150|      0e                                       |  .             |                n: 14 0x152-0x152.7 (1)
0x150|         69 33 32 78 34 2e 73 68 72 5f 73 5f 33|   i32x4.shr_s_3|                b: "i32x4.shr_s_33" 0x153-0x160.7 (14)
0x160|33                                             |3               |
     |                                               |                |              d{}: 0x161-0x162.7 (2)
0x160|   00                                          | .              |                tag: "funcidx" (0x0) 0x161-0x161.7 (1)
0x160|      14                                       |  .             |                x: 20 0x162-0x162.7 (1)
     |                                               |                |            [21]{}: ex 0x163-0x170.7 (14)
     |                                               |                |              nm{}: 0x163-0x16e.7 (12)
0x160|         0b                                    |   .            |                n: 11 0x163-0x163.7 (1)
0x160|            69 36 34 78 32 2e 73 68 6c 5f 31   |    i64x2.shl_1 |                b: "i64x2.shl_1" 0x164-0x16e.7 (11)
     |                                               |                |              d{}: 0x16f-0x170.7 (2)
0x160|                                             00|               .|                tag: "funcidx" (0x0) 0x16f-0x16f.7 (1)
0x170|15                                             |.               |                x: 21 0x170-0x170.7 (1)
     |                                               |                |            [22]{}: ex 0x171-0x181.7 (17)
     |                                               |                |              nm{}: 0x171-0x17f.7 (15)
0x170|   0e                                          | .              |                n: 14 0x171-0x171.7 (1)
0x170|      69 36 34 78 32 2e 73 68 72 5f 75 5f 36 34|  i64x2.shr_u_64|                b: "i64x2.shr_u_64" 0x172-0x17f.7 (14)
     |                                               |                |              d{}: 0x180-0x181.7 (2)
0x180|00                                             |.               |                tag: "funcidx" (0x0) 0x180-0x180.7 (1)
0x180|   16                                          | .              |                x: 22 0x181-0x181.7 (1)
     |                                               |                |            [23]{}: ex 0x182-0x192.7 (17)
     |                                               |                |              nm{}: 0x182-0x190.7 (15)
0x180|      0e                                       |  .             |                n: 14 0x182-0x182.7 (1)
0x180|         69 36 34 78 32 2e 73 68 72 5f 73 5f 36|   i64x2.shr_s_6|                b: "i64x2.shr_s_65" 0x183-0x190.7 (14)
0x190|35                                             |5               |
     |                                               |                |              d{}: 0x191-0x192.7 (2)
0x190|   00                                          | .              |                tag: "funcidx" (0x0) 0x191-0x191.7 (1)
0x190|      17                                       |  .             |                x: 23 0x192-0x192.7 (1)
     |                                               |                |    [3]{}: section 0x193-0x282.7 (240)
0x190|         0a                                    |   .            |      id: "code section" (10) 0x193-0x193.7 (1)
0x190|            ed 01                              |    ..          |      size: 237 0x194-0x195.7 (2)
     |                                               |                |      content{}: 0x196-0x282.7 (237)
     |                                               |                |        code{}: 0x196-0x282.7 (237)
0x190|                  18                           |      .         |          n: 24 0x196-0x196.7 (1)
     |                                               |                |          x[0:24]: 0x197-0x282.7 (236)
     |                                               |                |            [0]{}: code 0x197-0x19f.7 (9)
0x190|                     08                        |       .        |              size: 8 0x197-0x197.7 (1)
     |                                               |                |              code{}: 0x198-0x19f.7 (8)
     |                                               |                |                t{}: 0x198-0x198.7 (1)
0x190|                        00                     |        .       |                  n: 0 0x198-0x198.7 (1)
     |                                               |                |                  x[0:0]: 0x199-NA (0)
     |                                               |                |                e[0:4]: 0x199-0x19f.7 (7)
     |                                               |                |                  [0]{}: in 0x199-0x19a.7 (2)
0x190|                           20                  |                |                    local.get: 0x20 (valid) 0x199-0x199.7 (1)
0x190|                              00               |          .     |                    x: 0 0x19a-0x19a.7 (1)
     |                                               |                |                  [1]{}: in 0x19b-0x19c.7 (2)
0x190|                                 20            |                |                    local.get: 0x20 (valid) 0x19b-0x19b.7 (1)
0x190|                                    01         |            .   |                    x: 1 0x19c-0x19c.7 (1)
     |                                               |                |                  [2]{}: in 0x19d-0x19e.7 (2)
0x190|                                       fd      |             .  |                    prefix: 0xfd (valid) 0x19d-0x19d.7 (1)
0x190|                                          6b   |              k |                    i8x16.shl: 107 (valid) 0x19e-0x19e.7 (1)
     |                                               |                |                  [3]{}: in 0x19f-0x19f.7 (1)
0x190|                                             0b|               .|                    end: 0xb (valid) 0x19f-0x19f.7 (1)
     |                                               |                |            [1]{}: code 0x1a0-0x1a8.7 (9)
0x1a0|08                                             |.               |              size: 8 0x1a0-0x1a0.7 (1)
     |                                               |                |              code{}: 0x1a1-0x1a8.7 (8)
     |                                               |                |                t{}: 0x1a1-0x1a1.7 (1)
0x1a0|   00                                          | .              |                  n: 0 0x1a1-0x1a1.7 (1)
     |                                               |                |                  x[0:0]: 0x1a2-NA (0)
     |                                               |                |                e[0:4]: 0x1a2-0x1a8.7 (7)
     |                                               |                |                  [0]{}: in 0x1a2-0x1a3.7 (2)
0x1a0|      20                                       |                |                    local.get: 0x20 (valid) 0x1a2-0x1a2.7 (1)
0x1a0|         00                                    |   .            |                    x: 0 0x1a3-0x1a3.7 (1)
     |                                               |                |                  [1]{}: in 0x1a4-0x1a5.7 (2)
0x1a0|            20                                 |                |                    local.get: 0x20 (valid) 0x1a4-0x1a4.7 (1)
0x1a0|               01                              |     .          |                    x: 1 0x1a5-0x1a5.7 (1)
     |                                               |                |                  [2]{}: in 0x1a6-0x1a7.7 (2)
0x1a0|                  fd                           |      .         |                    prefix: 0xfd (valid) 0x1a6-0x1a6.7 (1)
0x1a0|                     6c                        |       l        |                    i8x16.shr_s: 108 (valid) 0x1a7-0x1a7.7 (1)
     |                                               |                |                  [3]{}: in 0x1a8-0x1a8.7 (1)
0x1a0|                        0b                     |        .       |                    end: 0xb (valid) 0x1a8-0x1a8.7 (1)
     |                                               |                |            [2]{}: code 0x1a9-0x1b1.7 (9)
0x1a0|                           08                  |         .      |              size: 8 0x1a9-0x1a9.7 (1)
     |                                               |                |              code{}: 0x1aa-0x1b1.7 (8)
     |                                               |                |                t{}: 0x1aa-0x1aa.7 (1)
0x1a0|                              00               |          .     |                  n: 0 0x1aa-0x1aa.7 (1)
     |                                               |                |                  x[0:0]: 0x1ab-NA (0)
     |                                               |                |                e[0:4]: 0x1ab-0x1b1.7 (7)
     |                                               |                |                  [0]{}: in 0x1ab-0x1ac.7 (2)
0x1a0|                                 20            |                |                    local.get: 0x20 (valid) 0x1ab-0x1ab.7 (1)
0x1a0|                                    00         |            .   |                    x: 0 0x1ac-0x1ac.7 (1)
     |                                               |                |                  [1]{}: in 0x1ad-0x1ae.7 (2)
0x1a0|                                       20      |                |                    local.get: 0x20 (valid) 0x1ad-0x1ad.7 (1)
0x1a0|                                          01   |              . |                    x: 1 0x1ae-0x1ae.7 (1)
     |                                               |                |                  [2]{}: in 0x1af-0x1b0.7 (2)
0x1a0|                                             fd|               .|                    prefix: 0xfd (valid) 0x1af-0x1af.7 (1)
0x1b0|6d                                             |m               |                    i8x16.shr_u: 109 (valid) 0x1b0-0x1b0.7 (1)
     |                                               |                |                  [3]{}: in 0x1b1-0x1b1.7 (1)
0x1b0|   0b                                          | .              |                    end: 0xb (valid) 0x1b1-0x1b1.7 (1)
     |                                               |                |            [3]{}: code 0x1b2-0x1bb.7 (10)
0x1b0|      09                                       |  .             |              size: 9 0x1b2-0x1b2.7 (1)
     |                                               |                |              code{}: 0x1b3-0x1bb.7 (9)
     |                                               |                |                t{}: 0x1b3-0x1b3.7 (1)
0x1b0|         00                                    |   .            |                  n: 0 0x1b3-0x1b3.7 (1)
     |                                               |                |                  x[0:0]: 0x1b4-NA (0)
     |                                               |                |                e[0:4]: 0x1b4-0x1bb.7 (8)
     |                                               |                |                  [0]{}: in 0x1b4-0x1b5.7 (2)
0x1b0|            20                                 |                |                    local.get: 0x20 (valid) 0x1b4-0x1b4.7 (1)
0x1b0|               00                              |     .          |                    x: 0 0x1b5-0x1b5.7 (1)
     |                                               |                |                  [1]{}: in 0x1b6-0x1b7.7 (2)
0x1b0|                  20                           |                |                    local.get: 0x20 (valid) 0x1b6-0x1b6.7 (1)
0x1b0|                     01                        |       .        |                    x: 1 0x1b7-0x1b7.7 (1)
     |                                               |                |                  [2]{}: in 0x1b8-0x1ba.7 (3)
0x1b0|                        fd                     |        .       |                    prefix: 0xfd (valid) 0x1b8-0x1b8.7 (1)
0x1b0|                           8b 01               |         ..     |                    i16x8.shl: 139 (valid) 0x1b9-0x1ba.7 (2)
     |                                               |                |                  [3]{}: in 0x1bb-0x1bb.7 (1)
0x1b0|                                 0b            |           .    |                    end: 0xb (valid) 0x1bb-0x1bb.7 (1)
     |                                               |                |            [4]{}: code 0x1bc-0x1c5.7 (10)
0x1b0|                                    09         |            .   |              size: 9 0x1bc-0x1bc.7 (1)
     |                                               |                |              code{}: 0x1bd-0x1c5.7 (9)
     |                                               |                |                t{}: 0x1bd-0x1bd.7 (1)
0x1b0|                                       00      |             .  |                  n: 0 0x1bd-0x1bd.7 (1)
     |                                               |                |                  x[0:0]: 0x1be-NA (0)
     |                                               |                |                e[0:4]: 0x1be-0x1c5.7 (8)
     |                                               |                |                  [0]{}: in 0x1be-0x1bf.7 (2)
0x1b0|                                          20   |                |                    local.get: 0x20 (valid) 0x1be-0x1be.7 (1)
0x1b0|                                             00|               .|                    x: 0 0x1bf-0x1bf.7 (1)
     |                                               |                |                  [1]{}: in 0x1c0-0x1c1.7 (2)
0x1c0|20                                             |                |                    local.get: 0x20 (valid) 0x1c0-0x1c0.7 (1)
0x1c0|   01                                          | .              |                    x: 1 0x1c1-0x1c1.7 (1)
     |                                               |                |                  [2]{}: in 0x1c2-0x1c4.7 (3)
0x1c0|      fd                                       |  .             |                    prefix: 0xfd (valid) 0x1c2-0x1c2.7 (1)
0x1c0|         8c 01                                 |   ..           |                    i16x8.shr_s: 140 (valid) 0x1c3-0x1c4.7 (2)
     |                                               |                |                  [3]{}: in 0x1c5-0x1c5.7 (1)
0x1c0|               0b                              |     .          |                    end: 0xb (valid) 0x1c5-0x1c5.7 (1)
     |                                               |                |            [5]{}: code 0x1c6-0x1cf.7 (10)
0x1c0|                  09                           |      .         |              size: 9 0x1c6-0x1c6.7 (1)
     |                                               |                |              code{}: 0x1c7-0x1cf.7 (9)
     |                                               |                |                t{}: 0x1c7-0x1c7.7 (1)
0x1c0|                     00                        |       .        |                  n: 0 0x1c7-0x1c7.7 (1)
     |                                               |                |                  x[0:0]: 0x1c8-NA (0)
     |                                               |                |                e[0:4]: 0x1c8-0x1cf.7 (8)
     |                                               |                |                  [0]{}: in 0x1c8-0x1c9.7 (2)
0x1c0|                        20                     |                |                    local.get: 0x20 (valid) 0x1c8-0x1c8.7 (1)
0x1c0|                           00                  |         .      |                    x: 0 0x1c9-0x1c9.7 (1)
     |                                               |                |                  [1]{}: in 0x1ca-0x1cb.7 (2)
0x1c0|                              20               |                |                    local.get: 0x20 (valid) 0x1ca-0x1ca.7 (1)
0x1c0|                                 01            |           .    |                    x: 1 0x1cb-0x1cb.7 (1)
     |                                               |                |                  [2]{}: in 0x1cc-0x1ce.7 (3)
0x1c0|                                    fd         |            .   |                    prefix: 0xfd (valid) 0x1cc-0x1cc.7 (1)
0x1c0|                                       8d 01   |             .. |                    i16x8.shr_u: 141 (valid) 0x1cd-0x1ce.7 (2)
     |                                               |                |                  [3]{}: in 0x1cf-0x1cf.7 (1)
0x1c0|                                             0b|               .|                    end: 0xb (valid) 0x1cf-0x1cf.7 (1)
     |                                               |                |            [6]{}: code 0x1d0-0x1d9.7 (10)
0x1d0|09                                             |.               |              size: 9 0x1d0-0x1d0.7 (1)
     |                                               |                |              code{}: 0x1d1-0x1d9.7 (9)
     |                                               |                |                t{}: 0x1d1-0x1d1.7 (1)
0x1d0|   00                                          | .              |                  n: 0 0x1d1-0x1d1.7 (1)
     |                                               |                |                  x[0:0]: 0x1d2-NA (0)
     |                                               |                |                e[0:4]: 0x1d2-0x1d9.7 (8)
     |                                               |                |                  [0]{}: in 0x1d2-0x1d3.7 (2)
0x1d0|      20                                       |                |                    local.get: 0x20 (valid) 0x1d2-0x1d2.7 (1)
0x1d0|         00                                    |   .            |                    x: 0 0x1d3-0x1d3.7 (1)
     |                                               |                |                  [1]{}: in 0x1d4-0x1d5.7 (2)
0x1d0|            20                                 |                |                    local.get: 0x20 (valid) 0x1d4-0x1d4.7 (1)
0x1d0|               01                              |     .          |                    x: 1 0x1d5-0x1d5.7 (1)
     |                                               |                |                  [2]{}: in 0x1d6-0x1d8.7 (3)
0x1d0|                  fd                           |      .         |                    prefix: 0xfd (valid) 0x1d6-0x1d6.7 (1)
0x1d0|                     ab 01                     |       ..       |                    i32x4.shl: 171 (valid) 0x1d7-0x1d8.7 (2)
     |                                               |                |                  [3]{}: in 0x1d9-0x1d9.7 (1)
0x1d0|                           0b                  |         .      |                    end: 0xb (valid) 0x1d9-0x1d9.7 (1)
     |                                               |                |            [7]{}: code 0x1da-0x1e3.7 (10)
0x1d0|                              09               |          .     |              size: 9 0x1da-0x1da.7 (1)
     |                                               |                |              code{}: 0x1db-0x1e3.7 (9)
     |                                               |                |                t{}: 0x1db-0x1db.7 (1)
0x1d0|                                 00            |           .    |                  n: 0 0x1db-0x1db.7 (1)
     |                                               |                |                  x[0:0]: 0x1dc-NA (0)
     |                                               |                |                e[0:4]: 0x1dc-0x1e3.7 (8)
     |                                               |                |                  [0]{}: in 0x1dc-0x1dd.7 (2)
0x1d0|                                    20         |                |                    local.get: 0x20 (valid) 0x1dc-0x1dc.7 (1)
0x1d0|                                       00      |             .  |                    x: 0 0x1dd-0x1dd.7 (1)
     |                                               |                |                  [1]{}: in 0x1de-0x1df.7 (2)
0x1d0|                                          20   |                |                    local.get: 0x20 (valid) 0x1de-0x1de.7 (1)
0x1d0|                                             01|               .|                    x: 1 0x1df-0x1df.7 (1)
     |                                               |                |                  [2]{}: in 0x1e0-0x1e2.7 (3)
0x1e0|fd                                             |.               |                    prefix: 0xfd (valid) 0x1e0-0x1e0.7 (1)
0x1e0|   ac 01                                       | ..             |                    i32x4.shr_s: 172 (valid) 0x1e1-0x1e2.7 (2)
     |                                               |                |                  [3]{}: in 0x1e3-0x1e3.7 (1)
0x1e0|         0b                                    |   .            |                    end: 0xb (valid) 0x1e3-0x1e3.7 (1)
     |                                               |                |            [8]{}: code 0x1e4-0x1ed.7 (10)
0x1e0|            09                                 |    .           |              size: 9 0x1e4-0x1e4.7 (1)
     |                                               |                |              code{}: 0x1e5-0x1ed.7 (9)
     |                                               |                |                t{}: 0x1e5-0x1e5.7 (1)
0x1e0|               00                              |     .          |                  n: 0 0x1e5-0x1e5.7 (1)
     |                                               |                |                  x[0:0]: 0x1e6-NA (0)
     |                                               |                |                e[0:4]: 0x1e6-0x1ed.7 (8)
     |                                               |                |                  [0]{}: in 0x1e6-0x1e7.7 (2)
0x1e0|                  20                           |                |                    local.get: 0x20 (valid) 0x1e6-0x1e6.7 (1)
0x1e0|                     00                        |       .        |                    x: 0 0x1e7-0x1e7.7 (1)
     |                                               |                |                  [1]{}: in 0x1e8-0x1e9.7 (2)
0x1e0|                        20                     |                |                    local.get: 0x20 (valid) 0x1e8-0x1e8.7 (1)
0x1e0|                           01                  |         .      |                    x: 1 0x1e9-0x1e9.7 (1)
     |                                               |                |                  [2]{}: in 0x1ea-0x1ec.7 (3)
0x1e0|                              fd               |          .     |                    prefix: 0xfd (valid) 0x1ea-0x1ea.7 (1)
0x1e0|                                 ad 01         |           ..   |                    i32x4.shr_u: 173 (valid) 0x1eb-0x1ec.7 (2)
     |                                               |                |                  [3]{}: in 0x1ed-0x1ed.7 (1)
0x1e0|                                       0b      |             .  |                    end: 0xb (valid) 0x1ed-0x1ed.7 (1)
     |                                               |                |            [9]{}: code 0x1ee-0x1f7.7 (10)
0x1e0|                                          09   |              . |              size: 9 0x1ee-0x1ee.7 (1)
     |                                               |                |              code{}: 0x1ef-0x1f7.7 (9)
     |                                               |                |                t{}: 0x1ef-0x1ef.7 (1)
0x1e0|                                             00|               .|                  n: 0 0x1ef-0x1ef.7 (1)
     |                                               |                |                  x[0:0]: 0x1f0-NA (0)
     |                                               |                |                e[0:4]: 0x1f0-0x1f7.7 (8)
     |                                               |                |                  [0]{}: in 0x1f0-0x1f1.7 (2)
0x1f0|20                                             |                |                    local.get: 0x20 (valid) 0x1f0-0x1f0.7 (1)
0x1f0|   00                                          | .              |                    x: 0 0x1f1-0x1f1.7 (1)
     |                                               |                |                  [1]{}: in 0x1f2-0x1f3.7 (2)
0x1f0|      20                                       |                |                    local.get: 0x20 (valid) 0x1f2-0x1f2.7 (1)
0x1f0|         01                                    |   .            |                    x: 1 0x1f3-0x1f3.7 (1)
     |                                               |                |                  [2]{}: in 0x1f4-0x1f6.7 (3)
0x1f0|            fd                                 |    .           |                    prefix: 0xfd (valid) 0x1f4-0x1f4.7 (1)
0x1f0|               cb 01                           |     ..         |                    i64x2.shl: 203 (valid) 0x1f5-0x1f6.7 (2)
     |                                               |                |                  [3]{}: in 0x1f7-0x1f7.7 (1)
0x1f0|                     0b                        |       .        |                    end: 0xb (valid) 0x1f7-0x1f7.7 (1)
     |                                               |                |            [10]{}: code 0x1f8-0x201.7 (10)
0x1f0|                        09                     |        .       |              size: 9 0x1f8-0x1f8.7 (1)
     |                                               |                |              code{}: 0x1f9-0x201.7 (9)
     |                                               |                |                t{}: 0x1f9-0x1f9.7 (1)
0x1f0|                           00                  |         .      |                  n: 0 0x1f9-0x1f9.7 (1)
     |                                               |                |                  x[0:0]: 0x1fa-NA (0)
     |                                               |                |                e[0:4]: 0x1fa-0x201.7 (8)
     |                                               |                |                  [0]{}: in 0x1fa-0x1fb.7 (2)
0x1f0|                              20               |                |                    local.get: 0x20 (valid) 0x1fa-0x1fa.7 (1)
0x1f0|                                 00            |           .    |                    x: 0 0x1fb-0x1fb.7 (1)
     |                                               |                |                  [1]{}: in 0x1fc-0x1fd.7 (2)
0x1f0|                                    20         |                |                    local.get: 0x20 (valid) 0x1fc-0x1fc.7 (1)
0x1f0|                                       01      |             .  |                    x: 1 0x1fd-0x1fd.7 (1)
     |                                               |                |                  [2]{}: in 0x1fe-0x200.7 (3)
0x1f0|                                          fd   |              . |                    prefix: 0xfd (valid) 0x1fe-0x1fe.7 (1)
0x1f0|                                             cc|               .|                    i64x2.shr_s: 204 (valid) 0x1ff-0x200.7 (2)
0x200|01                                             |.               |
     |                                               |                |                  [3]{}: in 0x201-0x201.7 (1)
0x200|   0b                                          | .              |                    end: 0xb (valid) 0x201-0x201.7 (1)
     |                                               |                |            [11]{}: code 0x202-0x20b.7 (10)
0x200|      09                                       |  .             |              size: 9 0x202-0x202.7 (1)
     |                                               |                |              code{}: 0x203-0x20b.7 (9)
     |                                               |                |                t{}: 0x203-0x203.7 (1)
0x200|         00                                    |   .            |                  n: 0 0x203-0x203.7 (1)
     |                                               |                |                  x[0:0]: 0x204-NA (0)
     |                                               |                |                e[0:4]: 0x204-0x20b.7 (8)
     |                                               |                |                  [0]{}: in 0x204-0x205.7 (2)
0x200|            20                                 |                |                    local.get: 0x20 (valid) 0x204-0x204.7 (1)
0x200|               00                              |     .          |                    x: 0 0x205-0x205.7 (1)
     |                                               |                |                  [1]{}: in 0x206-0x207.7 (2)
0x200|                  20                           |                |                    local.get: 0x20 (valid) 0x206-0x206.7 (1)
0x200|                     01                        |       .        |                    x: 1 0x207-0x207.7 (1)
     |                                               |                |                  [2]{}: in 0x208-0x20a.7 (3)
0x200|                        fd                     |        .       |                    prefix: 0xfd (valid) 0x208-0x208.7 (1)
0x200|                           cd 01               |         ..     |                    i64x2.shr_u: 205 (valid) 0x209-0x20a.7 (2)
     |                                               |                |                  [3]{}: in 0x20b-0x20b.7 (1)
0x200|                                 0b            |           .    |                    end: 0xb (valid) 0x20b-0x20b.7 (1)
     |                                               |                |            [12]{}: code 0x20c-0x214.7 (9)
0x200|                                    08         |            .   |              size: 8 0x20c-0x20c.7 (1)
     |                                               |                |              code{}: 0x20d-0x214.7 (8)
     |                                               |                |                t{}: 0x20d-0x20d.7 (1)
0x200|                                       00      |             .  |                  n: 0 0x20d-0x20d.7 (1)
     |                                               |                |                  x[0:0]: 0x20e-NA (0)
     |                                               |                |                e[0:4]: 0x20e-0x214.7 (7)
     |                                               |                |                  [0]{}: in 0x20e-0x20f.7 (2)
0x200|                                          20   |                |                    local.get: 0x20 (valid) 0x20e-0x20e.7 (1)
0x200|                                             00|               .|                    x: 0 0x20f-0x20f.7 (1)
     |                                               |                |                  [1]{}: in 0x210-0x211.7 (2)
0x210|41                                             |A               |                    i32.const: 0x41 (valid) 0x210-0x210.7 (1)
0x210|   01                                          | .              |                    n: 1 0x211-0x211.7 (1)
     |                                               |                |                  [2]{}: in 0x212-0x213.7 (2)
0x210|      fd                                       |  .             |                    prefix: 0xfd (valid) 0x212-0x212.7 (1)
0x210|         6b                                    |   k            |                    i8x16.shl: 107 (valid) 0x213-0x213.7 (1)
     |                                               |                |                  [3]{}: in 0x214-0x214.7 (1)
0x210|            0b                                 |    .           |                    end: 0xb (valid) 0x214-0x214.7 (1)
     |                                               |                |            [13]{}: code 0x215-0x21d.7 (9)
0x210|               08                              |     .          |              size: 8 0x215-0x215.7 (1)
     |                                               |                |              code{}: 0x216-0x21d.7 (8)
     |                                               |                |                t{}: 0x216-0x216.7 (1)
0x210|                  00                           |      .         |                  n: 0 0x216-0x216.7 (1)
     |                                               |                |                  x[0:0]: 0x217-NA (0)
     |                                               |                |                e[0:4]: 0x217-0x21d.7 (7)
     |                                               |                |                  [0]{}: in 0x217-0x218.7 (2)
0x210|                     20                        |                |                    local.get: 0x20 (valid) 0x217-0x217.7 (1)
0x210|                        00                     |        .       |                    x: 0 0x218-0x218.7 (1)
     |                                               |                |                  [1]{}: in 0x219-0x21a.7 (2)
0x210|                           41                  |         A      |                    i32.const: 0x41 (valid) 0x219-0x219.7 (1)
0x210|                              08               |          .     |                    n: 8 0x21a-0x21a.7 (1)
     |                                               |                |                  [2]{}: in 0x21b-0x21c.7 (2)
0x210|                                 fd            |           .    |                    prefix: 0xfd (valid) 0x21b-0x21b.7 (1)
0x210|                                    6d         |            m   |                    i8x16.shr_u: 109 (valid) 0x21c-0x21c.7 (1)
     |                                               |                |                  [3]{}: in 0x21d-0x21d.7 (1)
0x210|                                       0b      |             .  |                    end: 0xb (valid) 0x21d-0x21d.7 (1)
     |                                               |                |            [14]{}: code 0x21e-0x226.7 (9)
0x210|                                          08   |              . |              size: 8 0x21e-0x21e.7 (1)
     |                                               |                |              code{}: 0x21f-0x226.7 (8)
     |                                               |                |                t{}: 0x21f-0x21f.7 (1)
0x210|                                             00|               .|                  n: 0 0x21f-0x21f.7 (1)
     |                                               |                |                  x[0:0]: 0x220-NA (0)
     |                                               |                |                e[0:4]: 0x220-0x226.7 (7)
     |                                               |                |                  [0]{}: in 0x220-0x221.7 (2)
0x220|20                                             |                |                    local.get: 0x20 (valid) 0x220-0x220.7 (1)
0x220|   00                                          | .              |                    x: 0 0x221-0x221.7 (1)
     |                                               |                |                  [1]{}: in 0x222-0x223.7 (2)
0x220|      41                                       |  A             |                    i32.const: 0x41 (valid) 0x222-0x222.7 (1)
0x220|         09                                    |   .            |                    n: 9 0x223-0x223.7 (1)
     |                                               |                |                  [2]{}: in 0x224-0x225.7 (2)
0x220|            fd                                 |    .           |                    prefix: 0xfd (valid) 0x224-0x224.7 (1)
0x220|               6c                              |     l          |                    i8x16.shr_s: 108 (valid) 0x225-0x225.7 (1)
     |                                               |                |                  [3]{}: in 0x226-0x226.7 (1)
0x220|                  0b                           |      .         |                    end: 0xb (valid) 0x226-0x226.7 (1)
     |                                               |                |            [15]{}: code 0x227-0x230.7 (10)
0x220|                     09                        |       .        |              size: 9 0x227-0x227.7 (1)
     |                                               |                |              code{}: 0x228-0x230.7 (9)
     |                                               |                |                t{}: 0x228-0x228.7 (1)
0x220|                        00                     |        .       |                  n: 0 0x228-0x228.7 (1)
     |                                               |                |                  x[0:0]: 0x229-NA (0)
     |                                               |                |                e[0:4]: 0x229-0x230.7 (8)
     |                                               |                |                  [0]{}: in 0x229-0x22a.7 (2)
0x220|                           20                  |                |                    local.get: 0x20 (valid) 0x229-0x229.7 (1)
0x220|                              00               |          .     |                    x: 0 0x22a-0x22a.7 (1)
     |                                               |                |                  [1]{}: in 0x22b-0x22c.7 (2)
0x220|                                 41            |           A    |                    i32.const: 0x41 (valid) 0x22b-0x22b.7 (1)
0x220|                                    01         |            .   |                    n: 1 0x22c-0x22c.7 (1)
     |                                               |                |                  [2]{}: in 0x22d-0x22f.7 (3)
0x220|                                       fd      |             .  |                    prefix: 0xfd (valid) 0x22d-0x22d.7 (1)
0x220|                                          8b 01|              ..|                    i16x8.shl: 139 (valid) 0x22e-0x22f.7 (2)
     |                                               |                |                  [3]{}: in 0x230-0x230.7 (1)
0x230|0b                                             |.               |                    end: 0xb (valid) 0x230-0x230.7 (1)
     |                                               |                |            [16]{}: code 0x231-0x23a.7 (10)
0x230|   09                                          | .              |              size: 9 0x231-0x231.7 (1)
     |                                               |                |              code{}: 0x232-0x23a.7 (9)
     |                                               |                |                t{}: 0x232-0x232.7 (1)
0x230|      00                                       |  .             |                  n: 0 0x232-0x232.7 (1)
     |                                               |                |                  x[0:0]: 0x233-NA (0)
     |                                               |                |                e[0:4]: 0x233-0x23a.7 (8)
     |                                               |                |                  [0]{}: in 0x233-0x234.7 (2)
0x230|         20                                    |                |                    local.get: 0x20 (valid) 0x233-0x233.7 (1)
0x230|            00                                 |    .           |                    x: 0 0x234-0x234.7 (1)
     |                                               |                |                  [1]{}: in 0x235-0x236.7 (2)
0x230|               41                              |     A          |                    i32.const: 0x41 (valid) 0x235-0x235.7 (1)
0x230|                  10                           |      .         |                    n: 16 0x236-0x236.7 (1)
     |                                               |                |                  [2]{}: in 0x237-0x239.7 (3)
0x230|                     fd                        |       .        |                    prefix: 0xfd (valid) 0x237-0x237.7 (1)
0x230|                        8d 01                  |        ..      |                    i16x8.shr_u: 141 (valid) 0x238-0x239.7 (2)
     |                                               |                |                  [3]{}: in 0x23a-0x23a.7 (1)
0x230|                              0b               |          .     |                    end: 0xb (valid) 0x23a-0x23a.7 (1)
     |                                               |                |            [17]{}: code 0x23b-0x244.7 (10)
0x230|                                 09            |           .    |              size: 9 0x23b-0x23b.7 (1)
     |                                               |                |              code{}: 0x23c-0x244.7 (9)
     |                                               |                |                t{}: 0x23c-0x23c.7 (1)
0x230|                                    00         |            .   |                  n: 0 0x23c-0x23c.7 (1)
     |                                               |                |                  x[0:0]: 0x23d-NA (0)
     |                                               |                |                e[0:4]: 0x23d-0x244.7 (8)
     |                                               |                |                  [0]{}: in 0x23d-0x23e.7 (2)
0x230|                                       20      |                |                    local.get: 0x20 (valid) 0x23d-0x23d.7 (1)
0x230|                                          00   |              . |                    x: 0 0x23e-0x23e.7 (1)
     |                                               |                |                  [1]{}: in 0x23f-0x240.7 (2)
0x230|                                             41|               A|                    i32.const: 0x41 (valid) 0x23f-0x23f.7 (1)
0x240|11                                             |.               |                    n: 17 0x240-0x240.7 (1)
     |                                               |                |                  [2]{}: in 0x241-0x243.7 (3)
0x240|   fd                                          | .              |                    prefix: 0xfd (valid) 0x241-0x241.7 (1)
0x240|      8c 01                                    |  ..            |                    i16x8.shr_s: 140 (valid) 0x242-0x243.7 (2)
     |                                               |                |                  [3]{}: in 0x244-0x244.7 (1)
0x240|            0b                                 |    .           |                    end: 0xb (valid) 0x244-0x244.7 (1)
     |                                               |                |            [18]{}: code 0x245-0x24e.7 (10)
0x240|               09                              |     .          |              size: 9 0x245-0x245.7 (1)
     |                                               |                |              code{}: 0x246-0x24e.7 (9)
     |                                               |                |                t{}: 0x246-0x246.7 (1)
0x240|                  00                           |      .         |                  n: 0 0x246-0x246.7 (1)
     |                                               |                |                  x[0:0]: 0x247-NA (0)
     |                                               |                |                e[0:4]: 0x247-0x24e.7 (8)
     |                                               |                |                  [0]{}: in 0x247-0x248.7 (2)
0x240|                     20                        |                |                    local.get: 0x20 (valid) 0x247-0x247.7 (1)
0x240|                        00                     |        .       |                    x: 0 0x248-0x248.7 (1)
     |                                               |                |                  [1]{}: in 0x249-0x24a.7 (2)
0x240|                           41                  |         A      |                    i32.const: 0x41 (valid) 0x249-0x249.7 (1)
0x240|                              01               |          .     |                    n: 1 0x24a-0x24a.7 (1)
     |                                               |                |                  [2]{}: in 0x24b-0x24d.7 (3)
0x240|                                 fd            |           .    |                    prefix: 0xfd (valid) 0x24b-0x24b.7 (1)
0x240|                                    ab 01      |            ..  |                    i32x4.shl: 171 (valid) 0x24c-0x24d.7 (2)
     |                                               |                |                  [3]{}: in 0x24e-0x24e.7 (1)
0x240|                                          0b   |              . |                    end: 0xb (valid) 0x24e-0x24e.7 (1)
     |                                               |                |            [19]{}: code 0x24f-0x258.7 (10)
0x240|                                             09|               .|              size: 9 0x24f-0x24f.7 (1)
     |                                               |                |              code{}: 0x250-0x258.7 (9)
     |                                               |                |                t{}: 0x250-0x250.7 (1)
0x250|00                                             |.               |                  n: 0 0x250-0x250.7 (1)
     |                                               |                |                  x[0:0]: 0x251-NA (0)
     |                                               |                |                e[0:4]: 0x251-0x258.7 (8)
     |                                               |                |                  [0]{}: in 0x251-0x252.7 (2)
0x250|   20                                          |                |                    local.get: 0x20 (valid) 0x251-0x251.7 (1)
0x250|      00                                       |  .             |                    x: 0 0x252-0x252.7 (1)
     |                                               |                |                  [1]{}: in 0x253-0x254.7 (2)
0x250|         41                                    |   A            |                    i32.const: 0x41 (valid) 0x253-0x253.7 (1)
0x250|            20                                 |                |                    n: 32 0x254-0x254.7 (1)
     |                                               |                |                  [2]{}: in 0x255-0x257.7 (3)
0x250|               fd                              |     .          |                    prefix: 0xfd (valid) 0x255-0x255.7 (1)
0x250|                  ad 01                        |      ..        |                    i32x4.shr_u: 173 (valid) 0x256-0x257.7 (2)
     |                                               |                |                  [3]{}: in 0x258-0x258.7 (1)
0x250|                        0b                     |        .       |                    end: 0xb (valid) 0x258-0x258.7 (1)
     |                                               |                |            [20]{}: code 0x259-0x262.7 (10)
0x250|                           09                  |         .      |              size: 9 0x259-0x259.7 (1)
     |                                               |                |              code{}: 0x25a-0x262.7 (9)
     |                                               |                |                t{}: 0x25a-0x25a.7 (1)
0x250|                              00               |          .     |                  n: 0 0x25a-0x25a.7 (1)
     |                                               |                |                  x[0:0]: 0x25b-NA (0)
     |                                               |                |                e[0:4]: 0x25b-0x262.7 (8)
     |                                               |                |                  [0]{}: in 0x25b-0x25c.7 (2)
0x250|                                 20            |                |                    local.get: 0x20 (valid) 0x25b-0x25b.7 (1)
0x250|                                    00         |            .   |                    x: 0 0x25c-0x25c.7 (1)
     |                                               |                |                  [1]{}: in 0x25d-0x25e.7 (2)
0x250|                                       41      |             A  |                    i32.const: 0x41 (valid) 0x25d-0x25d.7 (1)
0x250|                                          21   |              ! |                    n: 33 0x25e-0x25e.7 (1)
     |                                               |                |                  [2]{}: in 0x25f-0x261.7 (3)
0x250|                                             fd|               .|                    prefix: 0xfd (valid) 0x25f-0x25f.7 (1)
0x260|ac 01                                          |..              |                    i32x4.shr_s: 172 (valid) 0x260-0x261.7 (2)
     |                                               |                |                  [3]{}: in 0x262-0x262.7 (1)
0x260|      0b                                       |  .             |                    end: 0xb (valid) 0x262-0x262.7 (1)
     |                                               |                |            [21]{}: code 0x263-0x26c.7 (10)
0x260|         09                                    |   .            |              size: 9 0x263-0x263.7 (1)
     |                                               |                |              code{}: 0x264-0x26c.7 (9)
     |                                               |                |                t{}: 0x264-0x264.7 (1)
0x260|            00                                 |    .           |                  n: 0 0x264-0x264.7 (1)
     |                                               |                |                  x[0:0]: 0x265-NA (0)
     |                                               |                |                e[0:4]: 0x265-0x26c.7 (8)
     |                                               |                |                  [0]{}: in 0x265-0x266.7 (2)
0x260|               20                              |                |                    local.get: 0x20 (valid) 0x265-0x265.7 (1)
0x260|                  00                           |      .         |                    x: 0 0x266-0x266.7 (1)
     |                                               |                |                  [1]{}: in 0x267-0x268.7 (2)
0x260|                     41                        |       A        |                    i32.const: 0x41 (valid) 0x267-0x267.7 (1)
0x260|                        01                     |        .       |                    n: 1 0x268-0x268.7 (1)
     |                                               |                |                  [2]{}: in 0x269-0x26b.7 (3)
0x260|                           fd                  |         .      |                    prefix: 0xfd (valid) 0x269-0x269.7 (1)
0x260|                              cb 01            |          ..    |                    i64x2.shl: 203 (valid) 0x26a-0x26b.7 (2)
     |                                               |                |                  [3]{}: in 0x26c-0x26c.7 (1)
0x260|                                    0b         |            .   |                    end: 0xb (valid) 0x26c-0x26c.7 (1)
     |                                               |                |            [22]{}: code 0x26d-0x277.7 (11)
0x260|                                       0a      |             .  |              size: 10 0x26d-0x26d.7 (1)
     |                                               |                |              code{}: 0x26e-0x277.7 (10)
     |                                               |                |                t{}: 0x26e-0x26e.7 (1)
0x260|                                          00   |              . |                  n: 0 0x26e-0x26e.7 (1)
     |                                               |                |                  x[0:0]: 0x26f-NA (0)
     |                                               |                |                e[0:4]: 0x26f-0x277.7 (9)
     |                                               |                |                  [0]{}: in 0x26f-0x270.7 (2)
0x260|                                             20|                |                    local.get: 0x20 (valid) 0x26f-0x26f.7 (1)
0x270|00                                             |.               |                    x: 0 0x270-0x270.7 (1)
     |                                               |                |                  [1]{}: in 0x271-0x273.7 (3)
0x270|   41                                          | A              |                    i32.const: 0x41 (valid) 0x271-0x271.7 (1)
0x270|      c0 00                                    |  ..            |                    n: 64 0x272-0x273.7 (2)
     |                                               |                |                  [2]{}: in 0x274-0x276.7 (3)
0x270|            fd                                 |    .           |                    prefix: 0xfd (valid) 0x274-0x274.7 (1)
0x270|               cd 01                           |     ..         |                    i64x2.shr_u: 205 (valid) 0x275-0x276.7 (2)
     |                                               |                |                  [3]{}: in 0x277-0x277.7 (1)
0x270|                     0b                        |       .        |                    end: 0xb (valid) 0x277-0x277.7 (1)
     |                                               |                |            [23]{}: code 0x278-0x282.7 (11)
0x270|                        0a                     |        .       |              size: 10 0x278-0x278.7 (1)
     |                                               |                |              code{}: 0x279-0x282.7 (10)
     |                                               |                |                t{}: 0x279-0x279.7 (1)
0x270|                           00                  |         .      |                  n: 0 0x279-0x279.7 (1)
     |                                               |                |                  x[0:0]: 0x27a-NA (0)
     |                                               |                |                e[0:4]: 0x27a-0x282.7 (9)
     |                                               |                |                  [0]{}: in 0x27a-0x27b.7 (2)
0x270|                              20               |                |                    local.get: 0x20 (valid) 0x27a-0x27a.7 (1)
0x270|                                 00            |           .    |                    x: 0 0x27b-0x27b.7 (1)
     |                                               |                |                  [1]{}: in 0x27c-0x27e.7 (3)
0x270|                                    41         |            A   |                    i32.const: 0x41 (valid) 0x27c-0x27c.7 (1)
0x270|                                       c1 00   |             .. |                    n: 65 0x27d-0x27e.7 (2)
     |                                               |                |                  [2]{}: in 0x27f-0x281.7 (3)
0x270|                                             fd|               .|                    prefix: 0xfd (valid) 0x27f-0x27f.7 (1)
0x280|cc 01                                          |..              |                    i64x2.shr_s: 204 (valid) 0x280-0x281.7 (2)
     |                                               |                |                  [3]{}: in 0x282-0x282.7 (1)
0x280|      0b|                                      |  .|            |                    end: 0xb (valid) 0x282-0x282.7 (1)
