$ fq -d wasm dv simd_i32x4_trunc_sat_f32x4-0.wasm
    |00 01 02 03 04 05 06 07 08 09 0a 0b 0c 0d 0e 0f|0123456789abcdef|.{}: simd_i32x4_trunc_sat_f32x4-0.wasm (wasm) 0x0-0x5f (95)
0x00|00 61 73 6d                                    |.asm            |  magic: raw bits (valid) 0x0-0x4 (4)
0x00|            01 00 00 00                        |    ....        |  version: 1 0x4-0x8 (4)
    |                                               |                |  sections[0:4]: 0x8-0x5f (87)
    |                                               |                |    [0]{}: section 0x8-0x10 (8)
0x00|                        01                     |        .       |      id: "type_section" (1) 0x8-0x9 (1)
0x00|                           06                  |         .      |      size: 6 (valid) 0x9-0xa (1)
    |                                               |                |      content{}: 0xa-0x10 (6)
    |                                               |                |        ft{}: 0xa-0x10 (6)
0x00|                              01               |          .     |          n: 1 (valid) 0xa-0xb (1)
    |                                               |                |          x[0:1]: 0xb-0x10 (5)
    |                                               |                |            [0]{}: ft 0xb-0x10 (5)
0x00|                                 60            |           `    |              tag: 0x60 (valid) 0xb-0xc (1)
    |                                               |                |              rt1{}: 0xc-0xe (2)
0x00|                                    01         |            .   |                n: 1 (valid) 0xc-0xd (1)
    |                                               |                |                x[0:1]: 0xd-0xe (1)
0x00|                                       7b      |             {  |                  [0]: "v128" (0x7b) t 0xd-0xe (1)
    |                                               |                |              rt2{}: 0xe-0x10 (2)
0x00|                                          01   |              . |                n: 1 (valid) 0xe-0xf (1)
    |                                               |                |                x[0:1]: 0xf-0x10 (1)
0x00|                                             7b|               {|                  [0]: "v128" (0x7b) t 0xf-0x10 (1)
    |                                               |                |    [1]{}: section 0x10-0x15 (5)
0x10|03                                             |.               |      id: "function_section" (3) 0x10-0x11 (1)
0x10|   03                                          | .              |      size: 3 (valid) 0x11-0x12 (1)
    |                                               |                |      content{}: 0x12-0x15 (3)
    |                                               |                |        x{}: 0x12-0x15 (3)
0x10|      02                                       |  .             |          n: 2 (valid) 0x12-0x13 (1)
    |                                               |                |          x[0:2]: 0x13-0x15 (2)
0x10|         00                                    |   .            |            [0]: 0 x (valid) 0x13-0x14 (1)
0x10|            00                                 |    .           |            [1]: 0 x (valid) 0x14-0x15 (1)
    |                                               |                |    [2]{}: section 0x15-0x4c (55)
0x10|               07                              |     .          |      id: "export_section" (7) 0x15-0x16 (1)
0x10|                  35                           |      5         |      size: 53 (valid) 0x16-0x17 (1)
    |                                               |                |      content{}: 0x17-0x4c (53)
    |                                               |                |        ex{}: 0x17-0x4c (53)
0x10|                     02                        |       .        |          n: 2 (valid) 0x17-0x18 (1)
    |                                               |                |          x[0:2]: 0x18-0x4c (52)
    |                                               |                |            [0]{}: ex 0x18-0x32 (26)
    |                                               |                |              nm{}: 0x18-0x30 (24)
0x10|                        17                     |        .       |                n: 23 (valid) 0x18-0x19 (1)
0x10|                           69 33 32 78 34 2e 74|         i32x4.t|                b: "i32x4.trunc_sat_f32x4_s" 0x19-0x30 (23)
0x20|72 75 6e 63 5f 73 61 74 5f 66 33 32 78 34 5f 73|runc_sat_f32x4_s|
    |                                               |                |              d{}: 0x30-0x32 (2)
0x30|00                                             |.               |                tag: "funcidx" (0x0) 0x30-0x31 (1)
0x30|   00                                          | .              |                x: 0 (valid) 0x31-0x32 (1)
    |                                               |                |            [1]{}: ex 0x32-0x4c (26)
    |                                               |                |              nm{}: 0x32-0x4a (24)
0x30|      17                                       |  .             |                n: 23 (valid) 0x32-0x33 (1)
0x30|         69 33 32 78 34 2e 74 72 75 6e 63 5f 73|   i32x4.trunc_s|                b: "i32x4.trunc_sat_f32x4_u" 0x33-0x4a (23)
0x40|61 74 5f 66 33 32 78 34 5f 75                  |at_f32x4_u      |
    |                                               |                |              d{}: 0x4a-0x4c (2)
0x40|                              00               |          .     |                tag: "funcidx" (0x0) 0x4a-0x4b (1)
0x40|                                 01            |           .    |                x: 1 (valid) 0x4b-0x4c (1)
    |                                               |                |    [3]{}: section 0x4c-0x5f (19)
0x40|                                    0a         |            .   |      id: "code_section" (10) 0x4c-0x4d (1)
0x40|                                       11      |             .  |      size: 17 (valid) 0x4d-0x4e (1)
    |                                               |                |      content{}: 0x4e-0x5f (17)
    |                                               |                |        code{}: 0x4e-0x5f (17)
0x40|                                          02   |              . |          n: 2 (valid) 0x4e-0x4f (1)
    |                                               |                |          x[0:2]: 0x4f-0x5f (16)
    |                                               |                |            [0]{}: code 0x4f-0x57 (8)
0x40|                                             07|               .|              size: 7 (valid) 0x4f-0x50 (1)
    |                                               |                |              code{}: 0x50-0x57 (7)
    |                                               |                |                t{}: 0x50-0x51 (1)
0x50|00                                             |.               |                  n: 0 (valid) 0x50-0x51 (1)
    |                                               |                |                  x[0:0]: 0x51-0x51 (0)
    |                                               |                |                e[0:3]: 0x51-0x57 (6)
    |                                               |                |                  [0]{}: in 0x51-0x53 (2)
0x50|   20                                          |                |                    opcode: "local.get" (0x20) 0x51-0x52 (1)
0x50|      00                                       |  .             |                    x: 0 (valid) 0x52-0x53 (1)
    |                                               |                |                  [1]{}: in 0x53-0x56 (3)
0x50|         fd                                    |   .            |                    opcode: "vector" (0xfd) 0x53-0x54 (1)
0x50|            f8 01                              |    ..          |                    v_opcode: "i32x4.trunc_sat_f32x4_s" (248) 0x54-0x56 (2)
    |                                               |                |                  [2]{}: in 0x56-0x57 (1)
0x50|                  0b                           |      .         |                    opcode: "end" (0xb) 0x56-0x57 (1)
    |                                               |                |            [1]{}: code 0x57-0x5f (8)
0x50|                     07                        |       .        |              size: 7 (valid) 0x57-0x58 (1)
    |                                               |                |              code{}: 0x58-0x5f (7)
    |                                               |                |                t{}: 0x58-0x59 (1)
0x50|                        00                     |        .       |                  n: 0 (valid) 0x58-0x59 (1)
    |                                               |                |                  x[0:0]: 0x59-0x59 (0)
    |                                               |                |                e[0:3]: 0x59-0x5f (6)
    |                                               |                |                  [0]{}: in 0x59-0x5b (2)
0x50|                           20                  |                |                    opcode: "local.get" (0x20) 0x59-0x5a (1)
0x50|                              00               |          .     |                    x: 0 (valid) 0x5a-0x5b (1)
    |                                               |                |                  [1]{}: in 0x5b-0x5e (3)
0x50|                                 fd            |           .    |                    opcode: "vector" (0xfd) 0x5b-0x5c (1)
0x50|                                    f9 01      |            ..  |                    v_opcode: "i32x4.trunc_sat_f32x4_u" (249) 0x5c-0x5e (2)
    |                                               |                |                  [2]{}: in 0x5e-0x5f (1)
0x50|                                          0b|  |              .||                    opcode: "end" (0xb) 0x5e-0x5f (1)
