$ fq -d wasm dv simd_conversions-0.wasm
     |00 01 02 03 04 05 06 07 08 09 0a 0b 0c 0d 0e 0f|0123456789abcdef|.{}: simd_conversions-0.wasm (wasm) 0x0-0x175.7 (374)
0x000|00 61 73 6d                                    |.asm            |  magic: raw bits (valid) 0x0-0x3.7 (4)
0x000|            01 00 00 00                        |    ....        |  version: 1 0x4-0x7.7 (4)
     |                                               |                |  sections[0:4]: 0x8-0x175.7 (366)
     |                                               |                |    [0]{}: section 0x8-0x15.7 (14)
0x000|                        01                     |        .       |      id: "type section" (1) 0x8-0x8.7 (1)
0x000|                           0c                  |         .      |      size: 12 0x9-0x9.7 (1)
     |                                               |                |      content{}: 0xa-0x15.7 (12)
     |                                               |                |        ft{}: 0xa-0x15.7 (12)
0x000|                              02               |          .     |          n: 2 0xa-0xa.7 (1)
     |                                               |                |          x[0:2]: 0xb-0x15.7 (11)
     |                                               |                |            [0]{}: ft 0xb-0xf.7 (5)
0x000|                                 60            |           `    |              tag: 0x60 (valid) 0xb-0xb.7 (1)
     |                                               |                |              rt1{}: 0xc-0xd.7 (2)
0x000|                                    01         |            .   |                n: 1 0xc-0xc.7 (1)
     |                                               |                |                x[0:1]: 0xd-0xd.7 (1)
0x000|                                       7b      |             {  |                  [0]: "v128" (0x7b) t 0xd-0xd.7 (1)
     |                                               |                |              rt2{}: 0xe-0xf.7 (2)
0x000|                                          01   |              . |                n: 1 0xe-0xe.7 (1)
     |                                               |                |                x[0:1]: 0xf-0xf.7 (1)
0x000|                                             7b|               {|                  [0]: "v128" (0x7b) t 0xf-0xf.7 (1)
     |                                               |                |            [1]{}: ft 0x10-0x15.7 (6)
0x010|60                                             |`               |              tag: 0x60 (valid) 0x10-0x10.7 (1)
     |                                               |                |              rt1{}: 0x11-0x13.7 (3)
0x010|   02                                          | .              |                n: 2 0x11-0x11.7 (1)
     |                                               |                |                x[0:2]: 0x12-0x13.7 (2)
0x010|      7b                                       |  {             |                  [0]: "v128" (0x7b) t 0x12-0x12.7 (1)
0x010|         7b                                    |   {            |                  [1]: "v128" (0x7b) t 0x13-0x13.7 (1)
     |                                               |                |              rt2{}: 0x14-0x15.7 (2)
0x010|            01                                 |    .           |                n: 1 0x14-0x14.7 (1)
     |                                               |                |                x[0:1]: 0x15-0x15.7 (1)
0x010|               7b                              |     {          |                  [0]: "v128" (0x7b) t 0x15-0x15.7 (1)
     |                                               |                |    [1]{}: section 0x16-0x22.7 (13)
0x010|                  03                           |      .         |      id: "function section" (3) 0x16-0x16.7 (1)
0x010|                     0b                        |       .        |      size: 11 0x17-0x17.7 (1)
     |                                               |                |      content{}: 0x18-0x22.7 (11)
     |                                               |                |        x{}: 0x18-0x22.7 (11)
0x010|                        0a                     |        .       |          n: 10 0x18-0x18.7 (1)
     |                                               |                |          x[0:10]: 0x19-0x22.7 (10)
0x010|                           00                  |         .      |            [0]: 0 x 0x19-0x19.7 (1)
0x010|                              00               |          .     |            [1]: 0 x 0x1a-0x1a.7 (1)
0x010|                                 00            |           .    |            [2]: 0 x 0x1b-0x1b.7 (1)
0x010|                                    00         |            .   |            [3]: 0 x 0x1c-0x1c.7 (1)
0x010|                                       01      |             .  |            [4]: 1 x 0x1d-0x1d.7 (1)
0x010|                                          01   |              . |            [5]: 1 x 0x1e-0x1e.7 (1)
0x010|                                             01|               .|            [6]: 1 x 0x1f-0x1f.7 (1)
0x020|01                                             |.               |            [7]: 1 x 0x20-0x20.7 (1)
0x020|   00                                          | .              |            [8]: 0 x 0x21-0x21.7 (1)
0x020|      00                                       |  .             |            [9]: 0 x 0x22-0x22.7 (1)
     |                                               |                |    [2]{}: section 0x23-0x11e.7 (252)
0x020|         07                                    |   .            |      id: "export section" (7) 0x23-0x23.7 (1)
0x020|            f9 01                              |    ..          |      size: 249 0x24-0x25.7 (2)
     |                                               |                |      content{}: 0x26-0x11e.7 (249)
     |                                               |                |        ex{}: 0x26-0x11e.7 (249)
0x020|                  0a                           |      .         |          n: 10 0x26-0x26.7 (1)
     |                                               |                |          x[0:10]: 0x27-0x11e.7 (248)
     |                                               |                |            [0]{}: ex 0x27-0x3e.7 (24)
     |                                               |                |              nm{}: 0x27-0x3c.7 (22)
0x020|                     15                        |       .        |                n: 21 0x27-0x27.7 (1)
0x020|                        66 33 32 78 34 2e 63 6f|        f32x4.co|                b: "f32x4.convert_i32x4_s" 0x28-0x3c.7 (21)
0x030|6e 76 65 72 74 5f 69 33 32 78 34 5f 73         |nvert_i32x4_s   |
     |                                               |                |              d{}: 0x3d-0x3e.7 (2)
0x030|                                       00      |             .  |                tag: "funcidx" (0x0) 0x3d-0x3d.7 (1)
0x030|                                          00   |              . |                x: 0 0x3e-0x3e.7 (1)
     |                                               |                |            [1]{}: ex 0x3f-0x56.7 (24)
     |                                               |                |              nm{}: 0x3f-0x54.7 (22)
0x030|                                             15|               .|                n: 21 0x3f-0x3f.7 (1)
0x040|66 33 32 78 34 2e 63 6f 6e 76 65 72 74 5f 69 33|f32x4.convert_i3|                b: "f32x4.convert_i32x4_u" 0x40-0x54.7 (21)
0x050|32 78 34 5f 75                                 |2x4_u           |
     |                                               |                |              d{}: 0x55-0x56.7 (2)
0x050|               00                              |     .          |                tag: "funcidx" (0x0) 0x55-0x55.7 (1)
0x050|                  01                           |      .         |                x: 1 0x56-0x56.7 (1)
     |                                               |                |            [2]{}: ex 0x57-0x72.7 (28)
     |                                               |                |              nm{}: 0x57-0x70.7 (26)
0x050|                     19                        |       .        |                n: 25 0x57-0x57.7 (1)
0x050|                        66 36 34 78 32 2e 63 6f|        f64x2.co|                b: "f64x2.convert_low_i32x4_s" 0x58-0x70.7 (25)
0x060|6e 76 65 72 74 5f 6c 6f 77 5f 69 33 32 78 34 5f|nvert_low_i32x4_|
0x070|73                                             |s               |
     |                                               |                |              d{}: 0x71-0x72.7 (2)
0x070|   00                                          | .              |                tag: "funcidx" (0x0) 0x71-0x71.7 (1)
0x070|      02                                       |  .             |                x: 2 0x72-0x72.7 (1)
     |                                               |                |            [3]{}: ex 0x73-0x8e.7 (28)
     |                                               |                |              nm{}: 0x73-0x8c.7 (26)
0x070|         19                                    |   .            |                n: 25 0x73-0x73.7 (1)
0x070|            66 36 34 78 32 2e 63 6f 6e 76 65 72|    f64x2.conver|                b: "f64x2.convert_low_i32x4_u" 0x74-0x8c.7 (25)
0x080|74 5f 6c 6f 77 5f 69 33 32 78 34 5f 75         |t_low_i32x4_u   |
     |                                               |                |              d{}: 0x8d-0x8e.7 (2)
0x080|                                       00      |             .  |                tag: "funcidx" (0x0) 0x8d-0x8d.7 (1)
0x080|                                          03   |              . |                x: 3 0x8e-0x8e.7 (1)
     |                                               |                |            [4]{}: ex 0x8f-0xa5.7 (23)
     |                                               |                |              nm{}: 0x8f-0xa3.7 (21)
0x080|                                             14|               .|                n: 20 0x8f-0x8f.7 (1)
0x090|69 38 78 31 36 2e 6e 61 72 72 6f 77 5f 69 31 36|i8x16.narrow_i16|                b: "i8x16.narrow_i16x8_s" 0x90-0xa3.7 (20)
0x0a0|78 38 5f 73                                    |x8_s            |
     |                                               |                |              d{}: 0xa4-0xa5.7 (2)
0x0a0|            00                                 |    .           |                tag: "funcidx" (0x0) 0xa4-0xa4.7 (1)
0x0a0|               04                              |     .          |                x: 4 0xa5-0xa5.7 (1)
     |                                               |                |            [5]{}: ex 0xa6-0xbc.7 (23)
     |                                               |                |              nm{}: 0xa6-0xba.7 (21)
0x0a0|                  14                           |      .         |                n: 20 0xa6-0xa6.7 (1)
0x0a0|                     69 38 78 31 36 2e 6e 61 72|       i8x16.nar|                b: "i8x16.narrow_i16x8_u" 0xa7-0xba.7 (20)
0x0b0|72 6f 77 5f 69 31 36 78 38 5f 75               |row_i16x8_u     |
     |                                               |                |              d{}: 0xbb-0xbc.7 (2)
0x0b0|                                 00            |           .    |                tag: "funcidx" (0x0) 0xbb-0xbb.7 (1)
0x0b0|                                    05         |            .   |                x: 5 0xbc-0xbc.7 (1)
     |                                               |                |            [6]{}: ex 0xbd-0xd3.7 (23)
     |                                               |                |              nm{}: 0xbd-0xd1.7 (21)
0x0b0|                                       14      |             .  |                n: 20 0xbd-0xbd.7 (1)
0x0b0|                                          69 31|              i1|                b: "i16x8.narrow_i32x4_s" 0xbe-0xd1.7 (20)
0x0c0|36 78 38 2e 6e 61 72 72 6f 77 5f 69 33 32 78 34|6x8.narrow_i32x4|
0x0d0|5f 73                                          |_s              |
     |                                               |                |              d{}: 0xd2-0xd3.7 (2)
0x0d0|      00                                       |  .             |                tag: "funcidx" (0x0) 0xd2-0xd2.7 (1)
0x0d0|         06                                    |   .            |                x: 6 0xd3-0xd3.7 (1)
     |                                               |                |            [7]{}: ex 0xd4-0xea.7 (23)
     |                                               |                |              nm{}: 0xd4-0xe8.7 (21)
0x0d0|            14                                 |    .           |                n: 20 0xd4-0xd4.7 (1)
0x0d0|               69 31 36 78 38 2e 6e 61 72 72 6f|     i16x8.narro|                b: "i16x8.narrow_i32x4_u" 0xd5-0xe8.7 (20)
0x0e0|77 5f 69 33 32 78 34 5f 75                     |w_i32x4_u       |
     |                                               |                |              d{}: 0xe9-0xea.7 (2)
0x0e0|                           00                  |         .      |                tag: "funcidx" (0x0) 0xe9-0xe9.7 (1)
0x0e0|                              07               |          .     |                x: 7 0xea-0xea.7 (1)
     |                                               |                |            [8]{}: ex 0xeb-0x104.7 (26)
     |                                               |                |              nm{}: 0xeb-0x102.7 (24)
0x0e0|                                 17            |           .    |                n: 23 0xeb-0xeb.7 (1)
0x0e0|                                    66 36 34 78|            f64x|                b: "f64x2.promote_low_f32x4" 0xec-0x102.7 (23)
0x0f0|32 2e 70 72 6f 6d 6f 74 65 5f 6c 6f 77 5f 66 33|2.promote_low_f3|
0x100|32 78 34                                       |2x4             |
     |                                               |                |              d{}: 0x103-0x104.7 (2)
0x100|         00                                    |   .            |                tag: "funcidx" (0x0) 0x103-0x103.7 (1)
0x100|            08                                 |    .           |                x: 8 0x104-0x104.7 (1)
     |                                               |                |            [9]{}: ex 0x105-0x11e.7 (26)
     |                                               |                |              nm{}: 0x105-0x11c.7 (24)
0x100|               17                              |     .          |                n: 23 0x105-0x105.7 (1)
0x100|                  66 33 32 78 34 2e 64 65 6d 6f|      f32x4.demo|                b: "f32x4.demote_f64x2_zero" 0x106-0x11c.7 (23)
0x110|74 65 5f 66 36 34 78 32 5f 7a 65 72 6f         |te_f64x2_zero   |
     |                                               |                |              d{}: 0x11d-0x11e.7 (2)
0x110|                                       00      |             .  |                tag: "funcidx" (0x0) 0x11d-0x11d.7 (1)
0x110|                                          09   |              . |                x: 9 0x11e-0x11e.7 (1)
     |                                               |                |    [3]{}: section 0x11f-0x175.7 (87)
0x110|                                             0a|               .|      id: "code section" (10) 0x11f-0x11f.7 (1)
0x120|55                                             |U               |      size: 85 0x120-0x120.7 (1)
     |                                               |                |      content{}: 0x121-0x175.7 (85)
     |                                               |                |        code{}: 0x121-0x175.7 (85)
0x120|   0a                                          | .              |          n: 10 0x121-0x121.7 (1)
     |                                               |                |          x[0:10]: 0x122-0x175.7 (84)
     |                                               |                |            [0]{}: code 0x122-0x129.7 (8)
0x120|      07                                       |  .             |              size: 7 0x122-0x122.7 (1)
     |                                               |                |              code{}: 0x123-0x129.7 (7)
     |                                               |                |                t{}: 0x123-0x123.7 (1)
0x120|         00                                    |   .            |                  n: 0 0x123-0x123.7 (1)
     |                                               |                |                  x[0:0]: 0x124-NA (0)
     |                                               |                |                e[0:3]: 0x124-0x129.7 (6)
     |                                               |                |                  [0]{}: in 0x124-0x125.7 (2)
0x120|            20                                 |                |                    local.get: 0x20 (valid) 0x124-0x124.7 (1)
0x120|               00                              |     .          |                    x: 0 0x125-0x125.7 (1)
     |                                               |                |                  [1]{}: in 0x126-0x128.7 (3)
0x120|                  fd                           |      .         |                    prefix: 0xfd (valid) 0x126-0x126.7 (1)
0x120|                     fa 01                     |       ..       |                    f32x4.convert_i32x4_s: 250 (valid) 0x127-0x128.7 (2)
     |                                               |                |                  [2]{}: in 0x129-0x129.7 (1)
0x120|                           0b                  |         .      |                    end: 0xb (valid) 0x129-0x129.7 (1)
     |                                               |                |            [1]{}: code 0x12a-0x131.7 (8)
0x120|                              07               |          .     |              size: 7 0x12a-0x12a.7 (1)
     |                                               |                |              code{}: 0x12b-0x131.7 (7)
     |                                               |                |                t{}: 0x12b-0x12b.7 (1)
0x120|                                 00            |           .    |                  n: 0 0x12b-0x12b.7 (1)
     |                                               |                |                  x[0:0]: 0x12c-NA (0)
     |                                               |                |                e[0:3]: 0x12c-0x131.7 (6)
     |                                               |                |                  [0]{}: in 0x12c-0x12d.7 (2)
0x120|                                    20         |                |                    local.get: 0x20 (valid) 0x12c-0x12c.7 (1)
0x120|                                       00      |             .  |                    x: 0 0x12d-0x12d.7 (1)
     |                                               |                |                  [1]{}: in 0x12e-0x130.7 (3)
0x120|                                          fd   |              . |                    prefix: 0xfd (valid) 0x12e-0x12e.7 (1)
0x120|                                             fb|               .|                    f32x4.convert_i32x4_u: 251 (valid) 0x12f-0x130.7 (2)
0x130|01                                             |.               |
     |                                               |                |                  [2]{}: in 0x131-0x131.7 (1)
0x130|   0b                                          | .              |                    end: 0xb (valid) 0x131-0x131.7 (1)
     |                                               |                |            [2]{}: code 0x132-0x139.7 (8)
0x130|      07                                       |  .             |              size: 7 0x132-0x132.7 (1)
     |                                               |                |              code{}: 0x133-0x139.7 (7)
     |                                               |                |                t{}: 0x133-0x133.7 (1)
0x130|         00                                    |   .            |                  n: 0 0x133-0x133.7 (1)
     |                                               |                |                  x[0:0]: 0x134-NA (0)
     |                                               |                |                e[0:3]: 0x134-0x139.7 (6)
     |                                               |                |                  [0]{}: in 0x134-0x135.7 (2)
0x130|            20                                 |                |                    local.get: 0x20 (valid) 0x134-0x134.7 (1)
0x130|               00                              |     .          |                    x: 0 0x135-0x135.7 (1)
     |                                               |                |                  [1]{}: in 0x136-0x138.7 (3)
0x130|                  fd                           |      .         |                    prefix: 0xfd (valid) 0x136-0x136.7 (1)
0x130|                     fe 01                     |       ..       |                    f64x2.convert_low_i32x4_s: 254 (valid) 0x137-0x138.7 (2)
     |                                               |                |                  [2]{}: in 0x139-0x139.7 (1)
0x130|                           0b                  |         .      |                    end: 0xb (valid) 0x139-0x139.7 (1)
     |                                               |                |            [3]{}: code 0x13a-0x141.7 (8)
0x130|                              07               |          .     |              size: 7 0x13a-0x13a.7 (1)
     |                                               |                |              code{}: 0x13b-0x141.7 (7)
     |                                               |                |                t{}: 0x13b-0x13b.7 (1)
0x130|                                 00            |           .    |                  n: 0 0x13b-0x13b.7 (1)
     |                                               |                |                  x[0:0]: 0x13c-NA (0)
     |                                               |                |                e[0:3]: 0x13c-0x141.7 (6)
     |                                               |                |                  [0]{}: in 0x13c-0x13d.7 (2)
0x130|                                    20         |                |                    local.get: 0x20 (valid) 0x13c-0x13c.7 (1)
0x130|                                       00      |             .  |                    x: 0 0x13d-0x13d.7 (1)
     |                                               |                |                  [1]{}: in 0x13e-0x140.7 (3)
0x130|                                          fd   |              . |                    prefix: 0xfd (valid) 0x13e-0x13e.7 (1)
0x130|                                             ff|               .|                    f64x2.convert_low_i32x4_u: 255 (valid) 0x13f-0x140.7 (2)
0x140|01                                             |.               |
     |                                               |                |                  [2]{}: in 0x141-0x141.7 (1)
0x140|   0b                                          | .              |                    end: 0xb (valid) 0x141-0x141.7 (1)
     |                                               |                |            [4]{}: code 0x142-0x14a.7 (9)
0x140|      08                                       |  .             |              size: 8 0x142-0x142.7 (1)
     |                                               |                |              code{}: 0x143-0x14a.7 (8)
     |                                               |                |                t{}: 0x143-0x143.7 (1)
0x140|         00                                    |   .            |                  n: 0 0x143-0x143.7 (1)
     |                                               |                |                  x[0:0]: 0x144-NA (0)
     |                                               |                |                e[0:4]: 0x144-0x14a.7 (7)
     |                                               |                |                  [0]{}: in 0x144-0x145.7 (2)
0x140|            20                                 |                |                    local.get: 0x20 (valid) 0x144-0x144.7 (1)
0x140|               00                              |     .          |                    x: 0 0x145-0x145.7 (1)
     |                                               |                |                  [1]{}: in 0x146-0x147.7 (2)
0x140|                  20                           |                |                    local.get: 0x20 (valid) 0x146-0x146.7 (1)
0x140|                     01                        |       .        |                    x: 1 0x147-0x147.7 (1)
     |                                               |                |                  [2]{}: in 0x148-0x149.7 (2)
0x140|                        fd                     |        .       |                    prefix: 0xfd (valid) 0x148-0x148.7 (1)
0x140|                           65                  |         e      |                    i8x16.narrow_i16x8_s: 101 (valid) 0x149-0x149.7 (1)
     |                                               |                |                  [3]{}: in 0x14a-0x14a.7 (1)
0x140|                              0b               |          .     |                    end: 0xb (valid) 0x14a-0x14a.7 (1)
     |                                               |                |            [5]{}: code 0x14b-0x153.7 (9)
0x140|                                 08            |           .    |              size: 8 0x14b-0x14b.7 (1)
     |                                               |                |              code{}: 0x14c-0x153.7 (8)
     |                                               |                |                t{}: 0x14c-0x14c.7 (1)
0x140|                                    00         |            .   |                  n: 0 0x14c-0x14c.7 (1)
     |                                               |                |                  x[0:0]: 0x14d-NA (0)
     |                                               |                |                e[0:4]: 0x14d-0x153.7 (7)
     |                                               |                |                  [0]{}: in 0x14d-0x14e.7 (2)
0x140|                                       20      |                |                    local.get: 0x20 (valid) 0x14d-0x14d.7 (1)
0x140|                                          00   |              . |                    x: 0 0x14e-0x14e.7 (1)
     |                                               |                |                  [1]{}: in 0x14f-0x150.7 (2)
0x140|                                             20|                |                    local.get: 0x20 (valid) 0x14f-0x14f.7 (1)
0x150|01                                             |.               |                    x: 1 0x150-0x150.7 (1)
     |                                               |                |                  [2]{}: in 0x151-0x152.7 (2)
0x150|   fd                                          | .              |                    prefix: 0xfd (valid) 0x151-0x151.7 (1)
0x150|      66                                       |  f             |                    i8x16.narrow_i16x8_u: 102 (valid) 0x152-0x152.7 (1)
     |                                               |                |                  [3]{}: in 0x153-0x153.7 (1)
0x150|         0b                                    |   .            |                    end: 0xb (valid) 0x153-0x153.7 (1)
     |                                               |                |            [6]{}: code 0x154-0x15d.7 (10)
0x150|            09                                 |    .           |              size: 9 0x154-0x154.7 (1)
     |                                               |                |              code{}: 0x155-0x15d.7 (9)
     |                                               |                |                t{}: 0x155-0x155.7 (1)
0x150|               00                              |     .          |                  n: 0 0x155-0x155.7 (1)
     |                                               |                |                  x[0:0]: 0x156-NA (0)
     |                                               |                |                e[0:4]: 0x156-0x15d.7 (8)
     |                                               |                |                  [0]{}: in 0x156-0x157.7 (2)
0x150|                  20                           |                |                    local.get: 0x20 (valid) 0x156-0x156.7 (1)
0x150|                     00                        |       .        |                    x: 0 0x157-0x157.7 (1)
     |                                               |                |                  [1]{}: in 0x158-0x159.7 (2)
0x150|                        20                     |                |                    local.get: 0x20 (valid) 0x158-0x158.7 (1)
0x150|                           01                  |         .      |                    x: 1 0x159-0x159.7 (1)
     |                                               |                |                  [2]{}: in 0x15a-0x15c.7 (3)
0x150|                              fd               |          .     |                    prefix: 0xfd (valid) 0x15a-0x15a.7 (1)
0x150|                                 85 01         |           ..   |                    i16x8.narrow_i32x4_s: 133 (valid) 0x15b-0x15c.7 (2)
     |                                               |                |                  [3]{}: in 0x15d-0x15d.7 (1)
0x150|                                       0b      |             .  |                    end: 0xb (valid) 0x15d-0x15d.7 (1)
     |                                               |                |            [7]{}: code 0x15e-0x167.7 (10)
0x150|                                          09   |              . |              size: 9 0x15e-0x15e.7 (1)
     |                                               |                |              code{}: 0x15f-0x167.7 (9)
     |                                               |                |                t{}: 0x15f-0x15f.7 (1)
0x150|                                             00|               .|                  n: 0 0x15f-0x15f.7 (1)
     |                                               |                |                  x[0:0]: 0x160-NA (0)
     |                                               |                |                e[0:4]: 0x160-0x167.7 (8)
     |                                               |                |                  [0]{}: in 0x160-0x161.7 (2)
0x160|20                                             |                |                    local.get: 0x20 (valid) 0x160-0x160.7 (1)
0x160|   00                                          | .              |                    x: 0 0x161-0x161.7 (1)
     |                                               |                |                  [1]{}: in 0x162-0x163.7 (2)
0x160|      20                                       |                |                    local.get: 0x20 (valid) 0x162-0x162.7 (1)
0x160|         01                                    |   .            |                    x: 1 0x163-0x163.7 (1)
     |                                               |                |                  [2]{}: in 0x164-0x166.7 (3)
0x160|            fd                                 |    .           |                    prefix: 0xfd (valid) 0x164-0x164.7 (1)
0x160|               86 01                           |     ..         |                    i16x8.narrow_i32x4_u: 134 (valid) 0x165-0x166.7 (2)
     |                                               |                |                  [3]{}: in 0x167-0x167.7 (1)
0x160|                     0b                        |       .        |                    end: 0xb (valid) 0x167-0x167.7 (1)
     |                                               |                |            [8]{}: code 0x168-0x16e.7 (7)
0x160|                        06                     |        .       |              size: 6 0x168-0x168.7 (1)
     |                                               |                |              code{}: 0x169-0x16e.7 (6)
     |                                               |                |                t{}: 0x169-0x169.7 (1)
0x160|                           00                  |         .      |                  n: 0 0x169-0x169.7 (1)
     |                                               |                |                  x[0:0]: 0x16a-NA (0)
     |                                               |                |                e[0:3]: 0x16a-0x16e.7 (5)
     |                                               |                |                  [0]{}: in 0x16a-0x16b.7 (2)
0x160|                              20               |                |                    local.get: 0x20 (valid) 0x16a-0x16a.7 (1)
0x160|                                 00            |           .    |                    x: 0 0x16b-0x16b.7 (1)
     |                                               |                |                  [1]{}: in 0x16c-0x16d.7 (2)
0x160|                                    fd         |            .   |                    prefix: 0xfd (valid) 0x16c-0x16c.7 (1)
0x160|                                       5f      |             _  |                    f64x2.promote_low_f32x4: 95 (valid) 0x16d-0x16d.7 (1)
     |                                               |                |                  [2]{}: in 0x16e-0x16e.7 (1)
0x160|                                          0b   |              . |                    end: 0xb (valid) 0x16e-0x16e.7 (1)
     |                                               |                |            [9]{}: code 0x16f-0x175.7 (7)
0x160|                                             06|               .|              size: 6 0x16f-0x16f.7 (1)
     |                                               |                |              code{}: 0x170-0x175.7 (6)
     |                                               |                |                t{}: 0x170-0x170.7 (1)
0x170|00                                             |.               |                  n: 0 0x170-0x170.7 (1)
     |                                               |                |                  x[0:0]: 0x171-NA (0)
     |                                               |                |                e[0:3]: 0x171-0x175.7 (5)
     |                                               |                |                  [0]{}: in 0x171-0x172.7 (2)
0x170|   20                                          |                |                    local.get: 0x20 (valid) 0x171-0x171.7 (1)
0x170|      00                                       |  .             |                    x: 0 0x172-0x172.7 (1)
     |                                               |                |                  [1]{}: in 0x173-0x174.7 (2)
0x170|         fd                                    |   .            |                    prefix: 0xfd (valid) 0x173-0x173.7 (1)
0x170|            5e                                 |    ^           |                    f32x4.demote_f64x2_zero: 94 (valid) 0x174-0x174.7 (1)
     |                                               |                |                  [2]{}: in 0x175-0x175.7 (1)
0x170|               0b|                             |     .|         |                    end: 0xb (valid) 0x175-0x175.7 (1)
