$ fq -d wasm dv simd_i16x8_arith-1.wasm
    |00 01 02 03 04 05 06 07 08 09 0a 0b 0c 0d 0e 0f|0123456789abcdef|.{}: simd_i16x8_arith-1.wasm (wasm) 0x0-0xd0.7 (209)
0x00|00 61 73 6d                                    |.asm            |  magic: raw bits (valid) 0x0-0x3.7 (4)
0x00|            01 00 00 00                        |    ....        |  version: 1 0x4-0x7.7 (4)
    |                                               |                |  sections[0:4]: 0x8-0xd0.7 (201)
    |                                               |                |    [0]{}: section 0x8-0x17.7 (16)
0x00|                        01                     |        .       |      id: "type section" (1) 0x8-0x8.7 (1)
0x00|                           0e                  |         .      |      size: 14 0x9-0x9.7 (1)
    |                                               |                |      content{}: 0xa-0x17.7 (14)
    |                                               |                |        ft{}: 0xa-0x17.7 (14)
0x00|                              02               |          .     |          n: 2 0xa-0xa.7 (1)
    |                                               |                |          x[0:2]: 0xb-0x17.7 (13)
    |                                               |                |            [0]{}: ft 0xb-0x11.7 (7)
0x00|                                 60            |           `    |              tag: 0x60 (valid) 0xb-0xb.7 (1)
    |                                               |                |              rt1{}: 0xc-0xf.7 (4)
0x00|                                    03         |            .   |                n: 3 0xc-0xc.7 (1)
    |                                               |                |                x[0:3]: 0xd-0xf.7 (3)
0x00|                                       7b      |             {  |                  [0]: "v128" (0x7b) t 0xd-0xd.7 (1)
0x00|                                          7b   |              { |                  [1]: "v128" (0x7b) t 0xe-0xe.7 (1)
0x00|                                             7b|               {|                  [2]: "v128" (0x7b) t 0xf-0xf.7 (1)
    |                                               |                |              rt2{}: 0x10-0x11.7 (2)
0x10|01                                             |.               |                n: 1 0x10-0x10.7 (1)
    |                                               |                |                x[0:1]: 0x11-0x11.7 (1)
0x10|   7b                                          | {              |                  [0]: "v128" (0x7b) t 0x11-0x11.7 (1)
    |                                               |                |            [1]{}: ft 0x12-0x17.7 (6)
0x10|      60                                       |  `             |              tag: 0x60 (valid) 0x12-0x12.7 (1)
    |                                               |                |              rt1{}: 0x13-0x15.7 (3)
0x10|         02                                    |   .            |                n: 2 0x13-0x13.7 (1)
    |                                               |                |                x[0:2]: 0x14-0x15.7 (2)
0x10|            7b                                 |    {           |                  [0]: "v128" (0x7b) t 0x14-0x14.7 (1)
0x10|               7b                              |     {          |                  [1]: "v128" (0x7b) t 0x15-0x15.7 (1)
    |                                               |                |              rt2{}: 0x16-0x17.7 (2)
0x10|                  01                           |      .         |                n: 1 0x16-0x16.7 (1)
    |                                               |                |                x[0:1]: 0x17-0x17.7 (1)
0x10|                     7b                        |       {        |                  [0]: "v128" (0x7b) t 0x17-0x17.7 (1)
    |                                               |                |    [1]{}: section 0x18-0x21.7 (10)
0x10|                        03                     |        .       |      id: "function section" (3) 0x18-0x18.7 (1)
0x10|                           08                  |         .      |      size: 8 0x19-0x19.7 (1)
    |                                               |                |      content{}: 0x1a-0x21.7 (8)
    |                                               |                |        x{}: 0x1a-0x21.7 (8)
0x10|                              07               |          .     |          n: 7 0x1a-0x1a.7 (1)
    |                                               |                |          x[0:7]: 0x1b-0x21.7 (7)
0x10|                                 00            |           .    |            [0]: 0 x 0x1b-0x1b.7 (1)
0x10|                                    00         |            .   |            [1]: 0 x 0x1c-0x1c.7 (1)
0x10|                                       00      |             .  |            [2]: 0 x 0x1d-0x1d.7 (1)
0x10|                                          00   |              . |            [3]: 0 x 0x1e-0x1e.7 (1)
0x10|                                             01|               .|            [4]: 1 x 0x1f-0x1f.7 (1)
0x20|01                                             |.               |            [5]: 1 x 0x20-0x20.7 (1)
0x20|   01                                          | .              |            [6]: 1 x 0x21-0x21.7 (1)
    |                                               |                |    [2]{}: section 0x22-0x6a.7 (73)
0x20|      07                                       |  .             |      id: "export section" (7) 0x22-0x22.7 (1)
0x20|         47                                    |   G            |      size: 71 0x23-0x23.7 (1)
    |                                               |                |      content{}: 0x24-0x6a.7 (71)
    |                                               |                |        ex{}: 0x24-0x6a.7 (71)
0x20|            07                                 |    .           |          n: 7 0x24-0x24.7 (1)
    |                                               |                |          x[0:7]: 0x25-0x6a.7 (70)
    |                                               |                |            [0]{}: ex 0x25-0x2e.7 (10)
    |                                               |                |              nm{}: 0x25-0x2c.7 (8)
0x20|               07                              |     .          |                n: 7 0x25-0x25.7 (1)
0x20|                  61 64 64 2d 73 75 62         |      add-sub   |                b: "add-sub" 0x26-0x2c.7 (7)
    |                                               |                |              d{}: 0x2d-0x2e.7 (2)
0x20|                                       00      |             .  |                tag: "funcidx" (0x0) 0x2d-0x2d.7 (1)
0x20|                                          00   |              . |                x: 0 0x2e-0x2e.7 (1)
    |                                               |                |            [1]{}: ex 0x2f-0x38.7 (10)
    |                                               |                |              nm{}: 0x2f-0x36.7 (8)
0x20|                                             07|               .|                n: 7 0x2f-0x2f.7 (1)
0x30|6d 75 6c 2d 61 64 64                           |mul-add         |                b: "mul-add" 0x30-0x36.7 (7)
    |                                               |                |              d{}: 0x37-0x38.7 (2)
0x30|                     00                        |       .        |                tag: "funcidx" (0x0) 0x37-0x37.7 (1)
0x30|                        01                     |        .       |                x: 1 0x38-0x38.7 (1)
    |                                               |                |            [2]{}: ex 0x39-0x42.7 (10)
    |                                               |                |              nm{}: 0x39-0x40.7 (8)
0x30|                           07                  |         .      |                n: 7 0x39-0x39.7 (1)
0x30|                              6d 75 6c 2d 73 75|          mul-su|                b: "mul-sub" 0x3a-0x40.7 (7)
0x40|62                                             |b               |
    |                                               |                |              d{}: 0x41-0x42.7 (2)
0x40|   00                                          | .              |                tag: "funcidx" (0x0) 0x41-0x41.7 (1)
0x40|      02                                       |  .             |                x: 2 0x42-0x42.7 (1)
    |                                               |                |            [3]{}: ex 0x43-0x4c.7 (10)
    |                                               |                |              nm{}: 0x43-0x4a.7 (8)
0x40|         07                                    |   .            |                n: 7 0x43-0x43.7 (1)
0x40|            73 75 62 2d 61 64 64               |    sub-add     |                b: "sub-add" 0x44-0x4a.7 (7)
    |                                               |                |              d{}: 0x4b-0x4c.7 (2)
0x40|                                 00            |           .    |                tag: "funcidx" (0x0) 0x4b-0x4b.7 (1)
0x40|                                    03         |            .   |                x: 3 0x4c-0x4c.7 (1)
    |                                               |                |            [4]{}: ex 0x4d-0x56.7 (10)
    |                                               |                |              nm{}: 0x4d-0x54.7 (8)
0x40|                                       07      |             .  |                n: 7 0x4d-0x4d.7 (1)
0x40|                                          61 64|              ad|                b: "add-neg" 0x4e-0x54.7 (7)
0x50|64 2d 6e 65 67                                 |d-neg           |
    |                                               |                |              d{}: 0x55-0x56.7 (2)
0x50|               00                              |     .          |                tag: "funcidx" (0x0) 0x55-0x55.7 (1)
0x50|                  04                           |      .         |                x: 4 0x56-0x56.7 (1)
    |                                               |                |            [5]{}: ex 0x57-0x60.7 (10)
    |                                               |                |              nm{}: 0x57-0x5e.7 (8)
0x50|                     07                        |       .        |                n: 7 0x57-0x57.7 (1)
0x50|                        6d 75 6c 2d 6e 65 67   |        mul-neg |                b: "mul-neg" 0x58-0x5e.7 (7)
    |                                               |                |              d{}: 0x5f-0x60.7 (2)
0x50|                                             00|               .|                tag: "funcidx" (0x0) 0x5f-0x5f.7 (1)
0x60|05                                             |.               |                x: 5 0x60-0x60.7 (1)
    |                                               |                |            [6]{}: ex 0x61-0x6a.7 (10)
    |                                               |                |              nm{}: 0x61-0x68.7 (8)
0x60|   07                                          | .              |                n: 7 0x61-0x61.7 (1)
0x60|      73 75 62 2d 6e 65 67                     |  sub-neg       |                b: "sub-neg" 0x62-0x68.7 (7)
    |                                               |                |              d{}: 0x69-0x6a.7 (2)
0x60|                           00                  |         .      |                tag: "funcidx" (0x0) 0x69-0x69.7 (1)
0x60|                              06               |          .     |                x: 6 0x6a-0x6a.7 (1)
    |                                               |                |    [3]{}: section 0x6b-0xd0.7 (102)
0x60|                                 0a            |           .    |      id: "code section" (10) 0x6b-0x6b.7 (1)
0x60|                                    64         |            d   |      size: 100 0x6c-0x6c.7 (1)
    |                                               |                |      content{}: 0x6d-0xd0.7 (100)
    |                                               |                |        code{}: 0x6d-0xd0.7 (100)
0x60|                                       07      |             .  |          n: 7 0x6d-0x6d.7 (1)
    |                                               |                |          x[0:7]: 0x6e-0xd0.7 (99)
    |                                               |                |            [0]{}: code 0x6e-0x7c.7 (15)
0x60|                                          0e   |              . |              size: 14 0x6e-0x6e.7 (1)
    |                                               |                |              code{}: 0x6f-0x7c.7 (14)
    |                                               |                |                t{}: 0x6f-0x6f.7 (1)
0x60|                                             00|               .|                  n: 0 0x6f-0x6f.7 (1)
    |                                               |                |                  x[0:0]: 0x70-NA (0)
    |                                               |                |                e[0:6]: 0x70-0x7c.7 (13)
    |                                               |                |                  [0]{}: in 0x70-0x71.7 (2)
0x70|20                                             |                |                    local.get: 0x20 (valid) 0x70-0x70.7 (1)
0x70|   00                                          | .              |                    x: 0 0x71-0x71.7 (1)
    |                                               |                |                  [1]{}: in 0x72-0x73.7 (2)
0x70|      20                                       |                |                    local.get: 0x20 (valid) 0x72-0x72.7 (1)
0x70|         01                                    |   .            |                    x: 1 0x73-0x73.7 (1)
    |                                               |                |                  [2]{}: in 0x74-0x76.7 (3)
0x70|            fd                                 |    .           |                    prefix: 0xfd (valid) 0x74-0x74.7 (1)
0x70|               91 01                           |     ..         |                    i16x8.sub: 145 (valid) 0x75-0x76.7 (2)
    |                                               |                |                  [3]{}: in 0x77-0x78.7 (2)
0x70|                     20                        |                |                    local.get: 0x20 (valid) 0x77-0x77.7 (1)
0x70|                        02                     |        .       |                    x: 2 0x78-0x78.7 (1)
    |                                               |                |                  [4]{}: in 0x79-0x7b.7 (3)
0x70|                           fd                  |         .      |                    prefix: 0xfd (valid) 0x79-0x79.7 (1)
0x70|                              8e 01            |          ..    |                    i16x8.add: 142 (valid) 0x7a-0x7b.7 (2)
    |                                               |                |                  [5]{}: in 0x7c-0x7c.7 (1)
0x70|                                    0b         |            .   |                    end: 0xb (valid) 0x7c-0x7c.7 (1)
    |                                               |                |            [1]{}: code 0x7d-0x8b.7 (15)
0x70|                                       0e      |             .  |              size: 14 0x7d-0x7d.7 (1)
    |                                               |                |              code{}: 0x7e-0x8b.7 (14)
    |                                               |                |                t{}: 0x7e-0x7e.7 (1)
0x70|                                          00   |              . |                  n: 0 0x7e-0x7e.7 (1)
    |                                               |                |                  x[0:0]: 0x7f-NA (0)
    |                                               |                |                e[0:6]: 0x7f-0x8b.7 (13)
    |                                               |                |                  [0]{}: in 0x7f-0x80.7 (2)
0x70|                                             20|                |                    local.get: 0x20 (valid) 0x7f-0x7f.7 (1)
0x80|00                                             |.               |                    x: 0 0x80-0x80.7 (1)
    |                                               |                |                  [1]{}: in 0x81-0x82.7 (2)
0x80|   20                                          |                |                    local.get: 0x20 (valid) 0x81-0x81.7 (1)
0x80|      01                                       |  .             |                    x: 1 0x82-0x82.7 (1)
    |                                               |                |                  [2]{}: in 0x83-0x85.7 (3)
0x80|         fd                                    |   .            |                    prefix: 0xfd (valid) 0x83-0x83.7 (1)
0x80|            8e 01                              |    ..          |                    i16x8.add: 142 (valid) 0x84-0x85.7 (2)
    |                                               |                |                  [3]{}: in 0x86-0x87.7 (2)
0x80|                  20                           |                |                    local.get: 0x20 (valid) 0x86-0x86.7 (1)
0x80|                     02                        |       .        |                    x: 2 0x87-0x87.7 (1)
    |                                               |                |                  [4]{}: in 0x88-0x8a.7 (3)
0x80|                        fd                     |        .       |                    prefix: 0xfd (valid) 0x88-0x88.7 (1)
0x80|                           95 01               |         ..     |                    i16x8.mul: 149 (valid) 0x89-0x8a.7 (2)
    |                                               |                |                  [5]{}: in 0x8b-0x8b.7 (1)
0x80|                                 0b            |           .    |                    end: 0xb (valid) 0x8b-0x8b.7 (1)
    |                                               |                |            [2]{}: code 0x8c-0x9a.7 (15)
0x80|                                    0e         |            .   |              size: 14 0x8c-0x8c.7 (1)
    |                                               |                |              code{}: 0x8d-0x9a.7 (14)
    |                                               |                |                t{}: 0x8d-0x8d.7 (1)
0x80|                                       00      |             .  |                  n: 0 0x8d-0x8d.7 (1)
    |                                               |                |                  x[0:0]: 0x8e-NA (0)
    |                                               |                |                e[0:6]: 0x8e-0x9a.7 (13)
    |                                               |                |                  [0]{}: in 0x8e-0x8f.7 (2)
0x80|                                          20   |                |                    local.get: 0x20 (valid) 0x8e-0x8e.7 (1)
0x80|                                             00|               .|                    x: 0 0x8f-0x8f.7 (1)
    |                                               |                |                  [1]{}: in 0x90-0x91.7 (2)
0x90|20                                             |                |                    local.get: 0x20 (valid) 0x90-0x90.7 (1)
0x90|   01                                          | .              |                    x: 1 0x91-0x91.7 (1)
    |                                               |                |                  [2]{}: in 0x92-0x94.7 (3)
0x90|      fd                                       |  .             |                    prefix: 0xfd (valid) 0x92-0x92.7 (1)
0x90|         91 01                                 |   ..           |                    i16x8.sub: 145 (valid) 0x93-0x94.7 (2)
    |                                               |                |                  [3]{}: in 0x95-0x96.7 (2)
0x90|               20                              |                |                    local.get: 0x20 (valid) 0x95-0x95.7 (1)
0x90|                  02                           |      .         |                    x: 2 0x96-0x96.7 (1)
    |                                               |                |                  [4]{}: in 0x97-0x99.7 (3)
0x90|                     fd                        |       .        |                    prefix: 0xfd (valid) 0x97-0x97.7 (1)
0x90|                        95 01                  |        ..      |                    i16x8.mul: 149 (valid) 0x98-0x99.7 (2)
    |                                               |                |                  [5]{}: in 0x9a-0x9a.7 (1)
0x90|                              0b               |          .     |                    end: 0xb (valid) 0x9a-0x9a.7 (1)
    |                                               |                |            [3]{}: code 0x9b-0xa9.7 (15)
0x90|                                 0e            |           .    |              size: 14 0x9b-0x9b.7 (1)
    |                                               |                |              code{}: 0x9c-0xa9.7 (14)
    |                                               |                |                t{}: 0x9c-0x9c.7 (1)
0x90|                                    00         |            .   |                  n: 0 0x9c-0x9c.7 (1)
    |                                               |                |                  x[0:0]: 0x9d-NA (0)
    |                                               |                |                e[0:6]: 0x9d-0xa9.7 (13)
    |                                               |                |                  [0]{}: in 0x9d-0x9e.7 (2)
0x90|                                       20      |                |                    local.get: 0x20 (valid) 0x9d-0x9d.7 (1)
0x90|                                          00   |              . |                    x: 0 0x9e-0x9e.7 (1)
    |                                               |                |                  [1]{}: in 0x9f-0xa0.7 (2)
0x90|                                             20|                |                    local.get: 0x20 (valid) 0x9f-0x9f.7 (1)
0xa0|01                                             |.               |                    x: 1 0xa0-0xa0.7 (1)
    |                                               |                |                  [2]{}: in 0xa1-0xa3.7 (3)
0xa0|   fd                                          | .              |                    prefix: 0xfd (valid) 0xa1-0xa1.7 (1)
0xa0|      8e 01                                    |  ..            |                    i16x8.add: 142 (valid) 0xa2-0xa3.7 (2)
    |                                               |                |                  [3]{}: in 0xa4-0xa5.7 (2)
0xa0|            20                                 |                |                    local.get: 0x20 (valid) 0xa4-0xa4.7 (1)
0xa0|               02                              |     .          |                    x: 2 0xa5-0xa5.7 (1)
    |                                               |                |                  [4]{}: in 0xa6-0xa8.7 (3)
0xa0|                  fd                           |      .         |                    prefix: 0xfd (valid) 0xa6-0xa6.7 (1)
0xa0|                     91 01                     |       ..       |                    i16x8.sub: 145 (valid) 0xa7-0xa8.7 (2)
    |                                               |                |                  [5]{}: in 0xa9-0xa9.7 (1)
0xa0|                           0b                  |         .      |                    end: 0xb (valid) 0xa9-0xa9.7 (1)
    |                                               |                |            [4]{}: code 0xaa-0xb6.7 (13)
0xa0|                              0c               |          .     |              size: 12 0xaa-0xaa.7 (1)
    |                                               |                |              code{}: 0xab-0xb6.7 (12)
    |                                               |                |                t{}: 0xab-0xab.7 (1)
0xa0|                                 00            |           .    |                  n: 0 0xab-0xab.7 (1)
    |                                               |                |                  x[0:0]: 0xac-NA (0)
    |                                               |                |                e[0:5]: 0xac-0xb6.7 (11)
    |                                               |                |                  [0]{}: in 0xac-0xad.7 (2)
0xa0|                                    20         |                |                    local.get: 0x20 (valid) 0xac-0xac.7 (1)
0xa0|                                       00      |             .  |                    x: 0 0xad-0xad.7 (1)
    |                                               |                |                  [1]{}: in 0xae-0xb0.7 (3)
0xa0|                                          fd   |              . |                    prefix: 0xfd (valid) 0xae-0xae.7 (1)
0xa0|                                             81|               .|                    i16x8.neg: 129 (valid) 0xaf-0xb0.7 (2)
0xb0|01                                             |.               |
    |                                               |                |                  [2]{}: in 0xb1-0xb2.7 (2)
0xb0|   20                                          |                |                    local.get: 0x20 (valid) 0xb1-0xb1.7 (1)
0xb0|      01                                       |  .             |                    x: 1 0xb2-0xb2.7 (1)
    |                                               |                |                  [3]{}: in 0xb3-0xb5.7 (3)
0xb0|         fd                                    |   .            |                    prefix: 0xfd (valid) 0xb3-0xb3.7 (1)
0xb0|            8e 01                              |    ..          |                    i16x8.add: 142 (valid) 0xb4-0xb5.7 (2)
    |                                               |                |                  [4]{}: in 0xb6-0xb6.7 (1)
0xb0|                  0b                           |      .         |                    end: 0xb (valid) 0xb6-0xb6.7 (1)
    |                                               |                |            [5]{}: code 0xb7-0xc3.7 (13)
0xb0|                     0c                        |       .        |              size: 12 0xb7-0xb7.7 (1)
    |                                               |                |              code{}: 0xb8-0xc3.7 (12)
    |                                               |                |                t{}: 0xb8-0xb8.7 (1)
0xb0|                        00                     |        .       |                  n: 0 0xb8-0xb8.7 (1)
    |                                               |                |                  x[0:0]: 0xb9-NA (0)
    |                                               |                |                e[0:5]: 0xb9-0xc3.7 (11)
    |                                               |                |                  [0]{}: in 0xb9-0xba.7 (2)
0xb0|                           20                  |                |                    local.get: 0x20 (valid) 0xb9-0xb9.7 (1)
0xb0|                              00               |          .     |                    x: 0 0xba-0xba.7 (1)
    |                                               |                |                  [1]{}: in 0xbb-0xbd.7 (3)
0xb0|                                 fd            |           .    |                    prefix: 0xfd (valid) 0xbb-0xbb.7 (1)
0xb0|                                    81 01      |            ..  |                    i16x8.neg: 129 (valid) 0xbc-0xbd.7 (2)
    |                                               |                |                  [2]{}: in 0xbe-0xbf.7 (2)
0xb0|                                          20   |                |                    local.get: 0x20 (valid) 0xbe-0xbe.7 (1)
0xb0|                                             01|               .|                    x: 1 0xbf-0xbf.7 (1)
    |                                               |                |                  [3]{}: in 0xc0-0xc2.7 (3)
0xc0|fd                                             |.               |                    prefix: 0xfd (valid) 0xc0-0xc0.7 (1)
0xc0|   95 01                                       | ..             |                    i16x8.mul: 149 (valid) 0xc1-0xc2.7 (2)
    |                                               |                |                  [4]{}: in 0xc3-0xc3.7 (1)
0xc0|         0b                                    |   .            |                    end: 0xb (valid) 0xc3-0xc3.7 (1)
    |                                               |                |            [6]{}: code 0xc4-0xd0.7 (13)
0xc0|            0c                                 |    .           |              size: 12 0xc4-0xc4.7 (1)
    |                                               |                |              code{}: 0xc5-0xd0.7 (12)
    |                                               |                |                t{}: 0xc5-0xc5.7 (1)
0xc0|               00                              |     .          |                  n: 0 0xc5-0xc5.7 (1)
    |                                               |                |                  x[0:0]: 0xc6-NA (0)
    |                                               |                |                e[0:5]: 0xc6-0xd0.7 (11)
    |                                               |                |                  [0]{}: in 0xc6-0xc7.7 (2)
0xc0|                  20                           |                |                    local.get: 0x20 (valid) 0xc6-0xc6.7 (1)
0xc0|                     00                        |       .        |                    x: 0 0xc7-0xc7.7 (1)
    |                                               |                |                  [1]{}: in 0xc8-0xca.7 (3)
0xc0|                        fd                     |        .       |                    prefix: 0xfd (valid) 0xc8-0xc8.7 (1)
0xc0|                           81 01               |         ..     |                    i16x8.neg: 129 (valid) 0xc9-0xca.7 (2)
    |                                               |                |                  [2]{}: in 0xcb-0xcc.7 (2)
0xc0|                                 20            |                |                    local.get: 0x20 (valid) 0xcb-0xcb.7 (1)
0xc0|                                    01         |            .   |                    x: 1 0xcc-0xcc.7 (1)
    |                                               |                |                  [3]{}: in 0xcd-0xcf.7 (3)
0xc0|                                       fd      |             .  |                    prefix: 0xfd (valid) 0xcd-0xcd.7 (1)
0xc0|                                          91 01|              ..|                    i16x8.sub: 145 (valid) 0xce-0xcf.7 (2)
    |                                               |                |                  [4]{}: in 0xd0-0xd0.7 (1)
0xd0|0b|                                            |.|              |                    end: 0xb (valid) 0xd0-0xd0.7 (1)
