$ fq -d wasm dv simd_f64x2-0.wasm
     |00 01 02 03 04 05 06 07 08 09 0a 0b 0c 0d 0e 0f|0123456789abcdef|.{}: simd_f64x2-0.wasm (wasm) 0x0-0x865 (2149)
0x000|00 61 73 6d                                    |.asm            |  magic: raw bits (valid) 0x0-0x4 (4)
0x000|            01 00 00 00                        |    ....        |  version: 1 0x4-0x8 (4)
     |                                               |                |  sections[0:4]: 0x8-0x865 (2141)
     |                                               |                |    [0]{}: section 0x8-0x1a (18)
0x000|                        01                     |        .       |      id: "type_section" (1) 0x8-0x9 (1)
0x000|                           10                  |         .      |      size: 16 (valid) 0x9-0xa (1)
     |                                               |                |      content{}: 0xa-0x1a (16)
     |                                               |                |        ft{}: 0xa-0x1a (16)
0x000|                              03               |          .     |          n: 3 (valid) 0xa-0xb (1)
     |                                               |                |          x[0:3]: 0xb-0x1a (15)
     |                                               |                |            [0]{}: ft 0xb-0x11 (6)
0x000|                                 60            |           `    |              tag: 0x60 (valid) 0xb-0xc (1)
     |                                               |                |              rt1{}: 0xc-0xf (3)
0x000|                                    02         |            .   |                n: 2 (valid) 0xc-0xd (1)
     |                                               |                |                x[0:2]: 0xd-0xf (2)
0x000|                                       7b      |             {  |                  [0]: "v128" (0x7b) t 0xd-0xe (1)
0x000|                                          7b   |              { |                  [1]: "v128" (0x7b) t 0xe-0xf (1)
     |                                               |                |              rt2{}: 0xf-0x11 (2)
0x000|                                             01|               .|                n: 1 (valid) 0xf-0x10 (1)
     |                                               |                |                x[0:1]: 0x10-0x11 (1)
0x010|7b                                             |{               |                  [0]: "v128" (0x7b) t 0x10-0x11 (1)
     |                                               |                |            [1]{}: ft 0x11-0x16 (5)
0x010|   60                                          | `              |              tag: 0x60 (valid) 0x11-0x12 (1)
     |                                               |                |              rt1{}: 0x12-0x14 (2)
0x010|      01                                       |  .             |                n: 1 (valid) 0x12-0x13 (1)
     |                                               |                |                x[0:1]: 0x13-0x14 (1)
0x010|         7b                                    |   {            |                  [0]: "v128" (0x7b) t 0x13-0x14 (1)
     |                                               |                |              rt2{}: 0x14-0x16 (2)
0x010|            01                                 |    .           |                n: 1 (valid) 0x14-0x15 (1)
     |                                               |                |                x[0:1]: 0x15-0x16 (1)
0x010|               7b                              |     {          |                  [0]: "v128" (0x7b) t 0x15-0x16 (1)
     |                                               |                |            [2]{}: ft 0x16-0x1a (4)
0x010|                  60                           |      `         |              tag: 0x60 (valid) 0x16-0x17 (1)
     |                                               |                |              rt1{}: 0x17-0x18 (1)
0x010|                     00                        |       .        |                n: 0 (valid) 0x17-0x18 (1)
     |                                               |                |                x[0:0]: 0x18-0x18 (0)
     |                                               |                |              rt2{}: 0x18-0x1a (2)
0x010|                        01                     |        .       |                n: 1 (valid) 0x18-0x19 (1)
     |                                               |                |                x[0:1]: 0x19-0x1a (1)
0x010|                           7b                  |         {      |                  [0]: "v128" (0x7b) t 0x19-0x1a (1)
     |                                               |                |    [1]{}: section 0x1a-0x42 (40)
0x010|                              03               |          .     |      id: "function_section" (3) 0x1a-0x1b (1)
0x010|                                 26            |           &    |      size: 38 (valid) 0x1b-0x1c (1)
     |                                               |                |      content{}: 0x1c-0x42 (38)
     |                                               |                |        x{}: 0x1c-0x42 (38)
0x010|                                    25         |            %   |          n: 37 (valid) 0x1c-0x1d (1)
     |                                               |                |          x[0:37]: 0x1d-0x42 (37)
0x010|                                       00      |             .  |            [0]: 0 x (valid) 0x1d-0x1e (1)
0x010|                                          00   |              . |            [1]: 0 x (valid) 0x1e-0x1f (1)
0x010|                                             01|               .|            [2]: 1 x (valid) 0x1f-0x20 (1)
0x020|02                                             |.               |            [3]: 2 x (valid) 0x20-0x21 (1)
0x020|   02                                          | .              |            [4]: 2 x (valid) 0x21-0x22 (1)
0x020|      02                                       |  .             |            [5]: 2 x (valid) 0x22-0x23 (1)
0x020|         02                                    |   .            |            [6]: 2 x (valid) 0x23-0x24 (1)
0x020|            02                                 |    .           |            [7]: 2 x (valid) 0x24-0x25 (1)
0x020|               02                              |     .          |            [8]: 2 x (valid) 0x25-0x26 (1)
0x020|                  02                           |      .         |            [9]: 2 x (valid) 0x26-0x27 (1)
0x020|                     02                        |       .        |            [10]: 2 x (valid) 0x27-0x28 (1)
0x020|                        01                     |        .       |            [11]: 1 x (valid) 0x28-0x29 (1)
0x020|                           01                  |         .      |            [12]: 1 x (valid) 0x29-0x2a (1)
0x020|                              01               |          .     |            [13]: 1 x (valid) 0x2a-0x2b (1)
0x020|                                 01            |           .    |            [14]: 1 x (valid) 0x2b-0x2c (1)
0x020|                                    01         |            .   |            [15]: 1 x (valid) 0x2c-0x2d (1)
0x020|                                       01      |             .  |            [16]: 1 x (valid) 0x2d-0x2e (1)
0x020|                                          01   |              . |            [17]: 1 x (valid) 0x2e-0x2f (1)
0x020|                                             01|               .|            [18]: 1 x (valid) 0x2f-0x30 (1)
0x030|02                                             |.               |            [19]: 2 x (valid) 0x30-0x31 (1)
0x030|   02                                          | .              |            [20]: 2 x (valid) 0x31-0x32 (1)
0x030|      02                                       |  .             |            [21]: 2 x (valid) 0x32-0x33 (1)
0x030|         02                                    |   .            |            [22]: 2 x (valid) 0x33-0x34 (1)
0x030|            02                                 |    .           |            [23]: 2 x (valid) 0x34-0x35 (1)
0x030|               02                              |     .          |            [24]: 2 x (valid) 0x35-0x36 (1)
0x030|                  02                           |      .         |            [25]: 2 x (valid) 0x36-0x37 (1)
0x030|                     02                        |       .        |            [26]: 2 x (valid) 0x37-0x38 (1)
0x030|                        01                     |        .       |            [27]: 1 x (valid) 0x38-0x39 (1)
0x030|                           01                  |         .      |            [28]: 1 x (valid) 0x39-0x3a (1)
0x030|                              01               |          .     |            [29]: 1 x (valid) 0x3a-0x3b (1)
0x030|                                 01            |           .    |            [30]: 1 x (valid) 0x3b-0x3c (1)
0x030|                                    01         |            .   |            [31]: 1 x (valid) 0x3c-0x3d (1)
0x030|                                       01      |             .  |            [32]: 1 x (valid) 0x3d-0x3e (1)
0x030|                                          01   |              . |            [33]: 1 x (valid) 0x3e-0x3f (1)
0x030|                                             01|               .|            [34]: 1 x (valid) 0x3f-0x40 (1)
0x040|02                                             |.               |            [35]: 2 x (valid) 0x40-0x41 (1)
0x040|   02                                          | .              |            [36]: 2 x (valid) 0x41-0x42 (1)
     |                                               |                |    [2]{}: section 0x42-0x3d5 (915)
0x040|      07                                       |  .             |      id: "export_section" (7) 0x42-0x43 (1)
0x040|         90 07                                 |   ..           |      size: 912 (valid) 0x43-0x45 (2)
     |                                               |                |      content{}: 0x45-0x3d5 (912)
     |                                               |                |        ex{}: 0x45-0x3d5 (912)
0x040|               25                              |     %          |          n: 37 (valid) 0x45-0x46 (1)
     |                                               |                |          x[0:37]: 0x46-0x3d5 (911)
     |                                               |                |            [0]{}: ex 0x46-0x52 (12)
     |                                               |                |              nm{}: 0x46-0x50 (10)
0x040|                  09                           |      .         |                n: 9 (valid) 0x46-0x47 (1)
0x040|                     66 36 34 78 32 2e 6d 69 6e|       f64x2.min|                b: "f64x2.min" 0x47-0x50 (9)
     |                                               |                |              d{}: 0x50-0x52 (2)
0x050|00                                             |.               |                tag: "funcidx" (0x0) 0x50-0x51 (1)
0x050|   00                                          | .              |                x: 0 (valid) 0x51-0x52 (1)
     |                                               |                |            [1]{}: ex 0x52-0x5e (12)
     |                                               |                |              nm{}: 0x52-0x5c (10)
0x050|      09                                       |  .             |                n: 9 (valid) 0x52-0x53 (1)
0x050|         66 36 34 78 32 2e 6d 61 78            |   f64x2.max    |                b: "f64x2.max" 0x53-0x5c (9)
     |                                               |                |              d{}: 0x5c-0x5e (2)
0x050|                                    00         |            .   |                tag: "funcidx" (0x0) 0x5c-0x5d (1)
0x050|                                       01      |             .  |                x: 1 (valid) 0x5d-0x5e (1)
     |                                               |                |            [2]{}: ex 0x5e-0x6a (12)
     |                                               |                |              nm{}: 0x5e-0x68 (10)
0x050|                                          09   |              . |                n: 9 (valid) 0x5e-0x5f (1)
0x050|                                             66|               f|                b: "f64x2.abs" 0x5f-0x68 (9)
0x060|36 34 78 32 2e 61 62 73                        |64x2.abs        |
     |                                               |                |              d{}: 0x68-0x6a (2)
0x060|                        00                     |        .       |                tag: "funcidx" (0x0) 0x68-0x69 (1)
0x060|                           02                  |         .      |                x: 2 (valid) 0x69-0x6a (1)
     |                                               |                |            [3]{}: ex 0x6a-0x83 (25)
     |                                               |                |              nm{}: 0x6a-0x81 (23)
0x060|                              16               |          .     |                n: 22 (valid) 0x6a-0x6b (1)
0x060|                                 66 36 34 78 32|           f64x2|                b: "f64x2.min_with_const_0" 0x6b-0x81 (22)
0x070|2e 6d 69 6e 5f 77 69 74 68 5f 63 6f 6e 73 74 5f|.min_with_const_|
0x080|30                                             |0               |
     |                                               |                |              d{}: 0x81-0x83 (2)
0x080|   00                                          | .              |                tag: "funcidx" (0x0) 0x81-0x82 (1)
0x080|      03                                       |  .             |                x: 3 (valid) 0x82-0x83 (1)
     |                                               |                |            [4]{}: ex 0x83-0x9c (25)
     |                                               |                |              nm{}: 0x83-0x9a (23)
0x080|         16                                    |   .            |                n: 22 (valid) 0x83-0x84 (1)
0x080|            66 36 34 78 32 2e 6d 69 6e 5f 77 69|    f64x2.min_wi|                b: "f64x2.min_with_const_1" 0x84-0x9a (22)
0x090|74 68 5f 63 6f 6e 73 74 5f 31                  |th_const_1      |
     |                                               |                |              d{}: 0x9a-0x9c (2)
0x090|                              00               |          .     |                tag: "funcidx" (0x0) 0x9a-0x9b (1)
0x090|                                 04            |           .    |                x: 4 (valid) 0x9b-0x9c (1)
     |                                               |                |            [5]{}: ex 0x9c-0xb5 (25)
     |                                               |                |              nm{}: 0x9c-0xb3 (23)
0x090|                                    16         |            .   |                n: 22 (valid) 0x9c-0x9d (1)
0x090|                                       66 36 34|             f64|                b: "f64x2.min_with_const_2" 0x9d-0xb3 (22)
0x0a0|78 32 2e 6d 69 6e 5f 77 69 74 68 5f 63 6f 6e 73|x2.min_with_cons|
0x0b0|74 5f 32                                       |t_2             |
     |                                               |                |              d{}: 0xb3-0xb5 (2)
0x0b0|         00                                    |   .            |                tag: "funcidx" (0x0) 0xb3-0xb4 (1)
0x0b0|            05                                 |    .           |                x: 5 (valid) 0xb4-0xb5 (1)
     |                                               |                |            [6]{}: ex 0xb5-0xce (25)
     |                                               |                |              nm{}: 0xb5-0xcc (23)
0x0b0|               16                              |     .          |                n: 22 (valid) 0xb5-0xb6 (1)
0x0b0|                  66 36 34 78 32 2e 6d 69 6e 5f|      f64x2.min_|                b: "f64x2.min_with_const_3" 0xb6-0xcc (22)
0x0c0|77 69 74 68 5f 63 6f 6e 73 74 5f 33            |with_const_3    |
     |                                               |                |              d{}: 0xcc-0xce (2)
0x0c0|                                    00         |            .   |                tag: "funcidx" (0x0) 0xcc-0xcd (1)
0x0c0|                                       06      |             .  |                x: 6 (valid) 0xcd-0xce (1)
     |                                               |                |            [7]{}: ex 0xce-0xe7 (25)
     |                                               |                |              nm{}: 0xce-0xe5 (23)
0x0c0|                                          16   |              . |                n: 22 (valid) 0xce-0xcf (1)
0x0c0|                                             66|               f|                b: "f64x2.min_with_const_4" 0xcf-0xe5 (22)
0x0d0|36 34 78 32 2e 6d 69 6e 5f 77 69 74 68 5f 63 6f|64x2.min_with_co|
0x0e0|6e 73 74 5f 34                                 |nst_4           |
     |                                               |                |              d{}: 0xe5-0xe7 (2)
0x0e0|               00                              |     .          |                tag: "funcidx" (0x0) 0xe5-0xe6 (1)
0x0e0|                  07                           |      .         |                x: 7 (valid) 0xe6-0xe7 (1)
     |                                               |                |            [8]{}: ex 0xe7-0x100 (25)
     |                                               |                |              nm{}: 0xe7-0xfe (23)
0x0e0|                     16                        |       .        |                n: 22 (valid) 0xe7-0xe8 (1)
0x0e0|                        66 36 34 78 32 2e 6d 69|        f64x2.mi|                b: "f64x2.min_with_const_5" 0xe8-0xfe (22)
0x0f0|6e 5f 77 69 74 68 5f 63 6f 6e 73 74 5f 35      |n_with_const_5  |
     |                                               |                |              d{}: 0xfe-0x100 (2)
0x0f0|                                          00   |              . |                tag: "funcidx" (0x0) 0xfe-0xff (1)
0x0f0|                                             08|               .|                x: 8 (valid) 0xff-0x100 (1)
     |                                               |                |            [9]{}: ex 0x100-0x119 (25)
     |                                               |                |              nm{}: 0x100-0x117 (23)
0x100|16                                             |.               |                n: 22 (valid) 0x100-0x101 (1)
0x100|   66 36 34 78 32 2e 6d 69 6e 5f 77 69 74 68 5f| f64x2.min_with_|                b: "f64x2.min_with_const_6" 0x101-0x117 (22)
0x110|63 6f 6e 73 74 5f 36                           |const_6         |
     |                                               |                |              d{}: 0x117-0x119 (2)
0x110|                     00                        |       .        |                tag: "funcidx" (0x0) 0x117-0x118 (1)
0x110|                        09                     |        .       |                x: 9 (valid) 0x118-0x119 (1)
     |                                               |                |            [10]{}: ex 0x119-0x132 (25)
     |                                               |                |              nm{}: 0x119-0x130 (23)
0x110|                           16                  |         .      |                n: 22 (valid) 0x119-0x11a (1)
0x110|                              66 36 34 78 32 2e|          f64x2.|                b: "f64x2.min_with_const_7" 0x11a-0x130 (22)
0x120|6d 69 6e 5f 77 69 74 68 5f 63 6f 6e 73 74 5f 37|min_with_const_7|
     |                                               |                |              d{}: 0x130-0x132 (2)
0x130|00                                             |.               |                tag: "funcidx" (0x0) 0x130-0x131 (1)
0x130|   0a                                          | .              |                x: 10 (valid) 0x131-0x132 (1)
     |                                               |                |            [11]{}: ex 0x132-0x14b (25)
     |                                               |                |              nm{}: 0x132-0x149 (23)
0x130|      16                                       |  .             |                n: 22 (valid) 0x132-0x133 (1)
0x130|         66 36 34 78 32 2e 6d 69 6e 5f 77 69 74|   f64x2.min_wit|                b: "f64x2.min_with_const_9" 0x133-0x149 (22)
0x140|68 5f 63 6f 6e 73 74 5f 39                     |h_const_9       |
     |                                               |                |              d{}: 0x149-0x14b (2)
0x140|                           00                  |         .      |                tag: "funcidx" (0x0) 0x149-0x14a (1)
0x140|                              0b               |          .     |                x: 11 (valid) 0x14a-0x14b (1)
     |                                               |                |            [12]{}: ex 0x14b-0x165 (26)
     |                                               |                |              nm{}: 0x14b-0x163 (24)
0x140|                                 17            |           .    |                n: 23 (valid) 0x14b-0x14c (1)
0x140|                                    66 36 34 78|            f64x|                b: "f64x2.min_with_const_10" 0x14c-0x163 (23)
0x150|32 2e 6d 69 6e 5f 77 69 74 68 5f 63 6f 6e 73 74|2.min_with_const|
0x160|5f 31 30                                       |_10             |
     |                                               |                |              d{}: 0x163-0x165 (2)
0x160|         00                                    |   .            |                tag: "funcidx" (0x0) 0x163-0x164 (1)
0x160|            0c                                 |    .           |                x: 12 (valid) 0x164-0x165 (1)
     |                                               |                |            [13]{}: ex 0x165-0x17f (26)
     |                                               |                |              nm{}: 0x165-0x17d (24)
0x160|               17                              |     .          |                n: 23 (valid) 0x165-0x166 (1)
0x160|                  66 36 34 78 32 2e 6d 69 6e 5f|      f64x2.min_|                b: "f64x2.min_with_const_11" 0x166-0x17d (23)
0x170|77 69 74 68 5f 63 6f 6e 73 74 5f 31 31         |with_const_11   |
     |                                               |                |              d{}: 0x17d-0x17f (2)
0x170|                                       00      |             .  |                tag: "funcidx" (0x0) 0x17d-0x17e (1)
0x170|                                          0d   |              . |                x: 13 (valid) 0x17e-0x17f (1)
     |                                               |                |            [14]{}: ex 0x17f-0x199 (26)
     |                                               |                |              nm{}: 0x17f-0x197 (24)
0x170|                                             17|               .|                n: 23 (valid) 0x17f-0x180 (1)
0x180|66 36 34 78 32 2e 6d 69 6e 5f 77 69 74 68 5f 63|f64x2.min_with_c|                b: "f64x2.min_with_const_12" 0x180-0x197 (23)
0x190|6f 6e 73 74 5f 31 32                           |onst_12         |
     |                                               |                |              d{}: 0x197-0x199 (2)
0x190|                     00                        |       .        |                tag: "funcidx" (0x0) 0x197-0x198 (1)
0x190|                        0e                     |        .       |                x: 14 (valid) 0x198-0x199 (1)
     |                                               |                |            [15]{}: ex 0x199-0x1b3 (26)
     |                                               |                |              nm{}: 0x199-0x1b1 (24)
0x190|                           17                  |         .      |                n: 23 (valid) 0x199-0x19a (1)
0x190|                              66 36 34 78 32 2e|          f64x2.|                b: "f64x2.min_with_const_13" 0x19a-0x1b1 (23)
0x1a0|6d 69 6e 5f 77 69 74 68 5f 63 6f 6e 73 74 5f 31|min_with_const_1|
0x1b0|33                                             |3               |
     |                                               |                |              d{}: 0x1b1-0x1b3 (2)
0x1b0|   00                                          | .              |                tag: "funcidx" (0x0) 0x1b1-0x1b2 (1)
0x1b0|      0f                                       |  .             |                x: 15 (valid) 0x1b2-0x1b3 (1)
     |                                               |                |            [16]{}: ex 0x1b3-0x1cd (26)
     |                                               |                |              nm{}: 0x1b3-0x1cb (24)
0x1b0|         17                                    |   .            |                n: 23 (valid) 0x1b3-0x1b4 (1)
0x1b0|            66 36 34 78 32 2e 6d 69 6e 5f 77 69|    f64x2.min_wi|                b: "f64x2.min_with_const_14" 0x1b4-0x1cb (23)
0x1c0|74 68 5f 63 6f 6e 73 74 5f 31 34               |th_const_14     |
     |                                               |                |              d{}: 0x1cb-0x1cd (2)
0x1c0|                                 00            |           .    |                tag: "funcidx" (0x0) 0x1cb-0x1cc (1)
0x1c0|                                    10         |            .   |                x: 16 (valid) 0x1cc-0x1cd (1)
     |                                               |                |            [17]{}: ex 0x1cd-0x1e7 (26)
     |                                               |                |              nm{}: 0x1cd-0x1e5 (24)
0x1c0|                                       17      |             .  |                n: 23 (valid) 0x1cd-0x1ce (1)
0x1c0|                                          66 36|              f6|                b: "f64x2.min_with_const_15" 0x1ce-0x1e5 (23)
0x1d0|34 78 32 2e 6d 69 6e 5f 77 69 74 68 5f 63 6f 6e|4x2.min_with_con|
0x1e0|73 74 5f 31 35                                 |st_15           |
     |                                               |                |              d{}: 0x1e5-0x1e7 (2)
0x1e0|               00                              |     .          |                tag: "funcidx" (0x0) 0x1e5-0x1e6 (1)
0x1e0|                  11                           |      .         |                x: 17 (valid) 0x1e6-0x1e7 (1)
     |                                               |                |            [18]{}: ex 0x1e7-0x201 (26)
     |                                               |                |              nm{}: 0x1e7-0x1ff (24)
0x1e0|                     17                        |       .        |                n: 23 (valid) 0x1e7-0x1e8 (1)
0x1e0|                        66 36 34 78 32 2e 6d 69|        f64x2.mi|                b: "f64x2.min_with_const_16" 0x1e8-0x1ff (23)
0x1f0|6e 5f 77 69 74 68 5f 63 6f 6e 73 74 5f 31 36   |n_with_const_16 |
     |                                               |                |              d{}: 0x1ff-0x201 (2)
0x1f0|                                             00|               .|                tag: "funcidx" (0x0) 0x1ff-0x200 (1)
0x200|12                                             |.               |                x: 18 (valid) 0x200-0x201 (1)
     |                                               |                |            [19]{}: ex 0x201-0x21b (26)
     |                                               |                |              nm{}: 0x201-0x219 (24)
0x200|   17                                          | .              |                n: 23 (valid) 0x201-0x202 (1)
0x200|      66 36 34 78 32 2e 6d 61 78 5f 77 69 74 68|  f64x2.max_with|                b: "f64x2.max_with_const_18" 0x202-0x219 (23)
0x210|5f 63 6f 6e 73 74 5f 31 38                     |_const_18       |
     |                                               |                |              d{}: 0x219-0x21b (2)
0x210|                           00                  |         .      |                tag: "funcidx" (0x0) 0x219-0x21a (1)
0x210|                              13               |          .     |                x: 19 (valid) 0x21a-0x21b (1)
     |                                               |                |            [20]{}: ex 0x21b-0x235 (26)
     |                                               |                |              nm{}: 0x21b-0x233 (24)
0x210|                                 17            |           .    |                n: 23 (valid) 0x21b-0x21c (1)
0x210|                                    66 36 34 78|            f64x|                b: "f64x2.max_with_const_19" 0x21c-0x233 (23)
0x220|32 2e 6d 61 78 5f 77 69 74 68 5f 63 6f 6e 73 74|2.max_with_const|
0x230|5f 31 39                                       |_19             |
     |                                               |                |              d{}: 0x233-0x235 (2)
0x230|         00                                    |   .            |                tag: "funcidx" (0x0) 0x233-0x234 (1)
0x230|            14                                 |    .           |                x: 20 (valid) 0x234-0x235 (1)
     |                                               |                |            [21]{}: ex 0x235-0x24f (26)
     |                                               |                |              nm{}: 0x235-0x24d (24)
0x230|               17                              |     .          |                n: 23 (valid) 0x235-0x236 (1)
0x230|                  66 36 34 78 32 2e 6d 61 78 5f|      f64x2.max_|                b: "f64x2.max_with_const_20" 0x236-0x24d (23)
0x240|77 69 74 68 5f 63 6f 6e 73 74 5f 32 30         |with_const_20   |
     |                                               |                |              d{}: 0x24d-0x24f (2)
0x240|                                       00      |             .  |                tag: "funcidx" (0x0) 0x24d-0x24e (1)
0x240|                                          15   |              . |                x: 21 (valid) 0x24e-0x24f (1)
     |                                               |                |            [22]{}: ex 0x24f-0x269 (26)
     |                                               |                |              nm{}: 0x24f-0x267 (24)
0x240|                                             17|               .|                n: 23 (valid) 0x24f-0x250 (1)
0x250|66 36 34 78 32 2e 6d 61 78 5f 77 69 74 68 5f 63|f64x2.max_with_c|                b: "f64x2.max_with_const_21" 0x250-0x267 (23)
0x260|6f 6e 73 74 5f 32 31                           |onst_21         |
     |                                               |                |              d{}: 0x267-0x269 (2)
0x260|                     00                        |       .        |                tag: "funcidx" (0x0) 0x267-0x268 (1)
0x260|                        16                     |        .       |                x: 22 (valid) 0x268-0x269 (1)
     |                                               |                |            [23]{}: ex 0x269-0x283 (26)
     |                                               |                |              nm{}: 0x269-0x281 (24)
0x260|                           17                  |         .      |                n: 23 (valid) 0x269-0x26a (1)
0x260|                              66 36 34 78 32 2e|          f64x2.|                b: "f64x2.max_with_const_22" 0x26a-0x281 (23)
0x270|6d 61 78 5f 77 69 74 68 5f 63 6f 6e 73 74 5f 32|max_with_const_2|
0x280|32                                             |2               |
     |                                               |                |              d{}: 0x281-0x283 (2)
0x280|   00                                          | .              |                tag: "funcidx" (0x0) 0x281-0x282 (1)
0x280|      17                                       |  .             |                x: 23 (valid) 0x282-0x283 (1)
     |                                               |                |            [24]{}: ex 0x283-0x29d (26)
     |                                               |                |              nm{}: 0x283-0x29b (24)
0x280|         17                                    |   .            |                n: 23 (valid) 0x283-0x284 (1)
0x280|            66 36 34 78 32 2e 6d 61 78 5f 77 69|    f64x2.max_wi|                b: "f64x2.max_with_const_23" 0x284-0x29b (23)
0x290|74 68 5f 63 6f 6e 73 74 5f 32 33               |th_const_23     |
     |                                               |                |              d{}: 0x29b-0x29d (2)
0x290|                                 00            |           .    |                tag: "funcidx" (0x0) 0x29b-0x29c (1)
0x290|                                    18         |            .   |                x: 24 (valid) 0x29c-0x29d (1)
     |                                               |                |            [25]{}: ex 0x29d-0x2b7 (26)
     |                                               |                |              nm{}: 0x29d-0x2b5 (24)
0x290|                                       17      |             .  |                n: 23 (valid) 0x29d-0x29e (1)
0x290|                                          66 36|              f6|                b: "f64x2.max_with_const_24" 0x29e-0x2b5 (23)
0x2a0|34 78 32 2e 6d 61 78 5f 77 69 74 68 5f 63 6f 6e|4x2.max_with_con|
0x2b0|73 74 5f 32 34                                 |st_24           |
     |                                               |                |              d{}: 0x2b5-0x2b7 (2)
0x2b0|               00                              |     .          |                tag: "funcidx" (0x0) 0x2b5-0x2b6 (1)
0x2b0|                  19                           |      .         |                x: 25 (valid) 0x2b6-0x2b7 (1)
     |                                               |                |            [26]{}: ex 0x2b7-0x2d1 (26)
     |                                               |                |              nm{}: 0x2b7-0x2cf (24)
0x2b0|                     17                        |       .        |                n: 23 (valid) 0x2b7-0x2b8 (1)
0x2b0|                        66 36 34 78 32 2e 6d 61|        f64x2.ma|                b: "f64x2.max_with_const_25" 0x2b8-0x2cf (23)
0x2c0|78 5f 77 69 74 68 5f 63 6f 6e 73 74 5f 32 35   |x_with_const_25 |
     |                                               |                |              d{}: 0x2cf-0x2d1 (2)
0x2c0|                                             00|               .|                tag: "funcidx" (0x0) 0x2cf-0x2d0 (1)
0x2d0|1a                                             |.               |                x: 26 (valid) 0x2d0-0x2d1 (1)
     |                                               |                |            [27]{}: ex 0x2d1-0x2eb (26)
     |                                               |                |              nm{}: 0x2d1-0x2e9 (24)
0x2d0|   17                                          | .              |                n: 23 (valid) 0x2d1-0x2d2 (1)
0x2d0|      66 36 34 78 32 2e 6d 61 78 5f 77 69 74 68|  f64x2.max_with|                b: "f64x2.max_with_const_27" 0x2d2-0x2e9 (23)
0x2e0|5f 63 6f 6e 73 74 5f 32 37                     |_const_27       |
     |                                               |                |              d{}: 0x2e9-0x2eb (2)
0x2e0|                           00                  |         .      |                tag: "funcidx" (0x0) 0x2e9-0x2ea (1)
0x2e0|                              1b               |          .     |                x: 27 (valid) 0x2ea-0x2eb (1)
     |                                               |                |            [28]{}: ex 0x2eb-0x305 (26)
     |                                               |                |              nm{}: 0x2eb-0x303 (24)
0x2e0|                                 17            |           .    |                n: 23 (valid) 0x2eb-0x2ec (1)
0x2e0|                                    66 36 34 78|            f64x|                b: "f64x2.max_with_const_28" 0x2ec-0x303 (23)
0x2f0|32 2e 6d 61 78 5f 77 69 74 68 5f 63 6f 6e 73 74|2.max_with_const|
0x300|5f 32 38                                       |_28             |
     |                                               |                |              d{}: 0x303-0x305 (2)
0x300|         00                                    |   .            |                tag: "funcidx" (0x0) 0x303-0x304 (1)
0x300|            1c                                 |    .           |                x: 28 (valid) 0x304-0x305 (1)
     |                                               |                |            [29]{}: ex 0x305-0x31f (26)
     |                                               |                |              nm{}: 0x305-0x31d (24)
0x300|               17                              |     .          |                n: 23 (valid) 0x305-0x306 (1)
0x300|                  66 36 34 78 32 2e 6d 61 78 5f|      f64x2.max_|                b: "f64x2.max_with_const_29" 0x306-0x31d (23)
0x310|77 69 74 68 5f 63 6f 6e 73 74 5f 32 39         |with_const_29   |
     |                                               |                |              d{}: 0x31d-0x31f (2)
0x310|                                       00      |             .  |                tag: "funcidx" (0x0) 0x31d-0x31e (1)
0x310|                                          1d   |              . |                x: 29 (valid) 0x31e-0x31f (1)
     |                                               |                |            [30]{}: ex 0x31f-0x339 (26)
     |                                               |                |              nm{}: 0x31f-0x337 (24)
0x310|                                             17|               .|                n: 23 (valid) 0x31f-0x320 (1)
0x320|66 36 34 78 32 2e 6d 61 78 5f 77 69 74 68 5f 63|f64x2.max_with_c|                b: "f64x2.max_with_const_30" 0x320-0x337 (23)
0x330|6f 6e 73 74 5f 33 30                           |onst_30         |
     |                                               |                |              d{}: 0x337-0x339 (2)
0x330|                     00                        |       .        |                tag: "funcidx" (0x0) 0x337-0x338 (1)
0x330|                        1e                     |        .       |                x: 30 (valid) 0x338-0x339 (1)
     |                                               |                |            [31]{}: ex 0x339-0x353 (26)
     |                                               |                |              nm{}: 0x339-0x351 (24)
0x330|                           17                  |         .      |                n: 23 (valid) 0x339-0x33a (1)
0x330|                              66 36 34 78 32 2e|          f64x2.|                b: "f64x2.max_with_const_31" 0x33a-0x351 (23)
0x340|6d 61 78 5f 77 69 74 68 5f 63 6f 6e 73 74 5f 33|max_with_const_3|
0x350|31                                             |1               |
     |                                               |                |              d{}: 0x351-0x353 (2)
0x350|   00                                          | .              |                tag: "funcidx" (0x0) 0x351-0x352 (1)
0x350|      1f                                       |  .             |                x: 31 (valid) 0x352-0x353 (1)
     |                                               |                |            [32]{}: ex 0x353-0x36d (26)
     |                                               |                |              nm{}: 0x353-0x36b (24)
0x350|         17                                    |   .            |                n: 23 (valid) 0x353-0x354 (1)
0x350|            66 36 34 78 32 2e 6d 61 78 5f 77 69|    f64x2.max_wi|                b: "f64x2.max_with_const_32" 0x354-0x36b (23)
0x360|74 68 5f 63 6f 6e 73 74 5f 33 32               |th_const_32     |
     |                                               |                |              d{}: 0x36b-0x36d (2)
0x360|                                 00            |           .    |                tag: "funcidx" (0x0) 0x36b-0x36c (1)
0x360|                                    20         |                |                x: 32 (valid) 0x36c-0x36d (1)
     |                                               |                |            [33]{}: ex 0x36d-0x387 (26)
     |                                               |                |              nm{}: 0x36d-0x385 (24)
0x360|                                       17      |             .  |                n: 23 (valid) 0x36d-0x36e (1)
0x360|                                          66 36|              f6|                b: "f64x2.max_with_const_33" 0x36e-0x385 (23)
0x370|34 78 32 2e 6d 61 78 5f 77 69 74 68 5f 63 6f 6e|4x2.max_with_con|
0x380|73 74 5f 33 33                                 |st_33           |
     |                                               |                |              d{}: 0x385-0x387 (2)
0x380|               00                              |     .          |                tag: "funcidx" (0x0) 0x385-0x386 (1)
0x380|                  21                           |      !         |                x: 33 (valid) 0x386-0x387 (1)
     |                                               |                |            [34]{}: ex 0x387-0x3a1 (26)
     |                                               |                |              nm{}: 0x387-0x39f (24)
0x380|                     17                        |       .        |                n: 23 (valid) 0x387-0x388 (1)
0x380|                        66 36 34 78 32 2e 6d 61|        f64x2.ma|                b: "f64x2.max_with_const_34" 0x388-0x39f (23)
0x390|78 5f 77 69 74 68 5f 63 6f 6e 73 74 5f 33 34   |x_with_const_34 |
     |                                               |                |              d{}: 0x39f-0x3a1 (2)
0x390|                                             00|               .|                tag: "funcidx" (0x0) 0x39f-0x3a0 (1)
0x3a0|22                                             |"               |                x: 34 (valid) 0x3a0-0x3a1 (1)
     |                                               |                |            [35]{}: ex 0x3a1-0x3bb (26)
     |                                               |                |              nm{}: 0x3a1-0x3b9 (24)
0x3a0|   17                                          | .              |                n: 23 (valid) 0x3a1-0x3a2 (1)
0x3a0|      66 36 34 78 32 2e 61 62 73 5f 77 69 74 68|  f64x2.abs_with|                b: "f64x2.abs_with_const_35" 0x3a2-0x3b9 (23)
0x3b0|5f 63 6f 6e 73 74 5f 33 35                     |_const_35       |
     |                                               |                |              d{}: 0x3b9-0x3bb (2)
0x3b0|                           00                  |         .      |                tag: "funcidx" (0x0) 0x3b9-0x3ba (1)
0x3b0|                              23               |          #     |                x: 35 (valid) 0x3ba-0x3bb (1)
     |                                               |                |            [36]{}: ex 0x3bb-0x3d5 (26)
     |                                               |                |              nm{}: 0x3bb-0x3d3 (24)
0x3b0|                                 17            |           .    |                n: 23 (valid) 0x3bb-0x3bc (1)
0x3b0|                                    66 36 34 78|            f64x|                b: "f64x2.abs_with_const_36" 0x3bc-0x3d3 (23)
0x3c0|32 2e 61 62 73 5f 77 69 74 68 5f 63 6f 6e 73 74|2.abs_with_const|
0x3d0|5f 33 36                                       |_36             |
     |                                               |                |              d{}: 0x3d3-0x3d5 (2)
0x3d0|         00                                    |   .            |                tag: "funcidx" (0x0) 0x3d3-0x3d4 (1)
0x3d0|            24                                 |    $           |                x: 36 (valid) 0x3d4-0x3d5 (1)
     |                                               |                |    [3]{}: section 0x3d5-0x865 (1168)
0x3d0|               0a                              |     .          |      id: "code_section" (10) 0x3d5-0x3d6 (1)
0x3d0|                  8d 09                        |      ..        |      size: 1165 (valid) 0x3d6-0x3d8 (2)
     |                                               |                |      content{}: 0x3d8-0x865 (1165)
     |                                               |                |        code{}: 0x3d8-0x865 (1165)
0x3d0|                        25                     |        %       |          n: 37 (valid) 0x3d8-0x3d9 (1)
     |                                               |                |          x[0:37]: 0x3d9-0x865 (1164)
     |                                               |                |            [0]{}: code 0x3d9-0x3e3 (10)
0x3d0|                           09                  |         .      |              size: 9 (valid) 0x3d9-0x3da (1)
     |                                               |                |              code{}: 0x3da-0x3e3 (9)
     |                                               |                |                t{}: 0x3da-0x3db (1)
0x3d0|                              00               |          .     |                  n: 0 (valid) 0x3da-0x3db (1)
     |                                               |                |                  x[0:0]: 0x3db-0x3db (0)
     |                                               |                |                e[0:4]: 0x3db-0x3e3 (8)
     |                                               |                |                  [0]{}: in 0x3db-0x3dd (2)
0x3d0|                                 20            |                |                    opcode: "local.get" (0x20) 0x3db-0x3dc (1)
0x3d0|                                    00         |            .   |                    x: 0 (valid) 0x3dc-0x3dd (1)
     |                                               |                |                  [1]{}: in 0x3dd-0x3df (2)
0x3d0|                                       20      |                |                    opcode: "local.get" (0x20) 0x3dd-0x3de (1)
0x3d0|                                          01   |              . |                    x: 1 (valid) 0x3de-0x3df (1)
     |                                               |                |                  [2]{}: in 0x3df-0x3e2 (3)
0x3d0|                                             fd|               .|                    opcode: "vector" (0xfd) 0x3df-0x3e0 (1)
0x3e0|f4 01                                          |..              |                    v_opcode: "f64x2.min" (244) 0x3e0-0x3e2 (2)
     |                                               |                |                  [3]{}: in 0x3e2-0x3e3 (1)
0x3e0|      0b                                       |  .             |                    opcode: "end" (0xb) 0x3e2-0x3e3 (1)
     |                                               |                |            [1]{}: code 0x3e3-0x3ed (10)
0x3e0|         09                                    |   .            |              size: 9 (valid) 0x3e3-0x3e4 (1)
     |                                               |                |              code{}: 0x3e4-0x3ed (9)
     |                                               |                |                t{}: 0x3e4-0x3e5 (1)
0x3e0|            00                                 |    .           |                  n: 0 (valid) 0x3e4-0x3e5 (1)
     |                                               |                |                  x[0:0]: 0x3e5-0x3e5 (0)
     |                                               |                |                e[0:4]: 0x3e5-0x3ed (8)
     |                                               |                |                  [0]{}: in 0x3e5-0x3e7 (2)
0x3e0|               20                              |                |                    opcode: "local.get" (0x20) 0x3e5-0x3e6 (1)
0x3e0|                  00                           |      .         |                    x: 0 (valid) 0x3e6-0x3e7 (1)
     |                                               |                |                  [1]{}: in 0x3e7-0x3e9 (2)
0x3e0|                     20                        |                |                    opcode: "local.get" (0x20) 0x3e7-0x3e8 (1)
0x3e0|                        01                     |        .       |                    x: 1 (valid) 0x3e8-0x3e9 (1)
     |                                               |                |                  [2]{}: in 0x3e9-0x3ec (3)
0x3e0|                           fd                  |         .      |                    opcode: "vector" (0xfd) 0x3e9-0x3ea (1)
0x3e0|                              f5 01            |          ..    |                    v_opcode: "f64x2.max" (245) 0x3ea-0x3ec (2)
     |                                               |                |                  [3]{}: in 0x3ec-0x3ed (1)
0x3e0|                                    0b         |            .   |                    opcode: "end" (0xb) 0x3ec-0x3ed (1)
     |                                               |                |            [2]{}: code 0x3ed-0x3f5 (8)
0x3e0|                                       07      |             .  |              size: 7 (valid) 0x3ed-0x3ee (1)
     |                                               |                |              code{}: 0x3ee-0x3f5 (7)
     |                                               |                |                t{}: 0x3ee-0x3ef (1)
0x3e0|                                          00   |              . |                  n: 0 (valid) 0x3ee-0x3ef (1)
     |                                               |                |                  x[0:0]: 0x3ef-0x3ef (0)
     |                                               |                |                e[0:3]: 0x3ef-0x3f5 (6)
     |                                               |                |                  [0]{}: in 0x3ef-0x3f1 (2)
0x3e0|                                             20|                |                    opcode: "local.get" (0x20) 0x3ef-0x3f0 (1)
0x3f0|00                                             |.               |                    x: 0 (valid) 0x3f0-0x3f1 (1)
     |                                               |                |                  [1]{}: in 0x3f1-0x3f4 (3)
0x3f0|   fd                                          | .              |                    opcode: "vector" (0xfd) 0x3f1-0x3f2 (1)
0x3f0|      ec 01                                    |  ..            |                    v_opcode: "f64x2.abs" (236) 0x3f2-0x3f4 (2)
     |                                               |                |                  [2]{}: in 0x3f4-0x3f5 (1)
0x3f0|            0b                                 |    .           |                    opcode: "end" (0xb) 0x3f4-0x3f5 (1)
     |                                               |                |            [3]{}: code 0x3f5-0x41f (42)
0x3f0|               29                              |     )          |              size: 41 (valid) 0x3f5-0x3f6 (1)
     |                                               |                |              code{}: 0x3f6-0x41f (41)
     |                                               |                |                t{}: 0x3f6-0x3f7 (1)
0x3f0|                  00                           |      .         |                  n: 0 (valid) 0x3f6-0x3f7 (1)
     |                                               |                |                  x[0:0]: 0x3f7-0x3f7 (0)
     |                                               |                |                e[0:4]: 0x3f7-0x41f (40)
     |                                               |                |                  [0]{}: in 0x3f7-0x409 (18)
0x3f0|                     fd                        |       .        |                    opcode: "vector" (0xfd) 0x3f7-0x3f8 (1)
0x3f0|                        0c                     |        .       |                    v_opcode: "v128.const" (12) 0x3f8-0x3f9 (1)
0x3f0|                           00 00 00 00 00 00 00|         .......|                    bytes: raw bits 0x3f9-0x409 (16)
0x400|00 00 00 00 00 00 00 f0 3f                     |........?       |
     |                                               |                |                  [1]{}: in 0x409-0x41b (18)
0x400|                           fd                  |         .      |                    opcode: "vector" (0xfd) 0x409-0x40a (1)
0x400|                              0c               |          .     |                    v_opcode: "v128.const" (12) 0x40a-0x40b (1)
0x400|                                 00 00 00 00 00|           .....|                    bytes: raw bits 0x40b-0x41b (16)
0x410|00 00 00 00 00 00 00 00 00 00 40               |..........@     |
     |                                               |                |                  [2]{}: in 0x41b-0x41e (3)
0x410|                                 fd            |           .    |                    opcode: "vector" (0xfd) 0x41b-0x41c (1)
0x410|                                    f4 01      |            ..  |                    v_opcode: "f64x2.min" (244) 0x41c-0x41e (2)
     |                                               |                |                  [3]{}: in 0x41e-0x41f (1)
0x410|                                          0b   |              . |                    opcode: "end" (0xb) 0x41e-0x41f (1)
     |                                               |                |            [4]{}: code 0x41f-0x449 (42)
0x410|                                             29|               )|              size: 41 (valid) 0x41f-0x420 (1)
     |                                               |                |              code{}: 0x420-0x449 (41)
     |                                               |                |                t{}: 0x420-0x421 (1)
0x420|00                                             |.               |                  n: 0 (valid) 0x420-0x421 (1)
     |                                               |                |                  x[0:0]: 0x421-0x421 (0)
     |                                               |                |                e[0:4]: 0x421-0x449 (40)
     |                                               |                |                  [0]{}: in 0x421-0x433 (18)
0x420|   fd                                          | .              |                    opcode: "vector" (0xfd) 0x421-0x422 (1)
0x420|      0c                                       |  .             |                    v_opcode: "v128.const" (12) 0x422-0x423 (1)
0x420|         00 00 00 00 00 00 00 40 00 00 00 00 00|   .......@.....|                    bytes: raw bits 0x423-0x433 (16)
0x430|00 08 c0                                       |...             |
     |                                               |                |                  [1]{}: in 0x433-0x445 (18)
0x430|         fd                                    |   .            |                    opcode: "vector" (0xfd) 0x433-0x434 (1)
0x430|            0c                                 |    .           |                    v_opcode: "v128.const" (12) 0x434-0x435 (1)
0x430|               00 00 00 00 00 00 f0 3f 00 00 00|     .......?...|                    bytes: raw bits 0x435-0x445 (16)
0x440|00 00 00 08 40                                 |....@           |
     |                                               |                |                  [2]{}: in 0x445-0x448 (3)
0x440|               fd                              |     .          |                    opcode: "vector" (0xfd) 0x445-0x446 (1)
0x440|                  f4 01                        |      ..        |                    v_opcode: "f64x2.min" (244) 0x446-0x448 (2)
     |                                               |                |                  [3]{}: in 0x448-0x449 (1)
0x440|                        0b                     |        .       |                    opcode: "end" (0xb) 0x448-0x449 (1)
     |                                               |                |            [5]{}: code 0x449-0x473 (42)
0x440|                           29                  |         )      |              size: 41 (valid) 0x449-0x44a (1)
     |                                               |                |              code{}: 0x44a-0x473 (41)
     |                                               |                |                t{}: 0x44a-0x44b (1)
0x440|                              00               |          .     |                  n: 0 (valid) 0x44a-0x44b (1)
     |                                               |                |                  x[0:0]: 0x44b-0x44b (0)
     |                                               |                |                e[0:4]: 0x44b-0x473 (40)
     |                                               |                |                  [0]{}: in 0x44b-0x45d (18)
0x440|                                 fd            |           .    |                    opcode: "vector" (0xfd) 0x44b-0x44c (1)
0x440|                                    0c         |            .   |                    v_opcode: "v128.const" (12) 0x44c-0x44d (1)
0x440|                                       00 00 00|             ...|                    bytes: raw bits 0x44d-0x45d (16)
0x450|00 00 00 00 00 00 00 00 00 00 00 f0 3f         |............?   |
     |                                               |                |                  [1]{}: in 0x45d-0x46f (18)
0x450|                                       fd      |             .  |                    opcode: "vector" (0xfd) 0x45d-0x45e (1)
0x450|                                          0c   |              . |                    v_opcode: "v128.const" (12) 0x45e-0x45f (1)
0x450|                                             00|               .|                    bytes: raw bits 0x45f-0x46f (16)
0x460|00 00 00 00 00 00 00 00 00 00 00 00 00 f0 3f   |..............? |
     |                                               |                |                  [2]{}: in 0x46f-0x472 (3)
0x460|                                             fd|               .|                    opcode: "vector" (0xfd) 0x46f-0x470 (1)
0x470|f4 01                                          |..              |                    v_opcode: "f64x2.min" (244) 0x470-0x472 (2)
     |                                               |                |                  [3]{}: in 0x472-0x473 (1)
0x470|      0b                                       |  .             |                    opcode: "end" (0xb) 0x472-0x473 (1)
     |                                               |                |            [6]{}: code 0x473-0x49d (42)
0x470|         29                                    |   )            |              size: 41 (valid) 0x473-0x474 (1)
     |                                               |                |              code{}: 0x474-0x49d (41)
     |                                               |                |                t{}: 0x474-0x475 (1)
0x470|            00                                 |    .           |                  n: 0 (valid) 0x474-0x475 (1)
     |                                               |                |                  x[0:0]: 0x475-0x475 (0)
     |                                               |                |                e[0:4]: 0x475-0x49d (40)
     |                                               |                |                  [0]{}: in 0x475-0x487 (18)
0x470|               fd                              |     .          |                    opcode: "vector" (0xfd) 0x475-0x476 (1)
0x470|                  0c                           |      .         |                    v_opcode: "v128.const" (12) 0x476-0x477 (1)
0x470|                     00 00 00 00 00 00 00 40 00|       .......@.|                    bytes: raw bits 0x477-0x487 (16)
0x480|00 00 00 00 00 08 40                           |......@         |
     |                                               |                |                  [1]{}: in 0x487-0x499 (18)
0x480|                     fd                        |       .        |                    opcode: "vector" (0xfd) 0x487-0x488 (1)
0x480|                        0c                     |        .       |                    v_opcode: "v128.const" (12) 0x488-0x489 (1)
0x480|                           00 00 00 00 00 00 00|         .......|                    bytes: raw bits 0x489-0x499 (16)
0x490|40 00 00 00 00 00 00 08 40                     |@.......@       |
     |                                               |                |                  [2]{}: in 0x499-0x49c (3)
0x490|                           fd                  |         .      |                    opcode: "vector" (0xfd) 0x499-0x49a (1)
0x490|                              f4 01            |          ..    |                    v_opcode: "f64x2.min" (244) 0x49a-0x49c (2)
     |                                               |                |                  [3]{}: in 0x49c-0x49d (1)
0x490|                                    0b         |            .   |                    opcode: "end" (0xb) 0x49c-0x49d (1)
     |                                               |                |            [7]{}: code 0x49d-0x4c7 (42)
0x490|                                       29      |             )  |              size: 41 (valid) 0x49d-0x49e (1)
     |                                               |                |              code{}: 0x49e-0x4c7 (41)
     |                                               |                |                t{}: 0x49e-0x49f (1)
0x490|                                          00   |              . |                  n: 0 (valid) 0x49e-0x49f (1)
     |                                               |                |                  x[0:0]: 0x49f-0x49f (0)
     |                                               |                |                e[0:4]: 0x49f-0x4c7 (40)
     |                                               |                |                  [0]{}: in 0x49f-0x4b1 (18)
0x490|                                             fd|               .|                    opcode: "vector" (0xfd) 0x49f-0x4a0 (1)
0x4a0|0c                                             |.               |                    v_opcode: "v128.const" (12) 0x4a0-0x4a1 (1)
0x4a0|   00 00 00 00 00 00 00 00 00 00 00 00 00 00 f0| ...............|                    bytes: raw bits 0x4a1-0x4b1 (16)
0x4b0|3f                                             |?               |
     |                                               |                |                  [1]{}: in 0x4b1-0x4c3 (18)
0x4b0|   fd                                          | .              |                    opcode: "vector" (0xfd) 0x4b1-0x4b2 (1)
0x4b0|      0c                                       |  .             |                    v_opcode: "v128.const" (12) 0x4b2-0x4b3 (1)
0x4b0|         00 00 00 00 00 00 00 00 00 00 00 00 00|   .............|                    bytes: raw bits 0x4b3-0x4c3 (16)
0x4c0|00 00 40                                       |..@             |
     |                                               |                |                  [2]{}: in 0x4c3-0x4c6 (3)
0x4c0|         fd                                    |   .            |                    opcode: "vector" (0xfd) 0x4c3-0x4c4 (1)
0x4c0|            f4 01                              |    ..          |                    v_opcode: "f64x2.min" (244) 0x4c4-0x4c6 (2)
     |                                               |                |                  [3]{}: in 0x4c6-0x4c7 (1)
0x4c0|                  0b                           |      .         |                    opcode: "end" (0xb) 0x4c6-0x4c7 (1)
     |                                               |                |            [8]{}: code 0x4c7-0x4f1 (42)
0x4c0|                     29                        |       )        |              size: 41 (valid) 0x4c7-0x4c8 (1)
     |                                               |                |              code{}: 0x4c8-0x4f1 (41)
     |                                               |                |                t{}: 0x4c8-0x4c9 (1)
0x4c0|                        00                     |        .       |                  n: 0 (valid) 0x4c8-0x4c9 (1)
     |                                               |                |                  x[0:0]: 0x4c9-0x4c9 (0)
     |                                               |                |                e[0:4]: 0x4c9-0x4f1 (40)
     |                                               |                |                  [0]{}: in 0x4c9-0x4db (18)
0x4c0|                           fd                  |         .      |                    opcode: "vector" (0xfd) 0x4c9-0x4ca (1)
0x4c0|                              0c               |          .     |                    v_opcode: "v128.const" (12) 0x4ca-0x4cb (1)
0x4c0|                                 00 00 00 00 00|           .....|                    bytes: raw bits 0x4cb-0x4db (16)
0x4d0|00 00 40 00 00 00 00 00 00 e0 41               |..@.......A     |
     |                                               |                |                  [1]{}: in 0x4db-0x4ed (18)
0x4d0|                                 fd            |           .    |                    opcode: "vector" (0xfd) 0x4db-0x4dc (1)
0x4d0|                                    0c         |            .   |                    v_opcode: "v128.const" (12) 0x4dc-0x4dd (1)
0x4d0|                                       00 00 00|             ...|                    bytes: raw bits 0x4dd-0x4ed (16)
0x4e0|00 00 00 f0 3f 00 00 00 00 00 00 e0 41         |....?.......A   |
     |                                               |                |                  [2]{}: in 0x4ed-0x4f0 (3)
0x4e0|                                       fd      |             .  |                    opcode: "vector" (0xfd) 0x4ed-0x4ee (1)
0x4e0|                                          f4 01|              ..|                    v_opcode: "f64x2.min" (244) 0x4ee-0x4f0 (2)
     |                                               |                |                  [3]{}: in 0x4f0-0x4f1 (1)
0x4f0|0b                                             |.               |                    opcode: "end" (0xb) 0x4f0-0x4f1 (1)
     |                                               |                |            [9]{}: code 0x4f1-0x51b (42)
0x4f0|   29                                          | )              |              size: 41 (valid) 0x4f1-0x4f2 (1)
     |                                               |                |              code{}: 0x4f2-0x51b (41)
     |                                               |                |                t{}: 0x4f2-0x4f3 (1)
0x4f0|      00                                       |  .             |                  n: 0 (valid) 0x4f2-0x4f3 (1)
     |                                               |                |                  x[0:0]: 0x4f3-0x4f3 (0)
     |                                               |                |                e[0:4]: 0x4f3-0x51b (40)
     |                                               |                |                  [0]{}: in 0x4f3-0x505 (18)
0x4f0|         fd                                    |   .            |                    opcode: "vector" (0xfd) 0x4f3-0x4f4 (1)
0x4f0|            0c                                 |    .           |                    v_opcode: "v128.const" (12) 0x4f4-0x4f5 (1)
0x4f0|               00 00 00 00 00 00 00 00 00 00 00|     ...........|                    bytes: raw bits 0x4f5-0x505 (16)
0x500|00 00 00 f0 3f                                 |....?           |
     |                                               |                |                  [1]{}: in 0x505-0x517 (18)
0x500|               fd                              |     .          |                    opcode: "vector" (0xfd) 0x505-0x506 (1)
0x500|                  0c                           |      .         |                    v_opcode: "v128.const" (12) 0x506-0x507 (1)
0x500|                     00 00 00 00 00 00 00 00 00|       .........|                    bytes: raw bits 0x507-0x517 (16)
0x510|00 00 00 00 00 f0 3f                           |......?         |
     |                                               |                |                  [2]{}: in 0x517-0x51a (3)
0x510|                     fd                        |       .        |                    opcode: "vector" (0xfd) 0x517-0x518 (1)
0x510|                        f4 01                  |        ..      |                    v_opcode: "f64x2.min" (244) 0x518-0x51a (2)
     |                                               |                |                  [3]{}: in 0x51a-0x51b (1)
0x510|                              0b               |          .     |                    opcode: "end" (0xb) 0x51a-0x51b (1)
     |                                               |                |            [10]{}: code 0x51b-0x545 (42)
0x510|                                 29            |           )    |              size: 41 (valid) 0x51b-0x51c (1)
     |                                               |                |              code{}: 0x51c-0x545 (41)
     |                                               |                |                t{}: 0x51c-0x51d (1)
0x510|                                    00         |            .   |                  n: 0 (valid) 0x51c-0x51d (1)
     |                                               |                |                  x[0:0]: 0x51d-0x51d (0)
     |                                               |                |                e[0:4]: 0x51d-0x545 (40)
     |                                               |                |                  [0]{}: in 0x51d-0x52f (18)
0x510|                                       fd      |             .  |                    opcode: "vector" (0xfd) 0x51d-0x51e (1)
0x510|                                          0c   |              . |                    v_opcode: "v128.const" (12) 0x51e-0x51f (1)
0x510|                                             00|               .|                    bytes: raw bits 0x51f-0x52f (16)
0x520|00 00 00 00 00 00 40 00 00 00 00 00 00 e0 41   |......@.......A |
     |                                               |                |                  [1]{}: in 0x52f-0x541 (18)
0x520|                                             fd|               .|                    opcode: "vector" (0xfd) 0x52f-0x530 (1)
0x530|0c                                             |.               |                    v_opcode: "v128.const" (12) 0x530-0x531 (1)
0x530|   00 00 00 00 00 00 00 40 00 00 00 00 00 00 e0| .......@.......|                    bytes: raw bits 0x531-0x541 (16)
0x540|41                                             |A               |
     |                                               |                |                  [2]{}: in 0x541-0x544 (3)
0x540|   fd                                          | .              |                    opcode: "vector" (0xfd) 0x541-0x542 (1)
0x540|      f4 01                                    |  ..            |                    v_opcode: "f64x2.min" (244) 0x542-0x544 (2)
     |                                               |                |                  [3]{}: in 0x544-0x545 (1)
0x540|            0b                                 |    .           |                    opcode: "end" (0xb) 0x544-0x545 (1)
     |                                               |                |            [11]{}: code 0x545-0x55f (26)
0x540|               19                              |     .          |              size: 25 (valid) 0x545-0x546 (1)
     |                                               |                |              code{}: 0x546-0x55f (25)
     |                                               |                |                t{}: 0x546-0x547 (1)
0x540|                  00                           |      .         |                  n: 0 (valid) 0x546-0x547 (1)
     |                                               |                |                  x[0:0]: 0x547-0x547 (0)
     |                                               |                |                e[0:4]: 0x547-0x55f (24)
     |                                               |                |                  [0]{}: in 0x547-0x549 (2)
0x540|                     20                        |                |                    opcode: "local.get" (0x20) 0x547-0x548 (1)
0x540|                        00                     |        .       |                    x: 0 (valid) 0x548-0x549 (1)
     |                                               |                |                  [1]{}: in 0x549-0x55b (18)
0x540|                           fd                  |         .      |                    opcode: "vector" (0xfd) 0x549-0x54a (1)
0x540|                              0c               |          .     |                    v_opcode: "v128.const" (12) 0x54a-0x54b (1)
0x540|                                 00 00 00 00 00|           .....|                    bytes: raw bits 0x54b-0x55b (16)
0x550|00 00 00 00 00 00 00 00 00 f0 3f               |..........?     |
     |                                               |                |                  [2]{}: in 0x55b-0x55e (3)
0x550|                                 fd            |           .    |                    opcode: "vector" (0xfd) 0x55b-0x55c (1)
0x550|                                    f4 01      |            ..  |                    v_opcode: "f64x2.min" (244) 0x55c-0x55e (2)
     |                                               |                |                  [3]{}: in 0x55e-0x55f (1)
0x550|                                          0b   |              . |                    opcode: "end" (0xb) 0x55e-0x55f (1)
     |                                               |                |            [12]{}: code 0x55f-0x579 (26)
0x550|                                             19|               .|              size: 25 (valid) 0x55f-0x560 (1)
     |                                               |                |              code{}: 0x560-0x579 (25)
     |                                               |                |                t{}: 0x560-0x561 (1)
0x560|00                                             |.               |                  n: 0 (valid) 0x560-0x561 (1)
     |                                               |                |                  x[0:0]: 0x561-0x561 (0)
     |                                               |                |                e[0:4]: 0x561-0x579 (24)
     |                                               |                |                  [0]{}: in 0x561-0x573 (18)
0x560|   fd                                          | .              |                    opcode: "vector" (0xfd) 0x561-0x562 (1)
0x560|      0c                                       |  .             |                    v_opcode: "v128.const" (12) 0x562-0x563 (1)
0x560|         00 00 00 00 00 00 00 40 00 00 00 00 00|   .......@.....|                    bytes: raw bits 0x563-0x573 (16)
0x570|00 08 c0                                       |...             |
     |                                               |                |                  [1]{}: in 0x573-0x575 (2)
0x570|         20                                    |                |                    opcode: "local.get" (0x20) 0x573-0x574 (1)
0x570|            00                                 |    .           |                    x: 0 (valid) 0x574-0x575 (1)
     |                                               |                |                  [2]{}: in 0x575-0x578 (3)
0x570|               fd                              |     .          |                    opcode: "vector" (0xfd) 0x575-0x576 (1)
0x570|                  f4 01                        |      ..        |                    v_opcode: "f64x2.min" (244) 0x576-0x578 (2)
     |                                               |                |                  [3]{}: in 0x578-0x579 (1)
0x570|                        0b                     |        .       |                    opcode: "end" (0xb) 0x578-0x579 (1)
     |                                               |                |            [13]{}: code 0x579-0x593 (26)
0x570|                           19                  |         .      |              size: 25 (valid) 0x579-0x57a (1)
     |                                               |                |              code{}: 0x57a-0x593 (25)
     |                                               |                |                t{}: 0x57a-0x57b (1)
0x570|                              00               |          .     |                  n: 0 (valid) 0x57a-0x57b (1)
     |                                               |                |                  x[0:0]: 0x57b-0x57b (0)
     |                                               |                |                e[0:4]: 0x57b-0x593 (24)
     |                                               |                |                  [0]{}: in 0x57b-0x58d (18)
0x570|                                 fd            |           .    |                    opcode: "vector" (0xfd) 0x57b-0x57c (1)
0x570|                                    0c         |            .   |                    v_opcode: "v128.const" (12) 0x57c-0x57d (1)
0x570|                                       00 00 00|             ...|                    bytes: raw bits 0x57d-0x58d (16)
0x580|00 00 00 00 00 00 00 00 00 00 00 f0 3f         |............?   |
     |                                               |                |                  [1]{}: in 0x58d-0x58f (2)
0x580|                                       20      |                |                    opcode: "local.get" (0x20) 0x58d-0x58e (1)
0x580|                                          00   |              . |                    x: 0 (valid) 0x58e-0x58f (1)
     |                                               |                |                  [2]{}: in 0x58f-0x592 (3)
0x580|                                             fd|               .|                    opcode: "vector" (0xfd) 0x58f-0x590 (1)
0x590|f4 01                                          |..              |                    v_opcode: "f64x2.min" (244) 0x590-0x592 (2)
     |                                               |                |                  [3]{}: in 0x592-0x593 (1)
0x590|      0b                                       |  .             |                    opcode: "end" (0xb) 0x592-0x593 (1)
     |                                               |                |            [14]{}: code 0x593-0x5ad (26)
0x590|         19                                    |   .            |              size: 25 (valid) 0x593-0x594 (1)
     |                                               |                |              code{}: 0x594-0x5ad (25)
     |                                               |                |                t{}: 0x594-0x595 (1)
0x590|            00                                 |    .           |                  n: 0 (valid) 0x594-0x595 (1)
     |                                               |                |                  x[0:0]: 0x595-0x595 (0)
     |                                               |                |                e[0:4]: 0x595-0x5ad (24)
     |                                               |                |                  [0]{}: in 0x595-0x597 (2)
0x590|               20                              |                |                    opcode: "local.get" (0x20) 0x595-0x596 (1)
0x590|                  00                           |      .         |                    x: 0 (valid) 0x596-0x597 (1)
     |                                               |                |                  [1]{}: in 0x597-0x5a9 (18)
0x590|                     fd                        |       .        |                    opcode: "vector" (0xfd) 0x597-0x598 (1)
0x590|                        0c                     |        .       |                    v_opcode: "v128.const" (12) 0x598-0x599 (1)
0x590|                           00 00 00 00 00 00 00|         .......|                    bytes: raw bits 0x599-0x5a9 (16)
0x5a0|40 00 00 00 00 00 00 08 40                     |@.......@       |
     |                                               |                |                  [2]{}: in 0x5a9-0x5ac (3)
0x5a0|                           fd                  |         .      |                    opcode: "vector" (0xfd) 0x5a9-0x5aa (1)
0x5a0|                              f4 01            |          ..    |                    v_opcode: "f64x2.min" (244) 0x5aa-0x5ac (2)
     |                                               |                |                  [3]{}: in 0x5ac-0x5ad (1)
0x5a0|                                    0b         |            .   |                    opcode: "end" (0xb) 0x5ac-0x5ad (1)
     |                                               |                |            [15]{}: code 0x5ad-0x5c7 (26)
0x5a0|                                       19      |             .  |              size: 25 (valid) 0x5ad-0x5ae (1)
     |                                               |                |              code{}: 0x5ae-0x5c7 (25)
     |                                               |                |                t{}: 0x5ae-0x5af (1)
0x5a0|                                          00   |              . |                  n: 0 (valid) 0x5ae-0x5af (1)
     |                                               |                |                  x[0:0]: 0x5af-0x5af (0)
     |                                               |                |                e[0:4]: 0x5af-0x5c7 (24)
     |                                               |                |                  [0]{}: in 0x5af-0x5c1 (18)
0x5a0|                                             fd|               .|                    opcode: "vector" (0xfd) 0x5af-0x5b0 (1)
0x5b0|0c                                             |.               |                    v_opcode: "v128.const" (12) 0x5b0-0x5b1 (1)
0x5b0|   00 00 00 00 00 00 00 00 00 00 00 00 00 00 f0| ...............|                    bytes: raw bits 0x5b1-0x5c1 (16)
0x5c0|3f                                             |?               |
     |                                               |                |                  [1]{}: in 0x5c1-0x5c3 (2)
0x5c0|   20                                          |                |                    opcode: "local.get" (0x20) 0x5c1-0x5c2 (1)
0x5c0|      00                                       |  .             |                    x: 0 (valid) 0x5c2-0x5c3 (1)
     |                                               |                |                  [2]{}: in 0x5c3-0x5c6 (3)
0x5c0|         fd                                    |   .            |                    opcode: "vector" (0xfd) 0x5c3-0x5c4 (1)
0x5c0|            f4 01                              |    ..          |                    v_opcode: "f64x2.min" (244) 0x5c4-0x5c6 (2)
     |                                               |                |                  [3]{}: in 0x5c6-0x5c7 (1)
0x5c0|                  0b                           |      .         |                    opcode: "end" (0xb) 0x5c6-0x5c7 (1)
     |                                               |                |            [16]{}: code 0x5c7-0x5e1 (26)
0x5c0|                     19                        |       .        |              size: 25 (valid) 0x5c7-0x5c8 (1)
     |                                               |                |              code{}: 0x5c8-0x5e1 (25)
     |                                               |                |                t{}: 0x5c8-0x5c9 (1)
0x5c0|                        00                     |        .       |                  n: 0 (valid) 0x5c8-0x5c9 (1)
     |                                               |                |                  x[0:0]: 0x5c9-0x5c9 (0)
     |                                               |                |                e[0:4]: 0x5c9-0x5e1 (24)
     |                                               |                |                  [0]{}: in 0x5c9-0x5db (18)
0x5c0|                           fd                  |         .      |                    opcode: "vector" (0xfd) 0x5c9-0x5ca (1)
0x5c0|                              0c               |          .     |                    v_opcode: "v128.const" (12) 0x5ca-0x5cb (1)
0x5c0|                                 00 00 00 00 00|           .....|                    bytes: raw bits 0x5cb-0x5db (16)
0x5d0|00 00 40 00 00 00 00 00 00 e0 41               |..@.......A     |
     |                                               |                |                  [1]{}: in 0x5db-0x5dd (2)
0x5d0|                                 20            |                |                    opcode: "local.get" (0x20) 0x5db-0x5dc (1)
0x5d0|                                    00         |            .   |                    x: 0 (valid) 0x5dc-0x5dd (1)
     |                                               |                |                  [2]{}: in 0x5dd-0x5e0 (3)
0x5d0|                                       fd      |             .  |                    opcode: "vector" (0xfd) 0x5dd-0x5de (1)
0x5d0|                                          f4 01|              ..|                    v_opcode: "f64x2.min" (244) 0x5de-0x5e0 (2)
     |                                               |                |                  [3]{}: in 0x5e0-0x5e1 (1)
0x5e0|0b                                             |.               |                    opcode: "end" (0xb) 0x5e0-0x5e1 (1)
     |                                               |                |            [17]{}: code 0x5e1-0x5fb (26)
0x5e0|   19                                          | .              |              size: 25 (valid) 0x5e1-0x5e2 (1)
     |                                               |                |              code{}: 0x5e2-0x5fb (25)
     |                                               |                |                t{}: 0x5e2-0x5e3 (1)
0x5e0|      00                                       |  .             |                  n: 0 (valid) 0x5e2-0x5e3 (1)
     |                                               |                |                  x[0:0]: 0x5e3-0x5e3 (0)
     |                                               |                |                e[0:4]: 0x5e3-0x5fb (24)
     |                                               |                |                  [0]{}: in 0x5e3-0x5f5 (18)
0x5e0|         fd                                    |   .            |                    opcode: "vector" (0xfd) 0x5e3-0x5e4 (1)
0x5e0|            0c                                 |    .           |                    v_opcode: "v128.const" (12) 0x5e4-0x5e5 (1)
0x5e0|               00 00 00 00 00 00 00 00 00 00 00|     ...........|                    bytes: raw bits 0x5e5-0x5f5 (16)
0x5f0|00 00 00 f0 3f                                 |....?           |
     |                                               |                |                  [1]{}: in 0x5f5-0x5f7 (2)
0x5f0|               20                              |                |                    opcode: "local.get" (0x20) 0x5f5-0x5f6 (1)
0x5f0|                  00                           |      .         |                    x: 0 (valid) 0x5f6-0x5f7 (1)
     |                                               |                |                  [2]{}: in 0x5f7-0x5fa (3)
0x5f0|                     fd                        |       .        |                    opcode: "vector" (0xfd) 0x5f7-0x5f8 (1)
0x5f0|                        f4 01                  |        ..      |                    v_opcode: "f64x2.min" (244) 0x5f8-0x5fa (2)
     |                                               |                |                  [3]{}: in 0x5fa-0x5fb (1)
0x5f0|                              0b               |          .     |                    opcode: "end" (0xb) 0x5fa-0x5fb (1)
     |                                               |                |            [18]{}: code 0x5fb-0x615 (26)
0x5f0|                                 19            |           .    |              size: 25 (valid) 0x5fb-0x5fc (1)
     |                                               |                |              code{}: 0x5fc-0x615 (25)
     |                                               |                |                t{}: 0x5fc-0x5fd (1)
0x5f0|                                    00         |            .   |                  n: 0 (valid) 0x5fc-0x5fd (1)
     |                                               |                |                  x[0:0]: 0x5fd-0x5fd (0)
     |                                               |                |                e[0:4]: 0x5fd-0x615 (24)
     |                                               |                |                  [0]{}: in 0x5fd-0x60f (18)
0x5f0|                                       fd      |             .  |                    opcode: "vector" (0xfd) 0x5fd-0x5fe (1)
0x5f0|                                          0c   |              . |                    v_opcode: "v128.const" (12) 0x5fe-0x5ff (1)
0x5f0|                                             00|               .|                    bytes: raw bits 0x5ff-0x60f (16)
0x600|00 00 00 00 00 00 40 00 00 00 00 00 00 e0 41   |......@.......A |
     |                                               |                |                  [1]{}: in 0x60f-0x611 (2)
0x600|                                             20|                |                    opcode: "local.get" (0x20) 0x60f-0x610 (1)
0x610|00                                             |.               |                    x: 0 (valid) 0x610-0x611 (1)
     |                                               |                |                  [2]{}: in 0x611-0x614 (3)
0x610|   fd                                          | .              |                    opcode: "vector" (0xfd) 0x611-0x612 (1)
0x610|      f4 01                                    |  ..            |                    v_opcode: "f64x2.min" (244) 0x612-0x614 (2)
     |                                               |                |                  [3]{}: in 0x614-0x615 (1)
0x610|            0b                                 |    .           |                    opcode: "end" (0xb) 0x614-0x615 (1)
     |                                               |                |            [19]{}: code 0x615-0x63f (42)
0x610|               29                              |     )          |              size: 41 (valid) 0x615-0x616 (1)
     |                                               |                |              code{}: 0x616-0x63f (41)
     |                                               |                |                t{}: 0x616-0x617 (1)
0x610|                  00                           |      .         |                  n: 0 (valid) 0x616-0x617 (1)
     |                                               |                |                  x[0:0]: 0x617-0x617 (0)
     |                                               |                |                e[0:4]: 0x617-0x63f (40)
     |                                               |                |                  [0]{}: in 0x617-0x629 (18)
0x610|                     fd                        |       .        |                    opcode: "vector" (0xfd) 0x617-0x618 (1)
0x610|                        0c                     |        .       |                    v_opcode: "v128.const" (12) 0x618-0x619 (1)
0x610|                           00 00 00 00 00 00 00|         .......|                    bytes: raw bits 0x619-0x629 (16)
0x620|00 00 00 00 00 00 00 f0 3f                     |........?       |
     |                                               |                |                  [1]{}: in 0x629-0x63b (18)
0x620|                           fd                  |         .      |                    opcode: "vector" (0xfd) 0x629-0x62a (1)
0x620|                              0c               |          .     |                    v_opcode: "v128.const" (12) 0x62a-0x62b (1)
0x620|                                 00 00 00 00 00|           .....|                    bytes: raw bits 0x62b-0x63b (16)
0x630|00 00 00 00 00 00 00 00 00 00 40               |..........@     |
     |                                               |                |                  [2]{}: in 0x63b-0x63e (3)
0x630|                                 fd            |           .    |                    opcode: "vector" (0xfd) 0x63b-0x63c (1)
0x630|                                    f5 01      |            ..  |                    v_opcode: "f64x2.max" (245) 0x63c-0x63e (2)
     |                                               |                |                  [3]{}: in 0x63e-0x63f (1)
0x630|                                          0b   |              . |                    opcode: "end" (0xb) 0x63e-0x63f (1)
     |                                               |                |            [20]{}: code 0x63f-0x669 (42)
0x630|                                             29|               )|              size: 41 (valid) 0x63f-0x640 (1)
     |                                               |                |              code{}: 0x640-0x669 (41)
     |                                               |                |                t{}: 0x640-0x641 (1)
0x640|00                                             |.               |                  n: 0 (valid) 0x640-0x641 (1)
     |                                               |                |                  x[0:0]: 0x641-0x641 (0)
     |                                               |                |                e[0:4]: 0x641-0x669 (40)
     |                                               |                |                  [0]{}: in 0x641-0x653 (18)
0x640|   fd                                          | .              |                    opcode: "vector" (0xfd) 0x641-0x642 (1)
0x640|      0c                                       |  .             |                    v_opcode: "v128.const" (12) 0x642-0x643 (1)
0x640|         00 00 00 00 00 00 00 40 00 00 00 00 00|   .......@.....|                    bytes: raw bits 0x643-0x653 (16)
0x650|00 08 c0                                       |...             |
     |                                               |                |                  [1]{}: in 0x653-0x665 (18)
0x650|         fd                                    |   .            |                    opcode: "vector" (0xfd) 0x653-0x654 (1)
0x650|            0c                                 |    .           |                    v_opcode: "v128.const" (12) 0x654-0x655 (1)
0x650|               00 00 00 00 00 00 f0 3f 00 00 00|     .......?...|                    bytes: raw bits 0x655-0x665 (16)
0x660|00 00 00 08 40                                 |....@           |
     |                                               |                |                  [2]{}: in 0x665-0x668 (3)
0x660|               fd                              |     .          |                    opcode: "vector" (0xfd) 0x665-0x666 (1)
0x660|                  f5 01                        |      ..        |                    v_opcode: "f64x2.max" (245) 0x666-0x668 (2)
     |                                               |                |                  [3]{}: in 0x668-0x669 (1)
0x660|                        0b                     |        .       |                    opcode: "end" (0xb) 0x668-0x669 (1)
     |                                               |                |            [21]{}: code 0x669-0x693 (42)
0x660|                           29                  |         )      |              size: 41 (valid) 0x669-0x66a (1)
     |                                               |                |              code{}: 0x66a-0x693 (41)
     |                                               |                |                t{}: 0x66a-0x66b (1)
0x660|                              00               |          .     |                  n: 0 (valid) 0x66a-0x66b (1)
     |                                               |                |                  x[0:0]: 0x66b-0x66b (0)
     |                                               |                |                e[0:4]: 0x66b-0x693 (40)
     |                                               |                |                  [0]{}: in 0x66b-0x67d (18)
0x660|                                 fd            |           .    |                    opcode: "vector" (0xfd) 0x66b-0x66c (1)
0x660|                                    0c         |            .   |                    v_opcode: "v128.const" (12) 0x66c-0x66d (1)
0x660|                                       00 00 00|             ...|                    bytes: raw bits 0x66d-0x67d (16)
0x670|00 00 00 00 00 00 00 00 00 00 00 f0 3f         |............?   |
     |                                               |                |                  [1]{}: in 0x67d-0x68f (18)
0x670|                                       fd      |             .  |                    opcode: "vector" (0xfd) 0x67d-0x67e (1)
0x670|                                          0c   |              . |                    v_opcode: "v128.const" (12) 0x67e-0x67f (1)
0x670|                                             00|               .|                    bytes: raw bits 0x67f-0x68f (16)
0x680|00 00 00 00 00 00 00 00 00 00 00 00 00 f0 3f   |..............? |
     |                                               |                |                  [2]{}: in 0x68f-0x692 (3)
0x680|                                             fd|               .|                    opcode: "vector" (0xfd) 0x68f-0x690 (1)
0x690|f5 01                                          |..              |                    v_opcode: "f64x2.max" (245) 0x690-0x692 (2)
     |                                               |                |                  [3]{}: in 0x692-0x693 (1)
0x690|      0b                                       |  .             |                    opcode: "end" (0xb) 0x692-0x693 (1)
     |                                               |                |            [22]{}: code 0x693-0x6bd (42)
0x690|         29                                    |   )            |              size: 41 (valid) 0x693-0x694 (1)
     |                                               |                |              code{}: 0x694-0x6bd (41)
     |                                               |                |                t{}: 0x694-0x695 (1)
0x690|            00                                 |    .           |                  n: 0 (valid) 0x694-0x695 (1)
     |                                               |                |                  x[0:0]: 0x695-0x695 (0)
     |                                               |                |                e[0:4]: 0x695-0x6bd (40)
     |                                               |                |                  [0]{}: in 0x695-0x6a7 (18)
0x690|               fd                              |     .          |                    opcode: "vector" (0xfd) 0x695-0x696 (1)
0x690|                  0c                           |      .         |                    v_opcode: "v128.const" (12) 0x696-0x697 (1)
0x690|                     00 00 00 00 00 00 00 40 00|       .......@.|                    bytes: raw bits 0x697-0x6a7 (16)
0x6a0|00 00 00 00 00 08 40                           |......@         |
     |                                               |                |                  [1]{}: in 0x6a7-0x6b9 (18)
0x6a0|                     fd                        |       .        |                    opcode: "vector" (0xfd) 0x6a7-0x6a8 (1)
0x6a0|                        0c                     |        .       |                    v_opcode: "v128.const" (12) 0x6a8-0x6a9 (1)
0x6a0|                           00 00 00 00 00 00 00|         .......|                    bytes: raw bits 0x6a9-0x6b9 (16)
0x6b0|40 00 00 00 00 00 00 08 40                     |@.......@       |
     |                                               |                |                  [2]{}: in 0x6b9-0x6bc (3)
0x6b0|                           fd                  |         .      |                    opcode: "vector" (0xfd) 0x6b9-0x6ba (1)
0x6b0|                              f5 01            |          ..    |                    v_opcode: "f64x2.max" (245) 0x6ba-0x6bc (2)
     |                                               |                |                  [3]{}: in 0x6bc-0x6bd (1)
0x6b0|                                    0b         |            .   |                    opcode: "end" (0xb) 0x6bc-0x6bd (1)
     |                                               |                |            [23]{}: code 0x6bd-0x6e7 (42)
0x6b0|                                       29      |             )  |              size: 41 (valid) 0x6bd-0x6be (1)
     |                                               |                |              code{}: 0x6be-0x6e7 (41)
     |                                               |                |                t{}: 0x6be-0x6bf (1)
0x6b0|                                          00   |              . |                  n: 0 (valid) 0x6be-0x6bf (1)
     |                                               |                |                  x[0:0]: 0x6bf-0x6bf (0)
     |                                               |                |                e[0:4]: 0x6bf-0x6e7 (40)
     |                                               |                |                  [0]{}: in 0x6bf-0x6d1 (18)
0x6b0|                                             fd|               .|                    opcode: "vector" (0xfd) 0x6bf-0x6c0 (1)
0x6c0|0c                                             |.               |                    v_opcode: "v128.const" (12) 0x6c0-0x6c1 (1)
0x6c0|   00 00 00 00 00 00 00 00 00 00 00 00 00 00 f0| ...............|                    bytes: raw bits 0x6c1-0x6d1 (16)
0x6d0|3f                                             |?               |
     |                                               |                |                  [1]{}: in 0x6d1-0x6e3 (18)
0x6d0|   fd                                          | .              |                    opcode: "vector" (0xfd) 0x6d1-0x6d2 (1)
0x6d0|      0c                                       |  .             |                    v_opcode: "v128.const" (12) 0x6d2-0x6d3 (1)
0x6d0|         00 00 00 00 00 00 00 00 00 00 00 00 00|   .............|                    bytes: raw bits 0x6d3-0x6e3 (16)
0x6e0|00 00 40                                       |..@             |
     |                                               |                |                  [2]{}: in 0x6e3-0x6e6 (3)
0x6e0|         fd                                    |   .            |                    opcode: "vector" (0xfd) 0x6e3-0x6e4 (1)
0x6e0|            f5 01                              |    ..          |                    v_opcode: "f64x2.max" (245) 0x6e4-0x6e6 (2)
     |                                               |                |                  [3]{}: in 0x6e6-0x6e7 (1)
0x6e0|                  0b                           |      .         |                    opcode: "end" (0xb) 0x6e6-0x6e7 (1)
     |                                               |                |            [24]{}: code 0x6e7-0x711 (42)
0x6e0|                     29                        |       )        |              size: 41 (valid) 0x6e7-0x6e8 (1)
     |                                               |                |              code{}: 0x6e8-0x711 (41)
     |                                               |                |                t{}: 0x6e8-0x6e9 (1)
0x6e0|                        00                     |        .       |                  n: 0 (valid) 0x6e8-0x6e9 (1)
     |                                               |                |                  x[0:0]: 0x6e9-0x6e9 (0)
     |                                               |                |                e[0:4]: 0x6e9-0x711 (40)
     |                                               |                |                  [0]{}: in 0x6e9-0x6fb (18)
0x6e0|                           fd                  |         .      |                    opcode: "vector" (0xfd) 0x6e9-0x6ea (1)
0x6e0|                              0c               |          .     |                    v_opcode: "v128.const" (12) 0x6ea-0x6eb (1)
0x6e0|                                 00 00 00 00 00|           .....|                    bytes: raw bits 0x6eb-0x6fb (16)
0x6f0|00 00 40 00 00 00 00 00 00 e0 41               |..@.......A     |
     |                                               |                |                  [1]{}: in 0x6fb-0x70d (18)
0x6f0|                                 fd            |           .    |                    opcode: "vector" (0xfd) 0x6fb-0x6fc (1)
0x6f0|                                    0c         |            .   |                    v_opcode: "v128.const" (12) 0x6fc-0x6fd (1)
0x6f0|                                       00 00 00|             ...|                    bytes: raw bits 0x6fd-0x70d (16)
0x700|00 00 00 f0 3f 00 00 00 00 00 00 e0 41         |....?.......A   |
     |                                               |                |                  [2]{}: in 0x70d-0x710 (3)
0x700|                                       fd      |             .  |                    opcode: "vector" (0xfd) 0x70d-0x70e (1)
0x700|                                          f5 01|              ..|                    v_opcode: "f64x2.max" (245) 0x70e-0x710 (2)
     |                                               |                |                  [3]{}: in 0x710-0x711 (1)
0x710|0b                                             |.               |                    opcode: "end" (0xb) 0x710-0x711 (1)
     |                                               |                |            [25]{}: code 0x711-0x73b (42)
0x710|   29                                          | )              |              size: 41 (valid) 0x711-0x712 (1)
     |                                               |                |              code{}: 0x712-0x73b (41)
     |                                               |                |                t{}: 0x712-0x713 (1)
0x710|      00                                       |  .             |                  n: 0 (valid) 0x712-0x713 (1)
     |                                               |                |                  x[0:0]: 0x713-0x713 (0)
     |                                               |                |                e[0:4]: 0x713-0x73b (40)
     |                                               |                |                  [0]{}: in 0x713-0x725 (18)
0x710|         fd                                    |   .            |                    opcode: "vector" (0xfd) 0x713-0x714 (1)
0x710|            0c                                 |    .           |                    v_opcode: "v128.const" (12) 0x714-0x715 (1)
0x710|               00 00 00 00 00 00 00 00 00 00 00|     ...........|                    bytes: raw bits 0x715-0x725 (16)
0x720|00 00 00 f0 3f                                 |....?           |
     |                                               |                |                  [1]{}: in 0x725-0x737 (18)
0x720|               fd                              |     .          |                    opcode: "vector" (0xfd) 0x725-0x726 (1)
0x720|                  0c                           |      .         |                    v_opcode: "v128.const" (12) 0x726-0x727 (1)
0x720|                     00 00 00 00 00 00 00 00 00|       .........|                    bytes: raw bits 0x727-0x737 (16)
0x730|00 00 00 00 00 f0 3f                           |......?         |
     |                                               |                |                  [2]{}: in 0x737-0x73a (3)
0x730|                     fd                        |       .        |                    opcode: "vector" (0xfd) 0x737-0x738 (1)
0x730|                        f5 01                  |        ..      |                    v_opcode: "f64x2.max" (245) 0x738-0x73a (2)
     |                                               |                |                  [3]{}: in 0x73a-0x73b (1)
0x730|                              0b               |          .     |                    opcode: "end" (0xb) 0x73a-0x73b (1)
     |                                               |                |            [26]{}: code 0x73b-0x765 (42)
0x730|                                 29            |           )    |              size: 41 (valid) 0x73b-0x73c (1)
     |                                               |                |              code{}: 0x73c-0x765 (41)
     |                                               |                |                t{}: 0x73c-0x73d (1)
0x730|                                    00         |            .   |                  n: 0 (valid) 0x73c-0x73d (1)
     |                                               |                |                  x[0:0]: 0x73d-0x73d (0)
     |                                               |                |                e[0:4]: 0x73d-0x765 (40)
     |                                               |                |                  [0]{}: in 0x73d-0x74f (18)
0x730|                                       fd      |             .  |                    opcode: "vector" (0xfd) 0x73d-0x73e (1)
0x730|                                          0c   |              . |                    v_opcode: "v128.const" (12) 0x73e-0x73f (1)
0x730|                                             00|               .|                    bytes: raw bits 0x73f-0x74f (16)
0x740|00 00 00 00 00 00 40 00 00 00 00 00 00 e0 41   |......@.......A |
     |                                               |                |                  [1]{}: in 0x74f-0x761 (18)
0x740|                                             fd|               .|                    opcode: "vector" (0xfd) 0x74f-0x750 (1)
0x750|0c                                             |.               |                    v_opcode: "v128.const" (12) 0x750-0x751 (1)
0x750|   00 00 00 00 00 00 00 40 00 00 00 00 00 00 e0| .......@.......|                    bytes: raw bits 0x751-0x761 (16)
0x760|41                                             |A               |
     |                                               |                |                  [2]{}: in 0x761-0x764 (3)
0x760|   fd                                          | .              |                    opcode: "vector" (0xfd) 0x761-0x762 (1)
0x760|      f5 01                                    |  ..            |                    v_opcode: "f64x2.max" (245) 0x762-0x764 (2)
     |                                               |                |                  [3]{}: in 0x764-0x765 (1)
0x760|            0b                                 |    .           |                    opcode: "end" (0xb) 0x764-0x765 (1)
     |                                               |                |            [27]{}: code 0x765-0x77f (26)
0x760|               19                              |     .          |              size: 25 (valid) 0x765-0x766 (1)
     |                                               |                |              code{}: 0x766-0x77f (25)
     |                                               |                |                t{}: 0x766-0x767 (1)
0x760|                  00                           |      .         |                  n: 0 (valid) 0x766-0x767 (1)
     |                                               |                |                  x[0:0]: 0x767-0x767 (0)
     |                                               |                |                e[0:4]: 0x767-0x77f (24)
     |                                               |                |                  [0]{}: in 0x767-0x769 (2)
0x760|                     20                        |                |                    opcode: "local.get" (0x20) 0x767-0x768 (1)
0x760|                        00                     |        .       |                    x: 0 (valid) 0x768-0x769 (1)
     |                                               |                |                  [1]{}: in 0x769-0x77b (18)
0x760|                           fd                  |         .      |                    opcode: "vector" (0xfd) 0x769-0x76a (1)
0x760|                              0c               |          .     |                    v_opcode: "v128.const" (12) 0x76a-0x76b (1)
0x760|                                 00 00 00 00 00|           .....|                    bytes: raw bits 0x76b-0x77b (16)
0x770|00 00 00 00 00 00 00 00 00 f0 3f               |..........?     |
     |                                               |                |                  [2]{}: in 0x77b-0x77e (3)
0x770|                                 fd            |           .    |                    opcode: "vector" (0xfd) 0x77b-0x77c (1)
0x770|                                    f5 01      |            ..  |                    v_opcode: "f64x2.max" (245) 0x77c-0x77e (2)
     |                                               |                |                  [3]{}: in 0x77e-0x77f (1)
0x770|                                          0b   |              . |                    opcode: "end" (0xb) 0x77e-0x77f (1)
     |                                               |                |            [28]{}: code 0x77f-0x799 (26)
0x770|                                             19|               .|              size: 25 (valid) 0x77f-0x780 (1)
     |                                               |                |              code{}: 0x780-0x799 (25)
     |                                               |                |                t{}: 0x780-0x781 (1)
0x780|00                                             |.               |                  n: 0 (valid) 0x780-0x781 (1)
     |                                               |                |                  x[0:0]: 0x781-0x781 (0)
     |                                               |                |                e[0:4]: 0x781-0x799 (24)
     |                                               |                |                  [0]{}: in 0x781-0x793 (18)
0x780|   fd                                          | .              |                    opcode: "vector" (0xfd) 0x781-0x782 (1)
0x780|      0c                                       |  .             |                    v_opcode: "v128.const" (12) 0x782-0x783 (1)
0x780|         00 00 00 00 00 00 00 40 00 00 00 00 00|   .......@.....|                    bytes: raw bits 0x783-0x793 (16)
0x790|00 08 c0                                       |...             |
     |                                               |                |                  [1]{}: in 0x793-0x795 (2)
0x790|         20                                    |                |                    opcode: "local.get" (0x20) 0x793-0x794 (1)
0x790|            00                                 |    .           |                    x: 0 (valid) 0x794-0x795 (1)
     |                                               |                |                  [2]{}: in 0x795-0x798 (3)
0x790|               fd                              |     .          |                    opcode: "vector" (0xfd) 0x795-0x796 (1)
0x790|                  f5 01                        |      ..        |                    v_opcode: "f64x2.max" (245) 0x796-0x798 (2)
     |                                               |                |                  [3]{}: in 0x798-0x799 (1)
0x790|                        0b                     |        .       |                    opcode: "end" (0xb) 0x798-0x799 (1)
     |                                               |                |            [29]{}: code 0x799-0x7b3 (26)
0x790|                           19                  |         .      |              size: 25 (valid) 0x799-0x79a (1)
     |                                               |                |              code{}: 0x79a-0x7b3 (25)
     |                                               |                |                t{}: 0x79a-0x79b (1)
0x790|                              00               |          .     |                  n: 0 (valid) 0x79a-0x79b (1)
     |                                               |                |                  x[0:0]: 0x79b-0x79b (0)
     |                                               |                |                e[0:4]: 0x79b-0x7b3 (24)
     |                                               |                |                  [0]{}: in 0x79b-0x7ad (18)
0x790|                                 fd            |           .    |                    opcode: "vector" (0xfd) 0x79b-0x79c (1)
0x790|                                    0c         |            .   |                    v_opcode: "v128.const" (12) 0x79c-0x79d (1)
0x790|                                       00 00 00|             ...|                    bytes: raw bits 0x79d-0x7ad (16)
0x7a0|00 00 00 00 00 00 00 00 00 00 00 f0 3f         |............?   |
     |                                               |                |                  [1]{}: in 0x7ad-0x7af (2)
0x7a0|                                       20      |                |                    opcode: "local.get" (0x20) 0x7ad-0x7ae (1)
0x7a0|                                          00   |              . |                    x: 0 (valid) 0x7ae-0x7af (1)
     |                                               |                |                  [2]{}: in 0x7af-0x7b2 (3)
0x7a0|                                             fd|               .|                    opcode: "vector" (0xfd) 0x7af-0x7b0 (1)
0x7b0|f5 01                                          |..              |                    v_opcode: "f64x2.max" (245) 0x7b0-0x7b2 (2)
     |                                               |                |                  [3]{}: in 0x7b2-0x7b3 (1)
0x7b0|      0b                                       |  .             |                    opcode: "end" (0xb) 0x7b2-0x7b3 (1)
     |                                               |                |            [30]{}: code 0x7b3-0x7cd (26)
0x7b0|         19                                    |   .            |              size: 25 (valid) 0x7b3-0x7b4 (1)
     |                                               |                |              code{}: 0x7b4-0x7cd (25)
     |                                               |                |                t{}: 0x7b4-0x7b5 (1)
0x7b0|            00                                 |    .           |                  n: 0 (valid) 0x7b4-0x7b5 (1)
     |                                               |                |                  x[0:0]: 0x7b5-0x7b5 (0)
     |                                               |                |                e[0:4]: 0x7b5-0x7cd (24)
     |                                               |                |                  [0]{}: in 0x7b5-0x7b7 (2)
0x7b0|               20                              |                |                    opcode: "local.get" (0x20) 0x7b5-0x7b6 (1)
0x7b0|                  00                           |      .         |                    x: 0 (valid) 0x7b6-0x7b7 (1)
     |                                               |                |                  [1]{}: in 0x7b7-0x7c9 (18)
0x7b0|                     fd                        |       .        |                    opcode: "vector" (0xfd) 0x7b7-0x7b8 (1)
0x7b0|                        0c                     |        .       |                    v_opcode: "v128.const" (12) 0x7b8-0x7b9 (1)
0x7b0|                           00 00 00 00 00 00 00|         .......|                    bytes: raw bits 0x7b9-0x7c9 (16)
0x7c0|40 00 00 00 00 00 00 08 40                     |@.......@       |
     |                                               |                |                  [2]{}: in 0x7c9-0x7cc (3)
0x7c0|                           fd                  |         .      |                    opcode: "vector" (0xfd) 0x7c9-0x7ca (1)
0x7c0|                              f5 01            |          ..    |                    v_opcode: "f64x2.max" (245) 0x7ca-0x7cc (2)
     |                                               |                |                  [3]{}: in 0x7cc-0x7cd (1)
0x7c0|                                    0b         |            .   |                    opcode: "end" (0xb) 0x7cc-0x7cd (1)
     |                                               |                |            [31]{}: code 0x7cd-0x7e7 (26)
0x7c0|                                       19      |             .  |              size: 25 (valid) 0x7cd-0x7ce (1)
     |                                               |                |              code{}: 0x7ce-0x7e7 (25)
     |                                               |                |                t{}: 0x7ce-0x7cf (1)
0x7c0|                                          00   |              . |                  n: 0 (valid) 0x7ce-0x7cf (1)
     |                                               |                |                  x[0:0]: 0x7cf-0x7cf (0)
     |                                               |                |                e[0:4]: 0x7cf-0x7e7 (24)
     |                                               |                |                  [0]{}: in 0x7cf-0x7e1 (18)
0x7c0|                                             fd|               .|                    opcode: "vector" (0xfd) 0x7cf-0x7d0 (1)
0x7d0|0c                                             |.               |                    v_opcode: "v128.const" (12) 0x7d0-0x7d1 (1)
0x7d0|   00 00 00 00 00 00 00 00 00 00 00 00 00 00 f0| ...............|                    bytes: raw bits 0x7d1-0x7e1 (16)
0x7e0|3f                                             |?               |
     |                                               |                |                  [1]{}: in 0x7e1-0x7e3 (2)
0x7e0|   20                                          |                |                    opcode: "local.get" (0x20) 0x7e1-0x7e2 (1)
0x7e0|      00                                       |  .             |                    x: 0 (valid) 0x7e2-0x7e3 (1)
     |                                               |                |                  [2]{}: in 0x7e3-0x7e6 (3)
0x7e0|         fd                                    |   .            |                    opcode: "vector" (0xfd) 0x7e3-0x7e4 (1)
0x7e0|            f5 01                              |    ..          |                    v_opcode: "f64x2.max" (245) 0x7e4-0x7e6 (2)
     |                                               |                |                  [3]{}: in 0x7e6-0x7e7 (1)
0x7e0|                  0b                           |      .         |                    opcode: "end" (0xb) 0x7e6-0x7e7 (1)
     |                                               |                |            [32]{}: code 0x7e7-0x801 (26)
0x7e0|                     19                        |       .        |              size: 25 (valid) 0x7e7-0x7e8 (1)
     |                                               |                |              code{}: 0x7e8-0x801 (25)
     |                                               |                |                t{}: 0x7e8-0x7e9 (1)
0x7e0|                        00                     |        .       |                  n: 0 (valid) 0x7e8-0x7e9 (1)
     |                                               |                |                  x[0:0]: 0x7e9-0x7e9 (0)
     |                                               |                |                e[0:4]: 0x7e9-0x801 (24)
     |                                               |                |                  [0]{}: in 0x7e9-0x7fb (18)
0x7e0|                           fd                  |         .      |                    opcode: "vector" (0xfd) 0x7e9-0x7ea (1)
0x7e0|                              0c               |          .     |                    v_opcode: "v128.const" (12) 0x7ea-0x7eb (1)
0x7e0|                                 00 00 00 00 00|           .....|                    bytes: raw bits 0x7eb-0x7fb (16)
0x7f0|00 00 40 00 00 00 00 00 00 e0 41               |..@.......A     |
     |                                               |                |                  [1]{}: in 0x7fb-0x7fd (2)
0x7f0|                                 20            |                |                    opcode: "local.get" (0x20) 0x7fb-0x7fc (1)
0x7f0|                                    00         |            .   |                    x: 0 (valid) 0x7fc-0x7fd (1)
     |                                               |                |                  [2]{}: in 0x7fd-0x800 (3)
0x7f0|                                       fd      |             .  |                    opcode: "vector" (0xfd) 0x7fd-0x7fe (1)
0x7f0|                                          f5 01|              ..|                    v_opcode: "f64x2.max" (245) 0x7fe-0x800 (2)
     |                                               |                |                  [3]{}: in 0x800-0x801 (1)
0x800|0b                                             |.               |                    opcode: "end" (0xb) 0x800-0x801 (1)
     |                                               |                |            [33]{}: code 0x801-0x81b (26)
0x800|   19                                          | .              |              size: 25 (valid) 0x801-0x802 (1)
     |                                               |                |              code{}: 0x802-0x81b (25)
     |                                               |                |                t{}: 0x802-0x803 (1)
0x800|      00                                       |  .             |                  n: 0 (valid) 0x802-0x803 (1)
     |                                               |                |                  x[0:0]: 0x803-0x803 (0)
     |                                               |                |                e[0:4]: 0x803-0x81b (24)
     |                                               |                |                  [0]{}: in 0x803-0x815 (18)
0x800|         fd                                    |   .            |                    opcode: "vector" (0xfd) 0x803-0x804 (1)
0x800|            0c                                 |    .           |                    v_opcode: "v128.const" (12) 0x804-0x805 (1)
0x800|               00 00 00 00 00 00 00 00 00 00 00|     ...........|                    bytes: raw bits 0x805-0x815 (16)
0x810|00 00 00 f0 3f                                 |....?           |
     |                                               |                |                  [1]{}: in 0x815-0x817 (2)
0x810|               20                              |                |                    opcode: "local.get" (0x20) 0x815-0x816 (1)
0x810|                  00                           |      .         |                    x: 0 (valid) 0x816-0x817 (1)
     |                                               |                |                  [2]{}: in 0x817-0x81a (3)
0x810|                     fd                        |       .        |                    opcode: "vector" (0xfd) 0x817-0x818 (1)
0x810|                        f5 01                  |        ..      |                    v_opcode: "f64x2.max" (245) 0x818-0x81a (2)
     |                                               |                |                  [3]{}: in 0x81a-0x81b (1)
0x810|                              0b               |          .     |                    opcode: "end" (0xb) 0x81a-0x81b (1)
     |                                               |                |            [34]{}: code 0x81b-0x835 (26)
0x810|                                 19            |           .    |              size: 25 (valid) 0x81b-0x81c (1)
     |                                               |                |              code{}: 0x81c-0x835 (25)
     |                                               |                |                t{}: 0x81c-0x81d (1)
0x810|                                    00         |            .   |                  n: 0 (valid) 0x81c-0x81d (1)
     |                                               |                |                  x[0:0]: 0x81d-0x81d (0)
     |                                               |                |                e[0:4]: 0x81d-0x835 (24)
     |                                               |                |                  [0]{}: in 0x81d-0x82f (18)
0x810|                                       fd      |             .  |                    opcode: "vector" (0xfd) 0x81d-0x81e (1)
0x810|                                          0c   |              . |                    v_opcode: "v128.const" (12) 0x81e-0x81f (1)
0x810|                                             00|               .|                    bytes: raw bits 0x81f-0x82f (16)
0x820|00 00 00 00 00 00 40 00 00 00 00 00 00 e0 41   |......@.......A |
     |                                               |                |                  [1]{}: in 0x82f-0x831 (2)
0x820|                                             20|                |                    opcode: "local.get" (0x20) 0x82f-0x830 (1)
0x830|00                                             |.               |                    x: 0 (valid) 0x830-0x831 (1)
     |                                               |                |                  [2]{}: in 0x831-0x834 (3)
0x830|   fd                                          | .              |                    opcode: "vector" (0xfd) 0x831-0x832 (1)
0x830|      f5 01                                    |  ..            |                    v_opcode: "f64x2.max" (245) 0x832-0x834 (2)
     |                                               |                |                  [3]{}: in 0x834-0x835 (1)
0x830|            0b                                 |    .           |                    opcode: "end" (0xb) 0x834-0x835 (1)
     |                                               |                |            [35]{}: code 0x835-0x84d (24)
0x830|               17                              |     .          |              size: 23 (valid) 0x835-0x836 (1)
     |                                               |                |              code{}: 0x836-0x84d (23)
     |                                               |                |                t{}: 0x836-0x837 (1)
0x830|                  00                           |      .         |                  n: 0 (valid) 0x836-0x837 (1)
     |                                               |                |                  x[0:0]: 0x837-0x837 (0)
     |                                               |                |                e[0:3]: 0x837-0x84d (22)
     |                                               |                |                  [0]{}: in 0x837-0x849 (18)
0x830|                     fd                        |       .        |                    opcode: "vector" (0xfd) 0x837-0x838 (1)
0x830|                        0c                     |        .       |                    v_opcode: "v128.const" (12) 0x838-0x839 (1)
0x830|                           00 00 00 00 00 00 00|         .......|                    bytes: raw bits 0x839-0x849 (16)
0x840|80 00 00 00 00 00 00 f0 bf                     |.........       |
     |                                               |                |                  [1]{}: in 0x849-0x84c (3)
0x840|                           fd                  |         .      |                    opcode: "vector" (0xfd) 0x849-0x84a (1)
0x840|                              ec 01            |          ..    |                    v_opcode: "f64x2.abs" (236) 0x84a-0x84c (2)
     |                                               |                |                  [2]{}: in 0x84c-0x84d (1)
0x840|                                    0b         |            .   |                    opcode: "end" (0xb) 0x84c-0x84d (1)
     |                                               |                |            [36]{}: code 0x84d-0x865 (24)
0x840|                                       17      |             .  |              size: 23 (valid) 0x84d-0x84e (1)
     |                                               |                |              code{}: 0x84e-0x865 (23)
     |                                               |                |                t{}: 0x84e-0x84f (1)
0x840|                                          00   |              . |                  n: 0 (valid) 0x84e-0x84f (1)
     |                                               |                |                  x[0:0]: 0x84f-0x84f (0)
     |                                               |                |                e[0:3]: 0x84f-0x865 (22)
     |                                               |                |                  [0]{}: in 0x84f-0x861 (18)
0x840|                                             fd|               .|                    opcode: "vector" (0xfd) 0x84f-0x850 (1)
0x850|0c                                             |.               |                    v_opcode: "v128.const" (12) 0x850-0x851 (1)
0x850|   00 00 00 00 00 00 00 c0 00 00 00 00 00 00 08| ...............|                    bytes: raw bits 0x851-0x861 (16)
0x860|c0                                             |.               |
     |                                               |                |                  [1]{}: in 0x861-0x864 (3)
0x860|   fd                                          | .              |                    opcode: "vector" (0xfd) 0x861-0x862 (1)
0x860|      ec 01                                    |  ..            |                    v_opcode: "f64x2.abs" (236) 0x862-0x864 (2)
     |                                               |                |                  [2]{}: in 0x864-0x865 (1)
0x860|            0b|                                |    .|          |                    opcode: "end" (0xb) 0x864-0x865 (1)
