$ fq -d wasm dv simd_const-305.wasm
     |00 01 02 03 04 05 06 07 08 09 0a 0b 0c 0d 0e 0f|0123456789abcdef|.{}: simd_const-305.wasm (wasm) 0x0-0x2fe (766)
0x000|00 61 73 6d                                    |.asm            |  magic: raw bits (valid) 0x0-0x4 (4)
0x000|            01 00 00 00                        |    ....        |  version: 1 0x4-0x8 (4)
     |                                               |                |  sections[0:4]: 0x8-0x2fe (758)
     |                                               |                |    [0]{}: section 0x8-0xf (7)
0x000|                        01                     |        .       |      id: "type_section" (1) 0x8-0x9 (1)
0x000|                           05                  |         .      |      size: 5 (valid) 0x9-0xa (1)
     |                                               |                |      content{}: 0xa-0xf (5)
     |                                               |                |        ft{}: 0xa-0xf (5)
0x000|                              01               |          .     |          n: 1 (valid) 0xa-0xb (1)
     |                                               |                |          x[0:1]: 0xb-0xf (4)
     |                                               |                |            [0]{}: ft 0xb-0xf (4)
0x000|                                 60            |           `    |              tag: 0x60 (valid) 0xb-0xc (1)
     |                                               |                |              rt1{}: 0xc-0xd (1)
0x000|                                    00         |            .   |                n: 0 (valid) 0xc-0xd (1)
     |                                               |                |                x[0:0]: 0xd-0xd (0)
     |                                               |                |              rt2{}: 0xd-0xf (2)
0x000|                                       01      |             .  |                n: 1 (valid) 0xd-0xe (1)
     |                                               |                |                x[0:1]: 0xe-0xf (1)
0x000|                                          7b   |              { |                  [0]: "v128" (0x7b) t 0xe-0xf (1)
     |                                               |                |    [1]{}: section 0xf-0x26 (23)
0x000|                                             03|               .|      id: "function_section" (3) 0xf-0x10 (1)
0x010|15                                             |.               |      size: 21 (valid) 0x10-0x11 (1)
     |                                               |                |      content{}: 0x11-0x26 (21)
     |                                               |                |        x{}: 0x11-0x26 (21)
0x010|   14                                          | .              |          n: 20 (valid) 0x11-0x12 (1)
     |                                               |                |          x[0:20]: 0x12-0x26 (20)
0x010|      00                                       |  .             |            [0]: 0 x (valid) 0x12-0x13 (1)
0x010|         00                                    |   .            |            [1]: 0 x (valid) 0x13-0x14 (1)
0x010|            00                                 |    .           |            [2]: 0 x (valid) 0x14-0x15 (1)
0x010|               00                              |     .          |            [3]: 0 x (valid) 0x15-0x16 (1)
0x010|                  00                           |      .         |            [4]: 0 x (valid) 0x16-0x17 (1)
0x010|                     00                        |       .        |            [5]: 0 x (valid) 0x17-0x18 (1)
0x010|                        00                     |        .       |            [6]: 0 x (valid) 0x18-0x19 (1)
0x010|                           00                  |         .      |            [7]: 0 x (valid) 0x19-0x1a (1)
0x010|                              00               |          .     |            [8]: 0 x (valid) 0x1a-0x1b (1)
0x010|                                 00            |           .    |            [9]: 0 x (valid) 0x1b-0x1c (1)
0x010|                                    00         |            .   |            [10]: 0 x (valid) 0x1c-0x1d (1)
0x010|                                       00      |             .  |            [11]: 0 x (valid) 0x1d-0x1e (1)
0x010|                                          00   |              . |            [12]: 0 x (valid) 0x1e-0x1f (1)
0x010|                                             00|               .|            [13]: 0 x (valid) 0x1f-0x20 (1)
0x020|00                                             |.               |            [14]: 0 x (valid) 0x20-0x21 (1)
0x020|   00                                          | .              |            [15]: 0 x (valid) 0x21-0x22 (1)
0x020|      00                                       |  .             |            [16]: 0 x (valid) 0x22-0x23 (1)
0x020|         00                                    |   .            |            [17]: 0 x (valid) 0x23-0x24 (1)
0x020|            00                                 |    .           |            [18]: 0 x (valid) 0x24-0x25 (1)
0x020|               00                              |     .          |            [19]: 0 x (valid) 0x25-0x26 (1)
     |                                               |                |    [2]{}: section 0x26-0x156 (304)
0x020|                  07                           |      .         |      id: "export_section" (7) 0x26-0x27 (1)
0x020|                     ad 02                     |       ..       |      size: 301 (valid) 0x27-0x29 (2)
     |                                               |                |      content{}: 0x29-0x156 (301)
     |                                               |                |        ex{}: 0x29-0x156 (301)
0x020|                           14                  |         .      |          n: 20 (valid) 0x29-0x2a (1)
     |                                               |                |          x[0:20]: 0x2a-0x156 (300)
     |                                               |                |            [0]{}: ex 0x2a-0x39 (15)
     |                                               |                |              nm{}: 0x2a-0x37 (13)
0x020|                              0c               |          .     |                n: 12 (valid) 0x2a-0x2b (1)
0x020|                                 66 33 32 2d 64|           f32-d|                b: "f32-dec-sep1" 0x2b-0x37 (12)
0x030|65 63 2d 73 65 70 31                           |ec-sep1         |
     |                                               |                |              d{}: 0x37-0x39 (2)
0x030|                     00                        |       .        |                tag: "funcidx" (0x0) 0x37-0x38 (1)
0x030|                        00                     |        .       |                x: 0 (valid) 0x38-0x39 (1)
     |                                               |                |            [1]{}: ex 0x39-0x48 (15)
     |                                               |                |              nm{}: 0x39-0x46 (13)
0x030|                           0c                  |         .      |                n: 12 (valid) 0x39-0x3a (1)
0x030|                              66 33 32 2d 64 65|          f32-de|                b: "f32-dec-sep2" 0x3a-0x46 (12)
0x040|63 2d 73 65 70 32                              |c-sep2          |
     |                                               |                |              d{}: 0x46-0x48 (2)
0x040|                  00                           |      .         |                tag: "funcidx" (0x0) 0x46-0x47 (1)
0x040|                     01                        |       .        |                x: 1 (valid) 0x47-0x48 (1)
     |                                               |                |            [2]{}: ex 0x48-0x57 (15)
     |                                               |                |              nm{}: 0x48-0x55 (13)
0x040|                        0c                     |        .       |                n: 12 (valid) 0x48-0x49 (1)
0x040|                           66 33 32 2d 64 65 63|         f32-dec|                b: "f32-dec-sep3" 0x49-0x55 (12)
0x050|2d 73 65 70 33                                 |-sep3           |
     |                                               |                |              d{}: 0x55-0x57 (2)
0x050|               00                              |     .          |                tag: "funcidx" (0x0) 0x55-0x56 (1)
0x050|                  02                           |      .         |                x: 2 (valid) 0x56-0x57 (1)
     |                                               |                |            [3]{}: ex 0x57-0x66 (15)
     |                                               |                |              nm{}: 0x57-0x64 (13)
0x050|                     0c                        |       .        |                n: 12 (valid) 0x57-0x58 (1)
0x050|                        66 33 32 2d 64 65 63 2d|        f32-dec-|                b: "f32-dec-sep4" 0x58-0x64 (12)
0x060|73 65 70 34                                    |sep4            |
     |                                               |                |              d{}: 0x64-0x66 (2)
0x060|            00                                 |    .           |                tag: "funcidx" (0x0) 0x64-0x65 (1)
0x060|               03                              |     .          |                x: 3 (valid) 0x65-0x66 (1)
     |                                               |                |            [4]{}: ex 0x66-0x75 (15)
     |                                               |                |              nm{}: 0x66-0x73 (13)
0x060|                  0c                           |      .         |                n: 12 (valid) 0x66-0x67 (1)
0x060|                     66 33 32 2d 64 65 63 2d 73|       f32-dec-s|                b: "f32-dec-sep5" 0x67-0x73 (12)
0x070|65 70 35                                       |ep5             |
     |                                               |                |              d{}: 0x73-0x75 (2)
0x070|         00                                    |   .            |                tag: "funcidx" (0x0) 0x73-0x74 (1)
0x070|            04                                 |    .           |                x: 4 (valid) 0x74-0x75 (1)
     |                                               |                |            [5]{}: ex 0x75-0x84 (15)
     |                                               |                |              nm{}: 0x75-0x82 (13)
0x070|               0c                              |     .          |                n: 12 (valid) 0x75-0x76 (1)
0x070|                  66 33 32 2d 68 65 78 2d 73 65|      f32-hex-se|                b: "f32-hex-sep1" 0x76-0x82 (12)
0x080|70 31                                          |p1              |
     |                                               |                |              d{}: 0x82-0x84 (2)
0x080|      00                                       |  .             |                tag: "funcidx" (0x0) 0x82-0x83 (1)
0x080|         05                                    |   .            |                x: 5 (valid) 0x83-0x84 (1)
     |                                               |                |            [6]{}: ex 0x84-0x93 (15)
     |                                               |                |              nm{}: 0x84-0x91 (13)
0x080|            0c                                 |    .           |                n: 12 (valid) 0x84-0x85 (1)
0x080|               66 33 32 2d 68 65 78 2d 73 65 70|     f32-hex-sep|                b: "f32-hex-sep2" 0x85-0x91 (12)
0x090|32                                             |2               |
     |                                               |                |              d{}: 0x91-0x93 (2)
0x090|   00                                          | .              |                tag: "funcidx" (0x0) 0x91-0x92 (1)
0x090|      06                                       |  .             |                x: 6 (valid) 0x92-0x93 (1)
     |                                               |                |            [7]{}: ex 0x93-0xa2 (15)
     |                                               |                |              nm{}: 0x93-0xa0 (13)
0x090|         0c                                    |   .            |                n: 12 (valid) 0x93-0x94 (1)
0x090|            66 33 32 2d 68 65 78 2d 73 65 70 33|    f32-hex-sep3|                b: "f32-hex-sep3" 0x94-0xa0 (12)
     |                                               |                |              d{}: 0xa0-0xa2 (2)
0x0a0|00                                             |.               |                tag: "funcidx" (0x0) 0xa0-0xa1 (1)
0x0a0|   07                                          | .              |                x: 7 (valid) 0xa1-0xa2 (1)
     |                                               |                |            [8]{}: ex 0xa2-0xb1 (15)
     |                                               |                |              nm{}: 0xa2-0xaf (13)
0x0a0|      0c                                       |  .             |                n: 12 (valid) 0xa2-0xa3 (1)
0x0a0|         66 33 32 2d 68 65 78 2d 73 65 70 34   |   f32-hex-sep4 |                b: "f32-hex-sep4" 0xa3-0xaf (12)
     |                                               |                |              d{}: 0xaf-0xb1 (2)
0x0a0|                                             00|               .|                tag: "funcidx" (0x0) 0xaf-0xb0 (1)
0x0b0|08                                             |.               |                x: 8 (valid) 0xb0-0xb1 (1)
     |                                               |                |            [9]{}: ex 0xb1-0xc0 (15)
     |                                               |                |              nm{}: 0xb1-0xbe (13)
0x0b0|   0c                                          | .              |                n: 12 (valid) 0xb1-0xb2 (1)
0x0b0|      66 33 32 2d 68 65 78 2d 73 65 70 35      |  f32-hex-sep5  |                b: "f32-hex-sep5" 0xb2-0xbe (12)
     |                                               |                |              d{}: 0xbe-0xc0 (2)
0x0b0|                                          00   |              . |                tag: "funcidx" (0x0) 0xbe-0xbf (1)
0x0b0|                                             09|               .|                x: 9 (valid) 0xbf-0xc0 (1)
     |                                               |                |            [10]{}: ex 0xc0-0xcf (15)
     |                                               |                |              nm{}: 0xc0-0xcd (13)
0x0c0|0c                                             |.               |                n: 12 (valid) 0xc0-0xc1 (1)
0x0c0|   66 36 34 2d 64 65 63 2d 73 65 70 31         | f64-dec-sep1   |                b: "f64-dec-sep1" 0xc1-0xcd (12)
     |                                               |                |              d{}: 0xcd-0xcf (2)
0x0c0|                                       00      |             .  |                tag: "funcidx" (0x0) 0xcd-0xce (1)
0x0c0|                                          0a   |              . |                x: 10 (valid) 0xce-0xcf (1)
     |                                               |                |            [11]{}: ex 0xcf-0xde (15)
     |                                               |                |              nm{}: 0xcf-0xdc (13)
0x0c0|                                             0c|               .|                n: 12 (valid) 0xcf-0xd0 (1)
0x0d0|66 36 34 2d 64 65 63 2d 73 65 70 32            |f64-dec-sep2    |                b: "f64-dec-sep2" 0xd0-0xdc (12)
     |                                               |                |              d{}: 0xdc-0xde (2)
0x0d0|                                    00         |            .   |                tag: "funcidx" (0x0) 0xdc-0xdd (1)
0x0d0|                                       0b      |             .  |                x: 11 (valid) 0xdd-0xde (1)
     |                                               |                |            [12]{}: ex 0xde-0xed (15)
     |                                               |                |              nm{}: 0xde-0xeb (13)
0x0d0|                                          0c   |              . |                n: 12 (valid) 0xde-0xdf (1)
0x0d0|                                             66|               f|                b: "f64-dec-sep3" 0xdf-0xeb (12)
0x0e0|36 34 2d 64 65 63 2d 73 65 70 33               |64-dec-sep3     |
     |                                               |                |              d{}: 0xeb-0xed (2)
0x0e0|                                 00            |           .    |                tag: "funcidx" (0x0) 0xeb-0xec (1)
0x0e0|                                    0c         |            .   |                x: 12 (valid) 0xec-0xed (1)
     |                                               |                |            [13]{}: ex 0xed-0xfc (15)
     |                                               |                |              nm{}: 0xed-0xfa (13)
0x0e0|                                       0c      |             .  |                n: 12 (valid) 0xed-0xee (1)
0x0e0|                                          66 36|              f6|                b: "f64-dec-sep4" 0xee-0xfa (12)
0x0f0|34 2d 64 65 63 2d 73 65 70 34                  |4-dec-sep4      |
     |                                               |                |              d{}: 0xfa-0xfc (2)
0x0f0|                              00               |          .     |                tag: "funcidx" (0x0) 0xfa-0xfb (1)
0x0f0|                                 0d            |           .    |                x: 13 (valid) 0xfb-0xfc (1)
     |                                               |                |            [14]{}: ex 0xfc-0x10b (15)
     |                                               |                |              nm{}: 0xfc-0x109 (13)
0x0f0|                                    0c         |            .   |                n: 12 (valid) 0xfc-0xfd (1)
0x0f0|                                       66 36 34|             f64|                b: "f64-dec-sep5" 0xfd-0x109 (12)
0x100|2d 64 65 63 2d 73 65 70 35                     |-dec-sep5       |
     |                                               |                |              d{}: 0x109-0x10b (2)
0x100|                           00                  |         .      |                tag: "funcidx" (0x0) 0x109-0x10a (1)
0x100|                              0e               |          .     |                x: 14 (valid) 0x10a-0x10b (1)
     |                                               |                |            [15]{}: ex 0x10b-0x11a (15)
     |                                               |                |              nm{}: 0x10b-0x118 (13)
0x100|                                 0c            |           .    |                n: 12 (valid) 0x10b-0x10c (1)
0x100|                                    66 36 34 2d|            f64-|                b: "f64-hex-sep1" 0x10c-0x118 (12)
0x110|68 65 78 2d 73 65 70 31                        |hex-sep1        |
     |                                               |                |              d{}: 0x118-0x11a (2)
0x110|                        00                     |        .       |                tag: "funcidx" (0x0) 0x118-0x119 (1)
0x110|                           0f                  |         .      |                x: 15 (valid) 0x119-0x11a (1)
     |                                               |                |            [16]{}: ex 0x11a-0x129 (15)
     |                                               |                |              nm{}: 0x11a-0x127 (13)
0x110|                              0c               |          .     |                n: 12 (valid) 0x11a-0x11b (1)
0x110|                                 66 36 34 2d 68|           f64-h|                b: "f64-hex-sep2" 0x11b-0x127 (12)
0x120|65 78 2d 73 65 70 32                           |ex-sep2         |
     |                                               |                |              d{}: 0x127-0x129 (2)
0x120|                     00                        |       .        |                tag: "funcidx" (0x0) 0x127-0x128 (1)
0x120|                        10                     |        .       |                x: 16 (valid) 0x128-0x129 (1)
     |                                               |                |            [17]{}: ex 0x129-0x138 (15)
     |                                               |                |              nm{}: 0x129-0x136 (13)
0x120|                           0c                  |         .      |                n: 12 (valid) 0x129-0x12a (1)
0x120|                              66 36 34 2d 68 65|          f64-he|                b: "f64-hex-sep3" 0x12a-0x136 (12)
0x130|78 2d 73 65 70 33                              |x-sep3          |
     |                                               |                |              d{}: 0x136-0x138 (2)
0x130|                  00                           |      .         |                tag: "funcidx" (0x0) 0x136-0x137 (1)
0x130|                     11                        |       .        |                x: 17 (valid) 0x137-0x138 (1)
     |                                               |                |            [18]{}: ex 0x138-0x147 (15)
     |                                               |                |              nm{}: 0x138-0x145 (13)
0x130|                        0c                     |        .       |                n: 12 (valid) 0x138-0x139 (1)
0x130|                           66 36 34 2d 68 65 78|         f64-hex|                b: "f64-hex-sep4" 0x139-0x145 (12)
0x140|2d 73 65 70 34                                 |-sep4           |
     |                                               |                |              d{}: 0x145-0x147 (2)
0x140|               00                              |     .          |                tag: "funcidx" (0x0) 0x145-0x146 (1)
0x140|                  12                           |      .         |                x: 18 (valid) 0x146-0x147 (1)
     |                                               |                |            [19]{}: ex 0x147-0x156 (15)
     |                                               |                |              nm{}: 0x147-0x154 (13)
0x140|                     0c                        |       .        |                n: 12 (valid) 0x147-0x148 (1)
0x140|                        66 36 34 2d 68 65 78 2d|        f64-hex-|                b: "f64-hex-sep5" 0x148-0x154 (12)
0x150|73 65 70 35                                    |sep5            |
     |                                               |                |              d{}: 0x154-0x156 (2)
0x150|            00                                 |    .           |                tag: "funcidx" (0x0) 0x154-0x155 (1)
0x150|               13                              |     .          |                x: 19 (valid) 0x155-0x156 (1)
     |                                               |                |    [3]{}: section 0x156-0x2fe (424)
0x150|                  0a                           |      .         |      id: "code_section" (10) 0x156-0x157 (1)
0x150|                     a5 03                     |       ..       |      size: 421 (valid) 0x157-0x159 (2)
     |                                               |                |      content{}: 0x159-0x2fe (421)
     |                                               |                |        code{}: 0x159-0x2fe (421)
0x150|                           14                  |         .      |          n: 20 (valid) 0x159-0x15a (1)
     |                                               |                |          x[0:20]: 0x15a-0x2fe (420)
     |                                               |                |            [0]{}: code 0x15a-0x16f (21)
0x150|                              14               |          .     |              size: 20 (valid) 0x15a-0x15b (1)
     |                                               |                |              code{}: 0x15b-0x16f (20)
     |                                               |                |                t{}: 0x15b-0x15c (1)
0x150|                                 00            |           .    |                  n: 0 (valid) 0x15b-0x15c (1)
     |                                               |                |                  x[0:0]: 0x15c-0x15c (0)
     |                                               |                |                e[0:2]: 0x15c-0x16f (19)
     |                                               |                |                  [0]{}: in 0x15c-0x16e (18)
0x150|                                    fd         |            .   |                    opcode: "vector" (0xfd) 0x15c-0x15d (1)
0x150|                                       0c      |             .  |                    v_opcode: "v128.const" (12) 0x15d-0x15e (1)
0x150|                                          00 24|              .$|                    bytes: raw bits 0x15e-0x16e (16)
0x160|74 49 00 24 74 49 00 24 74 49 00 24 74 49      |tI.$tI.$tI.$tI  |
     |                                               |                |                  [1]{}: in 0x16e-0x16f (1)
0x160|                                          0b   |              . |                    opcode: "end" (0xb) 0x16e-0x16f (1)
     |                                               |                |            [1]{}: code 0x16f-0x184 (21)
0x160|                                             14|               .|              size: 20 (valid) 0x16f-0x170 (1)
     |                                               |                |              code{}: 0x170-0x184 (20)
     |                                               |                |                t{}: 0x170-0x171 (1)
0x170|00                                             |.               |                  n: 0 (valid) 0x170-0x171 (1)
     |                                               |                |                  x[0:0]: 0x171-0x171 (0)
     |                                               |                |                e[0:2]: 0x171-0x184 (19)
     |                                               |                |                  [0]{}: in 0x171-0x183 (18)
0x170|   fd                                          | .              |                    opcode: "vector" (0xfd) 0x171-0x172 (1)
0x170|      0c                                       |  .             |                    v_opcode: "v128.const" (12) 0x172-0x173 (1)
0x170|         00 00 7a 44 00 00 7a 44 00 00 7a 44 00|   ..zD..zD..zD.|                    bytes: raw bits 0x173-0x183 (16)
0x180|00 7a 44                                       |.zD             |
     |                                               |                |                  [1]{}: in 0x183-0x184 (1)
0x180|         0b                                    |   .            |                    opcode: "end" (0xb) 0x183-0x184 (1)
     |                                               |                |            [2]{}: code 0x184-0x199 (21)
0x180|            14                                 |    .           |              size: 20 (valid) 0x184-0x185 (1)
     |                                               |                |              code{}: 0x185-0x199 (20)
     |                                               |                |                t{}: 0x185-0x186 (1)
0x180|               00                              |     .          |                  n: 0 (valid) 0x185-0x186 (1)
     |                                               |                |                  x[0:0]: 0x186-0x186 (0)
     |                                               |                |                e[0:2]: 0x186-0x199 (19)
     |                                               |                |                  [0]{}: in 0x186-0x198 (18)
0x180|                  fd                           |      .         |                    opcode: "vector" (0xfd) 0x186-0x187 (1)
0x180|                     0c                        |       .        |                    v_opcode: "v128.const" (12) 0x187-0x188 (1)
0x180|                        10 c9 7a 44 10 c9 7a 44|        ..zD..zD|                    bytes: raw bits 0x188-0x198 (16)
0x190|10 c9 7a 44 10 c9 7a 44                        |..zD..zD        |
     |                                               |                |                  [1]{}: in 0x198-0x199 (1)
0x190|                        0b                     |        .       |                    opcode: "end" (0xb) 0x198-0x199 (1)
     |                                               |                |            [3]{}: code 0x199-0x1ae (21)
0x190|                           14                  |         .      |              size: 20 (valid) 0x199-0x19a (1)
     |                                               |                |              code{}: 0x19a-0x1ae (20)
     |                                               |                |                t{}: 0x19a-0x19b (1)
0x190|                              00               |          .     |                  n: 0 (valid) 0x19a-0x19b (1)
     |                                               |                |                  x[0:0]: 0x19b-0x19b (0)
     |                                               |                |                e[0:2]: 0x19b-0x1ae (19)
     |                                               |                |                  [0]{}: in 0x19b-0x1ad (18)
0x190|                                 fd            |           .    |                    opcode: "vector" (0xfd) 0x19b-0x19c (1)
0x190|                                    0c         |            .   |                    v_opcode: "v128.const" (12) 0x19c-0x19d (1)
0x190|                                       96 19 61|             ..a|                    bytes: raw bits 0x19d-0x1ad (16)
0x1a0|58 96 19 61 58 96 19 61 58 96 19 61 58         |X..aX..aX..aX   |
     |                                               |                |                  [1]{}: in 0x1ad-0x1ae (1)
0x1a0|                                       0b      |             .  |                    opcode: "end" (0xb) 0x1ad-0x1ae (1)
     |                                               |                |            [4]{}: code 0x1ae-0x1c3 (21)
0x1a0|                                          14   |              . |              size: 20 (valid) 0x1ae-0x1af (1)
     |                                               |                |              code{}: 0x1af-0x1c3 (20)
     |                                               |                |                t{}: 0x1af-0x1b0 (1)
0x1a0|                                             00|               .|                  n: 0 (valid) 0x1af-0x1b0 (1)
     |                                               |                |                  x[0:0]: 0x1b0-0x1b0 (0)
     |                                               |                |                e[0:2]: 0x1b0-0x1c3 (19)
     |                                               |                |                  [0]{}: in 0x1b0-0x1c2 (18)
0x1b0|fd                                             |.               |                    opcode: "vector" (0xfd) 0x1b0-0x1b1 (1)
0x1b0|   0c                                          | .              |                    v_opcode: "v128.const" (12) 0x1b1-0x1b2 (1)
0x1b0|      74 ae 1d 6e 74 ae 1d 6e 74 ae 1d 6e 74 ae|  t..nt..nt..nt.|                    bytes: raw bits 0x1b2-0x1c2 (16)
0x1c0|1d 6e                                          |.n              |
     |                                               |                |                  [1]{}: in 0x1c2-0x1c3 (1)
0x1c0|      0b                                       |  .             |                    opcode: "end" (0xb) 0x1c2-0x1c3 (1)
     |                                               |                |            [5]{}: code 0x1c3-0x1d8 (21)
0x1c0|         14                                    |   .            |              size: 20 (valid) 0x1c3-0x1c4 (1)
     |                                               |                |              code{}: 0x1c4-0x1d8 (20)
     |                                               |                |                t{}: 0x1c4-0x1c5 (1)
0x1c0|            00                                 |    .           |                  n: 0 (valid) 0x1c4-0x1c5 (1)
     |                                               |                |                  x[0:0]: 0x1c5-0x1c5 (0)
     |                                               |                |                e[0:2]: 0x1c5-0x1d8 (19)
     |                                               |                |                  [0]{}: in 0x1c5-0x1d7 (18)
0x1c0|               fd                              |     .          |                    opcode: "vector" (0xfd) 0x1c5-0x1c6 (1)
0x1c0|                  0c                           |      .         |                    v_opcode: "v128.const" (12) 0x1c6-0x1c7 (1)
0x1c0|                     0a f0 20 4d 0a f0 20 4d 0a|       .. M.. M.|                    bytes: raw bits 0x1c7-0x1d7 (16)
0x1d0|f0 20 4d 0a f0 20 4d                           |. M.. M         |
     |                                               |                |                  [1]{}: in 0x1d7-0x1d8 (1)
0x1d0|                     0b                        |       .        |                    opcode: "end" (0xb) 0x1d7-0x1d8 (1)
     |                                               |                |            [6]{}: code 0x1d8-0x1ed (21)
0x1d0|                        14                     |        .       |              size: 20 (valid) 0x1d8-0x1d9 (1)
     |                                               |                |              code{}: 0x1d9-0x1ed (20)
     |                                               |                |                t{}: 0x1d9-0x1da (1)
0x1d0|                           00                  |         .      |                  n: 0 (valid) 0x1d9-0x1da (1)
     |                                               |                |                  x[0:0]: 0x1da-0x1da (0)
     |                                               |                |                e[0:2]: 0x1da-0x1ed (19)
     |                                               |                |                  [0]{}: in 0x1da-0x1ec (18)
0x1d0|                              fd               |          .     |                    opcode: "vector" (0xfd) 0x1da-0x1db (1)
0x1d0|                                 0c            |           .    |                    v_opcode: "v128.const" (12) 0x1db-0x1dc (1)
0x1d0|                                    80 07 d5 47|            ...G|                    bytes: raw bits 0x1dc-0x1ec (16)
0x1e0|80 07 d5 47 80 07 d5 47 80 07 d5 47            |...G...G...G    |
     |                                               |                |                  [1]{}: in 0x1ec-0x1ed (1)
0x1e0|                                    0b         |            .   |                    opcode: "end" (0xb) 0x1ec-0x1ed (1)
     |                                               |                |            [7]{}: code 0x1ed-0x202 (21)
0x1e0|                                       14      |             .  |              size: 20 (valid) 0x1ed-0x1ee (1)
     |                                               |                |              code{}: 0x1ee-0x202 (20)
     |                                               |                |                t{}: 0x1ee-0x1ef (1)
0x1e0|                                          00   |              . |                  n: 0 (valid) 0x1ee-0x1ef (1)
     |                                               |                |                  x[0:0]: 0x1ef-0x1ef (0)
     |                                               |                |                e[0:2]: 0x1ef-0x202 (19)
     |                                               |                |                  [0]{}: in 0x1ef-0x201 (18)
0x1e0|                                             fd|               .|                    opcode: "vector" (0xfd) 0x1ef-0x1f0 (1)
0x1f0|0c                                             |.               |                    v_opcode: "v128.const" (12) 0x1f0-0x1f1 (1)
0x1f0|   f1 ff 20 47 f1 ff 20 47 f1 ff 20 47 f1 ff 20| .. G.. G.. G.. |                    bytes: raw bits 0x1f1-0x201 (16)
0x200|47                                             |G               |
     |                                               |                |                  [1]{}: in 0x201-0x202 (1)
0x200|   0b                                          | .              |                    opcode: "end" (0xb) 0x201-0x202 (1)
     |                                               |                |            [8]{}: code 0x202-0x217 (21)
0x200|      14                                       |  .             |              size: 20 (valid) 0x202-0x203 (1)
     |                                               |                |              code{}: 0x203-0x217 (20)
     |                                               |                |                t{}: 0x203-0x204 (1)
0x200|         00                                    |   .            |                  n: 0 (valid) 0x203-0x204 (1)
     |                                               |                |                  x[0:0]: 0x204-0x204 (0)
     |                                               |                |                e[0:2]: 0x204-0x217 (19)
     |                                               |                |                  [0]{}: in 0x204-0x216 (18)
0x200|            fd                                 |    .           |                    opcode: "vector" (0xfd) 0x204-0x205 (1)
0x200|               0c                              |     .          |                    v_opcode: "v128.const" (12) 0x205-0x206 (1)
0x200|                  00 00 f0 49 00 00 f0 49 00 00|      ...I...I..|                    bytes: raw bits 0x206-0x216 (16)
0x210|f0 49 00 00 f0 49                              |.I...I          |
     |                                               |                |                  [1]{}: in 0x216-0x217 (1)
0x210|                  0b                           |      .         |                    opcode: "end" (0xb) 0x216-0x217 (1)
     |                                               |                |            [9]{}: code 0x217-0x22c (21)
0x210|                     14                        |       .        |              size: 20 (valid) 0x217-0x218 (1)
     |                                               |                |              code{}: 0x218-0x22c (20)
     |                                               |                |                t{}: 0x218-0x219 (1)
0x210|                        00                     |        .       |                  n: 0 (valid) 0x218-0x219 (1)
     |                                               |                |                  x[0:0]: 0x219-0x219 (0)
     |                                               |                |                e[0:2]: 0x219-0x22c (19)
     |                                               |                |                  [0]{}: in 0x219-0x22b (18)
0x210|                           fd                  |         .      |                    opcode: "vector" (0xfd) 0x219-0x21a (1)
0x210|                              0c               |          .     |                    v_opcode: "v128.const" (12) 0x21a-0x21b (1)
0x210|                                 28 c0 ab 55 28|           (..U(|                    bytes: raw bits 0x21b-0x22b (16)
0x220|c0 ab 55 28 c0 ab 55 28 c0 ab 55               |..U(..U(..U     |
     |                                               |                |                  [1]{}: in 0x22b-0x22c (1)
0x220|                                 0b            |           .    |                    opcode: "end" (0xb) 0x22b-0x22c (1)
     |                                               |                |            [10]{}: code 0x22c-0x241 (21)
0x220|                                    14         |            .   |              size: 20 (valid) 0x22c-0x22d (1)
     |                                               |                |              code{}: 0x22d-0x241 (20)
     |                                               |                |                t{}: 0x22d-0x22e (1)
0x220|                                       00      |             .  |                  n: 0 (valid) 0x22d-0x22e (1)
     |                                               |                |                  x[0:0]: 0x22e-0x22e (0)
     |                                               |                |                e[0:2]: 0x22e-0x241 (19)
     |                                               |                |                  [0]{}: in 0x22e-0x240 (18)
0x220|                                          fd   |              . |                    opcode: "vector" (0xfd) 0x22e-0x22f (1)
0x220|                                             0c|               .|                    v_opcode: "v128.const" (12) 0x22f-0x230 (1)
0x230|00 00 00 00 80 84 2e 41 00 00 00 00 80 84 2e 41|.......A.......A|                    bytes: raw bits 0x230-0x240 (16)
     |                                               |                |                  [1]{}: in 0x240-0x241 (1)
0x240|0b                                             |.               |                    opcode: "end" (0xb) 0x240-0x241 (1)
     |                                               |                |            [11]{}: code 0x241-0x256 (21)
0x240|   14                                          | .              |              size: 20 (valid) 0x241-0x242 (1)
     |                                               |                |              code{}: 0x242-0x256 (20)
     |                                               |                |                t{}: 0x242-0x243 (1)
0x240|      00                                       |  .             |                  n: 0 (valid) 0x242-0x243 (1)
     |                                               |                |                  x[0:0]: 0x243-0x243 (0)
     |                                               |                |                e[0:2]: 0x243-0x256 (19)
     |                                               |                |                  [0]{}: in 0x243-0x255 (18)
0x240|         fd                                    |   .            |                    opcode: "vector" (0xfd) 0x243-0x244 (1)
0x240|            0c                                 |    .           |                    v_opcode: "v128.const" (12) 0x244-0x245 (1)
0x240|               00 00 00 00 00 40 8f 40 00 00 00|     .....@.@...|                    bytes: raw bits 0x245-0x255 (16)
0x250|00 00 40 8f 40                                 |..@.@           |
     |                                               |                |                  [1]{}: in 0x255-0x256 (1)
0x250|               0b                              |     .          |                    opcode: "end" (0xb) 0x255-0x256 (1)
     |                                               |                |            [12]{}: code 0x256-0x26b (21)
0x250|                  14                           |      .         |              size: 20 (valid) 0x256-0x257 (1)
     |                                               |                |              code{}: 0x257-0x26b (20)
     |                                               |                |                t{}: 0x257-0x258 (1)
0x250|                     00                        |       .        |                  n: 0 (valid) 0x257-0x258 (1)
     |                                               |                |                  x[0:0]: 0x258-0x258 (0)
     |                                               |                |                e[0:2]: 0x258-0x26b (19)
     |                                               |                |                  [0]{}: in 0x258-0x26a (18)
0x250|                        fd                     |        .       |                    opcode: "vector" (0xfd) 0x258-0x259 (1)
0x250|                           0c                  |         .      |                    v_opcode: "v128.const" (12) 0x259-0x25a (1)
0x250|                              00 8b fc fa 21 59|          ....!Y|                    bytes: raw bits 0x25a-0x26a (16)
0x260|8f 40 00 8b fc fa 21 59 8f 40                  |.@....!Y.@      |
     |                                               |                |                  [1]{}: in 0x26a-0x26b (1)
0x260|                              0b               |          .     |                    opcode: "end" (0xb) 0x26a-0x26b (1)
     |                                               |                |            [13]{}: code 0x26b-0x280 (21)
0x260|                                 14            |           .    |              size: 20 (valid) 0x26b-0x26c (1)
     |                                               |                |              code{}: 0x26c-0x280 (20)
     |                                               |                |                t{}: 0x26c-0x26d (1)
0x260|                                    00         |            .   |                  n: 0 (valid) 0x26c-0x26d (1)
     |                                               |                |                  x[0:0]: 0x26d-0x26d (0)
     |                                               |                |                e[0:2]: 0x26d-0x280 (19)
     |                                               |                |                  [0]{}: in 0x26d-0x27f (18)
0x260|                                       fd      |             .  |                    opcode: "vector" (0xfd) 0x26d-0x26e (1)
0x260|                                          0c   |              . |                    v_opcode: "v128.const" (12) 0x26e-0x26f (1)
0x260|                                             00|               .|                    bytes: raw bits 0x26f-0x27f (16)
0x270|00 9f b2 32 23 0c 43 00 00 9f b2 32 23 0c 43   |...2#.C....2#.C |
     |                                               |                |                  [1]{}: in 0x27f-0x280 (1)
0x270|                                             0b|               .|                    opcode: "end" (0xb) 0x27f-0x280 (1)
     |                                               |                |            [14]{}: code 0x280-0x295 (21)
0x280|14                                             |.               |              size: 20 (valid) 0x280-0x281 (1)
     |                                               |                |              code{}: 0x281-0x295 (20)
     |                                               |                |                t{}: 0x281-0x282 (1)
0x280|   00                                          | .              |                  n: 0 (valid) 0x281-0x282 (1)
     |                                               |                |                  x[0:0]: 0x282-0x282 (0)
     |                                               |                |                e[0:2]: 0x282-0x295 (19)
     |                                               |                |                  [0]{}: in 0x282-0x294 (18)
0x280|      fd                                       |  .             |                    opcode: "vector" (0xfd) 0x282-0x283 (1)
0x280|         0c                                    |   .            |                    v_opcode: "v128.const" (12) 0x283-0x284 (1)
0x280|            9c de 5b 72 ce b5 c3 45 9c de 5b 72|    ..[r...E..[r|                    bytes: raw bits 0x284-0x294 (16)
0x290|ce b5 c3 45                                    |...E            |
     |                                               |                |                  [1]{}: in 0x294-0x295 (1)
0x290|            0b                                 |    .           |                    opcode: "end" (0xb) 0x294-0x295 (1)
     |                                               |                |            [15]{}: code 0x295-0x2aa (21)
0x290|               14                              |     .          |              size: 20 (valid) 0x295-0x296 (1)
     |                                               |                |              code{}: 0x296-0x2aa (20)
     |                                               |                |                t{}: 0x296-0x297 (1)
0x290|                  00                           |      .         |                  n: 0 (valid) 0x296-0x297 (1)
     |                                               |                |                  x[0:0]: 0x297-0x297 (0)
     |                                               |                |                e[0:2]: 0x297-0x2aa (19)
     |                                               |                |                  [0]{}: in 0x297-0x2a9 (18)
0x290|                     fd                        |       .        |                    opcode: "vector" (0xfd) 0x297-0x298 (1)
0x290|                        0c                     |        .       |                    v_opcode: "v128.const" (12) 0x298-0x299 (1)
0x290|                           00 00 00 32 01 1e a4|         ...2...|                    bytes: raw bits 0x299-0x2a9 (16)
0x2a0|41 00 00 00 32 01 1e a4 41                     |A...2...A       |
     |                                               |                |                  [1]{}: in 0x2a9-0x2aa (1)
0x2a0|                           0b                  |         .      |                    opcode: "end" (0xb) 0x2a9-0x2aa (1)
     |                                               |                |            [16]{}: code 0x2aa-0x2bf (21)
0x2a0|                              14               |          .     |              size: 20 (valid) 0x2aa-0x2ab (1)
     |                                               |                |              code{}: 0x2ab-0x2bf (20)
     |                                               |                |                t{}: 0x2ab-0x2ac (1)
0x2a0|                                 00            |           .    |                  n: 0 (valid) 0x2ab-0x2ac (1)
     |                                               |                |                  x[0:0]: 0x2ac-0x2ac (0)
     |                                               |                |                e[0:2]: 0x2ac-0x2bf (19)
     |                                               |                |                  [0]{}: in 0x2ac-0x2be (18)
0x2a0|                                    fd         |            .   |                    opcode: "vector" (0xfd) 0x2ac-0x2ad (1)
0x2a0|                                       0c      |             .  |                    v_opcode: "v128.const" (12) 0x2ad-0x2ae (1)
0x2a0|                                          00 00|              ..|                    bytes: raw bits 0x2ae-0x2be (16)
0x2b0|00 00 f0 a0 fa 40 00 00 00 00 f0 a0 fa 40      |.....@.......@  |
     |                                               |                |                  [1]{}: in 0x2be-0x2bf (1)
0x2b0|                                          0b   |              . |                    opcode: "end" (0xb) 0x2be-0x2bf (1)
     |                                               |                |            [17]{}: code 0x2bf-0x2d4 (21)
0x2b0|                                             14|               .|              size: 20 (valid) 0x2bf-0x2c0 (1)
     |                                               |                |              code{}: 0x2c0-0x2d4 (20)
     |                                               |                |                t{}: 0x2c0-0x2c1 (1)
0x2c0|00                                             |.               |                  n: 0 (valid) 0x2c0-0x2c1 (1)
     |                                               |                |                  x[0:0]: 0x2c1-0x2c1 (0)
     |                                               |                |                e[0:2]: 0x2c1-0x2d4 (19)
     |                                               |                |                  [0]{}: in 0x2c1-0x2d3 (18)
0x2c0|   fd                                          | .              |                    opcode: "vector" (0xfd) 0x2c1-0x2c2 (1)
0x2c0|      0c                                       |  .             |                    v_opcode: "v128.const" (12) 0x2c2-0x2c3 (1)
0x2c0|         40 b3 34 28 fe 1f e4 40 40 b3 34 28 fe|   @.4(...@@.4(.|                    bytes: raw bits 0x2c3-0x2d3 (16)
0x2d0|1f e4 40                                       |..@             |
     |                                               |                |                  [1]{}: in 0x2d3-0x2d4 (1)
0x2d0|         0b                                    |   .            |                    opcode: "end" (0xb) 0x2d3-0x2d4 (1)
     |                                               |                |            [18]{}: code 0x2d4-0x2e9 (21)
0x2d0|            14                                 |    .           |              size: 20 (valid) 0x2d4-0x2d5 (1)
     |                                               |                |              code{}: 0x2d5-0x2e9 (20)
     |                                               |                |                t{}: 0x2d5-0x2d6 (1)
0x2d0|               00                              |     .          |                  n: 0 (valid) 0x2d5-0x2d6 (1)
     |                                               |                |                  x[0:0]: 0x2d6-0x2d6 (0)
     |                                               |                |                e[0:2]: 0x2d6-0x2e9 (19)
     |                                               |                |                  [0]{}: in 0x2d6-0x2e8 (18)
0x2d0|                  fd                           |      .         |                    opcode: "vector" (0xfd) 0x2d6-0x2d7 (1)
0x2d0|                     0c                        |       .        |                    v_opcode: "v128.const" (12) 0x2d7-0x2d8 (1)
0x2d0|                        00 00 00 00 00 00 3e 41|        ......>A|                    bytes: raw bits 0x2d8-0x2e8 (16)
0x2e0|00 00 00 00 00 00 3e 41                        |......>A        |
     |                                               |                |                  [1]{}: in 0x2e8-0x2e9 (1)
0x2e0|                        0b                     |        .       |                    opcode: "end" (0xb) 0x2e8-0x2e9 (1)
     |                                               |                |            [19]{}: code 0x2e9-0x2fe (21)
0x2e0|                           14                  |         .      |              size: 20 (valid) 0x2e9-0x2ea (1)
     |                                               |                |              code{}: 0x2ea-0x2fe (20)
     |                                               |                |                t{}: 0x2ea-0x2eb (1)
0x2e0|                              00               |          .     |                  n: 0 (valid) 0x2ea-0x2eb (1)
     |                                               |                |                  x[0:0]: 0x2eb-0x2eb (0)
     |                                               |                |                e[0:2]: 0x2eb-0x2fe (19)
     |                                               |                |                  [0]{}: in 0x2eb-0x2fd (18)
0x2e0|                                 fd            |           .    |                    opcode: "vector" (0xfd) 0x2eb-0x2ec (1)
0x2e0|                                    0c         |            .   |                    v_opcode: "v128.const" (12) 0x2ec-0x2ed (1)
0x2e0|                                       00 70 9f|             .p.|                    bytes: raw bits 0x2ed-0x2fd (16)
0x2f0|0f 05 78 b5 42 00 70 9f 0f 05 78 b5 42         |..x.B.p...x.B   |
     |                                               |                |                  [1]{}: in 0x2fd-0x2fe (1)
0x2f0|                                       0b|     |             .| |                    opcode: "end" (0xb) 0x2fd-0x2fe (1)
