$ fq -d wasm dv simd_splat-2.wasm
     |00 01 02 03 04 05 06 07 08 09 0a 0b 0c 0d 0e 0f|0123456789abcdef|.{}: simd_splat-2.wasm (wasm) 0x0-0x7f0 (2032)
0x000|00 61 73 6d                                    |.asm            |  magic: raw bits (valid) 0x0-0x4 (4)
0x000|            01 00 00 00                        |    ....        |  version: 1 0x4-0x8 (4)
     |                                               |                |  sections[0:4]: 0x8-0x7f0 (2024)
     |                                               |                |    [0]{}: section 0x8-0x65 (93)
0x000|                        01                     |        .       |      id: "type_section" (1) 0x8-0x9 (1)
0x000|                           5b                  |         [      |      size: 91 (valid) 0x9-0xa (1)
     |                                               |                |      content{}: 0xa-0x65 (91)
     |                                               |                |        ft{}: 0xa-0x65 (91)
0x000|                              0f               |          .     |          n: 15 (valid) 0xa-0xb (1)
     |                                               |                |          x[0:15]: 0xb-0x65 (90)
     |                                               |                |            [0]{}: ft 0xb-0x10 (5)
0x000|                                 60            |           `    |              tag: 0x60 (valid) 0xb-0xc (1)
     |                                               |                |              rt1{}: 0xc-0xe (2)
0x000|                                    01         |            .   |                n: 1 (valid) 0xc-0xd (1)
     |                                               |                |                x[0:1]: 0xd-0xe (1)
0x000|                                       7f      |             .  |                  [0]: "i32" (0x7f) t 0xd-0xe (1)
     |                                               |                |              rt2{}: 0xe-0x10 (2)
0x000|                                          01   |              . |                n: 1 (valid) 0xe-0xf (1)
     |                                               |                |                x[0:1]: 0xf-0x10 (1)
0x000|                                             7f|               .|                  [0]: "i32" (0x7f) t 0xf-0x10 (1)
     |                                               |                |            [1]{}: ft 0x10-0x15 (5)
0x010|60                                             |`               |              tag: 0x60 (valid) 0x10-0x11 (1)
     |                                               |                |              rt1{}: 0x11-0x13 (2)
0x010|   01                                          | .              |                n: 1 (valid) 0x11-0x12 (1)
     |                                               |                |                x[0:1]: 0x12-0x13 (1)
0x010|      7d                                       |  }             |                  [0]: "f32" (0x7d) t 0x12-0x13 (1)
     |                                               |                |              rt2{}: 0x13-0x15 (2)
0x010|         01                                    |   .            |                n: 1 (valid) 0x13-0x14 (1)
     |                                               |                |                x[0:1]: 0x14-0x15 (1)
0x010|            7d                                 |    }           |                  [0]: "f32" (0x7d) t 0x14-0x15 (1)
     |                                               |                |            [2]{}: ft 0x15-0x1b (6)
0x010|               60                              |     `          |              tag: 0x60 (valid) 0x15-0x16 (1)
     |                                               |                |              rt1{}: 0x16-0x19 (3)
0x010|                  02                           |      .         |                n: 2 (valid) 0x16-0x17 (1)
     |                                               |                |                x[0:2]: 0x17-0x19 (2)
0x010|                     7f                        |       .        |                  [0]: "i32" (0x7f) t 0x17-0x18 (1)
0x010|                        7f                     |        .       |                  [1]: "i32" (0x7f) t 0x18-0x19 (1)
     |                                               |                |              rt2{}: 0x19-0x1b (2)
0x010|                           01                  |         .      |                n: 1 (valid) 0x19-0x1a (1)
     |                                               |                |                x[0:1]: 0x1a-0x1b (1)
0x010|                              7b               |          {     |                  [0]: "v128" (0x7b) t 0x1a-0x1b (1)
     |                                               |                |            [3]{}: ft 0x1b-0x20 (5)
0x010|                                 60            |           `    |              tag: 0x60 (valid) 0x1b-0x1c (1)
     |                                               |                |              rt1{}: 0x1c-0x1e (2)
0x010|                                    01         |            .   |                n: 1 (valid) 0x1c-0x1d (1)
     |                                               |                |                x[0:1]: 0x1d-0x1e (1)
0x010|                                       7e      |             ~  |                  [0]: "i64" (0x7e) t 0x1d-0x1e (1)
     |                                               |                |              rt2{}: 0x1e-0x20 (2)
0x010|                                          01   |              . |                n: 1 (valid) 0x1e-0x1f (1)
     |                                               |                |                x[0:1]: 0x1f-0x20 (1)
0x010|                                             7e|               ~|                  [0]: "i64" (0x7e) t 0x1f-0x20 (1)
     |                                               |                |            [4]{}: ft 0x20-0x25 (5)
0x020|60                                             |`               |              tag: 0x60 (valid) 0x20-0x21 (1)
     |                                               |                |              rt1{}: 0x21-0x23 (2)
0x020|   01                                          | .              |                n: 1 (valid) 0x21-0x22 (1)
     |                                               |                |                x[0:1]: 0x22-0x23 (1)
0x020|      7c                                       |  |             |                  [0]: "f64" (0x7c) t 0x22-0x23 (1)
     |                                               |                |              rt2{}: 0x23-0x25 (2)
0x020|         01                                    |   .            |                n: 1 (valid) 0x23-0x24 (1)
     |                                               |                |                x[0:1]: 0x24-0x25 (1)
0x020|            7c                                 |    |           |                  [0]: "f64" (0x7c) t 0x24-0x25 (1)
     |                                               |                |            [5]{}: ft 0x25-0x2c (7)
0x020|               60                              |     `          |              tag: 0x60 (valid) 0x25-0x26 (1)
     |                                               |                |              rt1{}: 0x26-0x2a (4)
0x020|                  03                           |      .         |                n: 3 (valid) 0x26-0x27 (1)
     |                                               |                |                x[0:3]: 0x27-0x2a (3)
0x020|                     7f                        |       .        |                  [0]: "i32" (0x7f) t 0x27-0x28 (1)
0x020|                        7f                     |        .       |                  [1]: "i32" (0x7f) t 0x28-0x29 (1)
0x020|                           7f                  |         .      |                  [2]: "i32" (0x7f) t 0x29-0x2a (1)
     |                                               |                |              rt2{}: 0x2a-0x2c (2)
0x020|                              01               |          .     |                n: 1 (valid) 0x2a-0x2b (1)
     |                                               |                |                x[0:1]: 0x2b-0x2c (1)
0x020|                                 7b            |           {    |                  [0]: "v128" (0x7b) t 0x2b-0x2c (1)
     |                                               |                |            [6]{}: ft 0x2c-0x34 (8)
0x020|                                    60         |            `   |              tag: 0x60 (valid) 0x2c-0x2d (1)
     |                                               |                |              rt1{}: 0x2d-0x32 (5)
0x020|                                       04      |             .  |                n: 4 (valid) 0x2d-0x2e (1)
     |                                               |                |                x[0:4]: 0x2e-0x32 (4)
0x020|                                          7f   |              . |                  [0]: "i32" (0x7f) t 0x2e-0x2f (1)
0x020|                                             7f|               .|                  [1]: "i32" (0x7f) t 0x2f-0x30 (1)
0x030|7f                                             |.               |                  [2]: "i32" (0x7f) t 0x30-0x31 (1)
0x030|   7f                                          | .              |                  [3]: "i32" (0x7f) t 0x31-0x32 (1)
     |                                               |                |              rt2{}: 0x32-0x34 (2)
0x030|      01                                       |  .             |                n: 1 (valid) 0x32-0x33 (1)
     |                                               |                |                x[0:1]: 0x33-0x34 (1)
0x030|         7b                                    |   {            |                  [0]: "v128" (0x7b) t 0x33-0x34 (1)
     |                                               |                |            [7]{}: ft 0x34-0x3c (8)
0x030|            60                                 |    `           |              tag: 0x60 (valid) 0x34-0x35 (1)
     |                                               |                |              rt1{}: 0x35-0x3a (5)
0x030|               04                              |     .          |                n: 4 (valid) 0x35-0x36 (1)
     |                                               |                |                x[0:4]: 0x36-0x3a (4)
0x030|                  7e                           |      ~         |                  [0]: "i64" (0x7e) t 0x36-0x37 (1)
0x030|                     7e                        |       ~        |                  [1]: "i64" (0x7e) t 0x37-0x38 (1)
0x030|                        7e                     |        ~       |                  [2]: "i64" (0x7e) t 0x38-0x39 (1)
0x030|                           7e                  |         ~      |                  [3]: "i64" (0x7e) t 0x39-0x3a (1)
     |                                               |                |              rt2{}: 0x3a-0x3c (2)
0x030|                              01               |          .     |                n: 1 (valid) 0x3a-0x3b (1)
     |                                               |                |                x[0:1]: 0x3b-0x3c (1)
0x030|                                 7b            |           {    |                  [0]: "v128" (0x7b) t 0x3b-0x3c (1)
     |                                               |                |            [8]{}: ft 0x3c-0x44 (8)
0x030|                                    60         |            `   |              tag: 0x60 (valid) 0x3c-0x3d (1)
     |                                               |                |              rt1{}: 0x3d-0x42 (5)
0x030|                                       04      |             .  |                n: 4 (valid) 0x3d-0x3e (1)
     |                                               |                |                x[0:4]: 0x3e-0x42 (4)
0x030|                                          7c   |              | |                  [0]: "f64" (0x7c) t 0x3e-0x3f (1)
0x030|                                             7c|               ||                  [1]: "f64" (0x7c) t 0x3f-0x40 (1)
0x040|7c                                             ||               |                  [2]: "f64" (0x7c) t 0x40-0x41 (1)
0x040|   7c                                          | |              |                  [3]: "f64" (0x7c) t 0x41-0x42 (1)
     |                                               |                |              rt2{}: 0x42-0x44 (2)
0x040|      01                                       |  .             |                n: 1 (valid) 0x42-0x43 (1)
     |                                               |                |                x[0:1]: 0x43-0x44 (1)
0x040|         7b                                    |   {            |                  [0]: "v128" (0x7b) t 0x43-0x44 (1)
     |                                               |                |            [9]{}: ft 0x44-0x49 (5)
0x040|            60                                 |    `           |              tag: 0x60 (valid) 0x44-0x45 (1)
     |                                               |                |              rt1{}: 0x45-0x47 (2)
0x040|               01                              |     .          |                n: 1 (valid) 0x45-0x46 (1)
     |                                               |                |                x[0:1]: 0x46-0x47 (1)
0x040|                  7e                           |      ~         |                  [0]: "i64" (0x7e) t 0x46-0x47 (1)
     |                                               |                |              rt2{}: 0x47-0x49 (2)
0x040|                     01                        |       .        |                n: 1 (valid) 0x47-0x48 (1)
     |                                               |                |                x[0:1]: 0x48-0x49 (1)
0x040|                        7f                     |        .       |                  [0]: "i32" (0x7f) t 0x48-0x49 (1)
     |                                               |                |            [10]{}: ft 0x49-0x4f (6)
0x040|                           60                  |         `      |              tag: 0x60 (valid) 0x49-0x4a (1)
     |                                               |                |              rt1{}: 0x4a-0x4d (3)
0x040|                              02               |          .     |                n: 2 (valid) 0x4a-0x4b (1)
     |                                               |                |                x[0:2]: 0x4b-0x4d (2)
0x040|                                 7e            |           ~    |                  [0]: "i64" (0x7e) t 0x4b-0x4c (1)
0x040|                                    7e         |            ~   |                  [1]: "i64" (0x7e) t 0x4c-0x4d (1)
     |                                               |                |              rt2{}: 0x4d-0x4f (2)
0x040|                                       01      |             .  |                n: 1 (valid) 0x4d-0x4e (1)
     |                                               |                |                x[0:1]: 0x4e-0x4f (1)
0x040|                                          7b   |              { |                  [0]: "v128" (0x7b) t 0x4e-0x4f (1)
     |                                               |                |            [11]{}: ft 0x4f-0x55 (6)
0x040|                                             60|               `|              tag: 0x60 (valid) 0x4f-0x50 (1)
     |                                               |                |              rt1{}: 0x50-0x53 (3)
0x050|02                                             |.               |                n: 2 (valid) 0x50-0x51 (1)
     |                                               |                |                x[0:2]: 0x51-0x53 (2)
0x050|   7d                                          | }              |                  [0]: "f32" (0x7d) t 0x51-0x52 (1)
0x050|      7d                                       |  }             |                  [1]: "f32" (0x7d) t 0x52-0x53 (1)
     |                                               |                |              rt2{}: 0x53-0x55 (2)
0x050|         01                                    |   .            |                n: 1 (valid) 0x53-0x54 (1)
     |                                               |                |                x[0:1]: 0x54-0x55 (1)
0x050|            7b                                 |    {           |                  [0]: "v128" (0x7b) t 0x54-0x55 (1)
     |                                               |                |            [12]{}: ft 0x55-0x5b (6)
0x050|               60                              |     `          |              tag: 0x60 (valid) 0x55-0x56 (1)
     |                                               |                |              rt1{}: 0x56-0x59 (3)
0x050|                  02                           |      .         |                n: 2 (valid) 0x56-0x57 (1)
     |                                               |                |                x[0:2]: 0x57-0x59 (2)
0x050|                     7c                        |       |        |                  [0]: "f64" (0x7c) t 0x57-0x58 (1)
0x050|                        7c                     |        |       |                  [1]: "f64" (0x7c) t 0x58-0x59 (1)
     |                                               |                |              rt2{}: 0x59-0x5b (2)
0x050|                           01                  |         .      |                n: 1 (valid) 0x59-0x5a (1)
     |                                               |                |                x[0:1]: 0x5a-0x5b (1)
0x050|                              7b               |          {     |                  [0]: "v128" (0x7b) t 0x5a-0x5b (1)
     |                                               |                |            [13]{}: ft 0x5b-0x60 (5)
0x050|                                 60            |           `    |              tag: 0x60 (valid) 0x5b-0x5c (1)
     |                                               |                |              rt1{}: 0x5c-0x5e (2)
0x050|                                    01         |            .   |                n: 1 (valid) 0x5c-0x5d (1)
     |                                               |                |                x[0:1]: 0x5d-0x5e (1)
0x050|                                       7d      |             }  |                  [0]: "f32" (0x7d) t 0x5d-0x5e (1)
     |                                               |                |              rt2{}: 0x5e-0x60 (2)
0x050|                                          01   |              . |                n: 1 (valid) 0x5e-0x5f (1)
     |                                               |                |                x[0:1]: 0x5f-0x60 (1)
0x050|                                             7b|               {|                  [0]: "v128" (0x7b) t 0x5f-0x60 (1)
     |                                               |                |            [14]{}: ft 0x60-0x65 (5)
0x060|60                                             |`               |              tag: 0x60 (valid) 0x60-0x61 (1)
     |                                               |                |              rt1{}: 0x61-0x63 (2)
0x060|   01                                          | .              |                n: 1 (valid) 0x61-0x62 (1)
     |                                               |                |                x[0:1]: 0x62-0x63 (1)
0x060|      7f                                       |  .             |                  [0]: "i32" (0x7f) t 0x62-0x63 (1)
     |                                               |                |              rt2{}: 0x63-0x65 (2)
0x060|         01                                    |   .            |                n: 1 (valid) 0x63-0x64 (1)
     |                                               |                |                x[0:1]: 0x64-0x65 (1)
0x060|            7b                                 |    {           |                  [0]: "v128" (0x7b) t 0x64-0x65 (1)
     |                                               |                |    [1]{}: section 0x65-0x93 (46)
0x060|               03                              |     .          |      id: "function_section" (3) 0x65-0x66 (1)
0x060|                  2c                           |      ,         |      size: 44 (valid) 0x66-0x67 (1)
     |                                               |                |      content{}: 0x67-0x93 (44)
     |                                               |                |        x{}: 0x67-0x93 (44)
0x060|                     2b                        |       +        |          n: 43 (valid) 0x67-0x68 (1)
     |                                               |                |          x[0:43]: 0x68-0x93 (43)
0x060|                        00                     |        .       |            [0]: 0 x (valid) 0x68-0x69 (1)
0x060|                           00                  |         .      |            [1]: 0 x (valid) 0x69-0x6a (1)
0x060|                              00               |          .     |            [2]: 0 x (valid) 0x6a-0x6b (1)
0x060|                                 00            |           .    |            [3]: 0 x (valid) 0x6b-0x6c (1)
0x060|                                    00         |            .   |            [4]: 0 x (valid) 0x6c-0x6d (1)
0x060|                                       00      |             .  |            [5]: 0 x (valid) 0x6d-0x6e (1)
0x060|                                          01   |              . |            [6]: 1 x (valid) 0x6e-0x6f (1)
0x060|                                             01|               .|            [7]: 1 x (valid) 0x6f-0x70 (1)
0x070|02                                             |.               |            [8]: 2 x (valid) 0x70-0x71 (1)
0x070|   03                                          | .              |            [9]: 3 x (valid) 0x71-0x72 (1)
0x070|      03                                       |  .             |            [10]: 3 x (valid) 0x72-0x73 (1)
0x070|         04                                    |   .            |            [11]: 4 x (valid) 0x73-0x74 (1)
0x070|            04                                 |    .           |            [12]: 4 x (valid) 0x74-0x75 (1)
0x070|               05                              |     .          |            [13]: 5 x (valid) 0x75-0x76 (1)
0x070|                  06                           |      .         |            [14]: 6 x (valid) 0x76-0x77 (1)
0x070|                     06                        |       .        |            [15]: 6 x (valid) 0x77-0x78 (1)
0x070|                        07                     |        .       |            [16]: 7 x (valid) 0x78-0x79 (1)
0x070|                           08                  |         .      |            [17]: 8 x (valid) 0x79-0x7a (1)
0x070|                              02               |          .     |            [18]: 2 x (valid) 0x7a-0x7b (1)
0x070|                                 02            |           .    |            [19]: 2 x (valid) 0x7b-0x7c (1)
0x070|                                    02         |            .   |            [20]: 2 x (valid) 0x7c-0x7d (1)
0x070|                                       02      |             .  |            [21]: 2 x (valid) 0x7d-0x7e (1)
0x070|                                          02   |              . |            [22]: 2 x (valid) 0x7e-0x7f (1)
0x070|                                             02|               .|            [23]: 2 x (valid) 0x7f-0x80 (1)
0x080|02                                             |.               |            [24]: 2 x (valid) 0x80-0x81 (1)
0x080|   02                                          | .              |            [25]: 2 x (valid) 0x81-0x82 (1)
0x080|      02                                       |  .             |            [26]: 2 x (valid) 0x82-0x83 (1)
0x080|         02                                    |   .            |            [27]: 2 x (valid) 0x83-0x84 (1)
0x080|            00                                 |    .           |            [28]: 0 x (valid) 0x84-0x85 (1)
0x080|               00                              |     .          |            [29]: 0 x (valid) 0x85-0x86 (1)
0x080|                  00                           |      .         |            [30]: 0 x (valid) 0x86-0x87 (1)
0x080|                     09                        |       .        |            [31]: 9 x (valid) 0x87-0x88 (1)
0x080|                        02                     |        .       |            [32]: 2 x (valid) 0x88-0x89 (1)
0x080|                           02                  |         .      |            [33]: 2 x (valid) 0x89-0x8a (1)
0x080|                              02               |          .     |            [34]: 2 x (valid) 0x8a-0x8b (1)
0x080|                                 0a            |           .    |            [35]: 10 x (valid) 0x8b-0x8c (1)
0x080|                                    0b         |            .   |            [36]: 11 x (valid) 0x8c-0x8d (1)
0x080|                                       0c      |             .  |            [37]: 12 x (valid) 0x8d-0x8e (1)
0x080|                                          0d   |              . |            [38]: 13 x (valid) 0x8e-0x8f (1)
0x080|                                             0b|               .|            [39]: 11 x (valid) 0x8f-0x90 (1)
0x090|0b                                             |.               |            [40]: 11 x (valid) 0x90-0x91 (1)
0x090|   0e                                          | .              |            [41]: 14 x (valid) 0x91-0x92 (1)
0x090|      0d                                       |  .             |            [42]: 13 x (valid) 0x92-0x93 (1)
     |                                               |                |    [2]{}: section 0x93-0x5b5 (1314)
0x090|         07                                    |   .            |      id: "export_section" (7) 0x93-0x94 (1)
0x090|            9f 0a                              |    ..          |      size: 1311 (valid) 0x94-0x96 (2)
     |                                               |                |      content{}: 0x96-0x5b5 (1311)
     |                                               |                |        ex{}: 0x96-0x5b5 (1311)
0x090|                  2b                           |      +         |          n: 43 (valid) 0x96-0x97 (1)
     |                                               |                |          x[0:43]: 0x97-0x5b5 (1310)
     |                                               |                |            [0]{}: ex 0x97-0xbf (40)
     |                                               |                |              nm{}: 0x97-0xbd (38)
0x090|                     25                        |       %        |                n: 37 (valid) 0x97-0x98 (1)
0x090|                        61 73 2d 69 38 78 31 36|        as-i8x16|                b: "as-i8x16_extract_lane_s-operand-first" 0x98-0xbd (37)
0x0a0|5f 65 78 74 72 61 63 74 5f 6c 61 6e 65 5f 73 2d|_extract_lane_s-|
0x0b0|6f 70 65 72 61 6e 64 2d 66 69 72 73 74         |operand-first   |
     |                                               |                |              d{}: 0xbd-0xbf (2)
0x0b0|                                       00      |             .  |                tag: "funcidx" (0x0) 0xbd-0xbe (1)
0x0b0|                                          00   |              . |                x: 0 (valid) 0xbe-0xbf (1)
     |                                               |                |            [1]{}: ex 0xbf-0xe6 (39)
     |                                               |                |              nm{}: 0xbf-0xe4 (37)
0x0b0|                                             24|               $|                n: 36 (valid) 0xbf-0xc0 (1)
0x0c0|61 73 2d 69 38 78 31 36 5f 65 78 74 72 61 63 74|as-i8x16_extract|                b: "as-i8x16_extract_lane_s-operand-last" 0xc0-0xe4 (36)
*    |until 0xe3.7 (36)                              |                |
     |                                               |                |              d{}: 0xe4-0xe6 (2)
0x0e0|            00                                 |    .           |                tag: "funcidx" (0x0) 0xe4-0xe5 (1)
0x0e0|               01                              |     .          |                x: 1 (valid) 0xe5-0xe6 (1)
     |                                               |                |            [2]{}: ex 0xe6-0x10e (40)
     |                                               |                |              nm{}: 0xe6-0x10c (38)
0x0e0|                  25                           |      %         |                n: 37 (valid) 0xe6-0xe7 (1)
0x0e0|                     61 73 2d 69 31 36 78 38 5f|       as-i16x8_|                b: "as-i16x8_extract_lane_s-operand-first" 0xe7-0x10c (37)
0x0f0|65 78 74 72 61 63 74 5f 6c 61 6e 65 5f 73 2d 6f|extract_lane_s-o|
0x100|70 65 72 61 6e 64 2d 66 69 72 73 74            |perand-first    |
     |                                               |                |              d{}: 0x10c-0x10e (2)
0x100|                                    00         |            .   |                tag: "funcidx" (0x0) 0x10c-0x10d (1)
0x100|                                       02      |             .  |                x: 2 (valid) 0x10d-0x10e (1)
     |                                               |                |            [3]{}: ex 0x10e-0x135 (39)
     |                                               |                |              nm{}: 0x10e-0x133 (37)
0x100|                                          24   |              $ |                n: 36 (valid) 0x10e-0x10f (1)
0x100|                                             61|               a|                b: "as-i16x8_extract_lane_s-operand-last" 0x10f-0x133 (36)
0x110|73 2d 69 31 36 78 38 5f 65 78 74 72 61 63 74 5f|s-i16x8_extract_|
*    |until 0x132.7 (36)                             |                |
     |                                               |                |              d{}: 0x133-0x135 (2)
0x130|         00                                    |   .            |                tag: "funcidx" (0x0) 0x133-0x134 (1)
0x130|            03                                 |    .           |                x: 3 (valid) 0x134-0x135 (1)
     |                                               |                |            [4]{}: ex 0x135-0x15d (40)
     |                                               |                |              nm{}: 0x135-0x15b (38)
0x130|               25                              |     %          |                n: 37 (valid) 0x135-0x136 (1)
0x130|                  61 73 2d 69 33 32 78 34 5f 65|      as-i32x4_e|                b: "as-i32x4_extract_lane_s-operand-first" 0x136-0x15b (37)
0x140|78 74 72 61 63 74 5f 6c 61 6e 65 5f 73 2d 6f 70|xtract_lane_s-op|
0x150|65 72 61 6e 64 2d 66 69 72 73 74               |erand-first     |
     |                                               |                |              d{}: 0x15b-0x15d (2)
0x150|                                 00            |           .    |                tag: "funcidx" (0x0) 0x15b-0x15c (1)
0x150|                                    04         |            .   |                x: 4 (valid) 0x15c-0x15d (1)
     |                                               |                |            [5]{}: ex 0x15d-0x184 (39)
     |                                               |                |              nm{}: 0x15d-0x182 (37)
0x150|                                       24      |             $  |                n: 36 (valid) 0x15d-0x15e (1)
0x150|                                          61 73|              as|                b: "as-i32x4_extract_lane_s-operand-last" 0x15e-0x182 (36)
0x160|2d 69 33 32 78 34 5f 65 78 74 72 61 63 74 5f 6c|-i32x4_extract_l|
*    |until 0x181.7 (36)                             |                |
     |                                               |                |              d{}: 0x182-0x184 (2)
0x180|      00                                       |  .             |                tag: "funcidx" (0x0) 0x182-0x183 (1)
0x180|         05                                    |   .            |                x: 5 (valid) 0x183-0x184 (1)
     |                                               |                |            [6]{}: ex 0x184-0x1ac (40)
     |                                               |                |              nm{}: 0x184-0x1aa (38)
0x180|            25                                 |    %           |                n: 37 (valid) 0x184-0x185 (1)
0x180|               61 73 2d 66 33 32 78 34 5f 65 78|     as-f32x4_ex|                b: "as-f32x4_extract_lane_s-operand-first" 0x185-0x1aa (37)
0x190|74 72 61 63 74 5f 6c 61 6e 65 5f 73 2d 6f 70 65|tract_lane_s-ope|
0x1a0|72 61 6e 64 2d 66 69 72 73 74                  |rand-first      |
     |                                               |                |              d{}: 0x1aa-0x1ac (2)
0x1a0|                              00               |          .     |                tag: "funcidx" (0x0) 0x1aa-0x1ab (1)
0x1a0|                                 06            |           .    |                x: 6 (valid) 0x1ab-0x1ac (1)
     |                                               |                |            [7]{}: ex 0x1ac-0x1d3 (39)
     |                                               |                |              nm{}: 0x1ac-0x1d1 (37)
0x1a0|                                    24         |            $   |                n: 36 (valid) 0x1ac-0x1ad (1)
0x1a0|                                       61 73 2d|             as-|                b: "as-f32x4_extract_lane_s-operand-last" 0x1ad-0x1d1 (36)
0x1b0|66 33 32 78 34 5f 65 78 74 72 61 63 74 5f 6c 61|f32x4_extract_la|
*    |until 0x1d0.7 (36)                             |                |
     |                                               |                |              d{}: 0x1d1-0x1d3 (2)
0x1d0|   00                                          | .              |                tag: "funcidx" (0x0) 0x1d1-0x1d2 (1)
0x1d0|      07                                       |  .             |                x: 7 (valid) 0x1d2-0x1d3 (1)
     |                                               |                |            [8]{}: ex 0x1d3-0x1ef (28)
     |                                               |                |              nm{}: 0x1d3-0x1ed (26)
0x1d0|         19                                    |   .            |                n: 25 (valid) 0x1d3-0x1d4 (1)
0x1d0|            61 73 2d 76 38 78 31 36 5f 73 77 69|    as-v8x16_swi|                b: "as-v8x16_swizzle-operands" 0x1d4-0x1ed (25)
0x1e0|7a 7a 6c 65 2d 6f 70 65 72 61 6e 64 73         |zzle-operands   |
     |                                               |                |              d{}: 0x1ed-0x1ef (2)
0x1e0|                                       00      |             .  |                tag: "funcidx" (0x0) 0x1ed-0x1ee (1)
0x1e0|                                          08   |              . |                x: 8 (valid) 0x1ee-0x1ef (1)
     |                                               |                |            [9]{}: ex 0x1ef-0x215 (38)
     |                                               |                |              nm{}: 0x1ef-0x213 (36)
0x1e0|                                             23|               #|                n: 35 (valid) 0x1ef-0x1f0 (1)
0x1f0|61 73 2d 69 36 34 78 32 5f 65 78 74 72 61 63 74|as-i64x2_extract|                b: "as-i64x2_extract_lane-operand-first" 0x1f0-0x213 (35)
*    |until 0x212.7 (35)                             |                |
     |                                               |                |              d{}: 0x213-0x215 (2)
0x210|         00                                    |   .            |                tag: "funcidx" (0x0) 0x213-0x214 (1)
0x210|            09                                 |    .           |                x: 9 (valid) 0x214-0x215 (1)
     |                                               |                |            [10]{}: ex 0x215-0x23a (37)
     |                                               |                |              nm{}: 0x215-0x238 (35)
0x210|               22                              |     "          |                n: 34 (valid) 0x215-0x216 (1)
0x210|                  61 73 2d 69 36 34 78 32 5f 65|      as-i64x2_e|                b: "as-i64x2_extract_lane-operand-last" 0x216-0x238 (34)
0x220|78 74 72 61 63 74 5f 6c 61 6e 65 2d 6f 70 65 72|xtract_lane-oper|
0x230|61 6e 64 2d 6c 61 73 74                        |and-last        |
     |                                               |                |              d{}: 0x238-0x23a (2)
0x230|                        00                     |        .       |                tag: "funcidx" (0x0) 0x238-0x239 (1)
0x230|                           0a                  |         .      |                x: 10 (valid) 0x239-0x23a (1)
     |                                               |                |            [11]{}: ex 0x23a-0x260 (38)
     |                                               |                |              nm{}: 0x23a-0x25e (36)
0x230|                              23               |          #     |                n: 35 (valid) 0x23a-0x23b (1)
0x230|                                 61 73 2d 66 36|           as-f6|                b: "as-f64x2_extract_lane-operand-first" 0x23b-0x25e (35)
0x240|34 78 32 5f 65 78 74 72 61 63 74 5f 6c 61 6e 65|4x2_extract_lane|
0x250|2d 6f 70 65 72 61 6e 64 2d 66 69 72 73 74      |-operand-first  |
     |                                               |                |              d{}: 0x25e-0x260 (2)
0x250|                                          00   |              . |                tag: "funcidx" (0x0) 0x25e-0x25f (1)
0x250|                                             0b|               .|                x: 11 (valid) 0x25f-0x260 (1)
     |                                               |                |            [12]{}: ex 0x260-0x285 (37)
     |                                               |                |              nm{}: 0x260-0x283 (35)
0x260|22                                             |"               |                n: 34 (valid) 0x260-0x261 (1)
0x260|   61 73 2d 66 36 34 78 32 5f 65 78 74 72 61 63| as-f64x2_extrac|                b: "as-f64x2_extract_lane-operand-last" 0x261-0x283 (34)
0x270|74 5f 6c 61 6e 65 2d 6f 70 65 72 61 6e 64 2d 6c|t_lane-operand-l|
0x280|61 73 74                                       |ast             |
     |                                               |                |              d{}: 0x283-0x285 (2)
0x280|         00                                    |   .            |                tag: "funcidx" (0x0) 0x283-0x284 (1)
0x280|            0c                                 |    .           |                x: 12 (valid) 0x284-0x285 (1)
     |                                               |                |            [13]{}: ex 0x285-0x2a1 (28)
     |                                               |                |              nm{}: 0x285-0x29f (26)
0x280|               19                              |     .          |                n: 25 (valid) 0x285-0x286 (1)
0x280|                  61 73 2d 69 38 78 31 36 5f 61|      as-i8x16_a|                b: "as-i8x16_add_sub-operands" 0x286-0x29f (25)
0x290|64 64 5f 73 75 62 2d 6f 70 65 72 61 6e 64 73   |dd_sub-operands |
     |                                               |                |              d{}: 0x29f-0x2a1 (2)
0x290|                                             00|               .|                tag: "funcidx" (0x0) 0x29f-0x2a0 (1)
0x2a0|0d                                             |.               |                x: 13 (valid) 0x2a0-0x2a1 (1)
     |                                               |                |            [14]{}: ex 0x2a1-0x2c1 (32)
     |                                               |                |              nm{}: 0x2a1-0x2bf (30)
0x2a0|   1d                                          | .              |                n: 29 (valid) 0x2a1-0x2a2 (1)
0x2a0|      61 73 2d 69 31 36 78 38 5f 61 64 64 5f 73|  as-i16x8_add_s|                b: "as-i16x8_add_sub_mul-operands" 0x2a2-0x2bf (29)
0x2b0|75 62 5f 6d 75 6c 2d 6f 70 65 72 61 6e 64 73   |ub_mul-operands |
     |                                               |                |              d{}: 0x2bf-0x2c1 (2)
0x2b0|                                             00|               .|                tag: "funcidx" (0x0) 0x2bf-0x2c0 (1)
0x2c0|0e                                             |.               |                x: 14 (valid) 0x2c0-0x2c1 (1)
     |                                               |                |            [15]{}: ex 0x2c1-0x2e1 (32)
     |                                               |                |              nm{}: 0x2c1-0x2df (30)
0x2c0|   1d                                          | .              |                n: 29 (valid) 0x2c1-0x2c2 (1)
0x2c0|      61 73 2d 69 33 32 78 34 5f 61 64 64 5f 73|  as-i32x4_add_s|                b: "as-i32x4_add_sub_mul-operands" 0x2c2-0x2df (29)
0x2d0|75 62 5f 6d 75 6c 2d 6f 70 65 72 61 6e 64 73   |ub_mul-operands |
     |                                               |                |              d{}: 0x2df-0x2e1 (2)
0x2d0|                                             00|               .|                tag: "funcidx" (0x0) 0x2df-0x2e0 (1)
0x2e0|0f                                             |.               |                x: 15 (valid) 0x2e0-0x2e1 (1)
     |                                               |                |            [16]{}: ex 0x2e1-0x301 (32)
     |                                               |                |              nm{}: 0x2e1-0x2ff (30)
0x2e0|   1d                                          | .              |                n: 29 (valid) 0x2e1-0x2e2 (1)
0x2e0|      61 73 2d 69 36 34 78 32 5f 61 64 64 5f 73|  as-i64x2_add_s|                b: "as-i64x2_add_sub_mul-operands" 0x2e2-0x2ff (29)
0x2f0|75 62 5f 6d 75 6c 2d 6f 70 65 72 61 6e 64 73   |ub_mul-operands |
     |                                               |                |              d{}: 0x2ff-0x301 (2)
0x2f0|                                             00|               .|                tag: "funcidx" (0x0) 0x2ff-0x300 (1)
0x300|10                                             |.               |                x: 16 (valid) 0x300-0x301 (1)
     |                                               |                |            [17]{}: ex 0x301-0x321 (32)
     |                                               |                |              nm{}: 0x301-0x31f (30)
0x300|   1d                                          | .              |                n: 29 (valid) 0x301-0x302 (1)
0x300|      61 73 2d 66 36 34 78 32 5f 61 64 64 5f 73|  as-f64x2_add_s|                b: "as-f64x2_add_sub_mul-operands" 0x302-0x31f (29)
0x310|75 62 5f 6d 75 6c 2d 6f 70 65 72 61 6e 64 73   |ub_mul-operands |
     |                                               |                |              d{}: 0x31f-0x321 (2)
0x310|                                             00|               .|                tag: "funcidx" (0x0) 0x31f-0x320 (1)
0x320|11                                             |.               |                x: 17 (valid) 0x320-0x321 (1)
     |                                               |                |            [18]{}: ex 0x321-0x33f (30)
     |                                               |                |              nm{}: 0x321-0x33d (28)
0x320|   1b                                          | .              |                n: 27 (valid) 0x321-0x322 (1)
0x320|      61 73 2d 69 38 78 31 36 5f 61 64 64 5f 73|  as-i8x16_add_s|                b: "as-i8x16_add_sat_s-operands" 0x322-0x33d (27)
0x330|61 74 5f 73 2d 6f 70 65 72 61 6e 64 73         |at_s-operands   |
     |                                               |                |              d{}: 0x33d-0x33f (2)
0x330|                                       00      |             .  |                tag: "funcidx" (0x0) 0x33d-0x33e (1)
0x330|                                          12   |              . |                x: 18 (valid) 0x33e-0x33f (1)
     |                                               |                |            [19]{}: ex 0x33f-0x35d (30)
     |                                               |                |              nm{}: 0x33f-0x35b (28)
0x330|                                             1b|               .|                n: 27 (valid) 0x33f-0x340 (1)
0x340|61 73 2d 69 31 36 78 38 5f 61 64 64 5f 73 61 74|as-i16x8_add_sat|                b: "as-i16x8_add_sat_s-operands" 0x340-0x35b (27)
0x350|5f 73 2d 6f 70 65 72 61 6e 64 73               |_s-operands     |
     |                                               |                |              d{}: 0x35b-0x35d (2)
0x350|                                 00            |           .    |                tag: "funcidx" (0x0) 0x35b-0x35c (1)
0x350|                                    13         |            .   |                x: 19 (valid) 0x35c-0x35d (1)
     |                                               |                |            [20]{}: ex 0x35d-0x37b (30)
     |                                               |                |              nm{}: 0x35d-0x379 (28)
0x350|                                       1b      |             .  |                n: 27 (valid) 0x35d-0x35e (1)
0x350|                                          61 73|              as|                b: "as-i8x16_sub_sat_u-operands" 0x35e-0x379 (27)
0x360|2d 69 38 78 31 36 5f 73 75 62 5f 73 61 74 5f 75|-i8x16_sub_sat_u|
0x370|2d 6f 70 65 72 61 6e 64 73                     |-operands       |
     |                                               |                |              d{}: 0x379-0x37b (2)
0x370|                           00                  |         .      |                tag: "funcidx" (0x0) 0x379-0x37a (1)
0x370|                              14               |          .     |                x: 20 (valid) 0x37a-0x37b (1)
     |                                               |                |            [21]{}: ex 0x37b-0x399 (30)
     |                                               |                |              nm{}: 0x37b-0x397 (28)
0x370|                                 1b            |           .    |                n: 27 (valid) 0x37b-0x37c (1)
0x370|                                    61 73 2d 69|            as-i|                b: "as-i16x8_sub_sat_u-operands" 0x37c-0x397 (27)
0x380|31 36 78 38 5f 73 75 62 5f 73 61 74 5f 75 2d 6f|16x8_sub_sat_u-o|
0x390|70 65 72 61 6e 64 73                           |perands         |
     |                                               |                |              d{}: 0x397-0x399 (2)
0x390|                     00                        |       .        |                tag: "funcidx" (0x0) 0x397-0x398 (1)
0x390|                        15                     |        .       |                x: 21 (valid) 0x398-0x399 (1)
     |                                               |                |            [22]{}: ex 0x399-0x3b2 (25)
     |                                               |                |              nm{}: 0x399-0x3b0 (23)
0x390|                           16                  |         .      |                n: 22 (valid) 0x399-0x39a (1)
0x390|                              61 73 2d 69 38 78|          as-i8x|                b: "as-i8x16_shr_s-operand" 0x39a-0x3b0 (22)
0x3a0|31 36 5f 73 68 72 5f 73 2d 6f 70 65 72 61 6e 64|16_shr_s-operand|
     |                                               |                |              d{}: 0x3b0-0x3b2 (2)
0x3b0|00                                             |.               |                tag: "funcidx" (0x0) 0x3b0-0x3b1 (1)
0x3b0|   16                                          | .              |                x: 22 (valid) 0x3b1-0x3b2 (1)
     |                                               |                |            [23]{}: ex 0x3b2-0x3cb (25)
     |                                               |                |              nm{}: 0x3b2-0x3c9 (23)
0x3b0|      16                                       |  .             |                n: 22 (valid) 0x3b2-0x3b3 (1)
0x3b0|         61 73 2d 69 31 36 78 38 5f 73 68 72 5f|   as-i16x8_shr_|                b: "as-i16x8_shr_s-operand" 0x3b3-0x3c9 (22)
0x3c0|73 2d 6f 70 65 72 61 6e 64                     |s-operand       |
     |                                               |                |              d{}: 0x3c9-0x3cb (2)
0x3c0|                           00                  |         .      |                tag: "funcidx" (0x0) 0x3c9-0x3ca (1)
0x3c0|                              17               |          .     |                x: 23 (valid) 0x3ca-0x3cb (1)
     |                                               |                |            [24]{}: ex 0x3cb-0x3e4 (25)
     |                                               |                |              nm{}: 0x3cb-0x3e2 (23)
0x3c0|                                 16            |           .    |                n: 22 (valid) 0x3cb-0x3cc (1)
0x3c0|                                    61 73 2d 69|            as-i|                b: "as-i32x4_shr_s-operand" 0x3cc-0x3e2 (22)
0x3d0|33 32 78 34 5f 73 68 72 5f 73 2d 6f 70 65 72 61|32x4_shr_s-opera|
0x3e0|6e 64                                          |nd              |
     |                                               |                |              d{}: 0x3e2-0x3e4 (2)
0x3e0|      00                                       |  .             |                tag: "funcidx" (0x0) 0x3e2-0x3e3 (1)
0x3e0|         18                                    |   .            |                x: 24 (valid) 0x3e3-0x3e4 (1)
     |                                               |                |            [25]{}: ex 0x3e4-0x3fb (23)
     |                                               |                |              nm{}: 0x3e4-0x3f9 (21)
0x3e0|            14                                 |    .           |                n: 20 (valid) 0x3e4-0x3e5 (1)
0x3e0|               61 73 2d 76 31 32 38 5f 61 6e 64|     as-v128_and|                b: "as-v128_and-operands" 0x3e5-0x3f9 (20)
0x3f0|2d 6f 70 65 72 61 6e 64 73                     |-operands       |
     |                                               |                |              d{}: 0x3f9-0x3fb (2)
0x3f0|                           00                  |         .      |                tag: "funcidx" (0x0) 0x3f9-0x3fa (1)
0x3f0|                              19               |          .     |                x: 25 (valid) 0x3fa-0x3fb (1)
     |                                               |                |            [26]{}: ex 0x3fb-0x411 (22)
     |                                               |                |              nm{}: 0x3fb-0x40f (20)
0x3f0|                                 13            |           .    |                n: 19 (valid) 0x3fb-0x3fc (1)
0x3f0|                                    61 73 2d 76|            as-v|                b: "as-v128_or-operands" 0x3fc-0x40f (19)
0x400|31 32 38 5f 6f 72 2d 6f 70 65 72 61 6e 64 73   |128_or-operands |
     |                                               |                |              d{}: 0x40f-0x411 (2)
0x400|                                             00|               .|                tag: "funcidx" (0x0) 0x40f-0x410 (1)
0x410|1a                                             |.               |                x: 26 (valid) 0x410-0x411 (1)
     |                                               |                |            [27]{}: ex 0x411-0x428 (23)
     |                                               |                |              nm{}: 0x411-0x426 (21)
0x410|   14                                          | .              |                n: 20 (valid) 0x411-0x412 (1)
0x410|      61 73 2d 76 31 32 38 5f 78 6f 72 2d 6f 70|  as-v128_xor-op|                b: "as-v128_xor-operands" 0x412-0x426 (20)
0x420|65 72 61 6e 64 73                              |erands          |
     |                                               |                |              d{}: 0x426-0x428 (2)
0x420|                  00                           |      .         |                tag: "funcidx" (0x0) 0x426-0x427 (1)
0x420|                     1b                        |       .        |                x: 27 (valid) 0x427-0x428 (1)
     |                                               |                |            [28]{}: ex 0x428-0x444 (28)
     |                                               |                |              nm{}: 0x428-0x442 (26)
0x420|                        19                     |        .       |                n: 25 (valid) 0x428-0x429 (1)
0x420|                           61 73 2d 69 38 78 31|         as-i8x1|                b: "as-i8x16_all_true-operand" 0x429-0x442 (25)
0x430|36 5f 61 6c 6c 5f 74 72 75 65 2d 6f 70 65 72 61|6_all_true-opera|
0x440|6e 64                                          |nd              |
     |                                               |                |              d{}: 0x442-0x444 (2)
0x440|      00                                       |  .             |                tag: "funcidx" (0x0) 0x442-0x443 (1)
0x440|         1c                                    |   .            |                x: 28 (valid) 0x443-0x444 (1)
     |                                               |                |            [29]{}: ex 0x444-0x460 (28)
     |                                               |                |              nm{}: 0x444-0x45e (26)
0x440|            19                                 |    .           |                n: 25 (valid) 0x444-0x445 (1)
0x440|               61 73 2d 69 31 36 78 38 5f 61 6c|     as-i16x8_al|                b: "as-i16x8_all_true-operand" 0x445-0x45e (25)
0x450|6c 5f 74 72 75 65 2d 6f 70 65 72 61 6e 64      |l_true-operand  |
     |                                               |                |              d{}: 0x45e-0x460 (2)
0x450|                                          00   |              . |                tag: "funcidx" (0x0) 0x45e-0x45f (1)
0x450|                                             1d|               .|                x: 29 (valid) 0x45f-0x460 (1)
     |                                               |                |            [30]{}: ex 0x460-0x47d (29)
     |                                               |                |              nm{}: 0x460-0x47b (27)
0x460|1a                                             |.               |                n: 26 (valid) 0x460-0x461 (1)
0x460|   61 73 2d 69 33 32 78 34 5f 61 6c 6c 5f 74 72| as-i32x4_all_tr|                b: "as-i32x4_all_true-operand1" 0x461-0x47b (26)
0x470|75 65 2d 6f 70 65 72 61 6e 64 31               |ue-operand1     |
     |                                               |                |              d{}: 0x47b-0x47d (2)
0x470|                                 00            |           .    |                tag: "funcidx" (0x0) 0x47b-0x47c (1)
0x470|                                    1e         |            .   |                x: 30 (valid) 0x47c-0x47d (1)
     |                                               |                |            [31]{}: ex 0x47d-0x49a (29)
     |                                               |                |              nm{}: 0x47d-0x498 (27)
0x470|                                       1a      |             .  |                n: 26 (valid) 0x47d-0x47e (1)
0x470|                                          61 73|              as|                b: "as-i32x4_all_true-operand2" 0x47e-0x498 (26)
0x480|2d 69 33 32 78 34 5f 61 6c 6c 5f 74 72 75 65 2d|-i32x4_all_true-|
0x490|6f 70 65 72 61 6e 64 32                        |operand2        |
     |                                               |                |              d{}: 0x498-0x49a (2)
0x490|                        00                     |        .       |                tag: "funcidx" (0x0) 0x498-0x499 (1)
0x490|                           1f                  |         .      |                x: 31 (valid) 0x499-0x49a (1)
     |                                               |                |            [32]{}: ex 0x49a-0x4b1 (23)
     |                                               |                |              nm{}: 0x49a-0x4af (21)
0x490|                              14               |          .     |                n: 20 (valid) 0x49a-0x49b (1)
0x490|                                 61 73 2d 69 38|           as-i8|                b: "as-i8x16_eq-operands" 0x49b-0x4af (20)
0x4a0|78 31 36 5f 65 71 2d 6f 70 65 72 61 6e 64 73   |x16_eq-operands |
     |                                               |                |              d{}: 0x4af-0x4b1 (2)
0x4a0|                                             00|               .|                tag: "funcidx" (0x0) 0x4af-0x4b0 (1)
0x4b0|20                                             |                |                x: 32 (valid) 0x4b0-0x4b1 (1)
     |                                               |                |            [33]{}: ex 0x4b1-0x4c8 (23)
     |                                               |                |              nm{}: 0x4b1-0x4c6 (21)
0x4b0|   14                                          | .              |                n: 20 (valid) 0x4b1-0x4b2 (1)
0x4b0|      61 73 2d 69 31 36 78 38 5f 65 71 2d 6f 70|  as-i16x8_eq-op|                b: "as-i16x8_eq-operands" 0x4b2-0x4c6 (20)
0x4c0|65 72 61 6e 64 73                              |erands          |
     |                                               |                |              d{}: 0x4c6-0x4c8 (2)
0x4c0|                  00                           |      .         |                tag: "funcidx" (0x0) 0x4c6-0x4c7 (1)
0x4c0|                     21                        |       !        |                x: 33 (valid) 0x4c7-0x4c8 (1)
     |                                               |                |            [34]{}: ex 0x4c8-0x4e0 (24)
     |                                               |                |              nm{}: 0x4c8-0x4de (22)
0x4c0|                        15                     |        .       |                n: 21 (valid) 0x4c8-0x4c9 (1)
0x4c0|                           61 73 2d 69 33 32 78|         as-i32x|                b: "as-i32x4_eq-operands1" 0x4c9-0x4de (21)
0x4d0|34 5f 65 71 2d 6f 70 65 72 61 6e 64 73 31      |4_eq-operands1  |
     |                                               |                |              d{}: 0x4de-0x4e0 (2)
0x4d0|                                          00   |              . |                tag: "funcidx" (0x0) 0x4de-0x4df (1)
0x4d0|                                             22|               "|                x: 34 (valid) 0x4df-0x4e0 (1)
     |                                               |                |            [35]{}: ex 0x4e0-0x4f8 (24)
     |                                               |                |              nm{}: 0x4e0-0x4f6 (22)
0x4e0|15                                             |.               |                n: 21 (valid) 0x4e0-0x4e1 (1)
0x4e0|   61 73 2d 69 33 32 78 34 5f 65 71 2d 6f 70 65| as-i32x4_eq-ope|                b: "as-i32x4_eq-operands2" 0x4e1-0x4f6 (21)
0x4f0|72 61 6e 64 73 32                              |rands2          |
     |                                               |                |              d{}: 0x4f6-0x4f8 (2)
0x4f0|                  00                           |      .         |                tag: "funcidx" (0x0) 0x4f6-0x4f7 (1)
0x4f0|                     23                        |       #        |                x: 35 (valid) 0x4f7-0x4f8 (1)
     |                                               |                |            [36]{}: ex 0x4f8-0x50f (23)
     |                                               |                |              nm{}: 0x4f8-0x50d (21)
0x4f0|                        14                     |        .       |                n: 20 (valid) 0x4f8-0x4f9 (1)
0x4f0|                           61 73 2d 66 33 32 78|         as-f32x|                b: "as-f32x4_eq-operands" 0x4f9-0x50d (20)
0x500|34 5f 65 71 2d 6f 70 65 72 61 6e 64 73         |4_eq-operands   |
     |                                               |                |              d{}: 0x50d-0x50f (2)
0x500|                                       00      |             .  |                tag: "funcidx" (0x0) 0x50d-0x50e (1)
0x500|                                          24   |              $ |                x: 36 (valid) 0x50e-0x50f (1)
     |                                               |                |            [37]{}: ex 0x50f-0x526 (23)
     |                                               |                |              nm{}: 0x50f-0x524 (21)
0x500|                                             14|               .|                n: 20 (valid) 0x50f-0x510 (1)
0x510|61 73 2d 66 36 34 78 32 5f 65 71 2d 6f 70 65 72|as-f64x2_eq-oper|                b: "as-f64x2_eq-operands" 0x510-0x524 (20)
0x520|61 6e 64 73                                    |ands            |
     |                                               |                |              d{}: 0x524-0x526 (2)
0x520|            00                                 |    .           |                tag: "funcidx" (0x0) 0x524-0x525 (1)
0x520|               25                              |     %          |                x: 37 (valid) 0x525-0x526 (1)
     |                                               |                |            [38]{}: ex 0x526-0x53d (23)
     |                                               |                |              nm{}: 0x526-0x53b (21)
0x520|                  14                           |      .         |                n: 20 (valid) 0x526-0x527 (1)
0x520|                     61 73 2d 66 33 32 78 34 5f|       as-f32x4_|                b: "as-f32x4_abs-operand" 0x527-0x53b (20)
0x530|61 62 73 2d 6f 70 65 72 61 6e 64               |abs-operand     |
     |                                               |                |              d{}: 0x53b-0x53d (2)
0x530|                                 00            |           .    |                tag: "funcidx" (0x0) 0x53b-0x53c (1)
0x530|                                    26         |            &   |                x: 38 (valid) 0x53c-0x53d (1)
     |                                               |                |            [39]{}: ex 0x53d-0x555 (24)
     |                                               |                |              nm{}: 0x53d-0x553 (22)
0x530|                                       15      |             .  |                n: 21 (valid) 0x53d-0x53e (1)
0x530|                                          61 73|              as|                b: "as-f32x4_min-operands" 0x53e-0x553 (21)
0x540|2d 66 33 32 78 34 5f 6d 69 6e 2d 6f 70 65 72 61|-f32x4_min-opera|
0x550|6e 64 73                                       |nds             |
     |                                               |                |              d{}: 0x553-0x555 (2)
0x550|         00                                    |   .            |                tag: "funcidx" (0x0) 0x553-0x554 (1)
0x550|            27                                 |    '           |                x: 39 (valid) 0x554-0x555 (1)
     |                                               |                |            [40]{}: ex 0x555-0x56d (24)
     |                                               |                |              nm{}: 0x555-0x56b (22)
0x550|               15                              |     .          |                n: 21 (valid) 0x555-0x556 (1)
0x550|                  61 73 2d 66 33 32 78 34 5f 64|      as-f32x4_d|                b: "as-f32x4_div-operands" 0x556-0x56b (21)
0x560|69 76 2d 6f 70 65 72 61 6e 64 73               |iv-operands     |
     |                                               |                |              d{}: 0x56b-0x56d (2)
0x560|                                 00            |           .    |                tag: "funcidx" (0x0) 0x56b-0x56c (1)
0x560|                                    28         |            (   |                x: 40 (valid) 0x56c-0x56d (1)
     |                                               |                |            [41]{}: ex 0x56d-0x590 (35)
     |                                               |                |              nm{}: 0x56d-0x58e (33)
0x560|                                       20      |                |                n: 32 (valid) 0x56d-0x56e (1)
0x560|                                          61 73|              as|                b: "as-f32x4_convert_s_i32x4-operand" 0x56e-0x58e (32)
0x570|2d 66 33 32 78 34 5f 63 6f 6e 76 65 72 74 5f 73|-f32x4_convert_s|
0x580|5f 69 33 32 78 34 2d 6f 70 65 72 61 6e 64      |_i32x4-operand  |
     |                                               |                |              d{}: 0x58e-0x590 (2)
0x580|                                          00   |              . |                tag: "funcidx" (0x0) 0x58e-0x58f (1)
0x580|                                             29|               )|                x: 41 (valid) 0x58f-0x590 (1)
     |                                               |                |            [42]{}: ex 0x590-0x5b5 (37)
     |                                               |                |              nm{}: 0x590-0x5b3 (35)
0x590|22                                             |"               |                n: 34 (valid) 0x590-0x591 (1)
0x590|   61 73 2d 69 33 32 78 34 5f 74 72 75 6e 63 5f| as-i32x4_trunc_|                b: "as-i32x4_trunc_s_f32x4_sat-operand" 0x591-0x5b3 (34)
0x5a0|73 5f 66 33 32 78 34 5f 73 61 74 2d 6f 70 65 72|s_f32x4_sat-oper|
0x5b0|61 6e 64                                       |and             |
     |                                               |                |              d{}: 0x5b3-0x5b5 (2)
0x5b0|         00                                    |   .            |                tag: "funcidx" (0x0) 0x5b3-0x5b4 (1)
0x5b0|            2a                                 |    *           |                x: 42 (valid) 0x5b4-0x5b5 (1)
     |                                               |                |    [3]{}: section 0x5b5-0x7f0 (571)
0x5b0|               0a                              |     .          |      id: "code_section" (10) 0x5b5-0x5b6 (1)
0x5b0|                  b8 04                        |      ..        |      size: 568 (valid) 0x5b6-0x5b8 (2)
     |                                               |                |      content{}: 0x5b8-0x7f0 (568)
     |                                               |                |        code{}: 0x5b8-0x7f0 (568)
0x5b0|                        2b                     |        +       |          n: 43 (valid) 0x5b8-0x5b9 (1)
     |                                               |                |          x[0:43]: 0x5b9-0x7f0 (567)
     |                                               |                |            [0]{}: code 0x5b9-0x5c3 (10)
0x5b0|                           09                  |         .      |              size: 9 (valid) 0x5b9-0x5ba (1)
     |                                               |                |              code{}: 0x5ba-0x5c3 (9)
     |                                               |                |                t{}: 0x5ba-0x5bb (1)
0x5b0|                              00               |          .     |                  n: 0 (valid) 0x5ba-0x5bb (1)
     |                                               |                |                  x[0:0]: 0x5bb-0x5bb (0)
     |                                               |                |                e[0:4]: 0x5bb-0x5c3 (8)
     |                                               |                |                  [0]{}: in 0x5bb-0x5bd (2)
0x5b0|                                 20            |                |                    opcode: "local.get" (0x20) 0x5bb-0x5bc (1)
0x5b0|                                    00         |            .   |                    x: 0 (valid) 0x5bc-0x5bd (1)
     |                                               |                |                  [1]{}: in 0x5bd-0x5bf (2)
0x5b0|                                       fd      |             .  |                    opcode: "vector" (0xfd) 0x5bd-0x5be (1)
0x5b0|                                          0f   |              . |                    v_opcode: "i8x16.splat" (15) 0x5be-0x5bf (1)
     |                                               |                |                  [2]{}: in 0x5bf-0x5c2 (3)
0x5b0|                                             fd|               .|                    opcode: "vector" (0xfd) 0x5bf-0x5c0 (1)
0x5c0|15                                             |.               |                    v_opcode: "i8x16.extract_lane_s" (21) 0x5c0-0x5c1 (1)
0x5c0|   00                                          | .              |                    l: 0 0x5c1-0x5c2 (1)
     |                                               |                |                  [3]{}: in 0x5c2-0x5c3 (1)
0x5c0|      0b                                       |  .             |                    opcode: "end" (0xb) 0x5c2-0x5c3 (1)
     |                                               |                |            [1]{}: code 0x5c3-0x5cd (10)
0x5c0|         09                                    |   .            |              size: 9 (valid) 0x5c3-0x5c4 (1)
     |                                               |                |              code{}: 0x5c4-0x5cd (9)
     |                                               |                |                t{}: 0x5c4-0x5c5 (1)
0x5c0|            00                                 |    .           |                  n: 0 (valid) 0x5c4-0x5c5 (1)
     |                                               |                |                  x[0:0]: 0x5c5-0x5c5 (0)
     |                                               |                |                e[0:4]: 0x5c5-0x5cd (8)
     |                                               |                |                  [0]{}: in 0x5c5-0x5c7 (2)
0x5c0|               20                              |                |                    opcode: "local.get" (0x20) 0x5c5-0x5c6 (1)
0x5c0|                  00                           |      .         |                    x: 0 (valid) 0x5c6-0x5c7 (1)
     |                                               |                |                  [1]{}: in 0x5c7-0x5c9 (2)
0x5c0|                     fd                        |       .        |                    opcode: "vector" (0xfd) 0x5c7-0x5c8 (1)
0x5c0|                        0f                     |        .       |                    v_opcode: "i8x16.splat" (15) 0x5c8-0x5c9 (1)
     |                                               |                |                  [2]{}: in 0x5c9-0x5cc (3)
0x5c0|                           fd                  |         .      |                    opcode: "vector" (0xfd) 0x5c9-0x5ca (1)
0x5c0|                              15               |          .     |                    v_opcode: "i8x16.extract_lane_s" (21) 0x5ca-0x5cb (1)
0x5c0|                                 0f            |           .    |                    l: 15 0x5cb-0x5cc (1)
     |                                               |                |                  [3]{}: in 0x5cc-0x5cd (1)
0x5c0|                                    0b         |            .   |                    opcode: "end" (0xb) 0x5cc-0x5cd (1)
     |                                               |                |            [2]{}: code 0x5cd-0x5d7 (10)
0x5c0|                                       09      |             .  |              size: 9 (valid) 0x5cd-0x5ce (1)
     |                                               |                |              code{}: 0x5ce-0x5d7 (9)
     |                                               |                |                t{}: 0x5ce-0x5cf (1)
0x5c0|                                          00   |              . |                  n: 0 (valid) 0x5ce-0x5cf (1)
     |                                               |                |                  x[0:0]: 0x5cf-0x5cf (0)
     |                                               |                |                e[0:4]: 0x5cf-0x5d7 (8)
     |                                               |                |                  [0]{}: in 0x5cf-0x5d1 (2)
0x5c0|                                             20|                |                    opcode: "local.get" (0x20) 0x5cf-0x5d0 (1)
0x5d0|00                                             |.               |                    x: 0 (valid) 0x5d0-0x5d1 (1)
     |                                               |                |                  [1]{}: in 0x5d1-0x5d3 (2)
0x5d0|   fd                                          | .              |                    opcode: "vector" (0xfd) 0x5d1-0x5d2 (1)
0x5d0|      10                                       |  .             |                    v_opcode: "i16x8.splat" (16) 0x5d2-0x5d3 (1)
     |                                               |                |                  [2]{}: in 0x5d3-0x5d6 (3)
0x5d0|         fd                                    |   .            |                    opcode: "vector" (0xfd) 0x5d3-0x5d4 (1)
0x5d0|            18                                 |    .           |                    v_opcode: "i16x8.extract_lane_s" (24) 0x5d4-0x5d5 (1)
0x5d0|               00                              |     .          |                    l: 0 0x5d5-0x5d6 (1)
     |                                               |                |                  [3]{}: in 0x5d6-0x5d7 (1)
0x5d0|                  0b                           |      .         |                    opcode: "end" (0xb) 0x5d6-0x5d7 (1)
     |                                               |                |            [3]{}: code 0x5d7-0x5e1 (10)
0x5d0|                     09                        |       .        |              size: 9 (valid) 0x5d7-0x5d8 (1)
     |                                               |                |              code{}: 0x5d8-0x5e1 (9)
     |                                               |                |                t{}: 0x5d8-0x5d9 (1)
0x5d0|                        00                     |        .       |                  n: 0 (valid) 0x5d8-0x5d9 (1)
     |                                               |                |                  x[0:0]: 0x5d9-0x5d9 (0)
     |                                               |                |                e[0:4]: 0x5d9-0x5e1 (8)
     |                                               |                |                  [0]{}: in 0x5d9-0x5db (2)
0x5d0|                           20                  |                |                    opcode: "local.get" (0x20) 0x5d9-0x5da (1)
0x5d0|                              00               |          .     |                    x: 0 (valid) 0x5da-0x5db (1)
     |                                               |                |                  [1]{}: in 0x5db-0x5dd (2)
0x5d0|                                 fd            |           .    |                    opcode: "vector" (0xfd) 0x5db-0x5dc (1)
0x5d0|                                    10         |            .   |                    v_opcode: "i16x8.splat" (16) 0x5dc-0x5dd (1)
     |                                               |                |                  [2]{}: in 0x5dd-0x5e0 (3)
0x5d0|                                       fd      |             .  |                    opcode: "vector" (0xfd) 0x5dd-0x5de (1)
0x5d0|                                          18   |              . |                    v_opcode: "i16x8.extract_lane_s" (24) 0x5de-0x5df (1)
0x5d0|                                             07|               .|                    l: 7 0x5df-0x5e0 (1)
     |                                               |                |                  [3]{}: in 0x5e0-0x5e1 (1)
0x5e0|0b                                             |.               |                    opcode: "end" (0xb) 0x5e0-0x5e1 (1)
     |                                               |                |            [4]{}: code 0x5e1-0x5eb (10)
0x5e0|   09                                          | .              |              size: 9 (valid) 0x5e1-0x5e2 (1)
     |                                               |                |              code{}: 0x5e2-0x5eb (9)
     |                                               |                |                t{}: 0x5e2-0x5e3 (1)
0x5e0|      00                                       |  .             |                  n: 0 (valid) 0x5e2-0x5e3 (1)
     |                                               |                |                  x[0:0]: 0x5e3-0x5e3 (0)
     |                                               |                |                e[0:4]: 0x5e3-0x5eb (8)
     |                                               |                |                  [0]{}: in 0x5e3-0x5e5 (2)
0x5e0|         20                                    |                |                    opcode: "local.get" (0x20) 0x5e3-0x5e4 (1)
0x5e0|            00                                 |    .           |                    x: 0 (valid) 0x5e4-0x5e5 (1)
     |                                               |                |                  [1]{}: in 0x5e5-0x5e7 (2)
0x5e0|               fd                              |     .          |                    opcode: "vector" (0xfd) 0x5e5-0x5e6 (1)
0x5e0|                  11                           |      .         |                    v_opcode: "i32x4.splat" (17) 0x5e6-0x5e7 (1)
     |                                               |                |                  [2]{}: in 0x5e7-0x5ea (3)
0x5e0|                     fd                        |       .        |                    opcode: "vector" (0xfd) 0x5e7-0x5e8 (1)
0x5e0|                        1b                     |        .       |                    v_opcode: "i32x4.extract_lane" (27) 0x5e8-0x5e9 (1)
0x5e0|                           00                  |         .      |                    l: 0 0x5e9-0x5ea (1)
     |                                               |                |                  [3]{}: in 0x5ea-0x5eb (1)
0x5e0|                              0b               |          .     |                    opcode: "end" (0xb) 0x5ea-0x5eb (1)
     |                                               |                |            [5]{}: code 0x5eb-0x5f5 (10)
0x5e0|                                 09            |           .    |              size: 9 (valid) 0x5eb-0x5ec (1)
     |                                               |                |              code{}: 0x5ec-0x5f5 (9)
     |                                               |                |                t{}: 0x5ec-0x5ed (1)
0x5e0|                                    00         |            .   |                  n: 0 (valid) 0x5ec-0x5ed (1)
     |                                               |                |                  x[0:0]: 0x5ed-0x5ed (0)
     |                                               |                |                e[0:4]: 0x5ed-0x5f5 (8)
     |                                               |                |                  [0]{}: in 0x5ed-0x5ef (2)
0x5e0|                                       20      |                |                    opcode: "local.get" (0x20) 0x5ed-0x5ee (1)
0x5e0|                                          00   |              . |                    x: 0 (valid) 0x5ee-0x5ef (1)
     |                                               |                |                  [1]{}: in 0x5ef-0x5f1 (2)
0x5e0|                                             fd|               .|                    opcode: "vector" (0xfd) 0x5ef-0x5f0 (1)
0x5f0|11                                             |.               |                    v_opcode: "i32x4.splat" (17) 0x5f0-0x5f1 (1)
     |                                               |                |                  [2]{}: in 0x5f1-0x5f4 (3)
0x5f0|   fd                                          | .              |                    opcode: "vector" (0xfd) 0x5f1-0x5f2 (1)
0x5f0|      1b                                       |  .             |                    v_opcode: "i32x4.extract_lane" (27) 0x5f2-0x5f3 (1)
0x5f0|         03                                    |   .            |                    l: 3 0x5f3-0x5f4 (1)
     |                                               |                |                  [3]{}: in 0x5f4-0x5f5 (1)
0x5f0|            0b                                 |    .           |                    opcode: "end" (0xb) 0x5f4-0x5f5 (1)
     |                                               |                |            [6]{}: code 0x5f5-0x5ff (10)
0x5f0|               09                              |     .          |              size: 9 (valid) 0x5f5-0x5f6 (1)
     |                                               |                |              code{}: 0x5f6-0x5ff (9)
     |                                               |                |                t{}: 0x5f6-0x5f7 (1)
0x5f0|                  00                           |      .         |                  n: 0 (valid) 0x5f6-0x5f7 (1)
     |                                               |                |                  x[0:0]: 0x5f7-0x5f7 (0)
     |                                               |                |                e[0:4]: 0x5f7-0x5ff (8)
     |                                               |                |                  [0]{}: in 0x5f7-0x5f9 (2)
0x5f0|                     20                        |                |                    opcode: "local.get" (0x20) 0x5f7-0x5f8 (1)
0x5f0|                        00                     |        .       |                    x: 0 (valid) 0x5f8-0x5f9 (1)
     |                                               |                |                  [1]{}: in 0x5f9-0x5fb (2)
0x5f0|                           fd                  |         .      |                    opcode: "vector" (0xfd) 0x5f9-0x5fa (1)
0x5f0|                              13               |          .     |                    v_opcode: "f32x4.splat" (19) 0x5fa-0x5fb (1)
     |                                               |                |                  [2]{}: in 0x5fb-0x5fe (3)
0x5f0|                                 fd            |           .    |                    opcode: "vector" (0xfd) 0x5fb-0x5fc (1)
0x5f0|                                    1f         |            .   |                    v_opcode: "f32x4.extract_lane" (31) 0x5fc-0x5fd (1)
0x5f0|                                       00      |             .  |                    l: 0 0x5fd-0x5fe (1)
     |                                               |                |                  [3]{}: in 0x5fe-0x5ff (1)
0x5f0|                                          0b   |              . |                    opcode: "end" (0xb) 0x5fe-0x5ff (1)
     |                                               |                |            [7]{}: code 0x5ff-0x609 (10)
0x5f0|                                             09|               .|              size: 9 (valid) 0x5ff-0x600 (1)
     |                                               |                |              code{}: 0x600-0x609 (9)
     |                                               |                |                t{}: 0x600-0x601 (1)
0x600|00                                             |.               |                  n: 0 (valid) 0x600-0x601 (1)
     |                                               |                |                  x[0:0]: 0x601-0x601 (0)
     |                                               |                |                e[0:4]: 0x601-0x609 (8)
     |                                               |                |                  [0]{}: in 0x601-0x603 (2)
0x600|   20                                          |                |                    opcode: "local.get" (0x20) 0x601-0x602 (1)
0x600|      00                                       |  .             |                    x: 0 (valid) 0x602-0x603 (1)
     |                                               |                |                  [1]{}: in 0x603-0x605 (2)
0x600|         fd                                    |   .            |                    opcode: "vector" (0xfd) 0x603-0x604 (1)
0x600|            13                                 |    .           |                    v_opcode: "f32x4.splat" (19) 0x604-0x605 (1)
     |                                               |                |                  [2]{}: in 0x605-0x608 (3)
0x600|               fd                              |     .          |                    opcode: "vector" (0xfd) 0x605-0x606 (1)
0x600|                  1f                           |      .         |                    v_opcode: "f32x4.extract_lane" (31) 0x606-0x607 (1)
0x600|                     03                        |       .        |                    l: 3 0x607-0x608 (1)
     |                                               |                |                  [3]{}: in 0x608-0x609 (1)
0x600|                        0b                     |        .       |                    opcode: "end" (0xb) 0x608-0x609 (1)
     |                                               |                |            [8]{}: code 0x609-0x616 (13)
0x600|                           0c                  |         .      |              size: 12 (valid) 0x609-0x60a (1)
     |                                               |                |              code{}: 0x60a-0x616 (12)
     |                                               |                |                t{}: 0x60a-0x60b (1)
0x600|                              00               |          .     |                  n: 0 (valid) 0x60a-0x60b (1)
     |                                               |                |                  x[0:0]: 0x60b-0x60b (0)
     |                                               |                |                e[0:6]: 0x60b-0x616 (11)
     |                                               |                |                  [0]{}: in 0x60b-0x60d (2)
0x600|                                 20            |                |                    opcode: "local.get" (0x20) 0x60b-0x60c (1)
0x600|                                    00         |            .   |                    x: 0 (valid) 0x60c-0x60d (1)
     |                                               |                |                  [1]{}: in 0x60d-0x60f (2)
0x600|                                       fd      |             .  |                    opcode: "vector" (0xfd) 0x60d-0x60e (1)
0x600|                                          0f   |              . |                    v_opcode: "i8x16.splat" (15) 0x60e-0x60f (1)
     |                                               |                |                  [2]{}: in 0x60f-0x611 (2)
0x600|                                             20|                |                    opcode: "local.get" (0x20) 0x60f-0x610 (1)
0x610|01                                             |.               |                    x: 1 (valid) 0x610-0x611 (1)
     |                                               |                |                  [3]{}: in 0x611-0x613 (2)
0x610|   fd                                          | .              |                    opcode: "vector" (0xfd) 0x611-0x612 (1)
0x610|      0f                                       |  .             |                    v_opcode: "i8x16.splat" (15) 0x612-0x613 (1)
     |                                               |                |                  [4]{}: in 0x613-0x615 (2)
0x610|         fd                                    |   .            |                    opcode: "vector" (0xfd) 0x613-0x614 (1)
0x610|            0e                                 |    .           |                    v_opcode: "i8x16.swizzle" (14) 0x614-0x615 (1)
     |                                               |                |                  [5]{}: in 0x615-0x616 (1)
0x610|               0b                              |     .          |                    opcode: "end" (0xb) 0x615-0x616 (1)
     |                                               |                |            [9]{}: code 0x616-0x620 (10)
0x610|                  09                           |      .         |              size: 9 (valid) 0x616-0x617 (1)
     |                                               |                |              code{}: 0x617-0x620 (9)
     |                                               |                |                t{}: 0x617-0x618 (1)
0x610|                     00                        |       .        |                  n: 0 (valid) 0x617-0x618 (1)
     |                                               |                |                  x[0:0]: 0x618-0x618 (0)
     |                                               |                |                e[0:4]: 0x618-0x620 (8)
     |                                               |                |                  [0]{}: in 0x618-0x61a (2)
0x610|                        20                     |                |                    opcode: "local.get" (0x20) 0x618-0x619 (1)
0x610|                           00                  |         .      |                    x: 0 (valid) 0x619-0x61a (1)
     |                                               |                |                  [1]{}: in 0x61a-0x61c (2)
0x610|                              fd               |          .     |                    opcode: "vector" (0xfd) 0x61a-0x61b (1)
0x610|                                 12            |           .    |                    v_opcode: "i64x2.splat" (18) 0x61b-0x61c (1)
     |                                               |                |                  [2]{}: in 0x61c-0x61f (3)
0x610|                                    fd         |            .   |                    opcode: "vector" (0xfd) 0x61c-0x61d (1)
0x610|                                       1d      |             .  |                    v_opcode: "i64x2.extract_lane" (29) 0x61d-0x61e (1)
0x610|                                          00   |              . |                    l: 0 0x61e-0x61f (1)
     |                                               |                |                  [3]{}: in 0x61f-0x620 (1)
0x610|                                             0b|               .|                    opcode: "end" (0xb) 0x61f-0x620 (1)
     |                                               |                |            [10]{}: code 0x620-0x62a (10)
0x620|09                                             |.               |              size: 9 (valid) 0x620-0x621 (1)
     |                                               |                |              code{}: 0x621-0x62a (9)
     |                                               |                |                t{}: 0x621-0x622 (1)
0x620|   00                                          | .              |                  n: 0 (valid) 0x621-0x622 (1)
     |                                               |                |                  x[0:0]: 0x622-0x622 (0)
     |                                               |                |                e[0:4]: 0x622-0x62a (8)
     |                                               |                |                  [0]{}: in 0x622-0x624 (2)
0x620|      20                                       |                |                    opcode: "local.get" (0x20) 0x622-0x623 (1)
0x620|         00                                    |   .            |                    x: 0 (valid) 0x623-0x624 (1)
     |                                               |                |                  [1]{}: in 0x624-0x626 (2)
0x620|            fd                                 |    .           |                    opcode: "vector" (0xfd) 0x624-0x625 (1)
0x620|               12                              |     .          |                    v_opcode: "i64x2.splat" (18) 0x625-0x626 (1)
     |                                               |                |                  [2]{}: in 0x626-0x629 (3)
0x620|                  fd                           |      .         |                    opcode: "vector" (0xfd) 0x626-0x627 (1)
0x620|                     1d                        |       .        |                    v_opcode: "i64x2.extract_lane" (29) 0x627-0x628 (1)
0x620|                        01                     |        .       |                    l: 1 0x628-0x629 (1)
     |                                               |                |                  [3]{}: in 0x629-0x62a (1)
0x620|                           0b                  |         .      |                    opcode: "end" (0xb) 0x629-0x62a (1)
     |                                               |                |            [11]{}: code 0x62a-0x634 (10)
0x620|                              09               |          .     |              size: 9 (valid) 0x62a-0x62b (1)
     |                                               |                |              code{}: 0x62b-0x634 (9)
     |                                               |                |                t{}: 0x62b-0x62c (1)
0x620|                                 00            |           .    |                  n: 0 (valid) 0x62b-0x62c (1)
     |                                               |                |                  x[0:0]: 0x62c-0x62c (0)
     |                                               |                |                e[0:4]: 0x62c-0x634 (8)
     |                                               |                |                  [0]{}: in 0x62c-0x62e (2)
0x620|                                    20         |                |                    opcode: "local.get" (0x20) 0x62c-0x62d (1)
0x620|                                       00      |             .  |                    x: 0 (valid) 0x62d-0x62e (1)
     |                                               |                |                  [1]{}: in 0x62e-0x630 (2)
0x620|                                          fd   |              . |                    opcode: "vector" (0xfd) 0x62e-0x62f (1)
0x620|                                             14|               .|                    v_opcode: "f64x2.splat" (20) 0x62f-0x630 (1)
     |                                               |                |                  [2]{}: in 0x630-0x633 (3)
0x630|fd                                             |.               |                    opcode: "vector" (0xfd) 0x630-0x631 (1)
0x630|   21                                          | !              |                    v_opcode: "f64x2.extract_lane" (33) 0x631-0x632 (1)
0x630|      00                                       |  .             |                    l: 0 0x632-0x633 (1)
     |                                               |                |                  [3]{}: in 0x633-0x634 (1)
0x630|         0b                                    |   .            |                    opcode: "end" (0xb) 0x633-0x634 (1)
     |                                               |                |            [12]{}: code 0x634-0x63e (10)
0x630|            09                                 |    .           |              size: 9 (valid) 0x634-0x635 (1)
     |                                               |                |              code{}: 0x635-0x63e (9)
     |                                               |                |                t{}: 0x635-0x636 (1)
0x630|               00                              |     .          |                  n: 0 (valid) 0x635-0x636 (1)
     |                                               |                |                  x[0:0]: 0x636-0x636 (0)
     |                                               |                |                e[0:4]: 0x636-0x63e (8)
     |                                               |                |                  [0]{}: in 0x636-0x638 (2)
0x630|                  20                           |                |                    opcode: "local.get" (0x20) 0x636-0x637 (1)
0x630|                     00                        |       .        |                    x: 0 (valid) 0x637-0x638 (1)
     |                                               |                |                  [1]{}: in 0x638-0x63a (2)
0x630|                        fd                     |        .       |                    opcode: "vector" (0xfd) 0x638-0x639 (1)
0x630|                           14                  |         .      |                    v_opcode: "f64x2.splat" (20) 0x639-0x63a (1)
     |                                               |                |                  [2]{}: in 0x63a-0x63d (3)
0x630|                              fd               |          .     |                    opcode: "vector" (0xfd) 0x63a-0x63b (1)
0x630|                                 21            |           !    |                    v_opcode: "f64x2.extract_lane" (33) 0x63b-0x63c (1)
0x630|                                    01         |            .   |                    l: 1 0x63c-0x63d (1)
     |                                               |                |                  [3]{}: in 0x63d-0x63e (1)
0x630|                                       0b      |             .  |                    opcode: "end" (0xb) 0x63d-0x63e (1)
     |                                               |                |            [13]{}: code 0x63e-0x651 (19)
0x630|                                          12   |              . |              size: 18 (valid) 0x63e-0x63f (1)
     |                                               |                |              code{}: 0x63f-0x651 (18)
     |                                               |                |                t{}: 0x63f-0x640 (1)
0x630|                                             00|               .|                  n: 0 (valid) 0x63f-0x640 (1)
     |                                               |                |                  x[0:0]: 0x640-0x640 (0)
     |                                               |                |                e[0:9]: 0x640-0x651 (17)
     |                                               |                |                  [0]{}: in 0x640-0x642 (2)
0x640|20                                             |                |                    opcode: "local.get" (0x20) 0x640-0x641 (1)
0x640|   00                                          | .              |                    x: 0 (valid) 0x641-0x642 (1)
     |                                               |                |                  [1]{}: in 0x642-0x644 (2)
0x640|      fd                                       |  .             |                    opcode: "vector" (0xfd) 0x642-0x643 (1)
0x640|         0f                                    |   .            |                    v_opcode: "i8x16.splat" (15) 0x643-0x644 (1)
     |                                               |                |                  [2]{}: in 0x644-0x646 (2)
0x640|            20                                 |                |                    opcode: "local.get" (0x20) 0x644-0x645 (1)
0x640|               01                              |     .          |                    x: 1 (valid) 0x645-0x646 (1)
     |                                               |                |                  [3]{}: in 0x646-0x648 (2)
0x640|                  fd                           |      .         |                    opcode: "vector" (0xfd) 0x646-0x647 (1)
0x640|                     0f                        |       .        |                    v_opcode: "i8x16.splat" (15) 0x647-0x648 (1)
     |                                               |                |                  [4]{}: in 0x648-0x64a (2)
0x640|                        20                     |                |                    opcode: "local.get" (0x20) 0x648-0x649 (1)
0x640|                           02                  |         .      |                    x: 2 (valid) 0x649-0x64a (1)
     |                                               |                |                  [5]{}: in 0x64a-0x64c (2)
0x640|                              fd               |          .     |                    opcode: "vector" (0xfd) 0x64a-0x64b (1)
0x640|                                 0f            |           .    |                    v_opcode: "i8x16.splat" (15) 0x64b-0x64c (1)
     |                                               |                |                  [6]{}: in 0x64c-0x64e (2)
0x640|                                    fd         |            .   |                    opcode: "vector" (0xfd) 0x64c-0x64d (1)
0x640|                                       71      |             q  |                    v_opcode: "i8x16.sub" (113) 0x64d-0x64e (1)
     |                                               |                |                  [7]{}: in 0x64e-0x650 (2)
0x640|                                          fd   |              . |                    opcode: "vector" (0xfd) 0x64e-0x64f (1)
0x640|                                             6e|               n|                    v_opcode: "i8x16.add" (110) 0x64f-0x650 (1)
     |                                               |                |                  [8]{}: in 0x650-0x651 (1)
0x650|0b                                             |.               |                    opcode: "end" (0xb) 0x650-0x651 (1)
     |                                               |                |            [14]{}: code 0x651-0x66d (28)
0x650|   1b                                          | .              |              size: 27 (valid) 0x651-0x652 (1)
     |                                               |                |              code{}: 0x652-0x66d (27)
     |                                               |                |                t{}: 0x652-0x653 (1)
0x650|      00                                       |  .             |                  n: 0 (valid) 0x652-0x653 (1)
     |                                               |                |                  x[0:0]: 0x653-0x653 (0)
     |                                               |                |                e[0:12]: 0x653-0x66d (26)
     |                                               |                |                  [0]{}: in 0x653-0x655 (2)
0x650|         20                                    |                |                    opcode: "local.get" (0x20) 0x653-0x654 (1)
0x650|            00                                 |    .           |                    x: 0 (valid) 0x654-0x655 (1)
     |                                               |                |                  [1]{}: in 0x655-0x657 (2)
0x650|               fd                              |     .          |                    opcode: "vector" (0xfd) 0x655-0x656 (1)
0x650|                  10                           |      .         |                    v_opcode: "i16x8.splat" (16) 0x656-0x657 (1)
     |                                               |                |                  [2]{}: in 0x657-0x659 (2)
0x650|                     20                        |                |                    opcode: "local.get" (0x20) 0x657-0x658 (1)
0x650|                        01                     |        .       |                    x: 1 (valid) 0x658-0x659 (1)
     |                                               |                |                  [3]{}: in 0x659-0x65b (2)
0x650|                           fd                  |         .      |                    opcode: "vector" (0xfd) 0x659-0x65a (1)
0x650|                              10               |          .     |                    v_opcode: "i16x8.splat" (16) 0x65a-0x65b (1)
     |                                               |                |                  [4]{}: in 0x65b-0x65d (2)
0x650|                                 20            |                |                    opcode: "local.get" (0x20) 0x65b-0x65c (1)
0x650|                                    02         |            .   |                    x: 2 (valid) 0x65c-0x65d (1)
     |                                               |                |                  [5]{}: in 0x65d-0x65f (2)
0x650|                                       fd      |             .  |                    opcode: "vector" (0xfd) 0x65d-0x65e (1)
0x650|                                          10   |              . |                    v_opcode: "i16x8.splat" (16) 0x65e-0x65f (1)
     |                                               |                |                  [6]{}: in 0x65f-0x661 (2)
0x650|                                             20|                |                    opcode: "local.get" (0x20) 0x65f-0x660 (1)
0x660|03                                             |.               |                    x: 3 (valid) 0x660-0x661 (1)
     |                                               |                |                  [7]{}: in 0x661-0x663 (2)
0x660|   fd                                          | .              |                    opcode: "vector" (0xfd) 0x661-0x662 (1)
0x660|      10                                       |  .             |                    v_opcode: "i16x8.splat" (16) 0x662-0x663 (1)
     |                                               |                |                  [8]{}: in 0x663-0x666 (3)
0x660|         fd                                    |   .            |                    opcode: "vector" (0xfd) 0x663-0x664 (1)
0x660|            95 01                              |    ..          |                    v_opcode: "i16x8.mul" (149) 0x664-0x666 (2)
     |                                               |                |                  [9]{}: in 0x666-0x669 (3)
0x660|                  fd                           |      .         |                    opcode: "vector" (0xfd) 0x666-0x667 (1)
0x660|                     91 01                     |       ..       |                    v_opcode: "i16x8.sub" (145) 0x667-0x669 (2)
     |                                               |                |                  [10]{}: in 0x669-0x66c (3)
0x660|                           fd                  |         .      |                    opcode: "vector" (0xfd) 0x669-0x66a (1)
0x660|                              8e 01            |          ..    |                    v_opcode: "i16x8.add" (142) 0x66a-0x66c (2)
     |                                               |                |                  [11]{}: in 0x66c-0x66d (1)
0x660|                                    0b         |            .   |                    opcode: "end" (0xb) 0x66c-0x66d (1)
     |                                               |                |            [15]{}: code 0x66d-0x689 (28)
0x660|                                       1b      |             .  |              size: 27 (valid) 0x66d-0x66e (1)
     |                                               |                |              code{}: 0x66e-0x689 (27)
     |                                               |                |                t{}: 0x66e-0x66f (1)
0x660|                                          00   |              . |                  n: 0 (valid) 0x66e-0x66f (1)
     |                                               |                |                  x[0:0]: 0x66f-0x66f (0)
     |                                               |                |                e[0:12]: 0x66f-0x689 (26)
     |                                               |                |                  [0]{}: in 0x66f-0x671 (2)
0x660|                                             20|                |                    opcode: "local.get" (0x20) 0x66f-0x670 (1)
0x670|00                                             |.               |                    x: 0 (valid) 0x670-0x671 (1)
     |                                               |                |                  [1]{}: in 0x671-0x673 (2)
0x670|   fd                                          | .              |                    opcode: "vector" (0xfd) 0x671-0x672 (1)
0x670|      11                                       |  .             |                    v_opcode: "i32x4.splat" (17) 0x672-0x673 (1)
     |                                               |                |                  [2]{}: in 0x673-0x675 (2)
0x670|         20                                    |                |                    opcode: "local.get" (0x20) 0x673-0x674 (1)
0x670|            01                                 |    .           |                    x: 1 (valid) 0x674-0x675 (1)
     |                                               |                |                  [3]{}: in 0x675-0x677 (2)
0x670|               fd                              |     .          |                    opcode: "vector" (0xfd) 0x675-0x676 (1)
0x670|                  11                           |      .         |                    v_opcode: "i32x4.splat" (17) 0x676-0x677 (1)
     |                                               |                |                  [4]{}: in 0x677-0x679 (2)
0x670|                     20                        |                |                    opcode: "local.get" (0x20) 0x677-0x678 (1)
0x670|                        02                     |        .       |                    x: 2 (valid) 0x678-0x679 (1)
     |                                               |                |                  [5]{}: in 0x679-0x67b (2)
0x670|                           fd                  |         .      |                    opcode: "vector" (0xfd) 0x679-0x67a (1)
0x670|                              11               |          .     |                    v_opcode: "i32x4.splat" (17) 0x67a-0x67b (1)
     |                                               |                |                  [6]{}: in 0x67b-0x67d (2)
0x670|                                 20            |                |                    opcode: "local.get" (0x20) 0x67b-0x67c (1)
0x670|                                    03         |            .   |                    x: 3 (valid) 0x67c-0x67d (1)
     |                                               |                |                  [7]{}: in 0x67d-0x67f (2)
0x670|                                       fd      |             .  |                    opcode: "vector" (0xfd) 0x67d-0x67e (1)
0x670|                                          11   |              . |                    v_opcode: "i32x4.splat" (17) 0x67e-0x67f (1)
     |                                               |                |                  [8]{}: in 0x67f-0x682 (3)
0x670|                                             fd|               .|                    opcode: "vector" (0xfd) 0x67f-0x680 (1)
0x680|b5 01                                          |..              |                    v_opcode: "i32x4.mul" (181) 0x680-0x682 (2)
     |                                               |                |                  [9]{}: in 0x682-0x685 (3)
0x680|      fd                                       |  .             |                    opcode: "vector" (0xfd) 0x682-0x683 (1)
0x680|         b1 01                                 |   ..           |                    v_opcode: "i32x4.sub" (177) 0x683-0x685 (2)
     |                                               |                |                  [10]{}: in 0x685-0x688 (3)
0x680|               fd                              |     .          |                    opcode: "vector" (0xfd) 0x685-0x686 (1)
0x680|                  ae 01                        |      ..        |                    v_opcode: "i32x4.add" (174) 0x686-0x688 (2)
     |                                               |                |                  [11]{}: in 0x688-0x689 (1)
0x680|                        0b                     |        .       |                    opcode: "end" (0xb) 0x688-0x689 (1)
     |                                               |                |            [16]{}: code 0x689-0x6a5 (28)
0x680|                           1b                  |         .      |              size: 27 (valid) 0x689-0x68a (1)
     |                                               |                |              code{}: 0x68a-0x6a5 (27)
     |                                               |                |                t{}: 0x68a-0x68b (1)
0x680|                              00               |          .     |                  n: 0 (valid) 0x68a-0x68b (1)
     |                                               |                |                  x[0:0]: 0x68b-0x68b (0)
     |                                               |                |                e[0:12]: 0x68b-0x6a5 (26)
     |                                               |                |                  [0]{}: in 0x68b-0x68d (2)
0x680|                                 20            |                |                    opcode: "local.get" (0x20) 0x68b-0x68c (1)
0x680|                                    00         |            .   |                    x: 0 (valid) 0x68c-0x68d (1)
     |                                               |                |                  [1]{}: in 0x68d-0x68f (2)
0x680|                                       fd      |             .  |                    opcode: "vector" (0xfd) 0x68d-0x68e (1)
0x680|                                          12   |              . |                    v_opcode: "i64x2.splat" (18) 0x68e-0x68f (1)
     |                                               |                |                  [2]{}: in 0x68f-0x691 (2)
0x680|                                             20|                |                    opcode: "local.get" (0x20) 0x68f-0x690 (1)
0x690|01                                             |.               |                    x: 1 (valid) 0x690-0x691 (1)
     |                                               |                |                  [3]{}: in 0x691-0x693 (2)
0x690|   fd                                          | .              |                    opcode: "vector" (0xfd) 0x691-0x692 (1)
0x690|      12                                       |  .             |                    v_opcode: "i64x2.splat" (18) 0x692-0x693 (1)
     |                                               |                |                  [4]{}: in 0x693-0x695 (2)
0x690|         20                                    |                |                    opcode: "local.get" (0x20) 0x693-0x694 (1)
0x690|            02                                 |    .           |                    x: 2 (valid) 0x694-0x695 (1)
     |                                               |                |                  [5]{}: in 0x695-0x697 (2)
0x690|               fd                              |     .          |                    opcode: "vector" (0xfd) 0x695-0x696 (1)
0x690|                  12                           |      .         |                    v_opcode: "i64x2.splat" (18) 0x696-0x697 (1)
     |                                               |                |                  [6]{}: in 0x697-0x699 (2)
0x690|                     20                        |                |                    opcode: "local.get" (0x20) 0x697-0x698 (1)
0x690|                        03                     |        .       |                    x: 3 (valid) 0x698-0x699 (1)
     |                                               |                |                  [7]{}: in 0x699-0x69b (2)
0x690|                           fd                  |         .      |                    opcode: "vector" (0xfd) 0x699-0x69a (1)
0x690|                              12               |          .     |                    v_opcode: "i64x2.splat" (18) 0x69a-0x69b (1)
     |                                               |                |                  [8]{}: in 0x69b-0x69e (3)
0x690|                                 fd            |           .    |                    opcode: "vector" (0xfd) 0x69b-0x69c (1)
0x690|                                    d5 01      |            ..  |                    v_opcode: "i64x2.mul" (213) 0x69c-0x69e (2)
     |                                               |                |                  [9]{}: in 0x69e-0x6a1 (3)
0x690|                                          fd   |              . |                    opcode: "vector" (0xfd) 0x69e-0x69f (1)
0x690|                                             d1|               .|                    v_opcode: "i64x2.sub" (209) 0x69f-0x6a1 (2)
0x6a0|01                                             |.               |
     |                                               |                |                  [10]{}: in 0x6a1-0x6a4 (3)
0x6a0|   fd                                          | .              |                    opcode: "vector" (0xfd) 0x6a1-0x6a2 (1)
0x6a0|      ce 01                                    |  ..            |                    v_opcode: "i64x2.add" (206) 0x6a2-0x6a4 (2)
     |                                               |                |                  [11]{}: in 0x6a4-0x6a5 (1)
0x6a0|            0b                                 |    .           |                    opcode: "end" (0xb) 0x6a4-0x6a5 (1)
     |                                               |                |            [17]{}: code 0x6a5-0x6c1 (28)
0x6a0|               1b                              |     .          |              size: 27 (valid) 0x6a5-0x6a6 (1)
     |                                               |                |              code{}: 0x6a6-0x6c1 (27)
     |                                               |                |                t{}: 0x6a6-0x6a7 (1)
0x6a0|                  00                           |      .         |                  n: 0 (valid) 0x6a6-0x6a7 (1)
     |                                               |                |                  x[0:0]: 0x6a7-0x6a7 (0)
     |                                               |                |                e[0:12]: 0x6a7-0x6c1 (26)
     |                                               |                |                  [0]{}: in 0x6a7-0x6a9 (2)
0x6a0|                     20                        |                |                    opcode: "local.get" (0x20) 0x6a7-0x6a8 (1)
0x6a0|                        00                     |        .       |                    x: 0 (valid) 0x6a8-0x6a9 (1)
     |                                               |                |                  [1]{}: in 0x6a9-0x6ab (2)
0x6a0|                           fd                  |         .      |                    opcode: "vector" (0xfd) 0x6a9-0x6aa (1)
0x6a0|                              14               |          .     |                    v_opcode: "f64x2.splat" (20) 0x6aa-0x6ab (1)
     |                                               |                |                  [2]{}: in 0x6ab-0x6ad (2)
0x6a0|                                 20            |                |                    opcode: "local.get" (0x20) 0x6ab-0x6ac (1)
0x6a0|                                    01         |            .   |                    x: 1 (valid) 0x6ac-0x6ad (1)
     |                                               |                |                  [3]{}: in 0x6ad-0x6af (2)
0x6a0|                                       fd      |             .  |                    opcode: "vector" (0xfd) 0x6ad-0x6ae (1)
0x6a0|                                          14   |              . |                    v_opcode: "f64x2.splat" (20) 0x6ae-0x6af (1)
     |                                               |                |                  [4]{}: in 0x6af-0x6b1 (2)
0x6a0|                                             20|                |                    opcode: "local.get" (0x20) 0x6af-0x6b0 (1)
0x6b0|02                                             |.               |                    x: 2 (valid) 0x6b0-0x6b1 (1)
     |                                               |                |                  [5]{}: in 0x6b1-0x6b3 (2)
0x6b0|   fd                                          | .              |                    opcode: "vector" (0xfd) 0x6b1-0x6b2 (1)
0x6b0|      14                                       |  .             |                    v_opcode: "f64x2.splat" (20) 0x6b2-0x6b3 (1)
     |                                               |                |                  [6]{}: in 0x6b3-0x6b5 (2)
0x6b0|         20                                    |                |                    opcode: "local.get" (0x20) 0x6b3-0x6b4 (1)
0x6b0|            03                                 |    .           |                    x: 3 (valid) 0x6b4-0x6b5 (1)
     |                                               |                |                  [7]{}: in 0x6b5-0x6b7 (2)
0x6b0|               fd                              |     .          |                    opcode: "vector" (0xfd) 0x6b5-0x6b6 (1)
0x6b0|                  14                           |      .         |                    v_opcode: "f64x2.splat" (20) 0x6b6-0x6b7 (1)
     |                                               |                |                  [8]{}: in 0x6b7-0x6ba (3)
0x6b0|                     fd                        |       .        |                    opcode: "vector" (0xfd) 0x6b7-0x6b8 (1)
0x6b0|                        f2 01                  |        ..      |                    v_opcode: "f64x2.mul" (242) 0x6b8-0x6ba (2)
     |                                               |                |                  [9]{}: in 0x6ba-0x6bd (3)
0x6b0|                              fd               |          .     |                    opcode: "vector" (0xfd) 0x6ba-0x6bb (1)
0x6b0|                                 f1 01         |           ..   |                    v_opcode: "f64x2.sub" (241) 0x6bb-0x6bd (2)
     |                                               |                |                  [10]{}: in 0x6bd-0x6c0 (3)
0x6b0|                                       fd      |             .  |                    opcode: "vector" (0xfd) 0x6bd-0x6be (1)
0x6b0|                                          f0 01|              ..|                    v_opcode: "f64x2.add" (240) 0x6be-0x6c0 (2)
     |                                               |                |                  [11]{}: in 0x6c0-0x6c1 (1)
0x6c0|0b                                             |.               |                    opcode: "end" (0xb) 0x6c0-0x6c1 (1)
     |                                               |                |            [18]{}: code 0x6c1-0x6ce (13)
0x6c0|   0c                                          | .              |              size: 12 (valid) 0x6c1-0x6c2 (1)
     |                                               |                |              code{}: 0x6c2-0x6ce (12)
     |                                               |                |                t{}: 0x6c2-0x6c3 (1)
0x6c0|      00                                       |  .             |                  n: 0 (valid) 0x6c2-0x6c3 (1)
     |                                               |                |                  x[0:0]: 0x6c3-0x6c3 (0)
     |                                               |                |                e[0:6]: 0x6c3-0x6ce (11)
     |                                               |                |                  [0]{}: in 0x6c3-0x6c5 (2)
0x6c0|         20                                    |                |                    opcode: "local.get" (0x20) 0x6c3-0x6c4 (1)
0x6c0|            00                                 |    .           |                    x: 0 (valid) 0x6c4-0x6c5 (1)
     |                                               |                |                  [1]{}: in 0x6c5-0x6c7 (2)
0x6c0|               fd                              |     .          |                    opcode: "vector" (0xfd) 0x6c5-0x6c6 (1)
0x6c0|                  0f                           |      .         |                    v_opcode: "i8x16.splat" (15) 0x6c6-0x6c7 (1)
     |                                               |                |                  [2]{}: in 0x6c7-0x6c9 (2)
0x6c0|                     20                        |                |                    opcode: "local.get" (0x20) 0x6c7-0x6c8 (1)
0x6c0|                        01                     |        .       |                    x: 1 (valid) 0x6c8-0x6c9 (1)
     |                                               |                |                  [3]{}: in 0x6c9-0x6cb (2)
0x6c0|                           fd                  |         .      |                    opcode: "vector" (0xfd) 0x6c9-0x6ca (1)
0x6c0|                              0f               |          .     |                    v_opcode: "i8x16.splat" (15) 0x6ca-0x6cb (1)
     |                                               |                |                  [4]{}: in 0x6cb-0x6cd (2)
0x6c0|                                 fd            |           .    |                    opcode: "vector" (0xfd) 0x6cb-0x6cc (1)
0x6c0|                                    6f         |            o   |                    v_opcode: "i8x16.add_sat_s" (111) 0x6cc-0x6cd (1)
     |                                               |                |                  [5]{}: in 0x6cd-0x6ce (1)
0x6c0|                                       0b      |             .  |                    opcode: "end" (0xb) 0x6cd-0x6ce (1)
     |                                               |                |            [19]{}: code 0x6ce-0x6dc (14)
0x6c0|                                          0d   |              . |              size: 13 (valid) 0x6ce-0x6cf (1)
     |                                               |                |              code{}: 0x6cf-0x6dc (13)
     |                                               |                |                t{}: 0x6cf-0x6d0 (1)
0x6c0|                                             00|               .|                  n: 0 (valid) 0x6cf-0x6d0 (1)
     |                                               |                |                  x[0:0]: 0x6d0-0x6d0 (0)
     |                                               |                |                e[0:6]: 0x6d0-0x6dc (12)
     |                                               |                |                  [0]{}: in 0x6d0-0x6d2 (2)
0x6d0|20                                             |                |                    opcode: "local.get" (0x20) 0x6d0-0x6d1 (1)
0x6d0|   00                                          | .              |                    x: 0 (valid) 0x6d1-0x6d2 (1)
     |                                               |                |                  [1]{}: in 0x6d2-0x6d4 (2)
0x6d0|      fd                                       |  .             |                    opcode: "vector" (0xfd) 0x6d2-0x6d3 (1)
0x6d0|         10                                    |   .            |                    v_opcode: "i16x8.splat" (16) 0x6d3-0x6d4 (1)
     |                                               |                |                  [2]{}: in 0x6d4-0x6d6 (2)
0x6d0|            20                                 |                |                    opcode: "local.get" (0x20) 0x6d4-0x6d5 (1)
0x6d0|               01                              |     .          |                    x: 1 (valid) 0x6d5-0x6d6 (1)
     |                                               |                |                  [3]{}: in 0x6d6-0x6d8 (2)
0x6d0|                  fd                           |      .         |                    opcode: "vector" (0xfd) 0x6d6-0x6d7 (1)
0x6d0|                     10                        |       .        |                    v_opcode: "i16x8.splat" (16) 0x6d7-0x6d8 (1)
     |                                               |                |                  [4]{}: in 0x6d8-0x6db (3)
0x6d0|                        fd                     |        .       |                    opcode: "vector" (0xfd) 0x6d8-0x6d9 (1)
0x6d0|                           8f 01               |         ..     |                    v_opcode: "i16x8.add_sat_s" (143) 0x6d9-0x6db (2)
     |                                               |                |                  [5]{}: in 0x6db-0x6dc (1)
0x6d0|                                 0b            |           .    |                    opcode: "end" (0xb) 0x6db-0x6dc (1)
     |                                               |                |            [20]{}: code 0x6dc-0x6e9 (13)
0x6d0|                                    0c         |            .   |              size: 12 (valid) 0x6dc-0x6dd (1)
     |                                               |                |              code{}: 0x6dd-0x6e9 (12)
     |                                               |                |                t{}: 0x6dd-0x6de (1)
0x6d0|                                       00      |             .  |                  n: 0 (valid) 0x6dd-0x6de (1)
     |                                               |                |                  x[0:0]: 0x6de-0x6de (0)
     |                                               |                |                e[0:6]: 0x6de-0x6e9 (11)
     |                                               |                |                  [0]{}: in 0x6de-0x6e0 (2)
0x6d0|                                          20   |                |                    opcode: "local.get" (0x20) 0x6de-0x6df (1)
0x6d0|                                             00|               .|                    x: 0 (valid) 0x6df-0x6e0 (1)
     |                                               |                |                  [1]{}: in 0x6e0-0x6e2 (2)
0x6e0|fd                                             |.               |                    opcode: "vector" (0xfd) 0x6e0-0x6e1 (1)
0x6e0|   0f                                          | .              |                    v_opcode: "i8x16.splat" (15) 0x6e1-0x6e2 (1)
     |                                               |                |                  [2]{}: in 0x6e2-0x6e4 (2)
0x6e0|      20                                       |                |                    opcode: "local.get" (0x20) 0x6e2-0x6e3 (1)
0x6e0|         01                                    |   .            |                    x: 1 (valid) 0x6e3-0x6e4 (1)
     |                                               |                |                  [3]{}: in 0x6e4-0x6e6 (2)
0x6e0|            fd                                 |    .           |                    opcode: "vector" (0xfd) 0x6e4-0x6e5 (1)
0x6e0|               0f                              |     .          |                    v_opcode: "i8x16.splat" (15) 0x6e5-0x6e6 (1)
     |                                               |                |                  [4]{}: in 0x6e6-0x6e8 (2)
0x6e0|                  fd                           |      .         |                    opcode: "vector" (0xfd) 0x6e6-0x6e7 (1)
0x6e0|                     73                        |       s        |                    v_opcode: "i8x16.sub_sat_u" (115) 0x6e7-0x6e8 (1)
     |                                               |                |                  [5]{}: in 0x6e8-0x6e9 (1)
0x6e0|                        0b                     |        .       |                    opcode: "end" (0xb) 0x6e8-0x6e9 (1)
     |                                               |                |            [21]{}: code 0x6e9-0x6f7 (14)
0x6e0|                           0d                  |         .      |              size: 13 (valid) 0x6e9-0x6ea (1)
     |                                               |                |              code{}: 0x6ea-0x6f7 (13)
     |                                               |                |                t{}: 0x6ea-0x6eb (1)
0x6e0|                              00               |          .     |                  n: 0 (valid) 0x6ea-0x6eb (1)
     |                                               |                |                  x[0:0]: 0x6eb-0x6eb (0)
     |                                               |                |                e[0:6]: 0x6eb-0x6f7 (12)
     |                                               |                |                  [0]{}: in 0x6eb-0x6ed (2)
0x6e0|                                 20            |                |                    opcode: "local.get" (0x20) 0x6eb-0x6ec (1)
0x6e0|                                    00         |            .   |                    x: 0 (valid) 0x6ec-0x6ed (1)
     |                                               |                |                  [1]{}: in 0x6ed-0x6ef (2)
0x6e0|                                       fd      |             .  |                    opcode: "vector" (0xfd) 0x6ed-0x6ee (1)
0x6e0|                                          10   |              . |                    v_opcode: "i16x8.splat" (16) 0x6ee-0x6ef (1)
     |                                               |                |                  [2]{}: in 0x6ef-0x6f1 (2)
0x6e0|                                             20|                |                    opcode: "local.get" (0x20) 0x6ef-0x6f0 (1)
0x6f0|01                                             |.               |                    x: 1 (valid) 0x6f0-0x6f1 (1)
     |                                               |                |                  [3]{}: in 0x6f1-0x6f3 (2)
0x6f0|   fd                                          | .              |                    opcode: "vector" (0xfd) 0x6f1-0x6f2 (1)
0x6f0|      10                                       |  .             |                    v_opcode: "i16x8.splat" (16) 0x6f2-0x6f3 (1)
     |                                               |                |                  [4]{}: in 0x6f3-0x6f6 (3)
0x6f0|         fd                                    |   .            |                    opcode: "vector" (0xfd) 0x6f3-0x6f4 (1)
0x6f0|            93 01                              |    ..          |                    v_opcode: "i16x8.sub_sat_u" (147) 0x6f4-0x6f6 (2)
     |                                               |                |                  [5]{}: in 0x6f6-0x6f7 (1)
0x6f0|                  0b                           |      .         |                    opcode: "end" (0xb) 0x6f6-0x6f7 (1)
     |                                               |                |            [22]{}: code 0x6f7-0x702 (11)
0x6f0|                     0a                        |       .        |              size: 10 (valid) 0x6f7-0x6f8 (1)
     |                                               |                |              code{}: 0x6f8-0x702 (10)
     |                                               |                |                t{}: 0x6f8-0x6f9 (1)
0x6f0|                        00                     |        .       |                  n: 0 (valid) 0x6f8-0x6f9 (1)
     |                                               |                |                  x[0:0]: 0x6f9-0x6f9 (0)
     |                                               |                |                e[0:5]: 0x6f9-0x702 (9)
     |                                               |                |                  [0]{}: in 0x6f9-0x6fb (2)
0x6f0|                           20                  |                |                    opcode: "local.get" (0x20) 0x6f9-0x6fa (1)
0x6f0|                              00               |          .     |                    x: 0 (valid) 0x6fa-0x6fb (1)
     |                                               |                |                  [1]{}: in 0x6fb-0x6fd (2)
0x6f0|                                 fd            |           .    |                    opcode: "vector" (0xfd) 0x6fb-0x6fc (1)
0x6f0|                                    0f         |            .   |                    v_opcode: "i8x16.splat" (15) 0x6fc-0x6fd (1)
     |                                               |                |                  [2]{}: in 0x6fd-0x6ff (2)
0x6f0|                                       20      |                |                    opcode: "local.get" (0x20) 0x6fd-0x6fe (1)
0x6f0|                                          01   |              . |                    x: 1 (valid) 0x6fe-0x6ff (1)
     |                                               |                |                  [3]{}: in 0x6ff-0x701 (2)
0x6f0|                                             fd|               .|                    opcode: "vector" (0xfd) 0x6ff-0x700 (1)
0x700|6c                                             |l               |                    v_opcode: "i8x16.shr_s" (108) 0x700-0x701 (1)
     |                                               |                |                  [4]{}: in 0x701-0x702 (1)
0x700|   0b                                          | .              |                    opcode: "end" (0xb) 0x701-0x702 (1)
     |                                               |                |            [23]{}: code 0x702-0x70e (12)
0x700|      0b                                       |  .             |              size: 11 (valid) 0x702-0x703 (1)
     |                                               |                |              code{}: 0x703-0x70e (11)
     |                                               |                |                t{}: 0x703-0x704 (1)
0x700|         00                                    |   .            |                  n: 0 (valid) 0x703-0x704 (1)
     |                                               |                |                  x[0:0]: 0x704-0x704 (0)
     |                                               |                |                e[0:5]: 0x704-0x70e (10)
     |                                               |                |                  [0]{}: in 0x704-0x706 (2)
0x700|            20                                 |                |                    opcode: "local.get" (0x20) 0x704-0x705 (1)
0x700|               00                              |     .          |                    x: 0 (valid) 0x705-0x706 (1)
     |                                               |                |                  [1]{}: in 0x706-0x708 (2)
0x700|                  fd                           |      .         |                    opcode: "vector" (0xfd) 0x706-0x707 (1)
0x700|                     10                        |       .        |                    v_opcode: "i16x8.splat" (16) 0x707-0x708 (1)
     |                                               |                |                  [2]{}: in 0x708-0x70a (2)
0x700|                        20                     |                |                    opcode: "local.get" (0x20) 0x708-0x709 (1)
0x700|                           01                  |         .      |                    x: 1 (valid) 0x709-0x70a (1)
     |                                               |                |                  [3]{}: in 0x70a-0x70d (3)
0x700|                              fd               |          .     |                    opcode: "vector" (0xfd) 0x70a-0x70b (1)
0x700|                                 8c 01         |           ..   |                    v_opcode: "i16x8.shr_s" (140) 0x70b-0x70d (2)
     |                                               |                |                  [4]{}: in 0x70d-0x70e (1)
0x700|                                       0b      |             .  |                    opcode: "end" (0xb) 0x70d-0x70e (1)
     |                                               |                |            [24]{}: code 0x70e-0x71a (12)
0x700|                                          0b   |              . |              size: 11 (valid) 0x70e-0x70f (1)
     |                                               |                |              code{}: 0x70f-0x71a (11)
     |                                               |                |                t{}: 0x70f-0x710 (1)
0x700|                                             00|               .|                  n: 0 (valid) 0x70f-0x710 (1)
     |                                               |                |                  x[0:0]: 0x710-0x710 (0)
     |                                               |                |                e[0:5]: 0x710-0x71a (10)
     |                                               |                |                  [0]{}: in 0x710-0x712 (2)
0x710|20                                             |                |                    opcode: "local.get" (0x20) 0x710-0x711 (1)
0x710|   00                                          | .              |                    x: 0 (valid) 0x711-0x712 (1)
     |                                               |                |                  [1]{}: in 0x712-0x714 (2)
0x710|      fd                                       |  .             |                    opcode: "vector" (0xfd) 0x712-0x713 (1)
0x710|         11                                    |   .            |                    v_opcode: "i32x4.splat" (17) 0x713-0x714 (1)
     |                                               |                |                  [2]{}: in 0x714-0x716 (2)
0x710|            20                                 |                |                    opcode: "local.get" (0x20) 0x714-0x715 (1)
0x710|               01                              |     .          |                    x: 1 (valid) 0x715-0x716 (1)
     |                                               |                |                  [3]{}: in 0x716-0x719 (3)
0x710|                  fd                           |      .         |                    opcode: "vector" (0xfd) 0x716-0x717 (1)
0x710|                     ac 01                     |       ..       |                    v_opcode: "i32x4.shr_s" (172) 0x717-0x719 (2)
     |                                               |                |                  [4]{}: in 0x719-0x71a (1)
0x710|                           0b                  |         .      |                    opcode: "end" (0xb) 0x719-0x71a (1)
     |                                               |                |            [25]{}: code 0x71a-0x727 (13)
0x710|                              0c               |          .     |              size: 12 (valid) 0x71a-0x71b (1)
     |                                               |                |              code{}: 0x71b-0x727 (12)
     |                                               |                |                t{}: 0x71b-0x71c (1)
0x710|                                 00            |           .    |                  n: 0 (valid) 0x71b-0x71c (1)
     |                                               |                |                  x[0:0]: 0x71c-0x71c (0)
     |                                               |                |                e[0:6]: 0x71c-0x727 (11)
     |                                               |                |                  [0]{}: in 0x71c-0x71e (2)
0x710|                                    20         |                |                    opcode: "local.get" (0x20) 0x71c-0x71d (1)
0x710|                                       00      |             .  |                    x: 0 (valid) 0x71d-0x71e (1)
     |                                               |                |                  [1]{}: in 0x71e-0x720 (2)
0x710|                                          fd   |              . |                    opcode: "vector" (0xfd) 0x71e-0x71f (1)
0x710|                                             0f|               .|                    v_opcode: "i8x16.splat" (15) 0x71f-0x720 (1)
     |                                               |                |                  [2]{}: in 0x720-0x722 (2)
0x720|20                                             |                |                    opcode: "local.get" (0x20) 0x720-0x721 (1)
0x720|   01                                          | .              |                    x: 1 (valid) 0x721-0x722 (1)
     |                                               |                |                  [3]{}: in 0x722-0x724 (2)
0x720|      fd                                       |  .             |                    opcode: "vector" (0xfd) 0x722-0x723 (1)
0x720|         0f                                    |   .            |                    v_opcode: "i8x16.splat" (15) 0x723-0x724 (1)
     |                                               |                |                  [4]{}: in 0x724-0x726 (2)
0x720|            fd                                 |    .           |                    opcode: "vector" (0xfd) 0x724-0x725 (1)
0x720|               4e                              |     N          |                    v_opcode: "v128.and" (78) 0x725-0x726 (1)
     |                                               |                |                  [5]{}: in 0x726-0x727 (1)
0x720|                  0b                           |      .         |                    opcode: "end" (0xb) 0x726-0x727 (1)
     |                                               |                |            [26]{}: code 0x727-0x734 (13)
0x720|                     0c                        |       .        |              size: 12 (valid) 0x727-0x728 (1)
     |                                               |                |              code{}: 0x728-0x734 (12)
     |                                               |                |                t{}: 0x728-0x729 (1)
0x720|                        00                     |        .       |                  n: 0 (valid) 0x728-0x729 (1)
     |                                               |                |                  x[0:0]: 0x729-0x729 (0)
     |                                               |                |                e[0:6]: 0x729-0x734 (11)
     |                                               |                |                  [0]{}: in 0x729-0x72b (2)
0x720|                           20                  |                |                    opcode: "local.get" (0x20) 0x729-0x72a (1)
0x720|                              00               |          .     |                    x: 0 (valid) 0x72a-0x72b (1)
     |                                               |                |                  [1]{}: in 0x72b-0x72d (2)
0x720|                                 fd            |           .    |                    opcode: "vector" (0xfd) 0x72b-0x72c (1)
0x720|                                    10         |            .   |                    v_opcode: "i16x8.splat" (16) 0x72c-0x72d (1)
     |                                               |                |                  [2]{}: in 0x72d-0x72f (2)
0x720|                                       20      |                |                    opcode: "local.get" (0x20) 0x72d-0x72e (1)
0x720|                                          01   |              . |                    x: 1 (valid) 0x72e-0x72f (1)
     |                                               |                |                  [3]{}: in 0x72f-0x731 (2)
0x720|                                             fd|               .|                    opcode: "vector" (0xfd) 0x72f-0x730 (1)
0x730|10                                             |.               |                    v_opcode: "i16x8.splat" (16) 0x730-0x731 (1)
     |                                               |                |                  [4]{}: in 0x731-0x733 (2)
0x730|   fd                                          | .              |                    opcode: "vector" (0xfd) 0x731-0x732 (1)
0x730|      50                                       |  P             |                    v_opcode: "v128.or" (80) 0x732-0x733 (1)
     |                                               |                |                  [5]{}: in 0x733-0x734 (1)
0x730|         0b                                    |   .            |                    opcode: "end" (0xb) 0x733-0x734 (1)
     |                                               |                |            [27]{}: code 0x734-0x741 (13)
0x730|            0c                                 |    .           |              size: 12 (valid) 0x734-0x735 (1)
     |                                               |                |              code{}: 0x735-0x741 (12)
     |                                               |                |                t{}: 0x735-0x736 (1)
0x730|               00                              |     .          |                  n: 0 (valid) 0x735-0x736 (1)
     |                                               |                |                  x[0:0]: 0x736-0x736 (0)
     |                                               |                |                e[0:6]: 0x736-0x741 (11)
     |                                               |                |                  [0]{}: in 0x736-0x738 (2)
0x730|                  20                           |                |                    opcode: "local.get" (0x20) 0x736-0x737 (1)
0x730|                     00                        |       .        |                    x: 0 (valid) 0x737-0x738 (1)
     |                                               |                |                  [1]{}: in 0x738-0x73a (2)
0x730|                        fd                     |        .       |                    opcode: "vector" (0xfd) 0x738-0x739 (1)
0x730|                           11                  |         .      |                    v_opcode: "i32x4.splat" (17) 0x739-0x73a (1)
     |                                               |                |                  [2]{}: in 0x73a-0x73c (2)
0x730|                              20               |                |                    opcode: "local.get" (0x20) 0x73a-0x73b (1)
0x730|                                 01            |           .    |                    x: 1 (valid) 0x73b-0x73c (1)
     |                                               |                |                  [3]{}: in 0x73c-0x73e (2)
0x730|                                    fd         |            .   |                    opcode: "vector" (0xfd) 0x73c-0x73d (1)
0x730|                                       11      |             .  |                    v_opcode: "i32x4.splat" (17) 0x73d-0x73e (1)
     |                                               |                |                  [4]{}: in 0x73e-0x740 (2)
0x730|                                          fd   |              . |                    opcode: "vector" (0xfd) 0x73e-0x73f (1)
0x730|                                             51|               Q|                    v_opcode: "v128.xor" (81) 0x73f-0x740 (1)
     |                                               |                |                  [5]{}: in 0x740-0x741 (1)
0x740|0b                                             |.               |                    opcode: "end" (0xb) 0x740-0x741 (1)
     |                                               |                |            [28]{}: code 0x741-0x74a (9)
0x740|   08                                          | .              |              size: 8 (valid) 0x741-0x742 (1)
     |                                               |                |              code{}: 0x742-0x74a (8)
     |                                               |                |                t{}: 0x742-0x743 (1)
0x740|      00                                       |  .             |                  n: 0 (valid) 0x742-0x743 (1)
     |                                               |                |                  x[0:0]: 0x743-0x743 (0)
     |                                               |                |                e[0:4]: 0x743-0x74a (7)
     |                                               |                |                  [0]{}: in 0x743-0x745 (2)
0x740|         20                                    |                |                    opcode: "local.get" (0x20) 0x743-0x744 (1)
0x740|            00                                 |    .           |                    x: 0 (valid) 0x744-0x745 (1)
     |                                               |                |                  [1]{}: in 0x745-0x747 (2)
0x740|               fd                              |     .          |                    opcode: "vector" (0xfd) 0x745-0x746 (1)
0x740|                  0f                           |      .         |                    v_opcode: "i8x16.splat" (15) 0x746-0x747 (1)
     |                                               |                |                  [2]{}: in 0x747-0x749 (2)
0x740|                     fd                        |       .        |                    opcode: "vector" (0xfd) 0x747-0x748 (1)
0x740|                        63                     |        c       |                    v_opcode: "i8x16.all_true" (99) 0x748-0x749 (1)
     |                                               |                |                  [3]{}: in 0x749-0x74a (1)
0x740|                           0b                  |         .      |                    opcode: "end" (0xb) 0x749-0x74a (1)
     |                                               |                |            [29]{}: code 0x74a-0x754 (10)
0x740|                              09               |          .     |              size: 9 (valid) 0x74a-0x74b (1)
     |                                               |                |              code{}: 0x74b-0x754 (9)
     |                                               |                |                t{}: 0x74b-0x74c (1)
0x740|                                 00            |           .    |                  n: 0 (valid) 0x74b-0x74c (1)
     |                                               |                |                  x[0:0]: 0x74c-0x74c (0)
     |                                               |                |                e[0:4]: 0x74c-0x754 (8)
     |                                               |                |                  [0]{}: in 0x74c-0x74e (2)
0x740|                                    20         |                |                    opcode: "local.get" (0x20) 0x74c-0x74d (1)
0x740|                                       00      |             .  |                    x: 0 (valid) 0x74d-0x74e (1)
     |                                               |                |                  [1]{}: in 0x74e-0x750 (2)
0x740|                                          fd   |              . |                    opcode: "vector" (0xfd) 0x74e-0x74f (1)
0x740|                                             10|               .|                    v_opcode: "i16x8.splat" (16) 0x74f-0x750 (1)
     |                                               |                |                  [2]{}: in 0x750-0x753 (3)
0x750|fd                                             |.               |                    opcode: "vector" (0xfd) 0x750-0x751 (1)
0x750|   83 01                                       | ..             |                    v_opcode: "i16x8.all_true" (131) 0x751-0x753 (2)
     |                                               |                |                  [3]{}: in 0x753-0x754 (1)
0x750|         0b                                    |   .            |                    opcode: "end" (0xb) 0x753-0x754 (1)
     |                                               |                |            [30]{}: code 0x754-0x75e (10)
0x750|            09                                 |    .           |              size: 9 (valid) 0x754-0x755 (1)
     |                                               |                |              code{}: 0x755-0x75e (9)
     |                                               |                |                t{}: 0x755-0x756 (1)
0x750|               00                              |     .          |                  n: 0 (valid) 0x755-0x756 (1)
     |                                               |                |                  x[0:0]: 0x756-0x756 (0)
     |                                               |                |                e[0:4]: 0x756-0x75e (8)
     |                                               |                |                  [0]{}: in 0x756-0x758 (2)
0x750|                  20                           |                |                    opcode: "local.get" (0x20) 0x756-0x757 (1)
0x750|                     00                        |       .        |                    x: 0 (valid) 0x757-0x758 (1)
     |                                               |                |                  [1]{}: in 0x758-0x75a (2)
0x750|                        fd                     |        .       |                    opcode: "vector" (0xfd) 0x758-0x759 (1)
0x750|                           11                  |         .      |                    v_opcode: "i32x4.splat" (17) 0x759-0x75a (1)
     |                                               |                |                  [2]{}: in 0x75a-0x75d (3)
0x750|                              fd               |          .     |                    opcode: "vector" (0xfd) 0x75a-0x75b (1)
0x750|                                 a3 01         |           ..   |                    v_opcode: "i32x4.all_true" (163) 0x75b-0x75d (2)
     |                                               |                |                  [3]{}: in 0x75d-0x75e (1)
0x750|                                       0b      |             .  |                    opcode: "end" (0xb) 0x75d-0x75e (1)
     |                                               |                |            [31]{}: code 0x75e-0x768 (10)
0x750|                                          09   |              . |              size: 9 (valid) 0x75e-0x75f (1)
     |                                               |                |              code{}: 0x75f-0x768 (9)
     |                                               |                |                t{}: 0x75f-0x760 (1)
0x750|                                             00|               .|                  n: 0 (valid) 0x75f-0x760 (1)
     |                                               |                |                  x[0:0]: 0x760-0x760 (0)
     |                                               |                |                e[0:4]: 0x760-0x768 (8)
     |                                               |                |                  [0]{}: in 0x760-0x762 (2)
0x760|20                                             |                |                    opcode: "local.get" (0x20) 0x760-0x761 (1)
0x760|   00                                          | .              |                    x: 0 (valid) 0x761-0x762 (1)
     |                                               |                |                  [1]{}: in 0x762-0x764 (2)
0x760|      fd                                       |  .             |                    opcode: "vector" (0xfd) 0x762-0x763 (1)
0x760|         12                                    |   .            |                    v_opcode: "i64x2.splat" (18) 0x763-0x764 (1)
     |                                               |                |                  [2]{}: in 0x764-0x767 (3)
0x760|            fd                                 |    .           |                    opcode: "vector" (0xfd) 0x764-0x765 (1)
0x760|               a3 01                           |     ..         |                    v_opcode: "i32x4.all_true" (163) 0x765-0x767 (2)
     |                                               |                |                  [3]{}: in 0x767-0x768 (1)
0x760|                     0b                        |       .        |                    opcode: "end" (0xb) 0x767-0x768 (1)
     |                                               |                |            [32]{}: code 0x768-0x775 (13)
0x760|                        0c                     |        .       |              size: 12 (valid) 0x768-0x769 (1)
     |                                               |                |              code{}: 0x769-0x775 (12)
     |                                               |                |                t{}: 0x769-0x76a (1)
0x760|                           00                  |         .      |                  n: 0 (valid) 0x769-0x76a (1)
     |                                               |                |                  x[0:0]: 0x76a-0x76a (0)
     |                                               |                |                e[0:6]: 0x76a-0x775 (11)
     |                                               |                |                  [0]{}: in 0x76a-0x76c (2)
0x760|                              20               |                |                    opcode: "local.get" (0x20) 0x76a-0x76b (1)
0x760|                                 00            |           .    |                    x: 0 (valid) 0x76b-0x76c (1)
     |                                               |                |                  [1]{}: in 0x76c-0x76e (2)
0x760|                                    fd         |            .   |                    opcode: "vector" (0xfd) 0x76c-0x76d (1)
0x760|                                       0f      |             .  |                    v_opcode: "i8x16.splat" (15) 0x76d-0x76e (1)
     |                                               |                |                  [2]{}: in 0x76e-0x770 (2)
0x760|                                          20   |                |                    opcode: "local.get" (0x20) 0x76e-0x76f (1)
0x760|                                             01|               .|                    x: 1 (valid) 0x76f-0x770 (1)
     |                                               |                |                  [3]{}: in 0x770-0x772 (2)
0x770|fd                                             |.               |                    opcode: "vector" (0xfd) 0x770-0x771 (1)
0x770|   0f                                          | .              |                    v_opcode: "i8x16.splat" (15) 0x771-0x772 (1)
     |                                               |                |                  [4]{}: in 0x772-0x774 (2)
0x770|      fd                                       |  .             |                    opcode: "vector" (0xfd) 0x772-0x773 (1)
0x770|         23                                    |   #            |                    v_opcode: "i8x16.eq" (35) 0x773-0x774 (1)
     |                                               |                |                  [5]{}: in 0x774-0x775 (1)
0x770|            0b                                 |    .           |                    opcode: "end" (0xb) 0x774-0x775 (1)
     |                                               |                |            [33]{}: code 0x775-0x782 (13)
0x770|               0c                              |     .          |              size: 12 (valid) 0x775-0x776 (1)
     |                                               |                |              code{}: 0x776-0x782 (12)
     |                                               |                |                t{}: 0x776-0x777 (1)
0x770|                  00                           |      .         |                  n: 0 (valid) 0x776-0x777 (1)
     |                                               |                |                  x[0:0]: 0x777-0x777 (0)
     |                                               |                |                e[0:6]: 0x777-0x782 (11)
     |                                               |                |                  [0]{}: in 0x777-0x779 (2)
0x770|                     20                        |                |                    opcode: "local.get" (0x20) 0x777-0x778 (1)
0x770|                        00                     |        .       |                    x: 0 (valid) 0x778-0x779 (1)
     |                                               |                |                  [1]{}: in 0x779-0x77b (2)
0x770|                           fd                  |         .      |                    opcode: "vector" (0xfd) 0x779-0x77a (1)
0x770|                              10               |          .     |                    v_opcode: "i16x8.splat" (16) 0x77a-0x77b (1)
     |                                               |                |                  [2]{}: in 0x77b-0x77d (2)
0x770|                                 20            |                |                    opcode: "local.get" (0x20) 0x77b-0x77c (1)
0x770|                                    01         |            .   |                    x: 1 (valid) 0x77c-0x77d (1)
     |                                               |                |                  [3]{}: in 0x77d-0x77f (2)
0x770|                                       fd      |             .  |                    opcode: "vector" (0xfd) 0x77d-0x77e (1)
0x770|                                          10   |              . |                    v_opcode: "i16x8.splat" (16) 0x77e-0x77f (1)
     |                                               |                |                  [4]{}: in 0x77f-0x781 (2)
0x770|                                             fd|               .|                    opcode: "vector" (0xfd) 0x77f-0x780 (1)
0x780|2d                                             |-               |                    v_opcode: "i16x8.eq" (45) 0x780-0x781 (1)
     |                                               |                |                  [5]{}: in 0x781-0x782 (1)
0x780|   0b                                          | .              |                    opcode: "end" (0xb) 0x781-0x782 (1)
     |                                               |                |            [34]{}: code 0x782-0x78f (13)
0x780|      0c                                       |  .             |              size: 12 (valid) 0x782-0x783 (1)
     |                                               |                |              code{}: 0x783-0x78f (12)
     |                                               |                |                t{}: 0x783-0x784 (1)
0x780|         00                                    |   .            |                  n: 0 (valid) 0x783-0x784 (1)
     |                                               |                |                  x[0:0]: 0x784-0x784 (0)
     |                                               |                |                e[0:6]: 0x784-0x78f (11)
     |                                               |                |                  [0]{}: in 0x784-0x786 (2)
0x780|            20                                 |                |                    opcode: "local.get" (0x20) 0x784-0x785 (1)
0x780|               00                              |     .          |                    x: 0 (valid) 0x785-0x786 (1)
     |                                               |                |                  [1]{}: in 0x786-0x788 (2)
0x780|                  fd                           |      .         |                    opcode: "vector" (0xfd) 0x786-0x787 (1)
0x780|                     11                        |       .        |                    v_opcode: "i32x4.splat" (17) 0x787-0x788 (1)
     |                                               |                |                  [2]{}: in 0x788-0x78a (2)
0x780|                        20                     |                |                    opcode: "local.get" (0x20) 0x788-0x789 (1)
0x780|                           01                  |         .      |                    x: 1 (valid) 0x789-0x78a (1)
     |                                               |                |                  [3]{}: in 0x78a-0x78c (2)
0x780|                              fd               |          .     |                    opcode: "vector" (0xfd) 0x78a-0x78b (1)
0x780|                                 11            |           .    |                    v_opcode: "i32x4.splat" (17) 0x78b-0x78c (1)
     |                                               |                |                  [4]{}: in 0x78c-0x78e (2)
0x780|                                    fd         |            .   |                    opcode: "vector" (0xfd) 0x78c-0x78d (1)
0x780|                                       37      |             7  |                    v_opcode: "i32x4.eq" (55) 0x78d-0x78e (1)
     |                                               |                |                  [5]{}: in 0x78e-0x78f (1)
0x780|                                          0b   |              . |                    opcode: "end" (0xb) 0x78e-0x78f (1)
     |                                               |                |            [35]{}: code 0x78f-0x79c (13)
0x780|                                             0c|               .|              size: 12 (valid) 0x78f-0x790 (1)
     |                                               |                |              code{}: 0x790-0x79c (12)
     |                                               |                |                t{}: 0x790-0x791 (1)
0x790|00                                             |.               |                  n: 0 (valid) 0x790-0x791 (1)
     |                                               |                |                  x[0:0]: 0x791-0x791 (0)
     |                                               |                |                e[0:6]: 0x791-0x79c (11)
     |                                               |                |                  [0]{}: in 0x791-0x793 (2)
0x790|   20                                          |                |                    opcode: "local.get" (0x20) 0x791-0x792 (1)
0x790|      00                                       |  .             |                    x: 0 (valid) 0x792-0x793 (1)
     |                                               |                |                  [1]{}: in 0x793-0x795 (2)
0x790|         fd                                    |   .            |                    opcode: "vector" (0xfd) 0x793-0x794 (1)
0x790|            12                                 |    .           |                    v_opcode: "i64x2.splat" (18) 0x794-0x795 (1)
     |                                               |                |                  [2]{}: in 0x795-0x797 (2)
0x790|               20                              |                |                    opcode: "local.get" (0x20) 0x795-0x796 (1)
0x790|                  01                           |      .         |                    x: 1 (valid) 0x796-0x797 (1)
     |                                               |                |                  [3]{}: in 0x797-0x799 (2)
0x790|                     fd                        |       .        |                    opcode: "vector" (0xfd) 0x797-0x798 (1)
0x790|                        12                     |        .       |                    v_opcode: "i64x2.splat" (18) 0x798-0x799 (1)
     |                                               |                |                  [4]{}: in 0x799-0x79b (2)
0x790|                           fd                  |         .      |                    opcode: "vector" (0xfd) 0x799-0x79a (1)
0x790|                              37               |          7     |                    v_opcode: "i32x4.eq" (55) 0x79a-0x79b (1)
     |                                               |                |                  [5]{}: in 0x79b-0x79c (1)
0x790|                                 0b            |           .    |                    opcode: "end" (0xb) 0x79b-0x79c (1)
     |                                               |                |            [36]{}: code 0x79c-0x7a9 (13)
0x790|                                    0c         |            .   |              size: 12 (valid) 0x79c-0x79d (1)
     |                                               |                |              code{}: 0x79d-0x7a9 (12)
     |                                               |                |                t{}: 0x79d-0x79e (1)
0x790|                                       00      |             .  |                  n: 0 (valid) 0x79d-0x79e (1)
     |                                               |                |                  x[0:0]: 0x79e-0x79e (0)
     |                                               |                |                e[0:6]: 0x79e-0x7a9 (11)
     |                                               |                |                  [0]{}: in 0x79e-0x7a0 (2)
0x790|                                          20   |                |                    opcode: "local.get" (0x20) 0x79e-0x79f (1)
0x790|                                             00|               .|                    x: 0 (valid) 0x79f-0x7a0 (1)
     |                                               |                |                  [1]{}: in 0x7a0-0x7a2 (2)
0x7a0|fd                                             |.               |                    opcode: "vector" (0xfd) 0x7a0-0x7a1 (1)
0x7a0|   13                                          | .              |                    v_opcode: "f32x4.splat" (19) 0x7a1-0x7a2 (1)
     |                                               |                |                  [2]{}: in 0x7a2-0x7a4 (2)
0x7a0|      20                                       |                |                    opcode: "local.get" (0x20) 0x7a2-0x7a3 (1)
0x7a0|         01                                    |   .            |                    x: 1 (valid) 0x7a3-0x7a4 (1)
     |                                               |                |                  [3]{}: in 0x7a4-0x7a6 (2)
0x7a0|            fd                                 |    .           |                    opcode: "vector" (0xfd) 0x7a4-0x7a5 (1)
0x7a0|               13                              |     .          |                    v_opcode: "f32x4.splat" (19) 0x7a5-0x7a6 (1)
     |                                               |                |                  [4]{}: in 0x7a6-0x7a8 (2)
0x7a0|                  fd                           |      .         |                    opcode: "vector" (0xfd) 0x7a6-0x7a7 (1)
0x7a0|                     41                        |       A        |                    v_opcode: "f32x4.eq" (65) 0x7a7-0x7a8 (1)
     |                                               |                |                  [5]{}: in 0x7a8-0x7a9 (1)
0x7a0|                        0b                     |        .       |                    opcode: "end" (0xb) 0x7a8-0x7a9 (1)
     |                                               |                |            [37]{}: code 0x7a9-0x7b6 (13)
0x7a0|                           0c                  |         .      |              size: 12 (valid) 0x7a9-0x7aa (1)
     |                                               |                |              code{}: 0x7aa-0x7b6 (12)
     |                                               |                |                t{}: 0x7aa-0x7ab (1)
0x7a0|                              00               |          .     |                  n: 0 (valid) 0x7aa-0x7ab (1)
     |                                               |                |                  x[0:0]: 0x7ab-0x7ab (0)
     |                                               |                |                e[0:6]: 0x7ab-0x7b6 (11)
     |                                               |                |                  [0]{}: in 0x7ab-0x7ad (2)
0x7a0|                                 20            |                |                    opcode: "local.get" (0x20) 0x7ab-0x7ac (1)
0x7a0|                                    00         |            .   |                    x: 0 (valid) 0x7ac-0x7ad (1)
     |                                               |                |                  [1]{}: in 0x7ad-0x7af (2)
0x7a0|                                       fd      |             .  |                    opcode: "vector" (0xfd) 0x7ad-0x7ae (1)
0x7a0|                                          14   |              . |                    v_opcode: "f64x2.splat" (20) 0x7ae-0x7af (1)
     |                                               |                |                  [2]{}: in 0x7af-0x7b1 (2)
0x7a0|                                             20|                |                    opcode: "local.get" (0x20) 0x7af-0x7b0 (1)
0x7b0|01                                             |.               |                    x: 1 (valid) 0x7b0-0x7b1 (1)
     |                                               |                |                  [3]{}: in 0x7b1-0x7b3 (2)
0x7b0|   fd                                          | .              |                    opcode: "vector" (0xfd) 0x7b1-0x7b2 (1)
0x7b0|      14                                       |  .             |                    v_opcode: "f64x2.splat" (20) 0x7b2-0x7b3 (1)
     |                                               |                |                  [4]{}: in 0x7b3-0x7b5 (2)
0x7b0|         fd                                    |   .            |                    opcode: "vector" (0xfd) 0x7b3-0x7b4 (1)
0x7b0|            47                                 |    G           |                    v_opcode: "f64x2.eq" (71) 0x7b4-0x7b5 (1)
     |                                               |                |                  [5]{}: in 0x7b5-0x7b6 (1)
0x7b0|               0b                              |     .          |                    opcode: "end" (0xb) 0x7b5-0x7b6 (1)
     |                                               |                |            [38]{}: code 0x7b6-0x7c0 (10)
0x7b0|                  09                           |      .         |              size: 9 (valid) 0x7b6-0x7b7 (1)
     |                                               |                |              code{}: 0x7b7-0x7c0 (9)
     |                                               |                |                t{}: 0x7b7-0x7b8 (1)
0x7b0|                     00                        |       .        |                  n: 0 (valid) 0x7b7-0x7b8 (1)
     |                                               |                |                  x[0:0]: 0x7b8-0x7b8 (0)
     |                                               |                |                e[0:4]: 0x7b8-0x7c0 (8)
     |                                               |                |                  [0]{}: in 0x7b8-0x7ba (2)
0x7b0|                        20                     |                |                    opcode: "local.get" (0x20) 0x7b8-0x7b9 (1)
0x7b0|                           00                  |         .      |                    x: 0 (valid) 0x7b9-0x7ba (1)
     |                                               |                |                  [1]{}: in 0x7ba-0x7bc (2)
0x7b0|                              fd               |          .     |                    opcode: "vector" (0xfd) 0x7ba-0x7bb (1)
0x7b0|                                 13            |           .    |                    v_opcode: "f32x4.splat" (19) 0x7bb-0x7bc (1)
     |                                               |                |                  [2]{}: in 0x7bc-0x7bf (3)
0x7b0|                                    fd         |            .   |                    opcode: "vector" (0xfd) 0x7bc-0x7bd (1)
0x7b0|                                       e0 01   |             .. |                    v_opcode: "f32x4.abs" (224) 0x7bd-0x7bf (2)
     |                                               |                |                  [3]{}: in 0x7bf-0x7c0 (1)
0x7b0|                                             0b|               .|                    opcode: "end" (0xb) 0x7bf-0x7c0 (1)
     |                                               |                |            [39]{}: code 0x7c0-0x7ce (14)
0x7c0|0d                                             |.               |              size: 13 (valid) 0x7c0-0x7c1 (1)
     |                                               |                |              code{}: 0x7c1-0x7ce (13)
     |                                               |                |                t{}: 0x7c1-0x7c2 (1)
0x7c0|   00                                          | .              |                  n: 0 (valid) 0x7c1-0x7c2 (1)
     |                                               |                |                  x[0:0]: 0x7c2-0x7c2 (0)
     |                                               |                |                e[0:6]: 0x7c2-0x7ce (12)
     |                                               |                |                  [0]{}: in 0x7c2-0x7c4 (2)
0x7c0|      20                                       |                |                    opcode: "local.get" (0x20) 0x7c2-0x7c3 (1)
0x7c0|         00                                    |   .            |                    x: 0 (valid) 0x7c3-0x7c4 (1)
     |                                               |                |                  [1]{}: in 0x7c4-0x7c6 (2)
0x7c0|            fd                                 |    .           |                    opcode: "vector" (0xfd) 0x7c4-0x7c5 (1)
0x7c0|               13                              |     .          |                    v_opcode: "f32x4.splat" (19) 0x7c5-0x7c6 (1)
     |                                               |                |                  [2]{}: in 0x7c6-0x7c8 (2)
0x7c0|                  20                           |                |                    opcode: "local.get" (0x20) 0x7c6-0x7c7 (1)
0x7c0|                     01                        |       .        |                    x: 1 (valid) 0x7c7-0x7c8 (1)
     |                                               |                |                  [3]{}: in 0x7c8-0x7ca (2)
0x7c0|                        fd                     |        .       |                    opcode: "vector" (0xfd) 0x7c8-0x7c9 (1)
0x7c0|                           13                  |         .      |                    v_opcode: "f32x4.splat" (19) 0x7c9-0x7ca (1)
     |                                               |                |                  [4]{}: in 0x7ca-0x7cd (3)
0x7c0|                              fd               |          .     |                    opcode: "vector" (0xfd) 0x7ca-0x7cb (1)
0x7c0|                                 e8 01         |           ..   |                    v_opcode: "f32x4.min" (232) 0x7cb-0x7cd (2)
     |                                               |                |                  [5]{}: in 0x7cd-0x7ce (1)
0x7c0|                                       0b      |             .  |                    opcode: "end" (0xb) 0x7cd-0x7ce (1)
     |                                               |                |            [40]{}: code 0x7ce-0x7dc (14)
0x7c0|                                          0d   |              . |              size: 13 (valid) 0x7ce-0x7cf (1)
     |                                               |                |              code{}: 0x7cf-0x7dc (13)
     |                                               |                |                t{}: 0x7cf-0x7d0 (1)
0x7c0|                                             00|               .|                  n: 0 (valid) 0x7cf-0x7d0 (1)
     |                                               |                |                  x[0:0]: 0x7d0-0x7d0 (0)
     |                                               |                |                e[0:6]: 0x7d0-0x7dc (12)
     |                                               |                |                  [0]{}: in 0x7d0-0x7d2 (2)
0x7d0|20                                             |                |                    opcode: "local.get" (0x20) 0x7d0-0x7d1 (1)
0x7d0|   00                                          | .              |                    x: 0 (valid) 0x7d1-0x7d2 (1)
     |                                               |                |                  [1]{}: in 0x7d2-0x7d4 (2)
0x7d0|      fd                                       |  .             |                    opcode: "vector" (0xfd) 0x7d2-0x7d3 (1)
0x7d0|         13                                    |   .            |                    v_opcode: "f32x4.splat" (19) 0x7d3-0x7d4 (1)
     |                                               |                |                  [2]{}: in 0x7d4-0x7d6 (2)
0x7d0|            20                                 |                |                    opcode: "local.get" (0x20) 0x7d4-0x7d5 (1)
0x7d0|               01                              |     .          |                    x: 1 (valid) 0x7d5-0x7d6 (1)
     |                                               |                |                  [3]{}: in 0x7d6-0x7d8 (2)
0x7d0|                  fd                           |      .         |                    opcode: "vector" (0xfd) 0x7d6-0x7d7 (1)
0x7d0|                     13                        |       .        |                    v_opcode: "f32x4.splat" (19) 0x7d7-0x7d8 (1)
     |                                               |                |                  [4]{}: in 0x7d8-0x7db (3)
0x7d0|                        fd                     |        .       |                    opcode: "vector" (0xfd) 0x7d8-0x7d9 (1)
0x7d0|                           e7 01               |         ..     |                    v_opcode: "f32x4.div" (231) 0x7d9-0x7db (2)
     |                                               |                |                  [5]{}: in 0x7db-0x7dc (1)
0x7d0|                                 0b            |           .    |                    opcode: "end" (0xb) 0x7db-0x7dc (1)
     |                                               |                |            [41]{}: code 0x7dc-0x7e6 (10)
0x7d0|                                    09         |            .   |              size: 9 (valid) 0x7dc-0x7dd (1)
     |                                               |                |              code{}: 0x7dd-0x7e6 (9)
     |                                               |                |                t{}: 0x7dd-0x7de (1)
0x7d0|                                       00      |             .  |                  n: 0 (valid) 0x7dd-0x7de (1)
     |                                               |                |                  x[0:0]: 0x7de-0x7de (0)
     |                                               |                |                e[0:4]: 0x7de-0x7e6 (8)
     |                                               |                |                  [0]{}: in 0x7de-0x7e0 (2)
0x7d0|                                          20   |                |                    opcode: "local.get" (0x20) 0x7de-0x7df (1)
0x7d0|                                             00|               .|                    x: 0 (valid) 0x7df-0x7e0 (1)
     |                                               |                |                  [1]{}: in 0x7e0-0x7e2 (2)
0x7e0|fd                                             |.               |                    opcode: "vector" (0xfd) 0x7e0-0x7e1 (1)
0x7e0|   11                                          | .              |                    v_opcode: "i32x4.splat" (17) 0x7e1-0x7e2 (1)
     |                                               |                |                  [2]{}: in 0x7e2-0x7e5 (3)
0x7e0|      fd                                       |  .             |                    opcode: "vector" (0xfd) 0x7e2-0x7e3 (1)
0x7e0|         fa 01                                 |   ..           |                    v_opcode: "f32x4.convert_i32x4_s" (250) 0x7e3-0x7e5 (2)
     |                                               |                |                  [3]{}: in 0x7e5-0x7e6 (1)
0x7e0|               0b                              |     .          |                    opcode: "end" (0xb) 0x7e5-0x7e6 (1)
     |                                               |                |            [42]{}: code 0x7e6-0x7f0 (10)
0x7e0|                  09                           |      .         |              size: 9 (valid) 0x7e6-0x7e7 (1)
     |                                               |                |              code{}: 0x7e7-0x7f0 (9)
     |                                               |                |                t{}: 0x7e7-0x7e8 (1)
0x7e0|                     00                        |       .        |                  n: 0 (valid) 0x7e7-0x7e8 (1)
     |                                               |                |                  x[0:0]: 0x7e8-0x7e8 (0)
     |                                               |                |                e[0:4]: 0x7e8-0x7f0 (8)
     |                                               |                |                  [0]{}: in 0x7e8-0x7ea (2)
0x7e0|                        20                     |                |                    opcode: "local.get" (0x20) 0x7e8-0x7e9 (1)
0x7e0|                           00                  |         .      |                    x: 0 (valid) 0x7e9-0x7ea (1)
     |                                               |                |                  [1]{}: in 0x7ea-0x7ec (2)
0x7e0|                              fd               |          .     |                    opcode: "vector" (0xfd) 0x7ea-0x7eb (1)
0x7e0|                                 13            |           .    |                    v_opcode: "f32x4.splat" (19) 0x7eb-0x7ec (1)
     |                                               |                |                  [2]{}: in 0x7ec-0x7ef (3)
0x7e0|                                    fd         |            .   |                    opcode: "vector" (0xfd) 0x7ec-0x7ed (1)
0x7e0|                                       f8 01   |             .. |                    v_opcode: "i32x4.trunc_sat_f32x4_s" (248) 0x7ed-0x7ef (2)
     |                                               |                |                  [3]{}: in 0x7ef-0x7f0 (1)
0x7e0|                                             0b|               .|                    opcode: "end" (0xb) 0x7ef-0x7f0 (1)
