$ fq -d wasm dv simd_store-0.wasm
     |00 01 02 03 04 05 06 07 08 09 0a 0b 0c 0d 0e 0f|0123456789abcdef|.{}: simd_store-0.wasm (wasm) 0x0-0x1ce.7 (463)
0x000|00 61 73 6d                                    |.asm            |  magic: raw bits (valid) 0x0-0x3.7 (4)
0x000|            01 00 00 00                        |    ....        |  version: 1 0x4-0x7.7 (4)
     |                                               |                |  sections[0:5]: 0x8-0x1ce.7 (455)
     |                                               |                |    [0]{}: section 0x8-0xe.7 (7)
0x000|                        01                     |        .       |      id: "type section" (1) 0x8-0x8.7 (1)
0x000|                           05                  |         .      |      size: 5 0x9-0x9.7 (1)
     |                                               |                |      content{}: 0xa-0xe.7 (5)
     |                                               |                |        ft{}: 0xa-0xe.7 (5)
0x000|                              01               |          .     |          n: 1 0xa-0xa.7 (1)
     |                                               |                |          x[0:1]: 0xb-0xe.7 (4)
     |                                               |                |            [0]{}: ft 0xb-0xe.7 (4)
0x000|                                 60            |           `    |              tag: 0x60 (valid) 0xb-0xb.7 (1)
     |                                               |                |              rt1{}: 0xc-0xc.7 (1)
0x000|                                    00         |            .   |                n: 0 0xc-0xc.7 (1)
     |                                               |                |                x[0:0]: 0xd-NA (0)
     |                                               |                |              rt2{}: 0xd-0xe.7 (2)
0x000|                                       01      |             .  |                n: 1 0xd-0xd.7 (1)
     |                                               |                |                x[0:1]: 0xe-0xe.7 (1)
0x000|                                          7b   |              { |                  [0]: "v128" (0x7b) t 0xe-0xe.7 (1)
     |                                               |                |    [1]{}: section 0xf-0x19.7 (11)
0x000|                                             03|               .|      id: "function section" (3) 0xf-0xf.7 (1)
0x010|09                                             |.               |      size: 9 0x10-0x10.7 (1)
     |                                               |                |      content{}: 0x11-0x19.7 (9)
     |                                               |                |        x{}: 0x11-0x19.7 (9)
0x010|   08                                          | .              |          n: 8 0x11-0x11.7 (1)
     |                                               |                |          x[0:8]: 0x12-0x19.7 (8)
0x010|      00                                       |  .             |            [0]: 0 x 0x12-0x12.7 (1)
0x010|         00                                    |   .            |            [1]: 0 x 0x13-0x13.7 (1)
0x010|            00                                 |    .           |            [2]: 0 x 0x14-0x14.7 (1)
0x010|               00                              |     .          |            [3]: 0 x 0x15-0x15.7 (1)
0x010|                  00                           |      .         |            [4]: 0 x 0x16-0x16.7 (1)
0x010|                     00                        |       .        |            [5]: 0 x 0x17-0x17.7 (1)
0x010|                        00                     |        .       |            [6]: 0 x 0x18-0x18.7 (1)
0x010|                           00                  |         .      |            [7]: 0 x 0x19-0x19.7 (1)
     |                                               |                |    [2]{}: section 0x1a-0x1e.7 (5)
0x010|                              05               |          .     |      id: "memory section" (5) 0x1a-0x1a.7 (1)
0x010|                                 03            |           .    |      size: 3 0x1b-0x1b.7 (1)
     |                                               |                |      content{}: 0x1c-0x1e.7 (3)
     |                                               |                |        mem{}: 0x1c-0x1e.7 (3)
0x010|                                    01         |            .   |          n: 1 0x1c-0x1c.7 (1)
     |                                               |                |          x[0:1]: 0x1d-0x1e.7 (2)
     |                                               |                |            [0]{}: mem 0x1d-0x1e.7 (2)
     |                                               |                |              lim{}: 0x1d-0x1e.7 (2)
0x010|                                       00      |             .  |                tag: 0x0 0x1d-0x1d.7 (1)
0x010|                                          01   |              . |                n: 1 0x1e-0x1e.7 (1)
     |                                               |                |    [3]{}: section 0x1f-0xc2.7 (164)
0x010|                                             07|               .|      id: "export section" (7) 0x1f-0x1f.7 (1)
0x020|a1 01                                          |..              |      size: 161 0x20-0x21.7 (2)
     |                                               |                |      content{}: 0x22-0xc2.7 (161)
     |                                               |                |        ex{}: 0x22-0xc2.7 (161)
0x020|      08                                       |  .             |          n: 8 0x22-0x22.7 (1)
     |                                               |                |          x[0:8]: 0x23-0xc2.7 (160)
     |                                               |                |            [0]{}: ex 0x23-0x35.7 (19)
     |                                               |                |              nm{}: 0x23-0x33.7 (17)
0x020|         10                                    |   .            |                n: 16 0x23-0x23.7 (1)
0x020|            76 31 32 38 2e 73 74 6f 72 65 5f 69|    v128.store_i|                b: "v128.store_i8x16" 0x24-0x33.7 (16)
0x030|38 78 31 36                                    |8x16            |
     |                                               |                |              d{}: 0x34-0x35.7 (2)
0x030|            00                                 |    .           |                tag: "funcidx" (0x0) 0x34-0x34.7 (1)
0x030|               00                              |     .          |                x: 0 0x35-0x35.7 (1)
     |                                               |                |            [1]{}: ex 0x36-0x48.7 (19)
     |                                               |                |              nm{}: 0x36-0x46.7 (17)
0x030|                  10                           |      .         |                n: 16 0x36-0x36.7 (1)
0x030|                     76 31 32 38 2e 73 74 6f 72|       v128.stor|                b: "v128.store_i16x8" 0x37-0x46.7 (16)
0x040|65 5f 69 31 36 78 38                           |e_i16x8         |
     |                                               |                |              d{}: 0x47-0x48.7 (2)
0x040|                     00                        |       .        |                tag: "funcidx" (0x0) 0x47-0x47.7 (1)
0x040|                        01                     |        .       |                x: 1 0x48-0x48.7 (1)
     |                                               |                |            [2]{}: ex 0x49-0x5d.7 (21)
     |                                               |                |              nm{}: 0x49-0x5b.7 (19)
0x040|                           12                  |         .      |                n: 18 0x49-0x49.7 (1)
0x040|                              76 31 32 38 2e 73|          v128.s|                b: "v128.store_i16x8_2" 0x4a-0x5b.7 (18)
0x050|74 6f 72 65 5f 69 31 36 78 38 5f 32            |tore_i16x8_2    |
     |                                               |                |              d{}: 0x5c-0x5d.7 (2)
0x050|                                    00         |            .   |                tag: "funcidx" (0x0) 0x5c-0x5c.7 (1)
0x050|                                       02      |             .  |                x: 2 0x5d-0x5d.7 (1)
     |                                               |                |            [3]{}: ex 0x5e-0x72.7 (21)
     |                                               |                |              nm{}: 0x5e-0x70.7 (19)
0x050|                                          12   |              . |                n: 18 0x5e-0x5e.7 (1)
0x050|                                             76|               v|                b: "v128.store_i16x8_3" 0x5f-0x70.7 (18)
0x060|31 32 38 2e 73 74 6f 72 65 5f 69 31 36 78 38 5f|128.store_i16x8_|
0x070|33                                             |3               |
     |                                               |                |              d{}: 0x71-0x72.7 (2)
0x070|   00                                          | .              |                tag: "funcidx" (0x0) 0x71-0x71.7 (1)
0x070|      03                                       |  .             |                x: 3 0x72-0x72.7 (1)
     |                                               |                |            [4]{}: ex 0x73-0x85.7 (19)
     |                                               |                |              nm{}: 0x73-0x83.7 (17)
0x070|         10                                    |   .            |                n: 16 0x73-0x73.7 (1)
0x070|            76 31 32 38 2e 73 74 6f 72 65 5f 69|    v128.store_i|                b: "v128.store_i32x4" 0x74-0x83.7 (16)
0x080|33 32 78 34                                    |32x4            |
     |                                               |                |              d{}: 0x84-0x85.7 (2)
0x080|            00                                 |    .           |                tag: "funcidx" (0x0) 0x84-0x84.7 (1)
0x080|               04                              |     .          |                x: 4 0x85-0x85.7 (1)
     |                                               |                |            [5]{}: ex 0x86-0x9a.7 (21)
     |                                               |                |              nm{}: 0x86-0x98.7 (19)
0x080|                  12                           |      .         |                n: 18 0x86-0x86.7 (1)
0x080|                     76 31 32 38 2e 73 74 6f 72|       v128.stor|                b: "v128.store_i32x4_2" 0x87-0x98.7 (18)
0x090|65 5f 69 33 32 78 34 5f 32                     |e_i32x4_2       |
     |                                               |                |              d{}: 0x99-0x9a.7 (2)
0x090|                           00                  |         .      |                tag: "funcidx" (0x0) 0x99-0x99.7 (1)
0x090|                              05               |          .     |                x: 5 0x9a-0x9a.7 (1)
     |                                               |                |            [6]{}: ex 0x9b-0xaf.7 (21)
     |                                               |                |              nm{}: 0x9b-0xad.7 (19)
0x090|                                 12            |           .    |                n: 18 0x9b-0x9b.7 (1)
0x090|                                    76 31 32 38|            v128|                b: "v128.store_i32x4_3" 0x9c-0xad.7 (18)
0x0a0|2e 73 74 6f 72 65 5f 69 33 32 78 34 5f 33      |.store_i32x4_3  |
     |                                               |                |              d{}: 0xae-0xaf.7 (2)
0x0a0|                                          00   |              . |                tag: "funcidx" (0x0) 0xae-0xae.7 (1)
0x0a0|                                             06|               .|                x: 6 0xaf-0xaf.7 (1)
     |                                               |                |            [7]{}: ex 0xb0-0xc2.7 (19)
     |                                               |                |              nm{}: 0xb0-0xc0.7 (17)
0x0b0|10                                             |.               |                n: 16 0xb0-0xb0.7 (1)
0x0b0|   76 31 32 38 2e 73 74 6f 72 65 5f 66 33 32 78| v128.store_f32x|                b: "v128.store_f32x4" 0xb1-0xc0.7 (16)
0x0c0|34                                             |4               |
     |                                               |                |              d{}: 0xc1-0xc2.7 (2)
0x0c0|   00                                          | .              |                tag: "funcidx" (0x0) 0xc1-0xc1.7 (1)
0x0c0|      07                                       |  .             |                x: 7 0xc2-0xc2.7 (1)
     |                                               |                |    [4]{}: section 0xc3-0x1ce.7 (268)
0x0c0|         0a                                    |   .            |      id: "code section" (10) 0xc3-0xc3.7 (1)
0x0c0|            89 02                              |    ..          |      size: 265 0xc4-0xc5.7 (2)
     |                                               |                |      content{}: 0xc6-0x1ce.7 (265)
     |                                               |                |        code{}: 0xc6-0x1ce.7 (265)
0x0c0|                  08                           |      .         |          n: 8 0xc6-0xc6.7 (1)
     |                                               |                |          x[0:8]: 0xc7-0x1ce.7 (264)
     |                                               |                |            [0]{}: code 0xc7-0xe7.7 (33)
0x0c0|                     20                        |                |              size: 32 0xc7-0xc7.7 (1)
     |                                               |                |              code{}: 0xc8-0xe7.7 (32)
     |                                               |                |                t{}: 0xc8-0xc8.7 (1)
0x0c0|                        00                     |        .       |                  n: 0 0xc8-0xc8.7 (1)
     |                                               |                |                  x[0:0]: 0xc9-NA (0)
     |                                               |                |                e[0:6]: 0xc9-0xe7.7 (31)
     |                                               |                |                  [0]{}: in 0xc9-0xca.7 (2)
0x0c0|                           41                  |         A      |                    i32.const: 0x41 (valid) 0xc9-0xc9.7 (1)
0x0c0|                              00               |          .     |                    n: 0 0xca-0xca.7 (1)
     |                                               |                |                  [1]{}: in 0xcb-0xdc.7 (18)
0x0c0|                                 fd            |           .    |                    prefix: 0xfd (valid) 0xcb-0xcb.7 (1)
0x0c0|                                    0c         |            .   |                    v128.const: 12 (valid) 0xcc-0xcc.7 (1)
0x0c0|                                       00 01 02|             ...|                    bytes: raw bits 0xcd-0xdc.7 (16)
0x0d0|03 04 05 06 07 08 09 0a 0b 0c 0d 0e 0f         |.............   |
     |                                               |                |                  [2]{}: in 0xdd-0xe0.7 (4)
0x0d0|                                       fd      |             .  |                    prefix: 0xfd (valid) 0xdd-0xdd.7 (1)
0x0d0|                                          0b   |              . |                    v128.store: 11 (valid) 0xde-0xde.7 (1)
     |                                               |                |                    m{}: 0xdf-0xe0.7 (2)
0x0d0|                                             04|               .|                      a: 4 0xdf-0xdf.7 (1)
0x0e0|00                                             |.               |                      o: 0 0xe0-0xe0.7 (1)
     |                                               |                |                  [3]{}: in 0xe1-0xe2.7 (2)
0x0e0|   41                                          | A              |                    i32.const: 0x41 (valid) 0xe1-0xe1.7 (1)
0x0e0|      00                                       |  .             |                    n: 0 0xe2-0xe2.7 (1)
     |                                               |                |                  [4]{}: in 0xe3-0xe6.7 (4)
0x0e0|         fd                                    |   .            |                    prefix: 0xfd (valid) 0xe3-0xe3.7 (1)
0x0e0|            00                                 |    .           |                    v128.load: 0 (valid) 0xe4-0xe4.7 (1)
     |                                               |                |                    m{}: 0xe5-0xe6.7 (2)
0x0e0|               04                              |     .          |                      a: 4 0xe5-0xe5.7 (1)
0x0e0|                  00                           |      .         |                      o: 0 0xe6-0xe6.7 (1)
     |                                               |                |                  [5]{}: in 0xe7-0xe7.7 (1)
0x0e0|                     0b                        |       .        |                    end: 0xb (valid) 0xe7-0xe7.7 (1)
     |                                               |                |            [1]{}: code 0xe8-0x108.7 (33)
0x0e0|                        20                     |                |              size: 32 0xe8-0xe8.7 (1)
     |                                               |                |              code{}: 0xe9-0x108.7 (32)
     |                                               |                |                t{}: 0xe9-0xe9.7 (1)
0x0e0|                           00                  |         .      |                  n: 0 0xe9-0xe9.7 (1)
     |                                               |                |                  x[0:0]: 0xea-NA (0)
     |                                               |                |                e[0:6]: 0xea-0x108.7 (31)
     |                                               |                |                  [0]{}: in 0xea-0xeb.7 (2)
0x0e0|                              41               |          A     |                    i32.const: 0x41 (valid) 0xea-0xea.7 (1)
0x0e0|                                 00            |           .    |                    n: 0 0xeb-0xeb.7 (1)
     |                                               |                |                  [1]{}: in 0xec-0xfd.7 (18)
0x0e0|                                    fd         |            .   |                    prefix: 0xfd (valid) 0xec-0xec.7 (1)
0x0e0|                                       0c      |             .  |                    v128.const: 12 (valid) 0xed-0xed.7 (1)
0x0e0|                                          00 00|              ..|                    bytes: raw bits 0xee-0xfd.7 (16)
0x0f0|01 00 02 00 03 00 04 00 05 00 06 00 07 00      |..............  |
     |                                               |                |                  [2]{}: in 0xfe-0x101.7 (4)
0x0f0|                                          fd   |              . |                    prefix: 0xfd (valid) 0xfe-0xfe.7 (1)
0x0f0|                                             0b|               .|                    v128.store: 11 (valid) 0xff-0xff.7 (1)
     |                                               |                |                    m{}: 0x100-0x101.7 (2)
0x100|04                                             |.               |                      a: 4 0x100-0x100.7 (1)
0x100|   00                                          | .              |                      o: 0 0x101-0x101.7 (1)
     |                                               |                |                  [3]{}: in 0x102-0x103.7 (2)
0x100|      41                                       |  A             |                    i32.const: 0x41 (valid) 0x102-0x102.7 (1)
0x100|         00                                    |   .            |                    n: 0 0x103-0x103.7 (1)
     |                                               |                |                  [4]{}: in 0x104-0x107.7 (4)
0x100|            fd                                 |    .           |                    prefix: 0xfd (valid) 0x104-0x104.7 (1)
0x100|               00                              |     .          |                    v128.load: 0 (valid) 0x105-0x105.7 (1)
     |                                               |                |                    m{}: 0x106-0x107.7 (2)
0x100|                  04                           |      .         |                      a: 4 0x106-0x106.7 (1)
0x100|                     00                        |       .        |                      o: 0 0x107-0x107.7 (1)
     |                                               |                |                  [5]{}: in 0x108-0x108.7 (1)
0x100|                        0b                     |        .       |                    end: 0xb (valid) 0x108-0x108.7 (1)
     |                                               |                |            [2]{}: code 0x109-0x129.7 (33)
0x100|                           20                  |                |              size: 32 0x109-0x109.7 (1)
     |                                               |                |              code{}: 0x10a-0x129.7 (32)
     |                                               |                |                t{}: 0x10a-0x10a.7 (1)
0x100|                              00               |          .     |                  n: 0 0x10a-0x10a.7 (1)
     |                                               |                |                  x[0:0]: 0x10b-NA (0)
     |                                               |                |                e[0:6]: 0x10b-0x129.7 (31)
     |                                               |                |                  [0]{}: in 0x10b-0x10c.7 (2)
0x100|                                 41            |           A    |                    i32.const: 0x41 (valid) 0x10b-0x10b.7 (1)
0x100|                                    00         |            .   |                    n: 0 0x10c-0x10c.7 (1)
     |                                               |                |                  [1]{}: in 0x10d-0x11e.7 (18)
0x100|                                       fd      |             .  |                    prefix: 0xfd (valid) 0x10d-0x10d.7 (1)
0x100|                                          0c   |              . |                    v128.const: 12 (valid) 0x10e-0x10e.7 (1)
0x100|                                             39|               9|                    bytes: raw bits 0x10f-0x11e.7 (16)
0x110|30 39 30 39 30 39 30 39 30 39 30 39 30 39 30   |090909090909090 |
     |                                               |                |                  [2]{}: in 0x11f-0x122.7 (4)
0x110|                                             fd|               .|                    prefix: 0xfd (valid) 0x11f-0x11f.7 (1)
0x120|0b                                             |.               |                    v128.store: 11 (valid) 0x120-0x120.7 (1)
     |                                               |                |                    m{}: 0x121-0x122.7 (2)
0x120|   04                                          | .              |                      a: 4 0x121-0x121.7 (1)
0x120|      00                                       |  .             |                      o: 0 0x122-0x122.7 (1)
     |                                               |                |                  [3]{}: in 0x123-0x124.7 (2)
0x120|         41                                    |   A            |                    i32.const: 0x41 (valid) 0x123-0x123.7 (1)
0x120|            00                                 |    .           |                    n: 0 0x124-0x124.7 (1)
     |                                               |                |                  [4]{}: in 0x125-0x128.7 (4)
0x120|               fd                              |     .          |                    prefix: 0xfd (valid) 0x125-0x125.7 (1)
0x120|                  00                           |      .         |                    v128.load: 0 (valid) 0x126-0x126.7 (1)
     |                                               |                |                    m{}: 0x127-0x128.7 (2)
0x120|                     04                        |       .        |                      a: 4 0x127-0x127.7 (1)
0x120|                        00                     |        .       |                      o: 0 0x128-0x128.7 (1)
     |                                               |                |                  [5]{}: in 0x129-0x129.7 (1)
0x120|                           0b                  |         .      |                    end: 0xb (valid) 0x129-0x129.7 (1)
     |                                               |                |            [3]{}: code 0x12a-0x14a.7 (33)
0x120|                              20               |                |              size: 32 0x12a-0x12a.7 (1)
     |                                               |                |              code{}: 0x12b-0x14a.7 (32)
     |                                               |                |                t{}: 0x12b-0x12b.7 (1)
0x120|                                 00            |           .    |                  n: 0 0x12b-0x12b.7 (1)
     |                                               |                |                  x[0:0]: 0x12c-NA (0)
     |                                               |                |                e[0:6]: 0x12c-0x14a.7 (31)
     |                                               |                |                  [0]{}: in 0x12c-0x12d.7 (2)
0x120|                                    41         |            A   |                    i32.const: 0x41 (valid) 0x12c-0x12c.7 (1)
0x120|                                       00      |             .  |                    n: 0 0x12d-0x12d.7 (1)
     |                                               |                |                  [1]{}: in 0x12e-0x13f.7 (18)
0x120|                                          fd   |              . |                    prefix: 0xfd (valid) 0x12e-0x12e.7 (1)
0x120|                                             0c|               .|                    v128.const: 12 (valid) 0x12f-0x12f.7 (1)
0x130|34 12 34 12 34 12 34 12 34 12 34 12 34 12 34 12|4.4.4.4.4.4.4.4.|                    bytes: raw bits 0x130-0x13f.7 (16)
     |                                               |                |                  [2]{}: in 0x140-0x143.7 (4)
0x140|fd                                             |.               |                    prefix: 0xfd (valid) 0x140-0x140.7 (1)
0x140|   0b                                          | .              |                    v128.store: 11 (valid) 0x141-0x141.7 (1)
     |                                               |                |                    m{}: 0x142-0x143.7 (2)
0x140|      04                                       |  .             |                      a: 4 0x142-0x142.7 (1)
0x140|         00                                    |   .            |                      o: 0 0x143-0x143.7 (1)
     |                                               |                |                  [3]{}: in 0x144-0x145.7 (2)
0x140|            41                                 |    A           |                    i32.const: 0x41 (valid) 0x144-0x144.7 (1)
0x140|               00                              |     .          |                    n: 0 0x145-0x145.7 (1)
     |                                               |                |                  [4]{}: in 0x146-0x149.7 (4)
0x140|                  fd                           |      .         |                    prefix: 0xfd (valid) 0x146-0x146.7 (1)
0x140|                     00                        |       .        |                    v128.load: 0 (valid) 0x147-0x147.7 (1)
     |                                               |                |                    m{}: 0x148-0x149.7 (2)
0x140|                        04                     |        .       |                      a: 4 0x148-0x148.7 (1)
0x140|                           00                  |         .      |                      o: 0 0x149-0x149.7 (1)
     |                                               |                |                  [5]{}: in 0x14a-0x14a.7 (1)
0x140|                              0b               |          .     |                    end: 0xb (valid) 0x14a-0x14a.7 (1)
     |                                               |                |            [4]{}: code 0x14b-0x16b.7 (33)
0x140|                                 20            |                |              size: 32 0x14b-0x14b.7 (1)
     |                                               |                |              code{}: 0x14c-0x16b.7 (32)
     |                                               |                |                t{}: 0x14c-0x14c.7 (1)
0x140|                                    00         |            .   |                  n: 0 0x14c-0x14c.7 (1)
     |                                               |                |                  x[0:0]: 0x14d-NA (0)
     |                                               |                |                e[0:6]: 0x14d-0x16b.7 (31)
     |                                               |                |                  [0]{}: in 0x14d-0x14e.7 (2)
0x140|                                       41      |             A  |                    i32.const: 0x41 (valid) 0x14d-0x14d.7 (1)
0x140|                                          00   |              . |                    n: 0 0x14e-0x14e.7 (1)
     |                                               |                |                  [1]{}: in 0x14f-0x160.7 (18)
0x140|                                             fd|               .|                    prefix: 0xfd (valid) 0x14f-0x14f.7 (1)
0x150|0c                                             |.               |                    v128.const: 12 (valid) 0x150-0x150.7 (1)
0x150|   00 00 00 00 01 00 00 00 02 00 00 00 03 00 00| ...............|                    bytes: raw bits 0x151-0x160.7 (16)
0x160|00                                             |.               |
     |                                               |                |                  [2]{}: in 0x161-0x164.7 (4)
0x160|   fd                                          | .              |                    prefix: 0xfd (valid) 0x161-0x161.7 (1)
0x160|      0b                                       |  .             |                    v128.store: 11 (valid) 0x162-0x162.7 (1)
     |                                               |                |                    m{}: 0x163-0x164.7 (2)
0x160|         04                                    |   .            |                      a: 4 0x163-0x163.7 (1)
0x160|            00                                 |    .           |                      o: 0 0x164-0x164.7 (1)
     |                                               |                |                  [3]{}: in 0x165-0x166.7 (2)
0x160|               41                              |     A          |                    i32.const: 0x41 (valid) 0x165-0x165.7 (1)
0x160|                  00                           |      .         |                    n: 0 0x166-0x166.7 (1)
     |                                               |                |                  [4]{}: in 0x167-0x16a.7 (4)
0x160|                     fd                        |       .        |                    prefix: 0xfd (valid) 0x167-0x167.7 (1)
0x160|                        00                     |        .       |                    v128.load: 0 (valid) 0x168-0x168.7 (1)
     |                                               |                |                    m{}: 0x169-0x16a.7 (2)
0x160|                           04                  |         .      |                      a: 4 0x169-0x169.7 (1)
0x160|                              00               |          .     |                      o: 0 0x16a-0x16a.7 (1)
     |                                               |                |                  [5]{}: in 0x16b-0x16b.7 (1)
0x160|                                 0b            |           .    |                    end: 0xb (valid) 0x16b-0x16b.7 (1)
     |                                               |                |            [5]{}: code 0x16c-0x18c.7 (33)
0x160|                                    20         |                |              size: 32 0x16c-0x16c.7 (1)
     |                                               |                |              code{}: 0x16d-0x18c.7 (32)
     |                                               |                |                t{}: 0x16d-0x16d.7 (1)
0x160|                                       00      |             .  |                  n: 0 0x16d-0x16d.7 (1)
     |                                               |                |                  x[0:0]: 0x16e-NA (0)
     |                                               |                |                e[0:6]: 0x16e-0x18c.7 (31)
     |                                               |                |                  [0]{}: in 0x16e-0x16f.7 (2)
0x160|                                          41   |              A |                    i32.const: 0x41 (valid) 0x16e-0x16e.7 (1)
0x160|                                             00|               .|                    n: 0 0x16f-0x16f.7 (1)
     |                                               |                |                  [1]{}: in 0x170-0x181.7 (18)
0x170|fd                                             |.               |                    prefix: 0xfd (valid) 0x170-0x170.7 (1)
0x170|   0c                                          | .              |                    v128.const: 12 (valid) 0x171-0x171.7 (1)
0x170|      15 cd 5b 07 15 cd 5b 07 15 cd 5b 07 15 cd|  ..[...[...[...|                    bytes: raw bits 0x172-0x181.7 (16)
0x180|5b 07                                          |[.              |
     |                                               |                |                  [2]{}: in 0x182-0x185.7 (4)
0x180|      fd                                       |  .             |                    prefix: 0xfd (valid) 0x182-0x182.7 (1)
0x180|         0b                                    |   .            |                    v128.store: 11 (valid) 0x183-0x183.7 (1)
     |                                               |                |                    m{}: 0x184-0x185.7 (2)
0x180|            04                                 |    .           |                      a: 4 0x184-0x184.7 (1)
0x180|               00                              |     .          |                      o: 0 0x185-0x185.7 (1)
     |                                               |                |                  [3]{}: in 0x186-0x187.7 (2)
0x180|                  41                           |      A         |                    i32.const: 0x41 (valid) 0x186-0x186.7 (1)
0x180|                     00                        |       .        |                    n: 0 0x187-0x187.7 (1)
     |                                               |                |                  [4]{}: in 0x188-0x18b.7 (4)
0x180|                        fd                     |        .       |                    prefix: 0xfd (valid) 0x188-0x188.7 (1)
0x180|                           00                  |         .      |                    v128.load: 0 (valid) 0x189-0x189.7 (1)
     |                                               |                |                    m{}: 0x18a-0x18b.7 (2)
0x180|                              04               |          .     |                      a: 4 0x18a-0x18a.7 (1)
0x180|                                 00            |           .    |                      o: 0 0x18b-0x18b.7 (1)
     |                                               |                |                  [5]{}: in 0x18c-0x18c.7 (1)
0x180|                                    0b         |            .   |                    end: 0xb (valid) 0x18c-0x18c.7 (1)
     |                                               |                |            [6]{}: code 0x18d-0x1ad.7 (33)
0x180|                                       20      |                |              size: 32 0x18d-0x18d.7 (1)
     |                                               |                |              code{}: 0x18e-0x1ad.7 (32)
     |                                               |                |                t{}: 0x18e-0x18e.7 (1)
0x180|                                          00   |              . |                  n: 0 0x18e-0x18e.7 (1)
     |                                               |                |                  x[0:0]: 0x18f-NA (0)
     |                                               |                |                e[0:6]: 0x18f-0x1ad.7 (31)
     |                                               |                |                  [0]{}: in 0x18f-0x190.7 (2)
0x180|                                             41|               A|                    i32.const: 0x41 (valid) 0x18f-0x18f.7 (1)
0x190|00                                             |.               |                    n: 0 0x190-0x190.7 (1)
     |                                               |                |                  [1]{}: in 0x191-0x1a2.7 (18)
0x190|   fd                                          | .              |                    prefix: 0xfd (valid) 0x191-0x191.7 (1)
0x190|      0c                                       |  .             |                    v128.const: 12 (valid) 0x192-0x192.7 (1)
0x190|         78 56 34 12 78 56 34 12 78 56 34 12 78|   xV4.xV4.xV4.x|                    bytes: raw bits 0x193-0x1a2.7 (16)
0x1a0|56 34 12                                       |V4.             |
     |                                               |                |                  [2]{}: in 0x1a3-0x1a6.7 (4)
0x1a0|         fd                                    |   .            |                    prefix: 0xfd (valid) 0x1a3-0x1a3.7 (1)
0x1a0|            0b                                 |    .           |                    v128.store: 11 (valid) 0x1a4-0x1a4.7 (1)
     |                                               |                |                    m{}: 0x1a5-0x1a6.7 (2)
0x1a0|               04                              |     .          |                      a: 4 0x1a5-0x1a5.7 (1)
0x1a0|                  00                           |      .         |                      o: 0 0x1a6-0x1a6.7 (1)
     |                                               |                |                  [3]{}: in 0x1a7-0x1a8.7 (2)
0x1a0|                     41                        |       A        |                    i32.const: 0x41 (valid) 0x1a7-0x1a7.7 (1)
0x1a0|                        00                     |        .       |                    n: 0 0x1a8-0x1a8.7 (1)
     |                                               |                |                  [4]{}: in 0x1a9-0x1ac.7 (4)
0x1a0|                           fd                  |         .      |                    prefix: 0xfd (valid) 0x1a9-0x1a9.7 (1)
0x1a0|                              00               |          .     |                    v128.load: 0 (valid) 0x1aa-0x1aa.7 (1)
     |                                               |                |                    m{}: 0x1ab-0x1ac.7 (2)
0x1a0|                                 04            |           .    |                      a: 4 0x1ab-0x1ab.7 (1)
0x1a0|                                    00         |            .   |                      o: 0 0x1ac-0x1ac.7 (1)
     |                                               |                |                  [5]{}: in 0x1ad-0x1ad.7 (1)
0x1a0|                                       0b      |             .  |                    end: 0xb (valid) 0x1ad-0x1ad.7 (1)
     |                                               |                |            [7]{}: code 0x1ae-0x1ce.7 (33)
0x1a0|                                          20   |                |              size: 32 0x1ae-0x1ae.7 (1)
     |                                               |                |              code{}: 0x1af-0x1ce.7 (32)
     |                                               |                |                t{}: 0x1af-0x1af.7 (1)
0x1a0|                                             00|               .|                  n: 0 0x1af-0x1af.7 (1)
     |                                               |                |                  x[0:0]: 0x1b0-NA (0)
     |                                               |                |                e[0:6]: 0x1b0-0x1ce.7 (31)
     |                                               |                |                  [0]{}: in 0x1b0-0x1b1.7 (2)
0x1b0|41                                             |A               |                    i32.const: 0x41 (valid) 0x1b0-0x1b0.7 (1)
0x1b0|   00                                          | .              |                    n: 0 0x1b1-0x1b1.7 (1)
     |                                               |                |                  [1]{}: in 0x1b2-0x1c3.7 (18)
0x1b0|      fd                                       |  .             |                    prefix: 0xfd (valid) 0x1b2-0x1b2.7 (1)
0x1b0|         0c                                    |   .            |                    v128.const: 12 (valid) 0x1b3-0x1b3.7 (1)
0x1b0|            00 00 00 00 00 00 80 3f 00 00 00 40|    .......?...@|                    bytes: raw bits 0x1b4-0x1c3.7 (16)
0x1c0|00 00 40 40                                    |..@@            |
     |                                               |                |                  [2]{}: in 0x1c4-0x1c7.7 (4)
0x1c0|            fd                                 |    .           |                    prefix: 0xfd (valid) 0x1c4-0x1c4.7 (1)
0x1c0|               0b                              |     .          |                    v128.store: 11 (valid) 0x1c5-0x1c5.7 (1)
     |                                               |                |                    m{}: 0x1c6-0x1c7.7 (2)
0x1c0|                  04                           |      .         |                      a: 4 0x1c6-0x1c6.7 (1)
0x1c0|                     00                        |       .        |                      o: 0 0x1c7-0x1c7.7 (1)
     |                                               |                |                  [3]{}: in 0x1c8-0x1c9.7 (2)
0x1c0|                        41                     |        A       |                    i32.const: 0x41 (valid) 0x1c8-0x1c8.7 (1)
0x1c0|                           00                  |         .      |                    n: 0 0x1c9-0x1c9.7 (1)
     |                                               |                |                  [4]{}: in 0x1ca-0x1cd.7 (4)
0x1c0|                              fd               |          .     |                    prefix: 0xfd (valid) 0x1ca-0x1ca.7 (1)
0x1c0|                                 00            |           .    |                    v128.load: 0 (valid) 0x1cb-0x1cb.7 (1)
     |                                               |                |                    m{}: 0x1cc-0x1cd.7 (2)
0x1c0|                                    04         |            .   |                      a: 4 0x1cc-0x1cc.7 (1)
0x1c0|                                       00      |             .  |                      o: 0 0x1cd-0x1cd.7 (1)
     |                                               |                |                  [5]{}: in 0x1ce-0x1ce.7 (1)
0x1c0|                                          0b|  |              .||                    end: 0xb (valid) 0x1ce-0x1ce.7 (1)
