$ fq -d wasm dv simd_splat-1.wasm
     |00 01 02 03 04 05 06 07 08 09 0a 0b 0c 0d 0e 0f|0123456789abcdef|.{}: simd_splat-1.wasm (wasm) 0x0-0x10e.7 (271)
0x000|00 61 73 6d                                    |.asm            |  magic: raw bits (valid) 0x0-0x3.7 (4)
0x000|            01 00 00 00                        |    ....        |  version: 1 0x4-0x7.7 (4)
     |                                               |                |  sections[0:5]: 0x8-0x10e.7 (263)
     |                                               |                |    [0]{}: section 0x8-0x19.7 (18)
0x000|                        01                     |        .       |      id: "type_section" (1) 0x8-0x8.7 (1)
0x000|                           10                  |         .      |      size: 16 0x9-0x9.7 (1)
     |                                               |                |      content{}: 0xa-0x19.7 (16)
     |                                               |                |        ft{}: 0xa-0x19.7 (16)
0x000|                              03               |          .     |          n: 3 0xa-0xa.7 (1)
     |                                               |                |          x[0:3]: 0xb-0x19.7 (15)
     |                                               |                |            [0]{}: ft 0xb-0xf.7 (5)
0x000|                                 60            |           `    |              tag: 0x60 (valid) 0xb-0xb.7 (1)
     |                                               |                |              rt1{}: 0xc-0xd.7 (2)
0x000|                                    01         |            .   |                n: 1 0xc-0xc.7 (1)
     |                                               |                |                x[0:1]: 0xd-0xd.7 (1)
0x000|                                       7f      |             .  |                  [0]: "i32" (0x7f) t 0xd-0xd.7 (1)
     |                                               |                |              rt2{}: 0xe-0xf.7 (2)
0x000|                                          01   |              . |                n: 1 0xe-0xe.7 (1)
     |                                               |                |                x[0:1]: 0xf-0xf.7 (1)
0x000|                                             7b|               {|                  [0]: "v128" (0x7b) t 0xf-0xf.7 (1)
     |                                               |                |            [1]{}: ft 0x10-0x14.7 (5)
0x010|60                                             |`               |              tag: 0x60 (valid) 0x10-0x10.7 (1)
     |                                               |                |              rt1{}: 0x11-0x12.7 (2)
0x010|   01                                          | .              |                n: 1 0x11-0x11.7 (1)
     |                                               |                |                x[0:1]: 0x12-0x12.7 (1)
0x010|      7e                                       |  ~             |                  [0]: "i64" (0x7e) t 0x12-0x12.7 (1)
     |                                               |                |              rt2{}: 0x13-0x14.7 (2)
0x010|         01                                    |   .            |                n: 1 0x13-0x13.7 (1)
     |                                               |                |                x[0:1]: 0x14-0x14.7 (1)
0x010|            7b                                 |    {           |                  [0]: "v128" (0x7b) t 0x14-0x14.7 (1)
     |                                               |                |            [2]{}: ft 0x15-0x19.7 (5)
0x010|               60                              |     `          |              tag: 0x60 (valid) 0x15-0x15.7 (1)
     |                                               |                |              rt1{}: 0x16-0x17.7 (2)
0x010|                  01                           |      .         |                n: 1 0x16-0x16.7 (1)
     |                                               |                |                x[0:1]: 0x17-0x17.7 (1)
0x010|                     7c                        |       |        |                  [0]: "f64" (0x7c) t 0x17-0x17.7 (1)
     |                                               |                |              rt2{}: 0x18-0x19.7 (2)
0x010|                        01                     |        .       |                n: 1 0x18-0x18.7 (1)
     |                                               |                |                x[0:1]: 0x19-0x19.7 (1)
0x010|                           7b                  |         {      |                  [0]: "v128" (0x7b) t 0x19-0x19.7 (1)
     |                                               |                |    [1]{}: section 0x1a-0x21.7 (8)
0x010|                              03               |          .     |      id: "function_section" (3) 0x1a-0x1a.7 (1)
0x010|                                 06            |           .    |      size: 6 0x1b-0x1b.7 (1)
     |                                               |                |      content{}: 0x1c-0x21.7 (6)
     |                                               |                |        x{}: 0x1c-0x21.7 (6)
0x010|                                    05         |            .   |          n: 5 0x1c-0x1c.7 (1)
     |                                               |                |          x[0:5]: 0x1d-0x21.7 (5)
0x010|                                       00      |             .  |            [0]: 0 x 0x1d-0x1d.7 (1)
0x010|                                          00   |              . |            [1]: 0 x 0x1e-0x1e.7 (1)
0x010|                                             00|               .|            [2]: 0 x 0x1f-0x1f.7 (1)
0x020|01                                             |.               |            [3]: 1 x 0x20-0x20.7 (1)
0x020|   02                                          | .              |            [4]: 2 x 0x21-0x21.7 (1)
     |                                               |                |    [2]{}: section 0x22-0x26.7 (5)
0x020|      05                                       |  .             |      id: "memory_section" (5) 0x22-0x22.7 (1)
0x020|         03                                    |   .            |      size: 3 0x23-0x23.7 (1)
     |                                               |                |      content{}: 0x24-0x26.7 (3)
     |                                               |                |        mem{}: 0x24-0x26.7 (3)
0x020|            01                                 |    .           |          n: 1 0x24-0x24.7 (1)
     |                                               |                |          x[0:1]: 0x25-0x26.7 (2)
     |                                               |                |            [0]{}: mem 0x25-0x26.7 (2)
     |                                               |                |              lim{}: 0x25-0x26.7 (2)
0x020|               00                              |     .          |                tag: 0x0 0x25-0x25.7 (1)
0x020|                  01                           |      .         |                n: 1 0x26-0x26.7 (1)
     |                                               |                |    [3]{}: section 0x27-0xac.7 (134)
0x020|                     07                        |       .        |      id: "export_section" (7) 0x27-0x27.7 (1)
0x020|                        83 01                  |        ..      |      size: 131 0x28-0x29.7 (2)
     |                                               |                |      content{}: 0x2a-0xac.7 (131)
     |                                               |                |        ex{}: 0x2a-0xac.7 (131)
0x020|                              05               |          .     |          n: 5 0x2a-0x2a.7 (1)
     |                                               |                |          x[0:5]: 0x2b-0xac.7 (130)
     |                                               |                |            [0]{}: ex 0x2b-0x44.7 (26)
     |                                               |                |              nm{}: 0x2b-0x42.7 (24)
0x020|                                 17            |           .    |                n: 23 0x2b-0x2b.7 (1)
0x020|                                    61 73 2d 76|            as-v|                b: "as-v128_store-operand-1" 0x2c-0x42.7 (23)
0x030|31 32 38 5f 73 74 6f 72 65 2d 6f 70 65 72 61 6e|128_store-operan|
0x040|64 2d 31                                       |d-1             |
     |                                               |                |              d{}: 0x43-0x44.7 (2)
0x040|         00                                    |   .            |                tag: "funcidx" (0x0) 0x43-0x43.7 (1)
0x040|            00                                 |    .           |                x: 0 0x44-0x44.7 (1)
     |                                               |                |            [1]{}: ex 0x45-0x5e.7 (26)
     |                                               |                |              nm{}: 0x45-0x5c.7 (24)
0x040|               17                              |     .          |                n: 23 0x45-0x45.7 (1)
0x040|                  61 73 2d 76 31 32 38 5f 73 74|      as-v128_st|                b: "as-v128_store-operand-2" 0x46-0x5c.7 (23)
0x050|6f 72 65 2d 6f 70 65 72 61 6e 64 2d 32         |ore-operand-2   |
     |                                               |                |              d{}: 0x5d-0x5e.7 (2)
0x050|                                       00      |             .  |                tag: "funcidx" (0x0) 0x5d-0x5d.7 (1)
0x050|                                          01   |              . |                x: 1 0x5e-0x5e.7 (1)
     |                                               |                |            [2]{}: ex 0x5f-0x78.7 (26)
     |                                               |                |              nm{}: 0x5f-0x76.7 (24)
0x050|                                             17|               .|                n: 23 0x5f-0x5f.7 (1)
0x060|61 73 2d 76 31 32 38 5f 73 74 6f 72 65 2d 6f 70|as-v128_store-op|                b: "as-v128_store-operand-3" 0x60-0x76.7 (23)
0x070|65 72 61 6e 64 2d 33                           |erand-3         |
     |                                               |                |              d{}: 0x77-0x78.7 (2)
0x070|                     00                        |       .        |                tag: "funcidx" (0x0) 0x77-0x77.7 (1)
0x070|                        02                     |        .       |                x: 2 0x78-0x78.7 (1)
     |                                               |                |            [3]{}: ex 0x79-0x92.7 (26)
     |                                               |                |              nm{}: 0x79-0x90.7 (24)
0x070|                           17                  |         .      |                n: 23 0x79-0x79.7 (1)
0x070|                              61 73 2d 76 31 32|          as-v12|                b: "as-v128_store-operand-4" 0x7a-0x90.7 (23)
0x080|38 5f 73 74 6f 72 65 2d 6f 70 65 72 61 6e 64 2d|8_store-operand-|
0x090|34                                             |4               |
     |                                               |                |              d{}: 0x91-0x92.7 (2)
0x090|   00                                          | .              |                tag: "funcidx" (0x0) 0x91-0x91.7 (1)
0x090|      03                                       |  .             |                x: 3 0x92-0x92.7 (1)
     |                                               |                |            [4]{}: ex 0x93-0xac.7 (26)
     |                                               |                |              nm{}: 0x93-0xaa.7 (24)
0x090|         17                                    |   .            |                n: 23 0x93-0x93.7 (1)
0x090|            61 73 2d 76 31 32 38 5f 73 74 6f 72|    as-v128_stor|                b: "as-v128_store-operand-5" 0x94-0xaa.7 (23)
0x0a0|65 2d 6f 70 65 72 61 6e 64 2d 35               |e-operand-5     |
     |                                               |                |              d{}: 0xab-0xac.7 (2)
0x0a0|                                 00            |           .    |                tag: "funcidx" (0x0) 0xab-0xab.7 (1)
0x0a0|                                    04         |            .   |                x: 4 0xac-0xac.7 (1)
     |                                               |                |    [4]{}: section 0xad-0x10e.7 (98)
0x0a0|                                       0a      |             .  |      id: "code_section" (10) 0xad-0xad.7 (1)
0x0a0|                                          60   |              ` |      size: 96 0xae-0xae.7 (1)
     |                                               |                |      content{}: 0xaf-0x10e.7 (96)
     |                                               |                |        code{}: 0xaf-0x10e.7 (96)
0x0a0|                                             05|               .|          n: 5 0xaf-0xaf.7 (1)
     |                                               |                |          x[0:5]: 0xb0-0x10e.7 (95)
     |                                               |                |            [0]{}: code 0xb0-0xc2.7 (19)
0x0b0|12                                             |.               |              size: 18 0xb0-0xb0.7 (1)
     |                                               |                |              code{}: 0xb1-0xc2.7 (18)
     |                                               |                |                t{}: 0xb1-0xb1.7 (1)
0x0b0|   00                                          | .              |                  n: 0 0xb1-0xb1.7 (1)
     |                                               |                |                  x[0:0]: 0xb2-NA (0)
     |                                               |                |                e[0:7]: 0xb2-0xc2.7 (17)
     |                                               |                |                  [0]{}: in 0xb2-0xb3.7 (2)
0x0b0|      41                                       |  A             |                    opcode: "i32.const" (0x41) (valid) 0xb2-0xb2.7 (1)
0x0b0|         00                                    |   .            |                    n: 0 0xb3-0xb3.7 (1)
     |                                               |                |                  [1]{}: in 0xb4-0xb5.7 (2)
0x0b0|            20                                 |                |                    opcode: "local.get" (0x20) (valid) 0xb4-0xb4.7 (1)
0x0b0|               00                              |     .          |                    x: 0 0xb5-0xb5.7 (1)
     |                                               |                |                  [2]{}: in 0xb6-0xb7.7 (2)
0x0b0|                  fd                           |      .         |                    prefix: 0xfd (valid) 0xb6-0xb6.7 (1)
0x0b0|                     0f                        |       .        |                    opcode: "i8x16.splat" (15) (valid) 0xb7-0xb7.7 (1)
     |                                               |                |                  [3]{}: in 0xb8-0xbb.7 (4)
0x0b0|                        fd                     |        .       |                    prefix: 0xfd (valid) 0xb8-0xb8.7 (1)
0x0b0|                           0b                  |         .      |                    opcode: "v128.store" (11) (valid) 0xb9-0xb9.7 (1)
     |                                               |                |                    m{}: 0xba-0xbb.7 (2)
0x0b0|                              04               |          .     |                      a: 4 0xba-0xba.7 (1)
0x0b0|                                 00            |           .    |                      o: 0 0xbb-0xbb.7 (1)
     |                                               |                |                  [4]{}: in 0xbc-0xbd.7 (2)
0x0b0|                                    41         |            A   |                    opcode: "i32.const" (0x41) (valid) 0xbc-0xbc.7 (1)
0x0b0|                                       00      |             .  |                    n: 0 0xbd-0xbd.7 (1)
     |                                               |                |                  [5]{}: in 0xbe-0xc1.7 (4)
0x0b0|                                          fd   |              . |                    prefix: 0xfd (valid) 0xbe-0xbe.7 (1)
0x0b0|                                             00|               .|                    opcode: "v128.load" (0) (valid) 0xbf-0xbf.7 (1)
     |                                               |                |                    m{}: 0xc0-0xc1.7 (2)
0x0c0|04                                             |.               |                      a: 4 0xc0-0xc0.7 (1)
0x0c0|   00                                          | .              |                      o: 0 0xc1-0xc1.7 (1)
     |                                               |                |                  [6]{}: in 0xc2-0xc2.7 (1)
0x0c0|      0b                                       |  .             |                    opcode: "end" (0xb) (valid) 0xc2-0xc2.7 (1)
     |                                               |                |            [1]{}: code 0xc3-0xd5.7 (19)
0x0c0|         12                                    |   .            |              size: 18 0xc3-0xc3.7 (1)
     |                                               |                |              code{}: 0xc4-0xd5.7 (18)
     |                                               |                |                t{}: 0xc4-0xc4.7 (1)
0x0c0|            00                                 |    .           |                  n: 0 0xc4-0xc4.7 (1)
     |                                               |                |                  x[0:0]: 0xc5-NA (0)
     |                                               |                |                e[0:7]: 0xc5-0xd5.7 (17)
     |                                               |                |                  [0]{}: in 0xc5-0xc6.7 (2)
0x0c0|               41                              |     A          |                    opcode: "i32.const" (0x41) (valid) 0xc5-0xc5.7 (1)
0x0c0|                  00                           |      .         |                    n: 0 0xc6-0xc6.7 (1)
     |                                               |                |                  [1]{}: in 0xc7-0xc8.7 (2)
0x0c0|                     20                        |                |                    opcode: "local.get" (0x20) (valid) 0xc7-0xc7.7 (1)
0x0c0|                        00                     |        .       |                    x: 0 0xc8-0xc8.7 (1)
     |                                               |                |                  [2]{}: in 0xc9-0xca.7 (2)
0x0c0|                           fd                  |         .      |                    prefix: 0xfd (valid) 0xc9-0xc9.7 (1)
0x0c0|                              10               |          .     |                    opcode: "i16x8.splat" (16) (valid) 0xca-0xca.7 (1)
     |                                               |                |                  [3]{}: in 0xcb-0xce.7 (4)
0x0c0|                                 fd            |           .    |                    prefix: 0xfd (valid) 0xcb-0xcb.7 (1)
0x0c0|                                    0b         |            .   |                    opcode: "v128.store" (11) (valid) 0xcc-0xcc.7 (1)
     |                                               |                |                    m{}: 0xcd-0xce.7 (2)
0x0c0|                                       04      |             .  |                      a: 4 0xcd-0xcd.7 (1)
0x0c0|                                          00   |              . |                      o: 0 0xce-0xce.7 (1)
     |                                               |                |                  [4]{}: in 0xcf-0xd0.7 (2)
0x0c0|                                             41|               A|                    opcode: "i32.const" (0x41) (valid) 0xcf-0xcf.7 (1)
0x0d0|00                                             |.               |                    n: 0 0xd0-0xd0.7 (1)
     |                                               |                |                  [5]{}: in 0xd1-0xd4.7 (4)
0x0d0|   fd                                          | .              |                    prefix: 0xfd (valid) 0xd1-0xd1.7 (1)
0x0d0|      00                                       |  .             |                    opcode: "v128.load" (0) (valid) 0xd2-0xd2.7 (1)
     |                                               |                |                    m{}: 0xd3-0xd4.7 (2)
0x0d0|         04                                    |   .            |                      a: 4 0xd3-0xd3.7 (1)
0x0d0|            00                                 |    .           |                      o: 0 0xd4-0xd4.7 (1)
     |                                               |                |                  [6]{}: in 0xd5-0xd5.7 (1)
0x0d0|               0b                              |     .          |                    opcode: "end" (0xb) (valid) 0xd5-0xd5.7 (1)
     |                                               |                |            [2]{}: code 0xd6-0xe8.7 (19)
0x0d0|                  12                           |      .         |              size: 18 0xd6-0xd6.7 (1)
     |                                               |                |              code{}: 0xd7-0xe8.7 (18)
     |                                               |                |                t{}: 0xd7-0xd7.7 (1)
0x0d0|                     00                        |       .        |                  n: 0 0xd7-0xd7.7 (1)
     |                                               |                |                  x[0:0]: 0xd8-NA (0)
     |                                               |                |                e[0:7]: 0xd8-0xe8.7 (17)
     |                                               |                |                  [0]{}: in 0xd8-0xd9.7 (2)
0x0d0|                        41                     |        A       |                    opcode: "i32.const" (0x41) (valid) 0xd8-0xd8.7 (1)
0x0d0|                           00                  |         .      |                    n: 0 0xd9-0xd9.7 (1)
     |                                               |                |                  [1]{}: in 0xda-0xdb.7 (2)
0x0d0|                              20               |                |                    opcode: "local.get" (0x20) (valid) 0xda-0xda.7 (1)
0x0d0|                                 00            |           .    |                    x: 0 0xdb-0xdb.7 (1)
     |                                               |                |                  [2]{}: in 0xdc-0xdd.7 (2)
0x0d0|                                    fd         |            .   |                    prefix: 0xfd (valid) 0xdc-0xdc.7 (1)
0x0d0|                                       11      |             .  |                    opcode: "i32x4.splat" (17) (valid) 0xdd-0xdd.7 (1)
     |                                               |                |                  [3]{}: in 0xde-0xe1.7 (4)
0x0d0|                                          fd   |              . |                    prefix: 0xfd (valid) 0xde-0xde.7 (1)
0x0d0|                                             0b|               .|                    opcode: "v128.store" (11) (valid) 0xdf-0xdf.7 (1)
     |                                               |                |                    m{}: 0xe0-0xe1.7 (2)
0x0e0|04                                             |.               |                      a: 4 0xe0-0xe0.7 (1)
0x0e0|   00                                          | .              |                      o: 0 0xe1-0xe1.7 (1)
     |                                               |                |                  [4]{}: in 0xe2-0xe3.7 (2)
0x0e0|      41                                       |  A             |                    opcode: "i32.const" (0x41) (valid) 0xe2-0xe2.7 (1)
0x0e0|         00                                    |   .            |                    n: 0 0xe3-0xe3.7 (1)
     |                                               |                |                  [5]{}: in 0xe4-0xe7.7 (4)
0x0e0|            fd                                 |    .           |                    prefix: 0xfd (valid) 0xe4-0xe4.7 (1)
0x0e0|               00                              |     .          |                    opcode: "v128.load" (0) (valid) 0xe5-0xe5.7 (1)
     |                                               |                |                    m{}: 0xe6-0xe7.7 (2)
0x0e0|                  04                           |      .         |                      a: 4 0xe6-0xe6.7 (1)
0x0e0|                     00                        |       .        |                      o: 0 0xe7-0xe7.7 (1)
     |                                               |                |                  [6]{}: in 0xe8-0xe8.7 (1)
0x0e0|                        0b                     |        .       |                    opcode: "end" (0xb) (valid) 0xe8-0xe8.7 (1)
     |                                               |                |            [3]{}: code 0xe9-0xfb.7 (19)
0x0e0|                           12                  |         .      |              size: 18 0xe9-0xe9.7 (1)
     |                                               |                |              code{}: 0xea-0xfb.7 (18)
     |                                               |                |                t{}: 0xea-0xea.7 (1)
0x0e0|                              00               |          .     |                  n: 0 0xea-0xea.7 (1)
     |                                               |                |                  x[0:0]: 0xeb-NA (0)
     |                                               |                |                e[0:7]: 0xeb-0xfb.7 (17)
     |                                               |                |                  [0]{}: in 0xeb-0xec.7 (2)
0x0e0|                                 41            |           A    |                    opcode: "i32.const" (0x41) (valid) 0xeb-0xeb.7 (1)
0x0e0|                                    00         |            .   |                    n: 0 0xec-0xec.7 (1)
     |                                               |                |                  [1]{}: in 0xed-0xee.7 (2)
0x0e0|                                       20      |                |                    opcode: "local.get" (0x20) (valid) 0xed-0xed.7 (1)
0x0e0|                                          00   |              . |                    x: 0 0xee-0xee.7 (1)
     |                                               |                |                  [2]{}: in 0xef-0xf0.7 (2)
0x0e0|                                             fd|               .|                    prefix: 0xfd (valid) 0xef-0xef.7 (1)
0x0f0|12                                             |.               |                    opcode: "i64x2.splat" (18) (valid) 0xf0-0xf0.7 (1)
     |                                               |                |                  [3]{}: in 0xf1-0xf4.7 (4)
0x0f0|   fd                                          | .              |                    prefix: 0xfd (valid) 0xf1-0xf1.7 (1)
0x0f0|      0b                                       |  .             |                    opcode: "v128.store" (11) (valid) 0xf2-0xf2.7 (1)
     |                                               |                |                    m{}: 0xf3-0xf4.7 (2)
0x0f0|         04                                    |   .            |                      a: 4 0xf3-0xf3.7 (1)
0x0f0|            00                                 |    .           |                      o: 0 0xf4-0xf4.7 (1)
     |                                               |                |                  [4]{}: in 0xf5-0xf6.7 (2)
0x0f0|               41                              |     A          |                    opcode: "i32.const" (0x41) (valid) 0xf5-0xf5.7 (1)
0x0f0|                  00                           |      .         |                    n: 0 0xf6-0xf6.7 (1)
     |                                               |                |                  [5]{}: in 0xf7-0xfa.7 (4)
0x0f0|                     fd                        |       .        |                    prefix: 0xfd (valid) 0xf7-0xf7.7 (1)
0x0f0|                        00                     |        .       |                    opcode: "v128.load" (0) (valid) 0xf8-0xf8.7 (1)
     |                                               |                |                    m{}: 0xf9-0xfa.7 (2)
0x0f0|                           04                  |         .      |                      a: 4 0xf9-0xf9.7 (1)
0x0f0|                              00               |          .     |                      o: 0 0xfa-0xfa.7 (1)
     |                                               |                |                  [6]{}: in 0xfb-0xfb.7 (1)
0x0f0|                                 0b            |           .    |                    opcode: "end" (0xb) (valid) 0xfb-0xfb.7 (1)
     |                                               |                |            [4]{}: code 0xfc-0x10e.7 (19)
0x0f0|                                    12         |            .   |              size: 18 0xfc-0xfc.7 (1)
     |                                               |                |              code{}: 0xfd-0x10e.7 (18)
     |                                               |                |                t{}: 0xfd-0xfd.7 (1)
0x0f0|                                       00      |             .  |                  n: 0 0xfd-0xfd.7 (1)
     |                                               |                |                  x[0:0]: 0xfe-NA (0)
     |                                               |                |                e[0:7]: 0xfe-0x10e.7 (17)
     |                                               |                |                  [0]{}: in 0xfe-0xff.7 (2)
0x0f0|                                          41   |              A |                    opcode: "i32.const" (0x41) (valid) 0xfe-0xfe.7 (1)
0x0f0|                                             00|               .|                    n: 0 0xff-0xff.7 (1)
     |                                               |                |                  [1]{}: in 0x100-0x101.7 (2)
0x100|20                                             |                |                    opcode: "local.get" (0x20) (valid) 0x100-0x100.7 (1)
0x100|   00                                          | .              |                    x: 0 0x101-0x101.7 (1)
     |                                               |                |                  [2]{}: in 0x102-0x103.7 (2)
0x100|      fd                                       |  .             |                    prefix: 0xfd (valid) 0x102-0x102.7 (1)
0x100|         14                                    |   .            |                    opcode: "f64x2.splat" (20) (valid) 0x103-0x103.7 (1)
     |                                               |                |                  [3]{}: in 0x104-0x107.7 (4)
0x100|            fd                                 |    .           |                    prefix: 0xfd (valid) 0x104-0x104.7 (1)
0x100|               0b                              |     .          |                    opcode: "v128.store" (11) (valid) 0x105-0x105.7 (1)
     |                                               |                |                    m{}: 0x106-0x107.7 (2)
0x100|                  04                           |      .         |                      a: 4 0x106-0x106.7 (1)
0x100|                     00                        |       .        |                      o: 0 0x107-0x107.7 (1)
     |                                               |                |                  [4]{}: in 0x108-0x109.7 (2)
0x100|                        41                     |        A       |                    opcode: "i32.const" (0x41) (valid) 0x108-0x108.7 (1)
0x100|                           00                  |         .      |                    n: 0 0x109-0x109.7 (1)
     |                                               |                |                  [5]{}: in 0x10a-0x10d.7 (4)
0x100|                              fd               |          .     |                    prefix: 0xfd (valid) 0x10a-0x10a.7 (1)
0x100|                                 00            |           .    |                    opcode: "v128.load" (0) (valid) 0x10b-0x10b.7 (1)
     |                                               |                |                    m{}: 0x10c-0x10d.7 (2)
0x100|                                    04         |            .   |                      a: 4 0x10c-0x10c.7 (1)
0x100|                                       00      |             .  |                      o: 0 0x10d-0x10d.7 (1)
     |                                               |                |                  [6]{}: in 0x10e-0x10e.7 (1)
0x100|                                          0b|  |              .||                    opcode: "end" (0xb) (valid) 0x10e-0x10e.7 (1)
