$ fq -d wasm dv simd_i64x2_cmp-0.wasm
    |00 01 02 03 04 05 06 07 08 09 0a 0b 0c 0d 0e 0f|0123456789abcdef|.{}: simd_i64x2_cmp-0.wasm (wasm) 0x0-0x81.7 (130)
0x00|00 61 73 6d                                    |.asm            |  magic: raw bits (valid) 0x0-0x3.7 (4)
0x00|            01 00 00 00                        |    ....        |  version: 1 0x4-0x7.7 (4)
    |                                               |                |  sections[0:4]: 0x8-0x81.7 (122)
    |                                               |                |    [0]{}: section 0x8-0x10.7 (9)
0x00|                        01                     |        .       |      id: "type section" (1) 0x8-0x8.7 (1)
0x00|                           07                  |         .      |      size: 7 0x9-0x9.7 (1)
    |                                               |                |      content{}: 0xa-0x10.7 (7)
    |                                               |                |        ft{}: 0xa-0x10.7 (7)
0x00|                              01               |          .     |          n: 1 0xa-0xa.7 (1)
    |                                               |                |          x[0:1]: 0xb-0x10.7 (6)
    |                                               |                |            [0]{}: ft 0xb-0x10.7 (6)
0x00|                                 60            |           `    |              tag: 0x60 (valid) 0xb-0xb.7 (1)
    |                                               |                |              rt1{}: 0xc-0xe.7 (3)
0x00|                                    02         |            .   |                n: 2 0xc-0xc.7 (1)
    |                                               |                |                x[0:2]: 0xd-0xe.7 (2)
0x00|                                       7b      |             {  |                  [0]: "v128" (0x7b) t 0xd-0xd.7 (1)
0x00|                                          7b   |              { |                  [1]: "v128" (0x7b) t 0xe-0xe.7 (1)
    |                                               |                |              rt2{}: 0xf-0x10.7 (2)
0x00|                                             01|               .|                n: 1 0xf-0xf.7 (1)
    |                                               |                |                x[0:1]: 0x10-0x10.7 (1)
0x10|7b                                             |{               |                  [0]: "v128" (0x7b) t 0x10-0x10.7 (1)
    |                                               |                |    [1]{}: section 0x11-0x19.7 (9)
0x10|   03                                          | .              |      id: "function section" (3) 0x11-0x11.7 (1)
0x10|      07                                       |  .             |      size: 7 0x12-0x12.7 (1)
    |                                               |                |      content{}: 0x13-0x19.7 (7)
    |                                               |                |        x{}: 0x13-0x19.7 (7)
0x10|         06                                    |   .            |          n: 6 0x13-0x13.7 (1)
    |                                               |                |          x[0:6]: 0x14-0x19.7 (6)
0x10|            00                                 |    .           |            [0]: 0 x 0x14-0x14.7 (1)
0x10|               00                              |     .          |            [1]: 0 x 0x15-0x15.7 (1)
0x10|                  00                           |      .         |            [2]: 0 x 0x16-0x16.7 (1)
0x10|                     00                        |       .        |            [3]: 0 x 0x17-0x17.7 (1)
0x10|                        00                     |        .       |            [4]: 0 x 0x18-0x18.7 (1)
0x10|                           00                  |         .      |            [5]: 0 x 0x19-0x19.7 (1)
    |                                               |                |    [2]{}: section 0x1a-0x42.7 (41)
0x10|                              07               |          .     |      id: "export section" (7) 0x1a-0x1a.7 (1)
0x10|                                 27            |           '    |      size: 39 0x1b-0x1b.7 (1)
    |                                               |                |      content{}: 0x1c-0x42.7 (39)
    |                                               |                |        ex{}: 0x1c-0x42.7 (39)
0x10|                                    06         |            .   |          n: 6 0x1c-0x1c.7 (1)
    |                                               |                |          x[0:6]: 0x1d-0x42.7 (38)
    |                                               |                |            [0]{}: ex 0x1d-0x21.7 (5)
    |                                               |                |              nm{}: 0x1d-0x1f.7 (3)
0x10|                                       02      |             .  |                n: 2 0x1d-0x1d.7 (1)
0x10|                                          65 71|              eq|                b: "eq" 0x1e-0x1f.7 (2)
    |                                               |                |              d{}: 0x20-0x21.7 (2)
0x20|00                                             |.               |                tag: "funcidx" (0x0) 0x20-0x20.7 (1)
0x20|   00                                          | .              |                x: 0 0x21-0x21.7 (1)
    |                                               |                |            [1]{}: ex 0x22-0x26.7 (5)
    |                                               |                |              nm{}: 0x22-0x24.7 (3)
0x20|      02                                       |  .             |                n: 2 0x22-0x22.7 (1)
0x20|         6e 65                                 |   ne           |                b: "ne" 0x23-0x24.7 (2)
    |                                               |                |              d{}: 0x25-0x26.7 (2)
0x20|               00                              |     .          |                tag: "funcidx" (0x0) 0x25-0x25.7 (1)
0x20|                  01                           |      .         |                x: 1 0x26-0x26.7 (1)
    |                                               |                |            [2]{}: ex 0x27-0x2d.7 (7)
    |                                               |                |              nm{}: 0x27-0x2b.7 (5)
0x20|                     04                        |       .        |                n: 4 0x27-0x27.7 (1)
0x20|                        6c 74 5f 73            |        lt_s    |                b: "lt_s" 0x28-0x2b.7 (4)
    |                                               |                |              d{}: 0x2c-0x2d.7 (2)
0x20|                                    00         |            .   |                tag: "funcidx" (0x0) 0x2c-0x2c.7 (1)
0x20|                                       02      |             .  |                x: 2 0x2d-0x2d.7 (1)
    |                                               |                |            [3]{}: ex 0x2e-0x34.7 (7)
    |                                               |                |              nm{}: 0x2e-0x32.7 (5)
0x20|                                          04   |              . |                n: 4 0x2e-0x2e.7 (1)
0x20|                                             6c|               l|                b: "le_s" 0x2f-0x32.7 (4)
0x30|65 5f 73                                       |e_s             |
    |                                               |                |              d{}: 0x33-0x34.7 (2)
0x30|         00                                    |   .            |                tag: "funcidx" (0x0) 0x33-0x33.7 (1)
0x30|            03                                 |    .           |                x: 3 0x34-0x34.7 (1)
    |                                               |                |            [4]{}: ex 0x35-0x3b.7 (7)
    |                                               |                |              nm{}: 0x35-0x39.7 (5)
0x30|               04                              |     .          |                n: 4 0x35-0x35.7 (1)
0x30|                  67 74 5f 73                  |      gt_s      |                b: "gt_s" 0x36-0x39.7 (4)
    |                                               |                |              d{}: 0x3a-0x3b.7 (2)
0x30|                              00               |          .     |                tag: "funcidx" (0x0) 0x3a-0x3a.7 (1)
0x30|                                 04            |           .    |                x: 4 0x3b-0x3b.7 (1)
    |                                               |                |            [5]{}: ex 0x3c-0x42.7 (7)
    |                                               |                |              nm{}: 0x3c-0x40.7 (5)
0x30|                                    04         |            .   |                n: 4 0x3c-0x3c.7 (1)
0x30|                                       67 65 5f|             ge_|                b: "ge_s" 0x3d-0x40.7 (4)
0x40|73                                             |s               |
    |                                               |                |              d{}: 0x41-0x42.7 (2)
0x40|   00                                          | .              |                tag: "funcidx" (0x0) 0x41-0x41.7 (1)
0x40|      05                                       |  .             |                x: 5 0x42-0x42.7 (1)
    |                                               |                |    [3]{}: section 0x43-0x81.7 (63)
0x40|         0a                                    |   .            |      id: "code section" (10) 0x43-0x43.7 (1)
0x40|            3d                                 |    =           |      size: 61 0x44-0x44.7 (1)
    |                                               |                |      content{}: 0x45-0x81.7 (61)
    |                                               |                |        code{}: 0x45-0x81.7 (61)
0x40|               06                              |     .          |          n: 6 0x45-0x45.7 (1)
    |                                               |                |          x[0:6]: 0x46-0x81.7 (60)
    |                                               |                |            [0]{}: code 0x46-0x4f.7 (10)
0x40|                  09                           |      .         |              size: 9 0x46-0x46.7 (1)
    |                                               |                |              code{}: 0x47-0x4f.7 (9)
    |                                               |                |                t{}: 0x47-0x47.7 (1)
0x40|                     00                        |       .        |                  n: 0 0x47-0x47.7 (1)
    |                                               |                |                  x[0:0]: 0x48-NA (0)
    |                                               |                |                e[0:4]: 0x48-0x4f.7 (8)
    |                                               |                |                  [0]{}: in 0x48-0x49.7 (2)
0x40|                        20                     |                |                    local.get: 0x20 (valid) 0x48-0x48.7 (1)
0x40|                           00                  |         .      |                    x: 0 0x49-0x49.7 (1)
    |                                               |                |                  [1]{}: in 0x4a-0x4b.7 (2)
0x40|                              20               |                |                    local.get: 0x20 (valid) 0x4a-0x4a.7 (1)
0x40|                                 01            |           .    |                    x: 1 0x4b-0x4b.7 (1)
    |                                               |                |                  [2]{}: in 0x4c-0x4e.7 (3)
0x40|                                    fd         |            .   |                    prefix: 0xfd (valid) 0x4c-0x4c.7 (1)
0x40|                                       d6 01   |             .. |                    i64x2.eq: 214 (valid) 0x4d-0x4e.7 (2)
    |                                               |                |                  [3]{}: in 0x4f-0x4f.7 (1)
0x40|                                             0b|               .|                    end: 0xb (valid) 0x4f-0x4f.7 (1)
    |                                               |                |            [1]{}: code 0x50-0x59.7 (10)
0x50|09                                             |.               |              size: 9 0x50-0x50.7 (1)
    |                                               |                |              code{}: 0x51-0x59.7 (9)
    |                                               |                |                t{}: 0x51-0x51.7 (1)
0x50|   00                                          | .              |                  n: 0 0x51-0x51.7 (1)
    |                                               |                |                  x[0:0]: 0x52-NA (0)
    |                                               |                |                e[0:4]: 0x52-0x59.7 (8)
    |                                               |                |                  [0]{}: in 0x52-0x53.7 (2)
0x50|      20                                       |                |                    local.get: 0x20 (valid) 0x52-0x52.7 (1)
0x50|         00                                    |   .            |                    x: 0 0x53-0x53.7 (1)
    |                                               |                |                  [1]{}: in 0x54-0x55.7 (2)
0x50|            20                                 |                |                    local.get: 0x20 (valid) 0x54-0x54.7 (1)
0x50|               01                              |     .          |                    x: 1 0x55-0x55.7 (1)
    |                                               |                |                  [2]{}: in 0x56-0x58.7 (3)
0x50|                  fd                           |      .         |                    prefix: 0xfd (valid) 0x56-0x56.7 (1)
0x50|                     d7 01                     |       ..       |                    i64x2.ne: 215 (valid) 0x57-0x58.7 (2)
    |                                               |                |                  [3]{}: in 0x59-0x59.7 (1)
0x50|                           0b                  |         .      |                    end: 0xb (valid) 0x59-0x59.7 (1)
    |                                               |                |            [2]{}: code 0x5a-0x63.7 (10)
0x50|                              09               |          .     |              size: 9 0x5a-0x5a.7 (1)
    |                                               |                |              code{}: 0x5b-0x63.7 (9)
    |                                               |                |                t{}: 0x5b-0x5b.7 (1)
0x50|                                 00            |           .    |                  n: 0 0x5b-0x5b.7 (1)
    |                                               |                |                  x[0:0]: 0x5c-NA (0)
    |                                               |                |                e[0:4]: 0x5c-0x63.7 (8)
    |                                               |                |                  [0]{}: in 0x5c-0x5d.7 (2)
0x50|                                    20         |                |                    local.get: 0x20 (valid) 0x5c-0x5c.7 (1)
0x50|                                       00      |             .  |                    x: 0 0x5d-0x5d.7 (1)
    |                                               |                |                  [1]{}: in 0x5e-0x5f.7 (2)
0x50|                                          20   |                |                    local.get: 0x20 (valid) 0x5e-0x5e.7 (1)
0x50|                                             01|               .|                    x: 1 0x5f-0x5f.7 (1)
    |                                               |                |                  [2]{}: in 0x60-0x62.7 (3)
0x60|fd                                             |.               |                    prefix: 0xfd (valid) 0x60-0x60.7 (1)
0x60|   d8 01                                       | ..             |                    i64x2.lt_s: 216 (valid) 0x61-0x62.7 (2)
    |                                               |                |                  [3]{}: in 0x63-0x63.7 (1)
0x60|         0b                                    |   .            |                    end: 0xb (valid) 0x63-0x63.7 (1)
    |                                               |                |            [3]{}: code 0x64-0x6d.7 (10)
0x60|            09                                 |    .           |              size: 9 0x64-0x64.7 (1)
    |                                               |                |              code{}: 0x65-0x6d.7 (9)
    |                                               |                |                t{}: 0x65-0x65.7 (1)
0x60|               00                              |     .          |                  n: 0 0x65-0x65.7 (1)
    |                                               |                |                  x[0:0]: 0x66-NA (0)
    |                                               |                |                e[0:4]: 0x66-0x6d.7 (8)
    |                                               |                |                  [0]{}: in 0x66-0x67.7 (2)
0x60|                  20                           |                |                    local.get: 0x20 (valid) 0x66-0x66.7 (1)
0x60|                     00                        |       .        |                    x: 0 0x67-0x67.7 (1)
    |                                               |                |                  [1]{}: in 0x68-0x69.7 (2)
0x60|                        20                     |                |                    local.get: 0x20 (valid) 0x68-0x68.7 (1)
0x60|                           01                  |         .      |                    x: 1 0x69-0x69.7 (1)
    |                                               |                |                  [2]{}: in 0x6a-0x6c.7 (3)
0x60|                              fd               |          .     |                    prefix: 0xfd (valid) 0x6a-0x6a.7 (1)
0x60|                                 da 01         |           ..   |                    i64x2.le_s: 218 (valid) 0x6b-0x6c.7 (2)
    |                                               |                |                  [3]{}: in 0x6d-0x6d.7 (1)
0x60|                                       0b      |             .  |                    end: 0xb (valid) 0x6d-0x6d.7 (1)
    |                                               |                |            [4]{}: code 0x6e-0x77.7 (10)
0x60|                                          09   |              . |              size: 9 0x6e-0x6e.7 (1)
    |                                               |                |              code{}: 0x6f-0x77.7 (9)
    |                                               |                |                t{}: 0x6f-0x6f.7 (1)
0x60|                                             00|               .|                  n: 0 0x6f-0x6f.7 (1)
    |                                               |                |                  x[0:0]: 0x70-NA (0)
    |                                               |                |                e[0:4]: 0x70-0x77.7 (8)
    |                                               |                |                  [0]{}: in 0x70-0x71.7 (2)
0x70|20                                             |                |                    local.get: 0x20 (valid) 0x70-0x70.7 (1)
0x70|   00                                          | .              |                    x: 0 0x71-0x71.7 (1)
    |                                               |                |                  [1]{}: in 0x72-0x73.7 (2)
0x70|      20                                       |                |                    local.get: 0x20 (valid) 0x72-0x72.7 (1)
0x70|         01                                    |   .            |                    x: 1 0x73-0x73.7 (1)
    |                                               |                |                  [2]{}: in 0x74-0x76.7 (3)
0x70|            fd                                 |    .           |                    prefix: 0xfd (valid) 0x74-0x74.7 (1)
0x70|               d9 01                           |     ..         |                    i64x2.gt_s: 217 (valid) 0x75-0x76.7 (2)
    |                                               |                |                  [3]{}: in 0x77-0x77.7 (1)
0x70|                     0b                        |       .        |                    end: 0xb (valid) 0x77-0x77.7 (1)
    |                                               |                |            [5]{}: code 0x78-0x81.7 (10)
0x70|                        09                     |        .       |              size: 9 0x78-0x78.7 (1)
    |                                               |                |              code{}: 0x79-0x81.7 (9)
    |                                               |                |                t{}: 0x79-0x79.7 (1)
0x70|                           00                  |         .      |                  n: 0 0x79-0x79.7 (1)
    |                                               |                |                  x[0:0]: 0x7a-NA (0)
    |                                               |                |                e[0:4]: 0x7a-0x81.7 (8)
    |                                               |                |                  [0]{}: in 0x7a-0x7b.7 (2)
0x70|                              20               |                |                    local.get: 0x20 (valid) 0x7a-0x7a.7 (1)
0x70|                                 00            |           .    |                    x: 0 0x7b-0x7b.7 (1)
    |                                               |                |                  [1]{}: in 0x7c-0x7d.7 (2)
0x70|                                    20         |                |                    local.get: 0x20 (valid) 0x7c-0x7c.7 (1)
0x70|                                       01      |             .  |                    x: 1 0x7d-0x7d.7 (1)
    |                                               |                |                  [2]{}: in 0x7e-0x80.7 (3)
0x70|                                          fd   |              . |                    prefix: 0xfd (valid) 0x7e-0x7e.7 (1)
0x70|                                             db|               .|                    i64x2.ge_s: 219 (valid) 0x7f-0x80.7 (2)
0x80|01                                             |.               |
    |                                               |                |                  [3]{}: in 0x81-0x81.7 (1)
0x80|   0b|                                         | .|             |                    end: 0xb (valid) 0x81-0x81.7 (1)
