$ fq -d wasm dv simd_splat-0.wasm
    |00 01 02 03 04 05 06 07 08 09 0a 0b 0c 0d 0e 0f|0123456789abcdef|.{}: simd_splat-0.wasm (wasm) 0x0-0xab.7 (172)
0x00|00 61 73 6d                                    |.asm            |  magic: raw bits (valid) 0x0-0x3.7 (4)
0x00|            01 00 00 00                        |    ....        |  version: 1 0x4-0x7.7 (4)
    |                                               |                |  sections[0:4]: 0x8-0xab.7 (164)
    |                                               |                |    [0]{}: section 0x8-0x1e.7 (23)
0x00|                        01                     |        .       |      id: "type section" (1) 0x8-0x8.7 (1)
0x00|                           15                  |         .      |      size: 21 0x9-0x9.7 (1)
    |                                               |                |      content{}: 0xa-0x1e.7 (21)
    |                                               |                |        ft{}: 0xa-0x1e.7 (21)
0x00|                              04               |          .     |          n: 4 0xa-0xa.7 (1)
    |                                               |                |          x[0:4]: 0xb-0x1e.7 (20)
    |                                               |                |            [0]{}: ft 0xb-0xf.7 (5)
0x00|                                 60            |           `    |              tag: 0x60 (valid) 0xb-0xb.7 (1)
    |                                               |                |              rt1{}: 0xc-0xd.7 (2)
0x00|                                    01         |            .   |                n: 1 0xc-0xc.7 (1)
    |                                               |                |                x[0:1]: 0xd-0xd.7 (1)
0x00|                                       7f      |             .  |                  [0]: "i32" (0x7f) t 0xd-0xd.7 (1)
    |                                               |                |              rt2{}: 0xe-0xf.7 (2)
0x00|                                          01   |              . |                n: 1 0xe-0xe.7 (1)
    |                                               |                |                x[0:1]: 0xf-0xf.7 (1)
0x00|                                             7b|               {|                  [0]: "v128" (0x7b) t 0xf-0xf.7 (1)
    |                                               |                |            [1]{}: ft 0x10-0x14.7 (5)
0x10|60                                             |`               |              tag: 0x60 (valid) 0x10-0x10.7 (1)
    |                                               |                |              rt1{}: 0x11-0x12.7 (2)
0x10|   01                                          | .              |                n: 1 0x11-0x11.7 (1)
    |                                               |                |                x[0:1]: 0x12-0x12.7 (1)
0x10|      7d                                       |  }             |                  [0]: "f32" (0x7d) t 0x12-0x12.7 (1)
    |                                               |                |              rt2{}: 0x13-0x14.7 (2)
0x10|         01                                    |   .            |                n: 1 0x13-0x13.7 (1)
    |                                               |                |                x[0:1]: 0x14-0x14.7 (1)
0x10|            7b                                 |    {           |                  [0]: "v128" (0x7b) t 0x14-0x14.7 (1)
    |                                               |                |            [2]{}: ft 0x15-0x19.7 (5)
0x10|               60                              |     `          |              tag: 0x60 (valid) 0x15-0x15.7 (1)
    |                                               |                |              rt1{}: 0x16-0x17.7 (2)
0x10|                  01                           |      .         |                n: 1 0x16-0x16.7 (1)
    |                                               |                |                x[0:1]: 0x17-0x17.7 (1)
0x10|                     7e                        |       ~        |                  [0]: "i64" (0x7e) t 0x17-0x17.7 (1)
    |                                               |                |              rt2{}: 0x18-0x19.7 (2)
0x10|                        01                     |        .       |                n: 1 0x18-0x18.7 (1)
    |                                               |                |                x[0:1]: 0x19-0x19.7 (1)
0x10|                           7b                  |         {      |                  [0]: "v128" (0x7b) t 0x19-0x19.7 (1)
    |                                               |                |            [3]{}: ft 0x1a-0x1e.7 (5)
0x10|                              60               |          `     |              tag: 0x60 (valid) 0x1a-0x1a.7 (1)
    |                                               |                |              rt1{}: 0x1b-0x1c.7 (2)
0x10|                                 01            |           .    |                n: 1 0x1b-0x1b.7 (1)
    |                                               |                |                x[0:1]: 0x1c-0x1c.7 (1)
0x10|                                    7c         |            |   |                  [0]: "f64" (0x7c) t 0x1c-0x1c.7 (1)
    |                                               |                |              rt2{}: 0x1d-0x1e.7 (2)
0x10|                                       01      |             .  |                n: 1 0x1d-0x1d.7 (1)
    |                                               |                |                x[0:1]: 0x1e-0x1e.7 (1)
0x10|                                          7b   |              { |                  [0]: "v128" (0x7b) t 0x1e-0x1e.7 (1)
    |                                               |                |    [1]{}: section 0x1f-0x27.7 (9)
0x10|                                             03|               .|      id: "function section" (3) 0x1f-0x1f.7 (1)
0x20|07                                             |.               |      size: 7 0x20-0x20.7 (1)
    |                                               |                |      content{}: 0x21-0x27.7 (7)
    |                                               |                |        x{}: 0x21-0x27.7 (7)
0x20|   06                                          | .              |          n: 6 0x21-0x21.7 (1)
    |                                               |                |          x[0:6]: 0x22-0x27.7 (6)
0x20|      00                                       |  .             |            [0]: 0 x 0x22-0x22.7 (1)
0x20|         00                                    |   .            |            [1]: 0 x 0x23-0x23.7 (1)
0x20|            00                                 |    .           |            [2]: 0 x 0x24-0x24.7 (1)
0x20|               01                              |     .          |            [3]: 1 x 0x25-0x25.7 (1)
0x20|                  02                           |      .         |            [4]: 2 x 0x26-0x26.7 (1)
0x20|                     03                        |       .        |            [5]: 3 x 0x27-0x27.7 (1)
    |                                               |                |    [2]{}: section 0x28-0x7e.7 (87)
0x20|                        07                     |        .       |      id: "export section" (7) 0x28-0x28.7 (1)
0x20|                           55                  |         U      |      size: 85 0x29-0x29.7 (1)
    |                                               |                |      content{}: 0x2a-0x7e.7 (85)
    |                                               |                |        ex{}: 0x2a-0x7e.7 (85)
0x20|                              06               |          .     |          n: 6 0x2a-0x2a.7 (1)
    |                                               |                |          x[0:6]: 0x2b-0x7e.7 (84)
    |                                               |                |            [0]{}: ex 0x2b-0x38.7 (14)
    |                                               |                |              nm{}: 0x2b-0x36.7 (12)
0x20|                                 0b            |           .    |                n: 11 0x2b-0x2b.7 (1)
0x20|                                    69 38 78 31|            i8x1|                b: "i8x16.splat" 0x2c-0x36.7 (11)
0x30|36 2e 73 70 6c 61 74                           |6.splat         |
    |                                               |                |              d{}: 0x37-0x38.7 (2)
0x30|                     00                        |       .        |                tag: "funcidx" (0x0) 0x37-0x37.7 (1)
0x30|                        00                     |        .       |                x: 0 0x38-0x38.7 (1)
    |                                               |                |            [1]{}: ex 0x39-0x46.7 (14)
    |                                               |                |              nm{}: 0x39-0x44.7 (12)
0x30|                           0b                  |         .      |                n: 11 0x39-0x39.7 (1)
0x30|                              69 31 36 78 38 2e|          i16x8.|                b: "i16x8.splat" 0x3a-0x44.7 (11)
0x40|73 70 6c 61 74                                 |splat           |
    |                                               |                |              d{}: 0x45-0x46.7 (2)
0x40|               00                              |     .          |                tag: "funcidx" (0x0) 0x45-0x45.7 (1)
0x40|                  01                           |      .         |                x: 1 0x46-0x46.7 (1)
    |                                               |                |            [2]{}: ex 0x47-0x54.7 (14)
    |                                               |                |              nm{}: 0x47-0x52.7 (12)
0x40|                     0b                        |       .        |                n: 11 0x47-0x47.7 (1)
0x40|                        69 33 32 78 34 2e 73 70|        i32x4.sp|                b: "i32x4.splat" 0x48-0x52.7 (11)
0x50|6c 61 74                                       |lat             |
    |                                               |                |              d{}: 0x53-0x54.7 (2)
0x50|         00                                    |   .            |                tag: "funcidx" (0x0) 0x53-0x53.7 (1)
0x50|            02                                 |    .           |                x: 2 0x54-0x54.7 (1)
    |                                               |                |            [3]{}: ex 0x55-0x62.7 (14)
    |                                               |                |              nm{}: 0x55-0x60.7 (12)
0x50|               0b                              |     .          |                n: 11 0x55-0x55.7 (1)
0x50|                  66 33 32 78 34 2e 73 70 6c 61|      f32x4.spla|                b: "f32x4.splat" 0x56-0x60.7 (11)
0x60|74                                             |t               |
    |                                               |                |              d{}: 0x61-0x62.7 (2)
0x60|   00                                          | .              |                tag: "funcidx" (0x0) 0x61-0x61.7 (1)
0x60|      03                                       |  .             |                x: 3 0x62-0x62.7 (1)
    |                                               |                |            [4]{}: ex 0x63-0x70.7 (14)
    |                                               |                |              nm{}: 0x63-0x6e.7 (12)
0x60|         0b                                    |   .            |                n: 11 0x63-0x63.7 (1)
0x60|            69 36 34 78 32 2e 73 70 6c 61 74   |    i64x2.splat |                b: "i64x2.splat" 0x64-0x6e.7 (11)
    |                                               |                |              d{}: 0x6f-0x70.7 (2)
0x60|                                             00|               .|                tag: "funcidx" (0x0) 0x6f-0x6f.7 (1)
0x70|04                                             |.               |                x: 4 0x70-0x70.7 (1)
    |                                               |                |            [5]{}: ex 0x71-0x7e.7 (14)
    |                                               |                |              nm{}: 0x71-0x7c.7 (12)
0x70|   0b                                          | .              |                n: 11 0x71-0x71.7 (1)
0x70|      66 36 34 78 32 2e 73 70 6c 61 74         |  f64x2.splat   |                b: "f64x2.splat" 0x72-0x7c.7 (11)
    |                                               |                |              d{}: 0x7d-0x7e.7 (2)
0x70|                                       00      |             .  |                tag: "funcidx" (0x0) 0x7d-0x7d.7 (1)
0x70|                                          05   |              . |                x: 5 0x7e-0x7e.7 (1)
    |                                               |                |    [3]{}: section 0x7f-0xab.7 (45)
0x70|                                             0a|               .|      id: "code section" (10) 0x7f-0x7f.7 (1)
0x80|2b                                             |+               |      size: 43 0x80-0x80.7 (1)
    |                                               |                |      content{}: 0x81-0xab.7 (43)
    |                                               |                |        code{}: 0x81-0xab.7 (43)
0x80|   06                                          | .              |          n: 6 0x81-0x81.7 (1)
    |                                               |                |          x[0:6]: 0x82-0xab.7 (42)
    |                                               |                |            [0]{}: code 0x82-0x88.7 (7)
0x80|      06                                       |  .             |              size: 6 0x82-0x82.7 (1)
    |                                               |                |              code{}: 0x83-0x88.7 (6)
    |                                               |                |                t{}: 0x83-0x83.7 (1)
0x80|         00                                    |   .            |                  n: 0 0x83-0x83.7 (1)
    |                                               |                |                  x[0:0]: 0x84-NA (0)
    |                                               |                |                e[0:3]: 0x84-0x88.7 (5)
    |                                               |                |                  [0]{}: in 0x84-0x85.7 (2)
0x80|            20                                 |                |                    local.get: 0x20 (valid) 0x84-0x84.7 (1)
0x80|               00                              |     .          |                    x: 0 0x85-0x85.7 (1)
    |                                               |                |                  [1]{}: in 0x86-0x87.7 (2)
0x80|                  fd                           |      .         |                    prefix: 0xfd (valid) 0x86-0x86.7 (1)
0x80|                     0f                        |       .        |                    i8x16.splat: 15 (valid) 0x87-0x87.7 (1)
    |                                               |                |                  [2]{}: in 0x88-0x88.7 (1)
0x80|                        0b                     |        .       |                    end: 0xb (valid) 0x88-0x88.7 (1)
    |                                               |                |            [1]{}: code 0x89-0x8f.7 (7)
0x80|                           06                  |         .      |              size: 6 0x89-0x89.7 (1)
    |                                               |                |              code{}: 0x8a-0x8f.7 (6)
    |                                               |                |                t{}: 0x8a-0x8a.7 (1)
0x80|                              00               |          .     |                  n: 0 0x8a-0x8a.7 (1)
    |                                               |                |                  x[0:0]: 0x8b-NA (0)
    |                                               |                |                e[0:3]: 0x8b-0x8f.7 (5)
    |                                               |                |                  [0]{}: in 0x8b-0x8c.7 (2)
0x80|                                 20            |                |                    local.get: 0x20 (valid) 0x8b-0x8b.7 (1)
0x80|                                    00         |            .   |                    x: 0 0x8c-0x8c.7 (1)
    |                                               |                |                  [1]{}: in 0x8d-0x8e.7 (2)
0x80|                                       fd      |             .  |                    prefix: 0xfd (valid) 0x8d-0x8d.7 (1)
0x80|                                          10   |              . |                    i16x8.splat: 16 (valid) 0x8e-0x8e.7 (1)
    |                                               |                |                  [2]{}: in 0x8f-0x8f.7 (1)
0x80|                                             0b|               .|                    end: 0xb (valid) 0x8f-0x8f.7 (1)
    |                                               |                |            [2]{}: code 0x90-0x96.7 (7)
0x90|06                                             |.               |              size: 6 0x90-0x90.7 (1)
    |                                               |                |              code{}: 0x91-0x96.7 (6)
    |                                               |                |                t{}: 0x91-0x91.7 (1)
0x90|   00                                          | .              |                  n: 0 0x91-0x91.7 (1)
    |                                               |                |                  x[0:0]: 0x92-NA (0)
    |                                               |                |                e[0:3]: 0x92-0x96.7 (5)
    |                                               |                |                  [0]{}: in 0x92-0x93.7 (2)
0x90|      20                                       |                |                    local.get: 0x20 (valid) 0x92-0x92.7 (1)
0x90|         00                                    |   .            |                    x: 0 0x93-0x93.7 (1)
    |                                               |                |                  [1]{}: in 0x94-0x95.7 (2)
0x90|            fd                                 |    .           |                    prefix: 0xfd (valid) 0x94-0x94.7 (1)
0x90|               11                              |     .          |                    i32x4.splat: 17 (valid) 0x95-0x95.7 (1)
    |                                               |                |                  [2]{}: in 0x96-0x96.7 (1)
0x90|                  0b                           |      .         |                    end: 0xb (valid) 0x96-0x96.7 (1)
    |                                               |                |            [3]{}: code 0x97-0x9d.7 (7)
0x90|                     06                        |       .        |              size: 6 0x97-0x97.7 (1)
    |                                               |                |              code{}: 0x98-0x9d.7 (6)
    |                                               |                |                t{}: 0x98-0x98.7 (1)
0x90|                        00                     |        .       |                  n: 0 0x98-0x98.7 (1)
    |                                               |                |                  x[0:0]: 0x99-NA (0)
    |                                               |                |                e[0:3]: 0x99-0x9d.7 (5)
    |                                               |                |                  [0]{}: in 0x99-0x9a.7 (2)
0x90|                           20                  |                |                    local.get: 0x20 (valid) 0x99-0x99.7 (1)
0x90|                              00               |          .     |                    x: 0 0x9a-0x9a.7 (1)
    |                                               |                |                  [1]{}: in 0x9b-0x9c.7 (2)
0x90|                                 fd            |           .    |                    prefix: 0xfd (valid) 0x9b-0x9b.7 (1)
0x90|                                    13         |            .   |                    f32x4.splat: 19 (valid) 0x9c-0x9c.7 (1)
    |                                               |                |                  [2]{}: in 0x9d-0x9d.7 (1)
0x90|                                       0b      |             .  |                    end: 0xb (valid) 0x9d-0x9d.7 (1)
    |                                               |                |            [4]{}: code 0x9e-0xa4.7 (7)
0x90|                                          06   |              . |              size: 6 0x9e-0x9e.7 (1)
    |                                               |                |              code{}: 0x9f-0xa4.7 (6)
    |                                               |                |                t{}: 0x9f-0x9f.7 (1)
0x90|                                             00|               .|                  n: 0 0x9f-0x9f.7 (1)
    |                                               |                |                  x[0:0]: 0xa0-NA (0)
    |                                               |                |                e[0:3]: 0xa0-0xa4.7 (5)
    |                                               |                |                  [0]{}: in 0xa0-0xa1.7 (2)
0xa0|20                                             |                |                    local.get: 0x20 (valid) 0xa0-0xa0.7 (1)
0xa0|   00                                          | .              |                    x: 0 0xa1-0xa1.7 (1)
    |                                               |                |                  [1]{}: in 0xa2-0xa3.7 (2)
0xa0|      fd                                       |  .             |                    prefix: 0xfd (valid) 0xa2-0xa2.7 (1)
0xa0|         12                                    |   .            |                    i64x2.splat: 18 (valid) 0xa3-0xa3.7 (1)
    |                                               |                |                  [2]{}: in 0xa4-0xa4.7 (1)
0xa0|            0b                                 |    .           |                    end: 0xb (valid) 0xa4-0xa4.7 (1)
    |                                               |                |            [5]{}: code 0xa5-0xab.7 (7)
0xa0|               06                              |     .          |              size: 6 0xa5-0xa5.7 (1)
    |                                               |                |              code{}: 0xa6-0xab.7 (6)
    |                                               |                |                t{}: 0xa6-0xa6.7 (1)
0xa0|                  00                           |      .         |                  n: 0 0xa6-0xa6.7 (1)
    |                                               |                |                  x[0:0]: 0xa7-NA (0)
    |                                               |                |                e[0:3]: 0xa7-0xab.7 (5)
    |                                               |                |                  [0]{}: in 0xa7-0xa8.7 (2)
0xa0|                     20                        |                |                    local.get: 0x20 (valid) 0xa7-0xa7.7 (1)
0xa0|                        00                     |        .       |                    x: 0 0xa8-0xa8.7 (1)
    |                                               |                |                  [1]{}: in 0xa9-0xaa.7 (2)
0xa0|                           fd                  |         .      |                    prefix: 0xfd (valid) 0xa9-0xa9.7 (1)
0xa0|                              14               |          .     |                    f64x2.splat: 20 (valid) 0xaa-0xaa.7 (1)
    |                                               |                |                  [2]{}: in 0xab-0xab.7 (1)
0xa0|                                 0b|           |           .|   |                    end: 0xb (valid) 0xab-0xab.7 (1)
