$ fq -d wasm dv simd_f32x4_cmp-0.wasm
    |00 01 02 03 04 05 06 07 08 09 0a 0b 0c 0d 0e 0f|0123456789abcdef|.{}: simd_f32x4_cmp-0.wasm (wasm) 0x0-0x73.7 (116)
0x00|00 61 73 6d                                    |.asm            |  magic: raw bits (valid) 0x0-0x3.7 (4)
0x00|            01 00 00 00                        |    ....        |  version: 1 0x4-0x7.7 (4)
    |                                               |                |  sections[0:4]: 0x8-0x73.7 (108)
    |                                               |                |    [0]{}: section 0x8-0x10.7 (9)
0x00|                        01                     |        .       |      id: "type_section" (1) 0x8-0x8.7 (1)
0x00|                           07                  |         .      |      size: 7 (valid) 0x9-0x9.7 (1)
    |                                               |                |      content{}: 0xa-0x10.7 (7)
    |                                               |                |        ft{}: 0xa-0x10.7 (7)
0x00|                              01               |          .     |          n: 1 (valid) 0xa-0xa.7 (1)
    |                                               |                |          x[0:1]: 0xb-0x10.7 (6)
    |                                               |                |            [0]{}: ft 0xb-0x10.7 (6)
0x00|                                 60            |           `    |              tag: 0x60 (valid) 0xb-0xb.7 (1)
    |                                               |                |              rt1{}: 0xc-0xe.7 (3)
0x00|                                    02         |            .   |                n: 2 (valid) 0xc-0xc.7 (1)
    |                                               |                |                x[0:2]: 0xd-0xe.7 (2)
0x00|                                       7b      |             {  |                  [0]: "v128" (0x7b) t 0xd-0xd.7 (1)
0x00|                                          7b   |              { |                  [1]: "v128" (0x7b) t 0xe-0xe.7 (1)
    |                                               |                |              rt2{}: 0xf-0x10.7 (2)
0x00|                                             01|               .|                n: 1 (valid) 0xf-0xf.7 (1)
    |                                               |                |                x[0:1]: 0x10-0x10.7 (1)
0x10|7b                                             |{               |                  [0]: "v128" (0x7b) t 0x10-0x10.7 (1)
    |                                               |                |    [1]{}: section 0x11-0x19.7 (9)
0x10|   03                                          | .              |      id: "function_section" (3) 0x11-0x11.7 (1)
0x10|      07                                       |  .             |      size: 7 (valid) 0x12-0x12.7 (1)
    |                                               |                |      content{}: 0x13-0x19.7 (7)
    |                                               |                |        x{}: 0x13-0x19.7 (7)
0x10|         06                                    |   .            |          n: 6 (valid) 0x13-0x13.7 (1)
    |                                               |                |          x[0:6]: 0x14-0x19.7 (6)
0x10|            00                                 |    .           |            [0]: 0 x (valid) 0x14-0x14.7 (1)
0x10|               00                              |     .          |            [1]: 0 x (valid) 0x15-0x15.7 (1)
0x10|                  00                           |      .         |            [2]: 0 x (valid) 0x16-0x16.7 (1)
0x10|                     00                        |       .        |            [3]: 0 x (valid) 0x17-0x17.7 (1)
0x10|                        00                     |        .       |            [4]: 0 x (valid) 0x18-0x18.7 (1)
0x10|                           00                  |         .      |            [5]: 0 x (valid) 0x19-0x19.7 (1)
    |                                               |                |    [2]{}: section 0x1a-0x3a.7 (33)
0x10|                              07               |          .     |      id: "export_section" (7) 0x1a-0x1a.7 (1)
0x10|                                 1f            |           .    |      size: 31 (valid) 0x1b-0x1b.7 (1)
    |                                               |                |      content{}: 0x1c-0x3a.7 (31)
    |                                               |                |        ex{}: 0x1c-0x3a.7 (31)
0x10|                                    06         |            .   |          n: 6 (valid) 0x1c-0x1c.7 (1)
    |                                               |                |          x[0:6]: 0x1d-0x3a.7 (30)
    |                                               |                |            [0]{}: ex 0x1d-0x21.7 (5)
    |                                               |                |              nm{}: 0x1d-0x1f.7 (3)
0x10|                                       02      |             .  |                n: 2 (valid) 0x1d-0x1d.7 (1)
0x10|                                          65 71|              eq|                b: "eq" 0x1e-0x1f.7 (2)
    |                                               |                |              d{}: 0x20-0x21.7 (2)
0x20|00                                             |.               |                tag: "funcidx" (0x0) 0x20-0x20.7 (1)
0x20|   00                                          | .              |                x: 0 (valid) 0x21-0x21.7 (1)
    |                                               |                |            [1]{}: ex 0x22-0x26.7 (5)
    |                                               |                |              nm{}: 0x22-0x24.7 (3)
0x20|      02                                       |  .             |                n: 2 (valid) 0x22-0x22.7 (1)
0x20|         6e 65                                 |   ne           |                b: "ne" 0x23-0x24.7 (2)
    |                                               |                |              d{}: 0x25-0x26.7 (2)
0x20|               00                              |     .          |                tag: "funcidx" (0x0) 0x25-0x25.7 (1)
0x20|                  01                           |      .         |                x: 1 (valid) 0x26-0x26.7 (1)
    |                                               |                |            [2]{}: ex 0x27-0x2b.7 (5)
    |                                               |                |              nm{}: 0x27-0x29.7 (3)
0x20|                     02                        |       .        |                n: 2 (valid) 0x27-0x27.7 (1)
0x20|                        6c 74                  |        lt      |                b: "lt" 0x28-0x29.7 (2)
    |                                               |                |              d{}: 0x2a-0x2b.7 (2)
0x20|                              00               |          .     |                tag: "funcidx" (0x0) 0x2a-0x2a.7 (1)
0x20|                                 02            |           .    |                x: 2 (valid) 0x2b-0x2b.7 (1)
    |                                               |                |            [3]{}: ex 0x2c-0x30.7 (5)
    |                                               |                |              nm{}: 0x2c-0x2e.7 (3)
0x20|                                    02         |            .   |                n: 2 (valid) 0x2c-0x2c.7 (1)
0x20|                                       6c 65   |             le |                b: "le" 0x2d-0x2e.7 (2)
    |                                               |                |              d{}: 0x2f-0x30.7 (2)
0x20|                                             00|               .|                tag: "funcidx" (0x0) 0x2f-0x2f.7 (1)
0x30|03                                             |.               |                x: 3 (valid) 0x30-0x30.7 (1)
    |                                               |                |            [4]{}: ex 0x31-0x35.7 (5)
    |                                               |                |              nm{}: 0x31-0x33.7 (3)
0x30|   02                                          | .              |                n: 2 (valid) 0x31-0x31.7 (1)
0x30|      67 74                                    |  gt            |                b: "gt" 0x32-0x33.7 (2)
    |                                               |                |              d{}: 0x34-0x35.7 (2)
0x30|            00                                 |    .           |                tag: "funcidx" (0x0) 0x34-0x34.7 (1)
0x30|               04                              |     .          |                x: 4 (valid) 0x35-0x35.7 (1)
    |                                               |                |            [5]{}: ex 0x36-0x3a.7 (5)
    |                                               |                |              nm{}: 0x36-0x38.7 (3)
0x30|                  02                           |      .         |                n: 2 (valid) 0x36-0x36.7 (1)
0x30|                     67 65                     |       ge       |                b: "ge" 0x37-0x38.7 (2)
    |                                               |                |              d{}: 0x39-0x3a.7 (2)
0x30|                           00                  |         .      |                tag: "funcidx" (0x0) 0x39-0x39.7 (1)
0x30|                              05               |          .     |                x: 5 (valid) 0x3a-0x3a.7 (1)
    |                                               |                |    [3]{}: section 0x3b-0x73.7 (57)
0x30|                                 0a            |           .    |      id: "code_section" (10) 0x3b-0x3b.7 (1)
0x30|                                    37         |            7   |      size: 55 (valid) 0x3c-0x3c.7 (1)
    |                                               |                |      content{}: 0x3d-0x73.7 (55)
    |                                               |                |        code{}: 0x3d-0x73.7 (55)
0x30|                                       06      |             .  |          n: 6 (valid) 0x3d-0x3d.7 (1)
    |                                               |                |          x[0:6]: 0x3e-0x73.7 (54)
    |                                               |                |            [0]{}: code 0x3e-0x46.7 (9)
0x30|                                          08   |              . |              size: 8 (valid) 0x3e-0x3e.7 (1)
    |                                               |                |              code{}: 0x3f-0x46.7 (8)
    |                                               |                |                t{}: 0x3f-0x3f.7 (1)
0x30|                                             00|               .|                  n: 0 (valid) 0x3f-0x3f.7 (1)
    |                                               |                |                  x[0:0]: 0x40-NA (0)
    |                                               |                |                e[0:4]: 0x40-0x46.7 (7)
    |                                               |                |                  [0]{}: in 0x40-0x41.7 (2)
0x40|20                                             |                |                    opcode: "local.get" (0x20) 0x40-0x40.7 (1)
0x40|   00                                          | .              |                    x: 0 (valid) 0x41-0x41.7 (1)
    |                                               |                |                  [1]{}: in 0x42-0x43.7 (2)
0x40|      20                                       |                |                    opcode: "local.get" (0x20) 0x42-0x42.7 (1)
0x40|         01                                    |   .            |                    x: 1 (valid) 0x43-0x43.7 (1)
    |                                               |                |                  [2]{}: in 0x44-0x45.7 (2)
0x40|            fd                                 |    .           |                    opcode: "vector" (0xfd) 0x44-0x44.7 (1)
0x40|               41                              |     A          |                    v_opcode: "f32x4.eq" (65) 0x45-0x45.7 (1)
    |                                               |                |                  [3]{}: in 0x46-0x46.7 (1)
0x40|                  0b                           |      .         |                    opcode: "end" (0xb) 0x46-0x46.7 (1)
    |                                               |                |            [1]{}: code 0x47-0x4f.7 (9)
0x40|                     08                        |       .        |              size: 8 (valid) 0x47-0x47.7 (1)
    |                                               |                |              code{}: 0x48-0x4f.7 (8)
    |                                               |                |                t{}: 0x48-0x48.7 (1)
0x40|                        00                     |        .       |                  n: 0 (valid) 0x48-0x48.7 (1)
    |                                               |                |                  x[0:0]: 0x49-NA (0)
    |                                               |                |                e[0:4]: 0x49-0x4f.7 (7)
    |                                               |                |                  [0]{}: in 0x49-0x4a.7 (2)
0x40|                           20                  |                |                    opcode: "local.get" (0x20) 0x49-0x49.7 (1)
0x40|                              00               |          .     |                    x: 0 (valid) 0x4a-0x4a.7 (1)
    |                                               |                |                  [1]{}: in 0x4b-0x4c.7 (2)
0x40|                                 20            |                |                    opcode: "local.get" (0x20) 0x4b-0x4b.7 (1)
0x40|                                    01         |            .   |                    x: 1 (valid) 0x4c-0x4c.7 (1)
    |                                               |                |                  [2]{}: in 0x4d-0x4e.7 (2)
0x40|                                       fd      |             .  |                    opcode: "vector" (0xfd) 0x4d-0x4d.7 (1)
0x40|                                          42   |              B |                    v_opcode: "f32x4.ne" (66) 0x4e-0x4e.7 (1)
    |                                               |                |                  [3]{}: in 0x4f-0x4f.7 (1)
0x40|                                             0b|               .|                    opcode: "end" (0xb) 0x4f-0x4f.7 (1)
    |                                               |                |            [2]{}: code 0x50-0x58.7 (9)
0x50|08                                             |.               |              size: 8 (valid) 0x50-0x50.7 (1)
    |                                               |                |              code{}: 0x51-0x58.7 (8)
    |                                               |                |                t{}: 0x51-0x51.7 (1)
0x50|   00                                          | .              |                  n: 0 (valid) 0x51-0x51.7 (1)
    |                                               |                |                  x[0:0]: 0x52-NA (0)
    |                                               |                |                e[0:4]: 0x52-0x58.7 (7)
    |                                               |                |                  [0]{}: in 0x52-0x53.7 (2)
0x50|      20                                       |                |                    opcode: "local.get" (0x20) 0x52-0x52.7 (1)
0x50|         00                                    |   .            |                    x: 0 (valid) 0x53-0x53.7 (1)
    |                                               |                |                  [1]{}: in 0x54-0x55.7 (2)
0x50|            20                                 |                |                    opcode: "local.get" (0x20) 0x54-0x54.7 (1)
0x50|               01                              |     .          |                    x: 1 (valid) 0x55-0x55.7 (1)
    |                                               |                |                  [2]{}: in 0x56-0x57.7 (2)
0x50|                  fd                           |      .         |                    opcode: "vector" (0xfd) 0x56-0x56.7 (1)
0x50|                     43                        |       C        |                    v_opcode: "f32x4.lt" (67) 0x57-0x57.7 (1)
    |                                               |                |                  [3]{}: in 0x58-0x58.7 (1)
0x50|                        0b                     |        .       |                    opcode: "end" (0xb) 0x58-0x58.7 (1)
    |                                               |                |            [3]{}: code 0x59-0x61.7 (9)
0x50|                           08                  |         .      |              size: 8 (valid) 0x59-0x59.7 (1)
    |                                               |                |              code{}: 0x5a-0x61.7 (8)
    |                                               |                |                t{}: 0x5a-0x5a.7 (1)
0x50|                              00               |          .     |                  n: 0 (valid) 0x5a-0x5a.7 (1)
    |                                               |                |                  x[0:0]: 0x5b-NA (0)
    |                                               |                |                e[0:4]: 0x5b-0x61.7 (7)
    |                                               |                |                  [0]{}: in 0x5b-0x5c.7 (2)
0x50|                                 20            |                |                    opcode: "local.get" (0x20) 0x5b-0x5b.7 (1)
0x50|                                    00         |            .   |                    x: 0 (valid) 0x5c-0x5c.7 (1)
    |                                               |                |                  [1]{}: in 0x5d-0x5e.7 (2)
0x50|                                       20      |                |                    opcode: "local.get" (0x20) 0x5d-0x5d.7 (1)
0x50|                                          01   |              . |                    x: 1 (valid) 0x5e-0x5e.7 (1)
    |                                               |                |                  [2]{}: in 0x5f-0x60.7 (2)
0x50|                                             fd|               .|                    opcode: "vector" (0xfd) 0x5f-0x5f.7 (1)
0x60|45                                             |E               |                    v_opcode: "f32x4.le" (69) 0x60-0x60.7 (1)
    |                                               |                |                  [3]{}: in 0x61-0x61.7 (1)
0x60|   0b                                          | .              |                    opcode: "end" (0xb) 0x61-0x61.7 (1)
    |                                               |                |            [4]{}: code 0x62-0x6a.7 (9)
0x60|      08                                       |  .             |              size: 8 (valid) 0x62-0x62.7 (1)
    |                                               |                |              code{}: 0x63-0x6a.7 (8)
    |                                               |                |                t{}: 0x63-0x63.7 (1)
0x60|         00                                    |   .            |                  n: 0 (valid) 0x63-0x63.7 (1)
    |                                               |                |                  x[0:0]: 0x64-NA (0)
    |                                               |                |                e[0:4]: 0x64-0x6a.7 (7)
    |                                               |                |                  [0]{}: in 0x64-0x65.7 (2)
0x60|            20                                 |                |                    opcode: "local.get" (0x20) 0x64-0x64.7 (1)
0x60|               00                              |     .          |                    x: 0 (valid) 0x65-0x65.7 (1)
    |                                               |                |                  [1]{}: in 0x66-0x67.7 (2)
0x60|                  20                           |                |                    opcode: "local.get" (0x20) 0x66-0x66.7 (1)
0x60|                     01                        |       .        |                    x: 1 (valid) 0x67-0x67.7 (1)
    |                                               |                |                  [2]{}: in 0x68-0x69.7 (2)
0x60|                        fd                     |        .       |                    opcode: "vector" (0xfd) 0x68-0x68.7 (1)
0x60|                           44                  |         D      |                    v_opcode: "f32x4.gt" (68) 0x69-0x69.7 (1)
    |                                               |                |                  [3]{}: in 0x6a-0x6a.7 (1)
0x60|                              0b               |          .     |                    opcode: "end" (0xb) 0x6a-0x6a.7 (1)
    |                                               |                |            [5]{}: code 0x6b-0x73.7 (9)
0x60|                                 08            |           .    |              size: 8 (valid) 0x6b-0x6b.7 (1)
    |                                               |                |              code{}: 0x6c-0x73.7 (8)
    |                                               |                |                t{}: 0x6c-0x6c.7 (1)
0x60|                                    00         |            .   |                  n: 0 (valid) 0x6c-0x6c.7 (1)
    |                                               |                |                  x[0:0]: 0x6d-NA (0)
    |                                               |                |                e[0:4]: 0x6d-0x73.7 (7)
    |                                               |                |                  [0]{}: in 0x6d-0x6e.7 (2)
0x60|                                       20      |                |                    opcode: "local.get" (0x20) 0x6d-0x6d.7 (1)
0x60|                                          00   |              . |                    x: 0 (valid) 0x6e-0x6e.7 (1)
    |                                               |                |                  [1]{}: in 0x6f-0x70.7 (2)
0x60|                                             20|                |                    opcode: "local.get" (0x20) 0x6f-0x6f.7 (1)
0x70|01                                             |.               |                    x: 1 (valid) 0x70-0x70.7 (1)
    |                                               |                |                  [2]{}: in 0x71-0x72.7 (2)
0x70|   fd                                          | .              |                    opcode: "vector" (0xfd) 0x71-0x71.7 (1)
0x70|      46                                       |  F             |                    v_opcode: "f32x4.ge" (70) 0x72-0x72.7 (1)
    |                                               |                |                  [3]{}: in 0x73-0x73.7 (1)
0x70|         0b|                                   |   .|           |                    opcode: "end" (0xb) 0x73-0x73.7 (1)
