$ fq -d wasm dv simd_boolean-0.wasm
     |00 01 02 03 04 05 06 07 08 09 0a 0b 0c 0d 0e 0f|0123456789abcdef|.{}: simd_boolean-0.wasm (wasm) 0x0-0x12e.7 (303)
0x000|00 61 73 6d                                    |.asm            |  magic: raw bits (valid) 0x0-0x3.7 (4)
0x000|            01 00 00 00                        |    ....        |  version: 1 0x4-0x7.7 (4)
     |                                               |                |  sections[0:4]: 0x8-0x12e.7 (295)
     |                                               |                |    [0]{}: section 0x8-0xf.7 (8)
0x000|                        01                     |        .       |      id: "type section" (1) 0x8-0x8.7 (1)
0x000|                           06                  |         .      |      size: 6 0x9-0x9.7 (1)
     |                                               |                |      content{}: 0xa-0xf.7 (6)
     |                                               |                |        ft{}: 0xa-0xf.7 (6)
0x000|                              01               |          .     |          n: 1 0xa-0xa.7 (1)
     |                                               |                |          x[0:1]: 0xb-0xf.7 (5)
     |                                               |                |            [0]{}: ft 0xb-0xf.7 (5)
0x000|                                 60            |           `    |              tag: 0x60 (valid) 0xb-0xb.7 (1)
     |                                               |                |              rt1{}: 0xc-0xd.7 (2)
0x000|                                    01         |            .   |                n: 1 0xc-0xc.7 (1)
     |                                               |                |                x[0:1]: 0xd-0xd.7 (1)
0x000|                                       7b      |             {  |                  [0]: "v128" (0x7b) t 0xd-0xd.7 (1)
     |                                               |                |              rt2{}: 0xe-0xf.7 (2)
0x000|                                          01   |              . |                n: 1 0xe-0xe.7 (1)
     |                                               |                |                x[0:1]: 0xf-0xf.7 (1)
0x000|                                             7f|               .|                  [0]: "i32" (0x7f) t 0xf-0xf.7 (1)
     |                                               |                |    [1]{}: section 0x10-0x1d.7 (14)
0x010|03                                             |.               |      id: "function section" (3) 0x10-0x10.7 (1)
0x010|   0c                                          | .              |      size: 12 0x11-0x11.7 (1)
     |                                               |                |      content{}: 0x12-0x1d.7 (12)
     |                                               |                |        x{}: 0x12-0x1d.7 (12)
0x010|      0b                                       |  .             |          n: 11 0x12-0x12.7 (1)
     |                                               |                |          x[0:11]: 0x13-0x1d.7 (11)
0x010|         00                                    |   .            |            [0]: 0 x 0x13-0x13.7 (1)
0x010|            00                                 |    .           |            [1]: 0 x 0x14-0x14.7 (1)
0x010|               00                              |     .          |            [2]: 0 x 0x15-0x15.7 (1)
0x010|                  00                           |      .         |            [3]: 0 x 0x16-0x16.7 (1)
0x010|                     00                        |       .        |            [4]: 0 x 0x17-0x17.7 (1)
0x010|                        00                     |        .       |            [5]: 0 x 0x18-0x18.7 (1)
0x010|                           00                  |         .      |            [6]: 0 x 0x19-0x19.7 (1)
0x010|                              00               |          .     |            [7]: 0 x 0x1a-0x1a.7 (1)
0x010|                                 00            |           .    |            [8]: 0 x 0x1b-0x1b.7 (1)
0x010|                                    00         |            .   |            [9]: 0 x 0x1c-0x1c.7 (1)
0x010|                                       00      |             .  |            [10]: 0 x 0x1d-0x1d.7 (1)
     |                                               |                |    [2]{}: section 0x1e-0xd8.7 (187)
0x010|                                          07   |              . |      id: "export section" (7) 0x1e-0x1e.7 (1)
0x010|                                             b8|               .|      size: 184 0x1f-0x20.7 (2)
0x020|01                                             |.               |
     |                                               |                |      content{}: 0x21-0xd8.7 (184)
     |                                               |                |        ex{}: 0x21-0xd8.7 (184)
0x020|   0b                                          | .              |          n: 11 0x21-0x21.7 (1)
     |                                               |                |          x[0:11]: 0x22-0xd8.7 (183)
     |                                               |                |            [0]{}: ex 0x22-0x32.7 (17)
     |                                               |                |              nm{}: 0x22-0x30.7 (15)
0x020|      0e                                       |  .             |                n: 14 0x22-0x22.7 (1)
0x020|         69 38 78 31 36 2e 61 6e 79 5f 74 72 75|   i8x16.any_tru|                b: "i8x16.any_true" 0x23-0x30.7 (14)
0x030|65                                             |e               |
     |                                               |                |              d{}: 0x31-0x32.7 (2)
0x030|   00                                          | .              |                tag: "funcidx" (0x0) 0x31-0x31.7 (1)
0x030|      00                                       |  .             |                x: 0 0x32-0x32.7 (1)
     |                                               |                |            [1]{}: ex 0x33-0x43.7 (17)
     |                                               |                |              nm{}: 0x33-0x41.7 (15)
0x030|         0e                                    |   .            |                n: 14 0x33-0x33.7 (1)
0x030|            69 38 78 31 36 2e 61 6c 6c 5f 74 72|    i8x16.all_tr|                b: "i8x16.all_true" 0x34-0x41.7 (14)
0x040|75 65                                          |ue              |
     |                                               |                |              d{}: 0x42-0x43.7 (2)
0x040|      00                                       |  .             |                tag: "funcidx" (0x0) 0x42-0x42.7 (1)
0x040|         01                                    |   .            |                x: 1 0x43-0x43.7 (1)
     |                                               |                |            [2]{}: ex 0x44-0x53.7 (16)
     |                                               |                |              nm{}: 0x44-0x51.7 (14)
0x040|            0d                                 |    .           |                n: 13 0x44-0x44.7 (1)
0x040|               69 38 78 31 36 2e 62 69 74 6d 61|     i8x16.bitma|                b: "i8x16.bitmask" 0x45-0x51.7 (13)
0x050|73 6b                                          |sk              |
     |                                               |                |              d{}: 0x52-0x53.7 (2)
0x050|      00                                       |  .             |                tag: "funcidx" (0x0) 0x52-0x52.7 (1)
0x050|         02                                    |   .            |                x: 2 0x53-0x53.7 (1)
     |                                               |                |            [3]{}: ex 0x54-0x64.7 (17)
     |                                               |                |              nm{}: 0x54-0x62.7 (15)
0x050|            0e                                 |    .           |                n: 14 0x54-0x54.7 (1)
0x050|               69 31 36 78 38 2e 61 6e 79 5f 74|     i16x8.any_t|                b: "i16x8.any_true" 0x55-0x62.7 (14)
0x060|72 75 65                                       |rue             |
     |                                               |                |              d{}: 0x63-0x64.7 (2)
0x060|         00                                    |   .            |                tag: "funcidx" (0x0) 0x63-0x63.7 (1)
0x060|            03                                 |    .           |                x: 3 0x64-0x64.7 (1)
     |                                               |                |            [4]{}: ex 0x65-0x75.7 (17)
     |                                               |                |              nm{}: 0x65-0x73.7 (15)
0x060|               0e                              |     .          |                n: 14 0x65-0x65.7 (1)
0x060|                  69 31 36 78 38 2e 61 6c 6c 5f|      i16x8.all_|                b: "i16x8.all_true" 0x66-0x73.7 (14)
0x070|74 72 75 65                                    |true            |
     |                                               |                |              d{}: 0x74-0x75.7 (2)
0x070|            00                                 |    .           |                tag: "funcidx" (0x0) 0x74-0x74.7 (1)
0x070|               04                              |     .          |                x: 4 0x75-0x75.7 (1)
     |                                               |                |            [5]{}: ex 0x76-0x85.7 (16)
     |                                               |                |              nm{}: 0x76-0x83.7 (14)
0x070|                  0d                           |      .         |                n: 13 0x76-0x76.7 (1)
0x070|                     69 31 36 78 38 2e 62 69 74|       i16x8.bit|                b: "i16x8.bitmask" 0x77-0x83.7 (13)
0x080|6d 61 73 6b                                    |mask            |
     |                                               |                |              d{}: 0x84-0x85.7 (2)
0x080|            00                                 |    .           |                tag: "funcidx" (0x0) 0x84-0x84.7 (1)
0x080|               05                              |     .          |                x: 5 0x85-0x85.7 (1)
     |                                               |                |            [6]{}: ex 0x86-0x96.7 (17)
     |                                               |                |              nm{}: 0x86-0x94.7 (15)
0x080|                  0e                           |      .         |                n: 14 0x86-0x86.7 (1)
0x080|                     69 33 32 78 34 2e 61 6e 79|       i32x4.any|                b: "i32x4.any_true" 0x87-0x94.7 (14)
0x090|5f 74 72 75 65                                 |_true           |
     |                                               |                |              d{}: 0x95-0x96.7 (2)
0x090|               00                              |     .          |                tag: "funcidx" (0x0) 0x95-0x95.7 (1)
0x090|                  06                           |      .         |                x: 6 0x96-0x96.7 (1)
     |                                               |                |            [7]{}: ex 0x97-0xa7.7 (17)
     |                                               |                |              nm{}: 0x97-0xa5.7 (15)
0x090|                     0e                        |       .        |                n: 14 0x97-0x97.7 (1)
0x090|                        69 33 32 78 34 2e 61 6c|        i32x4.al|                b: "i32x4.all_true" 0x98-0xa5.7 (14)
0x0a0|6c 5f 74 72 75 65                              |l_true          |
     |                                               |                |              d{}: 0xa6-0xa7.7 (2)
0x0a0|                  00                           |      .         |                tag: "funcidx" (0x0) 0xa6-0xa6.7 (1)
0x0a0|                     07                        |       .        |                x: 7 0xa7-0xa7.7 (1)
     |                                               |                |            [8]{}: ex 0xa8-0xb7.7 (16)
     |                                               |                |              nm{}: 0xa8-0xb5.7 (14)
0x0a0|                        0d                     |        .       |                n: 13 0xa8-0xa8.7 (1)
0x0a0|                           69 33 32 78 34 2e 62|         i32x4.b|                b: "i32x4.bitmask" 0xa9-0xb5.7 (13)
0x0b0|69 74 6d 61 73 6b                              |itmask          |
     |                                               |                |              d{}: 0xb6-0xb7.7 (2)
0x0b0|                  00                           |      .         |                tag: "funcidx" (0x0) 0xb6-0xb6.7 (1)
0x0b0|                     08                        |       .        |                x: 8 0xb7-0xb7.7 (1)
     |                                               |                |            [9]{}: ex 0xb8-0xc8.7 (17)
     |                                               |                |              nm{}: 0xb8-0xc6.7 (15)
0x0b0|                        0e                     |        .       |                n: 14 0xb8-0xb8.7 (1)
0x0b0|                           69 36 34 78 32 2e 61|         i64x2.a|                b: "i64x2.all_true" 0xb9-0xc6.7 (14)
0x0c0|6c 6c 5f 74 72 75 65                           |ll_true         |
     |                                               |                |              d{}: 0xc7-0xc8.7 (2)
0x0c0|                     00                        |       .        |                tag: "funcidx" (0x0) 0xc7-0xc7.7 (1)
0x0c0|                        09                     |        .       |                x: 9 0xc8-0xc8.7 (1)
     |                                               |                |            [10]{}: ex 0xc9-0xd8.7 (16)
     |                                               |                |              nm{}: 0xc9-0xd6.7 (14)
0x0c0|                           0d                  |         .      |                n: 13 0xc9-0xc9.7 (1)
0x0c0|                              69 36 34 78 32 2e|          i64x2.|                b: "i64x2.bitmask" 0xca-0xd6.7 (13)
0x0d0|62 69 74 6d 61 73 6b                           |bitmask         |
     |                                               |                |              d{}: 0xd7-0xd8.7 (2)
0x0d0|                     00                        |       .        |                tag: "funcidx" (0x0) 0xd7-0xd7.7 (1)
0x0d0|                        0a                     |        .       |                x: 10 0xd8-0xd8.7 (1)
     |                                               |                |    [3]{}: section 0xd9-0x12e.7 (86)
0x0d0|                           0a                  |         .      |      id: "code section" (10) 0xd9-0xd9.7 (1)
0x0d0|                              54               |          T     |      size: 84 0xda-0xda.7 (1)
     |                                               |                |      content{}: 0xdb-0x12e.7 (84)
     |                                               |                |        code{}: 0xdb-0x12e.7 (84)
0x0d0|                                 0b            |           .    |          n: 11 0xdb-0xdb.7 (1)
     |                                               |                |          x[0:11]: 0xdc-0x12e.7 (83)
     |                                               |                |            [0]{}: code 0xdc-0xe2.7 (7)
0x0d0|                                    06         |            .   |              size: 6 0xdc-0xdc.7 (1)
     |                                               |                |              code{}: 0xdd-0xe2.7 (6)
     |                                               |                |                t{}: 0xdd-0xdd.7 (1)
0x0d0|                                       00      |             .  |                  n: 0 0xdd-0xdd.7 (1)
     |                                               |                |                  x[0:0]: 0xde-NA (0)
     |                                               |                |                e[0:3]: 0xde-0xe2.7 (5)
     |                                               |                |                  [0]{}: in 0xde-0xdf.7 (2)
0x0d0|                                          20   |                |                    local.get: 0x20 (valid) 0xde-0xde.7 (1)
0x0d0|                                             00|               .|                    x: 0 0xdf-0xdf.7 (1)
     |                                               |                |                  [1]{}: in 0xe0-0xe1.7 (2)
0x0e0|fd                                             |.               |                    prefix: 0xfd (valid) 0xe0-0xe0.7 (1)
0x0e0|   53                                          | S              |                    v128.any_true: 83 (valid) 0xe1-0xe1.7 (1)
     |                                               |                |                  [2]{}: in 0xe2-0xe2.7 (1)
0x0e0|      0b                                       |  .             |                    end: 0xb (valid) 0xe2-0xe2.7 (1)
     |                                               |                |            [1]{}: code 0xe3-0xe9.7 (7)
0x0e0|         06                                    |   .            |              size: 6 0xe3-0xe3.7 (1)
     |                                               |                |              code{}: 0xe4-0xe9.7 (6)
     |                                               |                |                t{}: 0xe4-0xe4.7 (1)
0x0e0|            00                                 |    .           |                  n: 0 0xe4-0xe4.7 (1)
     |                                               |                |                  x[0:0]: 0xe5-NA (0)
     |                                               |                |                e[0:3]: 0xe5-0xe9.7 (5)
     |                                               |                |                  [0]{}: in 0xe5-0xe6.7 (2)
0x0e0|               20                              |                |                    local.get: 0x20 (valid) 0xe5-0xe5.7 (1)
0x0e0|                  00                           |      .         |                    x: 0 0xe6-0xe6.7 (1)
     |                                               |                |                  [1]{}: in 0xe7-0xe8.7 (2)
0x0e0|                     fd                        |       .        |                    prefix: 0xfd (valid) 0xe7-0xe7.7 (1)
0x0e0|                        63                     |        c       |                    i8x16.all_true: 99 (valid) 0xe8-0xe8.7 (1)
     |                                               |                |                  [2]{}: in 0xe9-0xe9.7 (1)
0x0e0|                           0b                  |         .      |                    end: 0xb (valid) 0xe9-0xe9.7 (1)
     |                                               |                |            [2]{}: code 0xea-0xf0.7 (7)
0x0e0|                              06               |          .     |              size: 6 0xea-0xea.7 (1)
     |                                               |                |              code{}: 0xeb-0xf0.7 (6)
     |                                               |                |                t{}: 0xeb-0xeb.7 (1)
0x0e0|                                 00            |           .    |                  n: 0 0xeb-0xeb.7 (1)
     |                                               |                |                  x[0:0]: 0xec-NA (0)
     |                                               |                |                e[0:3]: 0xec-0xf0.7 (5)
     |                                               |                |                  [0]{}: in 0xec-0xed.7 (2)
0x0e0|                                    20         |                |                    local.get: 0x20 (valid) 0xec-0xec.7 (1)
0x0e0|                                       00      |             .  |                    x: 0 0xed-0xed.7 (1)
     |                                               |                |                  [1]{}: in 0xee-0xef.7 (2)
0x0e0|                                          fd   |              . |                    prefix: 0xfd (valid) 0xee-0xee.7 (1)
0x0e0|                                             64|               d|                    i8x16.bitmask: 100 (valid) 0xef-0xef.7 (1)
     |                                               |                |                  [2]{}: in 0xf0-0xf0.7 (1)
0x0f0|0b                                             |.               |                    end: 0xb (valid) 0xf0-0xf0.7 (1)
     |                                               |                |            [3]{}: code 0xf1-0xf7.7 (7)
0x0f0|   06                                          | .              |              size: 6 0xf1-0xf1.7 (1)
     |                                               |                |              code{}: 0xf2-0xf7.7 (6)
     |                                               |                |                t{}: 0xf2-0xf2.7 (1)
0x0f0|      00                                       |  .             |                  n: 0 0xf2-0xf2.7 (1)
     |                                               |                |                  x[0:0]: 0xf3-NA (0)
     |                                               |                |                e[0:3]: 0xf3-0xf7.7 (5)
     |                                               |                |                  [0]{}: in 0xf3-0xf4.7 (2)
0x0f0|         20                                    |                |                    local.get: 0x20 (valid) 0xf3-0xf3.7 (1)
0x0f0|            00                                 |    .           |                    x: 0 0xf4-0xf4.7 (1)
     |                                               |                |                  [1]{}: in 0xf5-0xf6.7 (2)
0x0f0|               fd                              |     .          |                    prefix: 0xfd (valid) 0xf5-0xf5.7 (1)
0x0f0|                  53                           |      S         |                    v128.any_true: 83 (valid) 0xf6-0xf6.7 (1)
     |                                               |                |                  [2]{}: in 0xf7-0xf7.7 (1)
0x0f0|                     0b                        |       .        |                    end: 0xb (valid) 0xf7-0xf7.7 (1)
     |                                               |                |            [4]{}: code 0xf8-0xff.7 (8)
0x0f0|                        07                     |        .       |              size: 7 0xf8-0xf8.7 (1)
     |                                               |                |              code{}: 0xf9-0xff.7 (7)
     |                                               |                |                t{}: 0xf9-0xf9.7 (1)
0x0f0|                           00                  |         .      |                  n: 0 0xf9-0xf9.7 (1)
     |                                               |                |                  x[0:0]: 0xfa-NA (0)
     |                                               |                |                e[0:3]: 0xfa-0xff.7 (6)
     |                                               |                |                  [0]{}: in 0xfa-0xfb.7 (2)
0x0f0|                              20               |                |                    local.get: 0x20 (valid) 0xfa-0xfa.7 (1)
0x0f0|                                 00            |           .    |                    x: 0 0xfb-0xfb.7 (1)
     |                                               |                |                  [1]{}: in 0xfc-0xfe.7 (3)
0x0f0|                                    fd         |            .   |                    prefix: 0xfd (valid) 0xfc-0xfc.7 (1)
0x0f0|                                       83 01   |             .. |                    i16x8.all_true: 131 (valid) 0xfd-0xfe.7 (2)
     |                                               |                |                  [2]{}: in 0xff-0xff.7 (1)
0x0f0|                                             0b|               .|                    end: 0xb (valid) 0xff-0xff.7 (1)
     |                                               |                |            [5]{}: code 0x100-0x107.7 (8)
0x100|07                                             |.               |              size: 7 0x100-0x100.7 (1)
     |                                               |                |              code{}: 0x101-0x107.7 (7)
     |                                               |                |                t{}: 0x101-0x101.7 (1)
0x100|   00                                          | .              |                  n: 0 0x101-0x101.7 (1)
     |                                               |                |                  x[0:0]: 0x102-NA (0)
     |                                               |                |                e[0:3]: 0x102-0x107.7 (6)
     |                                               |                |                  [0]{}: in 0x102-0x103.7 (2)
0x100|      20                                       |                |                    local.get: 0x20 (valid) 0x102-0x102.7 (1)
0x100|         00                                    |   .            |                    x: 0 0x103-0x103.7 (1)
     |                                               |                |                  [1]{}: in 0x104-0x106.7 (3)
0x100|            fd                                 |    .           |                    prefix: 0xfd (valid) 0x104-0x104.7 (1)
0x100|               84 01                           |     ..         |                    i16x8.bitmask: 132 (valid) 0x105-0x106.7 (2)
     |                                               |                |                  [2]{}: in 0x107-0x107.7 (1)
0x100|                     0b                        |       .        |                    end: 0xb (valid) 0x107-0x107.7 (1)
     |                                               |                |            [6]{}: code 0x108-0x10e.7 (7)
0x100|                        06                     |        .       |              size: 6 0x108-0x108.7 (1)
     |                                               |                |              code{}: 0x109-0x10e.7 (6)
     |                                               |                |                t{}: 0x109-0x109.7 (1)
0x100|                           00                  |         .      |                  n: 0 0x109-0x109.7 (1)
     |                                               |                |                  x[0:0]: 0x10a-NA (0)
     |                                               |                |                e[0:3]: 0x10a-0x10e.7 (5)
     |                                               |                |                  [0]{}: in 0x10a-0x10b.7 (2)
0x100|                              20               |                |                    local.get: 0x20 (valid) 0x10a-0x10a.7 (1)
0x100|                                 00            |           .    |                    x: 0 0x10b-0x10b.7 (1)
     |                                               |                |                  [1]{}: in 0x10c-0x10d.7 (2)
0x100|                                    fd         |            .   |                    prefix: 0xfd (valid) 0x10c-0x10c.7 (1)
0x100|                                       53      |             S  |                    v128.any_true: 83 (valid) 0x10d-0x10d.7 (1)
     |                                               |                |                  [2]{}: in 0x10e-0x10e.7 (1)
0x100|                                          0b   |              . |                    end: 0xb (valid) 0x10e-0x10e.7 (1)
     |                                               |                |            [7]{}: code 0x10f-0x116.7 (8)
0x100|                                             07|               .|              size: 7 0x10f-0x10f.7 (1)
     |                                               |                |              code{}: 0x110-0x116.7 (7)
     |                                               |                |                t{}: 0x110-0x110.7 (1)
0x110|00                                             |.               |                  n: 0 0x110-0x110.7 (1)
     |                                               |                |                  x[0:0]: 0x111-NA (0)
     |                                               |                |                e[0:3]: 0x111-0x116.7 (6)
     |                                               |                |                  [0]{}: in 0x111-0x112.7 (2)
0x110|   20                                          |                |                    local.get: 0x20 (valid) 0x111-0x111.7 (1)
0x110|      00                                       |  .             |                    x: 0 0x112-0x112.7 (1)
     |                                               |                |                  [1]{}: in 0x113-0x115.7 (3)
0x110|         fd                                    |   .            |                    prefix: 0xfd (valid) 0x113-0x113.7 (1)
0x110|            a3 01                              |    ..          |                    i32x4.all_true: 163 (valid) 0x114-0x115.7 (2)
     |                                               |                |                  [2]{}: in 0x116-0x116.7 (1)
0x110|                  0b                           |      .         |                    end: 0xb (valid) 0x116-0x116.7 (1)
     |                                               |                |            [8]{}: code 0x117-0x11e.7 (8)
0x110|                     07                        |       .        |              size: 7 0x117-0x117.7 (1)
     |                                               |                |              code{}: 0x118-0x11e.7 (7)
     |                                               |                |                t{}: 0x118-0x118.7 (1)
0x110|                        00                     |        .       |                  n: 0 0x118-0x118.7 (1)
     |                                               |                |                  x[0:0]: 0x119-NA (0)
     |                                               |                |                e[0:3]: 0x119-0x11e.7 (6)
     |                                               |                |                  [0]{}: in 0x119-0x11a.7 (2)
0x110|                           20                  |                |                    local.get: 0x20 (valid) 0x119-0x119.7 (1)
0x110|                              00               |          .     |                    x: 0 0x11a-0x11a.7 (1)
     |                                               |                |                  [1]{}: in 0x11b-0x11d.7 (3)
0x110|                                 fd            |           .    |                    prefix: 0xfd (valid) 0x11b-0x11b.7 (1)
0x110|                                    a4 01      |            ..  |                    i32x4.bitmask: 164 (valid) 0x11c-0x11d.7 (2)
     |                                               |                |                  [2]{}: in 0x11e-0x11e.7 (1)
0x110|                                          0b   |              . |                    end: 0xb (valid) 0x11e-0x11e.7 (1)
     |                                               |                |            [9]{}: code 0x11f-0x126.7 (8)
0x110|                                             07|               .|              size: 7 0x11f-0x11f.7 (1)
     |                                               |                |              code{}: 0x120-0x126.7 (7)
     |                                               |                |                t{}: 0x120-0x120.7 (1)
0x120|00                                             |.               |                  n: 0 0x120-0x120.7 (1)
     |                                               |                |                  x[0:0]: 0x121-NA (0)
     |                                               |                |                e[0:3]: 0x121-0x126.7 (6)
     |                                               |                |                  [0]{}: in 0x121-0x122.7 (2)
0x120|   20                                          |                |                    local.get: 0x20 (valid) 0x121-0x121.7 (1)
0x120|      00                                       |  .             |                    x: 0 0x122-0x122.7 (1)
     |                                               |                |                  [1]{}: in 0x123-0x125.7 (3)
0x120|         fd                                    |   .            |                    prefix: 0xfd (valid) 0x123-0x123.7 (1)
0x120|            c3 01                              |    ..          |                    i64x2.all_true: 195 (valid) 0x124-0x125.7 (2)
     |                                               |                |                  [2]{}: in 0x126-0x126.7 (1)
0x120|                  0b                           |      .         |                    end: 0xb (valid) 0x126-0x126.7 (1)
     |                                               |                |            [10]{}: code 0x127-0x12e.7 (8)
0x120|                     07                        |       .        |              size: 7 0x127-0x127.7 (1)
     |                                               |                |              code{}: 0x128-0x12e.7 (7)
     |                                               |                |                t{}: 0x128-0x128.7 (1)
0x120|                        00                     |        .       |                  n: 0 0x128-0x128.7 (1)
     |                                               |                |                  x[0:0]: 0x129-NA (0)
     |                                               |                |                e[0:3]: 0x129-0x12e.7 (6)
     |                                               |                |                  [0]{}: in 0x129-0x12a.7 (2)
0x120|                           20                  |                |                    local.get: 0x20 (valid) 0x129-0x129.7 (1)
0x120|                              00               |          .     |                    x: 0 0x12a-0x12a.7 (1)
     |                                               |                |                  [1]{}: in 0x12b-0x12d.7 (3)
0x120|                                 fd            |           .    |                    prefix: 0xfd (valid) 0x12b-0x12b.7 (1)
0x120|                                    c4 01      |            ..  |                    i64x2.bitmask: 196 (valid) 0x12c-0x12d.7 (2)
     |                                               |                |                  [2]{}: in 0x12e-0x12e.7 (1)
0x120|                                          0b|  |              .||                    end: 0xb (valid) 0x12e-0x12e.7 (1)
