$ fq -d wasm dv simd_const-304.wasm
     |00 01 02 03 04 05 06 07 08 09 0a 0b 0c 0d 0e 0f|0123456789abcdef|.{}: simd_const-304.wasm (wasm) 0x0-0x39f.7 (928)
0x000|00 61 73 6d                                    |.asm            |  magic: raw bits (valid) 0x0-0x3.7 (4)
0x000|            01 00 00 00                        |    ....        |  version: 1 0x4-0x7.7 (4)
     |                                               |                |  sections[0:4]: 0x8-0x39f.7 (920)
     |                                               |                |    [0]{}: section 0x8-0xe.7 (7)
0x000|                        01                     |        .       |      id: "type section" (1) 0x8-0x8.7 (1)
0x000|                           05                  |         .      |      size: 5 0x9-0x9.7 (1)
     |                                               |                |      content{}: 0xa-0xe.7 (5)
     |                                               |                |        ft{}: 0xa-0xe.7 (5)
0x000|                              01               |          .     |          n: 1 0xa-0xa.7 (1)
     |                                               |                |          x[0:1]: 0xb-0xe.7 (4)
     |                                               |                |            [0]{}: ft 0xb-0xe.7 (4)
0x000|                                 60            |           `    |              tag: 0x60 (valid) 0xb-0xb.7 (1)
     |                                               |                |              rt1{}: 0xc-0xc.7 (1)
0x000|                                    00         |            .   |                n: 0 0xc-0xc.7 (1)
     |                                               |                |                x[0:0]: 0xd-NA (0)
     |                                               |                |              rt2{}: 0xd-0xe.7 (2)
0x000|                                       01      |             .  |                n: 1 0xd-0xd.7 (1)
     |                                               |                |                x[0:1]: 0xe-0xe.7 (1)
0x000|                                          7b   |              { |                  [0]: "v128" (0x7b) t 0xe-0xe.7 (1)
     |                                               |                |    [1]{}: section 0xf-0x27.7 (25)
0x000|                                             03|               .|      id: "function section" (3) 0xf-0xf.7 (1)
0x010|17                                             |.               |      size: 23 0x10-0x10.7 (1)
     |                                               |                |      content{}: 0x11-0x27.7 (23)
     |                                               |                |        x{}: 0x11-0x27.7 (23)
0x010|   16                                          | .              |          n: 22 0x11-0x11.7 (1)
     |                                               |                |          x[0:22]: 0x12-0x27.7 (22)
0x010|      00                                       |  .             |            [0]: 0 x 0x12-0x12.7 (1)
0x010|         00                                    |   .            |            [1]: 0 x 0x13-0x13.7 (1)
0x010|            00                                 |    .           |            [2]: 0 x 0x14-0x14.7 (1)
0x010|               00                              |     .          |            [3]: 0 x 0x15-0x15.7 (1)
0x010|                  00                           |      .         |            [4]: 0 x 0x16-0x16.7 (1)
0x010|                     00                        |       .        |            [5]: 0 x 0x17-0x17.7 (1)
0x010|                        00                     |        .       |            [6]: 0 x 0x18-0x18.7 (1)
0x010|                           00                  |         .      |            [7]: 0 x 0x19-0x19.7 (1)
0x010|                              00               |          .     |            [8]: 0 x 0x1a-0x1a.7 (1)
0x010|                                 00            |           .    |            [9]: 0 x 0x1b-0x1b.7 (1)
0x010|                                    00         |            .   |            [10]: 0 x 0x1c-0x1c.7 (1)
0x010|                                       00      |             .  |            [11]: 0 x 0x1d-0x1d.7 (1)
0x010|                                          00   |              . |            [12]: 0 x 0x1e-0x1e.7 (1)
0x010|                                             00|               .|            [13]: 0 x 0x1f-0x1f.7 (1)
0x020|00                                             |.               |            [14]: 0 x 0x20-0x20.7 (1)
0x020|   00                                          | .              |            [15]: 0 x 0x21-0x21.7 (1)
0x020|      00                                       |  .             |            [16]: 0 x 0x22-0x22.7 (1)
0x020|         00                                    |   .            |            [17]: 0 x 0x23-0x23.7 (1)
0x020|            00                                 |    .           |            [18]: 0 x 0x24-0x24.7 (1)
0x020|               00                              |     .          |            [19]: 0 x 0x25-0x25.7 (1)
0x020|                  00                           |      .         |            [20]: 0 x 0x26-0x26.7 (1)
0x020|                     00                        |       .        |            [21]: 0 x 0x27-0x27.7 (1)
     |                                               |                |    [2]{}: section 0x28-0x195.7 (366)
0x020|                        07                     |        .       |      id: "export section" (7) 0x28-0x28.7 (1)
0x020|                           eb 02               |         ..     |      size: 363 0x29-0x2a.7 (2)
     |                                               |                |      content{}: 0x2b-0x195.7 (363)
     |                                               |                |        ex{}: 0x2b-0x195.7 (363)
0x020|                                 16            |           .    |          n: 22 0x2b-0x2b.7 (1)
     |                                               |                |          x[0:22]: 0x2c-0x195.7 (362)
     |                                               |                |            [0]{}: ex 0x2c-0x38.7 (13)
     |                                               |                |              nm{}: 0x2c-0x36.7 (11)
0x020|                                    0a         |            .   |                n: 10 0x2c-0x2c.7 (1)
0x020|                                       69 33 32|             i32|                b: "i32x4.test" 0x2d-0x36.7 (10)
0x030|78 34 2e 74 65 73 74                           |x4.test         |
     |                                               |                |              d{}: 0x37-0x38.7 (2)
0x030|                     00                        |       .        |                tag: "funcidx" (0x0) 0x37-0x37.7 (1)
0x030|                        00                     |        .       |                x: 0 0x38-0x38.7 (1)
     |                                               |                |            [1]{}: ex 0x39-0x45.7 (13)
     |                                               |                |              nm{}: 0x39-0x43.7 (11)
0x030|                           0a                  |         .      |                n: 10 0x39-0x39.7 (1)
0x030|                              69 33 32 78 34 2e|          i32x4.|                b: "i32x4.smax" 0x3a-0x43.7 (10)
0x040|73 6d 61 78                                    |smax            |
     |                                               |                |              d{}: 0x44-0x45.7 (2)
0x040|            00                                 |    .           |                tag: "funcidx" (0x0) 0x44-0x44.7 (1)
0x040|               01                              |     .          |                x: 1 0x45-0x45.7 (1)
     |                                               |                |            [2]{}: ex 0x46-0x56.7 (17)
     |                                               |                |              nm{}: 0x46-0x54.7 (15)
0x040|                  0e                           |      .         |                n: 14 0x46-0x46.7 (1)
0x040|                     69 33 32 78 34 2e 6e 65 67|       i32x4.neg|                b: "i32x4.neg_smax" 0x47-0x54.7 (14)
0x050|5f 73 6d 61 78                                 |_smax           |
     |                                               |                |              d{}: 0x55-0x56.7 (2)
0x050|               00                              |     .          |                tag: "funcidx" (0x0) 0x55-0x55.7 (1)
0x050|                  02                           |      .         |                x: 2 0x56-0x56.7 (1)
     |                                               |                |            [3]{}: ex 0x57-0x67.7 (17)
     |                                               |                |              nm{}: 0x57-0x65.7 (15)
0x050|                     0e                        |       .        |                n: 14 0x57-0x57.7 (1)
0x050|                        69 33 32 78 34 2e 69 6e|        i32x4.in|                b: "i32x4.inc_smin" 0x58-0x65.7 (14)
0x060|63 5f 73 6d 69 6e                              |c_smin          |
     |                                               |                |              d{}: 0x66-0x67.7 (2)
0x060|                  00                           |      .         |                tag: "funcidx" (0x0) 0x66-0x66.7 (1)
0x060|                     03                        |       .        |                x: 3 0x67-0x67.7 (1)
     |                                               |                |            [4]{}: ex 0x68-0x78.7 (17)
     |                                               |                |              nm{}: 0x68-0x76.7 (15)
0x060|                        0e                     |        .       |                n: 14 0x68-0x68.7 (1)
0x060|                           69 33 32 78 34 2e 6e|         i32x4.n|                b: "i32x4.neg_zero" 0x69-0x76.7 (14)
0x070|65 67 5f 7a 65 72 6f                           |eg_zero         |
     |                                               |                |              d{}: 0x77-0x78.7 (2)
0x070|                     00                        |       .        |                tag: "funcidx" (0x0) 0x77-0x77.7 (1)
0x070|                        04                     |        .       |                x: 4 0x78-0x78.7 (1)
     |                                               |                |            [5]{}: ex 0x79-0x8a.7 (18)
     |                                               |                |              nm{}: 0x79-0x88.7 (16)
0x070|                           0f                  |         .      |                n: 15 0x79-0x79.7 (1)
0x070|                              69 33 32 78 34 2e|          i32x4.|                b: "i32x4.not_octal" 0x7a-0x88.7 (15)
0x080|6e 6f 74 5f 6f 63 74 61 6c                     |not_octal       |
     |                                               |                |              d{}: 0x89-0x8a.7 (2)
0x080|                           00                  |         .      |                tag: "funcidx" (0x0) 0x89-0x89.7 (1)
0x080|                              05               |          .     |                x: 5 0x8a-0x8a.7 (1)
     |                                               |                |            [6]{}: ex 0x8b-0x9c.7 (18)
     |                                               |                |              nm{}: 0x8b-0x9a.7 (16)
0x080|                                 0f            |           .    |                n: 15 0x8b-0x8b.7 (1)
0x080|                                    69 33 32 78|            i32x|                b: "i32x4.plus_sign" 0x8c-0x9a.7 (15)
0x090|34 2e 70 6c 75 73 5f 73 69 67 6e               |4.plus_sign     |
     |                                               |                |              d{}: 0x9b-0x9c.7 (2)
0x090|                                 00            |           .    |                tag: "funcidx" (0x0) 0x9b-0x9b.7 (1)
0x090|                                    06         |            .   |                x: 6 0x9c-0x9c.7 (1)
     |                                               |                |            [7]{}: ex 0x9d-0xad.7 (17)
     |                                               |                |              nm{}: 0x9d-0xab.7 (15)
0x090|                                       0e      |             .  |                n: 14 0x9d-0x9d.7 (1)
0x090|                                          69 33|              i3|                b: "i32x4-dec-sep1" 0x9e-0xab.7 (14)
0x0a0|32 78 34 2d 64 65 63 2d 73 65 70 31            |2x4-dec-sep1    |
     |                                               |                |              d{}: 0xac-0xad.7 (2)
0x0a0|                                    00         |            .   |                tag: "funcidx" (0x0) 0xac-0xac.7 (1)
0x0a0|                                       07      |             .  |                x: 7 0xad-0xad.7 (1)
     |                                               |                |            [8]{}: ex 0xae-0xbe.7 (17)
     |                                               |                |              nm{}: 0xae-0xbc.7 (15)
0x0a0|                                          0e   |              . |                n: 14 0xae-0xae.7 (1)
0x0a0|                                             69|               i|                b: "i32x4-dec-sep2" 0xaf-0xbc.7 (14)
0x0b0|33 32 78 34 2d 64 65 63 2d 73 65 70 32         |32x4-dec-sep2   |
     |                                               |                |              d{}: 0xbd-0xbe.7 (2)
0x0b0|                                       00      |             .  |                tag: "funcidx" (0x0) 0xbd-0xbd.7 (1)
0x0b0|                                          08   |              . |                x: 8 0xbe-0xbe.7 (1)
     |                                               |                |            [9]{}: ex 0xbf-0xcf.7 (17)
     |                                               |                |              nm{}: 0xbf-0xcd.7 (15)
0x0b0|                                             0e|               .|                n: 14 0xbf-0xbf.7 (1)
0x0c0|69 33 32 78 34 2d 68 65 78 2d 73 65 70 31      |i32x4-hex-sep1  |                b: "i32x4-hex-sep1" 0xc0-0xcd.7 (14)
     |                                               |                |              d{}: 0xce-0xcf.7 (2)
0x0c0|                                          00   |              . |                tag: "funcidx" (0x0) 0xce-0xce.7 (1)
0x0c0|                                             09|               .|                x: 9 0xcf-0xcf.7 (1)
     |                                               |                |            [10]{}: ex 0xd0-0xe0.7 (17)
     |                                               |                |              nm{}: 0xd0-0xde.7 (15)
0x0d0|0e                                             |.               |                n: 14 0xd0-0xd0.7 (1)
0x0d0|   69 33 32 78 34 2d 68 65 78 2d 73 65 70 32   | i32x4-hex-sep2 |                b: "i32x4-hex-sep2" 0xd1-0xde.7 (14)
     |                                               |                |              d{}: 0xdf-0xe0.7 (2)
0x0d0|                                             00|               .|                tag: "funcidx" (0x0) 0xdf-0xdf.7 (1)
0x0e0|0a                                             |.               |                x: 10 0xe0-0xe0.7 (1)
     |                                               |                |            [11]{}: ex 0xe1-0xed.7 (13)
     |                                               |                |              nm{}: 0xe1-0xeb.7 (11)
0x0e0|   0a                                          | .              |                n: 10 0xe1-0xe1.7 (1)
0x0e0|      69 36 34 78 32 2e 74 65 73 74            |  i64x2.test    |                b: "i64x2.test" 0xe2-0xeb.7 (10)
     |                                               |                |              d{}: 0xec-0xed.7 (2)
0x0e0|                                    00         |            .   |                tag: "funcidx" (0x0) 0xec-0xec.7 (1)
0x0e0|                                       0b      |             .  |                x: 11 0xed-0xed.7 (1)
     |                                               |                |            [12]{}: ex 0xee-0xfa.7 (13)
     |                                               |                |              nm{}: 0xee-0xf8.7 (11)
0x0e0|                                          0a   |              . |                n: 10 0xee-0xee.7 (1)
0x0e0|                                             69|               i|                b: "i64x2.smax" 0xef-0xf8.7 (10)
0x0f0|36 34 78 32 2e 73 6d 61 78                     |64x2.smax       |
     |                                               |                |              d{}: 0xf9-0xfa.7 (2)
0x0f0|                           00                  |         .      |                tag: "funcidx" (0x0) 0xf9-0xf9.7 (1)
0x0f0|                              0c               |          .     |                x: 12 0xfa-0xfa.7 (1)
     |                                               |                |            [13]{}: ex 0xfb-0x10b.7 (17)
     |                                               |                |              nm{}: 0xfb-0x109.7 (15)
0x0f0|                                 0e            |           .    |                n: 14 0xfb-0xfb.7 (1)
0x0f0|                                    69 36 34 78|            i64x|                b: "i64x2.neg_smax" 0xfc-0x109.7 (14)
0x100|32 2e 6e 65 67 5f 73 6d 61 78                  |2.neg_smax      |
     |                                               |                |              d{}: 0x10a-0x10b.7 (2)
0x100|                              00               |          .     |                tag: "funcidx" (0x0) 0x10a-0x10a.7 (1)
0x100|                                 0d            |           .    |                x: 13 0x10b-0x10b.7 (1)
     |                                               |                |            [14]{}: ex 0x10c-0x11c.7 (17)
     |                                               |                |              nm{}: 0x10c-0x11a.7 (15)
0x100|                                    0e         |            .   |                n: 14 0x10c-0x10c.7 (1)
0x100|                                       69 36 34|             i64|                b: "i64x2.inc_smin" 0x10d-0x11a.7 (14)
0x110|78 32 2e 69 6e 63 5f 73 6d 69 6e               |x2.inc_smin     |
     |                                               |                |              d{}: 0x11b-0x11c.7 (2)
0x110|                                 00            |           .    |                tag: "funcidx" (0x0) 0x11b-0x11b.7 (1)
0x110|                                    0e         |            .   |                x: 14 0x11c-0x11c.7 (1)
     |                                               |                |            [15]{}: ex 0x11d-0x12d.7 (17)
     |                                               |                |              nm{}: 0x11d-0x12b.7 (15)
0x110|                                       0e      |             .  |                n: 14 0x11d-0x11d.7 (1)
0x110|                                          69 36|              i6|                b: "i64x2.neg_zero" 0x11e-0x12b.7 (14)
0x120|34 78 32 2e 6e 65 67 5f 7a 65 72 6f            |4x2.neg_zero    |
     |                                               |                |              d{}: 0x12c-0x12d.7 (2)
0x120|                                    00         |            .   |                tag: "funcidx" (0x0) 0x12c-0x12c.7 (1)
0x120|                                       0f      |             .  |                x: 15 0x12d-0x12d.7 (1)
     |                                               |                |            [16]{}: ex 0x12e-0x13f.7 (18)
     |                                               |                |              nm{}: 0x12e-0x13d.7 (16)
0x120|                                          0f   |              . |                n: 15 0x12e-0x12e.7 (1)
0x120|                                             69|               i|                b: "i64x2.not_octal" 0x12f-0x13d.7 (15)
0x130|36 34 78 32 2e 6e 6f 74 5f 6f 63 74 61 6c      |64x2.not_octal  |
     |                                               |                |              d{}: 0x13e-0x13f.7 (2)
0x130|                                          00   |              . |                tag: "funcidx" (0x0) 0x13e-0x13e.7 (1)
0x130|                                             10|               .|                x: 16 0x13f-0x13f.7 (1)
     |                                               |                |            [17]{}: ex 0x140-0x151.7 (18)
     |                                               |                |              nm{}: 0x140-0x14f.7 (16)
0x140|0f                                             |.               |                n: 15 0x140-0x140.7 (1)
0x140|   69 36 34 78 32 2e 70 6c 75 73 5f 73 69 67 6e| i64x2.plus_sign|                b: "i64x2.plus_sign" 0x141-0x14f.7 (15)
     |                                               |                |              d{}: 0x150-0x151.7 (2)
0x150|00                                             |.               |                tag: "funcidx" (0x0) 0x150-0x150.7 (1)
0x150|   11                                          | .              |                x: 17 0x151-0x151.7 (1)
     |                                               |                |            [18]{}: ex 0x152-0x162.7 (17)
     |                                               |                |              nm{}: 0x152-0x160.7 (15)
0x150|      0e                                       |  .             |                n: 14 0x152-0x152.7 (1)
0x150|         69 36 34 78 32 2d 64 65 63 2d 73 65 70|   i64x2-dec-sep|                b: "i64x2-dec-sep1" 0x153-0x160.7 (14)
0x160|31                                             |1               |
     |                                               |                |              d{}: 0x161-0x162.7 (2)
0x160|   00                                          | .              |                tag: "funcidx" (0x0) 0x161-0x161.7 (1)
0x160|      12                                       |  .             |                x: 18 0x162-0x162.7 (1)
     |                                               |                |            [19]{}: ex 0x163-0x173.7 (17)
     |                                               |                |              nm{}: 0x163-0x171.7 (15)
0x160|         0e                                    |   .            |                n: 14 0x163-0x163.7 (1)
0x160|            69 36 34 78 32 2d 64 65 63 2d 73 65|    i64x2-dec-se|                b: "i64x2-dec-sep2" 0x164-0x171.7 (14)
0x170|70 32                                          |p2              |
     |                                               |                |              d{}: 0x172-0x173.7 (2)
0x170|      00                                       |  .             |                tag: "funcidx" (0x0) 0x172-0x172.7 (1)
0x170|         13                                    |   .            |                x: 19 0x173-0x173.7 (1)
     |                                               |                |            [20]{}: ex 0x174-0x184.7 (17)
     |                                               |                |              nm{}: 0x174-0x182.7 (15)
0x170|            0e                                 |    .           |                n: 14 0x174-0x174.7 (1)
0x170|               69 36 34 78 32 2d 68 65 78 2d 73|     i64x2-hex-s|                b: "i64x2-hex-sep1" 0x175-0x182.7 (14)
0x180|65 70 31                                       |ep1             |
     |                                               |                |              d{}: 0x183-0x184.7 (2)
0x180|         00                                    |   .            |                tag: "funcidx" (0x0) 0x183-0x183.7 (1)
0x180|            14                                 |    .           |                x: 20 0x184-0x184.7 (1)
     |                                               |                |            [21]{}: ex 0x185-0x195.7 (17)
     |                                               |                |              nm{}: 0x185-0x193.7 (15)
0x180|               0e                              |     .          |                n: 14 0x185-0x185.7 (1)
0x180|                  69 36 34 78 32 2d 68 65 78 2d|      i64x2-hex-|                b: "i64x2-hex-sep2" 0x186-0x193.7 (14)
0x190|73 65 70 32                                    |sep2            |
     |                                               |                |              d{}: 0x194-0x195.7 (2)
0x190|            00                                 |    .           |                tag: "funcidx" (0x0) 0x194-0x194.7 (1)
0x190|               15                              |     .          |                x: 21 0x195-0x195.7 (1)
     |                                               |                |    [3]{}: section 0x196-0x39f.7 (522)
0x190|                  0a                           |      .         |      id: "code section" (10) 0x196-0x196.7 (1)
0x190|                     87 04                     |       ..       |      size: 519 0x197-0x198.7 (2)
     |                                               |                |      content{}: 0x199-0x39f.7 (519)
     |                                               |                |        code{}: 0x199-0x39f.7 (519)
0x190|                           16                  |         .      |          n: 22 0x199-0x199.7 (1)
     |                                               |                |          x[0:22]: 0x19a-0x39f.7 (518)
     |                                               |                |            [0]{}: code 0x19a-0x1af.7 (22)
0x190|                              15               |          .     |              size: 21 0x19a-0x19a.7 (1)
     |                                               |                |              code{}: 0x19b-0x1af.7 (21)
     |                                               |                |                t{}: 0x19b-0x19b.7 (1)
0x190|                                 00            |           .    |                  n: 0 0x19b-0x19b.7 (1)
     |                                               |                |                  x[0:0]: 0x19c-NA (0)
     |                                               |                |                e[0:3]: 0x19c-0x1af.7 (20)
     |                                               |                |                  [0]{}: in 0x19c-0x1ad.7 (18)
0x190|                                    fd         |            .   |                    prefix: 0xfd (valid) 0x19c-0x19c.7 (1)
0x190|                                       0c      |             .  |                    v128.const: 12 (valid) 0x19d-0x19d.7 (1)
0x190|                                          0d d0|              ..|                    bytes: raw bits 0x19e-0x1ad.7 (16)
0x1a0|ad 0b 0d d0 ad 0b 0d d0 ad 0b 0d d0 ad 0b      |..............  |
     |                                               |                |                  [1]{}: in 0x1ae-0x1ae.7 (1)
0x1a0|                                          0f   |              . |                    return: 0xf (valid) 0x1ae-0x1ae.7 (1)
     |                                               |                |                  [2]{}: in 0x1af-0x1af.7 (1)
0x1a0|                                             0b|               .|                    end: 0xb (valid) 0x1af-0x1af.7 (1)
     |                                               |                |            [1]{}: code 0x1b0-0x1c5.7 (22)
0x1b0|15                                             |.               |              size: 21 0x1b0-0x1b0.7 (1)
     |                                               |                |              code{}: 0x1b1-0x1c5.7 (21)
     |                                               |                |                t{}: 0x1b1-0x1b1.7 (1)
0x1b0|   00                                          | .              |                  n: 0 0x1b1-0x1b1.7 (1)
     |                                               |                |                  x[0:0]: 0x1b2-NA (0)
     |                                               |                |                e[0:3]: 0x1b2-0x1c5.7 (20)
     |                                               |                |                  [0]{}: in 0x1b2-0x1c3.7 (18)
0x1b0|      fd                                       |  .             |                    prefix: 0xfd (valid) 0x1b2-0x1b2.7 (1)
0x1b0|         0c                                    |   .            |                    v128.const: 12 (valid) 0x1b3-0x1b3.7 (1)
0x1b0|            ff ff ff 7f ff ff ff 7f ff ff ff 7f|    ............|                    bytes: raw bits 0x1b4-0x1c3.7 (16)
0x1c0|ff ff ff 7f                                    |....            |
     |                                               |                |                  [1]{}: in 0x1c4-0x1c4.7 (1)
0x1c0|            0f                                 |    .           |                    return: 0xf (valid) 0x1c4-0x1c4.7 (1)
     |                                               |                |                  [2]{}: in 0x1c5-0x1c5.7 (1)
0x1c0|               0b                              |     .          |                    end: 0xb (valid) 0x1c5-0x1c5.7 (1)
     |                                               |                |            [2]{}: code 0x1c6-0x1db.7 (22)
0x1c0|                  15                           |      .         |              size: 21 0x1c6-0x1c6.7 (1)
     |                                               |                |              code{}: 0x1c7-0x1db.7 (21)
     |                                               |                |                t{}: 0x1c7-0x1c7.7 (1)
0x1c0|                     00                        |       .        |                  n: 0 0x1c7-0x1c7.7 (1)
     |                                               |                |                  x[0:0]: 0x1c8-NA (0)
     |                                               |                |                e[0:3]: 0x1c8-0x1db.7 (20)
     |                                               |                |                  [0]{}: in 0x1c8-0x1d9.7 (18)
0x1c0|                        fd                     |        .       |                    prefix: 0xfd (valid) 0x1c8-0x1c8.7 (1)
0x1c0|                           0c                  |         .      |                    v128.const: 12 (valid) 0x1c9-0x1c9.7 (1)
0x1c0|                              01 00 00 80 01 00|          ......|                    bytes: raw bits 0x1ca-0x1d9.7 (16)
0x1d0|00 80 01 00 00 80 01 00 00 80                  |..........      |
     |                                               |                |                  [1]{}: in 0x1da-0x1da.7 (1)
0x1d0|                              0f               |          .     |                    return: 0xf (valid) 0x1da-0x1da.7 (1)
     |                                               |                |                  [2]{}: in 0x1db-0x1db.7 (1)
0x1d0|                                 0b            |           .    |                    end: 0xb (valid) 0x1db-0x1db.7 (1)
     |                                               |                |            [3]{}: code 0x1dc-0x206.7 (43)
0x1d0|                                    2a         |            *   |              size: 42 0x1dc-0x1dc.7 (1)
     |                                               |                |              code{}: 0x1dd-0x206.7 (42)
     |                                               |                |                t{}: 0x1dd-0x1dd.7 (1)
0x1d0|                                       00      |             .  |                  n: 0 0x1dd-0x1dd.7 (1)
     |                                               |                |                  x[0:0]: 0x1de-NA (0)
     |                                               |                |                e[0:5]: 0x1de-0x206.7 (41)
     |                                               |                |                  [0]{}: in 0x1de-0x1ef.7 (18)
0x1d0|                                          fd   |              . |                    prefix: 0xfd (valid) 0x1de-0x1de.7 (1)
0x1d0|                                             0c|               .|                    v128.const: 12 (valid) 0x1df-0x1df.7 (1)
0x1e0|00 00 00 80 00 00 00 80 00 00 00 80 00 00 00 80|................|                    bytes: raw bits 0x1e0-0x1ef.7 (16)
     |                                               |                |                  [1]{}: in 0x1f0-0x201.7 (18)
0x1f0|fd                                             |.               |                    prefix: 0xfd (valid) 0x1f0-0x1f0.7 (1)
0x1f0|   0c                                          | .              |                    v128.const: 12 (valid) 0x1f1-0x1f1.7 (1)
0x1f0|      01 00 00 00 01 00 00 00 01 00 00 00 01 00|  ..............|                    bytes: raw bits 0x1f2-0x201.7 (16)
0x200|00 00                                          |..              |
     |                                               |                |                  [2]{}: in 0x202-0x204.7 (3)
0x200|      fd                                       |  .             |                    prefix: 0xfd (valid) 0x202-0x202.7 (1)
0x200|         ae 01                                 |   ..           |                    i32x4.add: 174 (valid) 0x203-0x204.7 (2)
     |                                               |                |                  [3]{}: in 0x205-0x205.7 (1)
0x200|               0f                              |     .          |                    return: 0xf (valid) 0x205-0x205.7 (1)
     |                                               |                |                  [4]{}: in 0x206-0x206.7 (1)
0x200|                  0b                           |      .         |                    end: 0xb (valid) 0x206-0x206.7 (1)
     |                                               |                |            [4]{}: code 0x207-0x21c.7 (22)
0x200|                     15                        |       .        |              size: 21 0x207-0x207.7 (1)
     |                                               |                |              code{}: 0x208-0x21c.7 (21)
     |                                               |                |                t{}: 0x208-0x208.7 (1)
0x200|                        00                     |        .       |                  n: 0 0x208-0x208.7 (1)
     |                                               |                |                  x[0:0]: 0x209-NA (0)
     |                                               |                |                e[0:3]: 0x209-0x21c.7 (20)
     |                                               |                |                  [0]{}: in 0x209-0x21a.7 (18)
0x200|                           fd                  |         .      |                    prefix: 0xfd (valid) 0x209-0x209.7 (1)
0x200|                              0c               |          .     |                    v128.const: 12 (valid) 0x20a-0x20a.7 (1)
0x200|                                 00 00 00 00 00|           .....|                    bytes: raw bits 0x20b-0x21a.7 (16)
0x210|00 00 00 00 00 00 00 00 00 00 00               |...........     |
     |                                               |                |                  [1]{}: in 0x21b-0x21b.7 (1)
0x210|                                 0f            |           .    |                    return: 0xf (valid) 0x21b-0x21b.7 (1)
     |                                               |                |                  [2]{}: in 0x21c-0x21c.7 (1)
0x210|                                    0b         |            .   |                    end: 0xb (valid) 0x21c-0x21c.7 (1)
     |                                               |                |            [5]{}: code 0x21d-0x232.7 (22)
0x210|                                       15      |             .  |              size: 21 0x21d-0x21d.7 (1)
     |                                               |                |              code{}: 0x21e-0x232.7 (21)
     |                                               |                |                t{}: 0x21e-0x21e.7 (1)
0x210|                                          00   |              . |                  n: 0 0x21e-0x21e.7 (1)
     |                                               |                |                  x[0:0]: 0x21f-NA (0)
     |                                               |                |                e[0:3]: 0x21f-0x232.7 (20)
     |                                               |                |                  [0]{}: in 0x21f-0x230.7 (18)
0x210|                                             fd|               .|                    prefix: 0xfd (valid) 0x21f-0x21f.7 (1)
0x220|0c                                             |.               |                    v128.const: 12 (valid) 0x220-0x220.7 (1)
0x220|   0a 00 00 00 0a 00 00 00 0a 00 00 00 0a 00 00| ...............|                    bytes: raw bits 0x221-0x230.7 (16)
0x230|00                                             |.               |
     |                                               |                |                  [1]{}: in 0x231-0x231.7 (1)
0x230|   0f                                          | .              |                    return: 0xf (valid) 0x231-0x231.7 (1)
     |                                               |                |                  [2]{}: in 0x232-0x232.7 (1)
0x230|      0b                                       |  .             |                    end: 0xb (valid) 0x232-0x232.7 (1)
     |                                               |                |            [6]{}: code 0x233-0x248.7 (22)
0x230|         15                                    |   .            |              size: 21 0x233-0x233.7 (1)
     |                                               |                |              code{}: 0x234-0x248.7 (21)
     |                                               |                |                t{}: 0x234-0x234.7 (1)
0x230|            00                                 |    .           |                  n: 0 0x234-0x234.7 (1)
     |                                               |                |                  x[0:0]: 0x235-NA (0)
     |                                               |                |                e[0:3]: 0x235-0x248.7 (20)
     |                                               |                |                  [0]{}: in 0x235-0x246.7 (18)
0x230|               fd                              |     .          |                    prefix: 0xfd (valid) 0x235-0x235.7 (1)
0x230|                  0c                           |      .         |                    v128.const: 12 (valid) 0x236-0x236.7 (1)
0x230|                     2a 00 00 00 2a 00 00 00 2a|       *...*...*|                    bytes: raw bits 0x237-0x246.7 (16)
0x240|00 00 00 2a 00 00 00                           |...*...         |
     |                                               |                |                  [1]{}: in 0x247-0x247.7 (1)
0x240|                     0f                        |       .        |                    return: 0xf (valid) 0x247-0x247.7 (1)
     |                                               |                |                  [2]{}: in 0x248-0x248.7 (1)
0x240|                        0b                     |        .       |                    end: 0xb (valid) 0x248-0x248.7 (1)
     |                                               |                |            [7]{}: code 0x249-0x25d.7 (21)
0x240|                           14                  |         .      |              size: 20 0x249-0x249.7 (1)
     |                                               |                |              code{}: 0x24a-0x25d.7 (20)
     |                                               |                |                t{}: 0x24a-0x24a.7 (1)
0x240|                              00               |          .     |                  n: 0 0x24a-0x24a.7 (1)
     |                                               |                |                  x[0:0]: 0x24b-NA (0)
     |                                               |                |                e[0:2]: 0x24b-0x25d.7 (19)
     |                                               |                |                  [0]{}: in 0x24b-0x25c.7 (18)
0x240|                                 fd            |           .    |                    prefix: 0xfd (valid) 0x24b-0x24b.7 (1)
0x240|                                    0c         |            .   |                    v128.const: 12 (valid) 0x24c-0x24c.7 (1)
0x240|                                       40 42 0f|             @B.|                    bytes: raw bits 0x24d-0x25c.7 (16)
0x250|00 40 42 0f 00 40 42 0f 00 40 42 0f 00         |.@B..@B..@B..   |
     |                                               |                |                  [1]{}: in 0x25d-0x25d.7 (1)
0x250|                                       0b      |             .  |                    end: 0xb (valid) 0x25d-0x25d.7 (1)
     |                                               |                |            [8]{}: code 0x25e-0x272.7 (21)
0x250|                                          14   |              . |              size: 20 0x25e-0x25e.7 (1)
     |                                               |                |              code{}: 0x25f-0x272.7 (20)
     |                                               |                |                t{}: 0x25f-0x25f.7 (1)
0x250|                                             00|               .|                  n: 0 0x25f-0x25f.7 (1)
     |                                               |                |                  x[0:0]: 0x260-NA (0)
     |                                               |                |                e[0:2]: 0x260-0x272.7 (19)
     |                                               |                |                  [0]{}: in 0x260-0x271.7 (18)
0x260|fd                                             |.               |                    prefix: 0xfd (valid) 0x260-0x260.7 (1)
0x260|   0c                                          | .              |                    v128.const: 12 (valid) 0x261-0x261.7 (1)
0x260|      e8 03 00 00 e8 03 00 00 e8 03 00 00 e8 03|  ..............|                    bytes: raw bits 0x262-0x271.7 (16)
0x270|00 00                                          |..              |
     |                                               |                |                  [1]{}: in 0x272-0x272.7 (1)
0x270|      0b                                       |  .             |                    end: 0xb (valid) 0x272-0x272.7 (1)
     |                                               |                |            [9]{}: code 0x273-0x287.7 (21)
0x270|         14                                    |   .            |              size: 20 0x273-0x273.7 (1)
     |                                               |                |              code{}: 0x274-0x287.7 (20)
     |                                               |                |                t{}: 0x274-0x274.7 (1)
0x270|            00                                 |    .           |                  n: 0 0x274-0x274.7 (1)
     |                                               |                |                  x[0:0]: 0x275-NA (0)
     |                                               |                |                e[0:2]: 0x275-0x287.7 (19)
     |                                               |                |                  [0]{}: in 0x275-0x286.7 (18)
0x270|               fd                              |     .          |                    prefix: 0xfd (valid) 0x275-0x275.7 (1)
0x270|                  0c                           |      .         |                    v128.const: 12 (valid) 0x276-0x276.7 (1)
0x270|                     99 00 0f 0a 99 00 0f 0a 99|       .........|                    bytes: raw bits 0x277-0x286.7 (16)
0x280|00 0f 0a 99 00 0f 0a                           |.......         |
     |                                               |                |                  [1]{}: in 0x287-0x287.7 (1)
0x280|                     0b                        |       .        |                    end: 0xb (valid) 0x287-0x287.7 (1)
     |                                               |                |            [10]{}: code 0x288-0x29c.7 (21)
0x280|                        14                     |        .       |              size: 20 0x288-0x288.7 (1)
     |                                               |                |              code{}: 0x289-0x29c.7 (20)
     |                                               |                |                t{}: 0x289-0x289.7 (1)
0x280|                           00                  |         .      |                  n: 0 0x289-0x289.7 (1)
     |                                               |                |                  x[0:0]: 0x28a-NA (0)
     |                                               |                |                e[0:2]: 0x28a-0x29c.7 (19)
     |                                               |                |                  [0]{}: in 0x28a-0x29b.7 (18)
0x280|                              fd               |          .     |                    prefix: 0xfd (valid) 0x28a-0x28a.7 (1)
0x280|                                 0c            |           .    |                    v128.const: 12 (valid) 0x28b-0x28b.7 (1)
0x280|                                    0f aa 01 00|            ....|                    bytes: raw bits 0x28c-0x29b.7 (16)
0x290|0f aa 01 00 0f aa 01 00 0f aa 01 00            |............    |
     |                                               |                |                  [1]{}: in 0x29c-0x29c.7 (1)
0x290|                                    0b         |            .   |                    end: 0xb (valid) 0x29c-0x29c.7 (1)
     |                                               |                |            [11]{}: code 0x29d-0x2b2.7 (22)
0x290|                                       15      |             .  |              size: 21 0x29d-0x29d.7 (1)
     |                                               |                |              code{}: 0x29e-0x2b2.7 (21)
     |                                               |                |                t{}: 0x29e-0x29e.7 (1)
0x290|                                          00   |              . |                  n: 0 0x29e-0x29e.7 (1)
     |                                               |                |                  x[0:0]: 0x29f-NA (0)
     |                                               |                |                e[0:3]: 0x29f-0x2b2.7 (20)
     |                                               |                |                  [0]{}: in 0x29f-0x2b0.7 (18)
0x290|                                             fd|               .|                    prefix: 0xfd (valid) 0x29f-0x29f.7 (1)
0x2a0|0c                                             |.               |                    v128.const: 12 (valid) 0x2a0-0x2a0.7 (1)
0x2a0|   0d d0 ad 0b 0d d0 ad 0b 0d d0 ad 0b 0d d0 ad| ...............|                    bytes: raw bits 0x2a1-0x2b0.7 (16)
0x2b0|0b                                             |.               |
     |                                               |                |                  [1]{}: in 0x2b1-0x2b1.7 (1)
0x2b0|   0f                                          | .              |                    return: 0xf (valid) 0x2b1-0x2b1.7 (1)
     |                                               |                |                  [2]{}: in 0x2b2-0x2b2.7 (1)
0x2b0|      0b                                       |  .             |                    end: 0xb (valid) 0x2b2-0x2b2.7 (1)
     |                                               |                |            [12]{}: code 0x2b3-0x2c8.7 (22)
0x2b0|         15                                    |   .            |              size: 21 0x2b3-0x2b3.7 (1)
     |                                               |                |              code{}: 0x2b4-0x2c8.7 (21)
     |                                               |                |                t{}: 0x2b4-0x2b4.7 (1)
0x2b0|            00                                 |    .           |                  n: 0 0x2b4-0x2b4.7 (1)
     |                                               |                |                  x[0:0]: 0x2b5-NA (0)
     |                                               |                |                e[0:3]: 0x2b5-0x2c8.7 (20)
     |                                               |                |                  [0]{}: in 0x2b5-0x2c6.7 (18)
0x2b0|               fd                              |     .          |                    prefix: 0xfd (valid) 0x2b5-0x2b5.7 (1)
0x2b0|                  0c                           |      .         |                    v128.const: 12 (valid) 0x2b6-0x2b6.7 (1)
0x2b0|                     ff ff ff ff ff ff ff 7f ff|       .........|                    bytes: raw bits 0x2b7-0x2c6.7 (16)
0x2c0|ff ff ff ff ff ff 7f                           |.......         |
     |                                               |                |                  [1]{}: in 0x2c7-0x2c7.7 (1)
0x2c0|                     0f                        |       .        |                    return: 0xf (valid) 0x2c7-0x2c7.7 (1)
     |                                               |                |                  [2]{}: in 0x2c8-0x2c8.7 (1)
0x2c0|                        0b                     |        .       |                    end: 0xb (valid) 0x2c8-0x2c8.7 (1)
     |                                               |                |            [13]{}: code 0x2c9-0x2de.7 (22)
0x2c0|                           15                  |         .      |              size: 21 0x2c9-0x2c9.7 (1)
     |                                               |                |              code{}: 0x2ca-0x2de.7 (21)
     |                                               |                |                t{}: 0x2ca-0x2ca.7 (1)
0x2c0|                              00               |          .     |                  n: 0 0x2ca-0x2ca.7 (1)
     |                                               |                |                  x[0:0]: 0x2cb-NA (0)
     |                                               |                |                e[0:3]: 0x2cb-0x2de.7 (20)
     |                                               |                |                  [0]{}: in 0x2cb-0x2dc.7 (18)
0x2c0|                                 fd            |           .    |                    prefix: 0xfd (valid) 0x2cb-0x2cb.7 (1)
0x2c0|                                    0c         |            .   |                    v128.const: 12 (valid) 0x2cc-0x2cc.7 (1)
0x2c0|                                       01 00 00|             ...|                    bytes: raw bits 0x2cd-0x2dc.7 (16)
0x2d0|00 00 00 00 80 01 00 00 00 00 00 00 80         |.............   |
     |                                               |                |                  [1]{}: in 0x2dd-0x2dd.7 (1)
0x2d0|                                       0f      |             .  |                    return: 0xf (valid) 0x2dd-0x2dd.7 (1)
     |                                               |                |                  [2]{}: in 0x2de-0x2de.7 (1)
0x2d0|                                          0b   |              . |                    end: 0xb (valid) 0x2de-0x2de.7 (1)
     |                                               |                |            [14]{}: code 0x2df-0x309.7 (43)
0x2d0|                                             2a|               *|              size: 42 0x2df-0x2df.7 (1)
     |                                               |                |              code{}: 0x2e0-0x309.7 (42)
     |                                               |                |                t{}: 0x2e0-0x2e0.7 (1)
0x2e0|00                                             |.               |                  n: 0 0x2e0-0x2e0.7 (1)
     |                                               |                |                  x[0:0]: 0x2e1-NA (0)
     |                                               |                |                e[0:5]: 0x2e1-0x309.7 (41)
     |                                               |                |                  [0]{}: in 0x2e1-0x2f2.7 (18)
0x2e0|   fd                                          | .              |                    prefix: 0xfd (valid) 0x2e1-0x2e1.7 (1)
0x2e0|      0c                                       |  .             |                    v128.const: 12 (valid) 0x2e2-0x2e2.7 (1)
0x2e0|         00 00 00 00 00 00 00 80 00 00 00 00 00|   .............|                    bytes: raw bits 0x2e3-0x2f2.7 (16)
0x2f0|00 00 80                                       |...             |
     |                                               |                |                  [1]{}: in 0x2f3-0x304.7 (18)
0x2f0|         fd                                    |   .            |                    prefix: 0xfd (valid) 0x2f3-0x2f3.7 (1)
0x2f0|            0c                                 |    .           |                    v128.const: 12 (valid) 0x2f4-0x2f4.7 (1)
0x2f0|               01 00 00 00 00 00 00 00 01 00 00|     ...........|                    bytes: raw bits 0x2f5-0x304.7 (16)
0x300|00 00 00 00 00                                 |.....           |
     |                                               |                |                  [2]{}: in 0x305-0x307.7 (3)
0x300|               fd                              |     .          |                    prefix: 0xfd (valid) 0x305-0x305.7 (1)
0x300|                  ce 01                        |      ..        |                    i64x2.add: 206 (valid) 0x306-0x307.7 (2)
     |                                               |                |                  [3]{}: in 0x308-0x308.7 (1)
0x300|                        0f                     |        .       |                    return: 0xf (valid) 0x308-0x308.7 (1)
     |                                               |                |                  [4]{}: in 0x309-0x309.7 (1)
0x300|                           0b                  |         .      |                    end: 0xb (valid) 0x309-0x309.7 (1)
     |                                               |                |            [15]{}: code 0x30a-0x31f.7 (22)
0x300|                              15               |          .     |              size: 21 0x30a-0x30a.7 (1)
     |                                               |                |              code{}: 0x30b-0x31f.7 (21)
     |                                               |                |                t{}: 0x30b-0x30b.7 (1)
0x300|                                 00            |           .    |                  n: 0 0x30b-0x30b.7 (1)
     |                                               |                |                  x[0:0]: 0x30c-NA (0)
     |                                               |                |                e[0:3]: 0x30c-0x31f.7 (20)
     |                                               |                |                  [0]{}: in 0x30c-0x31d.7 (18)
0x300|                                    fd         |            .   |                    prefix: 0xfd (valid) 0x30c-0x30c.7 (1)
0x300|                                       0c      |             .  |                    v128.const: 12 (valid) 0x30d-0x30d.7 (1)
0x300|                                          00 00|              ..|                    bytes: raw bits 0x30e-0x31d.7 (16)
0x310|00 00 00 00 00 00 00 00 00 00 00 00 00 00      |..............  |
     |                                               |                |                  [1]{}: in 0x31e-0x31e.7 (1)
0x310|                                          0f   |              . |                    return: 0xf (valid) 0x31e-0x31e.7 (1)
     |                                               |                |                  [2]{}: in 0x31f-0x31f.7 (1)
0x310|                                             0b|               .|                    end: 0xb (valid) 0x31f-0x31f.7 (1)
     |                                               |                |            [16]{}: code 0x320-0x335.7 (22)
0x320|15                                             |.               |              size: 21 0x320-0x320.7 (1)
     |                                               |                |              code{}: 0x321-0x335.7 (21)
     |                                               |                |                t{}: 0x321-0x321.7 (1)
0x320|   00                                          | .              |                  n: 0 0x321-0x321.7 (1)
     |                                               |                |                  x[0:0]: 0x322-NA (0)
     |                                               |                |                e[0:3]: 0x322-0x335.7 (20)
     |                                               |                |                  [0]{}: in 0x322-0x333.7 (18)
0x320|      fd                                       |  .             |                    prefix: 0xfd (valid) 0x322-0x322.7 (1)
0x320|         0c                                    |   .            |                    v128.const: 12 (valid) 0x323-0x323.7 (1)
0x320|            1a 27 00 00 00 00 00 00 1a 27 00 00|    .'.......'..|                    bytes: raw bits 0x324-0x333.7 (16)
0x330|00 00 00 00                                    |....            |
     |                                               |                |                  [1]{}: in 0x334-0x334.7 (1)
0x330|            0f                                 |    .           |                    return: 0xf (valid) 0x334-0x334.7 (1)
     |                                               |                |                  [2]{}: in 0x335-0x335.7 (1)
0x330|               0b                              |     .          |                    end: 0xb (valid) 0x335-0x335.7 (1)
     |                                               |                |            [17]{}: code 0x336-0x34b.7 (22)
0x330|                  15                           |      .         |              size: 21 0x336-0x336.7 (1)
     |                                               |                |              code{}: 0x337-0x34b.7 (21)
     |                                               |                |                t{}: 0x337-0x337.7 (1)
0x330|                     00                        |       .        |                  n: 0 0x337-0x337.7 (1)
     |                                               |                |                  x[0:0]: 0x338-NA (0)
     |                                               |                |                e[0:3]: 0x338-0x34b.7 (20)
     |                                               |                |                  [0]{}: in 0x338-0x349.7 (18)
0x330|                        fd                     |        .       |                    prefix: 0xfd (valid) 0x338-0x338.7 (1)
0x330|                           0c                  |         .      |                    v128.const: 12 (valid) 0x339-0x339.7 (1)
0x330|                              2a 00 00 00 00 00|          *.....|                    bytes: raw bits 0x33a-0x349.7 (16)
0x340|00 00 2a 00 00 00 00 00 00 00                  |..*.......      |
     |                                               |                |                  [1]{}: in 0x34a-0x34a.7 (1)
0x340|                              0f               |          .     |                    return: 0xf (valid) 0x34a-0x34a.7 (1)
     |                                               |                |                  [2]{}: in 0x34b-0x34b.7 (1)
0x340|                                 0b            |           .    |                    end: 0xb (valid) 0x34b-0x34b.7 (1)
     |                                               |                |            [18]{}: code 0x34c-0x360.7 (21)
0x340|                                    14         |            .   |              size: 20 0x34c-0x34c.7 (1)
     |                                               |                |              code{}: 0x34d-0x360.7 (20)
     |                                               |                |                t{}: 0x34d-0x34d.7 (1)
0x340|                                       00      |             .  |                  n: 0 0x34d-0x34d.7 (1)
     |                                               |                |                  x[0:0]: 0x34e-NA (0)
     |                                               |                |                e[0:2]: 0x34e-0x360.7 (19)
     |                                               |                |                  [0]{}: in 0x34e-0x35f.7 (18)
0x340|                                          fd   |              . |                    prefix: 0xfd (valid) 0x34e-0x34e.7 (1)
0x340|                                             0c|               .|                    v128.const: 12 (valid) 0x34f-0x34f.7 (1)
0x350|00 a0 72 4e 18 09 00 00 00 a0 72 4e 18 09 00 00|..rN......rN....|                    bytes: raw bits 0x350-0x35f.7 (16)
     |                                               |                |                  [1]{}: in 0x360-0x360.7 (1)
0x360|0b                                             |.               |                    end: 0xb (valid) 0x360-0x360.7 (1)
     |                                               |                |            [19]{}: code 0x361-0x375.7 (21)
0x360|   14                                          | .              |              size: 20 0x361-0x361.7 (1)
     |                                               |                |              code{}: 0x362-0x375.7 (20)
     |                                               |                |                t{}: 0x362-0x362.7 (1)
0x360|      00                                       |  .             |                  n: 0 0x362-0x362.7 (1)
     |                                               |                |                  x[0:0]: 0x363-NA (0)
     |                                               |                |                e[0:2]: 0x363-0x375.7 (19)
     |                                               |                |                  [0]{}: in 0x363-0x374.7 (18)
0x360|         fd                                    |   .            |                    prefix: 0xfd (valid) 0x363-0x363.7 (1)
0x360|            0c                                 |    .           |                    v128.const: 12 (valid) 0x364-0x364.7 (1)
0x360|               80 96 98 00 00 00 00 00 80 96 98|     ...........|                    bytes: raw bits 0x365-0x374.7 (16)
0x370|00 00 00 00 00                                 |.....           |
     |                                               |                |                  [1]{}: in 0x375-0x375.7 (1)
0x370|               0b                              |     .          |                    end: 0xb (valid) 0x375-0x375.7 (1)
     |                                               |                |            [20]{}: code 0x376-0x38a.7 (21)
0x370|                  14                           |      .         |              size: 20 0x376-0x376.7 (1)
     |                                               |                |              code{}: 0x377-0x38a.7 (20)
     |                                               |                |                t{}: 0x377-0x377.7 (1)
0x370|                     00                        |       .        |                  n: 0 0x377-0x377.7 (1)
     |                                               |                |                  x[0:0]: 0x378-NA (0)
     |                                               |                |                e[0:2]: 0x378-0x38a.7 (19)
     |                                               |                |                  [0]{}: in 0x378-0x389.7 (18)
0x370|                        fd                     |        .       |                    prefix: 0xfd (valid) 0x378-0x378.7 (1)
0x370|                           0c                  |         .      |                    v128.const: 12 (valid) 0x379-0x379.7 (1)
0x370|                              99 00 0f 0a 99 00|          ......|                    bytes: raw bits 0x37a-0x389.7 (16)
0x380|0f 0a 99 00 0f 0a 99 00 0f 0a                  |..........      |
     |                                               |                |                  [1]{}: in 0x38a-0x38a.7 (1)
0x380|                              0b               |          .     |                    end: 0xb (valid) 0x38a-0x38a.7 (1)
     |                                               |                |            [21]{}: code 0x38b-0x39f.7 (21)
0x380|                                 14            |           .    |              size: 20 0x38b-0x38b.7 (1)
     |                                               |                |              code{}: 0x38c-0x39f.7 (20)
     |                                               |                |                t{}: 0x38c-0x38c.7 (1)
0x380|                                    00         |            .   |                  n: 0 0x38c-0x38c.7 (1)
     |                                               |                |                  x[0:0]: 0x38d-NA (0)
     |                                               |                |                e[0:2]: 0x38d-0x39f.7 (19)
     |                                               |                |                  [0]{}: in 0x38d-0x39e.7 (18)
0x380|                                       fd      |             .  |                    prefix: 0xfd (valid) 0x38d-0x38d.7 (1)
0x380|                                          0c   |              . |                    v128.const: 12 (valid) 0x38e-0x38e.7 (1)
0x380|                                             0f|               .|                    bytes: raw bits 0x38f-0x39e.7 (16)
0x390|aa f1 a0 1a 00 00 00 0f aa f1 a0 1a 00 00 00   |............... |
     |                                               |                |                  [1]{}: in 0x39f-0x39f.7 (1)
0x390|                                             0b|               .|                    end: 0xb (valid) 0x39f-0x39f.7 (1)
