$ fq -d wasm dv simd_load-10.wasm
    |00 01 02 03 04 05 06 07 08 09 0a 0b 0c 0d 0e 0f|0123456789abcdef|.{}: simd_load-10.wasm (wasm) 0x0-0x67 (103)
0x00|00 61 73 6d                                    |.asm            |  magic: raw bits (valid) 0x0-0x4 (4)
0x00|            01 00 00 00                        |    ....        |  version: 1 0x4-0x8 (4)
    |                                               |                |  sections[0:6]: 0x8-0x67 (95)
    |                                               |                |    [0]{}: section 0x8-0xf (7)
0x00|                        01                     |        .       |      id: "type_section" (1) 0x8-0x9 (1)
0x00|                           05                  |         .      |      size: 5 (valid) 0x9-0xa (1)
    |                                               |                |      content{}: 0xa-0xf (5)
    |                                               |                |        ft{}: 0xa-0xf (5)
0x00|                              01               |          .     |          n: 1 (valid) 0xa-0xb (1)
    |                                               |                |          x[0:1]: 0xb-0xf (4)
    |                                               |                |            [0]{}: ft 0xb-0xf (4)
0x00|                                 60            |           `    |              tag: 0x60 (valid) 0xb-0xc (1)
    |                                               |                |              rt1{}: 0xc-0xd (1)
0x00|                                    00         |            .   |                n: 0 (valid) 0xc-0xd (1)
    |                                               |                |                x[0:0]: 0xd-0xd (0)
    |                                               |                |              rt2{}: 0xd-0xf (2)
0x00|                                       01      |             .  |                n: 1 (valid) 0xd-0xe (1)
    |                                               |                |                x[0:1]: 0xe-0xf (1)
0x00|                                          7b   |              { |                  [0]: "v128" (0x7b) t 0xe-0xf (1)
    |                                               |                |    [1]{}: section 0xf-0x13 (4)
0x00|                                             03|               .|      id: "function_section" (3) 0xf-0x10 (1)
0x10|02                                             |.               |      size: 2 (valid) 0x10-0x11 (1)
    |                                               |                |      content{}: 0x11-0x13 (2)
    |                                               |                |        x{}: 0x11-0x13 (2)
0x10|   01                                          | .              |          n: 1 (valid) 0x11-0x12 (1)
    |                                               |                |          x[0:1]: 0x12-0x13 (1)
0x10|      00                                       |  .             |            [0]: 0 x (valid) 0x12-0x13 (1)
    |                                               |                |    [2]{}: section 0x13-0x18 (5)
0x10|         05                                    |   .            |      id: "memory_section" (5) 0x13-0x14 (1)
0x10|            03                                 |    .           |      size: 3 (valid) 0x14-0x15 (1)
    |                                               |                |      content{}: 0x15-0x18 (3)
    |                                               |                |        mem{}: 0x15-0x18 (3)
0x10|               01                              |     .          |          n: 1 (valid) 0x15-0x16 (1)
    |                                               |                |          x[0:1]: 0x16-0x18 (2)
    |                                               |                |            [0]{}: mem 0x16-0x18 (2)
    |                                               |                |              lim{}: 0x16-0x18 (2)
0x10|                  00                           |      .         |                tag: 0x0 0x16-0x17 (1)
0x10|                     01                        |       .        |                n: 1 (valid) 0x17-0x18 (1)
    |                                               |                |    [3]{}: section 0x18-0x40 (40)
0x10|                        07                     |        .       |      id: "export_section" (7) 0x18-0x19 (1)
0x10|                           26                  |         &      |      size: 38 (valid) 0x19-0x1a (1)
    |                                               |                |      content{}: 0x1a-0x40 (38)
    |                                               |                |        ex{}: 0x1a-0x40 (38)
0x10|                              01               |          .     |          n: 1 (valid) 0x1a-0x1b (1)
    |                                               |                |          x[0:1]: 0x1b-0x40 (37)
    |                                               |                |            [0]{}: ex 0x1b-0x40 (37)
    |                                               |                |              nm{}: 0x1b-0x3e (35)
0x10|                                 22            |           "    |                n: 34 (valid) 0x1b-0x1c (1)
0x10|                                    61 73 2d 69|            as-i|                b: "as-i32x4.trunc_sat_f32x4_s-operand" 0x1c-0x3e (34)
0x20|33 32 78 34 2e 74 72 75 6e 63 5f 73 61 74 5f 66|32x4.trunc_sat_f|
0x30|33 32 78 34 5f 73 2d 6f 70 65 72 61 6e 64      |32x4_s-operand  |
    |                                               |                |              d{}: 0x3e-0x40 (2)
0x30|                                          00   |              . |                tag: "funcidx" (0x0) 0x3e-0x3f (1)
0x30|                                             00|               .|                x: 0 (valid) 0x3f-0x40 (1)
    |                                               |                |    [4]{}: section 0x40-0x4f (15)
0x40|0a                                             |.               |      id: "code_section" (10) 0x40-0x41 (1)
0x40|   0d                                          | .              |      size: 13 (valid) 0x41-0x42 (1)
    |                                               |                |      content{}: 0x42-0x4f (13)
    |                                               |                |        code{}: 0x42-0x4f (13)
0x40|      01                                       |  .             |          n: 1 (valid) 0x42-0x43 (1)
    |                                               |                |          x[0:1]: 0x43-0x4f (12)
    |                                               |                |            [0]{}: code 0x43-0x4f (12)
0x40|         0b                                    |   .            |              size: 11 (valid) 0x43-0x44 (1)
    |                                               |                |              code{}: 0x44-0x4f (11)
    |                                               |                |                t{}: 0x44-0x45 (1)
0x40|            00                                 |    .           |                  n: 0 (valid) 0x44-0x45 (1)
    |                                               |                |                  x[0:0]: 0x45-0x45 (0)
    |                                               |                |                e[0:4]: 0x45-0x4f (10)
    |                                               |                |                  [0]{}: in 0x45-0x47 (2)
0x40|               41                              |     A          |                    opcode: "i32.const" (0x41) 0x45-0x46 (1)
0x40|                  00                           |      .         |                    n: 0 (valid) 0x46-0x47 (1)
    |                                               |                |                  [1]{}: in 0x47-0x4b (4)
0x40|                     fd                        |       .        |                    opcode: "vector" (0xfd) 0x47-0x48 (1)
0x40|                        00                     |        .       |                    v_opcode: "v128.load" (0) 0x48-0x49 (1)
    |                                               |                |                    m{}: 0x49-0x4b (2)
0x40|                           04                  |         .      |                      a: 4 (valid) 0x49-0x4a (1)
0x40|                              00               |          .     |                      o: 0 (valid) 0x4a-0x4b (1)
    |                                               |                |                  [2]{}: in 0x4b-0x4e (3)
0x40|                                 fd            |           .    |                    opcode: "vector" (0xfd) 0x4b-0x4c (1)
0x40|                                    f8 01      |            ..  |                    v_opcode: "i32x4.trunc_sat_f32x4_s" (248) 0x4c-0x4e (2)
    |                                               |                |                  [3]{}: in 0x4e-0x4f (1)
0x40|                                          0b   |              . |                    opcode: "end" (0xb) 0x4e-0x4f (1)
    |                                               |                |    [5]{}: section 0x4f-0x67 (24)
0x40|                                             0b|               .|      id: "data_section" (11) 0x4f-0x50 (1)
0x50|16                                             |.               |      size: 22 (valid) 0x50-0x51 (1)
    |                                               |                |      content{}: 0x51-0x67 (22)
    |                                               |                |        seg{}: 0x51-0x67 (22)
0x50|   01                                          | .              |          n: 1 (valid) 0x51-0x52 (1)
    |                                               |                |          x[0:1]: 0x52-0x67 (21)
    |                                               |                |            [0]{}: seg 0x52-0x67 (21)
0x50|      00                                       |  .             |              tag: 0 (valid) 0x52-0x53 (1)
    |                                               |                |              e[0:2]: 0x53-0x56 (3)
    |                                               |                |                [0]{}: in 0x53-0x55 (2)
0x50|         41                                    |   A            |                  opcode: "i32.const" (0x41) 0x53-0x54 (1)
0x50|            00                                 |    .           |                  n: 0 (valid) 0x54-0x55 (1)
    |                                               |                |                [1]{}: in 0x55-0x56 (1)
0x50|               0b                              |     .          |                  opcode: "end" (0xb) 0x55-0x56 (1)
    |                                               |                |              b{}: 0x56-0x67 (17)
0x50|                  10                           |      .         |                n: 16 (valid) 0x56-0x57 (1)
0x50|                     00 00 00 43 00 00 80 3f 66|       ...C...?f|                x: raw bits 0x57-0x67 (16)
0x60|66 e6 3f 00 00 80 bf|                          |f.?....|        |
