$ fq -d wasm dv simd_bit_shift-1.wasm
     |00 01 02 03 04 05 06 07 08 09 0a 0b 0c 0d 0e 0f|0123456789abcdef|.{}: simd_bit_shift-1.wasm (wasm) 0x0-0x475.7 (1142)
0x000|00 61 73 6d                                    |.asm            |  magic: raw bits (valid) 0x0-0x3.7 (4)
0x000|            01 00 00 00                        |    ....        |  version: 1 0x4-0x7.7 (4)
     |                                               |                |  sections[0:5]: 0x8-0x475.7 (1134)
     |                                               |                |    [0]{}: section 0x8-0xd.7 (6)
0x000|                        01                     |        .       |      id: "type section" (1) 0x8-0x8.7 (1)
0x000|                           04                  |         .      |      size: 4 0x9-0x9.7 (1)
     |                                               |                |      content{}: 0xa-0xd.7 (4)
     |                                               |                |        ft{}: 0xa-0xd.7 (4)
0x000|                              01               |          .     |          n: 1 0xa-0xa.7 (1)
     |                                               |                |          x[0:1]: 0xb-0xd.7 (3)
     |                                               |                |            [0]{}: ft 0xb-0xd.7 (3)
0x000|                                 60            |           `    |              tag: 0x60 (valid) 0xb-0xb.7 (1)
     |                                               |                |              rt1{}: 0xc-0xc.7 (1)
0x000|                                    00         |            .   |                n: 0 0xc-0xc.7 (1)
     |                                               |                |                x[0:0]: 0xd-NA (0)
     |                                               |                |              rt2{}: 0xd-0xd.7 (1)
0x000|                                       00      |             .  |                n: 0 0xd-0xd.7 (1)
     |                                               |                |                x[0:0]: 0xe-NA (0)
     |                                               |                |    [1]{}: section 0xe-0x28.7 (27)
0x000|                                          03   |              . |      id: "function section" (3) 0xe-0xe.7 (1)
0x000|                                             19|               .|      size: 25 0xf-0xf.7 (1)
     |                                               |                |      content{}: 0x10-0x28.7 (25)
     |                                               |                |        x{}: 0x10-0x28.7 (25)
0x010|18                                             |.               |          n: 24 0x10-0x10.7 (1)
     |                                               |                |          x[0:24]: 0x11-0x28.7 (24)
0x010|   00                                          | .              |            [0]: 0 x 0x11-0x11.7 (1)
0x010|      00                                       |  .             |            [1]: 0 x 0x12-0x12.7 (1)
0x010|         00                                    |   .            |            [2]: 0 x 0x13-0x13.7 (1)
0x010|            00                                 |    .           |            [3]: 0 x 0x14-0x14.7 (1)
0x010|               00                              |     .          |            [4]: 0 x 0x15-0x15.7 (1)
0x010|                  00                           |      .         |            [5]: 0 x 0x16-0x16.7 (1)
0x010|                     00                        |       .        |            [6]: 0 x 0x17-0x17.7 (1)
0x010|                        00                     |        .       |            [7]: 0 x 0x18-0x18.7 (1)
0x010|                           00                  |         .      |            [8]: 0 x 0x19-0x19.7 (1)
0x010|                              00               |          .     |            [9]: 0 x 0x1a-0x1a.7 (1)
0x010|                                 00            |           .    |            [10]: 0 x 0x1b-0x1b.7 (1)
0x010|                                    00         |            .   |            [11]: 0 x 0x1c-0x1c.7 (1)
0x010|                                       00      |             .  |            [12]: 0 x 0x1d-0x1d.7 (1)
0x010|                                          00   |              . |            [13]: 0 x 0x1e-0x1e.7 (1)
0x010|                                             00|               .|            [14]: 0 x 0x1f-0x1f.7 (1)
0x020|00                                             |.               |            [15]: 0 x 0x20-0x20.7 (1)
0x020|   00                                          | .              |            [16]: 0 x 0x21-0x21.7 (1)
0x020|      00                                       |  .             |            [17]: 0 x 0x22-0x22.7 (1)
0x020|         00                                    |   .            |            [18]: 0 x 0x23-0x23.7 (1)
0x020|            00                                 |    .           |            [19]: 0 x 0x24-0x24.7 (1)
0x020|               00                              |     .          |            [20]: 0 x 0x25-0x25.7 (1)
0x020|                  00                           |      .         |            [21]: 0 x 0x26-0x26.7 (1)
0x020|                     00                        |       .        |            [22]: 0 x 0x27-0x27.7 (1)
0x020|                        00                     |        .       |            [23]: 0 x 0x28-0x28.7 (1)
     |                                               |                |    [2]{}: section 0x29-0x2d.7 (5)
0x020|                           05                  |         .      |      id: "memory section" (5) 0x29-0x29.7 (1)
0x020|                              03               |          .     |      size: 3 0x2a-0x2a.7 (1)
     |                                               |                |      content{}: 0x2b-0x2d.7 (3)
     |                                               |                |        mem{}: 0x2b-0x2d.7 (3)
0x020|                                 01            |           .    |          n: 1 0x2b-0x2b.7 (1)
     |                                               |                |          x[0:1]: 0x2c-0x2d.7 (2)
     |                                               |                |            [0]{}: mem 0x2c-0x2d.7 (2)
     |                                               |                |              lim{}: 0x2c-0x2d.7 (2)
0x020|                                    00         |            .   |                tag: 0x0 0x2c-0x2c.7 (1)
0x020|                                       01      |             .  |                n: 1 0x2d-0x2d.7 (1)
     |                                               |                |    [3]{}: section 0x2e-0x231.7 (516)
0x020|                                          07   |              . |      id: "export section" (7) 0x2e-0x2e.7 (1)
0x020|                                             81|               .|      size: 513 0x2f-0x30.7 (2)
0x030|04                                             |.               |
     |                                               |                |      content{}: 0x31-0x231.7 (513)
     |                                               |                |        ex{}: 0x31-0x231.7 (513)
0x030|   18                                          | .              |          n: 24 0x31-0x31.7 (1)
     |                                               |                |          x[0:24]: 0x32-0x231.7 (512)
     |                                               |                |            [0]{}: ex 0x32-0x46.7 (21)
     |                                               |                |              nm{}: 0x32-0x44.7 (19)
0x030|      12                                       |  .             |                n: 18 0x32-0x32.7 (1)
0x030|         69 38 78 31 36 2e 73 68 6c 2d 69 6e 2d|   i8x16.shl-in-|                b: "i8x16.shl-in-block" 0x33-0x44.7 (18)
0x040|62 6c 6f 63 6b                                 |block           |
     |                                               |                |              d{}: 0x45-0x46.7 (2)
0x040|               00                              |     .          |                tag: "funcidx" (0x0) 0x45-0x45.7 (1)
0x040|                  00                           |      .         |                x: 0 0x46-0x46.7 (1)
     |                                               |                |            [1]{}: ex 0x47-0x5d.7 (23)
     |                                               |                |              nm{}: 0x47-0x5b.7 (21)
0x040|                     14                        |       .        |                n: 20 0x47-0x47.7 (1)
0x040|                        69 38 78 31 36 2e 73 68|        i8x16.sh|                b: "i8x16.shr_s-in-block" 0x48-0x5b.7 (20)
0x050|72 5f 73 2d 69 6e 2d 62 6c 6f 63 6b            |r_s-in-block    |
     |                                               |                |              d{}: 0x5c-0x5d.7 (2)
0x050|                                    00         |            .   |                tag: "funcidx" (0x0) 0x5c-0x5c.7 (1)
0x050|                                       01      |             .  |                x: 1 0x5d-0x5d.7 (1)
     |                                               |                |            [2]{}: ex 0x5e-0x74.7 (23)
     |                                               |                |              nm{}: 0x5e-0x72.7 (21)
0x050|                                          14   |              . |                n: 20 0x5e-0x5e.7 (1)
0x050|                                             69|               i|                b: "i8x16.shr_u-in-block" 0x5f-0x72.7 (20)
0x060|38 78 31 36 2e 73 68 72 5f 75 2d 69 6e 2d 62 6c|8x16.shr_u-in-bl|
0x070|6f 63 6b                                       |ock             |
     |                                               |                |              d{}: 0x73-0x74.7 (2)
0x070|         00                                    |   .            |                tag: "funcidx" (0x0) 0x73-0x73.7 (1)
0x070|            02                                 |    .           |                x: 2 0x74-0x74.7 (1)
     |                                               |                |            [3]{}: ex 0x75-0x89.7 (21)
     |                                               |                |              nm{}: 0x75-0x87.7 (19)
0x070|               12                              |     .          |                n: 18 0x75-0x75.7 (1)
0x070|                  69 31 36 78 38 2e 73 68 6c 2d|      i16x8.shl-|                b: "i16x8.shl-in-block" 0x76-0x87.7 (18)
0x080|69 6e 2d 62 6c 6f 63 6b                        |in-block        |
     |                                               |                |              d{}: 0x88-0x89.7 (2)
0x080|                        00                     |        .       |                tag: "funcidx" (0x0) 0x88-0x88.7 (1)
0x080|                           03                  |         .      |                x: 3 0x89-0x89.7 (1)
     |                                               |                |            [4]{}: ex 0x8a-0xa0.7 (23)
     |                                               |                |              nm{}: 0x8a-0x9e.7 (21)
0x080|                              14               |          .     |                n: 20 0x8a-0x8a.7 (1)
0x080|                                 69 31 36 78 38|           i16x8|                b: "i16x8.shr_s-in-block" 0x8b-0x9e.7 (20)
0x090|2e 73 68 72 5f 73 2d 69 6e 2d 62 6c 6f 63 6b   |.shr_s-in-block |
     |                                               |                |              d{}: 0x9f-0xa0.7 (2)
0x090|                                             00|               .|                tag: "funcidx" (0x0) 0x9f-0x9f.7 (1)
0x0a0|04                                             |.               |                x: 4 0xa0-0xa0.7 (1)
     |                                               |                |            [5]{}: ex 0xa1-0xb7.7 (23)
     |                                               |                |              nm{}: 0xa1-0xb5.7 (21)
0x0a0|   14                                          | .              |                n: 20 0xa1-0xa1.7 (1)
0x0a0|      69 31 36 78 38 2e 73 68 72 5f 75 2d 69 6e|  i16x8.shr_u-in|                b: "i16x8.shr_u-in-block" 0xa2-0xb5.7 (20)
0x0b0|2d 62 6c 6f 63 6b                              |-block          |
     |                                               |                |              d{}: 0xb6-0xb7.7 (2)
0x0b0|                  00                           |      .         |                tag: "funcidx" (0x0) 0xb6-0xb6.7 (1)
0x0b0|                     05                        |       .        |                x: 5 0xb7-0xb7.7 (1)
     |                                               |                |            [6]{}: ex 0xb8-0xcc.7 (21)
     |                                               |                |              nm{}: 0xb8-0xca.7 (19)
0x0b0|                        12                     |        .       |                n: 18 0xb8-0xb8.7 (1)
0x0b0|                           69 33 32 78 34 2e 73|         i32x4.s|                b: "i32x4.shl-in-block" 0xb9-0xca.7 (18)
0x0c0|68 6c 2d 69 6e 2d 62 6c 6f 63 6b               |hl-in-block     |
     |                                               |                |              d{}: 0xcb-0xcc.7 (2)
0x0c0|                                 00            |           .    |                tag: "funcidx" (0x0) 0xcb-0xcb.7 (1)
0x0c0|                                    06         |            .   |                x: 6 0xcc-0xcc.7 (1)
     |                                               |                |            [7]{}: ex 0xcd-0xe3.7 (23)
     |                                               |                |              nm{}: 0xcd-0xe1.7 (21)
0x0c0|                                       14      |             .  |                n: 20 0xcd-0xcd.7 (1)
0x0c0|                                          69 33|              i3|                b: "i32x4.shr_s-in-block" 0xce-0xe1.7 (20)
0x0d0|32 78 34 2e 73 68 72 5f 73 2d 69 6e 2d 62 6c 6f|2x4.shr_s-in-blo|
0x0e0|63 6b                                          |ck              |
     |                                               |                |              d{}: 0xe2-0xe3.7 (2)
0x0e0|      00                                       |  .             |                tag: "funcidx" (0x0) 0xe2-0xe2.7 (1)
0x0e0|         07                                    |   .            |                x: 7 0xe3-0xe3.7 (1)
     |                                               |                |            [8]{}: ex 0xe4-0xfa.7 (23)
     |                                               |                |              nm{}: 0xe4-0xf8.7 (21)
0x0e0|            14                                 |    .           |                n: 20 0xe4-0xe4.7 (1)
0x0e0|               69 33 32 78 34 2e 73 68 72 5f 75|     i32x4.shr_u|                b: "i32x4.shr_u-in-block" 0xe5-0xf8.7 (20)
0x0f0|2d 69 6e 2d 62 6c 6f 63 6b                     |-in-block       |
     |                                               |                |              d{}: 0xf9-0xfa.7 (2)
0x0f0|                           00                  |         .      |                tag: "funcidx" (0x0) 0xf9-0xf9.7 (1)
0x0f0|                              08               |          .     |                x: 8 0xfa-0xfa.7 (1)
     |                                               |                |            [9]{}: ex 0xfb-0x10f.7 (21)
     |                                               |                |              nm{}: 0xfb-0x10d.7 (19)
0x0f0|                                 12            |           .    |                n: 18 0xfb-0xfb.7 (1)
0x0f0|                                    69 36 34 78|            i64x|                b: "i64x2.shl-in-block" 0xfc-0x10d.7 (18)
0x100|32 2e 73 68 6c 2d 69 6e 2d 62 6c 6f 63 6b      |2.shl-in-block  |
     |                                               |                |              d{}: 0x10e-0x10f.7 (2)
0x100|                                          00   |              . |                tag: "funcidx" (0x0) 0x10e-0x10e.7 (1)
0x100|                                             09|               .|                x: 9 0x10f-0x10f.7 (1)
     |                                               |                |            [10]{}: ex 0x110-0x126.7 (23)
     |                                               |                |              nm{}: 0x110-0x124.7 (21)
0x110|14                                             |.               |                n: 20 0x110-0x110.7 (1)
0x110|   69 36 34 78 32 2e 73 68 72 5f 73 2d 69 6e 2d| i64x2.shr_s-in-|                b: "i64x2.shr_s-in-block" 0x111-0x124.7 (20)
0x120|62 6c 6f 63 6b                                 |block           |
     |                                               |                |              d{}: 0x125-0x126.7 (2)
0x120|               00                              |     .          |                tag: "funcidx" (0x0) 0x125-0x125.7 (1)
0x120|                  0a                           |      .         |                x: 10 0x126-0x126.7 (1)
     |                                               |                |            [11]{}: ex 0x127-0x13d.7 (23)
     |                                               |                |              nm{}: 0x127-0x13b.7 (21)
0x120|                     14                        |       .        |                n: 20 0x127-0x127.7 (1)
0x120|                        69 36 34 78 32 2e 73 68|        i64x2.sh|                b: "i64x2.shr_u-in-block" 0x128-0x13b.7 (20)
0x130|72 5f 75 2d 69 6e 2d 62 6c 6f 63 6b            |r_u-in-block    |
     |                                               |                |              d{}: 0x13c-0x13d.7 (2)
0x130|                                    00         |            .   |                tag: "funcidx" (0x0) 0x13c-0x13c.7 (1)
0x130|                                       0b      |             .  |                x: 11 0x13d-0x13d.7 (1)
     |                                               |                |            [12]{}: ex 0x13e-0x150.7 (19)
     |                                               |                |              nm{}: 0x13e-0x14e.7 (17)
0x130|                                          10   |              . |                n: 16 0x13e-0x13e.7 (1)
0x130|                                             6e|               n|                b: "nested-i8x16.shl" 0x13f-0x14e.7 (16)
0x140|65 73 74 65 64 2d 69 38 78 31 36 2e 73 68 6c   |ested-i8x16.shl |
     |                                               |                |              d{}: 0x14f-0x150.7 (2)
0x140|                                             00|               .|                tag: "funcidx" (0x0) 0x14f-0x14f.7 (1)
0x150|0c                                             |.               |                x: 12 0x150-0x150.7 (1)
     |                                               |                |            [13]{}: ex 0x151-0x165.7 (21)
     |                                               |                |              nm{}: 0x151-0x163.7 (19)
0x150|   12                                          | .              |                n: 18 0x151-0x151.7 (1)
0x150|      6e 65 73 74 65 64 2d 69 38 78 31 36 2e 73|  nested-i8x16.s|                b: "nested-i8x16.shr_s" 0x152-0x163.7 (18)
0x160|68 72 5f 73                                    |hr_s            |
     |                                               |                |              d{}: 0x164-0x165.7 (2)
0x160|            00                                 |    .           |                tag: "funcidx" (0x0) 0x164-0x164.7 (1)
0x160|               0d                              |     .          |                x: 13 0x165-0x165.7 (1)
     |                                               |                |            [14]{}: ex 0x166-0x17a.7 (21)
     |                                               |                |              nm{}: 0x166-0x178.7 (19)
0x160|                  12                           |      .         |                n: 18 0x166-0x166.7 (1)
0x160|                     6e 65 73 74 65 64 2d 69 38|       nested-i8|                b: "nested-i8x16.shr_u" 0x167-0x178.7 (18)
0x170|78 31 36 2e 73 68 72 5f 75                     |x16.shr_u       |
     |                                               |                |              d{}: 0x179-0x17a.7 (2)
0x170|                           00                  |         .      |                tag: "funcidx" (0x0) 0x179-0x179.7 (1)
0x170|                              0e               |          .     |                x: 14 0x17a-0x17a.7 (1)
     |                                               |                |            [15]{}: ex 0x17b-0x18d.7 (19)
     |                                               |                |              nm{}: 0x17b-0x18b.7 (17)
0x170|                                 10            |           .    |                n: 16 0x17b-0x17b.7 (1)
0x170|                                    6e 65 73 74|            nest|                b: "nested-i16x8.shl" 0x17c-0x18b.7 (16)
0x180|65 64 2d 69 31 36 78 38 2e 73 68 6c            |ed-i16x8.shl    |
     |                                               |                |              d{}: 0x18c-0x18d.7 (2)
0x180|                                    00         |            .   |                tag: "funcidx" (0x0) 0x18c-0x18c.7 (1)
0x180|                                       0f      |             .  |                x: 15 0x18d-0x18d.7 (1)
     |                                               |                |            [16]{}: ex 0x18e-0x1a2.7 (21)
     |                                               |                |              nm{}: 0x18e-0x1a0.7 (19)
0x180|                                          12   |              . |                n: 18 0x18e-0x18e.7 (1)
0x180|                                             6e|               n|                b: "nested-i16x8.shr_s" 0x18f-0x1a0.7 (18)
0x190|65 73 74 65 64 2d 69 31 36 78 38 2e 73 68 72 5f|ested-i16x8.shr_|
0x1a0|73                                             |s               |
     |                                               |                |              d{}: 0x1a1-0x1a2.7 (2)
0x1a0|   00                                          | .              |                tag: "funcidx" (0x0) 0x1a1-0x1a1.7 (1)
0x1a0|      10                                       |  .             |                x: 16 0x1a2-0x1a2.7 (1)
     |                                               |                |            [17]{}: ex 0x1a3-0x1b7.7 (21)
     |                                               |                |              nm{}: 0x1a3-0x1b5.7 (19)
0x1a0|         12                                    |   .            |                n: 18 0x1a3-0x1a3.7 (1)
0x1a0|            6e 65 73 74 65 64 2d 69 31 36 78 38|    nested-i16x8|                b: "nested-i16x8.shr_u" 0x1a4-0x1b5.7 (18)
0x1b0|2e 73 68 72 5f 75                              |.shr_u          |
     |                                               |                |              d{}: 0x1b6-0x1b7.7 (2)
0x1b0|                  00                           |      .         |                tag: "funcidx" (0x0) 0x1b6-0x1b6.7 (1)
0x1b0|                     11                        |       .        |                x: 17 0x1b7-0x1b7.7 (1)
     |                                               |                |            [18]{}: ex 0x1b8-0x1ca.7 (19)
     |                                               |                |              nm{}: 0x1b8-0x1c8.7 (17)
0x1b0|                        10                     |        .       |                n: 16 0x1b8-0x1b8.7 (1)
0x1b0|                           6e 65 73 74 65 64 2d|         nested-|                b: "nested-i32x4.shl" 0x1b9-0x1c8.7 (16)
0x1c0|69 33 32 78 34 2e 73 68 6c                     |i32x4.shl       |
     |                                               |                |              d{}: 0x1c9-0x1ca.7 (2)
0x1c0|                           00                  |         .      |                tag: "funcidx" (0x0) 0x1c9-0x1c9.7 (1)
0x1c0|                              12               |          .     |                x: 18 0x1ca-0x1ca.7 (1)
     |                                               |                |            [19]{}: ex 0x1cb-0x1df.7 (21)
     |                                               |                |              nm{}: 0x1cb-0x1dd.7 (19)
0x1c0|                                 12            |           .    |                n: 18 0x1cb-0x1cb.7 (1)
0x1c0|                                    6e 65 73 74|            nest|                b: "nested-i32x4.shr_s" 0x1cc-0x1dd.7 (18)
0x1d0|65 64 2d 69 33 32 78 34 2e 73 68 72 5f 73      |ed-i32x4.shr_s  |
     |                                               |                |              d{}: 0x1de-0x1df.7 (2)
0x1d0|                                          00   |              . |                tag: "funcidx" (0x0) 0x1de-0x1de.7 (1)
0x1d0|                                             13|               .|                x: 19 0x1df-0x1df.7 (1)
     |                                               |                |            [20]{}: ex 0x1e0-0x1f4.7 (21)
     |                                               |                |              nm{}: 0x1e0-0x1f2.7 (19)
0x1e0|12                                             |.               |                n: 18 0x1e0-0x1e0.7 (1)
0x1e0|   6e 65 73 74 65 64 2d 69 33 32 78 34 2e 73 68| nested-i32x4.sh|                b: "nested-i32x4.shr_u" 0x1e1-0x1f2.7 (18)
0x1f0|72 5f 75                                       |r_u             |
     |                                               |                |              d{}: 0x1f3-0x1f4.7 (2)
0x1f0|         00                                    |   .            |                tag: "funcidx" (0x0) 0x1f3-0x1f3.7 (1)
0x1f0|            14                                 |    .           |                x: 20 0x1f4-0x1f4.7 (1)
     |                                               |                |            [21]{}: ex 0x1f5-0x207.7 (19)
     |                                               |                |              nm{}: 0x1f5-0x205.7 (17)
0x1f0|               10                              |     .          |                n: 16 0x1f5-0x1f5.7 (1)
0x1f0|                  6e 65 73 74 65 64 2d 69 36 34|      nested-i64|                b: "nested-i64x2.shl" 0x1f6-0x205.7 (16)
0x200|78 32 2e 73 68 6c                              |x2.shl          |
     |                                               |                |              d{}: 0x206-0x207.7 (2)
0x200|                  00                           |      .         |                tag: "funcidx" (0x0) 0x206-0x206.7 (1)
0x200|                     15                        |       .        |                x: 21 0x207-0x207.7 (1)
     |                                               |                |            [22]{}: ex 0x208-0x21c.7 (21)
     |                                               |                |              nm{}: 0x208-0x21a.7 (19)
0x200|                        12                     |        .       |                n: 18 0x208-0x208.7 (1)
0x200|                           6e 65 73 74 65 64 2d|         nested-|                b: "nested-i64x2.shr_s" 0x209-0x21a.7 (18)
0x210|69 36 34 78 32 2e 73 68 72 5f 73               |i64x2.shr_s     |
     |                                               |                |              d{}: 0x21b-0x21c.7 (2)
0x210|                                 00            |           .    |                tag: "funcidx" (0x0) 0x21b-0x21b.7 (1)
0x210|                                    16         |            .   |                x: 22 0x21c-0x21c.7 (1)
     |                                               |                |            [23]{}: ex 0x21d-0x231.7 (21)
     |                                               |                |              nm{}: 0x21d-0x22f.7 (19)
0x210|                                       12      |             .  |                n: 18 0x21d-0x21d.7 (1)
0x210|                                          6e 65|              ne|                b: "nested-i64x2.shr_u" 0x21e-0x22f.7 (18)
0x220|73 74 65 64 2d 69 36 34 78 32 2e 73 68 72 5f 75|sted-i64x2.shr_u|
     |                                               |                |              d{}: 0x230-0x231.7 (2)
0x230|00                                             |.               |                tag: "funcidx" (0x0) 0x230-0x230.7 (1)
0x230|   17                                          | .              |                x: 23 0x231-0x231.7 (1)
     |                                               |                |    [4]{}: section 0x232-0x475.7 (580)
0x230|      0a                                       |  .             |      id: "code section" (10) 0x232-0x232.7 (1)
0x230|         c1 04                                 |   ..           |      size: 577 0x233-0x234.7 (2)
     |                                               |                |      content{}: 0x235-0x475.7 (577)
     |                                               |                |        code{}: 0x235-0x475.7 (577)
0x230|               18                              |     .          |          n: 24 0x235-0x235.7 (1)
     |                                               |                |          x[0:24]: 0x236-0x475.7 (576)
     |                                               |                |            [0]{}: code 0x236-0x24c.7 (23)
0x230|                  16                           |      .         |              size: 22 0x236-0x236.7 (1)
     |                                               |                |              code{}: 0x237-0x24c.7 (22)
     |                                               |                |                t{}: 0x237-0x237.7 (1)
0x230|                     00                        |       .        |                  n: 0 0x237-0x237.7 (1)
     |                                               |                |                  x[0:0]: 0x238-NA (0)
     |                                               |                |                e[0:2]: 0x238-0x24c.7 (21)
     |                                               |                |                  [0]{}: in 0x238-0x24b.7 (20)
0x230|                        02                     |        .       |                    block: 0x2 (valid) 0x238-0x238.7 (1)
0x230|                           40                  |         @      |                    bt: "ε" (64) 0x239-0x239.7 (1)
     |                                               |                |                    instructions[0:2]: 0x23a-0x24a.7 (17)
     |                                               |                |                      [0]{}: instr 0x23a-0x249.7 (16)
0x230|                              02               |          .     |                        block: 0x2 (valid) 0x23a-0x23a.7 (1)
0x230|                                 7b            |           {    |                        bt: "v128" (123) 0x23b-0x23b.7 (1)
     |                                               |                |                        instructions[0:3]: 0x23c-0x248.7 (13)
     |                                               |                |                          [0]{}: instr 0x23c-0x244.7 (9)
0x230|                                    02         |            .   |                            block: 0x2 (valid) 0x23c-0x23c.7 (1)
0x230|                                       7b      |             {  |                            bt: "v128" (123) 0x23d-0x23d.7 (1)
     |                                               |                |                            instructions[0:2]: 0x23e-0x243.7 (6)
     |                                               |                |                              [0]{}: instr 0x23e-0x23f.7 (2)
0x230|                                          41   |              A |                                i32.const: 0x41 (valid) 0x23e-0x23e.7 (1)
0x230|                                             00|               .|                                n: 0 0x23f-0x23f.7 (1)
     |                                               |                |                              [1]{}: instr 0x240-0x243.7 (4)
0x240|fd                                             |.               |                                prefix: 0xfd (valid) 0x240-0x240.7 (1)
0x240|   00                                          | .              |                                v128.load: 0 (valid) 0x241-0x241.7 (1)
     |                                               |                |                                m{}: 0x242-0x243.7 (2)
0x240|      04                                       |  .             |                                  a: 4 0x242-0x242.7 (1)
0x240|         00                                    |   .            |                                  o: 0 0x243-0x243.7 (1)
0x240|            0b                                 |    .           |                            end: 11 (valid) 0x244-0x244.7 (1)
     |                                               |                |                          [1]{}: instr 0x245-0x246.7 (2)
0x240|               41                              |     A          |                            i32.const: 0x41 (valid) 0x245-0x245.7 (1)
0x240|                  01                           |      .         |                            n: 1 0x246-0x246.7 (1)
     |                                               |                |                          [2]{}: instr 0x247-0x248.7 (2)
0x240|                     fd                        |       .        |                            prefix: 0xfd (valid) 0x247-0x247.7 (1)
0x240|                        6b                     |        k       |                            i8x16.shl: 107 (valid) 0x248-0x248.7 (1)
0x240|                           0b                  |         .      |                        end: 11 (valid) 0x249-0x249.7 (1)
     |                                               |                |                      [1]{}: instr 0x24a-0x24a.7 (1)
0x240|                              1a               |          .     |                        drop: 0x1a (valid) 0x24a-0x24a.7 (1)
0x240|                                 0b            |           .    |                    end: 11 (valid) 0x24b-0x24b.7 (1)
     |                                               |                |                  [1]{}: in 0x24c-0x24c.7 (1)
0x240|                                    0b         |            .   |                    end: 0xb (valid) 0x24c-0x24c.7 (1)
     |                                               |                |            [1]{}: code 0x24d-0x263.7 (23)
0x240|                                       16      |             .  |              size: 22 0x24d-0x24d.7 (1)
     |                                               |                |              code{}: 0x24e-0x263.7 (22)
     |                                               |                |                t{}: 0x24e-0x24e.7 (1)
0x240|                                          00   |              . |                  n: 0 0x24e-0x24e.7 (1)
     |                                               |                |                  x[0:0]: 0x24f-NA (0)
     |                                               |                |                e[0:2]: 0x24f-0x263.7 (21)
     |                                               |                |                  [0]{}: in 0x24f-0x262.7 (20)
0x240|                                             02|               .|                    block: 0x2 (valid) 0x24f-0x24f.7 (1)
0x250|40                                             |@               |                    bt: "ε" (64) 0x250-0x250.7 (1)
     |                                               |                |                    instructions[0:2]: 0x251-0x261.7 (17)
     |                                               |                |                      [0]{}: instr 0x251-0x260.7 (16)
0x250|   02                                          | .              |                        block: 0x2 (valid) 0x251-0x251.7 (1)
0x250|      7b                                       |  {             |                        bt: "v128" (123) 0x252-0x252.7 (1)
     |                                               |                |                        instructions[0:3]: 0x253-0x25f.7 (13)
     |                                               |                |                          [0]{}: instr 0x253-0x25b.7 (9)
0x250|         02                                    |   .            |                            block: 0x2 (valid) 0x253-0x253.7 (1)
0x250|            7b                                 |    {           |                            bt: "v128" (123) 0x254-0x254.7 (1)
     |                                               |                |                            instructions[0:2]: 0x255-0x25a.7 (6)
     |                                               |                |                              [0]{}: instr 0x255-0x256.7 (2)
0x250|               41                              |     A          |                                i32.const: 0x41 (valid) 0x255-0x255.7 (1)
0x250|                  00                           |      .         |                                n: 0 0x256-0x256.7 (1)
     |                                               |                |                              [1]{}: instr 0x257-0x25a.7 (4)
0x250|                     fd                        |       .        |                                prefix: 0xfd (valid) 0x257-0x257.7 (1)
0x250|                        00                     |        .       |                                v128.load: 0 (valid) 0x258-0x258.7 (1)
     |                                               |                |                                m{}: 0x259-0x25a.7 (2)
0x250|                           04                  |         .      |                                  a: 4 0x259-0x259.7 (1)
0x250|                              00               |          .     |                                  o: 0 0x25a-0x25a.7 (1)
0x250|                                 0b            |           .    |                            end: 11 (valid) 0x25b-0x25b.7 (1)
     |                                               |                |                          [1]{}: instr 0x25c-0x25d.7 (2)
0x250|                                    41         |            A   |                            i32.const: 0x41 (valid) 0x25c-0x25c.7 (1)
0x250|                                       01      |             .  |                            n: 1 0x25d-0x25d.7 (1)
     |                                               |                |                          [2]{}: instr 0x25e-0x25f.7 (2)
0x250|                                          fd   |              . |                            prefix: 0xfd (valid) 0x25e-0x25e.7 (1)
0x250|                                             6c|               l|                            i8x16.shr_s: 108 (valid) 0x25f-0x25f.7 (1)
0x260|0b                                             |.               |                        end: 11 (valid) 0x260-0x260.7 (1)
     |                                               |                |                      [1]{}: instr 0x261-0x261.7 (1)
0x260|   1a                                          | .              |                        drop: 0x1a (valid) 0x261-0x261.7 (1)
0x260|      0b                                       |  .             |                    end: 11 (valid) 0x262-0x262.7 (1)
     |                                               |                |                  [1]{}: in 0x263-0x263.7 (1)
0x260|         0b                                    |   .            |                    end: 0xb (valid) 0x263-0x263.7 (1)
     |                                               |                |            [2]{}: code 0x264-0x27a.7 (23)
0x260|            16                                 |    .           |              size: 22 0x264-0x264.7 (1)
     |                                               |                |              code{}: 0x265-0x27a.7 (22)
     |                                               |                |                t{}: 0x265-0x265.7 (1)
0x260|               00                              |     .          |                  n: 0 0x265-0x265.7 (1)
     |                                               |                |                  x[0:0]: 0x266-NA (0)
     |                                               |                |                e[0:2]: 0x266-0x27a.7 (21)
     |                                               |                |                  [0]{}: in 0x266-0x279.7 (20)
0x260|                  02                           |      .         |                    block: 0x2 (valid) 0x266-0x266.7 (1)
0x260|                     40                        |       @        |                    bt: "ε" (64) 0x267-0x267.7 (1)
     |                                               |                |                    instructions[0:2]: 0x268-0x278.7 (17)
     |                                               |                |                      [0]{}: instr 0x268-0x277.7 (16)
0x260|                        02                     |        .       |                        block: 0x2 (valid) 0x268-0x268.7 (1)
0x260|                           7b                  |         {      |                        bt: "v128" (123) 0x269-0x269.7 (1)
     |                                               |                |                        instructions[0:3]: 0x26a-0x276.7 (13)
     |                                               |                |                          [0]{}: instr 0x26a-0x272.7 (9)
0x260|                              02               |          .     |                            block: 0x2 (valid) 0x26a-0x26a.7 (1)
0x260|                                 7b            |           {    |                            bt: "v128" (123) 0x26b-0x26b.7 (1)
     |                                               |                |                            instructions[0:2]: 0x26c-0x271.7 (6)
     |                                               |                |                              [0]{}: instr 0x26c-0x26d.7 (2)
0x260|                                    41         |            A   |                                i32.const: 0x41 (valid) 0x26c-0x26c.7 (1)
0x260|                                       00      |             .  |                                n: 0 0x26d-0x26d.7 (1)
     |                                               |                |                              [1]{}: instr 0x26e-0x271.7 (4)
0x260|                                          fd   |              . |                                prefix: 0xfd (valid) 0x26e-0x26e.7 (1)
0x260|                                             00|               .|                                v128.load: 0 (valid) 0x26f-0x26f.7 (1)
     |                                               |                |                                m{}: 0x270-0x271.7 (2)
0x270|04                                             |.               |                                  a: 4 0x270-0x270.7 (1)
0x270|   00                                          | .              |                                  o: 0 0x271-0x271.7 (1)
0x270|      0b                                       |  .             |                            end: 11 (valid) 0x272-0x272.7 (1)
     |                                               |                |                          [1]{}: instr 0x273-0x274.7 (2)
0x270|         41                                    |   A            |                            i32.const: 0x41 (valid) 0x273-0x273.7 (1)
0x270|            01                                 |    .           |                            n: 1 0x274-0x274.7 (1)
     |                                               |                |                          [2]{}: instr 0x275-0x276.7 (2)
0x270|               fd                              |     .          |                            prefix: 0xfd (valid) 0x275-0x275.7 (1)
0x270|                  6d                           |      m         |                            i8x16.shr_u: 109 (valid) 0x276-0x276.7 (1)
0x270|                     0b                        |       .        |                        end: 11 (valid) 0x277-0x277.7 (1)
     |                                               |                |                      [1]{}: instr 0x278-0x278.7 (1)
0x270|                        1a                     |        .       |                        drop: 0x1a (valid) 0x278-0x278.7 (1)
0x270|                           0b                  |         .      |                    end: 11 (valid) 0x279-0x279.7 (1)
     |                                               |                |                  [1]{}: in 0x27a-0x27a.7 (1)
0x270|                              0b               |          .     |                    end: 0xb (valid) 0x27a-0x27a.7 (1)
     |                                               |                |            [3]{}: code 0x27b-0x292.7 (24)
0x270|                                 17            |           .    |              size: 23 0x27b-0x27b.7 (1)
     |                                               |                |              code{}: 0x27c-0x292.7 (23)
     |                                               |                |                t{}: 0x27c-0x27c.7 (1)
0x270|                                    00         |            .   |                  n: 0 0x27c-0x27c.7 (1)
     |                                               |                |                  x[0:0]: 0x27d-NA (0)
     |                                               |                |                e[0:2]: 0x27d-0x292.7 (22)
     |                                               |                |                  [0]{}: in 0x27d-0x291.7 (21)
0x270|                                       02      |             .  |                    block: 0x2 (valid) 0x27d-0x27d.7 (1)
0x270|                                          40   |              @ |                    bt: "ε" (64) 0x27e-0x27e.7 (1)
     |                                               |                |                    instructions[0:2]: 0x27f-0x290.7 (18)
     |                                               |                |                      [0]{}: instr 0x27f-0x28f.7 (17)
0x270|                                             02|               .|                        block: 0x2 (valid) 0x27f-0x27f.7 (1)
0x280|7b                                             |{               |                        bt: "v128" (123) 0x280-0x280.7 (1)
     |                                               |                |                        instructions[0:3]: 0x281-0x28e.7 (14)
     |                                               |                |                          [0]{}: instr 0x281-0x289.7 (9)
0x280|   02                                          | .              |                            block: 0x2 (valid) 0x281-0x281.7 (1)
0x280|      7b                                       |  {             |                            bt: "v128" (123) 0x282-0x282.7 (1)
     |                                               |                |                            instructions[0:2]: 0x283-0x288.7 (6)
     |                                               |                |                              [0]{}: instr 0x283-0x284.7 (2)
0x280|         41                                    |   A            |                                i32.const: 0x41 (valid) 0x283-0x283.7 (1)
0x280|            00                                 |    .           |                                n: 0 0x284-0x284.7 (1)
     |                                               |                |                              [1]{}: instr 0x285-0x288.7 (4)
0x280|               fd                              |     .          |                                prefix: 0xfd (valid) 0x285-0x285.7 (1)
0x280|                  00                           |      .         |                                v128.load: 0 (valid) 0x286-0x286.7 (1)
     |                                               |                |                                m{}: 0x287-0x288.7 (2)
0x280|                     04                        |       .        |                                  a: 4 0x287-0x287.7 (1)
0x280|                        00                     |        .       |                                  o: 0 0x288-0x288.7 (1)
0x280|                           0b                  |         .      |                            end: 11 (valid) 0x289-0x289.7 (1)
     |                                               |                |                          [1]{}: instr 0x28a-0x28b.7 (2)
0x280|                              41               |          A     |                            i32.const: 0x41 (valid) 0x28a-0x28a.7 (1)
0x280|                                 01            |           .    |                            n: 1 0x28b-0x28b.7 (1)
     |                                               |                |                          [2]{}: instr 0x28c-0x28e.7 (3)
0x280|                                    fd         |            .   |                            prefix: 0xfd (valid) 0x28c-0x28c.7 (1)
0x280|                                       8b 01   |             .. |                            i16x8.shl: 139 (valid) 0x28d-0x28e.7 (2)
0x280|                                             0b|               .|                        end: 11 (valid) 0x28f-0x28f.7 (1)
     |                                               |                |                      [1]{}: instr 0x290-0x290.7 (1)
0x290|1a                                             |.               |                        drop: 0x1a (valid) 0x290-0x290.7 (1)
0x290|   0b                                          | .              |                    end: 11 (valid) 0x291-0x291.7 (1)
     |                                               |                |                  [1]{}: in 0x292-0x292.7 (1)
0x290|      0b                                       |  .             |                    end: 0xb (valid) 0x292-0x292.7 (1)
     |                                               |                |            [4]{}: code 0x293-0x2aa.7 (24)
0x290|         17                                    |   .            |              size: 23 0x293-0x293.7 (1)
     |                                               |                |              code{}: 0x294-0x2aa.7 (23)
     |                                               |                |                t{}: 0x294-0x294.7 (1)
0x290|            00                                 |    .           |                  n: 0 0x294-0x294.7 (1)
     |                                               |                |                  x[0:0]: 0x295-NA (0)
     |                                               |                |                e[0:2]: 0x295-0x2aa.7 (22)
     |                                               |                |                  [0]{}: in 0x295-0x2a9.7 (21)
0x290|               02                              |     .          |                    block: 0x2 (valid) 0x295-0x295.7 (1)
0x290|                  40                           |      @         |                    bt: "ε" (64) 0x296-0x296.7 (1)
     |                                               |                |                    instructions[0:2]: 0x297-0x2a8.7 (18)
     |                                               |                |                      [0]{}: instr 0x297-0x2a7.7 (17)
0x290|                     02                        |       .        |                        block: 0x2 (valid) 0x297-0x297.7 (1)
0x290|                        7b                     |        {       |                        bt: "v128" (123) 0x298-0x298.7 (1)
     |                                               |                |                        instructions[0:3]: 0x299-0x2a6.7 (14)
     |                                               |                |                          [0]{}: instr 0x299-0x2a1.7 (9)
0x290|                           02                  |         .      |                            block: 0x2 (valid) 0x299-0x299.7 (1)
0x290|                              7b               |          {     |                            bt: "v128" (123) 0x29a-0x29a.7 (1)
     |                                               |                |                            instructions[0:2]: 0x29b-0x2a0.7 (6)
     |                                               |                |                              [0]{}: instr 0x29b-0x29c.7 (2)
0x290|                                 41            |           A    |                                i32.const: 0x41 (valid) 0x29b-0x29b.7 (1)
0x290|                                    00         |            .   |                                n: 0 0x29c-0x29c.7 (1)
     |                                               |                |                              [1]{}: instr 0x29d-0x2a0.7 (4)
0x290|                                       fd      |             .  |                                prefix: 0xfd (valid) 0x29d-0x29d.7 (1)
0x290|                                          00   |              . |                                v128.load: 0 (valid) 0x29e-0x29e.7 (1)
     |                                               |                |                                m{}: 0x29f-0x2a0.7 (2)
0x290|                                             04|               .|                                  a: 4 0x29f-0x29f.7 (1)
0x2a0|00                                             |.               |                                  o: 0 0x2a0-0x2a0.7 (1)
0x2a0|   0b                                          | .              |                            end: 11 (valid) 0x2a1-0x2a1.7 (1)
     |                                               |                |                          [1]{}: instr 0x2a2-0x2a3.7 (2)
0x2a0|      41                                       |  A             |                            i32.const: 0x41 (valid) 0x2a2-0x2a2.7 (1)
0x2a0|         01                                    |   .            |                            n: 1 0x2a3-0x2a3.7 (1)
     |                                               |                |                          [2]{}: instr 0x2a4-0x2a6.7 (3)
0x2a0|            fd                                 |    .           |                            prefix: 0xfd (valid) 0x2a4-0x2a4.7 (1)
0x2a0|               8c 01                           |     ..         |                            i16x8.shr_s: 140 (valid) 0x2a5-0x2a6.7 (2)
0x2a0|                     0b                        |       .        |                        end: 11 (valid) 0x2a7-0x2a7.7 (1)
     |                                               |                |                      [1]{}: instr 0x2a8-0x2a8.7 (1)
0x2a0|                        1a                     |        .       |                        drop: 0x1a (valid) 0x2a8-0x2a8.7 (1)
0x2a0|                           0b                  |         .      |                    end: 11 (valid) 0x2a9-0x2a9.7 (1)
     |                                               |                |                  [1]{}: in 0x2aa-0x2aa.7 (1)
0x2a0|                              0b               |          .     |                    end: 0xb (valid) 0x2aa-0x2aa.7 (1)
     |                                               |                |            [5]{}: code 0x2ab-0x2c2.7 (24)
0x2a0|                                 17            |           .    |              size: 23 0x2ab-0x2ab.7 (1)
     |                                               |                |              code{}: 0x2ac-0x2c2.7 (23)
     |                                               |                |                t{}: 0x2ac-0x2ac.7 (1)
0x2a0|                                    00         |            .   |                  n: 0 0x2ac-0x2ac.7 (1)
     |                                               |                |                  x[0:0]: 0x2ad-NA (0)
     |                                               |                |                e[0:2]: 0x2ad-0x2c2.7 (22)
     |                                               |                |                  [0]{}: in 0x2ad-0x2c1.7 (21)
0x2a0|                                       02      |             .  |                    block: 0x2 (valid) 0x2ad-0x2ad.7 (1)
0x2a0|                                          40   |              @ |                    bt: "ε" (64) 0x2ae-0x2ae.7 (1)
     |                                               |                |                    instructions[0:2]: 0x2af-0x2c0.7 (18)
     |                                               |                |                      [0]{}: instr 0x2af-0x2bf.7 (17)
0x2a0|                                             02|               .|                        block: 0x2 (valid) 0x2af-0x2af.7 (1)
0x2b0|7b                                             |{               |                        bt: "v128" (123) 0x2b0-0x2b0.7 (1)
     |                                               |                |                        instructions[0:3]: 0x2b1-0x2be.7 (14)
     |                                               |                |                          [0]{}: instr 0x2b1-0x2b9.7 (9)
0x2b0|   02                                          | .              |                            block: 0x2 (valid) 0x2b1-0x2b1.7 (1)
0x2b0|      7b                                       |  {             |                            bt: "v128" (123) 0x2b2-0x2b2.7 (1)
     |                                               |                |                            instructions[0:2]: 0x2b3-0x2b8.7 (6)
     |                                               |                |                              [0]{}: instr 0x2b3-0x2b4.7 (2)
0x2b0|         41                                    |   A            |                                i32.const: 0x41 (valid) 0x2b3-0x2b3.7 (1)
0x2b0|            00                                 |    .           |                                n: 0 0x2b4-0x2b4.7 (1)
     |                                               |                |                              [1]{}: instr 0x2b5-0x2b8.7 (4)
0x2b0|               fd                              |     .          |                                prefix: 0xfd (valid) 0x2b5-0x2b5.7 (1)
0x2b0|                  00                           |      .         |                                v128.load: 0 (valid) 0x2b6-0x2b6.7 (1)
     |                                               |                |                                m{}: 0x2b7-0x2b8.7 (2)
0x2b0|                     04                        |       .        |                                  a: 4 0x2b7-0x2b7.7 (1)
0x2b0|                        00                     |        .       |                                  o: 0 0x2b8-0x2b8.7 (1)
0x2b0|                           0b                  |         .      |                            end: 11 (valid) 0x2b9-0x2b9.7 (1)
     |                                               |                |                          [1]{}: instr 0x2ba-0x2bb.7 (2)
0x2b0|                              41               |          A     |                            i32.const: 0x41 (valid) 0x2ba-0x2ba.7 (1)
0x2b0|                                 01            |           .    |                            n: 1 0x2bb-0x2bb.7 (1)
     |                                               |                |                          [2]{}: instr 0x2bc-0x2be.7 (3)
0x2b0|                                    fd         |            .   |                            prefix: 0xfd (valid) 0x2bc-0x2bc.7 (1)
0x2b0|                                       8d 01   |             .. |                            i16x8.shr_u: 141 (valid) 0x2bd-0x2be.7 (2)
0x2b0|                                             0b|               .|                        end: 11 (valid) 0x2bf-0x2bf.7 (1)
     |                                               |                |                      [1]{}: instr 0x2c0-0x2c0.7 (1)
0x2c0|1a                                             |.               |                        drop: 0x1a (valid) 0x2c0-0x2c0.7 (1)
0x2c0|   0b                                          | .              |                    end: 11 (valid) 0x2c1-0x2c1.7 (1)
     |                                               |                |                  [1]{}: in 0x2c2-0x2c2.7 (1)
0x2c0|      0b                                       |  .             |                    end: 0xb (valid) 0x2c2-0x2c2.7 (1)
     |                                               |                |            [6]{}: code 0x2c3-0x2da.7 (24)
0x2c0|         17                                    |   .            |              size: 23 0x2c3-0x2c3.7 (1)
     |                                               |                |              code{}: 0x2c4-0x2da.7 (23)
     |                                               |                |                t{}: 0x2c4-0x2c4.7 (1)
0x2c0|            00                                 |    .           |                  n: 0 0x2c4-0x2c4.7 (1)
     |                                               |                |                  x[0:0]: 0x2c5-NA (0)
     |                                               |                |                e[0:2]: 0x2c5-0x2da.7 (22)
     |                                               |                |                  [0]{}: in 0x2c5-0x2d9.7 (21)
0x2c0|               02                              |     .          |                    block: 0x2 (valid) 0x2c5-0x2c5.7 (1)
0x2c0|                  40                           |      @         |                    bt: "ε" (64) 0x2c6-0x2c6.7 (1)
     |                                               |                |                    instructions[0:2]: 0x2c7-0x2d8.7 (18)
     |                                               |                |                      [0]{}: instr 0x2c7-0x2d7.7 (17)
0x2c0|                     02                        |       .        |                        block: 0x2 (valid) 0x2c7-0x2c7.7 (1)
0x2c0|                        7b                     |        {       |                        bt: "v128" (123) 0x2c8-0x2c8.7 (1)
     |                                               |                |                        instructions[0:3]: 0x2c9-0x2d6.7 (14)
     |                                               |                |                          [0]{}: instr 0x2c9-0x2d1.7 (9)
0x2c0|                           02                  |         .      |                            block: 0x2 (valid) 0x2c9-0x2c9.7 (1)
0x2c0|                              7b               |          {     |                            bt: "v128" (123) 0x2ca-0x2ca.7 (1)
     |                                               |                |                            instructions[0:2]: 0x2cb-0x2d0.7 (6)
     |                                               |                |                              [0]{}: instr 0x2cb-0x2cc.7 (2)
0x2c0|                                 41            |           A    |                                i32.const: 0x41 (valid) 0x2cb-0x2cb.7 (1)
0x2c0|                                    00         |            .   |                                n: 0 0x2cc-0x2cc.7 (1)
     |                                               |                |                              [1]{}: instr 0x2cd-0x2d0.7 (4)
0x2c0|                                       fd      |             .  |                                prefix: 0xfd (valid) 0x2cd-0x2cd.7 (1)
0x2c0|                                          00   |              . |                                v128.load: 0 (valid) 0x2ce-0x2ce.7 (1)
     |                                               |                |                                m{}: 0x2cf-0x2d0.7 (2)
0x2c0|                                             04|               .|                                  a: 4 0x2cf-0x2cf.7 (1)
0x2d0|00                                             |.               |                                  o: 0 0x2d0-0x2d0.7 (1)
0x2d0|   0b                                          | .              |                            end: 11 (valid) 0x2d1-0x2d1.7 (1)
     |                                               |                |                          [1]{}: instr 0x2d2-0x2d3.7 (2)
0x2d0|      41                                       |  A             |                            i32.const: 0x41 (valid) 0x2d2-0x2d2.7 (1)
0x2d0|         01                                    |   .            |                            n: 1 0x2d3-0x2d3.7 (1)
     |                                               |                |                          [2]{}: instr 0x2d4-0x2d6.7 (3)
0x2d0|            fd                                 |    .           |                            prefix: 0xfd (valid) 0x2d4-0x2d4.7 (1)
0x2d0|               ab 01                           |     ..         |                            i32x4.shl: 171 (valid) 0x2d5-0x2d6.7 (2)
0x2d0|                     0b                        |       .        |                        end: 11 (valid) 0x2d7-0x2d7.7 (1)
     |                                               |                |                      [1]{}: instr 0x2d8-0x2d8.7 (1)
0x2d0|                        1a                     |        .       |                        drop: 0x1a (valid) 0x2d8-0x2d8.7 (1)
0x2d0|                           0b                  |         .      |                    end: 11 (valid) 0x2d9-0x2d9.7 (1)
     |                                               |                |                  [1]{}: in 0x2da-0x2da.7 (1)
0x2d0|                              0b               |          .     |                    end: 0xb (valid) 0x2da-0x2da.7 (1)
     |                                               |                |            [7]{}: code 0x2db-0x2f2.7 (24)
0x2d0|                                 17            |           .    |              size: 23 0x2db-0x2db.7 (1)
     |                                               |                |              code{}: 0x2dc-0x2f2.7 (23)
     |                                               |                |                t{}: 0x2dc-0x2dc.7 (1)
0x2d0|                                    00         |            .   |                  n: 0 0x2dc-0x2dc.7 (1)
     |                                               |                |                  x[0:0]: 0x2dd-NA (0)
     |                                               |                |                e[0:2]: 0x2dd-0x2f2.7 (22)
     |                                               |                |                  [0]{}: in 0x2dd-0x2f1.7 (21)
0x2d0|                                       02      |             .  |                    block: 0x2 (valid) 0x2dd-0x2dd.7 (1)
0x2d0|                                          40   |              @ |                    bt: "ε" (64) 0x2de-0x2de.7 (1)
     |                                               |                |                    instructions[0:2]: 0x2df-0x2f0.7 (18)
     |                                               |                |                      [0]{}: instr 0x2df-0x2ef.7 (17)
0x2d0|                                             02|               .|                        block: 0x2 (valid) 0x2df-0x2df.7 (1)
0x2e0|7b                                             |{               |                        bt: "v128" (123) 0x2e0-0x2e0.7 (1)
     |                                               |                |                        instructions[0:3]: 0x2e1-0x2ee.7 (14)
     |                                               |                |                          [0]{}: instr 0x2e1-0x2e9.7 (9)
0x2e0|   02                                          | .              |                            block: 0x2 (valid) 0x2e1-0x2e1.7 (1)
0x2e0|      7b                                       |  {             |                            bt: "v128" (123) 0x2e2-0x2e2.7 (1)
     |                                               |                |                            instructions[0:2]: 0x2e3-0x2e8.7 (6)
     |                                               |                |                              [0]{}: instr 0x2e3-0x2e4.7 (2)
0x2e0|         41                                    |   A            |                                i32.const: 0x41 (valid) 0x2e3-0x2e3.7 (1)
0x2e0|            00                                 |    .           |                                n: 0 0x2e4-0x2e4.7 (1)
     |                                               |                |                              [1]{}: instr 0x2e5-0x2e8.7 (4)
0x2e0|               fd                              |     .          |                                prefix: 0xfd (valid) 0x2e5-0x2e5.7 (1)
0x2e0|                  00                           |      .         |                                v128.load: 0 (valid) 0x2e6-0x2e6.7 (1)
     |                                               |                |                                m{}: 0x2e7-0x2e8.7 (2)
0x2e0|                     04                        |       .        |                                  a: 4 0x2e7-0x2e7.7 (1)
0x2e0|                        00                     |        .       |                                  o: 0 0x2e8-0x2e8.7 (1)
0x2e0|                           0b                  |         .      |                            end: 11 (valid) 0x2e9-0x2e9.7 (1)
     |                                               |                |                          [1]{}: instr 0x2ea-0x2eb.7 (2)
0x2e0|                              41               |          A     |                            i32.const: 0x41 (valid) 0x2ea-0x2ea.7 (1)
0x2e0|                                 01            |           .    |                            n: 1 0x2eb-0x2eb.7 (1)
     |                                               |                |                          [2]{}: instr 0x2ec-0x2ee.7 (3)
0x2e0|                                    fd         |            .   |                            prefix: 0xfd (valid) 0x2ec-0x2ec.7 (1)
0x2e0|                                       ac 01   |             .. |                            i32x4.shr_s: 172 (valid) 0x2ed-0x2ee.7 (2)
0x2e0|                                             0b|               .|                        end: 11 (valid) 0x2ef-0x2ef.7 (1)
     |                                               |                |                      [1]{}: instr 0x2f0-0x2f0.7 (1)
0x2f0|1a                                             |.               |                        drop: 0x1a (valid) 0x2f0-0x2f0.7 (1)
0x2f0|   0b                                          | .              |                    end: 11 (valid) 0x2f1-0x2f1.7 (1)
     |                                               |                |                  [1]{}: in 0x2f2-0x2f2.7 (1)
0x2f0|      0b                                       |  .             |                    end: 0xb (valid) 0x2f2-0x2f2.7 (1)
     |                                               |                |            [8]{}: code 0x2f3-0x30a.7 (24)
0x2f0|         17                                    |   .            |              size: 23 0x2f3-0x2f3.7 (1)
     |                                               |                |              code{}: 0x2f4-0x30a.7 (23)
     |                                               |                |                t{}: 0x2f4-0x2f4.7 (1)
0x2f0|            00                                 |    .           |                  n: 0 0x2f4-0x2f4.7 (1)
     |                                               |                |                  x[0:0]: 0x2f5-NA (0)
     |                                               |                |                e[0:2]: 0x2f5-0x30a.7 (22)
     |                                               |                |                  [0]{}: in 0x2f5-0x309.7 (21)
0x2f0|               02                              |     .          |                    block: 0x2 (valid) 0x2f5-0x2f5.7 (1)
0x2f0|                  40                           |      @         |                    bt: "ε" (64) 0x2f6-0x2f6.7 (1)
     |                                               |                |                    instructions[0:2]: 0x2f7-0x308.7 (18)
     |                                               |                |                      [0]{}: instr 0x2f7-0x307.7 (17)
0x2f0|                     02                        |       .        |                        block: 0x2 (valid) 0x2f7-0x2f7.7 (1)
0x2f0|                        7b                     |        {       |                        bt: "v128" (123) 0x2f8-0x2f8.7 (1)
     |                                               |                |                        instructions[0:3]: 0x2f9-0x306.7 (14)
     |                                               |                |                          [0]{}: instr 0x2f9-0x301.7 (9)
0x2f0|                           02                  |         .      |                            block: 0x2 (valid) 0x2f9-0x2f9.7 (1)
0x2f0|                              7b               |          {     |                            bt: "v128" (123) 0x2fa-0x2fa.7 (1)
     |                                               |                |                            instructions[0:2]: 0x2fb-0x300.7 (6)
     |                                               |                |                              [0]{}: instr 0x2fb-0x2fc.7 (2)
0x2f0|                                 41            |           A    |                                i32.const: 0x41 (valid) 0x2fb-0x2fb.7 (1)
0x2f0|                                    00         |            .   |                                n: 0 0x2fc-0x2fc.7 (1)
     |                                               |                |                              [1]{}: instr 0x2fd-0x300.7 (4)
0x2f0|                                       fd      |             .  |                                prefix: 0xfd (valid) 0x2fd-0x2fd.7 (1)
0x2f0|                                          00   |              . |                                v128.load: 0 (valid) 0x2fe-0x2fe.7 (1)
     |                                               |                |                                m{}: 0x2ff-0x300.7 (2)
0x2f0|                                             04|               .|                                  a: 4 0x2ff-0x2ff.7 (1)
0x300|00                                             |.               |                                  o: 0 0x300-0x300.7 (1)
0x300|   0b                                          | .              |                            end: 11 (valid) 0x301-0x301.7 (1)
     |                                               |                |                          [1]{}: instr 0x302-0x303.7 (2)
0x300|      41                                       |  A             |                            i32.const: 0x41 (valid) 0x302-0x302.7 (1)
0x300|         01                                    |   .            |                            n: 1 0x303-0x303.7 (1)
     |                                               |                |                          [2]{}: instr 0x304-0x306.7 (3)
0x300|            fd                                 |    .           |                            prefix: 0xfd (valid) 0x304-0x304.7 (1)
0x300|               ad 01                           |     ..         |                            i32x4.shr_u: 173 (valid) 0x305-0x306.7 (2)
0x300|                     0b                        |       .        |                        end: 11 (valid) 0x307-0x307.7 (1)
     |                                               |                |                      [1]{}: instr 0x308-0x308.7 (1)
0x300|                        1a                     |        .       |                        drop: 0x1a (valid) 0x308-0x308.7 (1)
0x300|                           0b                  |         .      |                    end: 11 (valid) 0x309-0x309.7 (1)
     |                                               |                |                  [1]{}: in 0x30a-0x30a.7 (1)
0x300|                              0b               |          .     |                    end: 0xb (valid) 0x30a-0x30a.7 (1)
     |                                               |                |            [9]{}: code 0x30b-0x322.7 (24)
0x300|                                 17            |           .    |              size: 23 0x30b-0x30b.7 (1)
     |                                               |                |              code{}: 0x30c-0x322.7 (23)
     |                                               |                |                t{}: 0x30c-0x30c.7 (1)
0x300|                                    00         |            .   |                  n: 0 0x30c-0x30c.7 (1)
     |                                               |                |                  x[0:0]: 0x30d-NA (0)
     |                                               |                |                e[0:2]: 0x30d-0x322.7 (22)
     |                                               |                |                  [0]{}: in 0x30d-0x321.7 (21)
0x300|                                       02      |             .  |                    block: 0x2 (valid) 0x30d-0x30d.7 (1)
0x300|                                          40   |              @ |                    bt: "ε" (64) 0x30e-0x30e.7 (1)
     |                                               |                |                    instructions[0:2]: 0x30f-0x320.7 (18)
     |                                               |                |                      [0]{}: instr 0x30f-0x31f.7 (17)
0x300|                                             02|               .|                        block: 0x2 (valid) 0x30f-0x30f.7 (1)
0x310|7b                                             |{               |                        bt: "v128" (123) 0x310-0x310.7 (1)
     |                                               |                |                        instructions[0:3]: 0x311-0x31e.7 (14)
     |                                               |                |                          [0]{}: instr 0x311-0x319.7 (9)
0x310|   02                                          | .              |                            block: 0x2 (valid) 0x311-0x311.7 (1)
0x310|      7b                                       |  {             |                            bt: "v128" (123) 0x312-0x312.7 (1)
     |                                               |                |                            instructions[0:2]: 0x313-0x318.7 (6)
     |                                               |                |                              [0]{}: instr 0x313-0x314.7 (2)
0x310|         41                                    |   A            |                                i32.const: 0x41 (valid) 0x313-0x313.7 (1)
0x310|            00                                 |    .           |                                n: 0 0x314-0x314.7 (1)
     |                                               |                |                              [1]{}: instr 0x315-0x318.7 (4)
0x310|               fd                              |     .          |                                prefix: 0xfd (valid) 0x315-0x315.7 (1)
0x310|                  00                           |      .         |                                v128.load: 0 (valid) 0x316-0x316.7 (1)
     |                                               |                |                                m{}: 0x317-0x318.7 (2)
0x310|                     04                        |       .        |                                  a: 4 0x317-0x317.7 (1)
0x310|                        00                     |        .       |                                  o: 0 0x318-0x318.7 (1)
0x310|                           0b                  |         .      |                            end: 11 (valid) 0x319-0x319.7 (1)
     |                                               |                |                          [1]{}: instr 0x31a-0x31b.7 (2)
0x310|                              41               |          A     |                            i32.const: 0x41 (valid) 0x31a-0x31a.7 (1)
0x310|                                 01            |           .    |                            n: 1 0x31b-0x31b.7 (1)
     |                                               |                |                          [2]{}: instr 0x31c-0x31e.7 (3)
0x310|                                    fd         |            .   |                            prefix: 0xfd (valid) 0x31c-0x31c.7 (1)
0x310|                                       cb 01   |             .. |                            i64x2.shl: 203 (valid) 0x31d-0x31e.7 (2)
0x310|                                             0b|               .|                        end: 11 (valid) 0x31f-0x31f.7 (1)
     |                                               |                |                      [1]{}: instr 0x320-0x320.7 (1)
0x320|1a                                             |.               |                        drop: 0x1a (valid) 0x320-0x320.7 (1)
0x320|   0b                                          | .              |                    end: 11 (valid) 0x321-0x321.7 (1)
     |                                               |                |                  [1]{}: in 0x322-0x322.7 (1)
0x320|      0b                                       |  .             |                    end: 0xb (valid) 0x322-0x322.7 (1)
     |                                               |                |            [10]{}: code 0x323-0x33a.7 (24)
0x320|         17                                    |   .            |              size: 23 0x323-0x323.7 (1)
     |                                               |                |              code{}: 0x324-0x33a.7 (23)
     |                                               |                |                t{}: 0x324-0x324.7 (1)
0x320|            00                                 |    .           |                  n: 0 0x324-0x324.7 (1)
     |                                               |                |                  x[0:0]: 0x325-NA (0)
     |                                               |                |                e[0:2]: 0x325-0x33a.7 (22)
     |                                               |                |                  [0]{}: in 0x325-0x339.7 (21)
0x320|               02                              |     .          |                    block: 0x2 (valid) 0x325-0x325.7 (1)
0x320|                  40                           |      @         |                    bt: "ε" (64) 0x326-0x326.7 (1)
     |                                               |                |                    instructions[0:2]: 0x327-0x338.7 (18)
     |                                               |                |                      [0]{}: instr 0x327-0x337.7 (17)
0x320|                     02                        |       .        |                        block: 0x2 (valid) 0x327-0x327.7 (1)
0x320|                        7b                     |        {       |                        bt: "v128" (123) 0x328-0x328.7 (1)
     |                                               |                |                        instructions[0:3]: 0x329-0x336.7 (14)
     |                                               |                |                          [0]{}: instr 0x329-0x331.7 (9)
0x320|                           02                  |         .      |                            block: 0x2 (valid) 0x329-0x329.7 (1)
0x320|                              7b               |          {     |                            bt: "v128" (123) 0x32a-0x32a.7 (1)
     |                                               |                |                            instructions[0:2]: 0x32b-0x330.7 (6)
     |                                               |                |                              [0]{}: instr 0x32b-0x32c.7 (2)
0x320|                                 41            |           A    |                                i32.const: 0x41 (valid) 0x32b-0x32b.7 (1)
0x320|                                    00         |            .   |                                n: 0 0x32c-0x32c.7 (1)
     |                                               |                |                              [1]{}: instr 0x32d-0x330.7 (4)
0x320|                                       fd      |             .  |                                prefix: 0xfd (valid) 0x32d-0x32d.7 (1)
0x320|                                          00   |              . |                                v128.load: 0 (valid) 0x32e-0x32e.7 (1)
     |                                               |                |                                m{}: 0x32f-0x330.7 (2)
0x320|                                             04|               .|                                  a: 4 0x32f-0x32f.7 (1)
0x330|00                                             |.               |                                  o: 0 0x330-0x330.7 (1)
0x330|   0b                                          | .              |                            end: 11 (valid) 0x331-0x331.7 (1)
     |                                               |                |                          [1]{}: instr 0x332-0x333.7 (2)
0x330|      41                                       |  A             |                            i32.const: 0x41 (valid) 0x332-0x332.7 (1)
0x330|         01                                    |   .            |                            n: 1 0x333-0x333.7 (1)
     |                                               |                |                          [2]{}: instr 0x334-0x336.7 (3)
0x330|            fd                                 |    .           |                            prefix: 0xfd (valid) 0x334-0x334.7 (1)
0x330|               cc 01                           |     ..         |                            i64x2.shr_s: 204 (valid) 0x335-0x336.7 (2)
0x330|                     0b                        |       .        |                        end: 11 (valid) 0x337-0x337.7 (1)
     |                                               |                |                      [1]{}: instr 0x338-0x338.7 (1)
0x330|                        1a                     |        .       |                        drop: 0x1a (valid) 0x338-0x338.7 (1)
0x330|                           0b                  |         .      |                    end: 11 (valid) 0x339-0x339.7 (1)
     |                                               |                |                  [1]{}: in 0x33a-0x33a.7 (1)
0x330|                              0b               |          .     |                    end: 0xb (valid) 0x33a-0x33a.7 (1)
     |                                               |                |            [11]{}: code 0x33b-0x352.7 (24)
0x330|                                 17            |           .    |              size: 23 0x33b-0x33b.7 (1)
     |                                               |                |              code{}: 0x33c-0x352.7 (23)
     |                                               |                |                t{}: 0x33c-0x33c.7 (1)
0x330|                                    00         |            .   |                  n: 0 0x33c-0x33c.7 (1)
     |                                               |                |                  x[0:0]: 0x33d-NA (0)
     |                                               |                |                e[0:2]: 0x33d-0x352.7 (22)
     |                                               |                |                  [0]{}: in 0x33d-0x351.7 (21)
0x330|                                       02      |             .  |                    block: 0x2 (valid) 0x33d-0x33d.7 (1)
0x330|                                          40   |              @ |                    bt: "ε" (64) 0x33e-0x33e.7 (1)
     |                                               |                |                    instructions[0:2]: 0x33f-0x350.7 (18)
     |                                               |                |                      [0]{}: instr 0x33f-0x34f.7 (17)
0x330|                                             02|               .|                        block: 0x2 (valid) 0x33f-0x33f.7 (1)
0x340|7b                                             |{               |                        bt: "v128" (123) 0x340-0x340.7 (1)
     |                                               |                |                        instructions[0:3]: 0x341-0x34e.7 (14)
     |                                               |                |                          [0]{}: instr 0x341-0x349.7 (9)
0x340|   02                                          | .              |                            block: 0x2 (valid) 0x341-0x341.7 (1)
0x340|      7b                                       |  {             |                            bt: "v128" (123) 0x342-0x342.7 (1)
     |                                               |                |                            instructions[0:2]: 0x343-0x348.7 (6)
     |                                               |                |                              [0]{}: instr 0x343-0x344.7 (2)
0x340|         41                                    |   A            |                                i32.const: 0x41 (valid) 0x343-0x343.7 (1)
0x340|            00                                 |    .           |                                n: 0 0x344-0x344.7 (1)
     |                                               |                |                              [1]{}: instr 0x345-0x348.7 (4)
0x340|               fd                              |     .          |                                prefix: 0xfd (valid) 0x345-0x345.7 (1)
0x340|                  00                           |      .         |                                v128.load: 0 (valid) 0x346-0x346.7 (1)
     |                                               |                |                                m{}: 0x347-0x348.7 (2)
0x340|                     04                        |       .        |                                  a: 4 0x347-0x347.7 (1)
0x340|                        00                     |        .       |                                  o: 0 0x348-0x348.7 (1)
0x340|                           0b                  |         .      |                            end: 11 (valid) 0x349-0x349.7 (1)
     |                                               |                |                          [1]{}: instr 0x34a-0x34b.7 (2)
0x340|                              41               |          A     |                            i32.const: 0x41 (valid) 0x34a-0x34a.7 (1)
0x340|                                 01            |           .    |                            n: 1 0x34b-0x34b.7 (1)
     |                                               |                |                          [2]{}: instr 0x34c-0x34e.7 (3)
0x340|                                    fd         |            .   |                            prefix: 0xfd (valid) 0x34c-0x34c.7 (1)
0x340|                                       cd 01   |             .. |                            i64x2.shr_u: 205 (valid) 0x34d-0x34e.7 (2)
0x340|                                             0b|               .|                        end: 11 (valid) 0x34f-0x34f.7 (1)
     |                                               |                |                      [1]{}: instr 0x350-0x350.7 (1)
0x350|1a                                             |.               |                        drop: 0x1a (valid) 0x350-0x350.7 (1)
0x350|   0b                                          | .              |                    end: 11 (valid) 0x351-0x351.7 (1)
     |                                               |                |                  [1]{}: in 0x352-0x352.7 (1)
0x350|      0b                                       |  .             |                    end: 0xb (valid) 0x352-0x352.7 (1)
     |                                               |                |            [12]{}: code 0x353-0x368.7 (22)
0x350|         15                                    |   .            |              size: 21 0x353-0x353.7 (1)
     |                                               |                |              code{}: 0x354-0x368.7 (21)
     |                                               |                |                t{}: 0x354-0x354.7 (1)
0x350|            00                                 |    .           |                  n: 0 0x354-0x354.7 (1)
     |                                               |                |                  x[0:0]: 0x355-NA (0)
     |                                               |                |                e[0:10]: 0x355-0x368.7 (20)
     |                                               |                |                  [0]{}: in 0x355-0x356.7 (2)
0x350|               41                              |     A          |                    i32.const: 0x41 (valid) 0x355-0x355.7 (1)
0x350|                  00                           |      .         |                    n: 0 0x356-0x356.7 (1)
     |                                               |                |                  [1]{}: in 0x357-0x35a.7 (4)
0x350|                     fd                        |       .        |                    prefix: 0xfd (valid) 0x357-0x357.7 (1)
0x350|                        00                     |        .       |                    v128.load: 0 (valid) 0x358-0x358.7 (1)
     |                                               |                |                    m{}: 0x359-0x35a.7 (2)
0x350|                           04                  |         .      |                      a: 4 0x359-0x359.7 (1)
0x350|                              00               |          .     |                      o: 0 0x35a-0x35a.7 (1)
     |                                               |                |                  [2]{}: in 0x35b-0x35c.7 (2)
0x350|                                 41            |           A    |                    i32.const: 0x41 (valid) 0x35b-0x35b.7 (1)
0x350|                                    01         |            .   |                    n: 1 0x35c-0x35c.7 (1)
     |                                               |                |                  [3]{}: in 0x35d-0x35e.7 (2)
0x350|                                       fd      |             .  |                    prefix: 0xfd (valid) 0x35d-0x35d.7 (1)
0x350|                                          6b   |              k |                    i8x16.shl: 107 (valid) 0x35e-0x35e.7 (1)
     |                                               |                |                  [4]{}: in 0x35f-0x360.7 (2)
0x350|                                             41|               A|                    i32.const: 0x41 (valid) 0x35f-0x35f.7 (1)
0x360|01                                             |.               |                    n: 1 0x360-0x360.7 (1)
     |                                               |                |                  [5]{}: in 0x361-0x362.7 (2)
0x360|   fd                                          | .              |                    prefix: 0xfd (valid) 0x361-0x361.7 (1)
0x360|      6b                                       |  k             |                    i8x16.shl: 107 (valid) 0x362-0x362.7 (1)
     |                                               |                |                  [6]{}: in 0x363-0x364.7 (2)
0x360|         41                                    |   A            |                    i32.const: 0x41 (valid) 0x363-0x363.7 (1)
0x360|            01                                 |    .           |                    n: 1 0x364-0x364.7 (1)
     |                                               |                |                  [7]{}: in 0x365-0x366.7 (2)
0x360|               fd                              |     .          |                    prefix: 0xfd (valid) 0x365-0x365.7 (1)
0x360|                  6b                           |      k         |                    i8x16.shl: 107 (valid) 0x366-0x366.7 (1)
     |                                               |                |                  [8]{}: in 0x367-0x367.7 (1)
0x360|                     1a                        |       .        |                    drop: 0x1a (valid) 0x367-0x367.7 (1)
     |                                               |                |                  [9]{}: in 0x368-0x368.7 (1)
0x360|                        0b                     |        .       |                    end: 0xb (valid) 0x368-0x368.7 (1)
     |                                               |                |            [13]{}: code 0x369-0x37e.7 (22)
0x360|                           15                  |         .      |              size: 21 0x369-0x369.7 (1)
     |                                               |                |              code{}: 0x36a-0x37e.7 (21)
     |                                               |                |                t{}: 0x36a-0x36a.7 (1)
0x360|                              00               |          .     |                  n: 0 0x36a-0x36a.7 (1)
     |                                               |                |                  x[0:0]: 0x36b-NA (0)
     |                                               |                |                e[0:10]: 0x36b-0x37e.7 (20)
     |                                               |                |                  [0]{}: in 0x36b-0x36c.7 (2)
0x360|                                 41            |           A    |                    i32.const: 0x41 (valid) 0x36b-0x36b.7 (1)
0x360|                                    00         |            .   |                    n: 0 0x36c-0x36c.7 (1)
     |                                               |                |                  [1]{}: in 0x36d-0x370.7 (4)
0x360|                                       fd      |             .  |                    prefix: 0xfd (valid) 0x36d-0x36d.7 (1)
0x360|                                          00   |              . |                    v128.load: 0 (valid) 0x36e-0x36e.7 (1)
     |                                               |                |                    m{}: 0x36f-0x370.7 (2)
0x360|                                             04|               .|                      a: 4 0x36f-0x36f.7 (1)
0x370|00                                             |.               |                      o: 0 0x370-0x370.7 (1)
     |                                               |                |                  [2]{}: in 0x371-0x372.7 (2)
0x370|   41                                          | A              |                    i32.const: 0x41 (valid) 0x371-0x371.7 (1)
0x370|      01                                       |  .             |                    n: 1 0x372-0x372.7 (1)
     |                                               |                |                  [3]{}: in 0x373-0x374.7 (2)
0x370|         fd                                    |   .            |                    prefix: 0xfd (valid) 0x373-0x373.7 (1)
0x370|            6c                                 |    l           |                    i8x16.shr_s: 108 (valid) 0x374-0x374.7 (1)
     |                                               |                |                  [4]{}: in 0x375-0x376.7 (2)
0x370|               41                              |     A          |                    i32.const: 0x41 (valid) 0x375-0x375.7 (1)
0x370|                  01                           |      .         |                    n: 1 0x376-0x376.7 (1)
     |                                               |                |                  [5]{}: in 0x377-0x378.7 (2)
0x370|                     fd                        |       .        |                    prefix: 0xfd (valid) 0x377-0x377.7 (1)
0x370|                        6c                     |        l       |                    i8x16.shr_s: 108 (valid) 0x378-0x378.7 (1)
     |                                               |                |                  [6]{}: in 0x379-0x37a.7 (2)
0x370|                           41                  |         A      |                    i32.const: 0x41 (valid) 0x379-0x379.7 (1)
0x370|                              01               |          .     |                    n: 1 0x37a-0x37a.7 (1)
     |                                               |                |                  [7]{}: in 0x37b-0x37c.7 (2)
0x370|                                 fd            |           .    |                    prefix: 0xfd (valid) 0x37b-0x37b.7 (1)
0x370|                                    6c         |            l   |                    i8x16.shr_s: 108 (valid) 0x37c-0x37c.7 (1)
     |                                               |                |                  [8]{}: in 0x37d-0x37d.7 (1)
0x370|                                       1a      |             .  |                    drop: 0x1a (valid) 0x37d-0x37d.7 (1)
     |                                               |                |                  [9]{}: in 0x37e-0x37e.7 (1)
0x370|                                          0b   |              . |                    end: 0xb (valid) 0x37e-0x37e.7 (1)
     |                                               |                |            [14]{}: code 0x37f-0x394.7 (22)
0x370|                                             15|               .|              size: 21 0x37f-0x37f.7 (1)
     |                                               |                |              code{}: 0x380-0x394.7 (21)
     |                                               |                |                t{}: 0x380-0x380.7 (1)
0x380|00                                             |.               |                  n: 0 0x380-0x380.7 (1)
     |                                               |                |                  x[0:0]: 0x381-NA (0)
     |                                               |                |                e[0:10]: 0x381-0x394.7 (20)
     |                                               |                |                  [0]{}: in 0x381-0x382.7 (2)
0x380|   41                                          | A              |                    i32.const: 0x41 (valid) 0x381-0x381.7 (1)
0x380|      00                                       |  .             |                    n: 0 0x382-0x382.7 (1)
     |                                               |                |                  [1]{}: in 0x383-0x386.7 (4)
0x380|         fd                                    |   .            |                    prefix: 0xfd (valid) 0x383-0x383.7 (1)
0x380|            00                                 |    .           |                    v128.load: 0 (valid) 0x384-0x384.7 (1)
     |                                               |                |                    m{}: 0x385-0x386.7 (2)
0x380|               04                              |     .          |                      a: 4 0x385-0x385.7 (1)
0x380|                  00                           |      .         |                      o: 0 0x386-0x386.7 (1)
     |                                               |                |                  [2]{}: in 0x387-0x388.7 (2)
0x380|                     41                        |       A        |                    i32.const: 0x41 (valid) 0x387-0x387.7 (1)
0x380|                        01                     |        .       |                    n: 1 0x388-0x388.7 (1)
     |                                               |                |                  [3]{}: in 0x389-0x38a.7 (2)
0x380|                           fd                  |         .      |                    prefix: 0xfd (valid) 0x389-0x389.7 (1)
0x380|                              6d               |          m     |                    i8x16.shr_u: 109 (valid) 0x38a-0x38a.7 (1)
     |                                               |                |                  [4]{}: in 0x38b-0x38c.7 (2)
0x380|                                 41            |           A    |                    i32.const: 0x41 (valid) 0x38b-0x38b.7 (1)
0x380|                                    01         |            .   |                    n: 1 0x38c-0x38c.7 (1)
     |                                               |                |                  [5]{}: in 0x38d-0x38e.7 (2)
0x380|                                       fd      |             .  |                    prefix: 0xfd (valid) 0x38d-0x38d.7 (1)
0x380|                                          6d   |              m |                    i8x16.shr_u: 109 (valid) 0x38e-0x38e.7 (1)
     |                                               |                |                  [6]{}: in 0x38f-0x390.7 (2)
0x380|                                             41|               A|                    i32.const: 0x41 (valid) 0x38f-0x38f.7 (1)
0x390|01                                             |.               |                    n: 1 0x390-0x390.7 (1)
     |                                               |                |                  [7]{}: in 0x391-0x392.7 (2)
0x390|   fd                                          | .              |                    prefix: 0xfd (valid) 0x391-0x391.7 (1)
0x390|      6d                                       |  m             |                    i8x16.shr_u: 109 (valid) 0x392-0x392.7 (1)
     |                                               |                |                  [8]{}: in 0x393-0x393.7 (1)
0x390|         1a                                    |   .            |                    drop: 0x1a (valid) 0x393-0x393.7 (1)
     |                                               |                |                  [9]{}: in 0x394-0x394.7 (1)
0x390|            0b                                 |    .           |                    end: 0xb (valid) 0x394-0x394.7 (1)
     |                                               |                |            [15]{}: code 0x395-0x3ad.7 (25)
0x390|               18                              |     .          |              size: 24 0x395-0x395.7 (1)
     |                                               |                |              code{}: 0x396-0x3ad.7 (24)
     |                                               |                |                t{}: 0x396-0x396.7 (1)
0x390|                  00                           |      .         |                  n: 0 0x396-0x396.7 (1)
     |                                               |                |                  x[0:0]: 0x397-NA (0)
     |                                               |                |                e[0:10]: 0x397-0x3ad.7 (23)
     |                                               |                |                  [0]{}: in 0x397-0x398.7 (2)
0x390|                     41                        |       A        |                    i32.const: 0x41 (valid) 0x397-0x397.7 (1)
0x390|                        00                     |        .       |                    n: 0 0x398-0x398.7 (1)
     |                                               |                |                  [1]{}: in 0x399-0x39c.7 (4)
0x390|                           fd                  |         .      |                    prefix: 0xfd (valid) 0x399-0x399.7 (1)
0x390|                              00               |          .     |                    v128.load: 0 (valid) 0x39a-0x39a.7 (1)
     |                                               |                |                    m{}: 0x39b-0x39c.7 (2)
0x390|                                 04            |           .    |                      a: 4 0x39b-0x39b.7 (1)
0x390|                                    00         |            .   |                      o: 0 0x39c-0x39c.7 (1)
     |                                               |                |                  [2]{}: in 0x39d-0x39e.7 (2)
0x390|                                       41      |             A  |                    i32.const: 0x41 (valid) 0x39d-0x39d.7 (1)
0x390|                                          01   |              . |                    n: 1 0x39e-0x39e.7 (1)
     |                                               |                |                  [3]{}: in 0x39f-0x3a1.7 (3)
0x390|                                             fd|               .|                    prefix: 0xfd (valid) 0x39f-0x39f.7 (1)
0x3a0|8b 01                                          |..              |                    i16x8.shl: 139 (valid) 0x3a0-0x3a1.7 (2)
     |                                               |                |                  [4]{}: in 0x3a2-0x3a3.7 (2)
0x3a0|      41                                       |  A             |                    i32.const: 0x41 (valid) 0x3a2-0x3a2.7 (1)
0x3a0|         01                                    |   .            |                    n: 1 0x3a3-0x3a3.7 (1)
     |                                               |                |                  [5]{}: in 0x3a4-0x3a6.7 (3)
0x3a0|            fd                                 |    .           |                    prefix: 0xfd (valid) 0x3a4-0x3a4.7 (1)
0x3a0|               8b 01                           |     ..         |                    i16x8.shl: 139 (valid) 0x3a5-0x3a6.7 (2)
     |                                               |                |                  [6]{}: in 0x3a7-0x3a8.7 (2)
0x3a0|                     41                        |       A        |                    i32.const: 0x41 (valid) 0x3a7-0x3a7.7 (1)
0x3a0|                        01                     |        .       |                    n: 1 0x3a8-0x3a8.7 (1)
     |                                               |                |                  [7]{}: in 0x3a9-0x3ab.7 (3)
0x3a0|                           fd                  |         .      |                    prefix: 0xfd (valid) 0x3a9-0x3a9.7 (1)
0x3a0|                              8b 01            |          ..    |                    i16x8.shl: 139 (valid) 0x3aa-0x3ab.7 (2)
     |                                               |                |                  [8]{}: in 0x3ac-0x3ac.7 (1)
0x3a0|                                    1a         |            .   |                    drop: 0x1a (valid) 0x3ac-0x3ac.7 (1)
     |                                               |                |                  [9]{}: in 0x3ad-0x3ad.7 (1)
0x3a0|                                       0b      |             .  |                    end: 0xb (valid) 0x3ad-0x3ad.7 (1)
     |                                               |                |            [16]{}: code 0x3ae-0x3c6.7 (25)
0x3a0|                                          18   |              . |              size: 24 0x3ae-0x3ae.7 (1)
     |                                               |                |              code{}: 0x3af-0x3c6.7 (24)
     |                                               |                |                t{}: 0x3af-0x3af.7 (1)
0x3a0|                                             00|               .|                  n: 0 0x3af-0x3af.7 (1)
     |                                               |                |                  x[0:0]: 0x3b0-NA (0)
     |                                               |                |                e[0:10]: 0x3b0-0x3c6.7 (23)
     |                                               |                |                  [0]{}: in 0x3b0-0x3b1.7 (2)
0x3b0|41                                             |A               |                    i32.const: 0x41 (valid) 0x3b0-0x3b0.7 (1)
0x3b0|   00                                          | .              |                    n: 0 0x3b1-0x3b1.7 (1)
     |                                               |                |                  [1]{}: in 0x3b2-0x3b5.7 (4)
0x3b0|      fd                                       |  .             |                    prefix: 0xfd (valid) 0x3b2-0x3b2.7 (1)
0x3b0|         00                                    |   .            |                    v128.load: 0 (valid) 0x3b3-0x3b3.7 (1)
     |                                               |                |                    m{}: 0x3b4-0x3b5.7 (2)
0x3b0|            04                                 |    .           |                      a: 4 0x3b4-0x3b4.7 (1)
0x3b0|               00                              |     .          |                      o: 0 0x3b5-0x3b5.7 (1)
     |                                               |                |                  [2]{}: in 0x3b6-0x3b7.7 (2)
0x3b0|                  41                           |      A         |                    i32.const: 0x41 (valid) 0x3b6-0x3b6.7 (1)
0x3b0|                     01                        |       .        |                    n: 1 0x3b7-0x3b7.7 (1)
     |                                               |                |                  [3]{}: in 0x3b8-0x3ba.7 (3)
0x3b0|                        fd                     |        .       |                    prefix: 0xfd (valid) 0x3b8-0x3b8.7 (1)
0x3b0|                           8c 01               |         ..     |                    i16x8.shr_s: 140 (valid) 0x3b9-0x3ba.7 (2)
     |                                               |                |                  [4]{}: in 0x3bb-0x3bc.7 (2)
0x3b0|                                 41            |           A    |                    i32.const: 0x41 (valid) 0x3bb-0x3bb.7 (1)
0x3b0|                                    01         |            .   |                    n: 1 0x3bc-0x3bc.7 (1)
     |                                               |                |                  [5]{}: in 0x3bd-0x3bf.7 (3)
0x3b0|                                       fd      |             .  |                    prefix: 0xfd (valid) 0x3bd-0x3bd.7 (1)
0x3b0|                                          8c 01|              ..|                    i16x8.shr_s: 140 (valid) 0x3be-0x3bf.7 (2)
     |                                               |                |                  [6]{}: in 0x3c0-0x3c1.7 (2)
0x3c0|41                                             |A               |                    i32.const: 0x41 (valid) 0x3c0-0x3c0.7 (1)
0x3c0|   01                                          | .              |                    n: 1 0x3c1-0x3c1.7 (1)
     |                                               |                |                  [7]{}: in 0x3c2-0x3c4.7 (3)
0x3c0|      fd                                       |  .             |                    prefix: 0xfd (valid) 0x3c2-0x3c2.7 (1)
0x3c0|         8c 01                                 |   ..           |                    i16x8.shr_s: 140 (valid) 0x3c3-0x3c4.7 (2)
     |                                               |                |                  [8]{}: in 0x3c5-0x3c5.7 (1)
0x3c0|               1a                              |     .          |                    drop: 0x1a (valid) 0x3c5-0x3c5.7 (1)
     |                                               |                |                  [9]{}: in 0x3c6-0x3c6.7 (1)
0x3c0|                  0b                           |      .         |                    end: 0xb (valid) 0x3c6-0x3c6.7 (1)
     |                                               |                |            [17]{}: code 0x3c7-0x3df.7 (25)
0x3c0|                     18                        |       .        |              size: 24 0x3c7-0x3c7.7 (1)
     |                                               |                |              code{}: 0x3c8-0x3df.7 (24)
     |                                               |                |                t{}: 0x3c8-0x3c8.7 (1)
0x3c0|                        00                     |        .       |                  n: 0 0x3c8-0x3c8.7 (1)
     |                                               |                |                  x[0:0]: 0x3c9-NA (0)
     |                                               |                |                e[0:10]: 0x3c9-0x3df.7 (23)
     |                                               |                |                  [0]{}: in 0x3c9-0x3ca.7 (2)
0x3c0|                           41                  |         A      |                    i32.const: 0x41 (valid) 0x3c9-0x3c9.7 (1)
0x3c0|                              00               |          .     |                    n: 0 0x3ca-0x3ca.7 (1)
     |                                               |                |                  [1]{}: in 0x3cb-0x3ce.7 (4)
0x3c0|                                 fd            |           .    |                    prefix: 0xfd (valid) 0x3cb-0x3cb.7 (1)
0x3c0|                                    00         |            .   |                    v128.load: 0 (valid) 0x3cc-0x3cc.7 (1)
     |                                               |                |                    m{}: 0x3cd-0x3ce.7 (2)
0x3c0|                                       04      |             .  |                      a: 4 0x3cd-0x3cd.7 (1)
0x3c0|                                          00   |              . |                      o: 0 0x3ce-0x3ce.7 (1)
     |                                               |                |                  [2]{}: in 0x3cf-0x3d0.7 (2)
0x3c0|                                             41|               A|                    i32.const: 0x41 (valid) 0x3cf-0x3cf.7 (1)
0x3d0|01                                             |.               |                    n: 1 0x3d0-0x3d0.7 (1)
     |                                               |                |                  [3]{}: in 0x3d1-0x3d3.7 (3)
0x3d0|   fd                                          | .              |                    prefix: 0xfd (valid) 0x3d1-0x3d1.7 (1)
0x3d0|      8d 01                                    |  ..            |                    i16x8.shr_u: 141 (valid) 0x3d2-0x3d3.7 (2)
     |                                               |                |                  [4]{}: in 0x3d4-0x3d5.7 (2)
0x3d0|            41                                 |    A           |                    i32.const: 0x41 (valid) 0x3d4-0x3d4.7 (1)
0x3d0|               01                              |     .          |                    n: 1 0x3d5-0x3d5.7 (1)
     |                                               |                |                  [5]{}: in 0x3d6-0x3d8.7 (3)
0x3d0|                  fd                           |      .         |                    prefix: 0xfd (valid) 0x3d6-0x3d6.7 (1)
0x3d0|                     8d 01                     |       ..       |                    i16x8.shr_u: 141 (valid) 0x3d7-0x3d8.7 (2)
     |                                               |                |                  [6]{}: in 0x3d9-0x3da.7 (2)
0x3d0|                           41                  |         A      |                    i32.const: 0x41 (valid) 0x3d9-0x3d9.7 (1)
0x3d0|                              01               |          .     |                    n: 1 0x3da-0x3da.7 (1)
     |                                               |                |                  [7]{}: in 0x3db-0x3dd.7 (3)
0x3d0|                                 fd            |           .    |                    prefix: 0xfd (valid) 0x3db-0x3db.7 (1)
0x3d0|                                    8d 01      |            ..  |                    i16x8.shr_u: 141 (valid) 0x3dc-0x3dd.7 (2)
     |                                               |                |                  [8]{}: in 0x3de-0x3de.7 (1)
0x3d0|                                          1a   |              . |                    drop: 0x1a (valid) 0x3de-0x3de.7 (1)
     |                                               |                |                  [9]{}: in 0x3df-0x3df.7 (1)
0x3d0|                                             0b|               .|                    end: 0xb (valid) 0x3df-0x3df.7 (1)
     |                                               |                |            [18]{}: code 0x3e0-0x3f8.7 (25)
0x3e0|18                                             |.               |              size: 24 0x3e0-0x3e0.7 (1)
     |                                               |                |              code{}: 0x3e1-0x3f8.7 (24)
     |                                               |                |                t{}: 0x3e1-0x3e1.7 (1)
0x3e0|   00                                          | .              |                  n: 0 0x3e1-0x3e1.7 (1)
     |                                               |                |                  x[0:0]: 0x3e2-NA (0)
     |                                               |                |                e[0:10]: 0x3e2-0x3f8.7 (23)
     |                                               |                |                  [0]{}: in 0x3e2-0x3e3.7 (2)
0x3e0|      41                                       |  A             |                    i32.const: 0x41 (valid) 0x3e2-0x3e2.7 (1)
0x3e0|         00                                    |   .            |                    n: 0 0x3e3-0x3e3.7 (1)
     |                                               |                |                  [1]{}: in 0x3e4-0x3e7.7 (4)
0x3e0|            fd                                 |    .           |                    prefix: 0xfd (valid) 0x3e4-0x3e4.7 (1)
0x3e0|               00                              |     .          |                    v128.load: 0 (valid) 0x3e5-0x3e5.7 (1)
     |                                               |                |                    m{}: 0x3e6-0x3e7.7 (2)
0x3e0|                  04                           |      .         |                      a: 4 0x3e6-0x3e6.7 (1)
0x3e0|                     00                        |       .        |                      o: 0 0x3e7-0x3e7.7 (1)
     |                                               |                |                  [2]{}: in 0x3e8-0x3e9.7 (2)
0x3e0|                        41                     |        A       |                    i32.const: 0x41 (valid) 0x3e8-0x3e8.7 (1)
0x3e0|                           01                  |         .      |                    n: 1 0x3e9-0x3e9.7 (1)
     |                                               |                |                  [3]{}: in 0x3ea-0x3ec.7 (3)
0x3e0|                              fd               |          .     |                    prefix: 0xfd (valid) 0x3ea-0x3ea.7 (1)
0x3e0|                                 ab 01         |           ..   |                    i32x4.shl: 171 (valid) 0x3eb-0x3ec.7 (2)
     |                                               |                |                  [4]{}: in 0x3ed-0x3ee.7 (2)
0x3e0|                                       41      |             A  |                    i32.const: 0x41 (valid) 0x3ed-0x3ed.7 (1)
0x3e0|                                          01   |              . |                    n: 1 0x3ee-0x3ee.7 (1)
     |                                               |                |                  [5]{}: in 0x3ef-0x3f1.7 (3)
0x3e0|                                             fd|               .|                    prefix: 0xfd (valid) 0x3ef-0x3ef.7 (1)
0x3f0|ab 01                                          |..              |                    i32x4.shl: 171 (valid) 0x3f0-0x3f1.7 (2)
     |                                               |                |                  [6]{}: in 0x3f2-0x3f3.7 (2)
0x3f0|      41                                       |  A             |                    i32.const: 0x41 (valid) 0x3f2-0x3f2.7 (1)
0x3f0|         01                                    |   .            |                    n: 1 0x3f3-0x3f3.7 (1)
     |                                               |                |                  [7]{}: in 0x3f4-0x3f6.7 (3)
0x3f0|            fd                                 |    .           |                    prefix: 0xfd (valid) 0x3f4-0x3f4.7 (1)
0x3f0|               ab 01                           |     ..         |                    i32x4.shl: 171 (valid) 0x3f5-0x3f6.7 (2)
     |                                               |                |                  [8]{}: in 0x3f7-0x3f7.7 (1)
0x3f0|                     1a                        |       .        |                    drop: 0x1a (valid) 0x3f7-0x3f7.7 (1)
     |                                               |                |                  [9]{}: in 0x3f8-0x3f8.7 (1)
0x3f0|                        0b                     |        .       |                    end: 0xb (valid) 0x3f8-0x3f8.7 (1)
     |                                               |                |            [19]{}: code 0x3f9-0x411.7 (25)
0x3f0|                           18                  |         .      |              size: 24 0x3f9-0x3f9.7 (1)
     |                                               |                |              code{}: 0x3fa-0x411.7 (24)
     |                                               |                |                t{}: 0x3fa-0x3fa.7 (1)
0x3f0|                              00               |          .     |                  n: 0 0x3fa-0x3fa.7 (1)
     |                                               |                |                  x[0:0]: 0x3fb-NA (0)
     |                                               |                |                e[0:10]: 0x3fb-0x411.7 (23)
     |                                               |                |                  [0]{}: in 0x3fb-0x3fc.7 (2)
0x3f0|                                 41            |           A    |                    i32.const: 0x41 (valid) 0x3fb-0x3fb.7 (1)
0x3f0|                                    00         |            .   |                    n: 0 0x3fc-0x3fc.7 (1)
     |                                               |                |                  [1]{}: in 0x3fd-0x400.7 (4)
0x3f0|                                       fd      |             .  |                    prefix: 0xfd (valid) 0x3fd-0x3fd.7 (1)
0x3f0|                                          00   |              . |                    v128.load: 0 (valid) 0x3fe-0x3fe.7 (1)
     |                                               |                |                    m{}: 0x3ff-0x400.7 (2)
0x3f0|                                             04|               .|                      a: 4 0x3ff-0x3ff.7 (1)
0x400|00                                             |.               |                      o: 0 0x400-0x400.7 (1)
     |                                               |                |                  [2]{}: in 0x401-0x402.7 (2)
0x400|   41                                          | A              |                    i32.const: 0x41 (valid) 0x401-0x401.7 (1)
0x400|      01                                       |  .             |                    n: 1 0x402-0x402.7 (1)
     |                                               |                |                  [3]{}: in 0x403-0x405.7 (3)
0x400|         fd                                    |   .            |                    prefix: 0xfd (valid) 0x403-0x403.7 (1)
0x400|            ac 01                              |    ..          |                    i32x4.shr_s: 172 (valid) 0x404-0x405.7 (2)
     |                                               |                |                  [4]{}: in 0x406-0x407.7 (2)
0x400|                  41                           |      A         |                    i32.const: 0x41 (valid) 0x406-0x406.7 (1)
0x400|                     01                        |       .        |                    n: 1 0x407-0x407.7 (1)
     |                                               |                |                  [5]{}: in 0x408-0x40a.7 (3)
0x400|                        fd                     |        .       |                    prefix: 0xfd (valid) 0x408-0x408.7 (1)
0x400|                           ac 01               |         ..     |                    i32x4.shr_s: 172 (valid) 0x409-0x40a.7 (2)
     |                                               |                |                  [6]{}: in 0x40b-0x40c.7 (2)
0x400|                                 41            |           A    |                    i32.const: 0x41 (valid) 0x40b-0x40b.7 (1)
0x400|                                    01         |            .   |                    n: 1 0x40c-0x40c.7 (1)
     |                                               |                |                  [7]{}: in 0x40d-0x40f.7 (3)
0x400|                                       fd      |             .  |                    prefix: 0xfd (valid) 0x40d-0x40d.7 (1)
0x400|                                          ac 01|              ..|                    i32x4.shr_s: 172 (valid) 0x40e-0x40f.7 (2)
     |                                               |                |                  [8]{}: in 0x410-0x410.7 (1)
0x410|1a                                             |.               |                    drop: 0x1a (valid) 0x410-0x410.7 (1)
     |                                               |                |                  [9]{}: in 0x411-0x411.7 (1)
0x410|   0b                                          | .              |                    end: 0xb (valid) 0x411-0x411.7 (1)
     |                                               |                |            [20]{}: code 0x412-0x42a.7 (25)
0x410|      18                                       |  .             |              size: 24 0x412-0x412.7 (1)
     |                                               |                |              code{}: 0x413-0x42a.7 (24)
     |                                               |                |                t{}: 0x413-0x413.7 (1)
0x410|         00                                    |   .            |                  n: 0 0x413-0x413.7 (1)
     |                                               |                |                  x[0:0]: 0x414-NA (0)
     |                                               |                |                e[0:10]: 0x414-0x42a.7 (23)
     |                                               |                |                  [0]{}: in 0x414-0x415.7 (2)
0x410|            41                                 |    A           |                    i32.const: 0x41 (valid) 0x414-0x414.7 (1)
0x410|               00                              |     .          |                    n: 0 0x415-0x415.7 (1)
     |                                               |                |                  [1]{}: in 0x416-0x419.7 (4)
0x410|                  fd                           |      .         |                    prefix: 0xfd (valid) 0x416-0x416.7 (1)
0x410|                     00                        |       .        |                    v128.load: 0 (valid) 0x417-0x417.7 (1)
     |                                               |                |                    m{}: 0x418-0x419.7 (2)
0x410|                        04                     |        .       |                      a: 4 0x418-0x418.7 (1)
0x410|                           00                  |         .      |                      o: 0 0x419-0x419.7 (1)
     |                                               |                |                  [2]{}: in 0x41a-0x41b.7 (2)
0x410|                              41               |          A     |                    i32.const: 0x41 (valid) 0x41a-0x41a.7 (1)
0x410|                                 01            |           .    |                    n: 1 0x41b-0x41b.7 (1)
     |                                               |                |                  [3]{}: in 0x41c-0x41e.7 (3)
0x410|                                    fd         |            .   |                    prefix: 0xfd (valid) 0x41c-0x41c.7 (1)
0x410|                                       ad 01   |             .. |                    i32x4.shr_u: 173 (valid) 0x41d-0x41e.7 (2)
     |                                               |                |                  [4]{}: in 0x41f-0x420.7 (2)
0x410|                                             41|               A|                    i32.const: 0x41 (valid) 0x41f-0x41f.7 (1)
0x420|01                                             |.               |                    n: 1 0x420-0x420.7 (1)
     |                                               |                |                  [5]{}: in 0x421-0x423.7 (3)
0x420|   fd                                          | .              |                    prefix: 0xfd (valid) 0x421-0x421.7 (1)
0x420|      ad 01                                    |  ..            |                    i32x4.shr_u: 173 (valid) 0x422-0x423.7 (2)
     |                                               |                |                  [6]{}: in 0x424-0x425.7 (2)
0x420|            41                                 |    A           |                    i32.const: 0x41 (valid) 0x424-0x424.7 (1)
0x420|               01                              |     .          |                    n: 1 0x425-0x425.7 (1)
     |                                               |                |                  [7]{}: in 0x426-0x428.7 (3)
0x420|                  fd                           |      .         |                    prefix: 0xfd (valid) 0x426-0x426.7 (1)
0x420|                     ad 01                     |       ..       |                    i32x4.shr_u: 173 (valid) 0x427-0x428.7 (2)
     |                                               |                |                  [8]{}: in 0x429-0x429.7 (1)
0x420|                           1a                  |         .      |                    drop: 0x1a (valid) 0x429-0x429.7 (1)
     |                                               |                |                  [9]{}: in 0x42a-0x42a.7 (1)
0x420|                              0b               |          .     |                    end: 0xb (valid) 0x42a-0x42a.7 (1)
     |                                               |                |            [21]{}: code 0x42b-0x443.7 (25)
0x420|                                 18            |           .    |              size: 24 0x42b-0x42b.7 (1)
     |                                               |                |              code{}: 0x42c-0x443.7 (24)
     |                                               |                |                t{}: 0x42c-0x42c.7 (1)
0x420|                                    00         |            .   |                  n: 0 0x42c-0x42c.7 (1)
     |                                               |                |                  x[0:0]: 0x42d-NA (0)
     |                                               |                |                e[0:10]: 0x42d-0x443.7 (23)
     |                                               |                |                  [0]{}: in 0x42d-0x42e.7 (2)
0x420|                                       41      |             A  |                    i32.const: 0x41 (valid) 0x42d-0x42d.7 (1)
0x420|                                          00   |              . |                    n: 0 0x42e-0x42e.7 (1)
     |                                               |                |                  [1]{}: in 0x42f-0x432.7 (4)
0x420|                                             fd|               .|                    prefix: 0xfd (valid) 0x42f-0x42f.7 (1)
0x430|00                                             |.               |                    v128.load: 0 (valid) 0x430-0x430.7 (1)
     |                                               |                |                    m{}: 0x431-0x432.7 (2)
0x430|   04                                          | .              |                      a: 4 0x431-0x431.7 (1)
0x430|      00                                       |  .             |                      o: 0 0x432-0x432.7 (1)
     |                                               |                |                  [2]{}: in 0x433-0x434.7 (2)
0x430|         41                                    |   A            |                    i32.const: 0x41 (valid) 0x433-0x433.7 (1)
0x430|            01                                 |    .           |                    n: 1 0x434-0x434.7 (1)
     |                                               |                |                  [3]{}: in 0x435-0x437.7 (3)
0x430|               fd                              |     .          |                    prefix: 0xfd (valid) 0x435-0x435.7 (1)
0x430|                  cb 01                        |      ..        |                    i64x2.shl: 203 (valid) 0x436-0x437.7 (2)
     |                                               |                |                  [4]{}: in 0x438-0x439.7 (2)
0x430|                        41                     |        A       |                    i32.const: 0x41 (valid) 0x438-0x438.7 (1)
0x430|                           01                  |         .      |                    n: 1 0x439-0x439.7 (1)
     |                                               |                |                  [5]{}: in 0x43a-0x43c.7 (3)
0x430|                              fd               |          .     |                    prefix: 0xfd (valid) 0x43a-0x43a.7 (1)
0x430|                                 cb 01         |           ..   |                    i64x2.shl: 203 (valid) 0x43b-0x43c.7 (2)
     |                                               |                |                  [6]{}: in 0x43d-0x43e.7 (2)
0x430|                                       41      |             A  |                    i32.const: 0x41 (valid) 0x43d-0x43d.7 (1)
0x430|                                          01   |              . |                    n: 1 0x43e-0x43e.7 (1)
     |                                               |                |                  [7]{}: in 0x43f-0x441.7 (3)
0x430|                                             fd|               .|                    prefix: 0xfd (valid) 0x43f-0x43f.7 (1)
0x440|cb 01                                          |..              |                    i64x2.shl: 203 (valid) 0x440-0x441.7 (2)
     |                                               |                |                  [8]{}: in 0x442-0x442.7 (1)
0x440|      1a                                       |  .             |                    drop: 0x1a (valid) 0x442-0x442.7 (1)
     |                                               |                |                  [9]{}: in 0x443-0x443.7 (1)
0x440|         0b                                    |   .            |                    end: 0xb (valid) 0x443-0x443.7 (1)
     |                                               |                |            [22]{}: code 0x444-0x45c.7 (25)
0x440|            18                                 |    .           |              size: 24 0x444-0x444.7 (1)
     |                                               |                |              code{}: 0x445-0x45c.7 (24)
     |                                               |                |                t{}: 0x445-0x445.7 (1)
0x440|               00                              |     .          |                  n: 0 0x445-0x445.7 (1)
     |                                               |                |                  x[0:0]: 0x446-NA (0)
     |                                               |                |                e[0:10]: 0x446-0x45c.7 (23)
     |                                               |                |                  [0]{}: in 0x446-0x447.7 (2)
0x440|                  41                           |      A         |                    i32.const: 0x41 (valid) 0x446-0x446.7 (1)
0x440|                     00                        |       .        |                    n: 0 0x447-0x447.7 (1)
     |                                               |                |                  [1]{}: in 0x448-0x44b.7 (4)
0x440|                        fd                     |        .       |                    prefix: 0xfd (valid) 0x448-0x448.7 (1)
0x440|                           00                  |         .      |                    v128.load: 0 (valid) 0x449-0x449.7 (1)
     |                                               |                |                    m{}: 0x44a-0x44b.7 (2)
0x440|                              04               |          .     |                      a: 4 0x44a-0x44a.7 (1)
0x440|                                 00            |           .    |                      o: 0 0x44b-0x44b.7 (1)
     |                                               |                |                  [2]{}: in 0x44c-0x44d.7 (2)
0x440|                                    41         |            A   |                    i32.const: 0x41 (valid) 0x44c-0x44c.7 (1)
0x440|                                       01      |             .  |                    n: 1 0x44d-0x44d.7 (1)
     |                                               |                |                  [3]{}: in 0x44e-0x450.7 (3)
0x440|                                          fd   |              . |                    prefix: 0xfd (valid) 0x44e-0x44e.7 (1)
0x440|                                             cc|               .|                    i64x2.shr_s: 204 (valid) 0x44f-0x450.7 (2)
0x450|01                                             |.               |
     |                                               |                |                  [4]{}: in 0x451-0x452.7 (2)
0x450|   41                                          | A              |                    i32.const: 0x41 (valid) 0x451-0x451.7 (1)
0x450|      01                                       |  .             |                    n: 1 0x452-0x452.7 (1)
     |                                               |                |                  [5]{}: in 0x453-0x455.7 (3)
0x450|         fd                                    |   .            |                    prefix: 0xfd (valid) 0x453-0x453.7 (1)
0x450|            cc 01                              |    ..          |                    i64x2.shr_s: 204 (valid) 0x454-0x455.7 (2)
     |                                               |                |                  [6]{}: in 0x456-0x457.7 (2)
0x450|                  41                           |      A         |                    i32.const: 0x41 (valid) 0x456-0x456.7 (1)
0x450|                     01                        |       .        |                    n: 1 0x457-0x457.7 (1)
     |                                               |                |                  [7]{}: in 0x458-0x45a.7 (3)
0x450|                        fd                     |        .       |                    prefix: 0xfd (valid) 0x458-0x458.7 (1)
0x450|                           cc 01               |         ..     |                    i64x2.shr_s: 204 (valid) 0x459-0x45a.7 (2)
     |                                               |                |                  [8]{}: in 0x45b-0x45b.7 (1)
0x450|                                 1a            |           .    |                    drop: 0x1a (valid) 0x45b-0x45b.7 (1)
     |                                               |                |                  [9]{}: in 0x45c-0x45c.7 (1)
0x450|                                    0b         |            .   |                    end: 0xb (valid) 0x45c-0x45c.7 (1)
     |                                               |                |            [23]{}: code 0x45d-0x475.7 (25)
0x450|                                       18      |             .  |              size: 24 0x45d-0x45d.7 (1)
     |                                               |                |              code{}: 0x45e-0x475.7 (24)
     |                                               |                |                t{}: 0x45e-0x45e.7 (1)
0x450|                                          00   |              . |                  n: 0 0x45e-0x45e.7 (1)
     |                                               |                |                  x[0:0]: 0x45f-NA (0)
     |                                               |                |                e[0:10]: 0x45f-0x475.7 (23)
     |                                               |                |                  [0]{}: in 0x45f-0x460.7 (2)
0x450|                                             41|               A|                    i32.const: 0x41 (valid) 0x45f-0x45f.7 (1)
0x460|00                                             |.               |                    n: 0 0x460-0x460.7 (1)
     |                                               |                |                  [1]{}: in 0x461-0x464.7 (4)
0x460|   fd                                          | .              |                    prefix: 0xfd (valid) 0x461-0x461.7 (1)
0x460|      00                                       |  .             |                    v128.load: 0 (valid) 0x462-0x462.7 (1)
     |                                               |                |                    m{}: 0x463-0x464.7 (2)
0x460|         04                                    |   .            |                      a: 4 0x463-0x463.7 (1)
0x460|            00                                 |    .           |                      o: 0 0x464-0x464.7 (1)
     |                                               |                |                  [2]{}: in 0x465-0x466.7 (2)
0x460|               41                              |     A          |                    i32.const: 0x41 (valid) 0x465-0x465.7 (1)
0x460|                  01                           |      .         |                    n: 1 0x466-0x466.7 (1)
     |                                               |                |                  [3]{}: in 0x467-0x469.7 (3)
0x460|                     fd                        |       .        |                    prefix: 0xfd (valid) 0x467-0x467.7 (1)
0x460|                        cd 01                  |        ..      |                    i64x2.shr_u: 205 (valid) 0x468-0x469.7 (2)
     |                                               |                |                  [4]{}: in 0x46a-0x46b.7 (2)
0x460|                              41               |          A     |                    i32.const: 0x41 (valid) 0x46a-0x46a.7 (1)
0x460|                                 01            |           .    |                    n: 1 0x46b-0x46b.7 (1)
     |                                               |                |                  [5]{}: in 0x46c-0x46e.7 (3)
0x460|                                    fd         |            .   |                    prefix: 0xfd (valid) 0x46c-0x46c.7 (1)
0x460|                                       cd 01   |             .. |                    i64x2.shr_u: 205 (valid) 0x46d-0x46e.7 (2)
     |                                               |                |                  [6]{}: in 0x46f-0x470.7 (2)
0x460|                                             41|               A|                    i32.const: 0x41 (valid) 0x46f-0x46f.7 (1)
0x470|01                                             |.               |                    n: 1 0x470-0x470.7 (1)
     |                                               |                |                  [7]{}: in 0x471-0x473.7 (3)
0x470|   fd                                          | .              |                    prefix: 0xfd (valid) 0x471-0x471.7 (1)
0x470|      cd 01                                    |  ..            |                    i64x2.shr_u: 205 (valid) 0x472-0x473.7 (2)
     |                                               |                |                  [8]{}: in 0x474-0x474.7 (1)
0x470|            1a                                 |    .           |                    drop: 0x1a (valid) 0x474-0x474.7 (1)
     |                                               |                |                  [9]{}: in 0x475-0x475.7 (1)
0x470|               0b|                             |     .|         |                    end: 0xb (valid) 0x475-0x475.7 (1)
