$ fq -d wasm dv simd_store32_lane-0.wasm
     |00 01 02 03 04 05 06 07 08 09 0a 0b 0c 0d 0e 0f|0123456789abcdef|.{}: simd_store32_lane-0.wasm (wasm) 0x0-0x4f9.7 (1274)
0x000|00 61 73 6d                                    |.asm            |  magic: raw bits (valid) 0x0-0x3.7 (4)
0x000|            01 00 00 00                        |    ....        |  version: 1 0x4-0x7.7 (4)
     |                                               |                |  sections[0:6]: 0x8-0x4f9.7 (1266)
     |                                               |                |    [0]{}: section 0x8-0x15.7 (14)
0x000|                        01                     |        .       |      id: "type section" (1) 0x8-0x8.7 (1)
0x000|                           0c                  |         .      |      size: 12 0x9-0x9.7 (1)
     |                                               |                |      content{}: 0xa-0x15.7 (12)
     |                                               |                |        ft{}: 0xa-0x15.7 (12)
0x000|                              02               |          .     |          n: 2 0xa-0xa.7 (1)
     |                                               |                |          x[0:2]: 0xb-0x15.7 (11)
     |                                               |                |            [0]{}: ft 0xb-0x10.7 (6)
0x000|                                 60            |           `    |              tag: 0x60 (valid) 0xb-0xb.7 (1)
     |                                               |                |              rt1{}: 0xc-0xe.7 (3)
0x000|                                    02         |            .   |                n: 2 0xc-0xc.7 (1)
     |                                               |                |                x[0:2]: 0xd-0xe.7 (2)
0x000|                                       7f      |             .  |                  [0]: "i32" (0x7f) t 0xd-0xd.7 (1)
0x000|                                          7b   |              { |                  [1]: "v128" (0x7b) t 0xe-0xe.7 (1)
     |                                               |                |              rt2{}: 0xf-0x10.7 (2)
0x000|                                             01|               .|                n: 1 0xf-0xf.7 (1)
     |                                               |                |                x[0:1]: 0x10-0x10.7 (1)
0x010|7e                                             |~               |                  [0]: "i64" (0x7e) t 0x10-0x10.7 (1)
     |                                               |                |            [1]{}: ft 0x11-0x15.7 (5)
0x010|   60                                          | `              |              tag: 0x60 (valid) 0x11-0x11.7 (1)
     |                                               |                |              rt1{}: 0x12-0x13.7 (2)
0x010|      01                                       |  .             |                n: 1 0x12-0x12.7 (1)
     |                                               |                |                x[0:1]: 0x13-0x13.7 (1)
0x010|         7b                                    |   {            |                  [0]: "v128" (0x7b) t 0x13-0x13.7 (1)
     |                                               |                |              rt2{}: 0x14-0x15.7 (2)
0x010|            01                                 |    .           |                n: 1 0x14-0x14.7 (1)
     |                                               |                |                x[0:1]: 0x15-0x15.7 (1)
0x010|               7e                              |     ~          |                  [0]: "i64" (0x7e) t 0x15-0x15.7 (1)
     |                                               |                |    [1]{}: section 0x16-0x2c.7 (23)
0x010|                  03                           |      .         |      id: "function section" (3) 0x16-0x16.7 (1)
0x010|                     15                        |       .        |      size: 21 0x17-0x17.7 (1)
     |                                               |                |      content{}: 0x18-0x2c.7 (21)
     |                                               |                |        x{}: 0x18-0x2c.7 (21)
0x010|                        14                     |        .       |          n: 20 0x18-0x18.7 (1)
     |                                               |                |          x[0:20]: 0x19-0x2c.7 (20)
0x010|                           00                  |         .      |            [0]: 0 x 0x19-0x19.7 (1)
0x010|                              00               |          .     |            [1]: 0 x 0x1a-0x1a.7 (1)
0x010|                                 00            |           .    |            [2]: 0 x 0x1b-0x1b.7 (1)
0x010|                                    00         |            .   |            [3]: 0 x 0x1c-0x1c.7 (1)
0x010|                                       01      |             .  |            [4]: 1 x 0x1d-0x1d.7 (1)
0x010|                                          01   |              . |            [5]: 1 x 0x1e-0x1e.7 (1)
0x010|                                             01|               .|            [6]: 1 x 0x1f-0x1f.7 (1)
0x020|01                                             |.               |            [7]: 1 x 0x20-0x20.7 (1)
0x020|   00                                          | .              |            [8]: 0 x 0x21-0x21.7 (1)
0x020|      00                                       |  .             |            [9]: 0 x 0x22-0x22.7 (1)
0x020|         00                                    |   .            |            [10]: 0 x 0x23-0x23.7 (1)
0x020|            00                                 |    .           |            [11]: 0 x 0x24-0x24.7 (1)
0x020|               00                              |     .          |            [12]: 0 x 0x25-0x25.7 (1)
0x020|                  00                           |      .         |            [13]: 0 x 0x26-0x26.7 (1)
0x020|                     00                        |       .        |            [14]: 0 x 0x27-0x27.7 (1)
0x020|                        00                     |        .       |            [15]: 0 x 0x28-0x28.7 (1)
0x020|                           00                  |         .      |            [16]: 0 x 0x29-0x29.7 (1)
0x020|                              00               |          .     |            [17]: 0 x 0x2a-0x2a.7 (1)
0x020|                                 00            |           .    |            [18]: 0 x 0x2b-0x2b.7 (1)
0x020|                                    00         |            .   |            [19]: 0 x 0x2c-0x2c.7 (1)
     |                                               |                |    [2]{}: section 0x2d-0x31.7 (5)
0x020|                                       05      |             .  |      id: "memory section" (5) 0x2d-0x2d.7 (1)
0x020|                                          03   |              . |      size: 3 0x2e-0x2e.7 (1)
     |                                               |                |      content{}: 0x2f-0x31.7 (3)
     |                                               |                |        mem{}: 0x2f-0x31.7 (3)
0x020|                                             01|               .|          n: 1 0x2f-0x2f.7 (1)
     |                                               |                |          x[0:1]: 0x30-0x31.7 (2)
     |                                               |                |            [0]{}: mem 0x30-0x31.7 (2)
     |                                               |                |              lim{}: 0x30-0x31.7 (2)
0x030|00                                             |.               |                tag: 0x0 0x30-0x30.7 (1)
0x030|   01                                          | .              |                n: 1 0x31-0x31.7 (1)
     |                                               |                |    [3]{}: section 0x32-0x49.7 (24)
0x030|      06                                       |  .             |      id: "global section" (6) 0x32-0x32.7 (1)
0x030|         16                                    |   .            |      size: 22 0x33-0x33.7 (1)
     |                                               |                |      content{}: 0x34-0x49.7 (22)
     |                                               |                |        glob{}: 0x34-0x49.7 (22)
0x030|            01                                 |    .           |          n: 1 0x34-0x34.7 (1)
     |                                               |                |          x[0:1]: 0x35-0x49.7 (21)
     |                                               |                |            [0]{}: glob 0x35-0x49.7 (21)
     |                                               |                |              gt{}: 0x35-0x36.7 (2)
0x030|               7b                              |     {          |                t: "v128" (0x7b) 0x35-0x35.7 (1)
0x030|                  01                           |      .         |                m: "var" (1) 0x36-0x36.7 (1)
     |                                               |                |              e[0:2]: 0x37-0x49.7 (19)
     |                                               |                |                [0]{}: in 0x37-0x48.7 (18)
0x030|                     fd                        |       .        |                  prefix: 0xfd (valid) 0x37-0x37.7 (1)
0x030|                        0c                     |        .       |                  v128.const: 12 (valid) 0x38-0x38.7 (1)
0x030|                           00 00 00 00 00 00 00|         .......|                  bytes: raw bits 0x39-0x48.7 (16)
0x040|00 00 00 00 00 00 00 00 00                     |.........       |
     |                                               |                |                [1]{}: in 0x49-0x49.7 (1)
0x040|                           0b                  |         .      |                  end: 0xb (valid) 0x49-0x49.7 (1)
     |                                               |                |    [4]{}: section 0x4a-0x289.7 (576)
0x040|                              07               |          .     |      id: "export section" (7) 0x4a-0x4a.7 (1)
0x040|                                 bd 04         |           ..   |      size: 573 0x4b-0x4c.7 (2)
     |                                               |                |      content{}: 0x4d-0x289.7 (573)
     |                                               |                |        ex{}: 0x4d-0x289.7 (573)
0x040|                                       14      |             .  |          n: 20 0x4d-0x4d.7 (1)
     |                                               |                |          x[0:20]: 0x4e-0x289.7 (572)
     |                                               |                |            [0]{}: ex 0x4e-0x63.7 (22)
     |                                               |                |              nm{}: 0x4e-0x61.7 (20)
0x040|                                          13   |              . |                n: 19 0x4e-0x4e.7 (1)
0x040|                                             76|               v|                b: "v128.store32_lane_0" 0x4f-0x61.7 (19)
0x050|31 32 38 2e 73 74 6f 72 65 33 32 5f 6c 61 6e 65|128.store32_lane|
0x060|5f 30                                          |_0              |
     |                                               |                |              d{}: 0x62-0x63.7 (2)
0x060|      00                                       |  .             |                tag: "funcidx" (0x0) 0x62-0x62.7 (1)
0x060|         00                                    |   .            |                x: 0 0x63-0x63.7 (1)
     |                                               |                |            [1]{}: ex 0x64-0x79.7 (22)
     |                                               |                |              nm{}: 0x64-0x77.7 (20)
0x060|            13                                 |    .           |                n: 19 0x64-0x64.7 (1)
0x060|               76 31 32 38 2e 73 74 6f 72 65 33|     v128.store3|                b: "v128.store32_lane_1" 0x65-0x77.7 (19)
0x070|32 5f 6c 61 6e 65 5f 31                        |2_lane_1        |
     |                                               |                |              d{}: 0x78-0x79.7 (2)
0x070|                        00                     |        .       |                tag: "funcidx" (0x0) 0x78-0x78.7 (1)
0x070|                           01                  |         .      |                x: 1 0x79-0x79.7 (1)
     |                                               |                |            [2]{}: ex 0x7a-0x8f.7 (22)
     |                                               |                |              nm{}: 0x7a-0x8d.7 (20)
0x070|                              13               |          .     |                n: 19 0x7a-0x7a.7 (1)
0x070|                                 76 31 32 38 2e|           v128.|                b: "v128.store32_lane_2" 0x7b-0x8d.7 (19)
0x080|73 74 6f 72 65 33 32 5f 6c 61 6e 65 5f 32      |store32_lane_2  |
     |                                               |                |              d{}: 0x8e-0x8f.7 (2)
0x080|                                          00   |              . |                tag: "funcidx" (0x0) 0x8e-0x8e.7 (1)
0x080|                                             02|               .|                x: 2 0x8f-0x8f.7 (1)
     |                                               |                |            [3]{}: ex 0x90-0xa5.7 (22)
     |                                               |                |              nm{}: 0x90-0xa3.7 (20)
0x090|13                                             |.               |                n: 19 0x90-0x90.7 (1)
0x090|   76 31 32 38 2e 73 74 6f 72 65 33 32 5f 6c 61| v128.store32_la|                b: "v128.store32_lane_3" 0x91-0xa3.7 (19)
0x0a0|6e 65 5f 33                                    |ne_3            |
     |                                               |                |              d{}: 0xa4-0xa5.7 (2)
0x0a0|            00                                 |    .           |                tag: "funcidx" (0x0) 0xa4-0xa4.7 (1)
0x0a0|               03                              |     .          |                x: 3 0xa5-0xa5.7 (1)
     |                                               |                |            [4]{}: ex 0xa6-0xc4.7 (31)
     |                                               |                |              nm{}: 0xa6-0xc2.7 (29)
0x0a0|                  1c                           |      .         |                n: 28 0xa6-0xa6.7 (1)
0x0a0|                     76 31 32 38 2e 73 74 6f 72|       v128.stor|                b: "v128.store32_lane_0_offset_0" 0xa7-0xc2.7 (28)
0x0b0|65 33 32 5f 6c 61 6e 65 5f 30 5f 6f 66 66 73 65|e32_lane_0_offse|
0x0c0|74 5f 30                                       |t_0             |
     |                                               |                |              d{}: 0xc3-0xc4.7 (2)
0x0c0|         00                                    |   .            |                tag: "funcidx" (0x0) 0xc3-0xc3.7 (1)
0x0c0|            04                                 |    .           |                x: 4 0xc4-0xc4.7 (1)
     |                                               |                |            [5]{}: ex 0xc5-0xe3.7 (31)
     |                                               |                |              nm{}: 0xc5-0xe1.7 (29)
0x0c0|               1c                              |     .          |                n: 28 0xc5-0xc5.7 (1)
0x0c0|                  76 31 32 38 2e 73 74 6f 72 65|      v128.store|                b: "v128.store32_lane_1_offset_1" 0xc6-0xe1.7 (28)
0x0d0|33 32 5f 6c 61 6e 65 5f 31 5f 6f 66 66 73 65 74|32_lane_1_offset|
0x0e0|5f 31                                          |_1              |
     |                                               |                |              d{}: 0xe2-0xe3.7 (2)
0x0e0|      00                                       |  .             |                tag: "funcidx" (0x0) 0xe2-0xe2.7 (1)
0x0e0|         05                                    |   .            |                x: 5 0xe3-0xe3.7 (1)
     |                                               |                |            [6]{}: ex 0xe4-0x102.7 (31)
     |                                               |                |              nm{}: 0xe4-0x100.7 (29)
0x0e0|            1c                                 |    .           |                n: 28 0xe4-0xe4.7 (1)
0x0e0|               76 31 32 38 2e 73 74 6f 72 65 33|     v128.store3|                b: "v128.store32_lane_2_offset_2" 0xe5-0x100.7 (28)
0x0f0|32 5f 6c 61 6e 65 5f 32 5f 6f 66 66 73 65 74 5f|2_lane_2_offset_|
0x100|32                                             |2               |
     |                                               |                |              d{}: 0x101-0x102.7 (2)
0x100|   00                                          | .              |                tag: "funcidx" (0x0) 0x101-0x101.7 (1)
0x100|      06                                       |  .             |                x: 6 0x102-0x102.7 (1)
     |                                               |                |            [7]{}: ex 0x103-0x121.7 (31)
     |                                               |                |              nm{}: 0x103-0x11f.7 (29)
0x100|         1c                                    |   .            |                n: 28 0x103-0x103.7 (1)
0x100|            76 31 32 38 2e 73 74 6f 72 65 33 32|    v128.store32|                b: "v128.store32_lane_3_offset_3" 0x104-0x11f.7 (28)
0x110|5f 6c 61 6e 65 5f 33 5f 6f 66 66 73 65 74 5f 33|_lane_3_offset_3|
     |                                               |                |              d{}: 0x120-0x121.7 (2)
0x120|00                                             |.               |                tag: "funcidx" (0x0) 0x120-0x120.7 (1)
0x120|   07                                          | .              |                x: 7 0x121-0x121.7 (1)
     |                                               |                |            [8]{}: ex 0x122-0x13f.7 (30)
     |                                               |                |              nm{}: 0x122-0x13d.7 (28)
0x120|      1b                                       |  .             |                n: 27 0x122-0x122.7 (1)
0x120|         76 31 32 38 2e 73 74 6f 72 65 33 32 5f|   v128.store32_|                b: "v128.store32_lane_0_align_1" 0x123-0x13d.7 (27)
0x130|6c 61 6e 65 5f 30 5f 61 6c 69 67 6e 5f 31      |lane_0_align_1  |
     |                                               |                |              d{}: 0x13e-0x13f.7 (2)
0x130|                                          00   |              . |                tag: "funcidx" (0x0) 0x13e-0x13e.7 (1)
0x130|                                             08|               .|                x: 8 0x13f-0x13f.7 (1)
     |                                               |                |            [9]{}: ex 0x140-0x15d.7 (30)
     |                                               |                |              nm{}: 0x140-0x15b.7 (28)
0x140|1b                                             |.               |                n: 27 0x140-0x140.7 (1)
0x140|   76 31 32 38 2e 73 74 6f 72 65 33 32 5f 6c 61| v128.store32_la|                b: "v128.store32_lane_0_align_2" 0x141-0x15b.7 (27)
0x150|6e 65 5f 30 5f 61 6c 69 67 6e 5f 32            |ne_0_align_2    |
     |                                               |                |              d{}: 0x15c-0x15d.7 (2)
0x150|                                    00         |            .   |                tag: "funcidx" (0x0) 0x15c-0x15c.7 (1)
0x150|                                       09      |             .  |                x: 9 0x15d-0x15d.7 (1)
     |                                               |                |            [10]{}: ex 0x15e-0x17b.7 (30)
     |                                               |                |              nm{}: 0x15e-0x179.7 (28)
0x150|                                          1b   |              . |                n: 27 0x15e-0x15e.7 (1)
0x150|                                             76|               v|                b: "v128.store32_lane_0_align_4" 0x15f-0x179.7 (27)
0x160|31 32 38 2e 73 74 6f 72 65 33 32 5f 6c 61 6e 65|128.store32_lane|
0x170|5f 30 5f 61 6c 69 67 6e 5f 34                  |_0_align_4      |
     |                                               |                |              d{}: 0x17a-0x17b.7 (2)
0x170|                              00               |          .     |                tag: "funcidx" (0x0) 0x17a-0x17a.7 (1)
0x170|                                 0a            |           .    |                x: 10 0x17b-0x17b.7 (1)
     |                                               |                |            [11]{}: ex 0x17c-0x199.7 (30)
     |                                               |                |              nm{}: 0x17c-0x197.7 (28)
0x170|                                    1b         |            .   |                n: 27 0x17c-0x17c.7 (1)
0x170|                                       76 31 32|             v12|                b: "v128.store32_lane_1_align_1" 0x17d-0x197.7 (27)
0x180|38 2e 73 74 6f 72 65 33 32 5f 6c 61 6e 65 5f 31|8.store32_lane_1|
0x190|5f 61 6c 69 67 6e 5f 31                        |_align_1        |
     |                                               |                |              d{}: 0x198-0x199.7 (2)
0x190|                        00                     |        .       |                tag: "funcidx" (0x0) 0x198-0x198.7 (1)
0x190|                           0b                  |         .      |                x: 11 0x199-0x199.7 (1)
     |                                               |                |            [12]{}: ex 0x19a-0x1b7.7 (30)
     |                                               |                |              nm{}: 0x19a-0x1b5.7 (28)
0x190|                              1b               |          .     |                n: 27 0x19a-0x19a.7 (1)
0x190|                                 76 31 32 38 2e|           v128.|                b: "v128.store32_lane_1_align_2" 0x19b-0x1b5.7 (27)
0x1a0|73 74 6f 72 65 33 32 5f 6c 61 6e 65 5f 31 5f 61|store32_lane_1_a|
0x1b0|6c 69 67 6e 5f 32                              |lign_2          |
     |                                               |                |              d{}: 0x1b6-0x1b7.7 (2)
0x1b0|                  00                           |      .         |                tag: "funcidx" (0x0) 0x1b6-0x1b6.7 (1)
0x1b0|                     0c                        |       .        |                x: 12 0x1b7-0x1b7.7 (1)
     |                                               |                |            [13]{}: ex 0x1b8-0x1d5.7 (30)
     |                                               |                |              nm{}: 0x1b8-0x1d3.7 (28)
0x1b0|                        1b                     |        .       |                n: 27 0x1b8-0x1b8.7 (1)
0x1b0|                           76 31 32 38 2e 73 74|         v128.st|                b: "v128.store32_lane_1_align_4" 0x1b9-0x1d3.7 (27)
0x1c0|6f 72 65 33 32 5f 6c 61 6e 65 5f 31 5f 61 6c 69|ore32_lane_1_ali|
0x1d0|67 6e 5f 34                                    |gn_4            |
     |                                               |                |              d{}: 0x1d4-0x1d5.7 (2)
0x1d0|            00                                 |    .           |                tag: "funcidx" (0x0) 0x1d4-0x1d4.7 (1)
0x1d0|               0d                              |     .          |                x: 13 0x1d5-0x1d5.7 (1)
     |                                               |                |            [14]{}: ex 0x1d6-0x1f3.7 (30)
     |                                               |                |              nm{}: 0x1d6-0x1f1.7 (28)
0x1d0|                  1b                           |      .         |                n: 27 0x1d6-0x1d6.7 (1)
0x1d0|                     76 31 32 38 2e 73 74 6f 72|       v128.stor|                b: "v128.store32_lane_2_align_1" 0x1d7-0x1f1.7 (27)
0x1e0|65 33 32 5f 6c 61 6e 65 5f 32 5f 61 6c 69 67 6e|e32_lane_2_align|
0x1f0|5f 31                                          |_1              |
     |                                               |                |              d{}: 0x1f2-0x1f3.7 (2)
0x1f0|      00                                       |  .             |                tag: "funcidx" (0x0) 0x1f2-0x1f2.7 (1)
0x1f0|         0e                                    |   .            |                x: 14 0x1f3-0x1f3.7 (1)
     |                                               |                |            [15]{}: ex 0x1f4-0x211.7 (30)
     |                                               |                |              nm{}: 0x1f4-0x20f.7 (28)
0x1f0|            1b                                 |    .           |                n: 27 0x1f4-0x1f4.7 (1)
0x1f0|               76 31 32 38 2e 73 74 6f 72 65 33|     v128.store3|                b: "v128.store32_lane_2_align_2" 0x1f5-0x20f.7 (27)
0x200|32 5f 6c 61 6e 65 5f 32 5f 61 6c 69 67 6e 5f 32|2_lane_2_align_2|
     |                                               |                |              d{}: 0x210-0x211.7 (2)
0x210|00                                             |.               |                tag: "funcidx" (0x0) 0x210-0x210.7 (1)
0x210|   0f                                          | .              |                x: 15 0x211-0x211.7 (1)
     |                                               |                |            [16]{}: ex 0x212-0x22f.7 (30)
     |                                               |                |              nm{}: 0x212-0x22d.7 (28)
0x210|      1b                                       |  .             |                n: 27 0x212-0x212.7 (1)
0x210|         76 31 32 38 2e 73 74 6f 72 65 33 32 5f|   v128.store32_|                b: "v128.store32_lane_2_align_4" 0x213-0x22d.7 (27)
0x220|6c 61 6e 65 5f 32 5f 61 6c 69 67 6e 5f 34      |lane_2_align_4  |
     |                                               |                |              d{}: 0x22e-0x22f.7 (2)
0x220|                                          00   |              . |                tag: "funcidx" (0x0) 0x22e-0x22e.7 (1)
0x220|                                             10|               .|                x: 16 0x22f-0x22f.7 (1)
     |                                               |                |            [17]{}: ex 0x230-0x24d.7 (30)
     |                                               |                |              nm{}: 0x230-0x24b.7 (28)
0x230|1b                                             |.               |                n: 27 0x230-0x230.7 (1)
0x230|   76 31 32 38 2e 73 74 6f 72 65 33 32 5f 6c 61| v128.store32_la|                b: "v128.store32_lane_3_align_1" 0x231-0x24b.7 (27)
0x240|6e 65 5f 33 5f 61 6c 69 67 6e 5f 31            |ne_3_align_1    |
     |                                               |                |              d{}: 0x24c-0x24d.7 (2)
0x240|                                    00         |            .   |                tag: "funcidx" (0x0) 0x24c-0x24c.7 (1)
0x240|                                       11      |             .  |                x: 17 0x24d-0x24d.7 (1)
     |                                               |                |            [18]{}: ex 0x24e-0x26b.7 (30)
     |                                               |                |              nm{}: 0x24e-0x269.7 (28)
0x240|                                          1b   |              . |                n: 27 0x24e-0x24e.7 (1)
0x240|                                             76|               v|                b: "v128.store32_lane_3_align_2" 0x24f-0x269.7 (27)
0x250|31 32 38 2e 73 74 6f 72 65 33 32 5f 6c 61 6e 65|128.store32_lane|
0x260|5f 33 5f 61 6c 69 67 6e 5f 32                  |_3_align_2      |
     |                                               |                |              d{}: 0x26a-0x26b.7 (2)
0x260|                              00               |          .     |                tag: "funcidx" (0x0) 0x26a-0x26a.7 (1)
0x260|                                 12            |           .    |                x: 18 0x26b-0x26b.7 (1)
     |                                               |                |            [19]{}: ex 0x26c-0x289.7 (30)
     |                                               |                |              nm{}: 0x26c-0x287.7 (28)
0x260|                                    1b         |            .   |                n: 27 0x26c-0x26c.7 (1)
0x260|                                       76 31 32|             v12|                b: "v128.store32_lane_3_align_4" 0x26d-0x287.7 (27)
0x270|38 2e 73 74 6f 72 65 33 32 5f 6c 61 6e 65 5f 33|8.store32_lane_3|
0x280|5f 61 6c 69 67 6e 5f 34                        |_align_4        |
     |                                               |                |              d{}: 0x288-0x289.7 (2)
0x280|                        00                     |        .       |                tag: "funcidx" (0x0) 0x288-0x288.7 (1)
0x280|                           13                  |         .      |                x: 19 0x289-0x289.7 (1)
     |                                               |                |    [5]{}: section 0x28a-0x4f9.7 (624)
0x280|                              0a               |          .     |      id: "code section" (10) 0x28a-0x28a.7 (1)
0x280|                                 ed 04         |           ..   |      size: 621 0x28b-0x28c.7 (2)
     |                                               |                |      content{}: 0x28d-0x4f9.7 (621)
     |                                               |                |        code{}: 0x28d-0x4f9.7 (621)
0x280|                                       14      |             .  |          n: 20 0x28d-0x28d.7 (1)
     |                                               |                |          x[0:20]: 0x28e-0x4f9.7 (620)
     |                                               |                |            [0]{}: code 0x28e-0x2ac.7 (31)
0x280|                                          1e   |              . |              size: 30 0x28e-0x28e.7 (1)
     |                                               |                |              code{}: 0x28f-0x2ac.7 (30)
     |                                               |                |                t{}: 0x28f-0x291.7 (3)
0x280|                                             01|               .|                  n: 1 0x28f-0x28f.7 (1)
     |                                               |                |                  x[0:1]: 0x290-0x291.7 (2)
     |                                               |                |                    [0]{}: t 0x290-0x291.7 (2)
0x290|01                                             |.               |                      n: 1 0x290-0x290.7 (1)
0x290|   7e                                          | ~              |                      t: "i64" (0x7e) 0x291-0x291.7 (1)
     |                                               |                |                e[0:11]: 0x292-0x2ac.7 (27)
     |                                               |                |                  [0]{}: in 0x292-0x293.7 (2)
0x290|      20                                       |                |                    local.get: 0x20 (valid) 0x292-0x292.7 (1)
0x290|         00                                    |   .            |                    x: 0 0x293-0x293.7 (1)
     |                                               |                |                  [1]{}: in 0x294-0x295.7 (2)
0x290|            20                                 |                |                    local.get: 0x20 (valid) 0x294-0x294.7 (1)
0x290|               01                              |     .          |                    x: 1 0x295-0x295.7 (1)
     |                                               |                |                  [2]{}: in 0x296-0x29a.7 (5)
0x290|                  fd                           |      .         |                    prefix: 0xfd (valid) 0x296-0x296.7 (1)
0x290|                     5a                        |       Z        |                    v128.store32_lane: 90 (valid) 0x297-0x297.7 (1)
     |                                               |                |                    m{}: 0x298-0x299.7 (2)
0x290|                        02                     |        .       |                      a: 2 0x298-0x298.7 (1)
0x290|                           00                  |         .      |                      o: 0 0x299-0x299.7 (1)
0x290|                              00               |          .     |                    l: 0 0x29a-0x29a.7 (1)
     |                                               |                |                  [3]{}: in 0x29b-0x29c.7 (2)
0x290|                                 20            |                |                    local.get: 0x20 (valid) 0x29b-0x29b.7 (1)
0x290|                                    00         |            .   |                    x: 0 0x29c-0x29c.7 (1)
     |                                               |                |                  [4]{}: in 0x29d-0x29f.7 (3)
0x290|                                       29      |             )  |                    i64.load: 0x29 (valid) 0x29d-0x29d.7 (1)
     |                                               |                |                    m{}: 0x29e-0x29f.7 (2)
0x290|                                          03   |              . |                      a: 3 0x29e-0x29e.7 (1)
0x290|                                             00|               .|                      o: 0 0x29f-0x29f.7 (1)
     |                                               |                |                  [5]{}: in 0x2a0-0x2a1.7 (2)
0x2a0|21                                             |!               |                    local.set: 0x21 (valid) 0x2a0-0x2a0.7 (1)
0x2a0|   02                                          | .              |                    x: 2 0x2a1-0x2a1.7 (1)
     |                                               |                |                  [6]{}: in 0x2a2-0x2a3.7 (2)
0x2a0|      20                                       |                |                    local.get: 0x20 (valid) 0x2a2-0x2a2.7 (1)
0x2a0|         00                                    |   .            |                    x: 0 0x2a3-0x2a3.7 (1)
     |                                               |                |                  [7]{}: in 0x2a4-0x2a5.7 (2)
0x2a0|            23                                 |    #           |                    global.get: 0x23 (valid) 0x2a4-0x2a4.7 (1)
0x2a0|               00                              |     .          |                    x: 0 0x2a5-0x2a5.7 (1)
     |                                               |                |                  [8]{}: in 0x2a6-0x2a9.7 (4)
0x2a0|                  fd                           |      .         |                    prefix: 0xfd (valid) 0x2a6-0x2a6.7 (1)
0x2a0|                     0b                        |       .        |                    v128.store: 11 (valid) 0x2a7-0x2a7.7 (1)
     |                                               |                |                    m{}: 0x2a8-0x2a9.7 (2)
0x2a0|                        04                     |        .       |                      a: 4 0x2a8-0x2a8.7 (1)
0x2a0|                           00                  |         .      |                      o: 0 0x2a9-0x2a9.7 (1)
     |                                               |                |                  [9]{}: in 0x2aa-0x2ab.7 (2)
0x2a0|                              20               |                |                    local.get: 0x20 (valid) 0x2aa-0x2aa.7 (1)
0x2a0|                                 02            |           .    |                    x: 2 0x2ab-0x2ab.7 (1)
     |                                               |                |                  [10]{}: in 0x2ac-0x2ac.7 (1)
0x2a0|                                    0b         |            .   |                    end: 0xb (valid) 0x2ac-0x2ac.7 (1)
     |                                               |                |            [1]{}: code 0x2ad-0x2cb.7 (31)
0x2a0|                                       1e      |             .  |              size: 30 0x2ad-0x2ad.7 (1)
     |                                               |                |              code{}: 0x2ae-0x2cb.7 (30)
     |                                               |                |                t{}: 0x2ae-0x2b0.7 (3)
0x2a0|                                          01   |              . |                  n: 1 0x2ae-0x2ae.7 (1)
     |                                               |                |                  x[0:1]: 0x2af-0x2b0.7 (2)
     |                                               |                |                    [0]{}: t 0x2af-0x2b0.7 (2)
0x2a0|                                             01|               .|                      n: 1 0x2af-0x2af.7 (1)
0x2b0|7e                                             |~               |                      t: "i64" (0x7e) 0x2b0-0x2b0.7 (1)
     |                                               |                |                e[0:11]: 0x2b1-0x2cb.7 (27)
     |                                               |                |                  [0]{}: in 0x2b1-0x2b2.7 (2)
0x2b0|   20                                          |                |                    local.get: 0x20 (valid) 0x2b1-0x2b1.7 (1)
0x2b0|      00                                       |  .             |                    x: 0 0x2b2-0x2b2.7 (1)
     |                                               |                |                  [1]{}: in 0x2b3-0x2b4.7 (2)
0x2b0|         20                                    |                |                    local.get: 0x20 (valid) 0x2b3-0x2b3.7 (1)
0x2b0|            01                                 |    .           |                    x: 1 0x2b4-0x2b4.7 (1)
     |                                               |                |                  [2]{}: in 0x2b5-0x2b9.7 (5)
0x2b0|               fd                              |     .          |                    prefix: 0xfd (valid) 0x2b5-0x2b5.7 (1)
0x2b0|                  5a                           |      Z         |                    v128.store32_lane: 90 (valid) 0x2b6-0x2b6.7 (1)
     |                                               |                |                    m{}: 0x2b7-0x2b8.7 (2)
0x2b0|                     02                        |       .        |                      a: 2 0x2b7-0x2b7.7 (1)
0x2b0|                        00                     |        .       |                      o: 0 0x2b8-0x2b8.7 (1)
0x2b0|                           01                  |         .      |                    l: 1 0x2b9-0x2b9.7 (1)
     |                                               |                |                  [3]{}: in 0x2ba-0x2bb.7 (2)
0x2b0|                              20               |                |                    local.get: 0x20 (valid) 0x2ba-0x2ba.7 (1)
0x2b0|                                 00            |           .    |                    x: 0 0x2bb-0x2bb.7 (1)
     |                                               |                |                  [4]{}: in 0x2bc-0x2be.7 (3)
0x2b0|                                    29         |            )   |                    i64.load: 0x29 (valid) 0x2bc-0x2bc.7 (1)
     |                                               |                |                    m{}: 0x2bd-0x2be.7 (2)
0x2b0|                                       03      |             .  |                      a: 3 0x2bd-0x2bd.7 (1)
0x2b0|                                          00   |              . |                      o: 0 0x2be-0x2be.7 (1)
     |                                               |                |                  [5]{}: in 0x2bf-0x2c0.7 (2)
0x2b0|                                             21|               !|                    local.set: 0x21 (valid) 0x2bf-0x2bf.7 (1)
0x2c0|02                                             |.               |                    x: 2 0x2c0-0x2c0.7 (1)
     |                                               |                |                  [6]{}: in 0x2c1-0x2c2.7 (2)
0x2c0|   20                                          |                |                    local.get: 0x20 (valid) 0x2c1-0x2c1.7 (1)
0x2c0|      00                                       |  .             |                    x: 0 0x2c2-0x2c2.7 (1)
     |                                               |                |                  [7]{}: in 0x2c3-0x2c4.7 (2)
0x2c0|         23                                    |   #            |                    global.get: 0x23 (valid) 0x2c3-0x2c3.7 (1)
0x2c0|            00                                 |    .           |                    x: 0 0x2c4-0x2c4.7 (1)
     |                                               |                |                  [8]{}: in 0x2c5-0x2c8.7 (4)
0x2c0|               fd                              |     .          |                    prefix: 0xfd (valid) 0x2c5-0x2c5.7 (1)
0x2c0|                  0b                           |      .         |                    v128.store: 11 (valid) 0x2c6-0x2c6.7 (1)
     |                                               |                |                    m{}: 0x2c7-0x2c8.7 (2)
0x2c0|                     04                        |       .        |                      a: 4 0x2c7-0x2c7.7 (1)
0x2c0|                        00                     |        .       |                      o: 0 0x2c8-0x2c8.7 (1)
     |                                               |                |                  [9]{}: in 0x2c9-0x2ca.7 (2)
0x2c0|                           20                  |                |                    local.get: 0x20 (valid) 0x2c9-0x2c9.7 (1)
0x2c0|                              02               |          .     |                    x: 2 0x2ca-0x2ca.7 (1)
     |                                               |                |                  [10]{}: in 0x2cb-0x2cb.7 (1)
0x2c0|                                 0b            |           .    |                    end: 0xb (valid) 0x2cb-0x2cb.7 (1)
     |                                               |                |            [2]{}: code 0x2cc-0x2ea.7 (31)
0x2c0|                                    1e         |            .   |              size: 30 0x2cc-0x2cc.7 (1)
     |                                               |                |              code{}: 0x2cd-0x2ea.7 (30)
     |                                               |                |                t{}: 0x2cd-0x2cf.7 (3)
0x2c0|                                       01      |             .  |                  n: 1 0x2cd-0x2cd.7 (1)
     |                                               |                |                  x[0:1]: 0x2ce-0x2cf.7 (2)
     |                                               |                |                    [0]{}: t 0x2ce-0x2cf.7 (2)
0x2c0|                                          01   |              . |                      n: 1 0x2ce-0x2ce.7 (1)
0x2c0|                                             7e|               ~|                      t: "i64" (0x7e) 0x2cf-0x2cf.7 (1)
     |                                               |                |                e[0:11]: 0x2d0-0x2ea.7 (27)
     |                                               |                |                  [0]{}: in 0x2d0-0x2d1.7 (2)
0x2d0|20                                             |                |                    local.get: 0x20 (valid) 0x2d0-0x2d0.7 (1)
0x2d0|   00                                          | .              |                    x: 0 0x2d1-0x2d1.7 (1)
     |                                               |                |                  [1]{}: in 0x2d2-0x2d3.7 (2)
0x2d0|      20                                       |                |                    local.get: 0x20 (valid) 0x2d2-0x2d2.7 (1)
0x2d0|         01                                    |   .            |                    x: 1 0x2d3-0x2d3.7 (1)
     |                                               |                |                  [2]{}: in 0x2d4-0x2d8.7 (5)
0x2d0|            fd                                 |    .           |                    prefix: 0xfd (valid) 0x2d4-0x2d4.7 (1)
0x2d0|               5a                              |     Z          |                    v128.store32_lane: 90 (valid) 0x2d5-0x2d5.7 (1)
     |                                               |                |                    m{}: 0x2d6-0x2d7.7 (2)
0x2d0|                  02                           |      .         |                      a: 2 0x2d6-0x2d6.7 (1)
0x2d0|                     00                        |       .        |                      o: 0 0x2d7-0x2d7.7 (1)
0x2d0|                        02                     |        .       |                    l: 2 0x2d8-0x2d8.7 (1)
     |                                               |                |                  [3]{}: in 0x2d9-0x2da.7 (2)
0x2d0|                           20                  |                |                    local.get: 0x20 (valid) 0x2d9-0x2d9.7 (1)
0x2d0|                              00               |          .     |                    x: 0 0x2da-0x2da.7 (1)
     |                                               |                |                  [4]{}: in 0x2db-0x2dd.7 (3)
0x2d0|                                 29            |           )    |                    i64.load: 0x29 (valid) 0x2db-0x2db.7 (1)
     |                                               |                |                    m{}: 0x2dc-0x2dd.7 (2)
0x2d0|                                    03         |            .   |                      a: 3 0x2dc-0x2dc.7 (1)
0x2d0|                                       00      |             .  |                      o: 0 0x2dd-0x2dd.7 (1)
     |                                               |                |                  [5]{}: in 0x2de-0x2df.7 (2)
0x2d0|                                          21   |              ! |                    local.set: 0x21 (valid) 0x2de-0x2de.7 (1)
0x2d0|                                             02|               .|                    x: 2 0x2df-0x2df.7 (1)
     |                                               |                |                  [6]{}: in 0x2e0-0x2e1.7 (2)
0x2e0|20                                             |                |                    local.get: 0x20 (valid) 0x2e0-0x2e0.7 (1)
0x2e0|   00                                          | .              |                    x: 0 0x2e1-0x2e1.7 (1)
     |                                               |                |                  [7]{}: in 0x2e2-0x2e3.7 (2)
0x2e0|      23                                       |  #             |                    global.get: 0x23 (valid) 0x2e2-0x2e2.7 (1)
0x2e0|         00                                    |   .            |                    x: 0 0x2e3-0x2e3.7 (1)
     |                                               |                |                  [8]{}: in 0x2e4-0x2e7.7 (4)
0x2e0|            fd                                 |    .           |                    prefix: 0xfd (valid) 0x2e4-0x2e4.7 (1)
0x2e0|               0b                              |     .          |                    v128.store: 11 (valid) 0x2e5-0x2e5.7 (1)
     |                                               |                |                    m{}: 0x2e6-0x2e7.7 (2)
0x2e0|                  04                           |      .         |                      a: 4 0x2e6-0x2e6.7 (1)
0x2e0|                     00                        |       .        |                      o: 0 0x2e7-0x2e7.7 (1)
     |                                               |                |                  [9]{}: in 0x2e8-0x2e9.7 (2)
0x2e0|                        20                     |                |                    local.get: 0x20 (valid) 0x2e8-0x2e8.7 (1)
0x2e0|                           02                  |         .      |                    x: 2 0x2e9-0x2e9.7 (1)
     |                                               |                |                  [10]{}: in 0x2ea-0x2ea.7 (1)
0x2e0|                              0b               |          .     |                    end: 0xb (valid) 0x2ea-0x2ea.7 (1)
     |                                               |                |            [3]{}: code 0x2eb-0x309.7 (31)
0x2e0|                                 1e            |           .    |              size: 30 0x2eb-0x2eb.7 (1)
     |                                               |                |              code{}: 0x2ec-0x309.7 (30)
     |                                               |                |                t{}: 0x2ec-0x2ee.7 (3)
0x2e0|                                    01         |            .   |                  n: 1 0x2ec-0x2ec.7 (1)
     |                                               |                |                  x[0:1]: 0x2ed-0x2ee.7 (2)
     |                                               |                |                    [0]{}: t 0x2ed-0x2ee.7 (2)
0x2e0|                                       01      |             .  |                      n: 1 0x2ed-0x2ed.7 (1)
0x2e0|                                          7e   |              ~ |                      t: "i64" (0x7e) 0x2ee-0x2ee.7 (1)
     |                                               |                |                e[0:11]: 0x2ef-0x309.7 (27)
     |                                               |                |                  [0]{}: in 0x2ef-0x2f0.7 (2)
0x2e0|                                             20|                |                    local.get: 0x20 (valid) 0x2ef-0x2ef.7 (1)
0x2f0|00                                             |.               |                    x: 0 0x2f0-0x2f0.7 (1)
     |                                               |                |                  [1]{}: in 0x2f1-0x2f2.7 (2)
0x2f0|   20                                          |                |                    local.get: 0x20 (valid) 0x2f1-0x2f1.7 (1)
0x2f0|      01                                       |  .             |                    x: 1 0x2f2-0x2f2.7 (1)
     |                                               |                |                  [2]{}: in 0x2f3-0x2f7.7 (5)
0x2f0|         fd                                    |   .            |                    prefix: 0xfd (valid) 0x2f3-0x2f3.7 (1)
0x2f0|            5a                                 |    Z           |                    v128.store32_lane: 90 (valid) 0x2f4-0x2f4.7 (1)
     |                                               |                |                    m{}: 0x2f5-0x2f6.7 (2)
0x2f0|               02                              |     .          |                      a: 2 0x2f5-0x2f5.7 (1)
0x2f0|                  00                           |      .         |                      o: 0 0x2f6-0x2f6.7 (1)
0x2f0|                     03                        |       .        |                    l: 3 0x2f7-0x2f7.7 (1)
     |                                               |                |                  [3]{}: in 0x2f8-0x2f9.7 (2)
0x2f0|                        20                     |                |                    local.get: 0x20 (valid) 0x2f8-0x2f8.7 (1)
0x2f0|                           00                  |         .      |                    x: 0 0x2f9-0x2f9.7 (1)
     |                                               |                |                  [4]{}: in 0x2fa-0x2fc.7 (3)
0x2f0|                              29               |          )     |                    i64.load: 0x29 (valid) 0x2fa-0x2fa.7 (1)
     |                                               |                |                    m{}: 0x2fb-0x2fc.7 (2)
0x2f0|                                 03            |           .    |                      a: 3 0x2fb-0x2fb.7 (1)
0x2f0|                                    00         |            .   |                      o: 0 0x2fc-0x2fc.7 (1)
     |                                               |                |                  [5]{}: in 0x2fd-0x2fe.7 (2)
0x2f0|                                       21      |             !  |                    local.set: 0x21 (valid) 0x2fd-0x2fd.7 (1)
0x2f0|                                          02   |              . |                    x: 2 0x2fe-0x2fe.7 (1)
     |                                               |                |                  [6]{}: in 0x2ff-0x300.7 (2)
0x2f0|                                             20|                |                    local.get: 0x20 (valid) 0x2ff-0x2ff.7 (1)
0x300|00                                             |.               |                    x: 0 0x300-0x300.7 (1)
     |                                               |                |                  [7]{}: in 0x301-0x302.7 (2)
0x300|   23                                          | #              |                    global.get: 0x23 (valid) 0x301-0x301.7 (1)
0x300|      00                                       |  .             |                    x: 0 0x302-0x302.7 (1)
     |                                               |                |                  [8]{}: in 0x303-0x306.7 (4)
0x300|         fd                                    |   .            |                    prefix: 0xfd (valid) 0x303-0x303.7 (1)
0x300|            0b                                 |    .           |                    v128.store: 11 (valid) 0x304-0x304.7 (1)
     |                                               |                |                    m{}: 0x305-0x306.7 (2)
0x300|               04                              |     .          |                      a: 4 0x305-0x305.7 (1)
0x300|                  00                           |      .         |                      o: 0 0x306-0x306.7 (1)
     |                                               |                |                  [9]{}: in 0x307-0x308.7 (2)
0x300|                     20                        |                |                    local.get: 0x20 (valid) 0x307-0x307.7 (1)
0x300|                        02                     |        .       |                    x: 2 0x308-0x308.7 (1)
     |                                               |                |                  [10]{}: in 0x309-0x309.7 (1)
0x300|                           0b                  |         .      |                    end: 0xb (valid) 0x309-0x309.7 (1)
     |                                               |                |            [4]{}: code 0x30a-0x328.7 (31)
0x300|                              1e               |          .     |              size: 30 0x30a-0x30a.7 (1)
     |                                               |                |              code{}: 0x30b-0x328.7 (30)
     |                                               |                |                t{}: 0x30b-0x30d.7 (3)
0x300|                                 01            |           .    |                  n: 1 0x30b-0x30b.7 (1)
     |                                               |                |                  x[0:1]: 0x30c-0x30d.7 (2)
     |                                               |                |                    [0]{}: t 0x30c-0x30d.7 (2)
0x300|                                    01         |            .   |                      n: 1 0x30c-0x30c.7 (1)
0x300|                                       7e      |             ~  |                      t: "i64" (0x7e) 0x30d-0x30d.7 (1)
     |                                               |                |                e[0:11]: 0x30e-0x328.7 (27)
     |                                               |                |                  [0]{}: in 0x30e-0x30f.7 (2)
0x300|                                          41   |              A |                    i32.const: 0x41 (valid) 0x30e-0x30e.7 (1)
0x300|                                             00|               .|                    n: 0 0x30f-0x30f.7 (1)
     |                                               |                |                  [1]{}: in 0x310-0x311.7 (2)
0x310|20                                             |                |                    local.get: 0x20 (valid) 0x310-0x310.7 (1)
0x310|   00                                          | .              |                    x: 0 0x311-0x311.7 (1)
     |                                               |                |                  [2]{}: in 0x312-0x316.7 (5)
0x310|      fd                                       |  .             |                    prefix: 0xfd (valid) 0x312-0x312.7 (1)
0x310|         5a                                    |   Z            |                    v128.store32_lane: 90 (valid) 0x313-0x313.7 (1)
     |                                               |                |                    m{}: 0x314-0x315.7 (2)
0x310|            02                                 |    .           |                      a: 2 0x314-0x314.7 (1)
0x310|               00                              |     .          |                      o: 0 0x315-0x315.7 (1)
0x310|                  00                           |      .         |                    l: 0 0x316-0x316.7 (1)
     |                                               |                |                  [3]{}: in 0x317-0x318.7 (2)
0x310|                     41                        |       A        |                    i32.const: 0x41 (valid) 0x317-0x317.7 (1)
0x310|                        00                     |        .       |                    n: 0 0x318-0x318.7 (1)
     |                                               |                |                  [4]{}: in 0x319-0x31b.7 (3)
0x310|                           29                  |         )      |                    i64.load: 0x29 (valid) 0x319-0x319.7 (1)
     |                                               |                |                    m{}: 0x31a-0x31b.7 (2)
0x310|                              03               |          .     |                      a: 3 0x31a-0x31a.7 (1)
0x310|                                 00            |           .    |                      o: 0 0x31b-0x31b.7 (1)
     |                                               |                |                  [5]{}: in 0x31c-0x31d.7 (2)
0x310|                                    21         |            !   |                    local.set: 0x21 (valid) 0x31c-0x31c.7 (1)
0x310|                                       01      |             .  |                    x: 1 0x31d-0x31d.7 (1)
     |                                               |                |                  [6]{}: in 0x31e-0x31f.7 (2)
0x310|                                          41   |              A |                    i32.const: 0x41 (valid) 0x31e-0x31e.7 (1)
0x310|                                             00|               .|                    n: 0 0x31f-0x31f.7 (1)
     |                                               |                |                  [7]{}: in 0x320-0x321.7 (2)
0x320|23                                             |#               |                    global.get: 0x23 (valid) 0x320-0x320.7 (1)
0x320|   00                                          | .              |                    x: 0 0x321-0x321.7 (1)
     |                                               |                |                  [8]{}: in 0x322-0x325.7 (4)
0x320|      fd                                       |  .             |                    prefix: 0xfd (valid) 0x322-0x322.7 (1)
0x320|         0b                                    |   .            |                    v128.store: 11 (valid) 0x323-0x323.7 (1)
     |                                               |                |                    m{}: 0x324-0x325.7 (2)
0x320|            04                                 |    .           |                      a: 4 0x324-0x324.7 (1)
0x320|               00                              |     .          |                      o: 0 0x325-0x325.7 (1)
     |                                               |                |                  [9]{}: in 0x326-0x327.7 (2)
0x320|                  20                           |                |                    local.get: 0x20 (valid) 0x326-0x326.7 (1)
0x320|                     01                        |       .        |                    x: 1 0x327-0x327.7 (1)
     |                                               |                |                  [10]{}: in 0x328-0x328.7 (1)
0x320|                        0b                     |        .       |                    end: 0xb (valid) 0x328-0x328.7 (1)
     |                                               |                |            [5]{}: code 0x329-0x347.7 (31)
0x320|                           1e                  |         .      |              size: 30 0x329-0x329.7 (1)
     |                                               |                |              code{}: 0x32a-0x347.7 (30)
     |                                               |                |                t{}: 0x32a-0x32c.7 (3)
0x320|                              01               |          .     |                  n: 1 0x32a-0x32a.7 (1)
     |                                               |                |                  x[0:1]: 0x32b-0x32c.7 (2)
     |                                               |                |                    [0]{}: t 0x32b-0x32c.7 (2)
0x320|                                 01            |           .    |                      n: 1 0x32b-0x32b.7 (1)
0x320|                                    7e         |            ~   |                      t: "i64" (0x7e) 0x32c-0x32c.7 (1)
     |                                               |                |                e[0:11]: 0x32d-0x347.7 (27)
     |                                               |                |                  [0]{}: in 0x32d-0x32e.7 (2)
0x320|                                       41      |             A  |                    i32.const: 0x41 (valid) 0x32d-0x32d.7 (1)
0x320|                                          00   |              . |                    n: 0 0x32e-0x32e.7 (1)
     |                                               |                |                  [1]{}: in 0x32f-0x330.7 (2)
0x320|                                             20|                |                    local.get: 0x20 (valid) 0x32f-0x32f.7 (1)
0x330|00                                             |.               |                    x: 0 0x330-0x330.7 (1)
     |                                               |                |                  [2]{}: in 0x331-0x335.7 (5)
0x330|   fd                                          | .              |                    prefix: 0xfd (valid) 0x331-0x331.7 (1)
0x330|      5a                                       |  Z             |                    v128.store32_lane: 90 (valid) 0x332-0x332.7 (1)
     |                                               |                |                    m{}: 0x333-0x334.7 (2)
0x330|         02                                    |   .            |                      a: 2 0x333-0x333.7 (1)
0x330|            01                                 |    .           |                      o: 1 0x334-0x334.7 (1)
0x330|               01                              |     .          |                    l: 1 0x335-0x335.7 (1)
     |                                               |                |                  [3]{}: in 0x336-0x337.7 (2)
0x330|                  41                           |      A         |                    i32.const: 0x41 (valid) 0x336-0x336.7 (1)
0x330|                     00                        |       .        |                    n: 0 0x337-0x337.7 (1)
     |                                               |                |                  [4]{}: in 0x338-0x33a.7 (3)
0x330|                        29                     |        )       |                    i64.load: 0x29 (valid) 0x338-0x338.7 (1)
     |                                               |                |                    m{}: 0x339-0x33a.7 (2)
0x330|                           03                  |         .      |                      a: 3 0x339-0x339.7 (1)
0x330|                              01               |          .     |                      o: 1 0x33a-0x33a.7 (1)
     |                                               |                |                  [5]{}: in 0x33b-0x33c.7 (2)
0x330|                                 21            |           !    |                    local.set: 0x21 (valid) 0x33b-0x33b.7 (1)
0x330|                                    01         |            .   |                    x: 1 0x33c-0x33c.7 (1)
     |                                               |                |                  [6]{}: in 0x33d-0x33e.7 (2)
0x330|                                       41      |             A  |                    i32.const: 0x41 (valid) 0x33d-0x33d.7 (1)
0x330|                                          00   |              . |                    n: 0 0x33e-0x33e.7 (1)
     |                                               |                |                  [7]{}: in 0x33f-0x340.7 (2)
0x330|                                             23|               #|                    global.get: 0x23 (valid) 0x33f-0x33f.7 (1)
0x340|00                                             |.               |                    x: 0 0x340-0x340.7 (1)
     |                                               |                |                  [8]{}: in 0x341-0x344.7 (4)
0x340|   fd                                          | .              |                    prefix: 0xfd (valid) 0x341-0x341.7 (1)
0x340|      0b                                       |  .             |                    v128.store: 11 (valid) 0x342-0x342.7 (1)
     |                                               |                |                    m{}: 0x343-0x344.7 (2)
0x340|         04                                    |   .            |                      a: 4 0x343-0x343.7 (1)
0x340|            01                                 |    .           |                      o: 1 0x344-0x344.7 (1)
     |                                               |                |                  [9]{}: in 0x345-0x346.7 (2)
0x340|               20                              |                |                    local.get: 0x20 (valid) 0x345-0x345.7 (1)
0x340|                  01                           |      .         |                    x: 1 0x346-0x346.7 (1)
     |                                               |                |                  [10]{}: in 0x347-0x347.7 (1)
0x340|                     0b                        |       .        |                    end: 0xb (valid) 0x347-0x347.7 (1)
     |                                               |                |            [6]{}: code 0x348-0x366.7 (31)
0x340|                        1e                     |        .       |              size: 30 0x348-0x348.7 (1)
     |                                               |                |              code{}: 0x349-0x366.7 (30)
     |                                               |                |                t{}: 0x349-0x34b.7 (3)
0x340|                           01                  |         .      |                  n: 1 0x349-0x349.7 (1)
     |                                               |                |                  x[0:1]: 0x34a-0x34b.7 (2)
     |                                               |                |                    [0]{}: t 0x34a-0x34b.7 (2)
0x340|                              01               |          .     |                      n: 1 0x34a-0x34a.7 (1)
0x340|                                 7e            |           ~    |                      t: "i64" (0x7e) 0x34b-0x34b.7 (1)
     |                                               |                |                e[0:11]: 0x34c-0x366.7 (27)
     |                                               |                |                  [0]{}: in 0x34c-0x34d.7 (2)
0x340|                                    41         |            A   |                    i32.const: 0x41 (valid) 0x34c-0x34c.7 (1)
0x340|                                       00      |             .  |                    n: 0 0x34d-0x34d.7 (1)
     |                                               |                |                  [1]{}: in 0x34e-0x34f.7 (2)
0x340|                                          20   |                |                    local.get: 0x20 (valid) 0x34e-0x34e.7 (1)
0x340|                                             00|               .|                    x: 0 0x34f-0x34f.7 (1)
     |                                               |                |                  [2]{}: in 0x350-0x354.7 (5)
0x350|fd                                             |.               |                    prefix: 0xfd (valid) 0x350-0x350.7 (1)
0x350|   5a                                          | Z              |                    v128.store32_lane: 90 (valid) 0x351-0x351.7 (1)
     |                                               |                |                    m{}: 0x352-0x353.7 (2)
0x350|      02                                       |  .             |                      a: 2 0x352-0x352.7 (1)
0x350|         02                                    |   .            |                      o: 2 0x353-0x353.7 (1)
0x350|            02                                 |    .           |                    l: 2 0x354-0x354.7 (1)
     |                                               |                |                  [3]{}: in 0x355-0x356.7 (2)
0x350|               41                              |     A          |                    i32.const: 0x41 (valid) 0x355-0x355.7 (1)
0x350|                  00                           |      .         |                    n: 0 0x356-0x356.7 (1)
     |                                               |                |                  [4]{}: in 0x357-0x359.7 (3)
0x350|                     29                        |       )        |                    i64.load: 0x29 (valid) 0x357-0x357.7 (1)
     |                                               |                |                    m{}: 0x358-0x359.7 (2)
0x350|                        03                     |        .       |                      a: 3 0x358-0x358.7 (1)
0x350|                           02                  |         .      |                      o: 2 0x359-0x359.7 (1)
     |                                               |                |                  [5]{}: in 0x35a-0x35b.7 (2)
0x350|                              21               |          !     |                    local.set: 0x21 (valid) 0x35a-0x35a.7 (1)
0x350|                                 01            |           .    |                    x: 1 0x35b-0x35b.7 (1)
     |                                               |                |                  [6]{}: in 0x35c-0x35d.7 (2)
0x350|                                    41         |            A   |                    i32.const: 0x41 (valid) 0x35c-0x35c.7 (1)
0x350|                                       00      |             .  |                    n: 0 0x35d-0x35d.7 (1)
     |                                               |                |                  [7]{}: in 0x35e-0x35f.7 (2)
0x350|                                          23   |              # |                    global.get: 0x23 (valid) 0x35e-0x35e.7 (1)
0x350|                                             00|               .|                    x: 0 0x35f-0x35f.7 (1)
     |                                               |                |                  [8]{}: in 0x360-0x363.7 (4)
0x360|fd                                             |.               |                    prefix: 0xfd (valid) 0x360-0x360.7 (1)
0x360|   0b                                          | .              |                    v128.store: 11 (valid) 0x361-0x361.7 (1)
     |                                               |                |                    m{}: 0x362-0x363.7 (2)
0x360|      04                                       |  .             |                      a: 4 0x362-0x362.7 (1)
0x360|         02                                    |   .            |                      o: 2 0x363-0x363.7 (1)
     |                                               |                |                  [9]{}: in 0x364-0x365.7 (2)
0x360|            20                                 |                |                    local.get: 0x20 (valid) 0x364-0x364.7 (1)
0x360|               01                              |     .          |                    x: 1 0x365-0x365.7 (1)
     |                                               |                |                  [10]{}: in 0x366-0x366.7 (1)
0x360|                  0b                           |      .         |                    end: 0xb (valid) 0x366-0x366.7 (1)
     |                                               |                |            [7]{}: code 0x367-0x385.7 (31)
0x360|                     1e                        |       .        |              size: 30 0x367-0x367.7 (1)
     |                                               |                |              code{}: 0x368-0x385.7 (30)
     |                                               |                |                t{}: 0x368-0x36a.7 (3)
0x360|                        01                     |        .       |                  n: 1 0x368-0x368.7 (1)
     |                                               |                |                  x[0:1]: 0x369-0x36a.7 (2)
     |                                               |                |                    [0]{}: t 0x369-0x36a.7 (2)
0x360|                           01                  |         .      |                      n: 1 0x369-0x369.7 (1)
0x360|                              7e               |          ~     |                      t: "i64" (0x7e) 0x36a-0x36a.7 (1)
     |                                               |                |                e[0:11]: 0x36b-0x385.7 (27)
     |                                               |                |                  [0]{}: in 0x36b-0x36c.7 (2)
0x360|                                 41            |           A    |                    i32.const: 0x41 (valid) 0x36b-0x36b.7 (1)
0x360|                                    00         |            .   |                    n: 0 0x36c-0x36c.7 (1)
     |                                               |                |                  [1]{}: in 0x36d-0x36e.7 (2)
0x360|                                       20      |                |                    local.get: 0x20 (valid) 0x36d-0x36d.7 (1)
0x360|                                          00   |              . |                    x: 0 0x36e-0x36e.7 (1)
     |                                               |                |                  [2]{}: in 0x36f-0x373.7 (5)
0x360|                                             fd|               .|                    prefix: 0xfd (valid) 0x36f-0x36f.7 (1)
0x370|5a                                             |Z               |                    v128.store32_lane: 90 (valid) 0x370-0x370.7 (1)
     |                                               |                |                    m{}: 0x371-0x372.7 (2)
0x370|   02                                          | .              |                      a: 2 0x371-0x371.7 (1)
0x370|      03                                       |  .             |                      o: 3 0x372-0x372.7 (1)
0x370|         03                                    |   .            |                    l: 3 0x373-0x373.7 (1)
     |                                               |                |                  [3]{}: in 0x374-0x375.7 (2)
0x370|            41                                 |    A           |                    i32.const: 0x41 (valid) 0x374-0x374.7 (1)
0x370|               00                              |     .          |                    n: 0 0x375-0x375.7 (1)
     |                                               |                |                  [4]{}: in 0x376-0x378.7 (3)
0x370|                  29                           |      )         |                    i64.load: 0x29 (valid) 0x376-0x376.7 (1)
     |                                               |                |                    m{}: 0x377-0x378.7 (2)
0x370|                     03                        |       .        |                      a: 3 0x377-0x377.7 (1)
0x370|                        03                     |        .       |                      o: 3 0x378-0x378.7 (1)
     |                                               |                |                  [5]{}: in 0x379-0x37a.7 (2)
0x370|                           21                  |         !      |                    local.set: 0x21 (valid) 0x379-0x379.7 (1)
0x370|                              01               |          .     |                    x: 1 0x37a-0x37a.7 (1)
     |                                               |                |                  [6]{}: in 0x37b-0x37c.7 (2)
0x370|                                 41            |           A    |                    i32.const: 0x41 (valid) 0x37b-0x37b.7 (1)
0x370|                                    00         |            .   |                    n: 0 0x37c-0x37c.7 (1)
     |                                               |                |                  [7]{}: in 0x37d-0x37e.7 (2)
0x370|                                       23      |             #  |                    global.get: 0x23 (valid) 0x37d-0x37d.7 (1)
0x370|                                          00   |              . |                    x: 0 0x37e-0x37e.7 (1)
     |                                               |                |                  [8]{}: in 0x37f-0x382.7 (4)
0x370|                                             fd|               .|                    prefix: 0xfd (valid) 0x37f-0x37f.7 (1)
0x380|0b                                             |.               |                    v128.store: 11 (valid) 0x380-0x380.7 (1)
     |                                               |                |                    m{}: 0x381-0x382.7 (2)
0x380|   04                                          | .              |                      a: 4 0x381-0x381.7 (1)
0x380|      03                                       |  .             |                      o: 3 0x382-0x382.7 (1)
     |                                               |                |                  [9]{}: in 0x383-0x384.7 (2)
0x380|         20                                    |                |                    local.get: 0x20 (valid) 0x383-0x383.7 (1)
0x380|            01                                 |    .           |                    x: 1 0x384-0x384.7 (1)
     |                                               |                |                  [10]{}: in 0x385-0x385.7 (1)
0x380|               0b                              |     .          |                    end: 0xb (valid) 0x385-0x385.7 (1)
     |                                               |                |            [8]{}: code 0x386-0x3a4.7 (31)
0x380|                  1e                           |      .         |              size: 30 0x386-0x386.7 (1)
     |                                               |                |              code{}: 0x387-0x3a4.7 (30)
     |                                               |                |                t{}: 0x387-0x389.7 (3)
0x380|                     01                        |       .        |                  n: 1 0x387-0x387.7 (1)
     |                                               |                |                  x[0:1]: 0x388-0x389.7 (2)
     |                                               |                |                    [0]{}: t 0x388-0x389.7 (2)
0x380|                        01                     |        .       |                      n: 1 0x388-0x388.7 (1)
0x380|                           7e                  |         ~      |                      t: "i64" (0x7e) 0x389-0x389.7 (1)
     |                                               |                |                e[0:11]: 0x38a-0x3a4.7 (27)
     |                                               |                |                  [0]{}: in 0x38a-0x38b.7 (2)
0x380|                              20               |                |                    local.get: 0x20 (valid) 0x38a-0x38a.7 (1)
0x380|                                 00            |           .    |                    x: 0 0x38b-0x38b.7 (1)
     |                                               |                |                  [1]{}: in 0x38c-0x38d.7 (2)
0x380|                                    20         |                |                    local.get: 0x20 (valid) 0x38c-0x38c.7 (1)
0x380|                                       01      |             .  |                    x: 1 0x38d-0x38d.7 (1)
     |                                               |                |                  [2]{}: in 0x38e-0x392.7 (5)
0x380|                                          fd   |              . |                    prefix: 0xfd (valid) 0x38e-0x38e.7 (1)
0x380|                                             5a|               Z|                    v128.store32_lane: 90 (valid) 0x38f-0x38f.7 (1)
     |                                               |                |                    m{}: 0x390-0x391.7 (2)
0x390|00                                             |.               |                      a: 0 0x390-0x390.7 (1)
0x390|   00                                          | .              |                      o: 0 0x391-0x391.7 (1)
0x390|      00                                       |  .             |                    l: 0 0x392-0x392.7 (1)
     |                                               |                |                  [3]{}: in 0x393-0x394.7 (2)
0x390|         20                                    |                |                    local.get: 0x20 (valid) 0x393-0x393.7 (1)
0x390|            00                                 |    .           |                    x: 0 0x394-0x394.7 (1)
     |                                               |                |                  [4]{}: in 0x395-0x397.7 (3)
0x390|               29                              |     )          |                    i64.load: 0x29 (valid) 0x395-0x395.7 (1)
     |                                               |                |                    m{}: 0x396-0x397.7 (2)
0x390|                  03                           |      .         |                      a: 3 0x396-0x396.7 (1)
0x390|                     00                        |       .        |                      o: 0 0x397-0x397.7 (1)
     |                                               |                |                  [5]{}: in 0x398-0x399.7 (2)
0x390|                        21                     |        !       |                    local.set: 0x21 (valid) 0x398-0x398.7 (1)
0x390|                           02                  |         .      |                    x: 2 0x399-0x399.7 (1)
     |                                               |                |                  [6]{}: in 0x39a-0x39b.7 (2)
0x390|                              41               |          A     |                    i32.const: 0x41 (valid) 0x39a-0x39a.7 (1)
0x390|                                 00            |           .    |                    n: 0 0x39b-0x39b.7 (1)
     |                                               |                |                  [7]{}: in 0x39c-0x39d.7 (2)
0x390|                                    23         |            #   |                    global.get: 0x23 (valid) 0x39c-0x39c.7 (1)
0x390|                                       00      |             .  |                    x: 0 0x39d-0x39d.7 (1)
     |                                               |                |                  [8]{}: in 0x39e-0x3a1.7 (4)
0x390|                                          fd   |              . |                    prefix: 0xfd (valid) 0x39e-0x39e.7 (1)
0x390|                                             0b|               .|                    v128.store: 11 (valid) 0x39f-0x39f.7 (1)
     |                                               |                |                    m{}: 0x3a0-0x3a1.7 (2)
0x3a0|04                                             |.               |                      a: 4 0x3a0-0x3a0.7 (1)
0x3a0|   00                                          | .              |                      o: 0 0x3a1-0x3a1.7 (1)
     |                                               |                |                  [9]{}: in 0x3a2-0x3a3.7 (2)
0x3a0|      20                                       |                |                    local.get: 0x20 (valid) 0x3a2-0x3a2.7 (1)
0x3a0|         02                                    |   .            |                    x: 2 0x3a3-0x3a3.7 (1)
     |                                               |                |                  [10]{}: in 0x3a4-0x3a4.7 (1)
0x3a0|            0b                                 |    .           |                    end: 0xb (valid) 0x3a4-0x3a4.7 (1)
     |                                               |                |            [9]{}: code 0x3a5-0x3c3.7 (31)
0x3a0|               1e                              |     .          |              size: 30 0x3a5-0x3a5.7 (1)
     |                                               |                |              code{}: 0x3a6-0x3c3.7 (30)
     |                                               |                |                t{}: 0x3a6-0x3a8.7 (3)
0x3a0|                  01                           |      .         |                  n: 1 0x3a6-0x3a6.7 (1)
     |                                               |                |                  x[0:1]: 0x3a7-0x3a8.7 (2)
     |                                               |                |                    [0]{}: t 0x3a7-0x3a8.7 (2)
0x3a0|                     01                        |       .        |                      n: 1 0x3a7-0x3a7.7 (1)
0x3a0|                        7e                     |        ~       |                      t: "i64" (0x7e) 0x3a8-0x3a8.7 (1)
     |                                               |                |                e[0:11]: 0x3a9-0x3c3.7 (27)
     |                                               |                |                  [0]{}: in 0x3a9-0x3aa.7 (2)
0x3a0|                           20                  |                |                    local.get: 0x20 (valid) 0x3a9-0x3a9.7 (1)
0x3a0|                              00               |          .     |                    x: 0 0x3aa-0x3aa.7 (1)
     |                                               |                |                  [1]{}: in 0x3ab-0x3ac.7 (2)
0x3a0|                                 20            |                |                    local.get: 0x20 (valid) 0x3ab-0x3ab.7 (1)
0x3a0|                                    01         |            .   |                    x: 1 0x3ac-0x3ac.7 (1)
     |                                               |                |                  [2]{}: in 0x3ad-0x3b1.7 (5)
0x3a0|                                       fd      |             .  |                    prefix: 0xfd (valid) 0x3ad-0x3ad.7 (1)
0x3a0|                                          5a   |              Z |                    v128.store32_lane: 90 (valid) 0x3ae-0x3ae.7 (1)
     |                                               |                |                    m{}: 0x3af-0x3b0.7 (2)
0x3a0|                                             01|               .|                      a: 1 0x3af-0x3af.7 (1)
0x3b0|00                                             |.               |                      o: 0 0x3b0-0x3b0.7 (1)
0x3b0|   00                                          | .              |                    l: 0 0x3b1-0x3b1.7 (1)
     |                                               |                |                  [3]{}: in 0x3b2-0x3b3.7 (2)
0x3b0|      20                                       |                |                    local.get: 0x20 (valid) 0x3b2-0x3b2.7 (1)
0x3b0|         00                                    |   .            |                    x: 0 0x3b3-0x3b3.7 (1)
     |                                               |                |                  [4]{}: in 0x3b4-0x3b6.7 (3)
0x3b0|            29                                 |    )           |                    i64.load: 0x29 (valid) 0x3b4-0x3b4.7 (1)
     |                                               |                |                    m{}: 0x3b5-0x3b6.7 (2)
0x3b0|               03                              |     .          |                      a: 3 0x3b5-0x3b5.7 (1)
0x3b0|                  00                           |      .         |                      o: 0 0x3b6-0x3b6.7 (1)
     |                                               |                |                  [5]{}: in 0x3b7-0x3b8.7 (2)
0x3b0|                     21                        |       !        |                    local.set: 0x21 (valid) 0x3b7-0x3b7.7 (1)
0x3b0|                        02                     |        .       |                    x: 2 0x3b8-0x3b8.7 (1)
     |                                               |                |                  [6]{}: in 0x3b9-0x3ba.7 (2)
0x3b0|                           41                  |         A      |                    i32.const: 0x41 (valid) 0x3b9-0x3b9.7 (1)
0x3b0|                              00               |          .     |                    n: 0 0x3ba-0x3ba.7 (1)
     |                                               |                |                  [7]{}: in 0x3bb-0x3bc.7 (2)
0x3b0|                                 23            |           #    |                    global.get: 0x23 (valid) 0x3bb-0x3bb.7 (1)
0x3b0|                                    00         |            .   |                    x: 0 0x3bc-0x3bc.7 (1)
     |                                               |                |                  [8]{}: in 0x3bd-0x3c0.7 (4)
0x3b0|                                       fd      |             .  |                    prefix: 0xfd (valid) 0x3bd-0x3bd.7 (1)
0x3b0|                                          0b   |              . |                    v128.store: 11 (valid) 0x3be-0x3be.7 (1)
     |                                               |                |                    m{}: 0x3bf-0x3c0.7 (2)
0x3b0|                                             04|               .|                      a: 4 0x3bf-0x3bf.7 (1)
0x3c0|00                                             |.               |                      o: 0 0x3c0-0x3c0.7 (1)
     |                                               |                |                  [9]{}: in 0x3c1-0x3c2.7 (2)
0x3c0|   20                                          |                |                    local.get: 0x20 (valid) 0x3c1-0x3c1.7 (1)
0x3c0|      02                                       |  .             |                    x: 2 0x3c2-0x3c2.7 (1)
     |                                               |                |                  [10]{}: in 0x3c3-0x3c3.7 (1)
0x3c0|         0b                                    |   .            |                    end: 0xb (valid) 0x3c3-0x3c3.7 (1)
     |                                               |                |            [10]{}: code 0x3c4-0x3e2.7 (31)
0x3c0|            1e                                 |    .           |              size: 30 0x3c4-0x3c4.7 (1)
     |                                               |                |              code{}: 0x3c5-0x3e2.7 (30)
     |                                               |                |                t{}: 0x3c5-0x3c7.7 (3)
0x3c0|               01                              |     .          |                  n: 1 0x3c5-0x3c5.7 (1)
     |                                               |                |                  x[0:1]: 0x3c6-0x3c7.7 (2)
     |                                               |                |                    [0]{}: t 0x3c6-0x3c7.7 (2)
0x3c0|                  01                           |      .         |                      n: 1 0x3c6-0x3c6.7 (1)
0x3c0|                     7e                        |       ~        |                      t: "i64" (0x7e) 0x3c7-0x3c7.7 (1)
     |                                               |                |                e[0:11]: 0x3c8-0x3e2.7 (27)
     |                                               |                |                  [0]{}: in 0x3c8-0x3c9.7 (2)
0x3c0|                        20                     |                |                    local.get: 0x20 (valid) 0x3c8-0x3c8.7 (1)
0x3c0|                           00                  |         .      |                    x: 0 0x3c9-0x3c9.7 (1)
     |                                               |                |                  [1]{}: in 0x3ca-0x3cb.7 (2)
0x3c0|                              20               |                |                    local.get: 0x20 (valid) 0x3ca-0x3ca.7 (1)
0x3c0|                                 01            |           .    |                    x: 1 0x3cb-0x3cb.7 (1)
     |                                               |                |                  [2]{}: in 0x3cc-0x3d0.7 (5)
0x3c0|                                    fd         |            .   |                    prefix: 0xfd (valid) 0x3cc-0x3cc.7 (1)
0x3c0|                                       5a      |             Z  |                    v128.store32_lane: 90 (valid) 0x3cd-0x3cd.7 (1)
     |                                               |                |                    m{}: 0x3ce-0x3cf.7 (2)
0x3c0|                                          02   |              . |                      a: 2 0x3ce-0x3ce.7 (1)
0x3c0|                                             00|               .|                      o: 0 0x3cf-0x3cf.7 (1)
0x3d0|00                                             |.               |                    l: 0 0x3d0-0x3d0.7 (1)
     |                                               |                |                  [3]{}: in 0x3d1-0x3d2.7 (2)
0x3d0|   20                                          |                |                    local.get: 0x20 (valid) 0x3d1-0x3d1.7 (1)
0x3d0|      00                                       |  .             |                    x: 0 0x3d2-0x3d2.7 (1)
     |                                               |                |                  [4]{}: in 0x3d3-0x3d5.7 (3)
0x3d0|         29                                    |   )            |                    i64.load: 0x29 (valid) 0x3d3-0x3d3.7 (1)
     |                                               |                |                    m{}: 0x3d4-0x3d5.7 (2)
0x3d0|            03                                 |    .           |                      a: 3 0x3d4-0x3d4.7 (1)
0x3d0|               00                              |     .          |                      o: 0 0x3d5-0x3d5.7 (1)
     |                                               |                |                  [5]{}: in 0x3d6-0x3d7.7 (2)
0x3d0|                  21                           |      !         |                    local.set: 0x21 (valid) 0x3d6-0x3d6.7 (1)
0x3d0|                     02                        |       .        |                    x: 2 0x3d7-0x3d7.7 (1)
     |                                               |                |                  [6]{}: in 0x3d8-0x3d9.7 (2)
0x3d0|                        41                     |        A       |                    i32.const: 0x41 (valid) 0x3d8-0x3d8.7 (1)
0x3d0|                           00                  |         .      |                    n: 0 0x3d9-0x3d9.7 (1)
     |                                               |                |                  [7]{}: in 0x3da-0x3db.7 (2)
0x3d0|                              23               |          #     |                    global.get: 0x23 (valid) 0x3da-0x3da.7 (1)
0x3d0|                                 00            |           .    |                    x: 0 0x3db-0x3db.7 (1)
     |                                               |                |                  [8]{}: in 0x3dc-0x3df.7 (4)
0x3d0|                                    fd         |            .   |                    prefix: 0xfd (valid) 0x3dc-0x3dc.7 (1)
0x3d0|                                       0b      |             .  |                    v128.store: 11 (valid) 0x3dd-0x3dd.7 (1)
     |                                               |                |                    m{}: 0x3de-0x3df.7 (2)
0x3d0|                                          04   |              . |                      a: 4 0x3de-0x3de.7 (1)
0x3d0|                                             00|               .|                      o: 0 0x3df-0x3df.7 (1)
     |                                               |                |                  [9]{}: in 0x3e0-0x3e1.7 (2)
0x3e0|20                                             |                |                    local.get: 0x20 (valid) 0x3e0-0x3e0.7 (1)
0x3e0|   02                                          | .              |                    x: 2 0x3e1-0x3e1.7 (1)
     |                                               |                |                  [10]{}: in 0x3e2-0x3e2.7 (1)
0x3e0|      0b                                       |  .             |                    end: 0xb (valid) 0x3e2-0x3e2.7 (1)
     |                                               |                |            [11]{}: code 0x3e3-0x401.7 (31)
0x3e0|         1e                                    |   .            |              size: 30 0x3e3-0x3e3.7 (1)
     |                                               |                |              code{}: 0x3e4-0x401.7 (30)
     |                                               |                |                t{}: 0x3e4-0x3e6.7 (3)
0x3e0|            01                                 |    .           |                  n: 1 0x3e4-0x3e4.7 (1)
     |                                               |                |                  x[0:1]: 0x3e5-0x3e6.7 (2)
     |                                               |                |                    [0]{}: t 0x3e5-0x3e6.7 (2)
0x3e0|               01                              |     .          |                      n: 1 0x3e5-0x3e5.7 (1)
0x3e0|                  7e                           |      ~         |                      t: "i64" (0x7e) 0x3e6-0x3e6.7 (1)
     |                                               |                |                e[0:11]: 0x3e7-0x401.7 (27)
     |                                               |                |                  [0]{}: in 0x3e7-0x3e8.7 (2)
0x3e0|                     20                        |                |                    local.get: 0x20 (valid) 0x3e7-0x3e7.7 (1)
0x3e0|                        00                     |        .       |                    x: 0 0x3e8-0x3e8.7 (1)
     |                                               |                |                  [1]{}: in 0x3e9-0x3ea.7 (2)
0x3e0|                           20                  |                |                    local.get: 0x20 (valid) 0x3e9-0x3e9.7 (1)
0x3e0|                              01               |          .     |                    x: 1 0x3ea-0x3ea.7 (1)
     |                                               |                |                  [2]{}: in 0x3eb-0x3ef.7 (5)
0x3e0|                                 fd            |           .    |                    prefix: 0xfd (valid) 0x3eb-0x3eb.7 (1)
0x3e0|                                    5a         |            Z   |                    v128.store32_lane: 90 (valid) 0x3ec-0x3ec.7 (1)
     |                                               |                |                    m{}: 0x3ed-0x3ee.7 (2)
0x3e0|                                       00      |             .  |                      a: 0 0x3ed-0x3ed.7 (1)
0x3e0|                                          00   |              . |                      o: 0 0x3ee-0x3ee.7 (1)
0x3e0|                                             01|               .|                    l: 1 0x3ef-0x3ef.7 (1)
     |                                               |                |                  [3]{}: in 0x3f0-0x3f1.7 (2)
0x3f0|20                                             |                |                    local.get: 0x20 (valid) 0x3f0-0x3f0.7 (1)
0x3f0|   00                                          | .              |                    x: 0 0x3f1-0x3f1.7 (1)
     |                                               |                |                  [4]{}: in 0x3f2-0x3f4.7 (3)
0x3f0|      29                                       |  )             |                    i64.load: 0x29 (valid) 0x3f2-0x3f2.7 (1)
     |                                               |                |                    m{}: 0x3f3-0x3f4.7 (2)
0x3f0|         03                                    |   .            |                      a: 3 0x3f3-0x3f3.7 (1)
0x3f0|            00                                 |    .           |                      o: 0 0x3f4-0x3f4.7 (1)
     |                                               |                |                  [5]{}: in 0x3f5-0x3f6.7 (2)
0x3f0|               21                              |     !          |                    local.set: 0x21 (valid) 0x3f5-0x3f5.7 (1)
0x3f0|                  02                           |      .         |                    x: 2 0x3f6-0x3f6.7 (1)
     |                                               |                |                  [6]{}: in 0x3f7-0x3f8.7 (2)
0x3f0|                     41                        |       A        |                    i32.const: 0x41 (valid) 0x3f7-0x3f7.7 (1)
0x3f0|                        00                     |        .       |                    n: 0 0x3f8-0x3f8.7 (1)
     |                                               |                |                  [7]{}: in 0x3f9-0x3fa.7 (2)
0x3f0|                           23                  |         #      |                    global.get: 0x23 (valid) 0x3f9-0x3f9.7 (1)
0x3f0|                              00               |          .     |                    x: 0 0x3fa-0x3fa.7 (1)
     |                                               |                |                  [8]{}: in 0x3fb-0x3fe.7 (4)
0x3f0|                                 fd            |           .    |                    prefix: 0xfd (valid) 0x3fb-0x3fb.7 (1)
0x3f0|                                    0b         |            .   |                    v128.store: 11 (valid) 0x3fc-0x3fc.7 (1)
     |                                               |                |                    m{}: 0x3fd-0x3fe.7 (2)
0x3f0|                                       04      |             .  |                      a: 4 0x3fd-0x3fd.7 (1)
0x3f0|                                          01   |              . |                      o: 1 0x3fe-0x3fe.7 (1)
     |                                               |                |                  [9]{}: in 0x3ff-0x400.7 (2)
0x3f0|                                             20|                |                    local.get: 0x20 (valid) 0x3ff-0x3ff.7 (1)
0x400|02                                             |.               |                    x: 2 0x400-0x400.7 (1)
     |                                               |                |                  [10]{}: in 0x401-0x401.7 (1)
0x400|   0b                                          | .              |                    end: 0xb (valid) 0x401-0x401.7 (1)
     |                                               |                |            [12]{}: code 0x402-0x420.7 (31)
0x400|      1e                                       |  .             |              size: 30 0x402-0x402.7 (1)
     |                                               |                |              code{}: 0x403-0x420.7 (30)
     |                                               |                |                t{}: 0x403-0x405.7 (3)
0x400|         01                                    |   .            |                  n: 1 0x403-0x403.7 (1)
     |                                               |                |                  x[0:1]: 0x404-0x405.7 (2)
     |                                               |                |                    [0]{}: t 0x404-0x405.7 (2)
0x400|            01                                 |    .           |                      n: 1 0x404-0x404.7 (1)
0x400|               7e                              |     ~          |                      t: "i64" (0x7e) 0x405-0x405.7 (1)
     |                                               |                |                e[0:11]: 0x406-0x420.7 (27)
     |                                               |                |                  [0]{}: in 0x406-0x407.7 (2)
0x400|                  20                           |                |                    local.get: 0x20 (valid) 0x406-0x406.7 (1)
0x400|                     00                        |       .        |                    x: 0 0x407-0x407.7 (1)
     |                                               |                |                  [1]{}: in 0x408-0x409.7 (2)
0x400|                        20                     |                |                    local.get: 0x20 (valid) 0x408-0x408.7 (1)
0x400|                           01                  |         .      |                    x: 1 0x409-0x409.7 (1)
     |                                               |                |                  [2]{}: in 0x40a-0x40e.7 (5)
0x400|                              fd               |          .     |                    prefix: 0xfd (valid) 0x40a-0x40a.7 (1)
0x400|                                 5a            |           Z    |                    v128.store32_lane: 90 (valid) 0x40b-0x40b.7 (1)
     |                                               |                |                    m{}: 0x40c-0x40d.7 (2)
0x400|                                    01         |            .   |                      a: 1 0x40c-0x40c.7 (1)
0x400|                                       00      |             .  |                      o: 0 0x40d-0x40d.7 (1)
0x400|                                          01   |              . |                    l: 1 0x40e-0x40e.7 (1)
     |                                               |                |                  [3]{}: in 0x40f-0x410.7 (2)
0x400|                                             20|                |                    local.get: 0x20 (valid) 0x40f-0x40f.7 (1)
0x410|00                                             |.               |                    x: 0 0x410-0x410.7 (1)
     |                                               |                |                  [4]{}: in 0x411-0x413.7 (3)
0x410|   29                                          | )              |                    i64.load: 0x29 (valid) 0x411-0x411.7 (1)
     |                                               |                |                    m{}: 0x412-0x413.7 (2)
0x410|      03                                       |  .             |                      a: 3 0x412-0x412.7 (1)
0x410|         00                                    |   .            |                      o: 0 0x413-0x413.7 (1)
     |                                               |                |                  [5]{}: in 0x414-0x415.7 (2)
0x410|            21                                 |    !           |                    local.set: 0x21 (valid) 0x414-0x414.7 (1)
0x410|               02                              |     .          |                    x: 2 0x415-0x415.7 (1)
     |                                               |                |                  [6]{}: in 0x416-0x417.7 (2)
0x410|                  41                           |      A         |                    i32.const: 0x41 (valid) 0x416-0x416.7 (1)
0x410|                     00                        |       .        |                    n: 0 0x417-0x417.7 (1)
     |                                               |                |                  [7]{}: in 0x418-0x419.7 (2)
0x410|                        23                     |        #       |                    global.get: 0x23 (valid) 0x418-0x418.7 (1)
0x410|                           00                  |         .      |                    x: 0 0x419-0x419.7 (1)
     |                                               |                |                  [8]{}: in 0x41a-0x41d.7 (4)
0x410|                              fd               |          .     |                    prefix: 0xfd (valid) 0x41a-0x41a.7 (1)
0x410|                                 0b            |           .    |                    v128.store: 11 (valid) 0x41b-0x41b.7 (1)
     |                                               |                |                    m{}: 0x41c-0x41d.7 (2)
0x410|                                    04         |            .   |                      a: 4 0x41c-0x41c.7 (1)
0x410|                                       01      |             .  |                      o: 1 0x41d-0x41d.7 (1)
     |                                               |                |                  [9]{}: in 0x41e-0x41f.7 (2)
0x410|                                          20   |                |                    local.get: 0x20 (valid) 0x41e-0x41e.7 (1)
0x410|                                             02|               .|                    x: 2 0x41f-0x41f.7 (1)
     |                                               |                |                  [10]{}: in 0x420-0x420.7 (1)
0x420|0b                                             |.               |                    end: 0xb (valid) 0x420-0x420.7 (1)
     |                                               |                |            [13]{}: code 0x421-0x43f.7 (31)
0x420|   1e                                          | .              |              size: 30 0x421-0x421.7 (1)
     |                                               |                |              code{}: 0x422-0x43f.7 (30)
     |                                               |                |                t{}: 0x422-0x424.7 (3)
0x420|      01                                       |  .             |                  n: 1 0x422-0x422.7 (1)
     |                                               |                |                  x[0:1]: 0x423-0x424.7 (2)
     |                                               |                |                    [0]{}: t 0x423-0x424.7 (2)
0x420|         01                                    |   .            |                      n: 1 0x423-0x423.7 (1)
0x420|            7e                                 |    ~           |                      t: "i64" (0x7e) 0x424-0x424.7 (1)
     |                                               |                |                e[0:11]: 0x425-0x43f.7 (27)
     |                                               |                |                  [0]{}: in 0x425-0x426.7 (2)
0x420|               20                              |                |                    local.get: 0x20 (valid) 0x425-0x425.7 (1)
0x420|                  00                           |      .         |                    x: 0 0x426-0x426.7 (1)
     |                                               |                |                  [1]{}: in 0x427-0x428.7 (2)
0x420|                     20                        |                |                    local.get: 0x20 (valid) 0x427-0x427.7 (1)
0x420|                        01                     |        .       |                    x: 1 0x428-0x428.7 (1)
     |                                               |                |                  [2]{}: in 0x429-0x42d.7 (5)
0x420|                           fd                  |         .      |                    prefix: 0xfd (valid) 0x429-0x429.7 (1)
0x420|                              5a               |          Z     |                    v128.store32_lane: 90 (valid) 0x42a-0x42a.7 (1)
     |                                               |                |                    m{}: 0x42b-0x42c.7 (2)
0x420|                                 02            |           .    |                      a: 2 0x42b-0x42b.7 (1)
0x420|                                    00         |            .   |                      o: 0 0x42c-0x42c.7 (1)
0x420|                                       01      |             .  |                    l: 1 0x42d-0x42d.7 (1)
     |                                               |                |                  [3]{}: in 0x42e-0x42f.7 (2)
0x420|                                          20   |                |                    local.get: 0x20 (valid) 0x42e-0x42e.7 (1)
0x420|                                             00|               .|                    x: 0 0x42f-0x42f.7 (1)
     |                                               |                |                  [4]{}: in 0x430-0x432.7 (3)
0x430|29                                             |)               |                    i64.load: 0x29 (valid) 0x430-0x430.7 (1)
     |                                               |                |                    m{}: 0x431-0x432.7 (2)
0x430|   03                                          | .              |                      a: 3 0x431-0x431.7 (1)
0x430|      00                                       |  .             |                      o: 0 0x432-0x432.7 (1)
     |                                               |                |                  [5]{}: in 0x433-0x434.7 (2)
0x430|         21                                    |   !            |                    local.set: 0x21 (valid) 0x433-0x433.7 (1)
0x430|            02                                 |    .           |                    x: 2 0x434-0x434.7 (1)
     |                                               |                |                  [6]{}: in 0x435-0x436.7 (2)
0x430|               41                              |     A          |                    i32.const: 0x41 (valid) 0x435-0x435.7 (1)
0x430|                  00                           |      .         |                    n: 0 0x436-0x436.7 (1)
     |                                               |                |                  [7]{}: in 0x437-0x438.7 (2)
0x430|                     23                        |       #        |                    global.get: 0x23 (valid) 0x437-0x437.7 (1)
0x430|                        00                     |        .       |                    x: 0 0x438-0x438.7 (1)
     |                                               |                |                  [8]{}: in 0x439-0x43c.7 (4)
0x430|                           fd                  |         .      |                    prefix: 0xfd (valid) 0x439-0x439.7 (1)
0x430|                              0b               |          .     |                    v128.store: 11 (valid) 0x43a-0x43a.7 (1)
     |                                               |                |                    m{}: 0x43b-0x43c.7 (2)
0x430|                                 04            |           .    |                      a: 4 0x43b-0x43b.7 (1)
0x430|                                    01         |            .   |                      o: 1 0x43c-0x43c.7 (1)
     |                                               |                |                  [9]{}: in 0x43d-0x43e.7 (2)
0x430|                                       20      |                |                    local.get: 0x20 (valid) 0x43d-0x43d.7 (1)
0x430|                                          02   |              . |                    x: 2 0x43e-0x43e.7 (1)
     |                                               |                |                  [10]{}: in 0x43f-0x43f.7 (1)
0x430|                                             0b|               .|                    end: 0xb (valid) 0x43f-0x43f.7 (1)
     |                                               |                |            [14]{}: code 0x440-0x45e.7 (31)
0x440|1e                                             |.               |              size: 30 0x440-0x440.7 (1)
     |                                               |                |              code{}: 0x441-0x45e.7 (30)
     |                                               |                |                t{}: 0x441-0x443.7 (3)
0x440|   01                                          | .              |                  n: 1 0x441-0x441.7 (1)
     |                                               |                |                  x[0:1]: 0x442-0x443.7 (2)
     |                                               |                |                    [0]{}: t 0x442-0x443.7 (2)
0x440|      01                                       |  .             |                      n: 1 0x442-0x442.7 (1)
0x440|         7e                                    |   ~            |                      t: "i64" (0x7e) 0x443-0x443.7 (1)
     |                                               |                |                e[0:11]: 0x444-0x45e.7 (27)
     |                                               |                |                  [0]{}: in 0x444-0x445.7 (2)
0x440|            20                                 |                |                    local.get: 0x20 (valid) 0x444-0x444.7 (1)
0x440|               00                              |     .          |                    x: 0 0x445-0x445.7 (1)
     |                                               |                |                  [1]{}: in 0x446-0x447.7 (2)
0x440|                  20                           |                |                    local.get: 0x20 (valid) 0x446-0x446.7 (1)
0x440|                     01                        |       .        |                    x: 1 0x447-0x447.7 (1)
     |                                               |                |                  [2]{}: in 0x448-0x44c.7 (5)
0x440|                        fd                     |        .       |                    prefix: 0xfd (valid) 0x448-0x448.7 (1)
0x440|                           5a                  |         Z      |                    v128.store32_lane: 90 (valid) 0x449-0x449.7 (1)
     |                                               |                |                    m{}: 0x44a-0x44b.7 (2)
0x440|                              00               |          .     |                      a: 0 0x44a-0x44a.7 (1)
0x440|                                 00            |           .    |                      o: 0 0x44b-0x44b.7 (1)
0x440|                                    02         |            .   |                    l: 2 0x44c-0x44c.7 (1)
     |                                               |                |                  [3]{}: in 0x44d-0x44e.7 (2)
0x440|                                       20      |                |                    local.get: 0x20 (valid) 0x44d-0x44d.7 (1)
0x440|                                          00   |              . |                    x: 0 0x44e-0x44e.7 (1)
     |                                               |                |                  [4]{}: in 0x44f-0x451.7 (3)
0x440|                                             29|               )|                    i64.load: 0x29 (valid) 0x44f-0x44f.7 (1)
     |                                               |                |                    m{}: 0x450-0x451.7 (2)
0x450|03                                             |.               |                      a: 3 0x450-0x450.7 (1)
0x450|   00                                          | .              |                      o: 0 0x451-0x451.7 (1)
     |                                               |                |                  [5]{}: in 0x452-0x453.7 (2)
0x450|      21                                       |  !             |                    local.set: 0x21 (valid) 0x452-0x452.7 (1)
0x450|         02                                    |   .            |                    x: 2 0x453-0x453.7 (1)
     |                                               |                |                  [6]{}: in 0x454-0x455.7 (2)
0x450|            41                                 |    A           |                    i32.const: 0x41 (valid) 0x454-0x454.7 (1)
0x450|               00                              |     .          |                    n: 0 0x455-0x455.7 (1)
     |                                               |                |                  [7]{}: in 0x456-0x457.7 (2)
0x450|                  23                           |      #         |                    global.get: 0x23 (valid) 0x456-0x456.7 (1)
0x450|                     00                        |       .        |                    x: 0 0x457-0x457.7 (1)
     |                                               |                |                  [8]{}: in 0x458-0x45b.7 (4)
0x450|                        fd                     |        .       |                    prefix: 0xfd (valid) 0x458-0x458.7 (1)
0x450|                           0b                  |         .      |                    v128.store: 11 (valid) 0x459-0x459.7 (1)
     |                                               |                |                    m{}: 0x45a-0x45b.7 (2)
0x450|                              04               |          .     |                      a: 4 0x45a-0x45a.7 (1)
0x450|                                 02            |           .    |                      o: 2 0x45b-0x45b.7 (1)
     |                                               |                |                  [9]{}: in 0x45c-0x45d.7 (2)
0x450|                                    20         |                |                    local.get: 0x20 (valid) 0x45c-0x45c.7 (1)
0x450|                                       02      |             .  |                    x: 2 0x45d-0x45d.7 (1)
     |                                               |                |                  [10]{}: in 0x45e-0x45e.7 (1)
0x450|                                          0b   |              . |                    end: 0xb (valid) 0x45e-0x45e.7 (1)
     |                                               |                |            [15]{}: code 0x45f-0x47d.7 (31)
0x450|                                             1e|               .|              size: 30 0x45f-0x45f.7 (1)
     |                                               |                |              code{}: 0x460-0x47d.7 (30)
     |                                               |                |                t{}: 0x460-0x462.7 (3)
0x460|01                                             |.               |                  n: 1 0x460-0x460.7 (1)
     |                                               |                |                  x[0:1]: 0x461-0x462.7 (2)
     |                                               |                |                    [0]{}: t 0x461-0x462.7 (2)
0x460|   01                                          | .              |                      n: 1 0x461-0x461.7 (1)
0x460|      7e                                       |  ~             |                      t: "i64" (0x7e) 0x462-0x462.7 (1)
     |                                               |                |                e[0:11]: 0x463-0x47d.7 (27)
     |                                               |                |                  [0]{}: in 0x463-0x464.7 (2)
0x460|         20                                    |                |                    local.get: 0x20 (valid) 0x463-0x463.7 (1)
0x460|            00                                 |    .           |                    x: 0 0x464-0x464.7 (1)
     |                                               |                |                  [1]{}: in 0x465-0x466.7 (2)
0x460|               20                              |                |                    local.get: 0x20 (valid) 0x465-0x465.7 (1)
0x460|                  01                           |      .         |                    x: 1 0x466-0x466.7 (1)
     |                                               |                |                  [2]{}: in 0x467-0x46b.7 (5)
0x460|                     fd                        |       .        |                    prefix: 0xfd (valid) 0x467-0x467.7 (1)
0x460|                        5a                     |        Z       |                    v128.store32_lane: 90 (valid) 0x468-0x468.7 (1)
     |                                               |                |                    m{}: 0x469-0x46a.7 (2)
0x460|                           01                  |         .      |                      a: 1 0x469-0x469.7 (1)
0x460|                              00               |          .     |                      o: 0 0x46a-0x46a.7 (1)
0x460|                                 02            |           .    |                    l: 2 0x46b-0x46b.7 (1)
     |                                               |                |                  [3]{}: in 0x46c-0x46d.7 (2)
0x460|                                    20         |                |                    local.get: 0x20 (valid) 0x46c-0x46c.7 (1)
0x460|                                       00      |             .  |                    x: 0 0x46d-0x46d.7 (1)
     |                                               |                |                  [4]{}: in 0x46e-0x470.7 (3)
0x460|                                          29   |              ) |                    i64.load: 0x29 (valid) 0x46e-0x46e.7 (1)
     |                                               |                |                    m{}: 0x46f-0x470.7 (2)
0x460|                                             03|               .|                      a: 3 0x46f-0x46f.7 (1)
0x470|00                                             |.               |                      o: 0 0x470-0x470.7 (1)
     |                                               |                |                  [5]{}: in 0x471-0x472.7 (2)
0x470|   21                                          | !              |                    local.set: 0x21 (valid) 0x471-0x471.7 (1)
0x470|      02                                       |  .             |                    x: 2 0x472-0x472.7 (1)
     |                                               |                |                  [6]{}: in 0x473-0x474.7 (2)
0x470|         41                                    |   A            |                    i32.const: 0x41 (valid) 0x473-0x473.7 (1)
0x470|            00                                 |    .           |                    n: 0 0x474-0x474.7 (1)
     |                                               |                |                  [7]{}: in 0x475-0x476.7 (2)
0x470|               23                              |     #          |                    global.get: 0x23 (valid) 0x475-0x475.7 (1)
0x470|                  00                           |      .         |                    x: 0 0x476-0x476.7 (1)
     |                                               |                |                  [8]{}: in 0x477-0x47a.7 (4)
0x470|                     fd                        |       .        |                    prefix: 0xfd (valid) 0x477-0x477.7 (1)
0x470|                        0b                     |        .       |                    v128.store: 11 (valid) 0x478-0x478.7 (1)
     |                                               |                |                    m{}: 0x479-0x47a.7 (2)
0x470|                           04                  |         .      |                      a: 4 0x479-0x479.7 (1)
0x470|                              02               |          .     |                      o: 2 0x47a-0x47a.7 (1)
     |                                               |                |                  [9]{}: in 0x47b-0x47c.7 (2)
0x470|                                 20            |                |                    local.get: 0x20 (valid) 0x47b-0x47b.7 (1)
0x470|                                    02         |            .   |                    x: 2 0x47c-0x47c.7 (1)
     |                                               |                |                  [10]{}: in 0x47d-0x47d.7 (1)
0x470|                                       0b      |             .  |                    end: 0xb (valid) 0x47d-0x47d.7 (1)
     |                                               |                |            [16]{}: code 0x47e-0x49c.7 (31)
0x470|                                          1e   |              . |              size: 30 0x47e-0x47e.7 (1)
     |                                               |                |              code{}: 0x47f-0x49c.7 (30)
     |                                               |                |                t{}: 0x47f-0x481.7 (3)
0x470|                                             01|               .|                  n: 1 0x47f-0x47f.7 (1)
     |                                               |                |                  x[0:1]: 0x480-0x481.7 (2)
     |                                               |                |                    [0]{}: t 0x480-0x481.7 (2)
0x480|01                                             |.               |                      n: 1 0x480-0x480.7 (1)
0x480|   7e                                          | ~              |                      t: "i64" (0x7e) 0x481-0x481.7 (1)
     |                                               |                |                e[0:11]: 0x482-0x49c.7 (27)
     |                                               |                |                  [0]{}: in 0x482-0x483.7 (2)
0x480|      20                                       |                |                    local.get: 0x20 (valid) 0x482-0x482.7 (1)
0x480|         00                                    |   .            |                    x: 0 0x483-0x483.7 (1)
     |                                               |                |                  [1]{}: in 0x484-0x485.7 (2)
0x480|            20                                 |                |                    local.get: 0x20 (valid) 0x484-0x484.7 (1)
0x480|               01                              |     .          |                    x: 1 0x485-0x485.7 (1)
     |                                               |                |                  [2]{}: in 0x486-0x48a.7 (5)
0x480|                  fd                           |      .         |                    prefix: 0xfd (valid) 0x486-0x486.7 (1)
0x480|                     5a                        |       Z        |                    v128.store32_lane: 90 (valid) 0x487-0x487.7 (1)
     |                                               |                |                    m{}: 0x488-0x489.7 (2)
0x480|                        02                     |        .       |                      a: 2 0x488-0x488.7 (1)
0x480|                           00                  |         .      |                      o: 0 0x489-0x489.7 (1)
0x480|                              02               |          .     |                    l: 2 0x48a-0x48a.7 (1)
     |                                               |                |                  [3]{}: in 0x48b-0x48c.7 (2)
0x480|                                 20            |                |                    local.get: 0x20 (valid) 0x48b-0x48b.7 (1)
0x480|                                    00         |            .   |                    x: 0 0x48c-0x48c.7 (1)
     |                                               |                |                  [4]{}: in 0x48d-0x48f.7 (3)
0x480|                                       29      |             )  |                    i64.load: 0x29 (valid) 0x48d-0x48d.7 (1)
     |                                               |                |                    m{}: 0x48e-0x48f.7 (2)
0x480|                                          03   |              . |                      a: 3 0x48e-0x48e.7 (1)
0x480|                                             00|               .|                      o: 0 0x48f-0x48f.7 (1)
     |                                               |                |                  [5]{}: in 0x490-0x491.7 (2)
0x490|21                                             |!               |                    local.set: 0x21 (valid) 0x490-0x490.7 (1)
0x490|   02                                          | .              |                    x: 2 0x491-0x491.7 (1)
     |                                               |                |                  [6]{}: in 0x492-0x493.7 (2)
0x490|      41                                       |  A             |                    i32.const: 0x41 (valid) 0x492-0x492.7 (1)
0x490|         00                                    |   .            |                    n: 0 0x493-0x493.7 (1)
     |                                               |                |                  [7]{}: in 0x494-0x495.7 (2)
0x490|            23                                 |    #           |                    global.get: 0x23 (valid) 0x494-0x494.7 (1)
0x490|               00                              |     .          |                    x: 0 0x495-0x495.7 (1)
     |                                               |                |                  [8]{}: in 0x496-0x499.7 (4)
0x490|                  fd                           |      .         |                    prefix: 0xfd (valid) 0x496-0x496.7 (1)
0x490|                     0b                        |       .        |                    v128.store: 11 (valid) 0x497-0x497.7 (1)
     |                                               |                |                    m{}: 0x498-0x499.7 (2)
0x490|                        04                     |        .       |                      a: 4 0x498-0x498.7 (1)
0x490|                           02                  |         .      |                      o: 2 0x499-0x499.7 (1)
     |                                               |                |                  [9]{}: in 0x49a-0x49b.7 (2)
0x490|                              20               |                |                    local.get: 0x20 (valid) 0x49a-0x49a.7 (1)
0x490|                                 02            |           .    |                    x: 2 0x49b-0x49b.7 (1)
     |                                               |                |                  [10]{}: in 0x49c-0x49c.7 (1)
0x490|                                    0b         |            .   |                    end: 0xb (valid) 0x49c-0x49c.7 (1)
     |                                               |                |            [17]{}: code 0x49d-0x4bb.7 (31)
0x490|                                       1e      |             .  |              size: 30 0x49d-0x49d.7 (1)
     |                                               |                |              code{}: 0x49e-0x4bb.7 (30)
     |                                               |                |                t{}: 0x49e-0x4a0.7 (3)
0x490|                                          01   |              . |                  n: 1 0x49e-0x49e.7 (1)
     |                                               |                |                  x[0:1]: 0x49f-0x4a0.7 (2)
     |                                               |                |                    [0]{}: t 0x49f-0x4a0.7 (2)
0x490|                                             01|               .|                      n: 1 0x49f-0x49f.7 (1)
0x4a0|7e                                             |~               |                      t: "i64" (0x7e) 0x4a0-0x4a0.7 (1)
     |                                               |                |                e[0:11]: 0x4a1-0x4bb.7 (27)
     |                                               |                |                  [0]{}: in 0x4a1-0x4a2.7 (2)
0x4a0|   20                                          |                |                    local.get: 0x20 (valid) 0x4a1-0x4a1.7 (1)
0x4a0|      00                                       |  .             |                    x: 0 0x4a2-0x4a2.7 (1)
     |                                               |                |                  [1]{}: in 0x4a3-0x4a4.7 (2)
0x4a0|         20                                    |                |                    local.get: 0x20 (valid) 0x4a3-0x4a3.7 (1)
0x4a0|            01                                 |    .           |                    x: 1 0x4a4-0x4a4.7 (1)
     |                                               |                |                  [2]{}: in 0x4a5-0x4a9.7 (5)
0x4a0|               fd                              |     .          |                    prefix: 0xfd (valid) 0x4a5-0x4a5.7 (1)
0x4a0|                  5a                           |      Z         |                    v128.store32_lane: 90 (valid) 0x4a6-0x4a6.7 (1)
     |                                               |                |                    m{}: 0x4a7-0x4a8.7 (2)
0x4a0|                     00                        |       .        |                      a: 0 0x4a7-0x4a7.7 (1)
0x4a0|                        00                     |        .       |                      o: 0 0x4a8-0x4a8.7 (1)
0x4a0|                           03                  |         .      |                    l: 3 0x4a9-0x4a9.7 (1)
     |                                               |                |                  [3]{}: in 0x4aa-0x4ab.7 (2)
0x4a0|                              20               |                |                    local.get: 0x20 (valid) 0x4aa-0x4aa.7 (1)
0x4a0|                                 00            |           .    |                    x: 0 0x4ab-0x4ab.7 (1)
     |                                               |                |                  [4]{}: in 0x4ac-0x4ae.7 (3)
0x4a0|                                    29         |            )   |                    i64.load: 0x29 (valid) 0x4ac-0x4ac.7 (1)
     |                                               |                |                    m{}: 0x4ad-0x4ae.7 (2)
0x4a0|                                       03      |             .  |                      a: 3 0x4ad-0x4ad.7 (1)
0x4a0|                                          00   |              . |                      o: 0 0x4ae-0x4ae.7 (1)
     |                                               |                |                  [5]{}: in 0x4af-0x4b0.7 (2)
0x4a0|                                             21|               !|                    local.set: 0x21 (valid) 0x4af-0x4af.7 (1)
0x4b0|02                                             |.               |                    x: 2 0x4b0-0x4b0.7 (1)
     |                                               |                |                  [6]{}: in 0x4b1-0x4b2.7 (2)
0x4b0|   41                                          | A              |                    i32.const: 0x41 (valid) 0x4b1-0x4b1.7 (1)
0x4b0|      00                                       |  .             |                    n: 0 0x4b2-0x4b2.7 (1)
     |                                               |                |                  [7]{}: in 0x4b3-0x4b4.7 (2)
0x4b0|         23                                    |   #            |                    global.get: 0x23 (valid) 0x4b3-0x4b3.7 (1)
0x4b0|            00                                 |    .           |                    x: 0 0x4b4-0x4b4.7 (1)
     |                                               |                |                  [8]{}: in 0x4b5-0x4b8.7 (4)
0x4b0|               fd                              |     .          |                    prefix: 0xfd (valid) 0x4b5-0x4b5.7 (1)
0x4b0|                  0b                           |      .         |                    v128.store: 11 (valid) 0x4b6-0x4b6.7 (1)
     |                                               |                |                    m{}: 0x4b7-0x4b8.7 (2)
0x4b0|                     04                        |       .        |                      a: 4 0x4b7-0x4b7.7 (1)
0x4b0|                        03                     |        .       |                      o: 3 0x4b8-0x4b8.7 (1)
     |                                               |                |                  [9]{}: in 0x4b9-0x4ba.7 (2)
0x4b0|                           20                  |                |                    local.get: 0x20 (valid) 0x4b9-0x4b9.7 (1)
0x4b0|                              02               |          .     |                    x: 2 0x4ba-0x4ba.7 (1)
     |                                               |                |                  [10]{}: in 0x4bb-0x4bb.7 (1)
0x4b0|                                 0b            |           .    |                    end: 0xb (valid) 0x4bb-0x4bb.7 (1)
     |                                               |                |            [18]{}: code 0x4bc-0x4da.7 (31)
0x4b0|                                    1e         |            .   |              size: 30 0x4bc-0x4bc.7 (1)
     |                                               |                |              code{}: 0x4bd-0x4da.7 (30)
     |                                               |                |                t{}: 0x4bd-0x4bf.7 (3)
0x4b0|                                       01      |             .  |                  n: 1 0x4bd-0x4bd.7 (1)
     |                                               |                |                  x[0:1]: 0x4be-0x4bf.7 (2)
     |                                               |                |                    [0]{}: t 0x4be-0x4bf.7 (2)
0x4b0|                                          01   |              . |                      n: 1 0x4be-0x4be.7 (1)
0x4b0|                                             7e|               ~|                      t: "i64" (0x7e) 0x4bf-0x4bf.7 (1)
     |                                               |                |                e[0:11]: 0x4c0-0x4da.7 (27)
     |                                               |                |                  [0]{}: in 0x4c0-0x4c1.7 (2)
0x4c0|20                                             |                |                    local.get: 0x20 (valid) 0x4c0-0x4c0.7 (1)
0x4c0|   00                                          | .              |                    x: 0 0x4c1-0x4c1.7 (1)
     |                                               |                |                  [1]{}: in 0x4c2-0x4c3.7 (2)
0x4c0|      20                                       |                |                    local.get: 0x20 (valid) 0x4c2-0x4c2.7 (1)
0x4c0|         01                                    |   .            |                    x: 1 0x4c3-0x4c3.7 (1)
     |                                               |                |                  [2]{}: in 0x4c4-0x4c8.7 (5)
0x4c0|            fd                                 |    .           |                    prefix: 0xfd (valid) 0x4c4-0x4c4.7 (1)
0x4c0|               5a                              |     Z          |                    v128.store32_lane: 90 (valid) 0x4c5-0x4c5.7 (1)
     |                                               |                |                    m{}: 0x4c6-0x4c7.7 (2)
0x4c0|                  01                           |      .         |                      a: 1 0x4c6-0x4c6.7 (1)
0x4c0|                     00                        |       .        |                      o: 0 0x4c7-0x4c7.7 (1)
0x4c0|                        03                     |        .       |                    l: 3 0x4c8-0x4c8.7 (1)
     |                                               |                |                  [3]{}: in 0x4c9-0x4ca.7 (2)
0x4c0|                           20                  |                |                    local.get: 0x20 (valid) 0x4c9-0x4c9.7 (1)
0x4c0|                              00               |          .     |                    x: 0 0x4ca-0x4ca.7 (1)
     |                                               |                |                  [4]{}: in 0x4cb-0x4cd.7 (3)
0x4c0|                                 29            |           )    |                    i64.load: 0x29 (valid) 0x4cb-0x4cb.7 (1)
     |                                               |                |                    m{}: 0x4cc-0x4cd.7 (2)
0x4c0|                                    03         |            .   |                      a: 3 0x4cc-0x4cc.7 (1)
0x4c0|                                       00      |             .  |                      o: 0 0x4cd-0x4cd.7 (1)
     |                                               |                |                  [5]{}: in 0x4ce-0x4cf.7 (2)
0x4c0|                                          21   |              ! |                    local.set: 0x21 (valid) 0x4ce-0x4ce.7 (1)
0x4c0|                                             02|               .|                    x: 2 0x4cf-0x4cf.7 (1)
     |                                               |                |                  [6]{}: in 0x4d0-0x4d1.7 (2)
0x4d0|41                                             |A               |                    i32.const: 0x41 (valid) 0x4d0-0x4d0.7 (1)
0x4d0|   00                                          | .              |                    n: 0 0x4d1-0x4d1.7 (1)
     |                                               |                |                  [7]{}: in 0x4d2-0x4d3.7 (2)
0x4d0|      23                                       |  #             |                    global.get: 0x23 (valid) 0x4d2-0x4d2.7 (1)
0x4d0|         00                                    |   .            |                    x: 0 0x4d3-0x4d3.7 (1)
     |                                               |                |                  [8]{}: in 0x4d4-0x4d7.7 (4)
0x4d0|            fd                                 |    .           |                    prefix: 0xfd (valid) 0x4d4-0x4d4.7 (1)
0x4d0|               0b                              |     .          |                    v128.store: 11 (valid) 0x4d5-0x4d5.7 (1)
     |                                               |                |                    m{}: 0x4d6-0x4d7.7 (2)
0x4d0|                  04                           |      .         |                      a: 4 0x4d6-0x4d6.7 (1)
0x4d0|                     03                        |       .        |                      o: 3 0x4d7-0x4d7.7 (1)
     |                                               |                |                  [9]{}: in 0x4d8-0x4d9.7 (2)
0x4d0|                        20                     |                |                    local.get: 0x20 (valid) 0x4d8-0x4d8.7 (1)
0x4d0|                           02                  |         .      |                    x: 2 0x4d9-0x4d9.7 (1)
     |                                               |                |                  [10]{}: in 0x4da-0x4da.7 (1)
0x4d0|                              0b               |          .     |                    end: 0xb (valid) 0x4da-0x4da.7 (1)
     |                                               |                |            [19]{}: code 0x4db-0x4f9.7 (31)
0x4d0|                                 1e            |           .    |              size: 30 0x4db-0x4db.7 (1)
     |                                               |                |              code{}: 0x4dc-0x4f9.7 (30)
     |                                               |                |                t{}: 0x4dc-0x4de.7 (3)
0x4d0|                                    01         |            .   |                  n: 1 0x4dc-0x4dc.7 (1)
     |                                               |                |                  x[0:1]: 0x4dd-0x4de.7 (2)
     |                                               |                |                    [0]{}: t 0x4dd-0x4de.7 (2)
0x4d0|                                       01      |             .  |                      n: 1 0x4dd-0x4dd.7 (1)
0x4d0|                                          7e   |              ~ |                      t: "i64" (0x7e) 0x4de-0x4de.7 (1)
     |                                               |                |                e[0:11]: 0x4df-0x4f9.7 (27)
     |                                               |                |                  [0]{}: in 0x4df-0x4e0.7 (2)
0x4d0|                                             20|                |                    local.get: 0x20 (valid) 0x4df-0x4df.7 (1)
0x4e0|00                                             |.               |                    x: 0 0x4e0-0x4e0.7 (1)
     |                                               |                |                  [1]{}: in 0x4e1-0x4e2.7 (2)
0x4e0|   20                                          |                |                    local.get: 0x20 (valid) 0x4e1-0x4e1.7 (1)
0x4e0|      01                                       |  .             |                    x: 1 0x4e2-0x4e2.7 (1)
     |                                               |                |                  [2]{}: in 0x4e3-0x4e7.7 (5)
0x4e0|         fd                                    |   .            |                    prefix: 0xfd (valid) 0x4e3-0x4e3.7 (1)
0x4e0|            5a                                 |    Z           |                    v128.store32_lane: 90 (valid) 0x4e4-0x4e4.7 (1)
     |                                               |                |                    m{}: 0x4e5-0x4e6.7 (2)
0x4e0|               02                              |     .          |                      a: 2 0x4e5-0x4e5.7 (1)
0x4e0|                  00                           |      .         |                      o: 0 0x4e6-0x4e6.7 (1)
0x4e0|                     03                        |       .        |                    l: 3 0x4e7-0x4e7.7 (1)
     |                                               |                |                  [3]{}: in 0x4e8-0x4e9.7 (2)
0x4e0|                        20                     |                |                    local.get: 0x20 (valid) 0x4e8-0x4e8.7 (1)
0x4e0|                           00                  |         .      |                    x: 0 0x4e9-0x4e9.7 (1)
     |                                               |                |                  [4]{}: in 0x4ea-0x4ec.7 (3)
0x4e0|                              29               |          )     |                    i64.load: 0x29 (valid) 0x4ea-0x4ea.7 (1)
     |                                               |                |                    m{}: 0x4eb-0x4ec.7 (2)
0x4e0|                                 03            |           .    |                      a: 3 0x4eb-0x4eb.7 (1)
0x4e0|                                    00         |            .   |                      o: 0 0x4ec-0x4ec.7 (1)
     |                                               |                |                  [5]{}: in 0x4ed-0x4ee.7 (2)
0x4e0|                                       21      |             !  |                    local.set: 0x21 (valid) 0x4ed-0x4ed.7 (1)
0x4e0|                                          02   |              . |                    x: 2 0x4ee-0x4ee.7 (1)
     |                                               |                |                  [6]{}: in 0x4ef-0x4f0.7 (2)
0x4e0|                                             41|               A|                    i32.const: 0x41 (valid) 0x4ef-0x4ef.7 (1)
0x4f0|00                                             |.               |                    n: 0 0x4f0-0x4f0.7 (1)
     |                                               |                |                  [7]{}: in 0x4f1-0x4f2.7 (2)
0x4f0|   23                                          | #              |                    global.get: 0x23 (valid) 0x4f1-0x4f1.7 (1)
0x4f0|      00                                       |  .             |                    x: 0 0x4f2-0x4f2.7 (1)
     |                                               |                |                  [8]{}: in 0x4f3-0x4f6.7 (4)
0x4f0|         fd                                    |   .            |                    prefix: 0xfd (valid) 0x4f3-0x4f3.7 (1)
0x4f0|            0b                                 |    .           |                    v128.store: 11 (valid) 0x4f4-0x4f4.7 (1)
     |                                               |                |                    m{}: 0x4f5-0x4f6.7 (2)
0x4f0|               04                              |     .          |                      a: 4 0x4f5-0x4f5.7 (1)
0x4f0|                  03                           |      .         |                      o: 3 0x4f6-0x4f6.7 (1)
     |                                               |                |                  [9]{}: in 0x4f7-0x4f8.7 (2)
0x4f0|                     20                        |                |                    local.get: 0x20 (valid) 0x4f7-0x4f7.7 (1)
0x4f0|                        02                     |        .       |                    x: 2 0x4f8-0x4f8.7 (1)
     |                                               |                |                  [10]{}: in 0x4f9-0x4f9.7 (1)
0x4f0|                           0b|                 |         .|     |                    end: 0xb (valid) 0x4f9-0x4f9.7 (1)
