$ fq -d wasm dv simd_store64_lane-0.wasm
     |00 01 02 03 04 05 06 07 08 09 0a 0b 0c 0d 0e 0f|0123456789abcdef|.{}: simd_store64_lane-0.wasm (wasm) 0x0-0x317.7 (792)
0x000|00 61 73 6d                                    |.asm            |  magic: raw bits (valid) 0x0-0x3.7 (4)
0x000|            01 00 00 00                        |    ....        |  version: 1 0x4-0x7.7 (4)
     |                                               |                |  sections[0:6]: 0x8-0x317.7 (784)
     |                                               |                |    [0]{}: section 0x8-0x15.7 (14)
0x000|                        01                     |        .       |      id: "type section" (1) 0x8-0x8.7 (1)
0x000|                           0c                  |         .      |      size: 12 0x9-0x9.7 (1)
     |                                               |                |      content{}: 0xa-0x15.7 (12)
     |                                               |                |        ft{}: 0xa-0x15.7 (12)
0x000|                              02               |          .     |          n: 2 0xa-0xa.7 (1)
     |                                               |                |          x[0:2]: 0xb-0x15.7 (11)
     |                                               |                |            [0]{}: ft 0xb-0x10.7 (6)
0x000|                                 60            |           `    |              tag: 0x60 (valid) 0xb-0xb.7 (1)
     |                                               |                |              rt1{}: 0xc-0xe.7 (3)
0x000|                                    02         |            .   |                n: 2 0xc-0xc.7 (1)
     |                                               |                |                x[0:2]: 0xd-0xe.7 (2)
0x000|                                       7f      |             .  |                  [0]: "i32" (0x7f) t 0xd-0xd.7 (1)
0x000|                                          7b   |              { |                  [1]: "v128" (0x7b) t 0xe-0xe.7 (1)
     |                                               |                |              rt2{}: 0xf-0x10.7 (2)
0x000|                                             01|               .|                n: 1 0xf-0xf.7 (1)
     |                                               |                |                x[0:1]: 0x10-0x10.7 (1)
0x010|7e                                             |~               |                  [0]: "i64" (0x7e) t 0x10-0x10.7 (1)
     |                                               |                |            [1]{}: ft 0x11-0x15.7 (5)
0x010|   60                                          | `              |              tag: 0x60 (valid) 0x11-0x11.7 (1)
     |                                               |                |              rt1{}: 0x12-0x13.7 (2)
0x010|      01                                       |  .             |                n: 1 0x12-0x12.7 (1)
     |                                               |                |                x[0:1]: 0x13-0x13.7 (1)
0x010|         7b                                    |   {            |                  [0]: "v128" (0x7b) t 0x13-0x13.7 (1)
     |                                               |                |              rt2{}: 0x14-0x15.7 (2)
0x010|            01                                 |    .           |                n: 1 0x14-0x14.7 (1)
     |                                               |                |                x[0:1]: 0x15-0x15.7 (1)
0x010|               7e                              |     ~          |                  [0]: "i64" (0x7e) t 0x15-0x15.7 (1)
     |                                               |                |    [1]{}: section 0x16-0x24.7 (15)
0x010|                  03                           |      .         |      id: "function section" (3) 0x16-0x16.7 (1)
0x010|                     0d                        |       .        |      size: 13 0x17-0x17.7 (1)
     |                                               |                |      content{}: 0x18-0x24.7 (13)
     |                                               |                |        x{}: 0x18-0x24.7 (13)
0x010|                        0c                     |        .       |          n: 12 0x18-0x18.7 (1)
     |                                               |                |          x[0:12]: 0x19-0x24.7 (12)
0x010|                           00                  |         .      |            [0]: 0 x 0x19-0x19.7 (1)
0x010|                              00               |          .     |            [1]: 0 x 0x1a-0x1a.7 (1)
0x010|                                 01            |           .    |            [2]: 1 x 0x1b-0x1b.7 (1)
0x010|                                    01         |            .   |            [3]: 1 x 0x1c-0x1c.7 (1)
0x010|                                       00      |             .  |            [4]: 0 x 0x1d-0x1d.7 (1)
0x010|                                          00   |              . |            [5]: 0 x 0x1e-0x1e.7 (1)
0x010|                                             00|               .|            [6]: 0 x 0x1f-0x1f.7 (1)
0x020|00                                             |.               |            [7]: 0 x 0x20-0x20.7 (1)
0x020|   00                                          | .              |            [8]: 0 x 0x21-0x21.7 (1)
0x020|      00                                       |  .             |            [9]: 0 x 0x22-0x22.7 (1)
0x020|         00                                    |   .            |            [10]: 0 x 0x23-0x23.7 (1)
0x020|            00                                 |    .           |            [11]: 0 x 0x24-0x24.7 (1)
     |                                               |                |    [2]{}: section 0x25-0x29.7 (5)
0x020|               05                              |     .          |      id: "memory section" (5) 0x25-0x25.7 (1)
0x020|                  03                           |      .         |      size: 3 0x26-0x26.7 (1)
     |                                               |                |      content{}: 0x27-0x29.7 (3)
     |                                               |                |        mem{}: 0x27-0x29.7 (3)
0x020|                     01                        |       .        |          n: 1 0x27-0x27.7 (1)
     |                                               |                |          x[0:1]: 0x28-0x29.7 (2)
     |                                               |                |            [0]{}: mem 0x28-0x29.7 (2)
     |                                               |                |              lim{}: 0x28-0x29.7 (2)
0x020|                        00                     |        .       |                tag: 0x0 0x28-0x28.7 (1)
0x020|                           01                  |         .      |                n: 1 0x29-0x29.7 (1)
     |                                               |                |    [3]{}: section 0x2a-0x41.7 (24)
0x020|                              06               |          .     |      id: "global section" (6) 0x2a-0x2a.7 (1)
0x020|                                 16            |           .    |      size: 22 0x2b-0x2b.7 (1)
     |                                               |                |      content{}: 0x2c-0x41.7 (22)
     |                                               |                |        glob{}: 0x2c-0x41.7 (22)
0x020|                                    01         |            .   |          n: 1 0x2c-0x2c.7 (1)
     |                                               |                |          x[0:1]: 0x2d-0x41.7 (21)
     |                                               |                |            [0]{}: glob 0x2d-0x41.7 (21)
     |                                               |                |              gt{}: 0x2d-0x2e.7 (2)
0x020|                                       7b      |             {  |                t: "v128" (0x7b) 0x2d-0x2d.7 (1)
0x020|                                          01   |              . |                m: "var" (1) 0x2e-0x2e.7 (1)
     |                                               |                |              e[0:2]: 0x2f-0x41.7 (19)
     |                                               |                |                [0]{}: in 0x2f-0x40.7 (18)
0x020|                                             fd|               .|                  prefix: 0xfd (valid) 0x2f-0x2f.7 (1)
0x030|0c                                             |.               |                  v128.const: 12 (valid) 0x30-0x30.7 (1)
0x030|   00 00 00 00 00 00 00 00 00 00 00 00 00 00 00| ...............|                  bytes: raw bits 0x31-0x40.7 (16)
0x040|00                                             |.               |
     |                                               |                |                [1]{}: in 0x41-0x41.7 (1)
0x040|   0b                                          | .              |                  end: 0xb (valid) 0x41-0x41.7 (1)
     |                                               |                |    [4]{}: section 0x42-0x19f.7 (350)
0x040|      07                                       |  .             |      id: "export section" (7) 0x42-0x42.7 (1)
0x040|         db 02                                 |   ..           |      size: 347 0x43-0x44.7 (2)
     |                                               |                |      content{}: 0x45-0x19f.7 (347)
     |                                               |                |        ex{}: 0x45-0x19f.7 (347)
0x040|               0c                              |     .          |          n: 12 0x45-0x45.7 (1)
     |                                               |                |          x[0:12]: 0x46-0x19f.7 (346)
     |                                               |                |            [0]{}: ex 0x46-0x5b.7 (22)
     |                                               |                |              nm{}: 0x46-0x59.7 (20)
0x040|                  13                           |      .         |                n: 19 0x46-0x46.7 (1)
0x040|                     76 31 32 38 2e 73 74 6f 72|       v128.stor|                b: "v128.store64_lane_0" 0x47-0x59.7 (19)
0x050|65 36 34 5f 6c 61 6e 65 5f 30                  |e64_lane_0      |
     |                                               |                |              d{}: 0x5a-0x5b.7 (2)
0x050|                              00               |          .     |                tag: "funcidx" (0x0) 0x5a-0x5a.7 (1)
0x050|                                 00            |           .    |                x: 0 0x5b-0x5b.7 (1)
     |                                               |                |            [1]{}: ex 0x5c-0x71.7 (22)
     |                                               |                |              nm{}: 0x5c-0x6f.7 (20)
0x050|                                    13         |            .   |                n: 19 0x5c-0x5c.7 (1)
0x050|                                       76 31 32|             v12|                b: "v128.store64_lane_1" 0x5d-0x6f.7 (19)
0x060|38 2e 73 74 6f 72 65 36 34 5f 6c 61 6e 65 5f 31|8.store64_lane_1|
     |                                               |                |              d{}: 0x70-0x71.7 (2)
0x070|00                                             |.               |                tag: "funcidx" (0x0) 0x70-0x70.7 (1)
0x070|   01                                          | .              |                x: 1 0x71-0x71.7 (1)
     |                                               |                |            [2]{}: ex 0x72-0x90.7 (31)
     |                                               |                |              nm{}: 0x72-0x8e.7 (29)
0x070|      1c                                       |  .             |                n: 28 0x72-0x72.7 (1)
0x070|         76 31 32 38 2e 73 74 6f 72 65 36 34 5f|   v128.store64_|                b: "v128.store64_lane_0_offset_0" 0x73-0x8e.7 (28)
0x080|6c 61 6e 65 5f 30 5f 6f 66 66 73 65 74 5f 30   |lane_0_offset_0 |
     |                                               |                |              d{}: 0x8f-0x90.7 (2)
0x080|                                             00|               .|                tag: "funcidx" (0x0) 0x8f-0x8f.7 (1)
0x090|02                                             |.               |                x: 2 0x90-0x90.7 (1)
     |                                               |                |            [3]{}: ex 0x91-0xaf.7 (31)
     |                                               |                |              nm{}: 0x91-0xad.7 (29)
0x090|   1c                                          | .              |                n: 28 0x91-0x91.7 (1)
0x090|      76 31 32 38 2e 73 74 6f 72 65 36 34 5f 6c|  v128.store64_l|                b: "v128.store64_lane_1_offset_1" 0x92-0xad.7 (28)
0x0a0|61 6e 65 5f 31 5f 6f 66 66 73 65 74 5f 31      |ane_1_offset_1  |
     |                                               |                |              d{}: 0xae-0xaf.7 (2)
0x0a0|                                          00   |              . |                tag: "funcidx" (0x0) 0xae-0xae.7 (1)
0x0a0|                                             03|               .|                x: 3 0xaf-0xaf.7 (1)
     |                                               |                |            [4]{}: ex 0xb0-0xcd.7 (30)
     |                                               |                |              nm{}: 0xb0-0xcb.7 (28)
0x0b0|1b                                             |.               |                n: 27 0xb0-0xb0.7 (1)
0x0b0|   76 31 32 38 2e 73 74 6f 72 65 36 34 5f 6c 61| v128.store64_la|                b: "v128.store64_lane_0_align_1" 0xb1-0xcb.7 (27)
0x0c0|6e 65 5f 30 5f 61 6c 69 67 6e 5f 31            |ne_0_align_1    |
     |                                               |                |              d{}: 0xcc-0xcd.7 (2)
0x0c0|                                    00         |            .   |                tag: "funcidx" (0x0) 0xcc-0xcc.7 (1)
0x0c0|                                       04      |             .  |                x: 4 0xcd-0xcd.7 (1)
     |                                               |                |            [5]{}: ex 0xce-0xeb.7 (30)
     |                                               |                |              nm{}: 0xce-0xe9.7 (28)
0x0c0|                                          1b   |              . |                n: 27 0xce-0xce.7 (1)
0x0c0|                                             76|               v|                b: "v128.store64_lane_0_align_2" 0xcf-0xe9.7 (27)
0x0d0|31 32 38 2e 73 74 6f 72 65 36 34 5f 6c 61 6e 65|128.store64_lane|
0x0e0|5f 30 5f 61 6c 69 67 6e 5f 32                  |_0_align_2      |
     |                                               |                |              d{}: 0xea-0xeb.7 (2)
0x0e0|                              00               |          .     |                tag: "funcidx" (0x0) 0xea-0xea.7 (1)
0x0e0|                                 05            |           .    |                x: 5 0xeb-0xeb.7 (1)
     |                                               |                |            [6]{}: ex 0xec-0x109.7 (30)
     |                                               |                |              nm{}: 0xec-0x107.7 (28)
0x0e0|                                    1b         |            .   |                n: 27 0xec-0xec.7 (1)
0x0e0|                                       76 31 32|             v12|                b: "v128.store64_lane_0_align_4" 0xed-0x107.7 (27)
0x0f0|38 2e 73 74 6f 72 65 36 34 5f 6c 61 6e 65 5f 30|8.store64_lane_0|
0x100|5f 61 6c 69 67 6e 5f 34                        |_align_4        |
     |                                               |                |              d{}: 0x108-0x109.7 (2)
0x100|                        00                     |        .       |                tag: "funcidx" (0x0) 0x108-0x108.7 (1)
0x100|                           06                  |         .      |                x: 6 0x109-0x109.7 (1)
     |                                               |                |            [7]{}: ex 0x10a-0x127.7 (30)
     |                                               |                |              nm{}: 0x10a-0x125.7 (28)
0x100|                              1b               |          .     |                n: 27 0x10a-0x10a.7 (1)
0x100|                                 76 31 32 38 2e|           v128.|                b: "v128.store64_lane_0_align_8" 0x10b-0x125.7 (27)
0x110|73 74 6f 72 65 36 34 5f 6c 61 6e 65 5f 30 5f 61|store64_lane_0_a|
0x120|6c 69 67 6e 5f 38                              |lign_8          |
     |                                               |                |              d{}: 0x126-0x127.7 (2)
0x120|                  00                           |      .         |                tag: "funcidx" (0x0) 0x126-0x126.7 (1)
0x120|                     07                        |       .        |                x: 7 0x127-0x127.7 (1)
     |                                               |                |            [8]{}: ex 0x128-0x145.7 (30)
     |                                               |                |              nm{}: 0x128-0x143.7 (28)
0x120|                        1b                     |        .       |                n: 27 0x128-0x128.7 (1)
0x120|                           76 31 32 38 2e 73 74|         v128.st|                b: "v128.store64_lane_1_align_1" 0x129-0x143.7 (27)
0x130|6f 72 65 36 34 5f 6c 61 6e 65 5f 31 5f 61 6c 69|ore64_lane_1_ali|
0x140|67 6e 5f 31                                    |gn_1            |
     |                                               |                |              d{}: 0x144-0x145.7 (2)
0x140|            00                                 |    .           |                tag: "funcidx" (0x0) 0x144-0x144.7 (1)
0x140|               08                              |     .          |                x: 8 0x145-0x145.7 (1)
     |                                               |                |            [9]{}: ex 0x146-0x163.7 (30)
     |                                               |                |              nm{}: 0x146-0x161.7 (28)
0x140|                  1b                           |      .         |                n: 27 0x146-0x146.7 (1)
0x140|                     76 31 32 38 2e 73 74 6f 72|       v128.stor|                b: "v128.store64_lane_1_align_2" 0x147-0x161.7 (27)
0x150|65 36 34 5f 6c 61 6e 65 5f 31 5f 61 6c 69 67 6e|e64_lane_1_align|
0x160|5f 32                                          |_2              |
     |                                               |                |              d{}: 0x162-0x163.7 (2)
0x160|      00                                       |  .             |                tag: "funcidx" (0x0) 0x162-0x162.7 (1)
0x160|         09                                    |   .            |                x: 9 0x163-0x163.7 (1)
     |                                               |                |            [10]{}: ex 0x164-0x181.7 (30)
     |                                               |                |              nm{}: 0x164-0x17f.7 (28)
0x160|            1b                                 |    .           |                n: 27 0x164-0x164.7 (1)
0x160|               76 31 32 38 2e 73 74 6f 72 65 36|     v128.store6|                b: "v128.store64_lane_1_align_4" 0x165-0x17f.7 (27)
0x170|34 5f 6c 61 6e 65 5f 31 5f 61 6c 69 67 6e 5f 34|4_lane_1_align_4|
     |                                               |                |              d{}: 0x180-0x181.7 (2)
0x180|00                                             |.               |                tag: "funcidx" (0x0) 0x180-0x180.7 (1)
0x180|   0a                                          | .              |                x: 10 0x181-0x181.7 (1)
     |                                               |                |            [11]{}: ex 0x182-0x19f.7 (30)
     |                                               |                |              nm{}: 0x182-0x19d.7 (28)
0x180|      1b                                       |  .             |                n: 27 0x182-0x182.7 (1)
0x180|         76 31 32 38 2e 73 74 6f 72 65 36 34 5f|   v128.store64_|                b: "v128.store64_lane_1_align_8" 0x183-0x19d.7 (27)
0x190|6c 61 6e 65 5f 31 5f 61 6c 69 67 6e 5f 38      |lane_1_align_8  |
     |                                               |                |              d{}: 0x19e-0x19f.7 (2)
0x190|                                          00   |              . |                tag: "funcidx" (0x0) 0x19e-0x19e.7 (1)
0x190|                                             0b|               .|                x: 11 0x19f-0x19f.7 (1)
     |                                               |                |    [5]{}: section 0x1a0-0x317.7 (376)
0x1a0|0a                                             |.               |      id: "code section" (10) 0x1a0-0x1a0.7 (1)
0x1a0|   f5 02                                       | ..             |      size: 373 0x1a1-0x1a2.7 (2)
     |                                               |                |      content{}: 0x1a3-0x317.7 (373)
     |                                               |                |        code{}: 0x1a3-0x317.7 (373)
0x1a0|         0c                                    |   .            |          n: 12 0x1a3-0x1a3.7 (1)
     |                                               |                |          x[0:12]: 0x1a4-0x317.7 (372)
     |                                               |                |            [0]{}: code 0x1a4-0x1c2.7 (31)
0x1a0|            1e                                 |    .           |              size: 30 0x1a4-0x1a4.7 (1)
     |                                               |                |              code{}: 0x1a5-0x1c2.7 (30)
     |                                               |                |                t{}: 0x1a5-0x1a7.7 (3)
0x1a0|               01                              |     .          |                  n: 1 0x1a5-0x1a5.7 (1)
     |                                               |                |                  x[0:1]: 0x1a6-0x1a7.7 (2)
     |                                               |                |                    [0]{}: t 0x1a6-0x1a7.7 (2)
0x1a0|                  01                           |      .         |                      n: 1 0x1a6-0x1a6.7 (1)
0x1a0|                     7e                        |       ~        |                      t: "i64" (0x7e) 0x1a7-0x1a7.7 (1)
     |                                               |                |                e[0:11]: 0x1a8-0x1c2.7 (27)
     |                                               |                |                  [0]{}: in 0x1a8-0x1a9.7 (2)
0x1a0|                        20                     |                |                    local.get: 0x20 (valid) 0x1a8-0x1a8.7 (1)
0x1a0|                           00                  |         .      |                    x: 0 0x1a9-0x1a9.7 (1)
     |                                               |                |                  [1]{}: in 0x1aa-0x1ab.7 (2)
0x1a0|                              20               |                |                    local.get: 0x20 (valid) 0x1aa-0x1aa.7 (1)
0x1a0|                                 01            |           .    |                    x: 1 0x1ab-0x1ab.7 (1)
     |                                               |                |                  [2]{}: in 0x1ac-0x1b0.7 (5)
0x1a0|                                    fd         |            .   |                    prefix: 0xfd (valid) 0x1ac-0x1ac.7 (1)
0x1a0|                                       5b      |             [  |                    v128.store64_lane: 91 (valid) 0x1ad-0x1ad.7 (1)
     |                                               |                |                    m{}: 0x1ae-0x1af.7 (2)
0x1a0|                                          03   |              . |                      a: 3 0x1ae-0x1ae.7 (1)
0x1a0|                                             00|               .|                      o: 0 0x1af-0x1af.7 (1)
0x1b0|00                                             |.               |                    l: 0 0x1b0-0x1b0.7 (1)
     |                                               |                |                  [3]{}: in 0x1b1-0x1b2.7 (2)
0x1b0|   20                                          |                |                    local.get: 0x20 (valid) 0x1b1-0x1b1.7 (1)
0x1b0|      00                                       |  .             |                    x: 0 0x1b2-0x1b2.7 (1)
     |                                               |                |                  [4]{}: in 0x1b3-0x1b5.7 (3)
0x1b0|         29                                    |   )            |                    i64.load: 0x29 (valid) 0x1b3-0x1b3.7 (1)
     |                                               |                |                    m{}: 0x1b4-0x1b5.7 (2)
0x1b0|            03                                 |    .           |                      a: 3 0x1b4-0x1b4.7 (1)
0x1b0|               00                              |     .          |                      o: 0 0x1b5-0x1b5.7 (1)
     |                                               |                |                  [5]{}: in 0x1b6-0x1b7.7 (2)
0x1b0|                  21                           |      !         |                    local.set: 0x21 (valid) 0x1b6-0x1b6.7 (1)
0x1b0|                     02                        |       .        |                    x: 2 0x1b7-0x1b7.7 (1)
     |                                               |                |                  [6]{}: in 0x1b8-0x1b9.7 (2)
0x1b0|                        20                     |                |                    local.get: 0x20 (valid) 0x1b8-0x1b8.7 (1)
0x1b0|                           00                  |         .      |                    x: 0 0x1b9-0x1b9.7 (1)
     |                                               |                |                  [7]{}: in 0x1ba-0x1bb.7 (2)
0x1b0|                              23               |          #     |                    global.get: 0x23 (valid) 0x1ba-0x1ba.7 (1)
0x1b0|                                 00            |           .    |                    x: 0 0x1bb-0x1bb.7 (1)
     |                                               |                |                  [8]{}: in 0x1bc-0x1bf.7 (4)
0x1b0|                                    fd         |            .   |                    prefix: 0xfd (valid) 0x1bc-0x1bc.7 (1)
0x1b0|                                       0b      |             .  |                    v128.store: 11 (valid) 0x1bd-0x1bd.7 (1)
     |                                               |                |                    m{}: 0x1be-0x1bf.7 (2)
0x1b0|                                          04   |              . |                      a: 4 0x1be-0x1be.7 (1)
0x1b0|                                             00|               .|                      o: 0 0x1bf-0x1bf.7 (1)
     |                                               |                |                  [9]{}: in 0x1c0-0x1c1.7 (2)
0x1c0|20                                             |                |                    local.get: 0x20 (valid) 0x1c0-0x1c0.7 (1)
0x1c0|   02                                          | .              |                    x: 2 0x1c1-0x1c1.7 (1)
     |                                               |                |                  [10]{}: in 0x1c2-0x1c2.7 (1)
0x1c0|      0b                                       |  .             |                    end: 0xb (valid) 0x1c2-0x1c2.7 (1)
     |                                               |                |            [1]{}: code 0x1c3-0x1e1.7 (31)
0x1c0|         1e                                    |   .            |              size: 30 0x1c3-0x1c3.7 (1)
     |                                               |                |              code{}: 0x1c4-0x1e1.7 (30)
     |                                               |                |                t{}: 0x1c4-0x1c6.7 (3)
0x1c0|            01                                 |    .           |                  n: 1 0x1c4-0x1c4.7 (1)
     |                                               |                |                  x[0:1]: 0x1c5-0x1c6.7 (2)
     |                                               |                |                    [0]{}: t 0x1c5-0x1c6.7 (2)
0x1c0|               01                              |     .          |                      n: 1 0x1c5-0x1c5.7 (1)
0x1c0|                  7e                           |      ~         |                      t: "i64" (0x7e) 0x1c6-0x1c6.7 (1)
     |                                               |                |                e[0:11]: 0x1c7-0x1e1.7 (27)
     |                                               |                |                  [0]{}: in 0x1c7-0x1c8.7 (2)
0x1c0|                     20                        |                |                    local.get: 0x20 (valid) 0x1c7-0x1c7.7 (1)
0x1c0|                        00                     |        .       |                    x: 0 0x1c8-0x1c8.7 (1)
     |                                               |                |                  [1]{}: in 0x1c9-0x1ca.7 (2)
0x1c0|                           20                  |                |                    local.get: 0x20 (valid) 0x1c9-0x1c9.7 (1)
0x1c0|                              01               |          .     |                    x: 1 0x1ca-0x1ca.7 (1)
     |                                               |                |                  [2]{}: in 0x1cb-0x1cf.7 (5)
0x1c0|                                 fd            |           .    |                    prefix: 0xfd (valid) 0x1cb-0x1cb.7 (1)
0x1c0|                                    5b         |            [   |                    v128.store64_lane: 91 (valid) 0x1cc-0x1cc.7 (1)
     |                                               |                |                    m{}: 0x1cd-0x1ce.7 (2)
0x1c0|                                       03      |             .  |                      a: 3 0x1cd-0x1cd.7 (1)
0x1c0|                                          00   |              . |                      o: 0 0x1ce-0x1ce.7 (1)
0x1c0|                                             01|               .|                    l: 1 0x1cf-0x1cf.7 (1)
     |                                               |                |                  [3]{}: in 0x1d0-0x1d1.7 (2)
0x1d0|20                                             |                |                    local.get: 0x20 (valid) 0x1d0-0x1d0.7 (1)
0x1d0|   00                                          | .              |                    x: 0 0x1d1-0x1d1.7 (1)
     |                                               |                |                  [4]{}: in 0x1d2-0x1d4.7 (3)
0x1d0|      29                                       |  )             |                    i64.load: 0x29 (valid) 0x1d2-0x1d2.7 (1)
     |                                               |                |                    m{}: 0x1d3-0x1d4.7 (2)
0x1d0|         03                                    |   .            |                      a: 3 0x1d3-0x1d3.7 (1)
0x1d0|            00                                 |    .           |                      o: 0 0x1d4-0x1d4.7 (1)
     |                                               |                |                  [5]{}: in 0x1d5-0x1d6.7 (2)
0x1d0|               21                              |     !          |                    local.set: 0x21 (valid) 0x1d5-0x1d5.7 (1)
0x1d0|                  02                           |      .         |                    x: 2 0x1d6-0x1d6.7 (1)
     |                                               |                |                  [6]{}: in 0x1d7-0x1d8.7 (2)
0x1d0|                     20                        |                |                    local.get: 0x20 (valid) 0x1d7-0x1d7.7 (1)
0x1d0|                        00                     |        .       |                    x: 0 0x1d8-0x1d8.7 (1)
     |                                               |                |                  [7]{}: in 0x1d9-0x1da.7 (2)
0x1d0|                           23                  |         #      |                    global.get: 0x23 (valid) 0x1d9-0x1d9.7 (1)
0x1d0|                              00               |          .     |                    x: 0 0x1da-0x1da.7 (1)
     |                                               |                |                  [8]{}: in 0x1db-0x1de.7 (4)
0x1d0|                                 fd            |           .    |                    prefix: 0xfd (valid) 0x1db-0x1db.7 (1)
0x1d0|                                    0b         |            .   |                    v128.store: 11 (valid) 0x1dc-0x1dc.7 (1)
     |                                               |                |                    m{}: 0x1dd-0x1de.7 (2)
0x1d0|                                       04      |             .  |                      a: 4 0x1dd-0x1dd.7 (1)
0x1d0|                                          00   |              . |                      o: 0 0x1de-0x1de.7 (1)
     |                                               |                |                  [9]{}: in 0x1df-0x1e0.7 (2)
0x1d0|                                             20|                |                    local.get: 0x20 (valid) 0x1df-0x1df.7 (1)
0x1e0|02                                             |.               |                    x: 2 0x1e0-0x1e0.7 (1)
     |                                               |                |                  [10]{}: in 0x1e1-0x1e1.7 (1)
0x1e0|   0b                                          | .              |                    end: 0xb (valid) 0x1e1-0x1e1.7 (1)
     |                                               |                |            [2]{}: code 0x1e2-0x200.7 (31)
0x1e0|      1e                                       |  .             |              size: 30 0x1e2-0x1e2.7 (1)
     |                                               |                |              code{}: 0x1e3-0x200.7 (30)
     |                                               |                |                t{}: 0x1e3-0x1e5.7 (3)
0x1e0|         01                                    |   .            |                  n: 1 0x1e3-0x1e3.7 (1)
     |                                               |                |                  x[0:1]: 0x1e4-0x1e5.7 (2)
     |                                               |                |                    [0]{}: t 0x1e4-0x1e5.7 (2)
0x1e0|            01                                 |    .           |                      n: 1 0x1e4-0x1e4.7 (1)
0x1e0|               7e                              |     ~          |                      t: "i64" (0x7e) 0x1e5-0x1e5.7 (1)
     |                                               |                |                e[0:11]: 0x1e6-0x200.7 (27)
     |                                               |                |                  [0]{}: in 0x1e6-0x1e7.7 (2)
0x1e0|                  41                           |      A         |                    i32.const: 0x41 (valid) 0x1e6-0x1e6.7 (1)
0x1e0|                     00                        |       .        |                    n: 0 0x1e7-0x1e7.7 (1)
     |                                               |                |                  [1]{}: in 0x1e8-0x1e9.7 (2)
0x1e0|                        20                     |                |                    local.get: 0x20 (valid) 0x1e8-0x1e8.7 (1)
0x1e0|                           00                  |         .      |                    x: 0 0x1e9-0x1e9.7 (1)
     |                                               |                |                  [2]{}: in 0x1ea-0x1ee.7 (5)
0x1e0|                              fd               |          .     |                    prefix: 0xfd (valid) 0x1ea-0x1ea.7 (1)
0x1e0|                                 5b            |           [    |                    v128.store64_lane: 91 (valid) 0x1eb-0x1eb.7 (1)
     |                                               |                |                    m{}: 0x1ec-0x1ed.7 (2)
0x1e0|                                    03         |            .   |                      a: 3 0x1ec-0x1ec.7 (1)
0x1e0|                                       00      |             .  |                      o: 0 0x1ed-0x1ed.7 (1)
0x1e0|                                          00   |              . |                    l: 0 0x1ee-0x1ee.7 (1)
     |                                               |                |                  [3]{}: in 0x1ef-0x1f0.7 (2)
0x1e0|                                             41|               A|                    i32.const: 0x41 (valid) 0x1ef-0x1ef.7 (1)
0x1f0|00                                             |.               |                    n: 0 0x1f0-0x1f0.7 (1)
     |                                               |                |                  [4]{}: in 0x1f1-0x1f3.7 (3)
0x1f0|   29                                          | )              |                    i64.load: 0x29 (valid) 0x1f1-0x1f1.7 (1)
     |                                               |                |                    m{}: 0x1f2-0x1f3.7 (2)
0x1f0|      03                                       |  .             |                      a: 3 0x1f2-0x1f2.7 (1)
0x1f0|         00                                    |   .            |                      o: 0 0x1f3-0x1f3.7 (1)
     |                                               |                |                  [5]{}: in 0x1f4-0x1f5.7 (2)
0x1f0|            21                                 |    !           |                    local.set: 0x21 (valid) 0x1f4-0x1f4.7 (1)
0x1f0|               01                              |     .          |                    x: 1 0x1f5-0x1f5.7 (1)
     |                                               |                |                  [6]{}: in 0x1f6-0x1f7.7 (2)
0x1f0|                  41                           |      A         |                    i32.const: 0x41 (valid) 0x1f6-0x1f6.7 (1)
0x1f0|                     00                        |       .        |                    n: 0 0x1f7-0x1f7.7 (1)
     |                                               |                |                  [7]{}: in 0x1f8-0x1f9.7 (2)
0x1f0|                        23                     |        #       |                    global.get: 0x23 (valid) 0x1f8-0x1f8.7 (1)
0x1f0|                           00                  |         .      |                    x: 0 0x1f9-0x1f9.7 (1)
     |                                               |                |                  [8]{}: in 0x1fa-0x1fd.7 (4)
0x1f0|                              fd               |          .     |                    prefix: 0xfd (valid) 0x1fa-0x1fa.7 (1)
0x1f0|                                 0b            |           .    |                    v128.store: 11 (valid) 0x1fb-0x1fb.7 (1)
     |                                               |                |                    m{}: 0x1fc-0x1fd.7 (2)
0x1f0|                                    04         |            .   |                      a: 4 0x1fc-0x1fc.7 (1)
0x1f0|                                       00      |             .  |                      o: 0 0x1fd-0x1fd.7 (1)
     |                                               |                |                  [9]{}: in 0x1fe-0x1ff.7 (2)
0x1f0|                                          20   |                |                    local.get: 0x20 (valid) 0x1fe-0x1fe.7 (1)
0x1f0|                                             01|               .|                    x: 1 0x1ff-0x1ff.7 (1)
     |                                               |                |                  [10]{}: in 0x200-0x200.7 (1)
0x200|0b                                             |.               |                    end: 0xb (valid) 0x200-0x200.7 (1)
     |                                               |                |            [3]{}: code 0x201-0x21f.7 (31)
0x200|   1e                                          | .              |              size: 30 0x201-0x201.7 (1)
     |                                               |                |              code{}: 0x202-0x21f.7 (30)
     |                                               |                |                t{}: 0x202-0x204.7 (3)
0x200|      01                                       |  .             |                  n: 1 0x202-0x202.7 (1)
     |                                               |                |                  x[0:1]: 0x203-0x204.7 (2)
     |                                               |                |                    [0]{}: t 0x203-0x204.7 (2)
0x200|         01                                    |   .            |                      n: 1 0x203-0x203.7 (1)
0x200|            7e                                 |    ~           |                      t: "i64" (0x7e) 0x204-0x204.7 (1)
     |                                               |                |                e[0:11]: 0x205-0x21f.7 (27)
     |                                               |                |                  [0]{}: in 0x205-0x206.7 (2)
0x200|               41                              |     A          |                    i32.const: 0x41 (valid) 0x205-0x205.7 (1)
0x200|                  00                           |      .         |                    n: 0 0x206-0x206.7 (1)
     |                                               |                |                  [1]{}: in 0x207-0x208.7 (2)
0x200|                     20                        |                |                    local.get: 0x20 (valid) 0x207-0x207.7 (1)
0x200|                        00                     |        .       |                    x: 0 0x208-0x208.7 (1)
     |                                               |                |                  [2]{}: in 0x209-0x20d.7 (5)
0x200|                           fd                  |         .      |                    prefix: 0xfd (valid) 0x209-0x209.7 (1)
0x200|                              5b               |          [     |                    v128.store64_lane: 91 (valid) 0x20a-0x20a.7 (1)
     |                                               |                |                    m{}: 0x20b-0x20c.7 (2)
0x200|                                 03            |           .    |                      a: 3 0x20b-0x20b.7 (1)
0x200|                                    01         |            .   |                      o: 1 0x20c-0x20c.7 (1)
0x200|                                       01      |             .  |                    l: 1 0x20d-0x20d.7 (1)
     |                                               |                |                  [3]{}: in 0x20e-0x20f.7 (2)
0x200|                                          41   |              A |                    i32.const: 0x41 (valid) 0x20e-0x20e.7 (1)
0x200|                                             00|               .|                    n: 0 0x20f-0x20f.7 (1)
     |                                               |                |                  [4]{}: in 0x210-0x212.7 (3)
0x210|29                                             |)               |                    i64.load: 0x29 (valid) 0x210-0x210.7 (1)
     |                                               |                |                    m{}: 0x211-0x212.7 (2)
0x210|   03                                          | .              |                      a: 3 0x211-0x211.7 (1)
0x210|      01                                       |  .             |                      o: 1 0x212-0x212.7 (1)
     |                                               |                |                  [5]{}: in 0x213-0x214.7 (2)
0x210|         21                                    |   !            |                    local.set: 0x21 (valid) 0x213-0x213.7 (1)
0x210|            01                                 |    .           |                    x: 1 0x214-0x214.7 (1)
     |                                               |                |                  [6]{}: in 0x215-0x216.7 (2)
0x210|               41                              |     A          |                    i32.const: 0x41 (valid) 0x215-0x215.7 (1)
0x210|                  00                           |      .         |                    n: 0 0x216-0x216.7 (1)
     |                                               |                |                  [7]{}: in 0x217-0x218.7 (2)
0x210|                     23                        |       #        |                    global.get: 0x23 (valid) 0x217-0x217.7 (1)
0x210|                        00                     |        .       |                    x: 0 0x218-0x218.7 (1)
     |                                               |                |                  [8]{}: in 0x219-0x21c.7 (4)
0x210|                           fd                  |         .      |                    prefix: 0xfd (valid) 0x219-0x219.7 (1)
0x210|                              0b               |          .     |                    v128.store: 11 (valid) 0x21a-0x21a.7 (1)
     |                                               |                |                    m{}: 0x21b-0x21c.7 (2)
0x210|                                 04            |           .    |                      a: 4 0x21b-0x21b.7 (1)
0x210|                                    01         |            .   |                      o: 1 0x21c-0x21c.7 (1)
     |                                               |                |                  [9]{}: in 0x21d-0x21e.7 (2)
0x210|                                       20      |                |                    local.get: 0x20 (valid) 0x21d-0x21d.7 (1)
0x210|                                          01   |              . |                    x: 1 0x21e-0x21e.7 (1)
     |                                               |                |                  [10]{}: in 0x21f-0x21f.7 (1)
0x210|                                             0b|               .|                    end: 0xb (valid) 0x21f-0x21f.7 (1)
     |                                               |                |            [4]{}: code 0x220-0x23e.7 (31)
0x220|1e                                             |.               |              size: 30 0x220-0x220.7 (1)
     |                                               |                |              code{}: 0x221-0x23e.7 (30)
     |                                               |                |                t{}: 0x221-0x223.7 (3)
0x220|   01                                          | .              |                  n: 1 0x221-0x221.7 (1)
     |                                               |                |                  x[0:1]: 0x222-0x223.7 (2)
     |                                               |                |                    [0]{}: t 0x222-0x223.7 (2)
0x220|      01                                       |  .             |                      n: 1 0x222-0x222.7 (1)
0x220|         7e                                    |   ~            |                      t: "i64" (0x7e) 0x223-0x223.7 (1)
     |                                               |                |                e[0:11]: 0x224-0x23e.7 (27)
     |                                               |                |                  [0]{}: in 0x224-0x225.7 (2)
0x220|            20                                 |                |                    local.get: 0x20 (valid) 0x224-0x224.7 (1)
0x220|               00                              |     .          |                    x: 0 0x225-0x225.7 (1)
     |                                               |                |                  [1]{}: in 0x226-0x227.7 (2)
0x220|                  20                           |                |                    local.get: 0x20 (valid) 0x226-0x226.7 (1)
0x220|                     01                        |       .        |                    x: 1 0x227-0x227.7 (1)
     |                                               |                |                  [2]{}: in 0x228-0x22c.7 (5)
0x220|                        fd                     |        .       |                    prefix: 0xfd (valid) 0x228-0x228.7 (1)
0x220|                           5b                  |         [      |                    v128.store64_lane: 91 (valid) 0x229-0x229.7 (1)
     |                                               |                |                    m{}: 0x22a-0x22b.7 (2)
0x220|                              00               |          .     |                      a: 0 0x22a-0x22a.7 (1)
0x220|                                 00            |           .    |                      o: 0 0x22b-0x22b.7 (1)
0x220|                                    00         |            .   |                    l: 0 0x22c-0x22c.7 (1)
     |                                               |                |                  [3]{}: in 0x22d-0x22e.7 (2)
0x220|                                       20      |                |                    local.get: 0x20 (valid) 0x22d-0x22d.7 (1)
0x220|                                          00   |              . |                    x: 0 0x22e-0x22e.7 (1)
     |                                               |                |                  [4]{}: in 0x22f-0x231.7 (3)
0x220|                                             29|               )|                    i64.load: 0x29 (valid) 0x22f-0x22f.7 (1)
     |                                               |                |                    m{}: 0x230-0x231.7 (2)
0x230|03                                             |.               |                      a: 3 0x230-0x230.7 (1)
0x230|   00                                          | .              |                      o: 0 0x231-0x231.7 (1)
     |                                               |                |                  [5]{}: in 0x232-0x233.7 (2)
0x230|      21                                       |  !             |                    local.set: 0x21 (valid) 0x232-0x232.7 (1)
0x230|         02                                    |   .            |                    x: 2 0x233-0x233.7 (1)
     |                                               |                |                  [6]{}: in 0x234-0x235.7 (2)
0x230|            41                                 |    A           |                    i32.const: 0x41 (valid) 0x234-0x234.7 (1)
0x230|               00                              |     .          |                    n: 0 0x235-0x235.7 (1)
     |                                               |                |                  [7]{}: in 0x236-0x237.7 (2)
0x230|                  23                           |      #         |                    global.get: 0x23 (valid) 0x236-0x236.7 (1)
0x230|                     00                        |       .        |                    x: 0 0x237-0x237.7 (1)
     |                                               |                |                  [8]{}: in 0x238-0x23b.7 (4)
0x230|                        fd                     |        .       |                    prefix: 0xfd (valid) 0x238-0x238.7 (1)
0x230|                           0b                  |         .      |                    v128.store: 11 (valid) 0x239-0x239.7 (1)
     |                                               |                |                    m{}: 0x23a-0x23b.7 (2)
0x230|                              04               |          .     |                      a: 4 0x23a-0x23a.7 (1)
0x230|                                 00            |           .    |                      o: 0 0x23b-0x23b.7 (1)
     |                                               |                |                  [9]{}: in 0x23c-0x23d.7 (2)
0x230|                                    20         |                |                    local.get: 0x20 (valid) 0x23c-0x23c.7 (1)
0x230|                                       02      |             .  |                    x: 2 0x23d-0x23d.7 (1)
     |                                               |                |                  [10]{}: in 0x23e-0x23e.7 (1)
0x230|                                          0b   |              . |                    end: 0xb (valid) 0x23e-0x23e.7 (1)
     |                                               |                |            [5]{}: code 0x23f-0x25d.7 (31)
0x230|                                             1e|               .|              size: 30 0x23f-0x23f.7 (1)
     |                                               |                |              code{}: 0x240-0x25d.7 (30)
     |                                               |                |                t{}: 0x240-0x242.7 (3)
0x240|01                                             |.               |                  n: 1 0x240-0x240.7 (1)
     |                                               |                |                  x[0:1]: 0x241-0x242.7 (2)
     |                                               |                |                    [0]{}: t 0x241-0x242.7 (2)
0x240|   01                                          | .              |                      n: 1 0x241-0x241.7 (1)
0x240|      7e                                       |  ~             |                      t: "i64" (0x7e) 0x242-0x242.7 (1)
     |                                               |                |                e[0:11]: 0x243-0x25d.7 (27)
     |                                               |                |                  [0]{}: in 0x243-0x244.7 (2)
0x240|         20                                    |                |                    local.get: 0x20 (valid) 0x243-0x243.7 (1)
0x240|            00                                 |    .           |                    x: 0 0x244-0x244.7 (1)
     |                                               |                |                  [1]{}: in 0x245-0x246.7 (2)
0x240|               20                              |                |                    local.get: 0x20 (valid) 0x245-0x245.7 (1)
0x240|                  01                           |      .         |                    x: 1 0x246-0x246.7 (1)
     |                                               |                |                  [2]{}: in 0x247-0x24b.7 (5)
0x240|                     fd                        |       .        |                    prefix: 0xfd (valid) 0x247-0x247.7 (1)
0x240|                        5b                     |        [       |                    v128.store64_lane: 91 (valid) 0x248-0x248.7 (1)
     |                                               |                |                    m{}: 0x249-0x24a.7 (2)
0x240|                           01                  |         .      |                      a: 1 0x249-0x249.7 (1)
0x240|                              00               |          .     |                      o: 0 0x24a-0x24a.7 (1)
0x240|                                 00            |           .    |                    l: 0 0x24b-0x24b.7 (1)
     |                                               |                |                  [3]{}: in 0x24c-0x24d.7 (2)
0x240|                                    20         |                |                    local.get: 0x20 (valid) 0x24c-0x24c.7 (1)
0x240|                                       00      |             .  |                    x: 0 0x24d-0x24d.7 (1)
     |                                               |                |                  [4]{}: in 0x24e-0x250.7 (3)
0x240|                                          29   |              ) |                    i64.load: 0x29 (valid) 0x24e-0x24e.7 (1)
     |                                               |                |                    m{}: 0x24f-0x250.7 (2)
0x240|                                             03|               .|                      a: 3 0x24f-0x24f.7 (1)
0x250|00                                             |.               |                      o: 0 0x250-0x250.7 (1)
     |                                               |                |                  [5]{}: in 0x251-0x252.7 (2)
0x250|   21                                          | !              |                    local.set: 0x21 (valid) 0x251-0x251.7 (1)
0x250|      02                                       |  .             |                    x: 2 0x252-0x252.7 (1)
     |                                               |                |                  [6]{}: in 0x253-0x254.7 (2)
0x250|         41                                    |   A            |                    i32.const: 0x41 (valid) 0x253-0x253.7 (1)
0x250|            00                                 |    .           |                    n: 0 0x254-0x254.7 (1)
     |                                               |                |                  [7]{}: in 0x255-0x256.7 (2)
0x250|               23                              |     #          |                    global.get: 0x23 (valid) 0x255-0x255.7 (1)
0x250|                  00                           |      .         |                    x: 0 0x256-0x256.7 (1)
     |                                               |                |                  [8]{}: in 0x257-0x25a.7 (4)
0x250|                     fd                        |       .        |                    prefix: 0xfd (valid) 0x257-0x257.7 (1)
0x250|                        0b                     |        .       |                    v128.store: 11 (valid) 0x258-0x258.7 (1)
     |                                               |                |                    m{}: 0x259-0x25a.7 (2)
0x250|                           04                  |         .      |                      a: 4 0x259-0x259.7 (1)
0x250|                              00               |          .     |                      o: 0 0x25a-0x25a.7 (1)
     |                                               |                |                  [9]{}: in 0x25b-0x25c.7 (2)
0x250|                                 20            |                |                    local.get: 0x20 (valid) 0x25b-0x25b.7 (1)
0x250|                                    02         |            .   |                    x: 2 0x25c-0x25c.7 (1)
     |                                               |                |                  [10]{}: in 0x25d-0x25d.7 (1)
0x250|                                       0b      |             .  |                    end: 0xb (valid) 0x25d-0x25d.7 (1)
     |                                               |                |            [6]{}: code 0x25e-0x27c.7 (31)
0x250|                                          1e   |              . |              size: 30 0x25e-0x25e.7 (1)
     |                                               |                |              code{}: 0x25f-0x27c.7 (30)
     |                                               |                |                t{}: 0x25f-0x261.7 (3)
0x250|                                             01|               .|                  n: 1 0x25f-0x25f.7 (1)
     |                                               |                |                  x[0:1]: 0x260-0x261.7 (2)
     |                                               |                |                    [0]{}: t 0x260-0x261.7 (2)
0x260|01                                             |.               |                      n: 1 0x260-0x260.7 (1)
0x260|   7e                                          | ~              |                      t: "i64" (0x7e) 0x261-0x261.7 (1)
     |                                               |                |                e[0:11]: 0x262-0x27c.7 (27)
     |                                               |                |                  [0]{}: in 0x262-0x263.7 (2)
0x260|      20                                       |                |                    local.get: 0x20 (valid) 0x262-0x262.7 (1)
0x260|         00                                    |   .            |                    x: 0 0x263-0x263.7 (1)
     |                                               |                |                  [1]{}: in 0x264-0x265.7 (2)
0x260|            20                                 |                |                    local.get: 0x20 (valid) 0x264-0x264.7 (1)
0x260|               01                              |     .          |                    x: 1 0x265-0x265.7 (1)
     |                                               |                |                  [2]{}: in 0x266-0x26a.7 (5)
0x260|                  fd                           |      .         |                    prefix: 0xfd (valid) 0x266-0x266.7 (1)
0x260|                     5b                        |       [        |                    v128.store64_lane: 91 (valid) 0x267-0x267.7 (1)
     |                                               |                |                    m{}: 0x268-0x269.7 (2)
0x260|                        02                     |        .       |                      a: 2 0x268-0x268.7 (1)
0x260|                           00                  |         .      |                      o: 0 0x269-0x269.7 (1)
0x260|                              00               |          .     |                    l: 0 0x26a-0x26a.7 (1)
     |                                               |                |                  [3]{}: in 0x26b-0x26c.7 (2)
0x260|                                 20            |                |                    local.get: 0x20 (valid) 0x26b-0x26b.7 (1)
0x260|                                    00         |            .   |                    x: 0 0x26c-0x26c.7 (1)
     |                                               |                |                  [4]{}: in 0x26d-0x26f.7 (3)
0x260|                                       29      |             )  |                    i64.load: 0x29 (valid) 0x26d-0x26d.7 (1)
     |                                               |                |                    m{}: 0x26e-0x26f.7 (2)
0x260|                                          03   |              . |                      a: 3 0x26e-0x26e.7 (1)
0x260|                                             00|               .|                      o: 0 0x26f-0x26f.7 (1)
     |                                               |                |                  [5]{}: in 0x270-0x271.7 (2)
0x270|21                                             |!               |                    local.set: 0x21 (valid) 0x270-0x270.7 (1)
0x270|   02                                          | .              |                    x: 2 0x271-0x271.7 (1)
     |                                               |                |                  [6]{}: in 0x272-0x273.7 (2)
0x270|      41                                       |  A             |                    i32.const: 0x41 (valid) 0x272-0x272.7 (1)
0x270|         00                                    |   .            |                    n: 0 0x273-0x273.7 (1)
     |                                               |                |                  [7]{}: in 0x274-0x275.7 (2)
0x270|            23                                 |    #           |                    global.get: 0x23 (valid) 0x274-0x274.7 (1)
0x270|               00                              |     .          |                    x: 0 0x275-0x275.7 (1)
     |                                               |                |                  [8]{}: in 0x276-0x279.7 (4)
0x270|                  fd                           |      .         |                    prefix: 0xfd (valid) 0x276-0x276.7 (1)
0x270|                     0b                        |       .        |                    v128.store: 11 (valid) 0x277-0x277.7 (1)
     |                                               |                |                    m{}: 0x278-0x279.7 (2)
0x270|                        04                     |        .       |                      a: 4 0x278-0x278.7 (1)
0x270|                           00                  |         .      |                      o: 0 0x279-0x279.7 (1)
     |                                               |                |                  [9]{}: in 0x27a-0x27b.7 (2)
0x270|                              20               |                |                    local.get: 0x20 (valid) 0x27a-0x27a.7 (1)
0x270|                                 02            |           .    |                    x: 2 0x27b-0x27b.7 (1)
     |                                               |                |                  [10]{}: in 0x27c-0x27c.7 (1)
0x270|                                    0b         |            .   |                    end: 0xb (valid) 0x27c-0x27c.7 (1)
     |                                               |                |            [7]{}: code 0x27d-0x29b.7 (31)
0x270|                                       1e      |             .  |              size: 30 0x27d-0x27d.7 (1)
     |                                               |                |              code{}: 0x27e-0x29b.7 (30)
     |                                               |                |                t{}: 0x27e-0x280.7 (3)
0x270|                                          01   |              . |                  n: 1 0x27e-0x27e.7 (1)
     |                                               |                |                  x[0:1]: 0x27f-0x280.7 (2)
     |                                               |                |                    [0]{}: t 0x27f-0x280.7 (2)
0x270|                                             01|               .|                      n: 1 0x27f-0x27f.7 (1)
0x280|7e                                             |~               |                      t: "i64" (0x7e) 0x280-0x280.7 (1)
     |                                               |                |                e[0:11]: 0x281-0x29b.7 (27)
     |                                               |                |                  [0]{}: in 0x281-0x282.7 (2)
0x280|   20                                          |                |                    local.get: 0x20 (valid) 0x281-0x281.7 (1)
0x280|      00                                       |  .             |                    x: 0 0x282-0x282.7 (1)
     |                                               |                |                  [1]{}: in 0x283-0x284.7 (2)
0x280|         20                                    |                |                    local.get: 0x20 (valid) 0x283-0x283.7 (1)
0x280|            01                                 |    .           |                    x: 1 0x284-0x284.7 (1)
     |                                               |                |                  [2]{}: in 0x285-0x289.7 (5)
0x280|               fd                              |     .          |                    prefix: 0xfd (valid) 0x285-0x285.7 (1)
0x280|                  5b                           |      [         |                    v128.store64_lane: 91 (valid) 0x286-0x286.7 (1)
     |                                               |                |                    m{}: 0x287-0x288.7 (2)
0x280|                     03                        |       .        |                      a: 3 0x287-0x287.7 (1)
0x280|                        00                     |        .       |                      o: 0 0x288-0x288.7 (1)
0x280|                           00                  |         .      |                    l: 0 0x289-0x289.7 (1)
     |                                               |                |                  [3]{}: in 0x28a-0x28b.7 (2)
0x280|                              20               |                |                    local.get: 0x20 (valid) 0x28a-0x28a.7 (1)
0x280|                                 00            |           .    |                    x: 0 0x28b-0x28b.7 (1)
     |                                               |                |                  [4]{}: in 0x28c-0x28e.7 (3)
0x280|                                    29         |            )   |                    i64.load: 0x29 (valid) 0x28c-0x28c.7 (1)
     |                                               |                |                    m{}: 0x28d-0x28e.7 (2)
0x280|                                       03      |             .  |                      a: 3 0x28d-0x28d.7 (1)
0x280|                                          00   |              . |                      o: 0 0x28e-0x28e.7 (1)
     |                                               |                |                  [5]{}: in 0x28f-0x290.7 (2)
0x280|                                             21|               !|                    local.set: 0x21 (valid) 0x28f-0x28f.7 (1)
0x290|02                                             |.               |                    x: 2 0x290-0x290.7 (1)
     |                                               |                |                  [6]{}: in 0x291-0x292.7 (2)
0x290|   41                                          | A              |                    i32.const: 0x41 (valid) 0x291-0x291.7 (1)
0x290|      00                                       |  .             |                    n: 0 0x292-0x292.7 (1)
     |                                               |                |                  [7]{}: in 0x293-0x294.7 (2)
0x290|         23                                    |   #            |                    global.get: 0x23 (valid) 0x293-0x293.7 (1)
0x290|            00                                 |    .           |                    x: 0 0x294-0x294.7 (1)
     |                                               |                |                  [8]{}: in 0x295-0x298.7 (4)
0x290|               fd                              |     .          |                    prefix: 0xfd (valid) 0x295-0x295.7 (1)
0x290|                  0b                           |      .         |                    v128.store: 11 (valid) 0x296-0x296.7 (1)
     |                                               |                |                    m{}: 0x297-0x298.7 (2)
0x290|                     04                        |       .        |                      a: 4 0x297-0x297.7 (1)
0x290|                        00                     |        .       |                      o: 0 0x298-0x298.7 (1)
     |                                               |                |                  [9]{}: in 0x299-0x29a.7 (2)
0x290|                           20                  |                |                    local.get: 0x20 (valid) 0x299-0x299.7 (1)
0x290|                              02               |          .     |                    x: 2 0x29a-0x29a.7 (1)
     |                                               |                |                  [10]{}: in 0x29b-0x29b.7 (1)
0x290|                                 0b            |           .    |                    end: 0xb (valid) 0x29b-0x29b.7 (1)
     |                                               |                |            [8]{}: code 0x29c-0x2ba.7 (31)
0x290|                                    1e         |            .   |              size: 30 0x29c-0x29c.7 (1)
     |                                               |                |              code{}: 0x29d-0x2ba.7 (30)
     |                                               |                |                t{}: 0x29d-0x29f.7 (3)
0x290|                                       01      |             .  |                  n: 1 0x29d-0x29d.7 (1)
     |                                               |                |                  x[0:1]: 0x29e-0x29f.7 (2)
     |                                               |                |                    [0]{}: t 0x29e-0x29f.7 (2)
0x290|                                          01   |              . |                      n: 1 0x29e-0x29e.7 (1)
0x290|                                             7e|               ~|                      t: "i64" (0x7e) 0x29f-0x29f.7 (1)
     |                                               |                |                e[0:11]: 0x2a0-0x2ba.7 (27)
     |                                               |                |                  [0]{}: in 0x2a0-0x2a1.7 (2)
0x2a0|20                                             |                |                    local.get: 0x20 (valid) 0x2a0-0x2a0.7 (1)
0x2a0|   00                                          | .              |                    x: 0 0x2a1-0x2a1.7 (1)
     |                                               |                |                  [1]{}: in 0x2a2-0x2a3.7 (2)
0x2a0|      20                                       |                |                    local.get: 0x20 (valid) 0x2a2-0x2a2.7 (1)
0x2a0|         01                                    |   .            |                    x: 1 0x2a3-0x2a3.7 (1)
     |                                               |                |                  [2]{}: in 0x2a4-0x2a8.7 (5)
0x2a0|            fd                                 |    .           |                    prefix: 0xfd (valid) 0x2a4-0x2a4.7 (1)
0x2a0|               5b                              |     [          |                    v128.store64_lane: 91 (valid) 0x2a5-0x2a5.7 (1)
     |                                               |                |                    m{}: 0x2a6-0x2a7.7 (2)
0x2a0|                  00                           |      .         |                      a: 0 0x2a6-0x2a6.7 (1)
0x2a0|                     00                        |       .        |                      o: 0 0x2a7-0x2a7.7 (1)
0x2a0|                        01                     |        .       |                    l: 1 0x2a8-0x2a8.7 (1)
     |                                               |                |                  [3]{}: in 0x2a9-0x2aa.7 (2)
0x2a0|                           20                  |                |                    local.get: 0x20 (valid) 0x2a9-0x2a9.7 (1)
0x2a0|                              00               |          .     |                    x: 0 0x2aa-0x2aa.7 (1)
     |                                               |                |                  [4]{}: in 0x2ab-0x2ad.7 (3)
0x2a0|                                 29            |           )    |                    i64.load: 0x29 (valid) 0x2ab-0x2ab.7 (1)
     |                                               |                |                    m{}: 0x2ac-0x2ad.7 (2)
0x2a0|                                    03         |            .   |                      a: 3 0x2ac-0x2ac.7 (1)
0x2a0|                                       00      |             .  |                      o: 0 0x2ad-0x2ad.7 (1)
     |                                               |                |                  [5]{}: in 0x2ae-0x2af.7 (2)
0x2a0|                                          21   |              ! |                    local.set: 0x21 (valid) 0x2ae-0x2ae.7 (1)
0x2a0|                                             02|               .|                    x: 2 0x2af-0x2af.7 (1)
     |                                               |                |                  [6]{}: in 0x2b0-0x2b1.7 (2)
0x2b0|41                                             |A               |                    i32.const: 0x41 (valid) 0x2b0-0x2b0.7 (1)
0x2b0|   00                                          | .              |                    n: 0 0x2b1-0x2b1.7 (1)
     |                                               |                |                  [7]{}: in 0x2b2-0x2b3.7 (2)
0x2b0|      23                                       |  #             |                    global.get: 0x23 (valid) 0x2b2-0x2b2.7 (1)
0x2b0|         00                                    |   .            |                    x: 0 0x2b3-0x2b3.7 (1)
     |                                               |                |                  [8]{}: in 0x2b4-0x2b7.7 (4)
0x2b0|            fd                                 |    .           |                    prefix: 0xfd (valid) 0x2b4-0x2b4.7 (1)
0x2b0|               0b                              |     .          |                    v128.store: 11 (valid) 0x2b5-0x2b5.7 (1)
     |                                               |                |                    m{}: 0x2b6-0x2b7.7 (2)
0x2b0|                  04                           |      .         |                      a: 4 0x2b6-0x2b6.7 (1)
0x2b0|                     01                        |       .        |                      o: 1 0x2b7-0x2b7.7 (1)
     |                                               |                |                  [9]{}: in 0x2b8-0x2b9.7 (2)
0x2b0|                        20                     |                |                    local.get: 0x20 (valid) 0x2b8-0x2b8.7 (1)
0x2b0|                           02                  |         .      |                    x: 2 0x2b9-0x2b9.7 (1)
     |                                               |                |                  [10]{}: in 0x2ba-0x2ba.7 (1)
0x2b0|                              0b               |          .     |                    end: 0xb (valid) 0x2ba-0x2ba.7 (1)
     |                                               |                |            [9]{}: code 0x2bb-0x2d9.7 (31)
0x2b0|                                 1e            |           .    |              size: 30 0x2bb-0x2bb.7 (1)
     |                                               |                |              code{}: 0x2bc-0x2d9.7 (30)
     |                                               |                |                t{}: 0x2bc-0x2be.7 (3)
0x2b0|                                    01         |            .   |                  n: 1 0x2bc-0x2bc.7 (1)
     |                                               |                |                  x[0:1]: 0x2bd-0x2be.7 (2)
     |                                               |                |                    [0]{}: t 0x2bd-0x2be.7 (2)
0x2b0|                                       01      |             .  |                      n: 1 0x2bd-0x2bd.7 (1)
0x2b0|                                          7e   |              ~ |                      t: "i64" (0x7e) 0x2be-0x2be.7 (1)
     |                                               |                |                e[0:11]: 0x2bf-0x2d9.7 (27)
     |                                               |                |                  [0]{}: in 0x2bf-0x2c0.7 (2)
0x2b0|                                             20|                |                    local.get: 0x20 (valid) 0x2bf-0x2bf.7 (1)
0x2c0|00                                             |.               |                    x: 0 0x2c0-0x2c0.7 (1)
     |                                               |                |                  [1]{}: in 0x2c1-0x2c2.7 (2)
0x2c0|   20                                          |                |                    local.get: 0x20 (valid) 0x2c1-0x2c1.7 (1)
0x2c0|      01                                       |  .             |                    x: 1 0x2c2-0x2c2.7 (1)
     |                                               |                |                  [2]{}: in 0x2c3-0x2c7.7 (5)
0x2c0|         fd                                    |   .            |                    prefix: 0xfd (valid) 0x2c3-0x2c3.7 (1)
0x2c0|            5b                                 |    [           |                    v128.store64_lane: 91 (valid) 0x2c4-0x2c4.7 (1)
     |                                               |                |                    m{}: 0x2c5-0x2c6.7 (2)
0x2c0|               01                              |     .          |                      a: 1 0x2c5-0x2c5.7 (1)
0x2c0|                  00                           |      .         |                      o: 0 0x2c6-0x2c6.7 (1)
0x2c0|                     01                        |       .        |                    l: 1 0x2c7-0x2c7.7 (1)
     |                                               |                |                  [3]{}: in 0x2c8-0x2c9.7 (2)
0x2c0|                        20                     |                |                    local.get: 0x20 (valid) 0x2c8-0x2c8.7 (1)
0x2c0|                           00                  |         .      |                    x: 0 0x2c9-0x2c9.7 (1)
     |                                               |                |                  [4]{}: in 0x2ca-0x2cc.7 (3)
0x2c0|                              29               |          )     |                    i64.load: 0x29 (valid) 0x2ca-0x2ca.7 (1)
     |                                               |                |                    m{}: 0x2cb-0x2cc.7 (2)
0x2c0|                                 03            |           .    |                      a: 3 0x2cb-0x2cb.7 (1)
0x2c0|                                    00         |            .   |                      o: 0 0x2cc-0x2cc.7 (1)
     |                                               |                |                  [5]{}: in 0x2cd-0x2ce.7 (2)
0x2c0|                                       21      |             !  |                    local.set: 0x21 (valid) 0x2cd-0x2cd.7 (1)
0x2c0|                                          02   |              . |                    x: 2 0x2ce-0x2ce.7 (1)
     |                                               |                |                  [6]{}: in 0x2cf-0x2d0.7 (2)
0x2c0|                                             41|               A|                    i32.const: 0x41 (valid) 0x2cf-0x2cf.7 (1)
0x2d0|00                                             |.               |                    n: 0 0x2d0-0x2d0.7 (1)
     |                                               |                |                  [7]{}: in 0x2d1-0x2d2.7 (2)
0x2d0|   23                                          | #              |                    global.get: 0x23 (valid) 0x2d1-0x2d1.7 (1)
0x2d0|      00                                       |  .             |                    x: 0 0x2d2-0x2d2.7 (1)
     |                                               |                |                  [8]{}: in 0x2d3-0x2d6.7 (4)
0x2d0|         fd                                    |   .            |                    prefix: 0xfd (valid) 0x2d3-0x2d3.7 (1)
0x2d0|            0b                                 |    .           |                    v128.store: 11 (valid) 0x2d4-0x2d4.7 (1)
     |                                               |                |                    m{}: 0x2d5-0x2d6.7 (2)
0x2d0|               04                              |     .          |                      a: 4 0x2d5-0x2d5.7 (1)
0x2d0|                  01                           |      .         |                      o: 1 0x2d6-0x2d6.7 (1)
     |                                               |                |                  [9]{}: in 0x2d7-0x2d8.7 (2)
0x2d0|                     20                        |                |                    local.get: 0x20 (valid) 0x2d7-0x2d7.7 (1)
0x2d0|                        02                     |        .       |                    x: 2 0x2d8-0x2d8.7 (1)
     |                                               |                |                  [10]{}: in 0x2d9-0x2d9.7 (1)
0x2d0|                           0b                  |         .      |                    end: 0xb (valid) 0x2d9-0x2d9.7 (1)
     |                                               |                |            [10]{}: code 0x2da-0x2f8.7 (31)
0x2d0|                              1e               |          .     |              size: 30 0x2da-0x2da.7 (1)
     |                                               |                |              code{}: 0x2db-0x2f8.7 (30)
     |                                               |                |                t{}: 0x2db-0x2dd.7 (3)
0x2d0|                                 01            |           .    |                  n: 1 0x2db-0x2db.7 (1)
     |                                               |                |                  x[0:1]: 0x2dc-0x2dd.7 (2)
     |                                               |                |                    [0]{}: t 0x2dc-0x2dd.7 (2)
0x2d0|                                    01         |            .   |                      n: 1 0x2dc-0x2dc.7 (1)
0x2d0|                                       7e      |             ~  |                      t: "i64" (0x7e) 0x2dd-0x2dd.7 (1)
     |                                               |                |                e[0:11]: 0x2de-0x2f8.7 (27)
     |                                               |                |                  [0]{}: in 0x2de-0x2df.7 (2)
0x2d0|                                          20   |                |                    local.get: 0x20 (valid) 0x2de-0x2de.7 (1)
0x2d0|                                             00|               .|                    x: 0 0x2df-0x2df.7 (1)
     |                                               |                |                  [1]{}: in 0x2e0-0x2e1.7 (2)
0x2e0|20                                             |                |                    local.get: 0x20 (valid) 0x2e0-0x2e0.7 (1)
0x2e0|   01                                          | .              |                    x: 1 0x2e1-0x2e1.7 (1)
     |                                               |                |                  [2]{}: in 0x2e2-0x2e6.7 (5)
0x2e0|      fd                                       |  .             |                    prefix: 0xfd (valid) 0x2e2-0x2e2.7 (1)
0x2e0|         5b                                    |   [            |                    v128.store64_lane: 91 (valid) 0x2e3-0x2e3.7 (1)
     |                                               |                |                    m{}: 0x2e4-0x2e5.7 (2)
0x2e0|            02                                 |    .           |                      a: 2 0x2e4-0x2e4.7 (1)
0x2e0|               00                              |     .          |                      o: 0 0x2e5-0x2e5.7 (1)
0x2e0|                  01                           |      .         |                    l: 1 0x2e6-0x2e6.7 (1)
     |                                               |                |                  [3]{}: in 0x2e7-0x2e8.7 (2)
0x2e0|                     20                        |                |                    local.get: 0x20 (valid) 0x2e7-0x2e7.7 (1)
0x2e0|                        00                     |        .       |                    x: 0 0x2e8-0x2e8.7 (1)
     |                                               |                |                  [4]{}: in 0x2e9-0x2eb.7 (3)
0x2e0|                           29                  |         )      |                    i64.load: 0x29 (valid) 0x2e9-0x2e9.7 (1)
     |                                               |                |                    m{}: 0x2ea-0x2eb.7 (2)
0x2e0|                              03               |          .     |                      a: 3 0x2ea-0x2ea.7 (1)
0x2e0|                                 00            |           .    |                      o: 0 0x2eb-0x2eb.7 (1)
     |                                               |                |                  [5]{}: in 0x2ec-0x2ed.7 (2)
0x2e0|                                    21         |            !   |                    local.set: 0x21 (valid) 0x2ec-0x2ec.7 (1)
0x2e0|                                       02      |             .  |                    x: 2 0x2ed-0x2ed.7 (1)
     |                                               |                |                  [6]{}: in 0x2ee-0x2ef.7 (2)
0x2e0|                                          41   |              A |                    i32.const: 0x41 (valid) 0x2ee-0x2ee.7 (1)
0x2e0|                                             00|               .|                    n: 0 0x2ef-0x2ef.7 (1)
     |                                               |                |                  [7]{}: in 0x2f0-0x2f1.7 (2)
0x2f0|23                                             |#               |                    global.get: 0x23 (valid) 0x2f0-0x2f0.7 (1)
0x2f0|   00                                          | .              |                    x: 0 0x2f1-0x2f1.7 (1)
     |                                               |                |                  [8]{}: in 0x2f2-0x2f5.7 (4)
0x2f0|      fd                                       |  .             |                    prefix: 0xfd (valid) 0x2f2-0x2f2.7 (1)
0x2f0|         0b                                    |   .            |                    v128.store: 11 (valid) 0x2f3-0x2f3.7 (1)
     |                                               |                |                    m{}: 0x2f4-0x2f5.7 (2)
0x2f0|            04                                 |    .           |                      a: 4 0x2f4-0x2f4.7 (1)
0x2f0|               01                              |     .          |                      o: 1 0x2f5-0x2f5.7 (1)
     |                                               |                |                  [9]{}: in 0x2f6-0x2f7.7 (2)
0x2f0|                  20                           |                |                    local.get: 0x20 (valid) 0x2f6-0x2f6.7 (1)
0x2f0|                     02                        |       .        |                    x: 2 0x2f7-0x2f7.7 (1)
     |                                               |                |                  [10]{}: in 0x2f8-0x2f8.7 (1)
0x2f0|                        0b                     |        .       |                    end: 0xb (valid) 0x2f8-0x2f8.7 (1)
     |                                               |                |            [11]{}: code 0x2f9-0x317.7 (31)
0x2f0|                           1e                  |         .      |              size: 30 0x2f9-0x2f9.7 (1)
     |                                               |                |              code{}: 0x2fa-0x317.7 (30)
     |                                               |                |                t{}: 0x2fa-0x2fc.7 (3)
0x2f0|                              01               |          .     |                  n: 1 0x2fa-0x2fa.7 (1)
     |                                               |                |                  x[0:1]: 0x2fb-0x2fc.7 (2)
     |                                               |                |                    [0]{}: t 0x2fb-0x2fc.7 (2)
0x2f0|                                 01            |           .    |                      n: 1 0x2fb-0x2fb.7 (1)
0x2f0|                                    7e         |            ~   |                      t: "i64" (0x7e) 0x2fc-0x2fc.7 (1)
     |                                               |                |                e[0:11]: 0x2fd-0x317.7 (27)
     |                                               |                |                  [0]{}: in 0x2fd-0x2fe.7 (2)
0x2f0|                                       20      |                |                    local.get: 0x20 (valid) 0x2fd-0x2fd.7 (1)
0x2f0|                                          00   |              . |                    x: 0 0x2fe-0x2fe.7 (1)
     |                                               |                |                  [1]{}: in 0x2ff-0x300.7 (2)
0x2f0|                                             20|                |                    local.get: 0x20 (valid) 0x2ff-0x2ff.7 (1)
0x300|01                                             |.               |                    x: 1 0x300-0x300.7 (1)
     |                                               |                |                  [2]{}: in 0x301-0x305.7 (5)
0x300|   fd                                          | .              |                    prefix: 0xfd (valid) 0x301-0x301.7 (1)
0x300|      5b                                       |  [             |                    v128.store64_lane: 91 (valid) 0x302-0x302.7 (1)
     |                                               |                |                    m{}: 0x303-0x304.7 (2)
0x300|         03                                    |   .            |                      a: 3 0x303-0x303.7 (1)
0x300|            00                                 |    .           |                      o: 0 0x304-0x304.7 (1)
0x300|               01                              |     .          |                    l: 1 0x305-0x305.7 (1)
     |                                               |                |                  [3]{}: in 0x306-0x307.7 (2)
0x300|                  20                           |                |                    local.get: 0x20 (valid) 0x306-0x306.7 (1)
0x300|                     00                        |       .        |                    x: 0 0x307-0x307.7 (1)
     |                                               |                |                  [4]{}: in 0x308-0x30a.7 (3)
0x300|                        29                     |        )       |                    i64.load: 0x29 (valid) 0x308-0x308.7 (1)
     |                                               |                |                    m{}: 0x309-0x30a.7 (2)
0x300|                           03                  |         .      |                      a: 3 0x309-0x309.7 (1)
0x300|                              00               |          .     |                      o: 0 0x30a-0x30a.7 (1)
     |                                               |                |                  [5]{}: in 0x30b-0x30c.7 (2)
0x300|                                 21            |           !    |                    local.set: 0x21 (valid) 0x30b-0x30b.7 (1)
0x300|                                    02         |            .   |                    x: 2 0x30c-0x30c.7 (1)
     |                                               |                |                  [6]{}: in 0x30d-0x30e.7 (2)
0x300|                                       41      |             A  |                    i32.const: 0x41 (valid) 0x30d-0x30d.7 (1)
0x300|                                          00   |              . |                    n: 0 0x30e-0x30e.7 (1)
     |                                               |                |                  [7]{}: in 0x30f-0x310.7 (2)
0x300|                                             23|               #|                    global.get: 0x23 (valid) 0x30f-0x30f.7 (1)
0x310|00                                             |.               |                    x: 0 0x310-0x310.7 (1)
     |                                               |                |                  [8]{}: in 0x311-0x314.7 (4)
0x310|   fd                                          | .              |                    prefix: 0xfd (valid) 0x311-0x311.7 (1)
0x310|      0b                                       |  .             |                    v128.store: 11 (valid) 0x312-0x312.7 (1)
     |                                               |                |                    m{}: 0x313-0x314.7 (2)
0x310|         04                                    |   .            |                      a: 4 0x313-0x313.7 (1)
0x310|            01                                 |    .           |                      o: 1 0x314-0x314.7 (1)
     |                                               |                |                  [9]{}: in 0x315-0x316.7 (2)
0x310|               20                              |                |                    local.get: 0x20 (valid) 0x315-0x315.7 (1)
0x310|                  02                           |      .         |                    x: 2 0x316-0x316.7 (1)
     |                                               |                |                  [10]{}: in 0x317-0x317.7 (1)
0x310|                     0b|                       |       .|       |                    end: 0xb (valid) 0x317-0x317.7 (1)
