$ fq -d wasm dv simd_conversions-1.wasm
     |00 01 02 03 04 05 06 07 08 09 0a 0b 0c 0d 0e 0f|0123456789abcdef|.{}: simd_conversions-1.wasm (wasm) 0x0-0x34a (842)
0x000|00 61 73 6d                                    |.asm            |  magic: raw bits (valid) 0x0-0x4 (4)
0x000|            01 00 00 00                        |    ....        |  version: 1 0x4-0x8 (4)
     |                                               |                |  sections[0:4]: 0x8-0x34a (834)
     |                                               |                |    [0]{}: section 0x8-0x11 (9)
0x000|                        01                     |        .       |      id: "type_section" (1) 0x8-0x9 (1)
0x000|                           07                  |         .      |      size: 7 (valid) 0x9-0xa (1)
     |                                               |                |      content{}: 0xa-0x11 (7)
     |                                               |                |        ft{}: 0xa-0x11 (7)
0x000|                              01               |          .     |          n: 1 (valid) 0xa-0xb (1)
     |                                               |                |          x[0:1]: 0xb-0x11 (6)
     |                                               |                |            [0]{}: ft 0xb-0x11 (6)
0x000|                                 60            |           `    |              tag: 0x60 (valid) 0xb-0xc (1)
     |                                               |                |              rt1{}: 0xc-0xf (3)
0x000|                                    02         |            .   |                n: 2 (valid) 0xc-0xd (1)
     |                                               |                |                x[0:2]: 0xd-0xf (2)
0x000|                                       7b      |             {  |                  [0]: "v128" (0x7b) t 0xd-0xe (1)
0x000|                                          7b   |              { |                  [1]: "v128" (0x7b) t 0xe-0xf (1)
     |                                               |                |              rt2{}: 0xf-0x11 (2)
0x000|                                             01|               .|                n: 1 (valid) 0xf-0x10 (1)
     |                                               |                |                x[0:1]: 0x10-0x11 (1)
0x010|7b                                             |{               |                  [0]: "v128" (0x7b) t 0x10-0x11 (1)
     |                                               |                |    [1]{}: section 0x11-0x27 (22)
0x010|   03                                          | .              |      id: "function_section" (3) 0x11-0x12 (1)
0x010|      14                                       |  .             |      size: 20 (valid) 0x12-0x13 (1)
     |                                               |                |      content{}: 0x13-0x27 (20)
     |                                               |                |        x{}: 0x13-0x27 (20)
0x010|         13                                    |   .            |          n: 19 (valid) 0x13-0x14 (1)
     |                                               |                |          x[0:19]: 0x14-0x27 (19)
0x010|            00                                 |    .           |            [0]: 0 x (valid) 0x14-0x15 (1)
0x010|               00                              |     .          |            [1]: 0 x (valid) 0x15-0x16 (1)
0x010|                  00                           |      .         |            [2]: 0 x (valid) 0x16-0x17 (1)
0x010|                     00                        |       .        |            [3]: 0 x (valid) 0x17-0x18 (1)
0x010|                        00                     |        .       |            [4]: 0 x (valid) 0x18-0x19 (1)
0x010|                           00                  |         .      |            [5]: 0 x (valid) 0x19-0x1a (1)
0x010|                              00               |          .     |            [6]: 0 x (valid) 0x1a-0x1b (1)
0x010|                                 00            |           .    |            [7]: 0 x (valid) 0x1b-0x1c (1)
0x010|                                    00         |            .   |            [8]: 0 x (valid) 0x1c-0x1d (1)
0x010|                                       00      |             .  |            [9]: 0 x (valid) 0x1d-0x1e (1)
0x010|                                          00   |              . |            [10]: 0 x (valid) 0x1e-0x1f (1)
0x010|                                             00|               .|            [11]: 0 x (valid) 0x1f-0x20 (1)
0x020|00                                             |.               |            [12]: 0 x (valid) 0x20-0x21 (1)
0x020|   00                                          | .              |            [13]: 0 x (valid) 0x21-0x22 (1)
0x020|      00                                       |  .             |            [14]: 0 x (valid) 0x22-0x23 (1)
0x020|         00                                    |   .            |            [15]: 0 x (valid) 0x23-0x24 (1)
0x020|            00                                 |    .           |            [16]: 0 x (valid) 0x24-0x25 (1)
0x020|               00                              |     .          |            [17]: 0 x (valid) 0x25-0x26 (1)
0x020|                  00                           |      .         |            [18]: 0 x (valid) 0x26-0x27 (1)
     |                                               |                |    [2]{}: section 0x27-0x257 (560)
0x020|                     07                        |       .        |      id: "export_section" (7) 0x27-0x28 (1)
0x020|                        ad 04                  |        ..      |      size: 557 (valid) 0x28-0x2a (2)
     |                                               |                |      content{}: 0x2a-0x257 (557)
     |                                               |                |        ex{}: 0x2a-0x257 (557)
0x020|                              13               |          .     |          n: 19 (valid) 0x2a-0x2b (1)
     |                                               |                |          x[0:19]: 0x2b-0x257 (556)
     |                                               |                |            [0]{}: ex 0x2b-0x47 (28)
     |                                               |                |              nm{}: 0x2b-0x45 (26)
0x020|                                 19            |           .    |                n: 25 (valid) 0x2b-0x2c (1)
0x020|                                    66 33 32 78|            f32x|                b: "f32x4_convert_i32x4_s_add" 0x2c-0x45 (25)
0x030|34 5f 63 6f 6e 76 65 72 74 5f 69 33 32 78 34 5f|4_convert_i32x4_|
0x040|73 5f 61 64 64                                 |s_add           |
     |                                               |                |              d{}: 0x45-0x47 (2)
0x040|               00                              |     .          |                tag: "funcidx" (0x0) 0x45-0x46 (1)
0x040|                  00                           |      .         |                x: 0 (valid) 0x46-0x47 (1)
     |                                               |                |            [1]{}: ex 0x47-0x63 (28)
     |                                               |                |              nm{}: 0x47-0x61 (26)
0x040|                     19                        |       .        |                n: 25 (valid) 0x47-0x48 (1)
0x040|                        66 33 32 78 34 5f 63 6f|        f32x4_co|                b: "f32x4_convert_i32x4_s_sub" 0x48-0x61 (25)
0x050|6e 76 65 72 74 5f 69 33 32 78 34 5f 73 5f 73 75|nvert_i32x4_s_su|
0x060|62                                             |b               |
     |                                               |                |              d{}: 0x61-0x63 (2)
0x060|   00                                          | .              |                tag: "funcidx" (0x0) 0x61-0x62 (1)
0x060|      01                                       |  .             |                x: 1 (valid) 0x62-0x63 (1)
     |                                               |                |            [2]{}: ex 0x63-0x7f (28)
     |                                               |                |              nm{}: 0x63-0x7d (26)
0x060|         19                                    |   .            |                n: 25 (valid) 0x63-0x64 (1)
0x060|            66 33 32 78 34 5f 63 6f 6e 76 65 72|    f32x4_conver|                b: "f32x4_convert_i32x4_u_mul" 0x64-0x7d (25)
0x070|74 5f 69 33 32 78 34 5f 75 5f 6d 75 6c         |t_i32x4_u_mul   |
     |                                               |                |              d{}: 0x7d-0x7f (2)
0x070|                                       00      |             .  |                tag: "funcidx" (0x0) 0x7d-0x7e (1)
0x070|                                          02   |              . |                x: 2 (valid) 0x7e-0x7f (1)
     |                                               |                |            [3]{}: ex 0x7f-0x9c (29)
     |                                               |                |              nm{}: 0x7f-0x9a (27)
0x070|                                             1a|               .|                n: 26 (valid) 0x7f-0x80 (1)
0x080|69 31 36 78 38 5f 6c 6f 77 5f 65 78 74 65 6e 64|i16x8_low_extend|                b: "i16x8_low_extend_narrow_ss" 0x80-0x9a (26)
0x090|5f 6e 61 72 72 6f 77 5f 73 73                  |_narrow_ss      |
     |                                               |                |              d{}: 0x9a-0x9c (2)
0x090|                              00               |          .     |                tag: "funcidx" (0x0) 0x9a-0x9b (1)
0x090|                                 03            |           .    |                x: 3 (valid) 0x9b-0x9c (1)
     |                                               |                |            [4]{}: ex 0x9c-0xb9 (29)
     |                                               |                |              nm{}: 0x9c-0xb7 (27)
0x090|                                    1a         |            .   |                n: 26 (valid) 0x9c-0x9d (1)
0x090|                                       69 31 36|             i16|                b: "i16x8_low_extend_narrow_su" 0x9d-0xb7 (26)
0x0a0|78 38 5f 6c 6f 77 5f 65 78 74 65 6e 64 5f 6e 61|x8_low_extend_na|
0x0b0|72 72 6f 77 5f 73 75                           |rrow_su         |
     |                                               |                |              d{}: 0xb7-0xb9 (2)
0x0b0|                     00                        |       .        |                tag: "funcidx" (0x0) 0xb7-0xb8 (1)
0x0b0|                        04                     |        .       |                x: 4 (valid) 0xb8-0xb9 (1)
     |                                               |                |            [5]{}: ex 0xb9-0xd7 (30)
     |                                               |                |              nm{}: 0xb9-0xd5 (28)
0x0b0|                           1b                  |         .      |                n: 27 (valid) 0xb9-0xba (1)
0x0b0|                              69 31 36 78 38 5f|          i16x8_|                b: "i16x8_high_extend_narrow_ss" 0xba-0xd5 (27)
0x0c0|68 69 67 68 5f 65 78 74 65 6e 64 5f 6e 61 72 72|high_extend_narr|
0x0d0|6f 77 5f 73 73                                 |ow_ss           |
     |                                               |                |              d{}: 0xd5-0xd7 (2)
0x0d0|               00                              |     .          |                tag: "funcidx" (0x0) 0xd5-0xd6 (1)
0x0d0|                  05                           |      .         |                x: 5 (valid) 0xd6-0xd7 (1)
     |                                               |                |            [6]{}: ex 0xd7-0xf5 (30)
     |                                               |                |              nm{}: 0xd7-0xf3 (28)
0x0d0|                     1b                        |       .        |                n: 27 (valid) 0xd7-0xd8 (1)
0x0d0|                        69 31 36 78 38 5f 68 69|        i16x8_hi|                b: "i16x8_high_extend_narrow_su" 0xd8-0xf3 (27)
0x0e0|67 68 5f 65 78 74 65 6e 64 5f 6e 61 72 72 6f 77|gh_extend_narrow|
0x0f0|5f 73 75                                       |_su             |
     |                                               |                |              d{}: 0xf3-0xf5 (2)
0x0f0|         00                                    |   .            |                tag: "funcidx" (0x0) 0xf3-0xf4 (1)
0x0f0|            06                                 |    .           |                x: 6 (valid) 0xf4-0xf5 (1)
     |                                               |                |            [7]{}: ex 0xf5-0x112 (29)
     |                                               |                |              nm{}: 0xf5-0x110 (27)
0x0f0|               1a                              |     .          |                n: 26 (valid) 0xf5-0xf6 (1)
0x0f0|                  69 31 36 78 38 5f 6c 6f 77 5f|      i16x8_low_|                b: "i16x8_low_extend_narrow_uu" 0xf6-0x110 (26)
0x100|65 78 74 65 6e 64 5f 6e 61 72 72 6f 77 5f 75 75|extend_narrow_uu|
     |                                               |                |              d{}: 0x110-0x112 (2)
0x110|00                                             |.               |                tag: "funcidx" (0x0) 0x110-0x111 (1)
0x110|   07                                          | .              |                x: 7 (valid) 0x111-0x112 (1)
     |                                               |                |            [8]{}: ex 0x112-0x12f (29)
     |                                               |                |              nm{}: 0x112-0x12d (27)
0x110|      1a                                       |  .             |                n: 26 (valid) 0x112-0x113 (1)
0x110|         69 31 36 78 38 5f 6c 6f 77 5f 65 78 74|   i16x8_low_ext|                b: "i16x8_low_extend_narrow_us" 0x113-0x12d (26)
0x120|65 6e 64 5f 6e 61 72 72 6f 77 5f 75 73         |end_narrow_us   |
     |                                               |                |              d{}: 0x12d-0x12f (2)
0x120|                                       00      |             .  |                tag: "funcidx" (0x0) 0x12d-0x12e (1)
0x120|                                          08   |              . |                x: 8 (valid) 0x12e-0x12f (1)
     |                                               |                |            [9]{}: ex 0x12f-0x14d (30)
     |                                               |                |              nm{}: 0x12f-0x14b (28)
0x120|                                             1b|               .|                n: 27 (valid) 0x12f-0x130 (1)
0x130|69 31 36 78 38 5f 68 69 67 68 5f 65 78 74 65 6e|i16x8_high_exten|                b: "i16x8_high_extend_narrow_uu" 0x130-0x14b (27)
0x140|64 5f 6e 61 72 72 6f 77 5f 75 75               |d_narrow_uu     |
     |                                               |                |              d{}: 0x14b-0x14d (2)
0x140|                                 00            |           .    |                tag: "funcidx" (0x0) 0x14b-0x14c (1)
0x140|                                    09         |            .   |                x: 9 (valid) 0x14c-0x14d (1)
     |                                               |                |            [10]{}: ex 0x14d-0x16b (30)
     |                                               |                |              nm{}: 0x14d-0x169 (28)
0x140|                                       1b      |             .  |                n: 27 (valid) 0x14d-0x14e (1)
0x140|                                          69 31|              i1|                b: "i16x8_high_extend_narrow_us" 0x14e-0x169 (27)
0x150|36 78 38 5f 68 69 67 68 5f 65 78 74 65 6e 64 5f|6x8_high_extend_|
0x160|6e 61 72 72 6f 77 5f 75 73                     |narrow_us       |
     |                                               |                |              d{}: 0x169-0x16b (2)
0x160|                           00                  |         .      |                tag: "funcidx" (0x0) 0x169-0x16a (1)
0x160|                              0a               |          .     |                x: 10 (valid) 0x16a-0x16b (1)
     |                                               |                |            [11]{}: ex 0x16b-0x188 (29)
     |                                               |                |              nm{}: 0x16b-0x186 (27)
0x160|                                 1a            |           .    |                n: 26 (valid) 0x16b-0x16c (1)
0x160|                                    69 33 32 78|            i32x|                b: "i32x4_low_extend_narrow_ss" 0x16c-0x186 (26)
0x170|34 5f 6c 6f 77 5f 65 78 74 65 6e 64 5f 6e 61 72|4_low_extend_nar|
0x180|72 6f 77 5f 73 73                              |row_ss          |
     |                                               |                |              d{}: 0x186-0x188 (2)
0x180|                  00                           |      .         |                tag: "funcidx" (0x0) 0x186-0x187 (1)
0x180|                     0b                        |       .        |                x: 11 (valid) 0x187-0x188 (1)
     |                                               |                |            [12]{}: ex 0x188-0x1a5 (29)
     |                                               |                |              nm{}: 0x188-0x1a3 (27)
0x180|                        1a                     |        .       |                n: 26 (valid) 0x188-0x189 (1)
0x180|                           69 33 32 78 34 5f 6c|         i32x4_l|                b: "i32x4_low_extend_narrow_su" 0x189-0x1a3 (26)
0x190|6f 77 5f 65 78 74 65 6e 64 5f 6e 61 72 72 6f 77|ow_extend_narrow|
0x1a0|5f 73 75                                       |_su             |
     |                                               |                |              d{}: 0x1a3-0x1a5 (2)
0x1a0|         00                                    |   .            |                tag: "funcidx" (0x0) 0x1a3-0x1a4 (1)
0x1a0|            0c                                 |    .           |                x: 12 (valid) 0x1a4-0x1a5 (1)
     |                                               |                |            [13]{}: ex 0x1a5-0x1c3 (30)
     |                                               |                |              nm{}: 0x1a5-0x1c1 (28)
0x1a0|               1b                              |     .          |                n: 27 (valid) 0x1a5-0x1a6 (1)
0x1a0|                  69 33 32 78 34 5f 68 69 67 68|      i32x4_high|                b: "i32x4_high_extend_narrow_ss" 0x1a6-0x1c1 (27)
0x1b0|5f 65 78 74 65 6e 64 5f 6e 61 72 72 6f 77 5f 73|_extend_narrow_s|
0x1c0|73                                             |s               |
     |                                               |                |              d{}: 0x1c1-0x1c3 (2)
0x1c0|   00                                          | .              |                tag: "funcidx" (0x0) 0x1c1-0x1c2 (1)
0x1c0|      0d                                       |  .             |                x: 13 (valid) 0x1c2-0x1c3 (1)
     |                                               |                |            [14]{}: ex 0x1c3-0x1e1 (30)
     |                                               |                |              nm{}: 0x1c3-0x1df (28)
0x1c0|         1b                                    |   .            |                n: 27 (valid) 0x1c3-0x1c4 (1)
0x1c0|            69 33 32 78 34 5f 68 69 67 68 5f 65|    i32x4_high_e|                b: "i32x4_high_extend_narrow_su" 0x1c4-0x1df (27)
0x1d0|78 74 65 6e 64 5f 6e 61 72 72 6f 77 5f 73 75   |xtend_narrow_su |
     |                                               |                |              d{}: 0x1df-0x1e1 (2)
0x1d0|                                             00|               .|                tag: "funcidx" (0x0) 0x1df-0x1e0 (1)
0x1e0|0e                                             |.               |                x: 14 (valid) 0x1e0-0x1e1 (1)
     |                                               |                |            [15]{}: ex 0x1e1-0x1fe (29)
     |                                               |                |              nm{}: 0x1e1-0x1fc (27)
0x1e0|   1a                                          | .              |                n: 26 (valid) 0x1e1-0x1e2 (1)
0x1e0|      69 33 32 78 34 5f 6c 6f 77 5f 65 78 74 65|  i32x4_low_exte|                b: "i32x4_low_extend_narrow_uu" 0x1e2-0x1fc (26)
0x1f0|6e 64 5f 6e 61 72 72 6f 77 5f 75 75            |nd_narrow_uu    |
     |                                               |                |              d{}: 0x1fc-0x1fe (2)
0x1f0|                                    00         |            .   |                tag: "funcidx" (0x0) 0x1fc-0x1fd (1)
0x1f0|                                       0f      |             .  |                x: 15 (valid) 0x1fd-0x1fe (1)
     |                                               |                |            [16]{}: ex 0x1fe-0x21b (29)
     |                                               |                |              nm{}: 0x1fe-0x219 (27)
0x1f0|                                          1a   |              . |                n: 26 (valid) 0x1fe-0x1ff (1)
0x1f0|                                             69|               i|                b: "i32x4_low_extend_narrow_us" 0x1ff-0x219 (26)
0x200|33 32 78 34 5f 6c 6f 77 5f 65 78 74 65 6e 64 5f|32x4_low_extend_|
0x210|6e 61 72 72 6f 77 5f 75 73                     |narrow_us       |
     |                                               |                |              d{}: 0x219-0x21b (2)
0x210|                           00                  |         .      |                tag: "funcidx" (0x0) 0x219-0x21a (1)
0x210|                              10               |          .     |                x: 16 (valid) 0x21a-0x21b (1)
     |                                               |                |            [17]{}: ex 0x21b-0x239 (30)
     |                                               |                |              nm{}: 0x21b-0x237 (28)
0x210|                                 1b            |           .    |                n: 27 (valid) 0x21b-0x21c (1)
0x210|                                    69 33 32 78|            i32x|                b: "i32x4_high_extend_narrow_uu" 0x21c-0x237 (27)
0x220|34 5f 68 69 67 68 5f 65 78 74 65 6e 64 5f 6e 61|4_high_extend_na|
0x230|72 72 6f 77 5f 75 75                           |rrow_uu         |
     |                                               |                |              d{}: 0x237-0x239 (2)
0x230|                     00                        |       .        |                tag: "funcidx" (0x0) 0x237-0x238 (1)
0x230|                        11                     |        .       |                x: 17 (valid) 0x238-0x239 (1)
     |                                               |                |            [18]{}: ex 0x239-0x257 (30)
     |                                               |                |              nm{}: 0x239-0x255 (28)
0x230|                           1b                  |         .      |                n: 27 (valid) 0x239-0x23a (1)
0x230|                              69 33 32 78 34 5f|          i32x4_|                b: "i32x4_high_extend_narrow_us" 0x23a-0x255 (27)
0x240|68 69 67 68 5f 65 78 74 65 6e 64 5f 6e 61 72 72|high_extend_narr|
0x250|6f 77 5f 75 73                                 |ow_us           |
     |                                               |                |              d{}: 0x255-0x257 (2)
0x250|               00                              |     .          |                tag: "funcidx" (0x0) 0x255-0x256 (1)
0x250|                  12                           |      .         |                x: 18 (valid) 0x256-0x257 (1)
     |                                               |                |    [3]{}: section 0x257-0x34a (243)
0x250|                     0a                        |       .        |      id: "code_section" (10) 0x257-0x258 (1)
0x250|                        f0 01                  |        ..      |      size: 240 (valid) 0x258-0x25a (2)
     |                                               |                |      content{}: 0x25a-0x34a (240)
     |                                               |                |        code{}: 0x25a-0x34a (240)
0x250|                              13               |          .     |          n: 19 (valid) 0x25a-0x25b (1)
     |                                               |                |          x[0:19]: 0x25b-0x34a (239)
     |                                               |                |            [0]{}: code 0x25b-0x268 (13)
0x250|                                 0c            |           .    |              size: 12 (valid) 0x25b-0x25c (1)
     |                                               |                |              code{}: 0x25c-0x268 (12)
     |                                               |                |                t{}: 0x25c-0x25d (1)
0x250|                                    00         |            .   |                  n: 0 (valid) 0x25c-0x25d (1)
     |                                               |                |                  x[0:0]: 0x25d-0x25d (0)
     |                                               |                |                e[0:5]: 0x25d-0x268 (11)
     |                                               |                |                  [0]{}: in 0x25d-0x25f (2)
0x250|                                       20      |                |                    opcode: "local.get" (0x20) 0x25d-0x25e (1)
0x250|                                          00   |              . |                    x: 0 (valid) 0x25e-0x25f (1)
     |                                               |                |                  [1]{}: in 0x25f-0x261 (2)
0x250|                                             20|                |                    opcode: "local.get" (0x20) 0x25f-0x260 (1)
0x260|01                                             |.               |                    x: 1 (valid) 0x260-0x261 (1)
     |                                               |                |                  [2]{}: in 0x261-0x264 (3)
0x260|   fd                                          | .              |                    opcode: "vector" (0xfd) 0x261-0x262 (1)
0x260|      ae 01                                    |  ..            |                    v_opcode: "i32x4.add" (174) 0x262-0x264 (2)
     |                                               |                |                  [3]{}: in 0x264-0x267 (3)
0x260|            fd                                 |    .           |                    opcode: "vector" (0xfd) 0x264-0x265 (1)
0x260|               fa 01                           |     ..         |                    v_opcode: "f32x4.convert_i32x4_s" (250) 0x265-0x267 (2)
     |                                               |                |                  [4]{}: in 0x267-0x268 (1)
0x260|                     0b                        |       .        |                    opcode: "end" (0xb) 0x267-0x268 (1)
     |                                               |                |            [1]{}: code 0x268-0x275 (13)
0x260|                        0c                     |        .       |              size: 12 (valid) 0x268-0x269 (1)
     |                                               |                |              code{}: 0x269-0x275 (12)
     |                                               |                |                t{}: 0x269-0x26a (1)
0x260|                           00                  |         .      |                  n: 0 (valid) 0x269-0x26a (1)
     |                                               |                |                  x[0:0]: 0x26a-0x26a (0)
     |                                               |                |                e[0:5]: 0x26a-0x275 (11)
     |                                               |                |                  [0]{}: in 0x26a-0x26c (2)
0x260|                              20               |                |                    opcode: "local.get" (0x20) 0x26a-0x26b (1)
0x260|                                 00            |           .    |                    x: 0 (valid) 0x26b-0x26c (1)
     |                                               |                |                  [1]{}: in 0x26c-0x26e (2)
0x260|                                    20         |                |                    opcode: "local.get" (0x20) 0x26c-0x26d (1)
0x260|                                       01      |             .  |                    x: 1 (valid) 0x26d-0x26e (1)
     |                                               |                |                  [2]{}: in 0x26e-0x271 (3)
0x260|                                          fd   |              . |                    opcode: "vector" (0xfd) 0x26e-0x26f (1)
0x260|                                             b1|               .|                    v_opcode: "i32x4.sub" (177) 0x26f-0x271 (2)
0x270|01                                             |.               |
     |                                               |                |                  [3]{}: in 0x271-0x274 (3)
0x270|   fd                                          | .              |                    opcode: "vector" (0xfd) 0x271-0x272 (1)
0x270|      fa 01                                    |  ..            |                    v_opcode: "f32x4.convert_i32x4_s" (250) 0x272-0x274 (2)
     |                                               |                |                  [4]{}: in 0x274-0x275 (1)
0x270|            0b                                 |    .           |                    opcode: "end" (0xb) 0x274-0x275 (1)
     |                                               |                |            [2]{}: code 0x275-0x282 (13)
0x270|               0c                              |     .          |              size: 12 (valid) 0x275-0x276 (1)
     |                                               |                |              code{}: 0x276-0x282 (12)
     |                                               |                |                t{}: 0x276-0x277 (1)
0x270|                  00                           |      .         |                  n: 0 (valid) 0x276-0x277 (1)
     |                                               |                |                  x[0:0]: 0x277-0x277 (0)
     |                                               |                |                e[0:5]: 0x277-0x282 (11)
     |                                               |                |                  [0]{}: in 0x277-0x279 (2)
0x270|                     20                        |                |                    opcode: "local.get" (0x20) 0x277-0x278 (1)
0x270|                        00                     |        .       |                    x: 0 (valid) 0x278-0x279 (1)
     |                                               |                |                  [1]{}: in 0x279-0x27b (2)
0x270|                           20                  |                |                    opcode: "local.get" (0x20) 0x279-0x27a (1)
0x270|                              01               |          .     |                    x: 1 (valid) 0x27a-0x27b (1)
     |                                               |                |                  [2]{}: in 0x27b-0x27e (3)
0x270|                                 fd            |           .    |                    opcode: "vector" (0xfd) 0x27b-0x27c (1)
0x270|                                    b5 01      |            ..  |                    v_opcode: "i32x4.mul" (181) 0x27c-0x27e (2)
     |                                               |                |                  [3]{}: in 0x27e-0x281 (3)
0x270|                                          fd   |              . |                    opcode: "vector" (0xfd) 0x27e-0x27f (1)
0x270|                                             fb|               .|                    v_opcode: "f32x4.convert_i32x4_u" (251) 0x27f-0x281 (2)
0x280|01                                             |.               |
     |                                               |                |                  [4]{}: in 0x281-0x282 (1)
0x280|   0b                                          | .              |                    opcode: "end" (0xb) 0x281-0x282 (1)
     |                                               |                |            [3]{}: code 0x282-0x28e (12)
0x280|      0b                                       |  .             |              size: 11 (valid) 0x282-0x283 (1)
     |                                               |                |              code{}: 0x283-0x28e (11)
     |                                               |                |                t{}: 0x283-0x284 (1)
0x280|         00                                    |   .            |                  n: 0 (valid) 0x283-0x284 (1)
     |                                               |                |                  x[0:0]: 0x284-0x284 (0)
     |                                               |                |                e[0:5]: 0x284-0x28e (10)
     |                                               |                |                  [0]{}: in 0x284-0x286 (2)
0x280|            20                                 |                |                    opcode: "local.get" (0x20) 0x284-0x285 (1)
0x280|               00                              |     .          |                    x: 0 (valid) 0x285-0x286 (1)
     |                                               |                |                  [1]{}: in 0x286-0x288 (2)
0x280|                  20                           |                |                    opcode: "local.get" (0x20) 0x286-0x287 (1)
0x280|                     01                        |       .        |                    x: 1 (valid) 0x287-0x288 (1)
     |                                               |                |                  [2]{}: in 0x288-0x28a (2)
0x280|                        fd                     |        .       |                    opcode: "vector" (0xfd) 0x288-0x289 (1)
0x280|                           65                  |         e      |                    v_opcode: "i8x16.narrow_i16x8_s" (101) 0x289-0x28a (1)
     |                                               |                |                  [3]{}: in 0x28a-0x28d (3)
0x280|                              fd               |          .     |                    opcode: "vector" (0xfd) 0x28a-0x28b (1)
0x280|                                 87 01         |           ..   |                    v_opcode: "i16x8.extend_low_i8x16_s" (135) 0x28b-0x28d (2)
     |                                               |                |                  [4]{}: in 0x28d-0x28e (1)
0x280|                                       0b      |             .  |                    opcode: "end" (0xb) 0x28d-0x28e (1)
     |                                               |                |            [4]{}: code 0x28e-0x29a (12)
0x280|                                          0b   |              . |              size: 11 (valid) 0x28e-0x28f (1)
     |                                               |                |              code{}: 0x28f-0x29a (11)
     |                                               |                |                t{}: 0x28f-0x290 (1)
0x280|                                             00|               .|                  n: 0 (valid) 0x28f-0x290 (1)
     |                                               |                |                  x[0:0]: 0x290-0x290 (0)
     |                                               |                |                e[0:5]: 0x290-0x29a (10)
     |                                               |                |                  [0]{}: in 0x290-0x292 (2)
0x290|20                                             |                |                    opcode: "local.get" (0x20) 0x290-0x291 (1)
0x290|   00                                          | .              |                    x: 0 (valid) 0x291-0x292 (1)
     |                                               |                |                  [1]{}: in 0x292-0x294 (2)
0x290|      20                                       |                |                    opcode: "local.get" (0x20) 0x292-0x293 (1)
0x290|         01                                    |   .            |                    x: 1 (valid) 0x293-0x294 (1)
     |                                               |                |                  [2]{}: in 0x294-0x296 (2)
0x290|            fd                                 |    .           |                    opcode: "vector" (0xfd) 0x294-0x295 (1)
0x290|               66                              |     f          |                    v_opcode: "i8x16.narrow_i16x8_u" (102) 0x295-0x296 (1)
     |                                               |                |                  [3]{}: in 0x296-0x299 (3)
0x290|                  fd                           |      .         |                    opcode: "vector" (0xfd) 0x296-0x297 (1)
0x290|                     87 01                     |       ..       |                    v_opcode: "i16x8.extend_low_i8x16_s" (135) 0x297-0x299 (2)
     |                                               |                |                  [4]{}: in 0x299-0x29a (1)
0x290|                           0b                  |         .      |                    opcode: "end" (0xb) 0x299-0x29a (1)
     |                                               |                |            [5]{}: code 0x29a-0x2a6 (12)
0x290|                              0b               |          .     |              size: 11 (valid) 0x29a-0x29b (1)
     |                                               |                |              code{}: 0x29b-0x2a6 (11)
     |                                               |                |                t{}: 0x29b-0x29c (1)
0x290|                                 00            |           .    |                  n: 0 (valid) 0x29b-0x29c (1)
     |                                               |                |                  x[0:0]: 0x29c-0x29c (0)
     |                                               |                |                e[0:5]: 0x29c-0x2a6 (10)
     |                                               |                |                  [0]{}: in 0x29c-0x29e (2)
0x290|                                    20         |                |                    opcode: "local.get" (0x20) 0x29c-0x29d (1)
0x290|                                       00      |             .  |                    x: 0 (valid) 0x29d-0x29e (1)
     |                                               |                |                  [1]{}: in 0x29e-0x2a0 (2)
0x290|                                          20   |                |                    opcode: "local.get" (0x20) 0x29e-0x29f (1)
0x290|                                             01|               .|                    x: 1 (valid) 0x29f-0x2a0 (1)
     |                                               |                |                  [2]{}: in 0x2a0-0x2a2 (2)
0x2a0|fd                                             |.               |                    opcode: "vector" (0xfd) 0x2a0-0x2a1 (1)
0x2a0|   65                                          | e              |                    v_opcode: "i8x16.narrow_i16x8_s" (101) 0x2a1-0x2a2 (1)
     |                                               |                |                  [3]{}: in 0x2a2-0x2a5 (3)
0x2a0|      fd                                       |  .             |                    opcode: "vector" (0xfd) 0x2a2-0x2a3 (1)
0x2a0|         87 01                                 |   ..           |                    v_opcode: "i16x8.extend_low_i8x16_s" (135) 0x2a3-0x2a5 (2)
     |                                               |                |                  [4]{}: in 0x2a5-0x2a6 (1)
0x2a0|               0b                              |     .          |                    opcode: "end" (0xb) 0x2a5-0x2a6 (1)
     |                                               |                |            [6]{}: code 0x2a6-0x2b2 (12)
0x2a0|                  0b                           |      .         |              size: 11 (valid) 0x2a6-0x2a7 (1)
     |                                               |                |              code{}: 0x2a7-0x2b2 (11)
     |                                               |                |                t{}: 0x2a7-0x2a8 (1)
0x2a0|                     00                        |       .        |                  n: 0 (valid) 0x2a7-0x2a8 (1)
     |                                               |                |                  x[0:0]: 0x2a8-0x2a8 (0)
     |                                               |                |                e[0:5]: 0x2a8-0x2b2 (10)
     |                                               |                |                  [0]{}: in 0x2a8-0x2aa (2)
0x2a0|                        20                     |                |                    opcode: "local.get" (0x20) 0x2a8-0x2a9 (1)
0x2a0|                           00                  |         .      |                    x: 0 (valid) 0x2a9-0x2aa (1)
     |                                               |                |                  [1]{}: in 0x2aa-0x2ac (2)
0x2a0|                              20               |                |                    opcode: "local.get" (0x20) 0x2aa-0x2ab (1)
0x2a0|                                 01            |           .    |                    x: 1 (valid) 0x2ab-0x2ac (1)
     |                                               |                |                  [2]{}: in 0x2ac-0x2ae (2)
0x2a0|                                    fd         |            .   |                    opcode: "vector" (0xfd) 0x2ac-0x2ad (1)
0x2a0|                                       66      |             f  |                    v_opcode: "i8x16.narrow_i16x8_u" (102) 0x2ad-0x2ae (1)
     |                                               |                |                  [3]{}: in 0x2ae-0x2b1 (3)
0x2a0|                                          fd   |              . |                    opcode: "vector" (0xfd) 0x2ae-0x2af (1)
0x2a0|                                             87|               .|                    v_opcode: "i16x8.extend_low_i8x16_s" (135) 0x2af-0x2b1 (2)
0x2b0|01                                             |.               |
     |                                               |                |                  [4]{}: in 0x2b1-0x2b2 (1)
0x2b0|   0b                                          | .              |                    opcode: "end" (0xb) 0x2b1-0x2b2 (1)
     |                                               |                |            [7]{}: code 0x2b2-0x2be (12)
0x2b0|      0b                                       |  .             |              size: 11 (valid) 0x2b2-0x2b3 (1)
     |                                               |                |              code{}: 0x2b3-0x2be (11)
     |                                               |                |                t{}: 0x2b3-0x2b4 (1)
0x2b0|         00                                    |   .            |                  n: 0 (valid) 0x2b3-0x2b4 (1)
     |                                               |                |                  x[0:0]: 0x2b4-0x2b4 (0)
     |                                               |                |                e[0:5]: 0x2b4-0x2be (10)
     |                                               |                |                  [0]{}: in 0x2b4-0x2b6 (2)
0x2b0|            20                                 |                |                    opcode: "local.get" (0x20) 0x2b4-0x2b5 (1)
0x2b0|               00                              |     .          |                    x: 0 (valid) 0x2b5-0x2b6 (1)
     |                                               |                |                  [1]{}: in 0x2b6-0x2b8 (2)
0x2b0|                  20                           |                |                    opcode: "local.get" (0x20) 0x2b6-0x2b7 (1)
0x2b0|                     01                        |       .        |                    x: 1 (valid) 0x2b7-0x2b8 (1)
     |                                               |                |                  [2]{}: in 0x2b8-0x2ba (2)
0x2b0|                        fd                     |        .       |                    opcode: "vector" (0xfd) 0x2b8-0x2b9 (1)
0x2b0|                           66                  |         f      |                    v_opcode: "i8x16.narrow_i16x8_u" (102) 0x2b9-0x2ba (1)
     |                                               |                |                  [3]{}: in 0x2ba-0x2bd (3)
0x2b0|                              fd               |          .     |                    opcode: "vector" (0xfd) 0x2ba-0x2bb (1)
0x2b0|                                 89 01         |           ..   |                    v_opcode: "i16x8.extend_low_i8x16_u" (137) 0x2bb-0x2bd (2)
     |                                               |                |                  [4]{}: in 0x2bd-0x2be (1)
0x2b0|                                       0b      |             .  |                    opcode: "end" (0xb) 0x2bd-0x2be (1)
     |                                               |                |            [8]{}: code 0x2be-0x2ca (12)
0x2b0|                                          0b   |              . |              size: 11 (valid) 0x2be-0x2bf (1)
     |                                               |                |              code{}: 0x2bf-0x2ca (11)
     |                                               |                |                t{}: 0x2bf-0x2c0 (1)
0x2b0|                                             00|               .|                  n: 0 (valid) 0x2bf-0x2c0 (1)
     |                                               |                |                  x[0:0]: 0x2c0-0x2c0 (0)
     |                                               |                |                e[0:5]: 0x2c0-0x2ca (10)
     |                                               |                |                  [0]{}: in 0x2c0-0x2c2 (2)
0x2c0|20                                             |                |                    opcode: "local.get" (0x20) 0x2c0-0x2c1 (1)
0x2c0|   00                                          | .              |                    x: 0 (valid) 0x2c1-0x2c2 (1)
     |                                               |                |                  [1]{}: in 0x2c2-0x2c4 (2)
0x2c0|      20                                       |                |                    opcode: "local.get" (0x20) 0x2c2-0x2c3 (1)
0x2c0|         01                                    |   .            |                    x: 1 (valid) 0x2c3-0x2c4 (1)
     |                                               |                |                  [2]{}: in 0x2c4-0x2c6 (2)
0x2c0|            fd                                 |    .           |                    opcode: "vector" (0xfd) 0x2c4-0x2c5 (1)
0x2c0|               65                              |     e          |                    v_opcode: "i8x16.narrow_i16x8_s" (101) 0x2c5-0x2c6 (1)
     |                                               |                |                  [3]{}: in 0x2c6-0x2c9 (3)
0x2c0|                  fd                           |      .         |                    opcode: "vector" (0xfd) 0x2c6-0x2c7 (1)
0x2c0|                     89 01                     |       ..       |                    v_opcode: "i16x8.extend_low_i8x16_u" (137) 0x2c7-0x2c9 (2)
     |                                               |                |                  [4]{}: in 0x2c9-0x2ca (1)
0x2c0|                           0b                  |         .      |                    opcode: "end" (0xb) 0x2c9-0x2ca (1)
     |                                               |                |            [9]{}: code 0x2ca-0x2d6 (12)
0x2c0|                              0b               |          .     |              size: 11 (valid) 0x2ca-0x2cb (1)
     |                                               |                |              code{}: 0x2cb-0x2d6 (11)
     |                                               |                |                t{}: 0x2cb-0x2cc (1)
0x2c0|                                 00            |           .    |                  n: 0 (valid) 0x2cb-0x2cc (1)
     |                                               |                |                  x[0:0]: 0x2cc-0x2cc (0)
     |                                               |                |                e[0:5]: 0x2cc-0x2d6 (10)
     |                                               |                |                  [0]{}: in 0x2cc-0x2ce (2)
0x2c0|                                    20         |                |                    opcode: "local.get" (0x20) 0x2cc-0x2cd (1)
0x2c0|                                       00      |             .  |                    x: 0 (valid) 0x2cd-0x2ce (1)
     |                                               |                |                  [1]{}: in 0x2ce-0x2d0 (2)
0x2c0|                                          20   |                |                    opcode: "local.get" (0x20) 0x2ce-0x2cf (1)
0x2c0|                                             01|               .|                    x: 1 (valid) 0x2cf-0x2d0 (1)
     |                                               |                |                  [2]{}: in 0x2d0-0x2d2 (2)
0x2d0|fd                                             |.               |                    opcode: "vector" (0xfd) 0x2d0-0x2d1 (1)
0x2d0|   66                                          | f              |                    v_opcode: "i8x16.narrow_i16x8_u" (102) 0x2d1-0x2d2 (1)
     |                                               |                |                  [3]{}: in 0x2d2-0x2d5 (3)
0x2d0|      fd                                       |  .             |                    opcode: "vector" (0xfd) 0x2d2-0x2d3 (1)
0x2d0|         89 01                                 |   ..           |                    v_opcode: "i16x8.extend_low_i8x16_u" (137) 0x2d3-0x2d5 (2)
     |                                               |                |                  [4]{}: in 0x2d5-0x2d6 (1)
0x2d0|               0b                              |     .          |                    opcode: "end" (0xb) 0x2d5-0x2d6 (1)
     |                                               |                |            [10]{}: code 0x2d6-0x2e2 (12)
0x2d0|                  0b                           |      .         |              size: 11 (valid) 0x2d6-0x2d7 (1)
     |                                               |                |              code{}: 0x2d7-0x2e2 (11)
     |                                               |                |                t{}: 0x2d7-0x2d8 (1)
0x2d0|                     00                        |       .        |                  n: 0 (valid) 0x2d7-0x2d8 (1)
     |                                               |                |                  x[0:0]: 0x2d8-0x2d8 (0)
     |                                               |                |                e[0:5]: 0x2d8-0x2e2 (10)
     |                                               |                |                  [0]{}: in 0x2d8-0x2da (2)
0x2d0|                        20                     |                |                    opcode: "local.get" (0x20) 0x2d8-0x2d9 (1)
0x2d0|                           00                  |         .      |                    x: 0 (valid) 0x2d9-0x2da (1)
     |                                               |                |                  [1]{}: in 0x2da-0x2dc (2)
0x2d0|                              20               |                |                    opcode: "local.get" (0x20) 0x2da-0x2db (1)
0x2d0|                                 01            |           .    |                    x: 1 (valid) 0x2db-0x2dc (1)
     |                                               |                |                  [2]{}: in 0x2dc-0x2de (2)
0x2d0|                                    fd         |            .   |                    opcode: "vector" (0xfd) 0x2dc-0x2dd (1)
0x2d0|                                       65      |             e  |                    v_opcode: "i8x16.narrow_i16x8_s" (101) 0x2dd-0x2de (1)
     |                                               |                |                  [3]{}: in 0x2de-0x2e1 (3)
0x2d0|                                          fd   |              . |                    opcode: "vector" (0xfd) 0x2de-0x2df (1)
0x2d0|                                             89|               .|                    v_opcode: "i16x8.extend_low_i8x16_u" (137) 0x2df-0x2e1 (2)
0x2e0|01                                             |.               |
     |                                               |                |                  [4]{}: in 0x2e1-0x2e2 (1)
0x2e0|   0b                                          | .              |                    opcode: "end" (0xb) 0x2e1-0x2e2 (1)
     |                                               |                |            [11]{}: code 0x2e2-0x2ef (13)
0x2e0|      0c                                       |  .             |              size: 12 (valid) 0x2e2-0x2e3 (1)
     |                                               |                |              code{}: 0x2e3-0x2ef (12)
     |                                               |                |                t{}: 0x2e3-0x2e4 (1)
0x2e0|         00                                    |   .            |                  n: 0 (valid) 0x2e3-0x2e4 (1)
     |                                               |                |                  x[0:0]: 0x2e4-0x2e4 (0)
     |                                               |                |                e[0:5]: 0x2e4-0x2ef (11)
     |                                               |                |                  [0]{}: in 0x2e4-0x2e6 (2)
0x2e0|            20                                 |                |                    opcode: "local.get" (0x20) 0x2e4-0x2e5 (1)
0x2e0|               00                              |     .          |                    x: 0 (valid) 0x2e5-0x2e6 (1)
     |                                               |                |                  [1]{}: in 0x2e6-0x2e8 (2)
0x2e0|                  20                           |                |                    opcode: "local.get" (0x20) 0x2e6-0x2e7 (1)
0x2e0|                     01                        |       .        |                    x: 1 (valid) 0x2e7-0x2e8 (1)
     |                                               |                |                  [2]{}: in 0x2e8-0x2eb (3)
0x2e0|                        fd                     |        .       |                    opcode: "vector" (0xfd) 0x2e8-0x2e9 (1)
0x2e0|                           85 01               |         ..     |                    v_opcode: "i16x8.narrow_i32x4_s" (133) 0x2e9-0x2eb (2)
     |                                               |                |                  [3]{}: in 0x2eb-0x2ee (3)
0x2e0|                                 fd            |           .    |                    opcode: "vector" (0xfd) 0x2eb-0x2ec (1)
0x2e0|                                    a7 01      |            ..  |                    v_opcode: "i32x4.extend_low_i16x8_s" (167) 0x2ec-0x2ee (2)
     |                                               |                |                  [4]{}: in 0x2ee-0x2ef (1)
0x2e0|                                          0b   |              . |                    opcode: "end" (0xb) 0x2ee-0x2ef (1)
     |                                               |                |            [12]{}: code 0x2ef-0x2fc (13)
0x2e0|                                             0c|               .|              size: 12 (valid) 0x2ef-0x2f0 (1)
     |                                               |                |              code{}: 0x2f0-0x2fc (12)
     |                                               |                |                t{}: 0x2f0-0x2f1 (1)
0x2f0|00                                             |.               |                  n: 0 (valid) 0x2f0-0x2f1 (1)
     |                                               |                |                  x[0:0]: 0x2f1-0x2f1 (0)
     |                                               |                |                e[0:5]: 0x2f1-0x2fc (11)
     |                                               |                |                  [0]{}: in 0x2f1-0x2f3 (2)
0x2f0|   20                                          |                |                    opcode: "local.get" (0x20) 0x2f1-0x2f2 (1)
0x2f0|      00                                       |  .             |                    x: 0 (valid) 0x2f2-0x2f3 (1)
     |                                               |                |                  [1]{}: in 0x2f3-0x2f5 (2)
0x2f0|         20                                    |                |                    opcode: "local.get" (0x20) 0x2f3-0x2f4 (1)
0x2f0|            01                                 |    .           |                    x: 1 (valid) 0x2f4-0x2f5 (1)
     |                                               |                |                  [2]{}: in 0x2f5-0x2f8 (3)
0x2f0|               fd                              |     .          |                    opcode: "vector" (0xfd) 0x2f5-0x2f6 (1)
0x2f0|                  86 01                        |      ..        |                    v_opcode: "i16x8.narrow_i32x4_u" (134) 0x2f6-0x2f8 (2)
     |                                               |                |                  [3]{}: in 0x2f8-0x2fb (3)
0x2f0|                        fd                     |        .       |                    opcode: "vector" (0xfd) 0x2f8-0x2f9 (1)
0x2f0|                           a7 01               |         ..     |                    v_opcode: "i32x4.extend_low_i16x8_s" (167) 0x2f9-0x2fb (2)
     |                                               |                |                  [4]{}: in 0x2fb-0x2fc (1)
0x2f0|                                 0b            |           .    |                    opcode: "end" (0xb) 0x2fb-0x2fc (1)
     |                                               |                |            [13]{}: code 0x2fc-0x309 (13)
0x2f0|                                    0c         |            .   |              size: 12 (valid) 0x2fc-0x2fd (1)
     |                                               |                |              code{}: 0x2fd-0x309 (12)
     |                                               |                |                t{}: 0x2fd-0x2fe (1)
0x2f0|                                       00      |             .  |                  n: 0 (valid) 0x2fd-0x2fe (1)
     |                                               |                |                  x[0:0]: 0x2fe-0x2fe (0)
     |                                               |                |                e[0:5]: 0x2fe-0x309 (11)
     |                                               |                |                  [0]{}: in 0x2fe-0x300 (2)
0x2f0|                                          20   |                |                    opcode: "local.get" (0x20) 0x2fe-0x2ff (1)
0x2f0|                                             00|               .|                    x: 0 (valid) 0x2ff-0x300 (1)
     |                                               |                |                  [1]{}: in 0x300-0x302 (2)
0x300|20                                             |                |                    opcode: "local.get" (0x20) 0x300-0x301 (1)
0x300|   01                                          | .              |                    x: 1 (valid) 0x301-0x302 (1)
     |                                               |                |                  [2]{}: in 0x302-0x305 (3)
0x300|      fd                                       |  .             |                    opcode: "vector" (0xfd) 0x302-0x303 (1)
0x300|         85 01                                 |   ..           |                    v_opcode: "i16x8.narrow_i32x4_s" (133) 0x303-0x305 (2)
     |                                               |                |                  [3]{}: in 0x305-0x308 (3)
0x300|               fd                              |     .          |                    opcode: "vector" (0xfd) 0x305-0x306 (1)
0x300|                  a7 01                        |      ..        |                    v_opcode: "i32x4.extend_low_i16x8_s" (167) 0x306-0x308 (2)
     |                                               |                |                  [4]{}: in 0x308-0x309 (1)
0x300|                        0b                     |        .       |                    opcode: "end" (0xb) 0x308-0x309 (1)
     |                                               |                |            [14]{}: code 0x309-0x316 (13)
0x300|                           0c                  |         .      |              size: 12 (valid) 0x309-0x30a (1)
     |                                               |                |              code{}: 0x30a-0x316 (12)
     |                                               |                |                t{}: 0x30a-0x30b (1)
0x300|                              00               |          .     |                  n: 0 (valid) 0x30a-0x30b (1)
     |                                               |                |                  x[0:0]: 0x30b-0x30b (0)
     |                                               |                |                e[0:5]: 0x30b-0x316 (11)
     |                                               |                |                  [0]{}: in 0x30b-0x30d (2)
0x300|                                 20            |                |                    opcode: "local.get" (0x20) 0x30b-0x30c (1)
0x300|                                    00         |            .   |                    x: 0 (valid) 0x30c-0x30d (1)
     |                                               |                |                  [1]{}: in 0x30d-0x30f (2)
0x300|                                       20      |                |                    opcode: "local.get" (0x20) 0x30d-0x30e (1)
0x300|                                          01   |              . |                    x: 1 (valid) 0x30e-0x30f (1)
     |                                               |                |                  [2]{}: in 0x30f-0x312 (3)
0x300|                                             fd|               .|                    opcode: "vector" (0xfd) 0x30f-0x310 (1)
0x310|86 01                                          |..              |                    v_opcode: "i16x8.narrow_i32x4_u" (134) 0x310-0x312 (2)
     |                                               |                |                  [3]{}: in 0x312-0x315 (3)
0x310|      fd                                       |  .             |                    opcode: "vector" (0xfd) 0x312-0x313 (1)
0x310|         a7 01                                 |   ..           |                    v_opcode: "i32x4.extend_low_i16x8_s" (167) 0x313-0x315 (2)
     |                                               |                |                  [4]{}: in 0x315-0x316 (1)
0x310|               0b                              |     .          |                    opcode: "end" (0xb) 0x315-0x316 (1)
     |                                               |                |            [15]{}: code 0x316-0x323 (13)
0x310|                  0c                           |      .         |              size: 12 (valid) 0x316-0x317 (1)
     |                                               |                |              code{}: 0x317-0x323 (12)
     |                                               |                |                t{}: 0x317-0x318 (1)
0x310|                     00                        |       .        |                  n: 0 (valid) 0x317-0x318 (1)
     |                                               |                |                  x[0:0]: 0x318-0x318 (0)
     |                                               |                |                e[0:5]: 0x318-0x323 (11)
     |                                               |                |                  [0]{}: in 0x318-0x31a (2)
0x310|                        20                     |                |                    opcode: "local.get" (0x20) 0x318-0x319 (1)
0x310|                           00                  |         .      |                    x: 0 (valid) 0x319-0x31a (1)
     |                                               |                |                  [1]{}: in 0x31a-0x31c (2)
0x310|                              20               |                |                    opcode: "local.get" (0x20) 0x31a-0x31b (1)
0x310|                                 01            |           .    |                    x: 1 (valid) 0x31b-0x31c (1)
     |                                               |                |                  [2]{}: in 0x31c-0x31f (3)
0x310|                                    fd         |            .   |                    opcode: "vector" (0xfd) 0x31c-0x31d (1)
0x310|                                       86 01   |             .. |                    v_opcode: "i16x8.narrow_i32x4_u" (134) 0x31d-0x31f (2)
     |                                               |                |                  [3]{}: in 0x31f-0x322 (3)
0x310|                                             fd|               .|                    opcode: "vector" (0xfd) 0x31f-0x320 (1)
0x320|a9 01                                          |..              |                    v_opcode: "i32x4.extend_low_i16x8_u" (169) 0x320-0x322 (2)
     |                                               |                |                  [4]{}: in 0x322-0x323 (1)
0x320|      0b                                       |  .             |                    opcode: "end" (0xb) 0x322-0x323 (1)
     |                                               |                |            [16]{}: code 0x323-0x330 (13)
0x320|         0c                                    |   .            |              size: 12 (valid) 0x323-0x324 (1)
     |                                               |                |              code{}: 0x324-0x330 (12)
     |                                               |                |                t{}: 0x324-0x325 (1)
0x320|            00                                 |    .           |                  n: 0 (valid) 0x324-0x325 (1)
     |                                               |                |                  x[0:0]: 0x325-0x325 (0)
     |                                               |                |                e[0:5]: 0x325-0x330 (11)
     |                                               |                |                  [0]{}: in 0x325-0x327 (2)
0x320|               20                              |                |                    opcode: "local.get" (0x20) 0x325-0x326 (1)
0x320|                  00                           |      .         |                    x: 0 (valid) 0x326-0x327 (1)
     |                                               |                |                  [1]{}: in 0x327-0x329 (2)
0x320|                     20                        |                |                    opcode: "local.get" (0x20) 0x327-0x328 (1)
0x320|                        01                     |        .       |                    x: 1 (valid) 0x328-0x329 (1)
     |                                               |                |                  [2]{}: in 0x329-0x32c (3)
0x320|                           fd                  |         .      |                    opcode: "vector" (0xfd) 0x329-0x32a (1)
0x320|                              85 01            |          ..    |                    v_opcode: "i16x8.narrow_i32x4_s" (133) 0x32a-0x32c (2)
     |                                               |                |                  [3]{}: in 0x32c-0x32f (3)
0x320|                                    fd         |            .   |                    opcode: "vector" (0xfd) 0x32c-0x32d (1)
0x320|                                       a9 01   |             .. |                    v_opcode: "i32x4.extend_low_i16x8_u" (169) 0x32d-0x32f (2)
     |                                               |                |                  [4]{}: in 0x32f-0x330 (1)
0x320|                                             0b|               .|                    opcode: "end" (0xb) 0x32f-0x330 (1)
     |                                               |                |            [17]{}: code 0x330-0x33d (13)
0x330|0c                                             |.               |              size: 12 (valid) 0x330-0x331 (1)
     |                                               |                |              code{}: 0x331-0x33d (12)
     |                                               |                |                t{}: 0x331-0x332 (1)
0x330|   00                                          | .              |                  n: 0 (valid) 0x331-0x332 (1)
     |                                               |                |                  x[0:0]: 0x332-0x332 (0)
     |                                               |                |                e[0:5]: 0x332-0x33d (11)
     |                                               |                |                  [0]{}: in 0x332-0x334 (2)
0x330|      20                                       |                |                    opcode: "local.get" (0x20) 0x332-0x333 (1)
0x330|         00                                    |   .            |                    x: 0 (valid) 0x333-0x334 (1)
     |                                               |                |                  [1]{}: in 0x334-0x336 (2)
0x330|            20                                 |                |                    opcode: "local.get" (0x20) 0x334-0x335 (1)
0x330|               01                              |     .          |                    x: 1 (valid) 0x335-0x336 (1)
     |                                               |                |                  [2]{}: in 0x336-0x339 (3)
0x330|                  fd                           |      .         |                    opcode: "vector" (0xfd) 0x336-0x337 (1)
0x330|                     86 01                     |       ..       |                    v_opcode: "i16x8.narrow_i32x4_u" (134) 0x337-0x339 (2)
     |                                               |                |                  [3]{}: in 0x339-0x33c (3)
0x330|                           fd                  |         .      |                    opcode: "vector" (0xfd) 0x339-0x33a (1)
0x330|                              a9 01            |          ..    |                    v_opcode: "i32x4.extend_low_i16x8_u" (169) 0x33a-0x33c (2)
     |                                               |                |                  [4]{}: in 0x33c-0x33d (1)
0x330|                                    0b         |            .   |                    opcode: "end" (0xb) 0x33c-0x33d (1)
     |                                               |                |            [18]{}: code 0x33d-0x34a (13)
0x330|                                       0c      |             .  |              size: 12 (valid) 0x33d-0x33e (1)
     |                                               |                |              code{}: 0x33e-0x34a (12)
     |                                               |                |                t{}: 0x33e-0x33f (1)
0x330|                                          00   |              . |                  n: 0 (valid) 0x33e-0x33f (1)
     |                                               |                |                  x[0:0]: 0x33f-0x33f (0)
     |                                               |                |                e[0:5]: 0x33f-0x34a (11)
     |                                               |                |                  [0]{}: in 0x33f-0x341 (2)
0x330|                                             20|                |                    opcode: "local.get" (0x20) 0x33f-0x340 (1)
0x340|00                                             |.               |                    x: 0 (valid) 0x340-0x341 (1)
     |                                               |                |                  [1]{}: in 0x341-0x343 (2)
0x340|   20                                          |                |                    opcode: "local.get" (0x20) 0x341-0x342 (1)
0x340|      01                                       |  .             |                    x: 1 (valid) 0x342-0x343 (1)
     |                                               |                |                  [2]{}: in 0x343-0x346 (3)
0x340|         fd                                    |   .            |                    opcode: "vector" (0xfd) 0x343-0x344 (1)
0x340|            85 01                              |    ..          |                    v_opcode: "i16x8.narrow_i32x4_s" (133) 0x344-0x346 (2)
     |                                               |                |                  [3]{}: in 0x346-0x349 (3)
0x340|                  fd                           |      .         |                    opcode: "vector" (0xfd) 0x346-0x347 (1)
0x340|                     a9 01                     |       ..       |                    v_opcode: "i32x4.extend_low_i16x8_u" (169) 0x347-0x349 (2)
     |                                               |                |                  [4]{}: in 0x349-0x34a (1)
0x340|                           0b|                 |         .|     |                    opcode: "end" (0xb) 0x349-0x34a (1)
