$ fq -d wasm dv simd_i64x2_arith2-1.wasm
    |00 01 02 03 04 05 06 07 08 09 0a 0b 0c 0d 0e 0f|0123456789abcdef|.{}: simd_i64x2_arith2-1.wasm (wasm) 0x0-0x3b (59)
0x00|00 61 73 6d                                    |.asm            |  magic: raw bits (valid) 0x0-0x4 (4)
0x00|            01 00 00 00                        |    ....        |  version: 1 0x4-0x8 (4)
    |                                               |                |  sections[0:4]: 0x8-0x3b (51)
    |                                               |                |    [0]{}: section 0x8-0x10 (8)
0x00|                        01                     |        .       |      id: "type_section" (1) 0x8-0x9 (1)
0x00|                           06                  |         .      |      size: 6 (valid) 0x9-0xa (1)
    |                                               |                |      content{}: 0xa-0x10 (6)
    |                                               |                |        ft{}: 0xa-0x10 (6)
0x00|                              01               |          .     |          n: 1 (valid) 0xa-0xb (1)
    |                                               |                |          x[0:1]: 0xb-0x10 (5)
    |                                               |                |            [0]{}: ft 0xb-0x10 (5)
0x00|                                 60            |           `    |              tag: 0x60 (valid) 0xb-0xc (1)
    |                                               |                |              rt1{}: 0xc-0xe (2)
0x00|                                    01         |            .   |                n: 1 (valid) 0xc-0xd (1)
    |                                               |                |                x[0:1]: 0xd-0xe (1)
0x00|                                       7b      |             {  |                  [0]: "v128" (0x7b) t 0xd-0xe (1)
    |                                               |                |              rt2{}: 0xe-0x10 (2)
0x00|                                          01   |              . |                n: 1 (valid) 0xe-0xf (1)
    |                                               |                |                x[0:1]: 0xf-0x10 (1)
0x00|                                             7b|               {|                  [0]: "v128" (0x7b) t 0xf-0x10 (1)
    |                                               |                |    [1]{}: section 0x10-0x14 (4)
0x10|03                                             |.               |      id: "function_section" (3) 0x10-0x11 (1)
0x10|   02                                          | .              |      size: 2 (valid) 0x11-0x12 (1)
    |                                               |                |      content{}: 0x12-0x14 (2)
    |                                               |                |        x{}: 0x12-0x14 (2)
0x10|      01                                       |  .             |          n: 1 (valid) 0x12-0x13 (1)
    |                                               |                |          x[0:1]: 0x13-0x14 (1)
0x10|         00                                    |   .            |            [0]: 0 x (valid) 0x13-0x14 (1)
    |                                               |                |    [2]{}: section 0x14-0x2d (25)
0x10|            07                                 |    .           |      id: "export_section" (7) 0x14-0x15 (1)
0x10|               17                              |     .          |      size: 23 (valid) 0x15-0x16 (1)
    |                                               |                |      content{}: 0x16-0x2d (23)
    |                                               |                |        ex{}: 0x16-0x2d (23)
0x10|                  01                           |      .         |          n: 1 (valid) 0x16-0x17 (1)
    |                                               |                |          x[0:1]: 0x17-0x2d (22)
    |                                               |                |            [0]{}: ex 0x17-0x2d (22)
    |                                               |                |              nm{}: 0x17-0x2b (20)
0x10|                     13                        |       .        |                n: 19 (valid) 0x17-0x18 (1)
0x10|                        69 36 34 78 32 2e 61 62|        i64x2.ab|                b: "i64x2.abs-i64x2.abs" 0x18-0x2b (19)
0x20|73 2d 69 36 34 78 32 2e 61 62 73               |s-i64x2.abs     |
    |                                               |                |              d{}: 0x2b-0x2d (2)
0x20|                                 00            |           .    |                tag: "funcidx" (0x0) 0x2b-0x2c (1)
0x20|                                    00         |            .   |                x: 0 (valid) 0x2c-0x2d (1)
    |                                               |                |    [3]{}: section 0x2d-0x3b (14)
0x20|                                       0a      |             .  |      id: "code_section" (10) 0x2d-0x2e (1)
0x20|                                          0c   |              . |      size: 12 (valid) 0x2e-0x2f (1)
    |                                               |                |      content{}: 0x2f-0x3b (12)
    |                                               |                |        code{}: 0x2f-0x3b (12)
0x20|                                             01|               .|          n: 1 (valid) 0x2f-0x30 (1)
    |                                               |                |          x[0:1]: 0x30-0x3b (11)
    |                                               |                |            [0]{}: code 0x30-0x3b (11)
0x30|0a                                             |.               |              size: 10 (valid) 0x30-0x31 (1)
    |                                               |                |              code{}: 0x31-0x3b (10)
    |                                               |                |                t{}: 0x31-0x32 (1)
0x30|   00                                          | .              |                  n: 0 (valid) 0x31-0x32 (1)
    |                                               |                |                  x[0:0]: 0x32-0x32 (0)
    |                                               |                |                e[0:4]: 0x32-0x3b (9)
    |                                               |                |                  [0]{}: in 0x32-0x34 (2)
0x30|      20                                       |                |                    opcode: "local.get" (0x20) 0x32-0x33 (1)
0x30|         00                                    |   .            |                    x: 0 (valid) 0x33-0x34 (1)
    |                                               |                |                  [1]{}: in 0x34-0x37 (3)
0x30|            fd                                 |    .           |                    opcode: "vector" (0xfd) 0x34-0x35 (1)
0x30|               c0 01                           |     ..         |                    v_opcode: "i64x2.abs" (192) 0x35-0x37 (2)
    |                                               |                |                  [2]{}: in 0x37-0x3a (3)
0x30|                     fd                        |       .        |                    opcode: "vector" (0xfd) 0x37-0x38 (1)
0x30|                        c0 01                  |        ..      |                    v_opcode: "i64x2.abs" (192) 0x38-0x3a (2)
    |                                               |                |                  [3]{}: in 0x3a-0x3b (1)
0x30|                              0b|              |          .|    |                    opcode: "end" (0xb) 0x3a-0x3b (1)
