$ fq -d wasm dv simd_conversions-1.wasm
     |00 01 02 03 04 05 06 07 08 09 0a 0b 0c 0d 0e 0f|0123456789abcdef|.{}: simd_conversions-1.wasm (wasm) 0x0-0x349.7 (842)
0x000|00 61 73 6d                                    |.asm            |  magic: raw bits (valid) 0x0-0x3.7 (4)
0x000|            01 00 00 00                        |    ....        |  version: 1 0x4-0x7.7 (4)
     |                                               |                |  sections[0:4]: 0x8-0x349.7 (834)
     |                                               |                |    [0]{}: section 0x8-0x10.7 (9)
0x000|                        01                     |        .       |      id: "type section" (1) 0x8-0x8.7 (1)
0x000|                           07                  |         .      |      size: 7 0x9-0x9.7 (1)
     |                                               |                |      content{}: 0xa-0x10.7 (7)
     |                                               |                |        ft{}: 0xa-0x10.7 (7)
0x000|                              01               |          .     |          n: 1 0xa-0xa.7 (1)
     |                                               |                |          x[0:1]: 0xb-0x10.7 (6)
     |                                               |                |            [0]{}: ft 0xb-0x10.7 (6)
0x000|                                 60            |           `    |              tag: 0x60 (valid) 0xb-0xb.7 (1)
     |                                               |                |              rt1{}: 0xc-0xe.7 (3)
0x000|                                    02         |            .   |                n: 2 0xc-0xc.7 (1)
     |                                               |                |                x[0:2]: 0xd-0xe.7 (2)
0x000|                                       7b      |             {  |                  [0]: "v128" (0x7b) t 0xd-0xd.7 (1)
0x000|                                          7b   |              { |                  [1]: "v128" (0x7b) t 0xe-0xe.7 (1)
     |                                               |                |              rt2{}: 0xf-0x10.7 (2)
0x000|                                             01|               .|                n: 1 0xf-0xf.7 (1)
     |                                               |                |                x[0:1]: 0x10-0x10.7 (1)
0x010|7b                                             |{               |                  [0]: "v128" (0x7b) t 0x10-0x10.7 (1)
     |                                               |                |    [1]{}: section 0x11-0x26.7 (22)
0x010|   03                                          | .              |      id: "function section" (3) 0x11-0x11.7 (1)
0x010|      14                                       |  .             |      size: 20 0x12-0x12.7 (1)
     |                                               |                |      content{}: 0x13-0x26.7 (20)
     |                                               |                |        x{}: 0x13-0x26.7 (20)
0x010|         13                                    |   .            |          n: 19 0x13-0x13.7 (1)
     |                                               |                |          x[0:19]: 0x14-0x26.7 (19)
0x010|            00                                 |    .           |            [0]: 0 x 0x14-0x14.7 (1)
0x010|               00                              |     .          |            [1]: 0 x 0x15-0x15.7 (1)
0x010|                  00                           |      .         |            [2]: 0 x 0x16-0x16.7 (1)
0x010|                     00                        |       .        |            [3]: 0 x 0x17-0x17.7 (1)
0x010|                        00                     |        .       |            [4]: 0 x 0x18-0x18.7 (1)
0x010|                           00                  |         .      |            [5]: 0 x 0x19-0x19.7 (1)
0x010|                              00               |          .     |            [6]: 0 x 0x1a-0x1a.7 (1)
0x010|                                 00            |           .    |            [7]: 0 x 0x1b-0x1b.7 (1)
0x010|                                    00         |            .   |            [8]: 0 x 0x1c-0x1c.7 (1)
0x010|                                       00      |             .  |            [9]: 0 x 0x1d-0x1d.7 (1)
0x010|                                          00   |              . |            [10]: 0 x 0x1e-0x1e.7 (1)
0x010|                                             00|               .|            [11]: 0 x 0x1f-0x1f.7 (1)
0x020|00                                             |.               |            [12]: 0 x 0x20-0x20.7 (1)
0x020|   00                                          | .              |            [13]: 0 x 0x21-0x21.7 (1)
0x020|      00                                       |  .             |            [14]: 0 x 0x22-0x22.7 (1)
0x020|         00                                    |   .            |            [15]: 0 x 0x23-0x23.7 (1)
0x020|            00                                 |    .           |            [16]: 0 x 0x24-0x24.7 (1)
0x020|               00                              |     .          |            [17]: 0 x 0x25-0x25.7 (1)
0x020|                  00                           |      .         |            [18]: 0 x 0x26-0x26.7 (1)
     |                                               |                |    [2]{}: section 0x27-0x256.7 (560)
0x020|                     07                        |       .        |      id: "export section" (7) 0x27-0x27.7 (1)
0x020|                        ad 04                  |        ..      |      size: 557 0x28-0x29.7 (2)
     |                                               |                |      content{}: 0x2a-0x256.7 (557)
     |                                               |                |        ex{}: 0x2a-0x256.7 (557)
0x020|                              13               |          .     |          n: 19 0x2a-0x2a.7 (1)
     |                                               |                |          x[0:19]: 0x2b-0x256.7 (556)
     |                                               |                |            [0]{}: ex 0x2b-0x46.7 (28)
     |                                               |                |              nm{}: 0x2b-0x44.7 (26)
0x020|                                 19            |           .    |                n: 25 0x2b-0x2b.7 (1)
0x020|                                    66 33 32 78|            f32x|                b: "f32x4_convert_i32x4_s_add" 0x2c-0x44.7 (25)
0x030|34 5f 63 6f 6e 76 65 72 74 5f 69 33 32 78 34 5f|4_convert_i32x4_|
0x040|73 5f 61 64 64                                 |s_add           |
     |                                               |                |              d{}: 0x45-0x46.7 (2)
0x040|               00                              |     .          |                tag: "funcidx" (0x0) 0x45-0x45.7 (1)
0x040|                  00                           |      .         |                x: 0 0x46-0x46.7 (1)
     |                                               |                |            [1]{}: ex 0x47-0x62.7 (28)
     |                                               |                |              nm{}: 0x47-0x60.7 (26)
0x040|                     19                        |       .        |                n: 25 0x47-0x47.7 (1)
0x040|                        66 33 32 78 34 5f 63 6f|        f32x4_co|                b: "f32x4_convert_i32x4_s_sub" 0x48-0x60.7 (25)
0x050|6e 76 65 72 74 5f 69 33 32 78 34 5f 73 5f 73 75|nvert_i32x4_s_su|
0x060|62                                             |b               |
     |                                               |                |              d{}: 0x61-0x62.7 (2)
0x060|   00                                          | .              |                tag: "funcidx" (0x0) 0x61-0x61.7 (1)
0x060|      01                                       |  .             |                x: 1 0x62-0x62.7 (1)
     |                                               |                |            [2]{}: ex 0x63-0x7e.7 (28)
     |                                               |                |              nm{}: 0x63-0x7c.7 (26)
0x060|         19                                    |   .            |                n: 25 0x63-0x63.7 (1)
0x060|            66 33 32 78 34 5f 63 6f 6e 76 65 72|    f32x4_conver|                b: "f32x4_convert_i32x4_u_mul" 0x64-0x7c.7 (25)
0x070|74 5f 69 33 32 78 34 5f 75 5f 6d 75 6c         |t_i32x4_u_mul   |
     |                                               |                |              d{}: 0x7d-0x7e.7 (2)
0x070|                                       00      |             .  |                tag: "funcidx" (0x0) 0x7d-0x7d.7 (1)
0x070|                                          02   |              . |                x: 2 0x7e-0x7e.7 (1)
     |                                               |                |            [3]{}: ex 0x7f-0x9b.7 (29)
     |                                               |                |              nm{}: 0x7f-0x99.7 (27)
0x070|                                             1a|               .|                n: 26 0x7f-0x7f.7 (1)
0x080|69 31 36 78 38 5f 6c 6f 77 5f 65 78 74 65 6e 64|i16x8_low_extend|                b: "i16x8_low_extend_narrow_ss" 0x80-0x99.7 (26)
0x090|5f 6e 61 72 72 6f 77 5f 73 73                  |_narrow_ss      |
     |                                               |                |              d{}: 0x9a-0x9b.7 (2)
0x090|                              00               |          .     |                tag: "funcidx" (0x0) 0x9a-0x9a.7 (1)
0x090|                                 03            |           .    |                x: 3 0x9b-0x9b.7 (1)
     |                                               |                |            [4]{}: ex 0x9c-0xb8.7 (29)
     |                                               |                |              nm{}: 0x9c-0xb6.7 (27)
0x090|                                    1a         |            .   |                n: 26 0x9c-0x9c.7 (1)
0x090|                                       69 31 36|             i16|                b: "i16x8_low_extend_narrow_su" 0x9d-0xb6.7 (26)
0x0a0|78 38 5f 6c 6f 77 5f 65 78 74 65 6e 64 5f 6e 61|x8_low_extend_na|
0x0b0|72 72 6f 77 5f 73 75                           |rrow_su         |
     |                                               |                |              d{}: 0xb7-0xb8.7 (2)
0x0b0|                     00                        |       .        |                tag: "funcidx" (0x0) 0xb7-0xb7.7 (1)
0x0b0|                        04                     |        .       |                x: 4 0xb8-0xb8.7 (1)
     |                                               |                |            [5]{}: ex 0xb9-0xd6.7 (30)
     |                                               |                |              nm{}: 0xb9-0xd4.7 (28)
0x0b0|                           1b                  |         .      |                n: 27 0xb9-0xb9.7 (1)
0x0b0|                              69 31 36 78 38 5f|          i16x8_|                b: "i16x8_high_extend_narrow_ss" 0xba-0xd4.7 (27)
0x0c0|68 69 67 68 5f 65 78 74 65 6e 64 5f 6e 61 72 72|high_extend_narr|
0x0d0|6f 77 5f 73 73                                 |ow_ss           |
     |                                               |                |              d{}: 0xd5-0xd6.7 (2)
0x0d0|               00                              |     .          |                tag: "funcidx" (0x0) 0xd5-0xd5.7 (1)
0x0d0|                  05                           |      .         |                x: 5 0xd6-0xd6.7 (1)
     |                                               |                |            [6]{}: ex 0xd7-0xf4.7 (30)
     |                                               |                |              nm{}: 0xd7-0xf2.7 (28)
0x0d0|                     1b                        |       .        |                n: 27 0xd7-0xd7.7 (1)
0x0d0|                        69 31 36 78 38 5f 68 69|        i16x8_hi|                b: "i16x8_high_extend_narrow_su" 0xd8-0xf2.7 (27)
0x0e0|67 68 5f 65 78 74 65 6e 64 5f 6e 61 72 72 6f 77|gh_extend_narrow|
0x0f0|5f 73 75                                       |_su             |
     |                                               |                |              d{}: 0xf3-0xf4.7 (2)
0x0f0|         00                                    |   .            |                tag: "funcidx" (0x0) 0xf3-0xf3.7 (1)
0x0f0|            06                                 |    .           |                x: 6 0xf4-0xf4.7 (1)
     |                                               |                |            [7]{}: ex 0xf5-0x111.7 (29)
     |                                               |                |              nm{}: 0xf5-0x10f.7 (27)
0x0f0|               1a                              |     .          |                n: 26 0xf5-0xf5.7 (1)
0x0f0|                  69 31 36 78 38 5f 6c 6f 77 5f|      i16x8_low_|                b: "i16x8_low_extend_narrow_uu" 0xf6-0x10f.7 (26)
0x100|65 78 74 65 6e 64 5f 6e 61 72 72 6f 77 5f 75 75|extend_narrow_uu|
     |                                               |                |              d{}: 0x110-0x111.7 (2)
0x110|00                                             |.               |                tag: "funcidx" (0x0) 0x110-0x110.7 (1)
0x110|   07                                          | .              |                x: 7 0x111-0x111.7 (1)
     |                                               |                |            [8]{}: ex 0x112-0x12e.7 (29)
     |                                               |                |              nm{}: 0x112-0x12c.7 (27)
0x110|      1a                                       |  .             |                n: 26 0x112-0x112.7 (1)
0x110|         69 31 36 78 38 5f 6c 6f 77 5f 65 78 74|   i16x8_low_ext|                b: "i16x8_low_extend_narrow_us" 0x113-0x12c.7 (26)
0x120|65 6e 64 5f 6e 61 72 72 6f 77 5f 75 73         |end_narrow_us   |
     |                                               |                |              d{}: 0x12d-0x12e.7 (2)
0x120|                                       00      |             .  |                tag: "funcidx" (0x0) 0x12d-0x12d.7 (1)
0x120|                                          08   |              . |                x: 8 0x12e-0x12e.7 (1)
     |                                               |                |            [9]{}: ex 0x12f-0x14c.7 (30)
     |                                               |                |              nm{}: 0x12f-0x14a.7 (28)
0x120|                                             1b|               .|                n: 27 0x12f-0x12f.7 (1)
0x130|69 31 36 78 38 5f 68 69 67 68 5f 65 78 74 65 6e|i16x8_high_exten|                b: "i16x8_high_extend_narrow_uu" 0x130-0x14a.7 (27)
0x140|64 5f 6e 61 72 72 6f 77 5f 75 75               |d_narrow_uu     |
     |                                               |                |              d{}: 0x14b-0x14c.7 (2)
0x140|                                 00            |           .    |                tag: "funcidx" (0x0) 0x14b-0x14b.7 (1)
0x140|                                    09         |            .   |                x: 9 0x14c-0x14c.7 (1)
     |                                               |                |            [10]{}: ex 0x14d-0x16a.7 (30)
     |                                               |                |              nm{}: 0x14d-0x168.7 (28)
0x140|                                       1b      |             .  |                n: 27 0x14d-0x14d.7 (1)
0x140|                                          69 31|              i1|                b: "i16x8_high_extend_narrow_us" 0x14e-0x168.7 (27)
0x150|36 78 38 5f 68 69 67 68 5f 65 78 74 65 6e 64 5f|6x8_high_extend_|
0x160|6e 61 72 72 6f 77 5f 75 73                     |narrow_us       |
     |                                               |                |              d{}: 0x169-0x16a.7 (2)
0x160|                           00                  |         .      |                tag: "funcidx" (0x0) 0x169-0x169.7 (1)
0x160|                              0a               |          .     |                x: 10 0x16a-0x16a.7 (1)
     |                                               |                |            [11]{}: ex 0x16b-0x187.7 (29)
     |                                               |                |              nm{}: 0x16b-0x185.7 (27)
0x160|                                 1a            |           .    |                n: 26 0x16b-0x16b.7 (1)
0x160|                                    69 33 32 78|            i32x|                b: "i32x4_low_extend_narrow_ss" 0x16c-0x185.7 (26)
0x170|34 5f 6c 6f 77 5f 65 78 74 65 6e 64 5f 6e 61 72|4_low_extend_nar|
0x180|72 6f 77 5f 73 73                              |row_ss          |
     |                                               |                |              d{}: 0x186-0x187.7 (2)
0x180|                  00                           |      .         |                tag: "funcidx" (0x0) 0x186-0x186.7 (1)
0x180|                     0b                        |       .        |                x: 11 0x187-0x187.7 (1)
     |                                               |                |            [12]{}: ex 0x188-0x1a4.7 (29)
     |                                               |                |              nm{}: 0x188-0x1a2.7 (27)
0x180|                        1a                     |        .       |                n: 26 0x188-0x188.7 (1)
0x180|                           69 33 32 78 34 5f 6c|         i32x4_l|                b: "i32x4_low_extend_narrow_su" 0x189-0x1a2.7 (26)
0x190|6f 77 5f 65 78 74 65 6e 64 5f 6e 61 72 72 6f 77|ow_extend_narrow|
0x1a0|5f 73 75                                       |_su             |
     |                                               |                |              d{}: 0x1a3-0x1a4.7 (2)
0x1a0|         00                                    |   .            |                tag: "funcidx" (0x0) 0x1a3-0x1a3.7 (1)
0x1a0|            0c                                 |    .           |                x: 12 0x1a4-0x1a4.7 (1)
     |                                               |                |            [13]{}: ex 0x1a5-0x1c2.7 (30)
     |                                               |                |              nm{}: 0x1a5-0x1c0.7 (28)
0x1a0|               1b                              |     .          |                n: 27 0x1a5-0x1a5.7 (1)
0x1a0|                  69 33 32 78 34 5f 68 69 67 68|      i32x4_high|                b: "i32x4_high_extend_narrow_ss" 0x1a6-0x1c0.7 (27)
0x1b0|5f 65 78 74 65 6e 64 5f 6e 61 72 72 6f 77 5f 73|_extend_narrow_s|
0x1c0|73                                             |s               |
     |                                               |                |              d{}: 0x1c1-0x1c2.7 (2)
0x1c0|   00                                          | .              |                tag: "funcidx" (0x0) 0x1c1-0x1c1.7 (1)
0x1c0|      0d                                       |  .             |                x: 13 0x1c2-0x1c2.7 (1)
     |                                               |                |            [14]{}: ex 0x1c3-0x1e0.7 (30)
     |                                               |                |              nm{}: 0x1c3-0x1de.7 (28)
0x1c0|         1b                                    |   .            |                n: 27 0x1c3-0x1c3.7 (1)
0x1c0|            69 33 32 78 34 5f 68 69 67 68 5f 65|    i32x4_high_e|                b: "i32x4_high_extend_narrow_su" 0x1c4-0x1de.7 (27)
0x1d0|78 74 65 6e 64 5f 6e 61 72 72 6f 77 5f 73 75   |xtend_narrow_su |
     |                                               |                |              d{}: 0x1df-0x1e0.7 (2)
0x1d0|                                             00|               .|                tag: "funcidx" (0x0) 0x1df-0x1df.7 (1)
0x1e0|0e                                             |.               |                x: 14 0x1e0-0x1e0.7 (1)
     |                                               |                |            [15]{}: ex 0x1e1-0x1fd.7 (29)
     |                                               |                |              nm{}: 0x1e1-0x1fb.7 (27)
0x1e0|   1a                                          | .              |                n: 26 0x1e1-0x1e1.7 (1)
0x1e0|      69 33 32 78 34 5f 6c 6f 77 5f 65 78 74 65|  i32x4_low_exte|                b: "i32x4_low_extend_narrow_uu" 0x1e2-0x1fb.7 (26)
0x1f0|6e 64 5f 6e 61 72 72 6f 77 5f 75 75            |nd_narrow_uu    |
     |                                               |                |              d{}: 0x1fc-0x1fd.7 (2)
0x1f0|                                    00         |            .   |                tag: "funcidx" (0x0) 0x1fc-0x1fc.7 (1)
0x1f0|                                       0f      |             .  |                x: 15 0x1fd-0x1fd.7 (1)
     |                                               |                |            [16]{}: ex 0x1fe-0x21a.7 (29)
     |                                               |                |              nm{}: 0x1fe-0x218.7 (27)
0x1f0|                                          1a   |              . |                n: 26 0x1fe-0x1fe.7 (1)
0x1f0|                                             69|               i|                b: "i32x4_low_extend_narrow_us" 0x1ff-0x218.7 (26)
0x200|33 32 78 34 5f 6c 6f 77 5f 65 78 74 65 6e 64 5f|32x4_low_extend_|
0x210|6e 61 72 72 6f 77 5f 75 73                     |narrow_us       |
     |                                               |                |              d{}: 0x219-0x21a.7 (2)
0x210|                           00                  |         .      |                tag: "funcidx" (0x0) 0x219-0x219.7 (1)
0x210|                              10               |          .     |                x: 16 0x21a-0x21a.7 (1)
     |                                               |                |            [17]{}: ex 0x21b-0x238.7 (30)
     |                                               |                |              nm{}: 0x21b-0x236.7 (28)
0x210|                                 1b            |           .    |                n: 27 0x21b-0x21b.7 (1)
0x210|                                    69 33 32 78|            i32x|                b: "i32x4_high_extend_narrow_uu" 0x21c-0x236.7 (27)
0x220|34 5f 68 69 67 68 5f 65 78 74 65 6e 64 5f 6e 61|4_high_extend_na|
0x230|72 72 6f 77 5f 75 75                           |rrow_uu         |
     |                                               |                |              d{}: 0x237-0x238.7 (2)
0x230|                     00                        |       .        |                tag: "funcidx" (0x0) 0x237-0x237.7 (1)
0x230|                        11                     |        .       |                x: 17 0x238-0x238.7 (1)
     |                                               |                |            [18]{}: ex 0x239-0x256.7 (30)
     |                                               |                |              nm{}: 0x239-0x254.7 (28)
0x230|                           1b                  |         .      |                n: 27 0x239-0x239.7 (1)
0x230|                              69 33 32 78 34 5f|          i32x4_|                b: "i32x4_high_extend_narrow_us" 0x23a-0x254.7 (27)
0x240|68 69 67 68 5f 65 78 74 65 6e 64 5f 6e 61 72 72|high_extend_narr|
0x250|6f 77 5f 75 73                                 |ow_us           |
     |                                               |                |              d{}: 0x255-0x256.7 (2)
0x250|               00                              |     .          |                tag: "funcidx" (0x0) 0x255-0x255.7 (1)
0x250|                  12                           |      .         |                x: 18 0x256-0x256.7 (1)
     |                                               |                |    [3]{}: section 0x257-0x349.7 (243)
0x250|                     0a                        |       .        |      id: "code section" (10) 0x257-0x257.7 (1)
0x250|                        f0 01                  |        ..      |      size: 240 0x258-0x259.7 (2)
     |                                               |                |      content{}: 0x25a-0x349.7 (240)
     |                                               |                |        code{}: 0x25a-0x349.7 (240)
0x250|                              13               |          .     |          n: 19 0x25a-0x25a.7 (1)
     |                                               |                |          x[0:19]: 0x25b-0x349.7 (239)
     |                                               |                |            [0]{}: code 0x25b-0x267.7 (13)
0x250|                                 0c            |           .    |              size: 12 0x25b-0x25b.7 (1)
     |                                               |                |              code{}: 0x25c-0x267.7 (12)
     |                                               |                |                t{}: 0x25c-0x25c.7 (1)
0x250|                                    00         |            .   |                  n: 0 0x25c-0x25c.7 (1)
     |                                               |                |                  x[0:0]: 0x25d-NA (0)
     |                                               |                |                e[0:5]: 0x25d-0x267.7 (11)
     |                                               |                |                  [0]{}: in 0x25d-0x25e.7 (2)
0x250|                                       20      |                |                    local.get: 0x20 (valid) 0x25d-0x25d.7 (1)
0x250|                                          00   |              . |                    x: 0 0x25e-0x25e.7 (1)
     |                                               |                |                  [1]{}: in 0x25f-0x260.7 (2)
0x250|                                             20|                |                    local.get: 0x20 (valid) 0x25f-0x25f.7 (1)
0x260|01                                             |.               |                    x: 1 0x260-0x260.7 (1)
     |                                               |                |                  [2]{}: in 0x261-0x263.7 (3)
0x260|   fd                                          | .              |                    prefix: 0xfd (valid) 0x261-0x261.7 (1)
0x260|      ae 01                                    |  ..            |                    i32x4.add: 174 (valid) 0x262-0x263.7 (2)
     |                                               |                |                  [3]{}: in 0x264-0x266.7 (3)
0x260|            fd                                 |    .           |                    prefix: 0xfd (valid) 0x264-0x264.7 (1)
0x260|               fa 01                           |     ..         |                    f32x4.convert_i32x4_s: 250 (valid) 0x265-0x266.7 (2)
     |                                               |                |                  [4]{}: in 0x267-0x267.7 (1)
0x260|                     0b                        |       .        |                    end: 0xb (valid) 0x267-0x267.7 (1)
     |                                               |                |            [1]{}: code 0x268-0x274.7 (13)
0x260|                        0c                     |        .       |              size: 12 0x268-0x268.7 (1)
     |                                               |                |              code{}: 0x269-0x274.7 (12)
     |                                               |                |                t{}: 0x269-0x269.7 (1)
0x260|                           00                  |         .      |                  n: 0 0x269-0x269.7 (1)
     |                                               |                |                  x[0:0]: 0x26a-NA (0)
     |                                               |                |                e[0:5]: 0x26a-0x274.7 (11)
     |                                               |                |                  [0]{}: in 0x26a-0x26b.7 (2)
0x260|                              20               |                |                    local.get: 0x20 (valid) 0x26a-0x26a.7 (1)
0x260|                                 00            |           .    |                    x: 0 0x26b-0x26b.7 (1)
     |                                               |                |                  [1]{}: in 0x26c-0x26d.7 (2)
0x260|                                    20         |                |                    local.get: 0x20 (valid) 0x26c-0x26c.7 (1)
0x260|                                       01      |             .  |                    x: 1 0x26d-0x26d.7 (1)
     |                                               |                |                  [2]{}: in 0x26e-0x270.7 (3)
0x260|                                          fd   |              . |                    prefix: 0xfd (valid) 0x26e-0x26e.7 (1)
0x260|                                             b1|               .|                    i32x4.sub: 177 (valid) 0x26f-0x270.7 (2)
0x270|01                                             |.               |
     |                                               |                |                  [3]{}: in 0x271-0x273.7 (3)
0x270|   fd                                          | .              |                    prefix: 0xfd (valid) 0x271-0x271.7 (1)
0x270|      fa 01                                    |  ..            |                    f32x4.convert_i32x4_s: 250 (valid) 0x272-0x273.7 (2)
     |                                               |                |                  [4]{}: in 0x274-0x274.7 (1)
0x270|            0b                                 |    .           |                    end: 0xb (valid) 0x274-0x274.7 (1)
     |                                               |                |            [2]{}: code 0x275-0x281.7 (13)
0x270|               0c                              |     .          |              size: 12 0x275-0x275.7 (1)
     |                                               |                |              code{}: 0x276-0x281.7 (12)
     |                                               |                |                t{}: 0x276-0x276.7 (1)
0x270|                  00                           |      .         |                  n: 0 0x276-0x276.7 (1)
     |                                               |                |                  x[0:0]: 0x277-NA (0)
     |                                               |                |                e[0:5]: 0x277-0x281.7 (11)
     |                                               |                |                  [0]{}: in 0x277-0x278.7 (2)
0x270|                     20                        |                |                    local.get: 0x20 (valid) 0x277-0x277.7 (1)
0x270|                        00                     |        .       |                    x: 0 0x278-0x278.7 (1)
     |                                               |                |                  [1]{}: in 0x279-0x27a.7 (2)
0x270|                           20                  |                |                    local.get: 0x20 (valid) 0x279-0x279.7 (1)
0x270|                              01               |          .     |                    x: 1 0x27a-0x27a.7 (1)
     |                                               |                |                  [2]{}: in 0x27b-0x27d.7 (3)
0x270|                                 fd            |           .    |                    prefix: 0xfd (valid) 0x27b-0x27b.7 (1)
0x270|                                    b5 01      |            ..  |                    i32x4.mul: 181 (valid) 0x27c-0x27d.7 (2)
     |                                               |                |                  [3]{}: in 0x27e-0x280.7 (3)
0x270|                                          fd   |              . |                    prefix: 0xfd (valid) 0x27e-0x27e.7 (1)
0x270|                                             fb|               .|                    f32x4.convert_i32x4_u: 251 (valid) 0x27f-0x280.7 (2)
0x280|01                                             |.               |
     |                                               |                |                  [4]{}: in 0x281-0x281.7 (1)
0x280|   0b                                          | .              |                    end: 0xb (valid) 0x281-0x281.7 (1)
     |                                               |                |            [3]{}: code 0x282-0x28d.7 (12)
0x280|      0b                                       |  .             |              size: 11 0x282-0x282.7 (1)
     |                                               |                |              code{}: 0x283-0x28d.7 (11)
     |                                               |                |                t{}: 0x283-0x283.7 (1)
0x280|         00                                    |   .            |                  n: 0 0x283-0x283.7 (1)
     |                                               |                |                  x[0:0]: 0x284-NA (0)
     |                                               |                |                e[0:5]: 0x284-0x28d.7 (10)
     |                                               |                |                  [0]{}: in 0x284-0x285.7 (2)
0x280|            20                                 |                |                    local.get: 0x20 (valid) 0x284-0x284.7 (1)
0x280|               00                              |     .          |                    x: 0 0x285-0x285.7 (1)
     |                                               |                |                  [1]{}: in 0x286-0x287.7 (2)
0x280|                  20                           |                |                    local.get: 0x20 (valid) 0x286-0x286.7 (1)
0x280|                     01                        |       .        |                    x: 1 0x287-0x287.7 (1)
     |                                               |                |                  [2]{}: in 0x288-0x289.7 (2)
0x280|                        fd                     |        .       |                    prefix: 0xfd (valid) 0x288-0x288.7 (1)
0x280|                           65                  |         e      |                    i8x16.narrow_i16x8_s: 101 (valid) 0x289-0x289.7 (1)
     |                                               |                |                  [3]{}: in 0x28a-0x28c.7 (3)
0x280|                              fd               |          .     |                    prefix: 0xfd (valid) 0x28a-0x28a.7 (1)
0x280|                                 87 01         |           ..   |                    i16x8.extend_low_i8x16_s: 135 (valid) 0x28b-0x28c.7 (2)
     |                                               |                |                  [4]{}: in 0x28d-0x28d.7 (1)
0x280|                                       0b      |             .  |                    end: 0xb (valid) 0x28d-0x28d.7 (1)
     |                                               |                |            [4]{}: code 0x28e-0x299.7 (12)
0x280|                                          0b   |              . |              size: 11 0x28e-0x28e.7 (1)
     |                                               |                |              code{}: 0x28f-0x299.7 (11)
     |                                               |                |                t{}: 0x28f-0x28f.7 (1)
0x280|                                             00|               .|                  n: 0 0x28f-0x28f.7 (1)
     |                                               |                |                  x[0:0]: 0x290-NA (0)
     |                                               |                |                e[0:5]: 0x290-0x299.7 (10)
     |                                               |                |                  [0]{}: in 0x290-0x291.7 (2)
0x290|20                                             |                |                    local.get: 0x20 (valid) 0x290-0x290.7 (1)
0x290|   00                                          | .              |                    x: 0 0x291-0x291.7 (1)
     |                                               |                |                  [1]{}: in 0x292-0x293.7 (2)
0x290|      20                                       |                |                    local.get: 0x20 (valid) 0x292-0x292.7 (1)
0x290|         01                                    |   .            |                    x: 1 0x293-0x293.7 (1)
     |                                               |                |                  [2]{}: in 0x294-0x295.7 (2)
0x290|            fd                                 |    .           |                    prefix: 0xfd (valid) 0x294-0x294.7 (1)
0x290|               66                              |     f          |                    i8x16.narrow_i16x8_u: 102 (valid) 0x295-0x295.7 (1)
     |                                               |                |                  [3]{}: in 0x296-0x298.7 (3)
0x290|                  fd                           |      .         |                    prefix: 0xfd (valid) 0x296-0x296.7 (1)
0x290|                     87 01                     |       ..       |                    i16x8.extend_low_i8x16_s: 135 (valid) 0x297-0x298.7 (2)
     |                                               |                |                  [4]{}: in 0x299-0x299.7 (1)
0x290|                           0b                  |         .      |                    end: 0xb (valid) 0x299-0x299.7 (1)
     |                                               |                |            [5]{}: code 0x29a-0x2a5.7 (12)
0x290|                              0b               |          .     |              size: 11 0x29a-0x29a.7 (1)
     |                                               |                |              code{}: 0x29b-0x2a5.7 (11)
     |                                               |                |                t{}: 0x29b-0x29b.7 (1)
0x290|                                 00            |           .    |                  n: 0 0x29b-0x29b.7 (1)
     |                                               |                |                  x[0:0]: 0x29c-NA (0)
     |                                               |                |                e[0:5]: 0x29c-0x2a5.7 (10)
     |                                               |                |                  [0]{}: in 0x29c-0x29d.7 (2)
0x290|                                    20         |                |                    local.get: 0x20 (valid) 0x29c-0x29c.7 (1)
0x290|                                       00      |             .  |                    x: 0 0x29d-0x29d.7 (1)
     |                                               |                |                  [1]{}: in 0x29e-0x29f.7 (2)
0x290|                                          20   |                |                    local.get: 0x20 (valid) 0x29e-0x29e.7 (1)
0x290|                                             01|               .|                    x: 1 0x29f-0x29f.7 (1)
     |                                               |                |                  [2]{}: in 0x2a0-0x2a1.7 (2)
0x2a0|fd                                             |.               |                    prefix: 0xfd (valid) 0x2a0-0x2a0.7 (1)
0x2a0|   65                                          | e              |                    i8x16.narrow_i16x8_s: 101 (valid) 0x2a1-0x2a1.7 (1)
     |                                               |                |                  [3]{}: in 0x2a2-0x2a4.7 (3)
0x2a0|      fd                                       |  .             |                    prefix: 0xfd (valid) 0x2a2-0x2a2.7 (1)
0x2a0|         87 01                                 |   ..           |                    i16x8.extend_low_i8x16_s: 135 (valid) 0x2a3-0x2a4.7 (2)
     |                                               |                |                  [4]{}: in 0x2a5-0x2a5.7 (1)
0x2a0|               0b                              |     .          |                    end: 0xb (valid) 0x2a5-0x2a5.7 (1)
     |                                               |                |            [6]{}: code 0x2a6-0x2b1.7 (12)
0x2a0|                  0b                           |      .         |              size: 11 0x2a6-0x2a6.7 (1)
     |                                               |                |              code{}: 0x2a7-0x2b1.7 (11)
     |                                               |                |                t{}: 0x2a7-0x2a7.7 (1)
0x2a0|                     00                        |       .        |                  n: 0 0x2a7-0x2a7.7 (1)
     |                                               |                |                  x[0:0]: 0x2a8-NA (0)
     |                                               |                |                e[0:5]: 0x2a8-0x2b1.7 (10)
     |                                               |                |                  [0]{}: in 0x2a8-0x2a9.7 (2)
0x2a0|                        20                     |                |                    local.get: 0x20 (valid) 0x2a8-0x2a8.7 (1)
0x2a0|                           00                  |         .      |                    x: 0 0x2a9-0x2a9.7 (1)
     |                                               |                |                  [1]{}: in 0x2aa-0x2ab.7 (2)
0x2a0|                              20               |                |                    local.get: 0x20 (valid) 0x2aa-0x2aa.7 (1)
0x2a0|                                 01            |           .    |                    x: 1 0x2ab-0x2ab.7 (1)
     |                                               |                |                  [2]{}: in 0x2ac-0x2ad.7 (2)
0x2a0|                                    fd         |            .   |                    prefix: 0xfd (valid) 0x2ac-0x2ac.7 (1)
0x2a0|                                       66      |             f  |                    i8x16.narrow_i16x8_u: 102 (valid) 0x2ad-0x2ad.7 (1)
     |                                               |                |                  [3]{}: in 0x2ae-0x2b0.7 (3)
0x2a0|                                          fd   |              . |                    prefix: 0xfd (valid) 0x2ae-0x2ae.7 (1)
0x2a0|                                             87|               .|                    i16x8.extend_low_i8x16_s: 135 (valid) 0x2af-0x2b0.7 (2)
0x2b0|01                                             |.               |
     |                                               |                |                  [4]{}: in 0x2b1-0x2b1.7 (1)
0x2b0|   0b                                          | .              |                    end: 0xb (valid) 0x2b1-0x2b1.7 (1)
     |                                               |                |            [7]{}: code 0x2b2-0x2bd.7 (12)
0x2b0|      0b                                       |  .             |              size: 11 0x2b2-0x2b2.7 (1)
     |                                               |                |              code{}: 0x2b3-0x2bd.7 (11)
     |                                               |                |                t{}: 0x2b3-0x2b3.7 (1)
0x2b0|         00                                    |   .            |                  n: 0 0x2b3-0x2b3.7 (1)
     |                                               |                |                  x[0:0]: 0x2b4-NA (0)
     |                                               |                |                e[0:5]: 0x2b4-0x2bd.7 (10)
     |                                               |                |                  [0]{}: in 0x2b4-0x2b5.7 (2)
0x2b0|            20                                 |                |                    local.get: 0x20 (valid) 0x2b4-0x2b4.7 (1)
0x2b0|               00                              |     .          |                    x: 0 0x2b5-0x2b5.7 (1)
     |                                               |                |                  [1]{}: in 0x2b6-0x2b7.7 (2)
0x2b0|                  20                           |                |                    local.get: 0x20 (valid) 0x2b6-0x2b6.7 (1)
0x2b0|                     01                        |       .        |                    x: 1 0x2b7-0x2b7.7 (1)
     |                                               |                |                  [2]{}: in 0x2b8-0x2b9.7 (2)
0x2b0|                        fd                     |        .       |                    prefix: 0xfd (valid) 0x2b8-0x2b8.7 (1)
0x2b0|                           66                  |         f      |                    i8x16.narrow_i16x8_u: 102 (valid) 0x2b9-0x2b9.7 (1)
     |                                               |                |                  [3]{}: in 0x2ba-0x2bc.7 (3)
0x2b0|                              fd               |          .     |                    prefix: 0xfd (valid) 0x2ba-0x2ba.7 (1)
0x2b0|                                 89 01         |           ..   |                    i16x8.extend_low_i8x16_u: 137 (valid) 0x2bb-0x2bc.7 (2)
     |                                               |                |                  [4]{}: in 0x2bd-0x2bd.7 (1)
0x2b0|                                       0b      |             .  |                    end: 0xb (valid) 0x2bd-0x2bd.7 (1)
     |                                               |                |            [8]{}: code 0x2be-0x2c9.7 (12)
0x2b0|                                          0b   |              . |              size: 11 0x2be-0x2be.7 (1)
     |                                               |                |              code{}: 0x2bf-0x2c9.7 (11)
     |                                               |                |                t{}: 0x2bf-0x2bf.7 (1)
0x2b0|                                             00|               .|                  n: 0 0x2bf-0x2bf.7 (1)
     |                                               |                |                  x[0:0]: 0x2c0-NA (0)
     |                                               |                |                e[0:5]: 0x2c0-0x2c9.7 (10)
     |                                               |                |                  [0]{}: in 0x2c0-0x2c1.7 (2)
0x2c0|20                                             |                |                    local.get: 0x20 (valid) 0x2c0-0x2c0.7 (1)
0x2c0|   00                                          | .              |                    x: 0 0x2c1-0x2c1.7 (1)
     |                                               |                |                  [1]{}: in 0x2c2-0x2c3.7 (2)
0x2c0|      20                                       |                |                    local.get: 0x20 (valid) 0x2c2-0x2c2.7 (1)
0x2c0|         01                                    |   .            |                    x: 1 0x2c3-0x2c3.7 (1)
     |                                               |                |                  [2]{}: in 0x2c4-0x2c5.7 (2)
0x2c0|            fd                                 |    .           |                    prefix: 0xfd (valid) 0x2c4-0x2c4.7 (1)
0x2c0|               65                              |     e          |                    i8x16.narrow_i16x8_s: 101 (valid) 0x2c5-0x2c5.7 (1)
     |                                               |                |                  [3]{}: in 0x2c6-0x2c8.7 (3)
0x2c0|                  fd                           |      .         |                    prefix: 0xfd (valid) 0x2c6-0x2c6.7 (1)
0x2c0|                     89 01                     |       ..       |                    i16x8.extend_low_i8x16_u: 137 (valid) 0x2c7-0x2c8.7 (2)
     |                                               |                |                  [4]{}: in 0x2c9-0x2c9.7 (1)
0x2c0|                           0b                  |         .      |                    end: 0xb (valid) 0x2c9-0x2c9.7 (1)
     |                                               |                |            [9]{}: code 0x2ca-0x2d5.7 (12)
0x2c0|                              0b               |          .     |              size: 11 0x2ca-0x2ca.7 (1)
     |                                               |                |              code{}: 0x2cb-0x2d5.7 (11)
     |                                               |                |                t{}: 0x2cb-0x2cb.7 (1)
0x2c0|                                 00            |           .    |                  n: 0 0x2cb-0x2cb.7 (1)
     |                                               |                |                  x[0:0]: 0x2cc-NA (0)
     |                                               |                |                e[0:5]: 0x2cc-0x2d5.7 (10)
     |                                               |                |                  [0]{}: in 0x2cc-0x2cd.7 (2)
0x2c0|                                    20         |                |                    local.get: 0x20 (valid) 0x2cc-0x2cc.7 (1)
0x2c0|                                       00      |             .  |                    x: 0 0x2cd-0x2cd.7 (1)
     |                                               |                |                  [1]{}: in 0x2ce-0x2cf.7 (2)
0x2c0|                                          20   |                |                    local.get: 0x20 (valid) 0x2ce-0x2ce.7 (1)
0x2c0|                                             01|               .|                    x: 1 0x2cf-0x2cf.7 (1)
     |                                               |                |                  [2]{}: in 0x2d0-0x2d1.7 (2)
0x2d0|fd                                             |.               |                    prefix: 0xfd (valid) 0x2d0-0x2d0.7 (1)
0x2d0|   66                                          | f              |                    i8x16.narrow_i16x8_u: 102 (valid) 0x2d1-0x2d1.7 (1)
     |                                               |                |                  [3]{}: in 0x2d2-0x2d4.7 (3)
0x2d0|      fd                                       |  .             |                    prefix: 0xfd (valid) 0x2d2-0x2d2.7 (1)
0x2d0|         89 01                                 |   ..           |                    i16x8.extend_low_i8x16_u: 137 (valid) 0x2d3-0x2d4.7 (2)
     |                                               |                |                  [4]{}: in 0x2d5-0x2d5.7 (1)
0x2d0|               0b                              |     .          |                    end: 0xb (valid) 0x2d5-0x2d5.7 (1)
     |                                               |                |            [10]{}: code 0x2d6-0x2e1.7 (12)
0x2d0|                  0b                           |      .         |              size: 11 0x2d6-0x2d6.7 (1)
     |                                               |                |              code{}: 0x2d7-0x2e1.7 (11)
     |                                               |                |                t{}: 0x2d7-0x2d7.7 (1)
0x2d0|                     00                        |       .        |                  n: 0 0x2d7-0x2d7.7 (1)
     |                                               |                |                  x[0:0]: 0x2d8-NA (0)
     |                                               |                |                e[0:5]: 0x2d8-0x2e1.7 (10)
     |                                               |                |                  [0]{}: in 0x2d8-0x2d9.7 (2)
0x2d0|                        20                     |                |                    local.get: 0x20 (valid) 0x2d8-0x2d8.7 (1)
0x2d0|                           00                  |         .      |                    x: 0 0x2d9-0x2d9.7 (1)
     |                                               |                |                  [1]{}: in 0x2da-0x2db.7 (2)
0x2d0|                              20               |                |                    local.get: 0x20 (valid) 0x2da-0x2da.7 (1)
0x2d0|                                 01            |           .    |                    x: 1 0x2db-0x2db.7 (1)
     |                                               |                |                  [2]{}: in 0x2dc-0x2dd.7 (2)
0x2d0|                                    fd         |            .   |                    prefix: 0xfd (valid) 0x2dc-0x2dc.7 (1)
0x2d0|                                       65      |             e  |                    i8x16.narrow_i16x8_s: 101 (valid) 0x2dd-0x2dd.7 (1)
     |                                               |                |                  [3]{}: in 0x2de-0x2e0.7 (3)
0x2d0|                                          fd   |              . |                    prefix: 0xfd (valid) 0x2de-0x2de.7 (1)
0x2d0|                                             89|               .|                    i16x8.extend_low_i8x16_u: 137 (valid) 0x2df-0x2e0.7 (2)
0x2e0|01                                             |.               |
     |                                               |                |                  [4]{}: in 0x2e1-0x2e1.7 (1)
0x2e0|   0b                                          | .              |                    end: 0xb (valid) 0x2e1-0x2e1.7 (1)
     |                                               |                |            [11]{}: code 0x2e2-0x2ee.7 (13)
0x2e0|      0c                                       |  .             |              size: 12 0x2e2-0x2e2.7 (1)
     |                                               |                |              code{}: 0x2e3-0x2ee.7 (12)
     |                                               |                |                t{}: 0x2e3-0x2e3.7 (1)
0x2e0|         00                                    |   .            |                  n: 0 0x2e3-0x2e3.7 (1)
     |                                               |                |                  x[0:0]: 0x2e4-NA (0)
     |                                               |                |                e[0:5]: 0x2e4-0x2ee.7 (11)
     |                                               |                |                  [0]{}: in 0x2e4-0x2e5.7 (2)
0x2e0|            20                                 |                |                    local.get: 0x20 (valid) 0x2e4-0x2e4.7 (1)
0x2e0|               00                              |     .          |                    x: 0 0x2e5-0x2e5.7 (1)
     |                                               |                |                  [1]{}: in 0x2e6-0x2e7.7 (2)
0x2e0|                  20                           |                |                    local.get: 0x20 (valid) 0x2e6-0x2e6.7 (1)
0x2e0|                     01                        |       .        |                    x: 1 0x2e7-0x2e7.7 (1)
     |                                               |                |                  [2]{}: in 0x2e8-0x2ea.7 (3)
0x2e0|                        fd                     |        .       |                    prefix: 0xfd (valid) 0x2e8-0x2e8.7 (1)
0x2e0|                           85 01               |         ..     |                    i16x8.narrow_i32x4_s: 133 (valid) 0x2e9-0x2ea.7 (2)
     |                                               |                |                  [3]{}: in 0x2eb-0x2ed.7 (3)
0x2e0|                                 fd            |           .    |                    prefix: 0xfd (valid) 0x2eb-0x2eb.7 (1)
0x2e0|                                    a7 01      |            ..  |                    i32x4.extend_low_i16x8_s: 167 (valid) 0x2ec-0x2ed.7 (2)
     |                                               |                |                  [4]{}: in 0x2ee-0x2ee.7 (1)
0x2e0|                                          0b   |              . |                    end: 0xb (valid) 0x2ee-0x2ee.7 (1)
     |                                               |                |            [12]{}: code 0x2ef-0x2fb.7 (13)
0x2e0|                                             0c|               .|              size: 12 0x2ef-0x2ef.7 (1)
     |                                               |                |              code{}: 0x2f0-0x2fb.7 (12)
     |                                               |                |                t{}: 0x2f0-0x2f0.7 (1)
0x2f0|00                                             |.               |                  n: 0 0x2f0-0x2f0.7 (1)
     |                                               |                |                  x[0:0]: 0x2f1-NA (0)
     |                                               |                |                e[0:5]: 0x2f1-0x2fb.7 (11)
     |                                               |                |                  [0]{}: in 0x2f1-0x2f2.7 (2)
0x2f0|   20                                          |                |                    local.get: 0x20 (valid) 0x2f1-0x2f1.7 (1)
0x2f0|      00                                       |  .             |                    x: 0 0x2f2-0x2f2.7 (1)
     |                                               |                |                  [1]{}: in 0x2f3-0x2f4.7 (2)
0x2f0|         20                                    |                |                    local.get: 0x20 (valid) 0x2f3-0x2f3.7 (1)
0x2f0|            01                                 |    .           |                    x: 1 0x2f4-0x2f4.7 (1)
     |                                               |                |                  [2]{}: in 0x2f5-0x2f7.7 (3)
0x2f0|               fd                              |     .          |                    prefix: 0xfd (valid) 0x2f5-0x2f5.7 (1)
0x2f0|                  86 01                        |      ..        |                    i16x8.narrow_i32x4_u: 134 (valid) 0x2f6-0x2f7.7 (2)
     |                                               |                |                  [3]{}: in 0x2f8-0x2fa.7 (3)
0x2f0|                        fd                     |        .       |                    prefix: 0xfd (valid) 0x2f8-0x2f8.7 (1)
0x2f0|                           a7 01               |         ..     |                    i32x4.extend_low_i16x8_s: 167 (valid) 0x2f9-0x2fa.7 (2)
     |                                               |                |                  [4]{}: in 0x2fb-0x2fb.7 (1)
0x2f0|                                 0b            |           .    |                    end: 0xb (valid) 0x2fb-0x2fb.7 (1)
     |                                               |                |            [13]{}: code 0x2fc-0x308.7 (13)
0x2f0|                                    0c         |            .   |              size: 12 0x2fc-0x2fc.7 (1)
     |                                               |                |              code{}: 0x2fd-0x308.7 (12)
     |                                               |                |                t{}: 0x2fd-0x2fd.7 (1)
0x2f0|                                       00      |             .  |                  n: 0 0x2fd-0x2fd.7 (1)
     |                                               |                |                  x[0:0]: 0x2fe-NA (0)
     |                                               |                |                e[0:5]: 0x2fe-0x308.7 (11)
     |                                               |                |                  [0]{}: in 0x2fe-0x2ff.7 (2)
0x2f0|                                          20   |                |                    local.get: 0x20 (valid) 0x2fe-0x2fe.7 (1)
0x2f0|                                             00|               .|                    x: 0 0x2ff-0x2ff.7 (1)
     |                                               |                |                  [1]{}: in 0x300-0x301.7 (2)
0x300|20                                             |                |                    local.get: 0x20 (valid) 0x300-0x300.7 (1)
0x300|   01                                          | .              |                    x: 1 0x301-0x301.7 (1)
     |                                               |                |                  [2]{}: in 0x302-0x304.7 (3)
0x300|      fd                                       |  .             |                    prefix: 0xfd (valid) 0x302-0x302.7 (1)
0x300|         85 01                                 |   ..           |                    i16x8.narrow_i32x4_s: 133 (valid) 0x303-0x304.7 (2)
     |                                               |                |                  [3]{}: in 0x305-0x307.7 (3)
0x300|               fd                              |     .          |                    prefix: 0xfd (valid) 0x305-0x305.7 (1)
0x300|                  a7 01                        |      ..        |                    i32x4.extend_low_i16x8_s: 167 (valid) 0x306-0x307.7 (2)
     |                                               |                |                  [4]{}: in 0x308-0x308.7 (1)
0x300|                        0b                     |        .       |                    end: 0xb (valid) 0x308-0x308.7 (1)
     |                                               |                |            [14]{}: code 0x309-0x315.7 (13)
0x300|                           0c                  |         .      |              size: 12 0x309-0x309.7 (1)
     |                                               |                |              code{}: 0x30a-0x315.7 (12)
     |                                               |                |                t{}: 0x30a-0x30a.7 (1)
0x300|                              00               |          .     |                  n: 0 0x30a-0x30a.7 (1)
     |                                               |                |                  x[0:0]: 0x30b-NA (0)
     |                                               |                |                e[0:5]: 0x30b-0x315.7 (11)
     |                                               |                |                  [0]{}: in 0x30b-0x30c.7 (2)
0x300|                                 20            |                |                    local.get: 0x20 (valid) 0x30b-0x30b.7 (1)
0x300|                                    00         |            .   |                    x: 0 0x30c-0x30c.7 (1)
     |                                               |                |                  [1]{}: in 0x30d-0x30e.7 (2)
0x300|                                       20      |                |                    local.get: 0x20 (valid) 0x30d-0x30d.7 (1)
0x300|                                          01   |              . |                    x: 1 0x30e-0x30e.7 (1)
     |                                               |                |                  [2]{}: in 0x30f-0x311.7 (3)
0x300|                                             fd|               .|                    prefix: 0xfd (valid) 0x30f-0x30f.7 (1)
0x310|86 01                                          |..              |                    i16x8.narrow_i32x4_u: 134 (valid) 0x310-0x311.7 (2)
     |                                               |                |                  [3]{}: in 0x312-0x314.7 (3)
0x310|      fd                                       |  .             |                    prefix: 0xfd (valid) 0x312-0x312.7 (1)
0x310|         a7 01                                 |   ..           |                    i32x4.extend_low_i16x8_s: 167 (valid) 0x313-0x314.7 (2)
     |                                               |                |                  [4]{}: in 0x315-0x315.7 (1)
0x310|               0b                              |     .          |                    end: 0xb (valid) 0x315-0x315.7 (1)
     |                                               |                |            [15]{}: code 0x316-0x322.7 (13)
0x310|                  0c                           |      .         |              size: 12 0x316-0x316.7 (1)
     |                                               |                |              code{}: 0x317-0x322.7 (12)
     |                                               |                |                t{}: 0x317-0x317.7 (1)
0x310|                     00                        |       .        |                  n: 0 0x317-0x317.7 (1)
     |                                               |                |                  x[0:0]: 0x318-NA (0)
     |                                               |                |                e[0:5]: 0x318-0x322.7 (11)
     |                                               |                |                  [0]{}: in 0x318-0x319.7 (2)
0x310|                        20                     |                |                    local.get: 0x20 (valid) 0x318-0x318.7 (1)
0x310|                           00                  |         .      |                    x: 0 0x319-0x319.7 (1)
     |                                               |                |                  [1]{}: in 0x31a-0x31b.7 (2)
0x310|                              20               |                |                    local.get: 0x20 (valid) 0x31a-0x31a.7 (1)
0x310|                                 01            |           .    |                    x: 1 0x31b-0x31b.7 (1)
     |                                               |                |                  [2]{}: in 0x31c-0x31e.7 (3)
0x310|                                    fd         |            .   |                    prefix: 0xfd (valid) 0x31c-0x31c.7 (1)
0x310|                                       86 01   |             .. |                    i16x8.narrow_i32x4_u: 134 (valid) 0x31d-0x31e.7 (2)
     |                                               |                |                  [3]{}: in 0x31f-0x321.7 (3)
0x310|                                             fd|               .|                    prefix: 0xfd (valid) 0x31f-0x31f.7 (1)
0x320|a9 01                                          |..              |                    i32x4.extend_low_i16x8_u: 169 (valid) 0x320-0x321.7 (2)
     |                                               |                |                  [4]{}: in 0x322-0x322.7 (1)
0x320|      0b                                       |  .             |                    end: 0xb (valid) 0x322-0x322.7 (1)
     |                                               |                |            [16]{}: code 0x323-0x32f.7 (13)
0x320|         0c                                    |   .            |              size: 12 0x323-0x323.7 (1)
     |                                               |                |              code{}: 0x324-0x32f.7 (12)
     |                                               |                |                t{}: 0x324-0x324.7 (1)
0x320|            00                                 |    .           |                  n: 0 0x324-0x324.7 (1)
     |                                               |                |                  x[0:0]: 0x325-NA (0)
     |                                               |                |                e[0:5]: 0x325-0x32f.7 (11)
     |                                               |                |                  [0]{}: in 0x325-0x326.7 (2)
0x320|               20                              |                |                    local.get: 0x20 (valid) 0x325-0x325.7 (1)
0x320|                  00                           |      .         |                    x: 0 0x326-0x326.7 (1)
     |                                               |                |                  [1]{}: in 0x327-0x328.7 (2)
0x320|                     20                        |                |                    local.get: 0x20 (valid) 0x327-0x327.7 (1)
0x320|                        01                     |        .       |                    x: 1 0x328-0x328.7 (1)
     |                                               |                |                  [2]{}: in 0x329-0x32b.7 (3)
0x320|                           fd                  |         .      |                    prefix: 0xfd (valid) 0x329-0x329.7 (1)
0x320|                              85 01            |          ..    |                    i16x8.narrow_i32x4_s: 133 (valid) 0x32a-0x32b.7 (2)
     |                                               |                |                  [3]{}: in 0x32c-0x32e.7 (3)
0x320|                                    fd         |            .   |                    prefix: 0xfd (valid) 0x32c-0x32c.7 (1)
0x320|                                       a9 01   |             .. |                    i32x4.extend_low_i16x8_u: 169 (valid) 0x32d-0x32e.7 (2)
     |                                               |                |                  [4]{}: in 0x32f-0x32f.7 (1)
0x320|                                             0b|               .|                    end: 0xb (valid) 0x32f-0x32f.7 (1)
     |                                               |                |            [17]{}: code 0x330-0x33c.7 (13)
0x330|0c                                             |.               |              size: 12 0x330-0x330.7 (1)
     |                                               |                |              code{}: 0x331-0x33c.7 (12)
     |                                               |                |                t{}: 0x331-0x331.7 (1)
0x330|   00                                          | .              |                  n: 0 0x331-0x331.7 (1)
     |                                               |                |                  x[0:0]: 0x332-NA (0)
     |                                               |                |                e[0:5]: 0x332-0x33c.7 (11)
     |                                               |                |                  [0]{}: in 0x332-0x333.7 (2)
0x330|      20                                       |                |                    local.get: 0x20 (valid) 0x332-0x332.7 (1)
0x330|         00                                    |   .            |                    x: 0 0x333-0x333.7 (1)
     |                                               |                |                  [1]{}: in 0x334-0x335.7 (2)
0x330|            20                                 |                |                    local.get: 0x20 (valid) 0x334-0x334.7 (1)
0x330|               01                              |     .          |                    x: 1 0x335-0x335.7 (1)
     |                                               |                |                  [2]{}: in 0x336-0x338.7 (3)
0x330|                  fd                           |      .         |                    prefix: 0xfd (valid) 0x336-0x336.7 (1)
0x330|                     86 01                     |       ..       |                    i16x8.narrow_i32x4_u: 134 (valid) 0x337-0x338.7 (2)
     |                                               |                |                  [3]{}: in 0x339-0x33b.7 (3)
0x330|                           fd                  |         .      |                    prefix: 0xfd (valid) 0x339-0x339.7 (1)
0x330|                              a9 01            |          ..    |                    i32x4.extend_low_i16x8_u: 169 (valid) 0x33a-0x33b.7 (2)
     |                                               |                |                  [4]{}: in 0x33c-0x33c.7 (1)
0x330|                                    0b         |            .   |                    end: 0xb (valid) 0x33c-0x33c.7 (1)
     |                                               |                |            [18]{}: code 0x33d-0x349.7 (13)
0x330|                                       0c      |             .  |              size: 12 0x33d-0x33d.7 (1)
     |                                               |                |              code{}: 0x33e-0x349.7 (12)
     |                                               |                |                t{}: 0x33e-0x33e.7 (1)
0x330|                                          00   |              . |                  n: 0 0x33e-0x33e.7 (1)
     |                                               |                |                  x[0:0]: 0x33f-NA (0)
     |                                               |                |                e[0:5]: 0x33f-0x349.7 (11)
     |                                               |                |                  [0]{}: in 0x33f-0x340.7 (2)
0x330|                                             20|                |                    local.get: 0x20 (valid) 0x33f-0x33f.7 (1)
0x340|00                                             |.               |                    x: 0 0x340-0x340.7 (1)
     |                                               |                |                  [1]{}: in 0x341-0x342.7 (2)
0x340|   20                                          |                |                    local.get: 0x20 (valid) 0x341-0x341.7 (1)
0x340|      01                                       |  .             |                    x: 1 0x342-0x342.7 (1)
     |                                               |                |                  [2]{}: in 0x343-0x345.7 (3)
0x340|         fd                                    |   .            |                    prefix: 0xfd (valid) 0x343-0x343.7 (1)
0x340|            85 01                              |    ..          |                    i16x8.narrow_i32x4_s: 133 (valid) 0x344-0x345.7 (2)
     |                                               |                |                  [3]{}: in 0x346-0x348.7 (3)
0x340|                  fd                           |      .         |                    prefix: 0xfd (valid) 0x346-0x346.7 (1)
0x340|                     a9 01                     |       ..       |                    i32x4.extend_low_i16x8_u: 169 (valid) 0x347-0x348.7 (2)
     |                                               |                |                  [4]{}: in 0x349-0x349.7 (1)
0x340|                           0b|                 |         .|     |                    end: 0xb (valid) 0x349-0x349.7 (1)
