$ fq -d wasm dv simd_i16x8_arith2-0.wasm
     |00 01 02 03 04 05 06 07 08 09 0a 0b 0c 0d 0e 0f|0123456789abcdef|.{}: simd_i16x8_arith2-0.wasm (wasm) 0x0-0x5d1 (1489)
0x000|00 61 73 6d                                    |.asm            |  magic: raw bits (valid) 0x0-0x4 (4)
0x000|            01 00 00 00                        |    ....        |  version: 1 0x4-0x8 (4)
     |                                               |                |  sections[0:4]: 0x8-0x5d1 (1481)
     |                                               |                |    [0]{}: section 0x8-0x1a (18)
0x000|                        01                     |        .       |      id: "type_section" (1) 0x8-0x9 (1)
0x000|                           10                  |         .      |      size: 16 (valid) 0x9-0xa (1)
     |                                               |                |      content{}: 0xa-0x1a (16)
     |                                               |                |        ft{}: 0xa-0x1a (16)
0x000|                              03               |          .     |          n: 3 (valid) 0xa-0xb (1)
     |                                               |                |          x[0:3]: 0xb-0x1a (15)
     |                                               |                |            [0]{}: ft 0xb-0x11 (6)
0x000|                                 60            |           `    |              tag: 0x60 (valid) 0xb-0xc (1)
     |                                               |                |              rt1{}: 0xc-0xf (3)
0x000|                                    02         |            .   |                n: 2 (valid) 0xc-0xd (1)
     |                                               |                |                x[0:2]: 0xd-0xf (2)
0x000|                                       7b      |             {  |                  [0]: "v128" (0x7b) t 0xd-0xe (1)
0x000|                                          7b   |              { |                  [1]: "v128" (0x7b) t 0xe-0xf (1)
     |                                               |                |              rt2{}: 0xf-0x11 (2)
0x000|                                             01|               .|                n: 1 (valid) 0xf-0x10 (1)
     |                                               |                |                x[0:1]: 0x10-0x11 (1)
0x010|7b                                             |{               |                  [0]: "v128" (0x7b) t 0x10-0x11 (1)
     |                                               |                |            [1]{}: ft 0x11-0x16 (5)
0x010|   60                                          | `              |              tag: 0x60 (valid) 0x11-0x12 (1)
     |                                               |                |              rt1{}: 0x12-0x14 (2)
0x010|      01                                       |  .             |                n: 1 (valid) 0x12-0x13 (1)
     |                                               |                |                x[0:1]: 0x13-0x14 (1)
0x010|         7b                                    |   {            |                  [0]: "v128" (0x7b) t 0x13-0x14 (1)
     |                                               |                |              rt2{}: 0x14-0x16 (2)
0x010|            01                                 |    .           |                n: 1 (valid) 0x14-0x15 (1)
     |                                               |                |                x[0:1]: 0x15-0x16 (1)
0x010|               7b                              |     {          |                  [0]: "v128" (0x7b) t 0x15-0x16 (1)
     |                                               |                |            [2]{}: ft 0x16-0x1a (4)
0x010|                  60                           |      `         |              tag: 0x60 (valid) 0x16-0x17 (1)
     |                                               |                |              rt1{}: 0x17-0x18 (1)
0x010|                     00                        |       .        |                n: 0 (valid) 0x17-0x18 (1)
     |                                               |                |                x[0:0]: 0x18-0x18 (0)
     |                                               |                |              rt2{}: 0x18-0x1a (2)
0x010|                        01                     |        .       |                n: 1 (valid) 0x18-0x19 (1)
     |                                               |                |                x[0:1]: 0x19-0x1a (1)
0x010|                           7b                  |         {      |                  [0]: "v128" (0x7b) t 0x19-0x1a (1)
     |                                               |                |    [1]{}: section 0x1a-0x38 (30)
0x010|                              03               |          .     |      id: "function_section" (3) 0x1a-0x1b (1)
0x010|                                 1c            |           .    |      size: 28 (valid) 0x1b-0x1c (1)
     |                                               |                |      content{}: 0x1c-0x38 (28)
     |                                               |                |        x{}: 0x1c-0x38 (28)
0x010|                                    1b         |            .   |          n: 27 (valid) 0x1c-0x1d (1)
     |                                               |                |          x[0:27]: 0x1d-0x38 (27)
0x010|                                       00      |             .  |            [0]: 0 x (valid) 0x1d-0x1e (1)
0x010|                                          00   |              . |            [1]: 0 x (valid) 0x1e-0x1f (1)
0x010|                                             00|               .|            [2]: 0 x (valid) 0x1f-0x20 (1)
0x020|00                                             |.               |            [3]: 0 x (valid) 0x20-0x21 (1)
0x020|   00                                          | .              |            [4]: 0 x (valid) 0x21-0x22 (1)
0x020|      01                                       |  .             |            [5]: 1 x (valid) 0x22-0x23 (1)
0x020|         02                                    |   .            |            [6]: 2 x (valid) 0x23-0x24 (1)
0x020|            02                                 |    .           |            [7]: 2 x (valid) 0x24-0x25 (1)
0x020|               02                              |     .          |            [8]: 2 x (valid) 0x25-0x26 (1)
0x020|                  02                           |      .         |            [9]: 2 x (valid) 0x26-0x27 (1)
0x020|                     02                        |       .        |            [10]: 2 x (valid) 0x27-0x28 (1)
0x020|                        02                     |        .       |            [11]: 2 x (valid) 0x28-0x29 (1)
0x020|                           02                  |         .      |            [12]: 2 x (valid) 0x29-0x2a (1)
0x020|                              02               |          .     |            [13]: 2 x (valid) 0x2a-0x2b (1)
0x020|                                 02            |           .    |            [14]: 2 x (valid) 0x2b-0x2c (1)
0x020|                                    02         |            .   |            [15]: 2 x (valid) 0x2c-0x2d (1)
0x020|                                       02      |             .  |            [16]: 2 x (valid) 0x2d-0x2e (1)
0x020|                                          01   |              . |            [17]: 1 x (valid) 0x2e-0x2f (1)
0x020|                                             01|               .|            [18]: 1 x (valid) 0x2f-0x30 (1)
0x030|01                                             |.               |            [19]: 1 x (valid) 0x30-0x31 (1)
0x030|   01                                          | .              |            [20]: 1 x (valid) 0x31-0x32 (1)
0x030|      01                                       |  .             |            [21]: 1 x (valid) 0x32-0x33 (1)
0x030|         01                                    |   .            |            [22]: 1 x (valid) 0x33-0x34 (1)
0x030|            01                                 |    .           |            [23]: 1 x (valid) 0x34-0x35 (1)
0x030|               01                              |     .          |            [24]: 1 x (valid) 0x35-0x36 (1)
0x030|                  01                           |      .         |            [25]: 1 x (valid) 0x36-0x37 (1)
0x030|                     01                        |       .        |            [26]: 1 x (valid) 0x37-0x38 (1)
     |                                               |                |    [2]{}: section 0x38-0x2d3 (667)
0x030|                        07                     |        .       |      id: "export_section" (7) 0x38-0x39 (1)
0x030|                           98 05               |         ..     |      size: 664 (valid) 0x39-0x3b (2)
     |                                               |                |      content{}: 0x3b-0x2d3 (664)
     |                                               |                |        ex{}: 0x3b-0x2d3 (664)
0x030|                                 1b            |           .    |          n: 27 (valid) 0x3b-0x3c (1)
     |                                               |                |          x[0:27]: 0x3c-0x2d3 (663)
     |                                               |                |            [0]{}: ex 0x3c-0x4a (14)
     |                                               |                |              nm{}: 0x3c-0x48 (12)
0x030|                                    0b         |            .   |                n: 11 (valid) 0x3c-0x3d (1)
0x030|                                       69 31 36|             i16|                b: "i16x8.min_s" 0x3d-0x48 (11)
0x040|78 38 2e 6d 69 6e 5f 73                        |x8.min_s        |
     |                                               |                |              d{}: 0x48-0x4a (2)
0x040|                        00                     |        .       |                tag: "funcidx" (0x0) 0x48-0x49 (1)
0x040|                           00                  |         .      |                x: 0 (valid) 0x49-0x4a (1)
     |                                               |                |            [1]{}: ex 0x4a-0x58 (14)
     |                                               |                |              nm{}: 0x4a-0x56 (12)
0x040|                              0b               |          .     |                n: 11 (valid) 0x4a-0x4b (1)
0x040|                                 69 31 36 78 38|           i16x8|                b: "i16x8.min_u" 0x4b-0x56 (11)
0x050|2e 6d 69 6e 5f 75                              |.min_u          |
     |                                               |                |              d{}: 0x56-0x58 (2)
0x050|                  00                           |      .         |                tag: "funcidx" (0x0) 0x56-0x57 (1)
0x050|                     01                        |       .        |                x: 1 (valid) 0x57-0x58 (1)
     |                                               |                |            [2]{}: ex 0x58-0x66 (14)
     |                                               |                |              nm{}: 0x58-0x64 (12)
0x050|                        0b                     |        .       |                n: 11 (valid) 0x58-0x59 (1)
0x050|                           69 31 36 78 38 2e 6d|         i16x8.m|                b: "i16x8.max_s" 0x59-0x64 (11)
0x060|61 78 5f 73                                    |ax_s            |
     |                                               |                |              d{}: 0x64-0x66 (2)
0x060|            00                                 |    .           |                tag: "funcidx" (0x0) 0x64-0x65 (1)
0x060|               02                              |     .          |                x: 2 (valid) 0x65-0x66 (1)
     |                                               |                |            [3]{}: ex 0x66-0x74 (14)
     |                                               |                |              nm{}: 0x66-0x72 (12)
0x060|                  0b                           |      .         |                n: 11 (valid) 0x66-0x67 (1)
0x060|                     69 31 36 78 38 2e 6d 61 78|       i16x8.max|                b: "i16x8.max_u" 0x67-0x72 (11)
0x070|5f 75                                          |_u              |
     |                                               |                |              d{}: 0x72-0x74 (2)
0x070|      00                                       |  .             |                tag: "funcidx" (0x0) 0x72-0x73 (1)
0x070|         03                                    |   .            |                x: 3 (valid) 0x73-0x74 (1)
     |                                               |                |            [4]{}: ex 0x74-0x83 (15)
     |                                               |                |              nm{}: 0x74-0x81 (13)
0x070|            0c                                 |    .           |                n: 12 (valid) 0x74-0x75 (1)
0x070|               69 31 36 78 38 2e 61 76 67 72 5f|     i16x8.avgr_|                b: "i16x8.avgr_u" 0x75-0x81 (12)
0x080|75                                             |u               |
     |                                               |                |              d{}: 0x81-0x83 (2)
0x080|   00                                          | .              |                tag: "funcidx" (0x0) 0x81-0x82 (1)
0x080|      04                                       |  .             |                x: 4 (valid) 0x82-0x83 (1)
     |                                               |                |            [5]{}: ex 0x83-0x8f (12)
     |                                               |                |              nm{}: 0x83-0x8d (10)
0x080|         09                                    |   .            |                n: 9 (valid) 0x83-0x84 (1)
0x080|            69 31 36 78 38 2e 61 62 73         |    i16x8.abs   |                b: "i16x8.abs" 0x84-0x8d (9)
     |                                               |                |              d{}: 0x8d-0x8f (2)
0x080|                                       00      |             .  |                tag: "funcidx" (0x0) 0x8d-0x8e (1)
0x080|                                          05   |              . |                x: 5 (valid) 0x8e-0x8f (1)
     |                                               |                |            [6]{}: ex 0x8f-0xaa (27)
     |                                               |                |              nm{}: 0x8f-0xa8 (25)
0x080|                                             18|               .|                n: 24 (valid) 0x8f-0x90 (1)
0x090|69 31 36 78 38 2e 6d 69 6e 5f 73 5f 77 69 74 68|i16x8.min_s_with|                b: "i16x8.min_s_with_const_0" 0x90-0xa8 (24)
0x0a0|5f 63 6f 6e 73 74 5f 30                        |_const_0        |
     |                                               |                |              d{}: 0xa8-0xaa (2)
0x0a0|                        00                     |        .       |                tag: "funcidx" (0x0) 0xa8-0xa9 (1)
0x0a0|                           06                  |         .      |                x: 6 (valid) 0xa9-0xaa (1)
     |                                               |                |            [7]{}: ex 0xaa-0xc5 (27)
     |                                               |                |              nm{}: 0xaa-0xc3 (25)
0x0a0|                              18               |          .     |                n: 24 (valid) 0xaa-0xab (1)
0x0a0|                                 69 31 36 78 38|           i16x8|                b: "i16x8.min_s_with_const_1" 0xab-0xc3 (24)
0x0b0|2e 6d 69 6e 5f 73 5f 77 69 74 68 5f 63 6f 6e 73|.min_s_with_cons|
0x0c0|74 5f 31                                       |t_1             |
     |                                               |                |              d{}: 0xc3-0xc5 (2)
0x0c0|         00                                    |   .            |                tag: "funcidx" (0x0) 0xc3-0xc4 (1)
0x0c0|            07                                 |    .           |                x: 7 (valid) 0xc4-0xc5 (1)
     |                                               |                |            [8]{}: ex 0xc5-0xe0 (27)
     |                                               |                |              nm{}: 0xc5-0xde (25)
0x0c0|               18                              |     .          |                n: 24 (valid) 0xc5-0xc6 (1)
0x0c0|                  69 31 36 78 38 2e 6d 69 6e 5f|      i16x8.min_|                b: "i16x8.min_u_with_const_2" 0xc6-0xde (24)
0x0d0|75 5f 77 69 74 68 5f 63 6f 6e 73 74 5f 32      |u_with_const_2  |
     |                                               |                |              d{}: 0xde-0xe0 (2)
0x0d0|                                          00   |              . |                tag: "funcidx" (0x0) 0xde-0xdf (1)
0x0d0|                                             08|               .|                x: 8 (valid) 0xdf-0xe0 (1)
     |                                               |                |            [9]{}: ex 0xe0-0xfb (27)
     |                                               |                |              nm{}: 0xe0-0xf9 (25)
0x0e0|18                                             |.               |                n: 24 (valid) 0xe0-0xe1 (1)
0x0e0|   69 31 36 78 38 2e 6d 69 6e 5f 75 5f 77 69 74| i16x8.min_u_wit|                b: "i16x8.min_u_with_const_3" 0xe1-0xf9 (24)
0x0f0|68 5f 63 6f 6e 73 74 5f 33                     |h_const_3       |
     |                                               |                |              d{}: 0xf9-0xfb (2)
0x0f0|                           00                  |         .      |                tag: "funcidx" (0x0) 0xf9-0xfa (1)
0x0f0|                              09               |          .     |                x: 9 (valid) 0xfa-0xfb (1)
     |                                               |                |            [10]{}: ex 0xfb-0x116 (27)
     |                                               |                |              nm{}: 0xfb-0x114 (25)
0x0f0|                                 18            |           .    |                n: 24 (valid) 0xfb-0xfc (1)
0x0f0|                                    69 31 36 78|            i16x|                b: "i16x8.max_s_with_const_4" 0xfc-0x114 (24)
0x100|38 2e 6d 61 78 5f 73 5f 77 69 74 68 5f 63 6f 6e|8.max_s_with_con|
0x110|73 74 5f 34                                    |st_4            |
     |                                               |                |              d{}: 0x114-0x116 (2)
0x110|            00                                 |    .           |                tag: "funcidx" (0x0) 0x114-0x115 (1)
0x110|               0a                              |     .          |                x: 10 (valid) 0x115-0x116 (1)
     |                                               |                |            [11]{}: ex 0x116-0x131 (27)
     |                                               |                |              nm{}: 0x116-0x12f (25)
0x110|                  18                           |      .         |                n: 24 (valid) 0x116-0x117 (1)
0x110|                     69 31 36 78 38 2e 6d 61 78|       i16x8.max|                b: "i16x8.max_s_with_const_5" 0x117-0x12f (24)
0x120|5f 73 5f 77 69 74 68 5f 63 6f 6e 73 74 5f 35   |_s_with_const_5 |
     |                                               |                |              d{}: 0x12f-0x131 (2)
0x120|                                             00|               .|                tag: "funcidx" (0x0) 0x12f-0x130 (1)
0x130|0b                                             |.               |                x: 11 (valid) 0x130-0x131 (1)
     |                                               |                |            [12]{}: ex 0x131-0x14c (27)
     |                                               |                |              nm{}: 0x131-0x14a (25)
0x130|   18                                          | .              |                n: 24 (valid) 0x131-0x132 (1)
0x130|      69 31 36 78 38 2e 6d 61 78 5f 75 5f 77 69|  i16x8.max_u_wi|                b: "i16x8.max_u_with_const_6" 0x132-0x14a (24)
0x140|74 68 5f 63 6f 6e 73 74 5f 36                  |th_const_6      |
     |                                               |                |              d{}: 0x14a-0x14c (2)
0x140|                              00               |          .     |                tag: "funcidx" (0x0) 0x14a-0x14b (1)
0x140|                                 0c            |           .    |                x: 12 (valid) 0x14b-0x14c (1)
     |                                               |                |            [13]{}: ex 0x14c-0x167 (27)
     |                                               |                |              nm{}: 0x14c-0x165 (25)
0x140|                                    18         |            .   |                n: 24 (valid) 0x14c-0x14d (1)
0x140|                                       69 31 36|             i16|                b: "i16x8.max_u_with_const_7" 0x14d-0x165 (24)
0x150|78 38 2e 6d 61 78 5f 75 5f 77 69 74 68 5f 63 6f|x8.max_u_with_co|
0x160|6e 73 74 5f 37                                 |nst_7           |
     |                                               |                |              d{}: 0x165-0x167 (2)
0x160|               00                              |     .          |                tag: "funcidx" (0x0) 0x165-0x166 (1)
0x160|                  0d                           |      .         |                x: 13 (valid) 0x166-0x167 (1)
     |                                               |                |            [14]{}: ex 0x167-0x183 (28)
     |                                               |                |              nm{}: 0x167-0x181 (26)
0x160|                     19                        |       .        |                n: 25 (valid) 0x167-0x168 (1)
0x160|                        69 31 36 78 38 2e 61 76|        i16x8.av|                b: "i16x8.avgr_u_with_const_8" 0x168-0x181 (25)
0x170|67 72 5f 75 5f 77 69 74 68 5f 63 6f 6e 73 74 5f|gr_u_with_const_|
0x180|38                                             |8               |
     |                                               |                |              d{}: 0x181-0x183 (2)
0x180|   00                                          | .              |                tag: "funcidx" (0x0) 0x181-0x182 (1)
0x180|      0e                                       |  .             |                x: 14 (valid) 0x182-0x183 (1)
     |                                               |                |            [15]{}: ex 0x183-0x19f (28)
     |                                               |                |              nm{}: 0x183-0x19d (26)
0x180|         19                                    |   .            |                n: 25 (valid) 0x183-0x184 (1)
0x180|            69 31 36 78 38 2e 61 76 67 72 5f 75|    i16x8.avgr_u|                b: "i16x8.avgr_u_with_const_9" 0x184-0x19d (25)
0x190|5f 77 69 74 68 5f 63 6f 6e 73 74 5f 39         |_with_const_9   |
     |                                               |                |              d{}: 0x19d-0x19f (2)
0x190|                                       00      |             .  |                tag: "funcidx" (0x0) 0x19d-0x19e (1)
0x190|                                          0f   |              . |                x: 15 (valid) 0x19e-0x19f (1)
     |                                               |                |            [16]{}: ex 0x19f-0x1b9 (26)
     |                                               |                |              nm{}: 0x19f-0x1b7 (24)
0x190|                                             17|               .|                n: 23 (valid) 0x19f-0x1a0 (1)
0x1a0|69 31 36 78 38 2e 61 62 73 5f 77 69 74 68 5f 63|i16x8.abs_with_c|                b: "i16x8.abs_with_const_10" 0x1a0-0x1b7 (23)
0x1b0|6f 6e 73 74 5f 31 30                           |onst_10         |
     |                                               |                |              d{}: 0x1b7-0x1b9 (2)
0x1b0|                     00                        |       .        |                tag: "funcidx" (0x0) 0x1b7-0x1b8 (1)
0x1b0|                        10                     |        .       |                x: 16 (valid) 0x1b8-0x1b9 (1)
     |                                               |                |            [17]{}: ex 0x1b9-0x1d5 (28)
     |                                               |                |              nm{}: 0x1b9-0x1d3 (26)
0x1b0|                           19                  |         .      |                n: 25 (valid) 0x1b9-0x1ba (1)
0x1b0|                              69 31 36 78 38 2e|          i16x8.|                b: "i16x8.min_s_with_const_11" 0x1ba-0x1d3 (25)
0x1c0|6d 69 6e 5f 73 5f 77 69 74 68 5f 63 6f 6e 73 74|min_s_with_const|
0x1d0|5f 31 31                                       |_11             |
     |                                               |                |              d{}: 0x1d3-0x1d5 (2)
0x1d0|         00                                    |   .            |                tag: "funcidx" (0x0) 0x1d3-0x1d4 (1)
0x1d0|            11                                 |    .           |                x: 17 (valid) 0x1d4-0x1d5 (1)
     |                                               |                |            [18]{}: ex 0x1d5-0x1f1 (28)
     |                                               |                |              nm{}: 0x1d5-0x1ef (26)
0x1d0|               19                              |     .          |                n: 25 (valid) 0x1d5-0x1d6 (1)
0x1d0|                  69 31 36 78 38 2e 6d 69 6e 5f|      i16x8.min_|                b: "i16x8.min_s_with_const_12" 0x1d6-0x1ef (25)
0x1e0|73 5f 77 69 74 68 5f 63 6f 6e 73 74 5f 31 32   |s_with_const_12 |
     |                                               |                |              d{}: 0x1ef-0x1f1 (2)
0x1e0|                                             00|               .|                tag: "funcidx" (0x0) 0x1ef-0x1f0 (1)
0x1f0|12                                             |.               |                x: 18 (valid) 0x1f0-0x1f1 (1)
     |                                               |                |            [19]{}: ex 0x1f1-0x20d (28)
     |                                               |                |              nm{}: 0x1f1-0x20b (26)
0x1f0|   19                                          | .              |                n: 25 (valid) 0x1f1-0x1f2 (1)
0x1f0|      69 31 36 78 38 2e 6d 69 6e 5f 75 5f 77 69|  i16x8.min_u_wi|                b: "i16x8.min_u_with_const_13" 0x1f2-0x20b (25)
0x200|74 68 5f 63 6f 6e 73 74 5f 31 33               |th_const_13     |
     |                                               |                |              d{}: 0x20b-0x20d (2)
0x200|                                 00            |           .    |                tag: "funcidx" (0x0) 0x20b-0x20c (1)
0x200|                                    13         |            .   |                x: 19 (valid) 0x20c-0x20d (1)
     |                                               |                |            [20]{}: ex 0x20d-0x229 (28)
     |                                               |                |              nm{}: 0x20d-0x227 (26)
0x200|                                       19      |             .  |                n: 25 (valid) 0x20d-0x20e (1)
0x200|                                          69 31|              i1|                b: "i16x8.min_u_with_const_14" 0x20e-0x227 (25)
0x210|36 78 38 2e 6d 69 6e 5f 75 5f 77 69 74 68 5f 63|6x8.min_u_with_c|
0x220|6f 6e 73 74 5f 31 34                           |onst_14         |
     |                                               |                |              d{}: 0x227-0x229 (2)
0x220|                     00                        |       .        |                tag: "funcidx" (0x0) 0x227-0x228 (1)
0x220|                        14                     |        .       |                x: 20 (valid) 0x228-0x229 (1)
     |                                               |                |            [21]{}: ex 0x229-0x245 (28)
     |                                               |                |              nm{}: 0x229-0x243 (26)
0x220|                           19                  |         .      |                n: 25 (valid) 0x229-0x22a (1)
0x220|                              69 31 36 78 38 2e|          i16x8.|                b: "i16x8.max_s_with_const_15" 0x22a-0x243 (25)
0x230|6d 61 78 5f 73 5f 77 69 74 68 5f 63 6f 6e 73 74|max_s_with_const|
0x240|5f 31 35                                       |_15             |
     |                                               |                |              d{}: 0x243-0x245 (2)
0x240|         00                                    |   .            |                tag: "funcidx" (0x0) 0x243-0x244 (1)
0x240|            15                                 |    .           |                x: 21 (valid) 0x244-0x245 (1)
     |                                               |                |            [22]{}: ex 0x245-0x261 (28)
     |                                               |                |              nm{}: 0x245-0x25f (26)
0x240|               19                              |     .          |                n: 25 (valid) 0x245-0x246 (1)
0x240|                  69 31 36 78 38 2e 6d 61 78 5f|      i16x8.max_|                b: "i16x8.max_s_with_const_16" 0x246-0x25f (25)
0x250|73 5f 77 69 74 68 5f 63 6f 6e 73 74 5f 31 36   |s_with_const_16 |
     |                                               |                |              d{}: 0x25f-0x261 (2)
0x250|                                             00|               .|                tag: "funcidx" (0x0) 0x25f-0x260 (1)
0x260|16                                             |.               |                x: 22 (valid) 0x260-0x261 (1)
     |                                               |                |            [23]{}: ex 0x261-0x27d (28)
     |                                               |                |              nm{}: 0x261-0x27b (26)
0x260|   19                                          | .              |                n: 25 (valid) 0x261-0x262 (1)
0x260|      69 31 36 78 38 2e 6d 61 78 5f 75 5f 77 69|  i16x8.max_u_wi|                b: "i16x8.max_u_with_const_17" 0x262-0x27b (25)
0x270|74 68 5f 63 6f 6e 73 74 5f 31 37               |th_const_17     |
     |                                               |                |              d{}: 0x27b-0x27d (2)
0x270|                                 00            |           .    |                tag: "funcidx" (0x0) 0x27b-0x27c (1)
0x270|                                    17         |            .   |                x: 23 (valid) 0x27c-0x27d (1)
     |                                               |                |            [24]{}: ex 0x27d-0x299 (28)
     |                                               |                |              nm{}: 0x27d-0x297 (26)
0x270|                                       19      |             .  |                n: 25 (valid) 0x27d-0x27e (1)
0x270|                                          69 31|              i1|                b: "i16x8.max_u_with_const_18" 0x27e-0x297 (25)
0x280|36 78 38 2e 6d 61 78 5f 75 5f 77 69 74 68 5f 63|6x8.max_u_with_c|
0x290|6f 6e 73 74 5f 31 38                           |onst_18         |
     |                                               |                |              d{}: 0x297-0x299 (2)
0x290|                     00                        |       .        |                tag: "funcidx" (0x0) 0x297-0x298 (1)
0x290|                        18                     |        .       |                x: 24 (valid) 0x298-0x299 (1)
     |                                               |                |            [25]{}: ex 0x299-0x2b6 (29)
     |                                               |                |              nm{}: 0x299-0x2b4 (27)
0x290|                           1a                  |         .      |                n: 26 (valid) 0x299-0x29a (1)
0x290|                              69 31 36 78 38 2e|          i16x8.|                b: "i16x8.avgr_u_with_const_19" 0x29a-0x2b4 (26)
0x2a0|61 76 67 72 5f 75 5f 77 69 74 68 5f 63 6f 6e 73|avgr_u_with_cons|
0x2b0|74 5f 31 39                                    |t_19            |
     |                                               |                |              d{}: 0x2b4-0x2b6 (2)
0x2b0|            00                                 |    .           |                tag: "funcidx" (0x0) 0x2b4-0x2b5 (1)
0x2b0|               19                              |     .          |                x: 25 (valid) 0x2b5-0x2b6 (1)
     |                                               |                |            [26]{}: ex 0x2b6-0x2d3 (29)
     |                                               |                |              nm{}: 0x2b6-0x2d1 (27)
0x2b0|                  1a                           |      .         |                n: 26 (valid) 0x2b6-0x2b7 (1)
0x2b0|                     69 31 36 78 38 2e 61 76 67|       i16x8.avg|                b: "i16x8.avgr_u_with_const_20" 0x2b7-0x2d1 (26)
0x2c0|72 5f 75 5f 77 69 74 68 5f 63 6f 6e 73 74 5f 32|r_u_with_const_2|
0x2d0|30                                             |0               |
     |                                               |                |              d{}: 0x2d1-0x2d3 (2)
0x2d0|   00                                          | .              |                tag: "funcidx" (0x0) 0x2d1-0x2d2 (1)
0x2d0|      1a                                       |  .             |                x: 26 (valid) 0x2d2-0x2d3 (1)
     |                                               |                |    [3]{}: section 0x2d3-0x5d1 (766)
0x2d0|         0a                                    |   .            |      id: "code_section" (10) 0x2d3-0x2d4 (1)
0x2d0|            fb 05                              |    ..          |      size: 763 (valid) 0x2d4-0x2d6 (2)
     |                                               |                |      content{}: 0x2d6-0x5d1 (763)
     |                                               |                |        code{}: 0x2d6-0x5d1 (763)
0x2d0|                  1b                           |      .         |          n: 27 (valid) 0x2d6-0x2d7 (1)
     |                                               |                |          x[0:27]: 0x2d7-0x5d1 (762)
     |                                               |                |            [0]{}: code 0x2d7-0x2e1 (10)
0x2d0|                     09                        |       .        |              size: 9 (valid) 0x2d7-0x2d8 (1)
     |                                               |                |              code{}: 0x2d8-0x2e1 (9)
     |                                               |                |                t{}: 0x2d8-0x2d9 (1)
0x2d0|                        00                     |        .       |                  n: 0 (valid) 0x2d8-0x2d9 (1)
     |                                               |                |                  x[0:0]: 0x2d9-0x2d9 (0)
     |                                               |                |                e[0:4]: 0x2d9-0x2e1 (8)
     |                                               |                |                  [0]{}: in 0x2d9-0x2db (2)
0x2d0|                           20                  |                |                    opcode: "local.get" (0x20) 0x2d9-0x2da (1)
0x2d0|                              00               |          .     |                    x: 0 (valid) 0x2da-0x2db (1)
     |                                               |                |                  [1]{}: in 0x2db-0x2dd (2)
0x2d0|                                 20            |                |                    opcode: "local.get" (0x20) 0x2db-0x2dc (1)
0x2d0|                                    01         |            .   |                    x: 1 (valid) 0x2dc-0x2dd (1)
     |                                               |                |                  [2]{}: in 0x2dd-0x2e0 (3)
0x2d0|                                       fd      |             .  |                    opcode: "vector" (0xfd) 0x2dd-0x2de (1)
0x2d0|                                          96 01|              ..|                    v_opcode: "i16x8.min_s" (150) 0x2de-0x2e0 (2)
     |                                               |                |                  [3]{}: in 0x2e0-0x2e1 (1)
0x2e0|0b                                             |.               |                    opcode: "end" (0xb) 0x2e0-0x2e1 (1)
     |                                               |                |            [1]{}: code 0x2e1-0x2eb (10)
0x2e0|   09                                          | .              |              size: 9 (valid) 0x2e1-0x2e2 (1)
     |                                               |                |              code{}: 0x2e2-0x2eb (9)
     |                                               |                |                t{}: 0x2e2-0x2e3 (1)
0x2e0|      00                                       |  .             |                  n: 0 (valid) 0x2e2-0x2e3 (1)
     |                                               |                |                  x[0:0]: 0x2e3-0x2e3 (0)
     |                                               |                |                e[0:4]: 0x2e3-0x2eb (8)
     |                                               |                |                  [0]{}: in 0x2e3-0x2e5 (2)
0x2e0|         20                                    |                |                    opcode: "local.get" (0x20) 0x2e3-0x2e4 (1)
0x2e0|            00                                 |    .           |                    x: 0 (valid) 0x2e4-0x2e5 (1)
     |                                               |                |                  [1]{}: in 0x2e5-0x2e7 (2)
0x2e0|               20                              |                |                    opcode: "local.get" (0x20) 0x2e5-0x2e6 (1)
0x2e0|                  01                           |      .         |                    x: 1 (valid) 0x2e6-0x2e7 (1)
     |                                               |                |                  [2]{}: in 0x2e7-0x2ea (3)
0x2e0|                     fd                        |       .        |                    opcode: "vector" (0xfd) 0x2e7-0x2e8 (1)
0x2e0|                        97 01                  |        ..      |                    v_opcode: "i16x8.min_u" (151) 0x2e8-0x2ea (2)
     |                                               |                |                  [3]{}: in 0x2ea-0x2eb (1)
0x2e0|                              0b               |          .     |                    opcode: "end" (0xb) 0x2ea-0x2eb (1)
     |                                               |                |            [2]{}: code 0x2eb-0x2f5 (10)
0x2e0|                                 09            |           .    |              size: 9 (valid) 0x2eb-0x2ec (1)
     |                                               |                |              code{}: 0x2ec-0x2f5 (9)
     |                                               |                |                t{}: 0x2ec-0x2ed (1)
0x2e0|                                    00         |            .   |                  n: 0 (valid) 0x2ec-0x2ed (1)
     |                                               |                |                  x[0:0]: 0x2ed-0x2ed (0)
     |                                               |                |                e[0:4]: 0x2ed-0x2f5 (8)
     |                                               |                |                  [0]{}: in 0x2ed-0x2ef (2)
0x2e0|                                       20      |                |                    opcode: "local.get" (0x20) 0x2ed-0x2ee (1)
0x2e0|                                          00   |              . |                    x: 0 (valid) 0x2ee-0x2ef (1)
     |                                               |                |                  [1]{}: in 0x2ef-0x2f1 (2)
0x2e0|                                             20|                |                    opcode: "local.get" (0x20) 0x2ef-0x2f0 (1)
0x2f0|01                                             |.               |                    x: 1 (valid) 0x2f0-0x2f1 (1)
     |                                               |                |                  [2]{}: in 0x2f1-0x2f4 (3)
0x2f0|   fd                                          | .              |                    opcode: "vector" (0xfd) 0x2f1-0x2f2 (1)
0x2f0|      98 01                                    |  ..            |                    v_opcode: "i16x8.max_s" (152) 0x2f2-0x2f4 (2)
     |                                               |                |                  [3]{}: in 0x2f4-0x2f5 (1)
0x2f0|            0b                                 |    .           |                    opcode: "end" (0xb) 0x2f4-0x2f5 (1)
     |                                               |                |            [3]{}: code 0x2f5-0x2ff (10)
0x2f0|               09                              |     .          |              size: 9 (valid) 0x2f5-0x2f6 (1)
     |                                               |                |              code{}: 0x2f6-0x2ff (9)
     |                                               |                |                t{}: 0x2f6-0x2f7 (1)
0x2f0|                  00                           |      .         |                  n: 0 (valid) 0x2f6-0x2f7 (1)
     |                                               |                |                  x[0:0]: 0x2f7-0x2f7 (0)
     |                                               |                |                e[0:4]: 0x2f7-0x2ff (8)
     |                                               |                |                  [0]{}: in 0x2f7-0x2f9 (2)
0x2f0|                     20                        |                |                    opcode: "local.get" (0x20) 0x2f7-0x2f8 (1)
0x2f0|                        00                     |        .       |                    x: 0 (valid) 0x2f8-0x2f9 (1)
     |                                               |                |                  [1]{}: in 0x2f9-0x2fb (2)
0x2f0|                           20                  |                |                    opcode: "local.get" (0x20) 0x2f9-0x2fa (1)
0x2f0|                              01               |          .     |                    x: 1 (valid) 0x2fa-0x2fb (1)
     |                                               |                |                  [2]{}: in 0x2fb-0x2fe (3)
0x2f0|                                 fd            |           .    |                    opcode: "vector" (0xfd) 0x2fb-0x2fc (1)
0x2f0|                                    99 01      |            ..  |                    v_opcode: "i16x8.max_u" (153) 0x2fc-0x2fe (2)
     |                                               |                |                  [3]{}: in 0x2fe-0x2ff (1)
0x2f0|                                          0b   |              . |                    opcode: "end" (0xb) 0x2fe-0x2ff (1)
     |                                               |                |            [4]{}: code 0x2ff-0x309 (10)
0x2f0|                                             09|               .|              size: 9 (valid) 0x2ff-0x300 (1)
     |                                               |                |              code{}: 0x300-0x309 (9)
     |                                               |                |                t{}: 0x300-0x301 (1)
0x300|00                                             |.               |                  n: 0 (valid) 0x300-0x301 (1)
     |                                               |                |                  x[0:0]: 0x301-0x301 (0)
     |                                               |                |                e[0:4]: 0x301-0x309 (8)
     |                                               |                |                  [0]{}: in 0x301-0x303 (2)
0x300|   20                                          |                |                    opcode: "local.get" (0x20) 0x301-0x302 (1)
0x300|      00                                       |  .             |                    x: 0 (valid) 0x302-0x303 (1)
     |                                               |                |                  [1]{}: in 0x303-0x305 (2)
0x300|         20                                    |                |                    opcode: "local.get" (0x20) 0x303-0x304 (1)
0x300|            01                                 |    .           |                    x: 1 (valid) 0x304-0x305 (1)
     |                                               |                |                  [2]{}: in 0x305-0x308 (3)
0x300|               fd                              |     .          |                    opcode: "vector" (0xfd) 0x305-0x306 (1)
0x300|                  9b 01                        |      ..        |                    v_opcode: "i16x8.avgr_u" (155) 0x306-0x308 (2)
     |                                               |                |                  [3]{}: in 0x308-0x309 (1)
0x300|                        0b                     |        .       |                    opcode: "end" (0xb) 0x308-0x309 (1)
     |                                               |                |            [5]{}: code 0x309-0x311 (8)
0x300|                           07                  |         .      |              size: 7 (valid) 0x309-0x30a (1)
     |                                               |                |              code{}: 0x30a-0x311 (7)
     |                                               |                |                t{}: 0x30a-0x30b (1)
0x300|                              00               |          .     |                  n: 0 (valid) 0x30a-0x30b (1)
     |                                               |                |                  x[0:0]: 0x30b-0x30b (0)
     |                                               |                |                e[0:3]: 0x30b-0x311 (6)
     |                                               |                |                  [0]{}: in 0x30b-0x30d (2)
0x300|                                 20            |                |                    opcode: "local.get" (0x20) 0x30b-0x30c (1)
0x300|                                    00         |            .   |                    x: 0 (valid) 0x30c-0x30d (1)
     |                                               |                |                  [1]{}: in 0x30d-0x310 (3)
0x300|                                       fd      |             .  |                    opcode: "vector" (0xfd) 0x30d-0x30e (1)
0x300|                                          80 01|              ..|                    v_opcode: "i16x8.abs" (128) 0x30e-0x310 (2)
     |                                               |                |                  [2]{}: in 0x310-0x311 (1)
0x310|0b                                             |.               |                    opcode: "end" (0xb) 0x310-0x311 (1)
     |                                               |                |            [6]{}: code 0x311-0x33b (42)
0x310|   29                                          | )              |              size: 41 (valid) 0x311-0x312 (1)
     |                                               |                |              code{}: 0x312-0x33b (41)
     |                                               |                |                t{}: 0x312-0x313 (1)
0x310|      00                                       |  .             |                  n: 0 (valid) 0x312-0x313 (1)
     |                                               |                |                  x[0:0]: 0x313-0x313 (0)
     |                                               |                |                e[0:4]: 0x313-0x33b (40)
     |                                               |                |                  [0]{}: in 0x313-0x325 (18)
0x310|         fd                                    |   .            |                    opcode: "vector" (0xfd) 0x313-0x314 (1)
0x310|            0c                                 |    .           |                    v_opcode: "v128.const" (12) 0x314-0x315 (1)
0x310|               00 80 00 80 ff 7f ff 7f 00 40 00|     .........@.|                    bytes: raw bits 0x315-0x325 (16)
0x320|40 ff ff ff ff                                 |@....           |
     |                                               |                |                  [1]{}: in 0x325-0x337 (18)
0x320|               fd                              |     .          |                    opcode: "vector" (0xfd) 0x325-0x326 (1)
0x320|                  0c                           |      .         |                    v_opcode: "v128.const" (12) 0x326-0x327 (1)
0x320|                     ff ff ff ff 00 40 00 40 ff|       .....@.@.|                    bytes: raw bits 0x327-0x337 (16)
0x330|7f ff 7f 00 80 00 80                           |.......         |
     |                                               |                |                  [2]{}: in 0x337-0x33a (3)
0x330|                     fd                        |       .        |                    opcode: "vector" (0xfd) 0x337-0x338 (1)
0x330|                        96 01                  |        ..      |                    v_opcode: "i16x8.min_s" (150) 0x338-0x33a (2)
     |                                               |                |                  [3]{}: in 0x33a-0x33b (1)
0x330|                              0b               |          .     |                    opcode: "end" (0xb) 0x33a-0x33b (1)
     |                                               |                |            [7]{}: code 0x33b-0x365 (42)
0x330|                                 29            |           )    |              size: 41 (valid) 0x33b-0x33c (1)
     |                                               |                |              code{}: 0x33c-0x365 (41)
     |                                               |                |                t{}: 0x33c-0x33d (1)
0x330|                                    00         |            .   |                  n: 0 (valid) 0x33c-0x33d (1)
     |                                               |                |                  x[0:0]: 0x33d-0x33d (0)
     |                                               |                |                e[0:4]: 0x33d-0x365 (40)
     |                                               |                |                  [0]{}: in 0x33d-0x34f (18)
0x330|                                       fd      |             .  |                    opcode: "vector" (0xfd) 0x33d-0x33e (1)
0x330|                                          0c   |              . |                    v_opcode: "v128.const" (12) 0x33e-0x33f (1)
0x330|                                             00|               .|                    bytes: raw bits 0x33f-0x34f (16)
0x340|00 00 00 01 00 01 00 02 00 02 00 03 00 03 00   |............... |
     |                                               |                |                  [1]{}: in 0x34f-0x361 (18)
0x340|                                             fd|               .|                    opcode: "vector" (0xfd) 0x34f-0x350 (1)
0x350|0c                                             |.               |                    v_opcode: "v128.const" (12) 0x350-0x351 (1)
0x350|   03 00 03 00 02 00 02 00 01 00 01 00 00 00 00| ...............|                    bytes: raw bits 0x351-0x361 (16)
0x360|00                                             |.               |
     |                                               |                |                  [2]{}: in 0x361-0x364 (3)
0x360|   fd                                          | .              |                    opcode: "vector" (0xfd) 0x361-0x362 (1)
0x360|      96 01                                    |  ..            |                    v_opcode: "i16x8.min_s" (150) 0x362-0x364 (2)
     |                                               |                |                  [3]{}: in 0x364-0x365 (1)
0x360|            0b                                 |    .           |                    opcode: "end" (0xb) 0x364-0x365 (1)
     |                                               |                |            [8]{}: code 0x365-0x38f (42)
0x360|               29                              |     )          |              size: 41 (valid) 0x365-0x366 (1)
     |                                               |                |              code{}: 0x366-0x38f (41)
     |                                               |                |                t{}: 0x366-0x367 (1)
0x360|                  00                           |      .         |                  n: 0 (valid) 0x366-0x367 (1)
     |                                               |                |                  x[0:0]: 0x367-0x367 (0)
     |                                               |                |                e[0:4]: 0x367-0x38f (40)
     |                                               |                |                  [0]{}: in 0x367-0x379 (18)
0x360|                     fd                        |       .        |                    opcode: "vector" (0xfd) 0x367-0x368 (1)
0x360|                        0c                     |        .       |                    v_opcode: "v128.const" (12) 0x368-0x369 (1)
0x360|                           00 80 00 80 ff 7f ff|         .......|                    bytes: raw bits 0x369-0x379 (16)
0x370|7f 00 40 00 40 ff ff ff ff                     |..@.@....       |
     |                                               |                |                  [1]{}: in 0x379-0x38b (18)
0x370|                           fd                  |         .      |                    opcode: "vector" (0xfd) 0x379-0x37a (1)
0x370|                              0c               |          .     |                    v_opcode: "v128.const" (12) 0x37a-0x37b (1)
0x370|                                 ff ff ff ff 00|           .....|                    bytes: raw bits 0x37b-0x38b (16)
0x380|40 00 40 ff 7f ff 7f 00 80 00 80               |@.@........     |
     |                                               |                |                  [2]{}: in 0x38b-0x38e (3)
0x380|                                 fd            |           .    |                    opcode: "vector" (0xfd) 0x38b-0x38c (1)
0x380|                                    97 01      |            ..  |                    v_opcode: "i16x8.min_u" (151) 0x38c-0x38e (2)
     |                                               |                |                  [3]{}: in 0x38e-0x38f (1)
0x380|                                          0b   |              . |                    opcode: "end" (0xb) 0x38e-0x38f (1)
     |                                               |                |            [9]{}: code 0x38f-0x3b9 (42)
0x380|                                             29|               )|              size: 41 (valid) 0x38f-0x390 (1)
     |                                               |                |              code{}: 0x390-0x3b9 (41)
     |                                               |                |                t{}: 0x390-0x391 (1)
0x390|00                                             |.               |                  n: 0 (valid) 0x390-0x391 (1)
     |                                               |                |                  x[0:0]: 0x391-0x391 (0)
     |                                               |                |                e[0:4]: 0x391-0x3b9 (40)
     |                                               |                |                  [0]{}: in 0x391-0x3a3 (18)
0x390|   fd                                          | .              |                    opcode: "vector" (0xfd) 0x391-0x392 (1)
0x390|      0c                                       |  .             |                    v_opcode: "v128.const" (12) 0x392-0x393 (1)
0x390|         00 00 00 00 01 00 01 00 02 00 02 00 03|   .............|                    bytes: raw bits 0x393-0x3a3 (16)
0x3a0|00 03 00                                       |...             |
     |                                               |                |                  [1]{}: in 0x3a3-0x3b5 (18)
0x3a0|         fd                                    |   .            |                    opcode: "vector" (0xfd) 0x3a3-0x3a4 (1)
0x3a0|            0c                                 |    .           |                    v_opcode: "v128.const" (12) 0x3a4-0x3a5 (1)
0x3a0|               03 00 03 00 02 00 02 00 01 00 01|     ...........|                    bytes: raw bits 0x3a5-0x3b5 (16)
0x3b0|00 00 00 00 00                                 |.....           |
     |                                               |                |                  [2]{}: in 0x3b5-0x3b8 (3)
0x3b0|               fd                              |     .          |                    opcode: "vector" (0xfd) 0x3b5-0x3b6 (1)
0x3b0|                  97 01                        |      ..        |                    v_opcode: "i16x8.min_u" (151) 0x3b6-0x3b8 (2)
     |                                               |                |                  [3]{}: in 0x3b8-0x3b9 (1)
0x3b0|                        0b                     |        .       |                    opcode: "end" (0xb) 0x3b8-0x3b9 (1)
     |                                               |                |            [10]{}: code 0x3b9-0x3e3 (42)
0x3b0|                           29                  |         )      |              size: 41 (valid) 0x3b9-0x3ba (1)
     |                                               |                |              code{}: 0x3ba-0x3e3 (41)
     |                                               |                |                t{}: 0x3ba-0x3bb (1)
0x3b0|                              00               |          .     |                  n: 0 (valid) 0x3ba-0x3bb (1)
     |                                               |                |                  x[0:0]: 0x3bb-0x3bb (0)
     |                                               |                |                e[0:4]: 0x3bb-0x3e3 (40)
     |                                               |                |                  [0]{}: in 0x3bb-0x3cd (18)
0x3b0|                                 fd            |           .    |                    opcode: "vector" (0xfd) 0x3bb-0x3bc (1)
0x3b0|                                    0c         |            .   |                    v_opcode: "v128.const" (12) 0x3bc-0x3bd (1)
0x3b0|                                       00 80 00|             ...|                    bytes: raw bits 0x3bd-0x3cd (16)
0x3c0|80 ff 7f ff 7f 00 40 00 40 ff ff ff ff         |......@.@....   |
     |                                               |                |                  [1]{}: in 0x3cd-0x3df (18)
0x3c0|                                       fd      |             .  |                    opcode: "vector" (0xfd) 0x3cd-0x3ce (1)
0x3c0|                                          0c   |              . |                    v_opcode: "v128.const" (12) 0x3ce-0x3cf (1)
0x3c0|                                             ff|               .|                    bytes: raw bits 0x3cf-0x3df (16)
0x3d0|ff ff ff 00 40 00 40 ff 7f ff 7f 00 80 00 80   |....@.@........ |
     |                                               |                |                  [2]{}: in 0x3df-0x3e2 (3)
0x3d0|                                             fd|               .|                    opcode: "vector" (0xfd) 0x3df-0x3e0 (1)
0x3e0|98 01                                          |..              |                    v_opcode: "i16x8.max_s" (152) 0x3e0-0x3e2 (2)
     |                                               |                |                  [3]{}: in 0x3e2-0x3e3 (1)
0x3e0|      0b                                       |  .             |                    opcode: "end" (0xb) 0x3e2-0x3e3 (1)
     |                                               |                |            [11]{}: code 0x3e3-0x40d (42)
0x3e0|         29                                    |   )            |              size: 41 (valid) 0x3e3-0x3e4 (1)
     |                                               |                |              code{}: 0x3e4-0x40d (41)
     |                                               |                |                t{}: 0x3e4-0x3e5 (1)
0x3e0|            00                                 |    .           |                  n: 0 (valid) 0x3e4-0x3e5 (1)
     |                                               |                |                  x[0:0]: 0x3e5-0x3e5 (0)
     |                                               |                |                e[0:4]: 0x3e5-0x40d (40)
     |                                               |                |                  [0]{}: in 0x3e5-0x3f7 (18)
0x3e0|               fd                              |     .          |                    opcode: "vector" (0xfd) 0x3e5-0x3e6 (1)
0x3e0|                  0c                           |      .         |                    v_opcode: "v128.const" (12) 0x3e6-0x3e7 (1)
0x3e0|                     00 00 00 00 01 00 01 00 02|       .........|                    bytes: raw bits 0x3e7-0x3f7 (16)
0x3f0|00 02 00 03 00 03 00                           |.......         |
     |                                               |                |                  [1]{}: in 0x3f7-0x409 (18)
0x3f0|                     fd                        |       .        |                    opcode: "vector" (0xfd) 0x3f7-0x3f8 (1)
0x3f0|                        0c                     |        .       |                    v_opcode: "v128.const" (12) 0x3f8-0x3f9 (1)
0x3f0|                           03 00 03 00 02 00 02|         .......|                    bytes: raw bits 0x3f9-0x409 (16)
0x400|00 01 00 01 00 00 00 00 00                     |.........       |
     |                                               |                |                  [2]{}: in 0x409-0x40c (3)
0x400|                           fd                  |         .      |                    opcode: "vector" (0xfd) 0x409-0x40a (1)
0x400|                              98 01            |          ..    |                    v_opcode: "i16x8.max_s" (152) 0x40a-0x40c (2)
     |                                               |                |                  [3]{}: in 0x40c-0x40d (1)
0x400|                                    0b         |            .   |                    opcode: "end" (0xb) 0x40c-0x40d (1)
     |                                               |                |            [12]{}: code 0x40d-0x437 (42)
0x400|                                       29      |             )  |              size: 41 (valid) 0x40d-0x40e (1)
     |                                               |                |              code{}: 0x40e-0x437 (41)
     |                                               |                |                t{}: 0x40e-0x40f (1)
0x400|                                          00   |              . |                  n: 0 (valid) 0x40e-0x40f (1)
     |                                               |                |                  x[0:0]: 0x40f-0x40f (0)
     |                                               |                |                e[0:4]: 0x40f-0x437 (40)
     |                                               |                |                  [0]{}: in 0x40f-0x421 (18)
0x400|                                             fd|               .|                    opcode: "vector" (0xfd) 0x40f-0x410 (1)
0x410|0c                                             |.               |                    v_opcode: "v128.const" (12) 0x410-0x411 (1)
0x410|   00 80 00 80 ff 7f ff 7f 00 40 00 40 ff ff ff| .........@.@...|                    bytes: raw bits 0x411-0x421 (16)
0x420|ff                                             |.               |
     |                                               |                |                  [1]{}: in 0x421-0x433 (18)
0x420|   fd                                          | .              |                    opcode: "vector" (0xfd) 0x421-0x422 (1)
0x420|      0c                                       |  .             |                    v_opcode: "v128.const" (12) 0x422-0x423 (1)
0x420|         ff ff ff ff 00 40 00 40 ff 7f ff 7f 00|   .....@.@.....|                    bytes: raw bits 0x423-0x433 (16)
0x430|80 00 80                                       |...             |
     |                                               |                |                  [2]{}: in 0x433-0x436 (3)
0x430|         fd                                    |   .            |                    opcode: "vector" (0xfd) 0x433-0x434 (1)
0x430|            99 01                              |    ..          |                    v_opcode: "i16x8.max_u" (153) 0x434-0x436 (2)
     |                                               |                |                  [3]{}: in 0x436-0x437 (1)
0x430|                  0b                           |      .         |                    opcode: "end" (0xb) 0x436-0x437 (1)
     |                                               |                |            [13]{}: code 0x437-0x461 (42)
0x430|                     29                        |       )        |              size: 41 (valid) 0x437-0x438 (1)
     |                                               |                |              code{}: 0x438-0x461 (41)
     |                                               |                |                t{}: 0x438-0x439 (1)
0x430|                        00                     |        .       |                  n: 0 (valid) 0x438-0x439 (1)
     |                                               |                |                  x[0:0]: 0x439-0x439 (0)
     |                                               |                |                e[0:4]: 0x439-0x461 (40)
     |                                               |                |                  [0]{}: in 0x439-0x44b (18)
0x430|                           fd                  |         .      |                    opcode: "vector" (0xfd) 0x439-0x43a (1)
0x430|                              0c               |          .     |                    v_opcode: "v128.const" (12) 0x43a-0x43b (1)
0x430|                                 00 00 00 00 01|           .....|                    bytes: raw bits 0x43b-0x44b (16)
0x440|00 01 00 02 00 02 00 03 00 03 00               |...........     |
     |                                               |                |                  [1]{}: in 0x44b-0x45d (18)
0x440|                                 fd            |           .    |                    opcode: "vector" (0xfd) 0x44b-0x44c (1)
0x440|                                    0c         |            .   |                    v_opcode: "v128.const" (12) 0x44c-0x44d (1)
0x440|                                       03 00 03|             ...|                    bytes: raw bits 0x44d-0x45d (16)
0x450|00 02 00 02 00 01 00 01 00 00 00 00 00         |.............   |
     |                                               |                |                  [2]{}: in 0x45d-0x460 (3)
0x450|                                       fd      |             .  |                    opcode: "vector" (0xfd) 0x45d-0x45e (1)
0x450|                                          99 01|              ..|                    v_opcode: "i16x8.max_u" (153) 0x45e-0x460 (2)
     |                                               |                |                  [3]{}: in 0x460-0x461 (1)
0x460|0b                                             |.               |                    opcode: "end" (0xb) 0x460-0x461 (1)
     |                                               |                |            [14]{}: code 0x461-0x48b (42)
0x460|   29                                          | )              |              size: 41 (valid) 0x461-0x462 (1)
     |                                               |                |              code{}: 0x462-0x48b (41)
     |                                               |                |                t{}: 0x462-0x463 (1)
0x460|      00                                       |  .             |                  n: 0 (valid) 0x462-0x463 (1)
     |                                               |                |                  x[0:0]: 0x463-0x463 (0)
     |                                               |                |                e[0:4]: 0x463-0x48b (40)
     |                                               |                |                  [0]{}: in 0x463-0x475 (18)
0x460|         fd                                    |   .            |                    opcode: "vector" (0xfd) 0x463-0x464 (1)
0x460|            0c                                 |    .           |                    v_opcode: "v128.const" (12) 0x464-0x465 (1)
0x460|               00 80 00 80 ff 7f ff 7f 00 40 00|     .........@.|                    bytes: raw bits 0x465-0x475 (16)
0x470|40 ff ff ff ff                                 |@....           |
     |                                               |                |                  [1]{}: in 0x475-0x487 (18)
0x470|               fd                              |     .          |                    opcode: "vector" (0xfd) 0x475-0x476 (1)
0x470|                  0c                           |      .         |                    v_opcode: "v128.const" (12) 0x476-0x477 (1)
0x470|                     ff ff ff ff 00 40 00 40 ff|       .....@.@.|                    bytes: raw bits 0x477-0x487 (16)
0x480|7f ff 7f 00 80 00 80                           |.......         |
     |                                               |                |                  [2]{}: in 0x487-0x48a (3)
0x480|                     fd                        |       .        |                    opcode: "vector" (0xfd) 0x487-0x488 (1)
0x480|                        9b 01                  |        ..      |                    v_opcode: "i16x8.avgr_u" (155) 0x488-0x48a (2)
     |                                               |                |                  [3]{}: in 0x48a-0x48b (1)
0x480|                              0b               |          .     |                    opcode: "end" (0xb) 0x48a-0x48b (1)
     |                                               |                |            [15]{}: code 0x48b-0x4b5 (42)
0x480|                                 29            |           )    |              size: 41 (valid) 0x48b-0x48c (1)
     |                                               |                |              code{}: 0x48c-0x4b5 (41)
     |                                               |                |                t{}: 0x48c-0x48d (1)
0x480|                                    00         |            .   |                  n: 0 (valid) 0x48c-0x48d (1)
     |                                               |                |                  x[0:0]: 0x48d-0x48d (0)
     |                                               |                |                e[0:4]: 0x48d-0x4b5 (40)
     |                                               |                |                  [0]{}: in 0x48d-0x49f (18)
0x480|                                       fd      |             .  |                    opcode: "vector" (0xfd) 0x48d-0x48e (1)
0x480|                                          0c   |              . |                    v_opcode: "v128.const" (12) 0x48e-0x48f (1)
0x480|                                             00|               .|                    bytes: raw bits 0x48f-0x49f (16)
0x490|00 00 00 01 00 01 00 02 00 02 00 03 00 03 00   |............... |
     |                                               |                |                  [1]{}: in 0x49f-0x4b1 (18)
0x490|                                             fd|               .|                    opcode: "vector" (0xfd) 0x49f-0x4a0 (1)
0x4a0|0c                                             |.               |                    v_opcode: "v128.const" (12) 0x4a0-0x4a1 (1)
0x4a0|   03 00 03 00 02 00 02 00 01 00 01 00 00 00 00| ...............|                    bytes: raw bits 0x4a1-0x4b1 (16)
0x4b0|00                                             |.               |
     |                                               |                |                  [2]{}: in 0x4b1-0x4b4 (3)
0x4b0|   fd                                          | .              |                    opcode: "vector" (0xfd) 0x4b1-0x4b2 (1)
0x4b0|      9b 01                                    |  ..            |                    v_opcode: "i16x8.avgr_u" (155) 0x4b2-0x4b4 (2)
     |                                               |                |                  [3]{}: in 0x4b4-0x4b5 (1)
0x4b0|            0b                                 |    .           |                    opcode: "end" (0xb) 0x4b4-0x4b5 (1)
     |                                               |                |            [16]{}: code 0x4b5-0x4cd (24)
0x4b0|               17                              |     .          |              size: 23 (valid) 0x4b5-0x4b6 (1)
     |                                               |                |              code{}: 0x4b6-0x4cd (23)
     |                                               |                |                t{}: 0x4b6-0x4b7 (1)
0x4b0|                  00                           |      .         |                  n: 0 (valid) 0x4b6-0x4b7 (1)
     |                                               |                |                  x[0:0]: 0x4b7-0x4b7 (0)
     |                                               |                |                e[0:3]: 0x4b7-0x4cd (22)
     |                                               |                |                  [0]{}: in 0x4b7-0x4c9 (18)
0x4b0|                     fd                        |       .        |                    opcode: "vector" (0xfd) 0x4b7-0x4b8 (1)
0x4b0|                        0c                     |        .       |                    v_opcode: "v128.const" (12) 0x4b8-0x4b9 (1)
0x4b0|                           00 80 00 80 ff 7f ff|         .......|                    bytes: raw bits 0x4b9-0x4c9 (16)
0x4c0|7f 00 40 00 40 ff ff ff ff                     |..@.@....       |
     |                                               |                |                  [1]{}: in 0x4c9-0x4cc (3)
0x4c0|                           fd                  |         .      |                    opcode: "vector" (0xfd) 0x4c9-0x4ca (1)
0x4c0|                              80 01            |          ..    |                    v_opcode: "i16x8.abs" (128) 0x4ca-0x4cc (2)
     |                                               |                |                  [2]{}: in 0x4cc-0x4cd (1)
0x4c0|                                    0b         |            .   |                    opcode: "end" (0xb) 0x4cc-0x4cd (1)
     |                                               |                |            [17]{}: code 0x4cd-0x4e7 (26)
0x4c0|                                       19      |             .  |              size: 25 (valid) 0x4cd-0x4ce (1)
     |                                               |                |              code{}: 0x4ce-0x4e7 (25)
     |                                               |                |                t{}: 0x4ce-0x4cf (1)
0x4c0|                                          00   |              . |                  n: 0 (valid) 0x4ce-0x4cf (1)
     |                                               |                |                  x[0:0]: 0x4cf-0x4cf (0)
     |                                               |                |                e[0:4]: 0x4cf-0x4e7 (24)
     |                                               |                |                  [0]{}: in 0x4cf-0x4d1 (2)
0x4c0|                                             20|                |                    opcode: "local.get" (0x20) 0x4cf-0x4d0 (1)
0x4d0|00                                             |.               |                    x: 0 (valid) 0x4d0-0x4d1 (1)
     |                                               |                |                  [1]{}: in 0x4d1-0x4e3 (18)
0x4d0|   fd                                          | .              |                    opcode: "vector" (0xfd) 0x4d1-0x4d2 (1)
0x4d0|      0c                                       |  .             |                    v_opcode: "v128.const" (12) 0x4d2-0x4d3 (1)
0x4d0|         00 80 00 80 ff 7f ff 7f 00 40 00 40 ff|   .........@.@.|                    bytes: raw bits 0x4d3-0x4e3 (16)
0x4e0|ff ff ff                                       |...             |
     |                                               |                |                  [2]{}: in 0x4e3-0x4e6 (3)
0x4e0|         fd                                    |   .            |                    opcode: "vector" (0xfd) 0x4e3-0x4e4 (1)
0x4e0|            96 01                              |    ..          |                    v_opcode: "i16x8.min_s" (150) 0x4e4-0x4e6 (2)
     |                                               |                |                  [3]{}: in 0x4e6-0x4e7 (1)
0x4e0|                  0b                           |      .         |                    opcode: "end" (0xb) 0x4e6-0x4e7 (1)
     |                                               |                |            [18]{}: code 0x4e7-0x501 (26)
0x4e0|                     19                        |       .        |              size: 25 (valid) 0x4e7-0x4e8 (1)
     |                                               |                |              code{}: 0x4e8-0x501 (25)
     |                                               |                |                t{}: 0x4e8-0x4e9 (1)
0x4e0|                        00                     |        .       |                  n: 0 (valid) 0x4e8-0x4e9 (1)
     |                                               |                |                  x[0:0]: 0x4e9-0x4e9 (0)
     |                                               |                |                e[0:4]: 0x4e9-0x501 (24)
     |                                               |                |                  [0]{}: in 0x4e9-0x4eb (2)
0x4e0|                           20                  |                |                    opcode: "local.get" (0x20) 0x4e9-0x4ea (1)
0x4e0|                              00               |          .     |                    x: 0 (valid) 0x4ea-0x4eb (1)
     |                                               |                |                  [1]{}: in 0x4eb-0x4fd (18)
0x4e0|                                 fd            |           .    |                    opcode: "vector" (0xfd) 0x4eb-0x4ec (1)
0x4e0|                                    0c         |            .   |                    v_opcode: "v128.const" (12) 0x4ec-0x4ed (1)
0x4e0|                                       00 00 00|             ...|                    bytes: raw bits 0x4ed-0x4fd (16)
0x4f0|00 01 00 01 00 02 00 02 00 03 00 03 00         |.............   |
     |                                               |                |                  [2]{}: in 0x4fd-0x500 (3)
0x4f0|                                       fd      |             .  |                    opcode: "vector" (0xfd) 0x4fd-0x4fe (1)
0x4f0|                                          96 01|              ..|                    v_opcode: "i16x8.min_s" (150) 0x4fe-0x500 (2)
     |                                               |                |                  [3]{}: in 0x500-0x501 (1)
0x500|0b                                             |.               |                    opcode: "end" (0xb) 0x500-0x501 (1)
     |                                               |                |            [19]{}: code 0x501-0x51b (26)
0x500|   19                                          | .              |              size: 25 (valid) 0x501-0x502 (1)
     |                                               |                |              code{}: 0x502-0x51b (25)
     |                                               |                |                t{}: 0x502-0x503 (1)
0x500|      00                                       |  .             |                  n: 0 (valid) 0x502-0x503 (1)
     |                                               |                |                  x[0:0]: 0x503-0x503 (0)
     |                                               |                |                e[0:4]: 0x503-0x51b (24)
     |                                               |                |                  [0]{}: in 0x503-0x505 (2)
0x500|         20                                    |                |                    opcode: "local.get" (0x20) 0x503-0x504 (1)
0x500|            00                                 |    .           |                    x: 0 (valid) 0x504-0x505 (1)
     |                                               |                |                  [1]{}: in 0x505-0x517 (18)
0x500|               fd                              |     .          |                    opcode: "vector" (0xfd) 0x505-0x506 (1)
0x500|                  0c                           |      .         |                    v_opcode: "v128.const" (12) 0x506-0x507 (1)
0x500|                     00 80 00 80 ff 7f ff 7f 00|       .........|                    bytes: raw bits 0x507-0x517 (16)
0x510|40 00 40 ff ff ff ff                           |@.@....         |
     |                                               |                |                  [2]{}: in 0x517-0x51a (3)
0x510|                     fd                        |       .        |                    opcode: "vector" (0xfd) 0x517-0x518 (1)
0x510|                        97 01                  |        ..      |                    v_opcode: "i16x8.min_u" (151) 0x518-0x51a (2)
     |                                               |                |                  [3]{}: in 0x51a-0x51b (1)
0x510|                              0b               |          .     |                    opcode: "end" (0xb) 0x51a-0x51b (1)
     |                                               |                |            [20]{}: code 0x51b-0x535 (26)
0x510|                                 19            |           .    |              size: 25 (valid) 0x51b-0x51c (1)
     |                                               |                |              code{}: 0x51c-0x535 (25)
     |                                               |                |                t{}: 0x51c-0x51d (1)
0x510|                                    00         |            .   |                  n: 0 (valid) 0x51c-0x51d (1)
     |                                               |                |                  x[0:0]: 0x51d-0x51d (0)
     |                                               |                |                e[0:4]: 0x51d-0x535 (24)
     |                                               |                |                  [0]{}: in 0x51d-0x51f (2)
0x510|                                       20      |                |                    opcode: "local.get" (0x20) 0x51d-0x51e (1)
0x510|                                          00   |              . |                    x: 0 (valid) 0x51e-0x51f (1)
     |                                               |                |                  [1]{}: in 0x51f-0x531 (18)
0x510|                                             fd|               .|                    opcode: "vector" (0xfd) 0x51f-0x520 (1)
0x520|0c                                             |.               |                    v_opcode: "v128.const" (12) 0x520-0x521 (1)
0x520|   00 00 00 00 01 00 01 00 02 00 02 00 03 00 03| ...............|                    bytes: raw bits 0x521-0x531 (16)
0x530|00                                             |.               |
     |                                               |                |                  [2]{}: in 0x531-0x534 (3)
0x530|   fd                                          | .              |                    opcode: "vector" (0xfd) 0x531-0x532 (1)
0x530|      97 01                                    |  ..            |                    v_opcode: "i16x8.min_u" (151) 0x532-0x534 (2)
     |                                               |                |                  [3]{}: in 0x534-0x535 (1)
0x530|            0b                                 |    .           |                    opcode: "end" (0xb) 0x534-0x535 (1)
     |                                               |                |            [21]{}: code 0x535-0x54f (26)
0x530|               19                              |     .          |              size: 25 (valid) 0x535-0x536 (1)
     |                                               |                |              code{}: 0x536-0x54f (25)
     |                                               |                |                t{}: 0x536-0x537 (1)
0x530|                  00                           |      .         |                  n: 0 (valid) 0x536-0x537 (1)
     |                                               |                |                  x[0:0]: 0x537-0x537 (0)
     |                                               |                |                e[0:4]: 0x537-0x54f (24)
     |                                               |                |                  [0]{}: in 0x537-0x539 (2)
0x530|                     20                        |                |                    opcode: "local.get" (0x20) 0x537-0x538 (1)
0x530|                        00                     |        .       |                    x: 0 (valid) 0x538-0x539 (1)
     |                                               |                |                  [1]{}: in 0x539-0x54b (18)
0x530|                           fd                  |         .      |                    opcode: "vector" (0xfd) 0x539-0x53a (1)
0x530|                              0c               |          .     |                    v_opcode: "v128.const" (12) 0x53a-0x53b (1)
0x530|                                 00 80 00 80 ff|           .....|                    bytes: raw bits 0x53b-0x54b (16)
0x540|7f ff 7f 00 40 00 40 ff ff ff ff               |....@.@....     |
     |                                               |                |                  [2]{}: in 0x54b-0x54e (3)
0x540|                                 fd            |           .    |                    opcode: "vector" (0xfd) 0x54b-0x54c (1)
0x540|                                    98 01      |            ..  |                    v_opcode: "i16x8.max_s" (152) 0x54c-0x54e (2)
     |                                               |                |                  [3]{}: in 0x54e-0x54f (1)
0x540|                                          0b   |              . |                    opcode: "end" (0xb) 0x54e-0x54f (1)
     |                                               |                |            [22]{}: code 0x54f-0x569 (26)
0x540|                                             19|               .|              size: 25 (valid) 0x54f-0x550 (1)
     |                                               |                |              code{}: 0x550-0x569 (25)
     |                                               |                |                t{}: 0x550-0x551 (1)
0x550|00                                             |.               |                  n: 0 (valid) 0x550-0x551 (1)
     |                                               |                |                  x[0:0]: 0x551-0x551 (0)
     |                                               |                |                e[0:4]: 0x551-0x569 (24)
     |                                               |                |                  [0]{}: in 0x551-0x553 (2)
0x550|   20                                          |                |                    opcode: "local.get" (0x20) 0x551-0x552 (1)
0x550|      00                                       |  .             |                    x: 0 (valid) 0x552-0x553 (1)
     |                                               |                |                  [1]{}: in 0x553-0x565 (18)
0x550|         fd                                    |   .            |                    opcode: "vector" (0xfd) 0x553-0x554 (1)
0x550|            0c                                 |    .           |                    v_opcode: "v128.const" (12) 0x554-0x555 (1)
0x550|               00 00 00 00 01 00 01 00 02 00 02|     ...........|                    bytes: raw bits 0x555-0x565 (16)
0x560|00 03 00 03 00                                 |.....           |
     |                                               |                |                  [2]{}: in 0x565-0x568 (3)
0x560|               fd                              |     .          |                    opcode: "vector" (0xfd) 0x565-0x566 (1)
0x560|                  98 01                        |      ..        |                    v_opcode: "i16x8.max_s" (152) 0x566-0x568 (2)
     |                                               |                |                  [3]{}: in 0x568-0x569 (1)
0x560|                        0b                     |        .       |                    opcode: "end" (0xb) 0x568-0x569 (1)
     |                                               |                |            [23]{}: code 0x569-0x583 (26)
0x560|                           19                  |         .      |              size: 25 (valid) 0x569-0x56a (1)
     |                                               |                |              code{}: 0x56a-0x583 (25)
     |                                               |                |                t{}: 0x56a-0x56b (1)
0x560|                              00               |          .     |                  n: 0 (valid) 0x56a-0x56b (1)
     |                                               |                |                  x[0:0]: 0x56b-0x56b (0)
     |                                               |                |                e[0:4]: 0x56b-0x583 (24)
     |                                               |                |                  [0]{}: in 0x56b-0x56d (2)
0x560|                                 20            |                |                    opcode: "local.get" (0x20) 0x56b-0x56c (1)
0x560|                                    00         |            .   |                    x: 0 (valid) 0x56c-0x56d (1)
     |                                               |                |                  [1]{}: in 0x56d-0x57f (18)
0x560|                                       fd      |             .  |                    opcode: "vector" (0xfd) 0x56d-0x56e (1)
0x560|                                          0c   |              . |                    v_opcode: "v128.const" (12) 0x56e-0x56f (1)
0x560|                                             00|               .|                    bytes: raw bits 0x56f-0x57f (16)
0x570|80 00 80 ff 7f ff 7f 00 40 00 40 ff ff ff ff   |........@.@.... |
     |                                               |                |                  [2]{}: in 0x57f-0x582 (3)
0x570|                                             fd|               .|                    opcode: "vector" (0xfd) 0x57f-0x580 (1)
0x580|99 01                                          |..              |                    v_opcode: "i16x8.max_u" (153) 0x580-0x582 (2)
     |                                               |                |                  [3]{}: in 0x582-0x583 (1)
0x580|      0b                                       |  .             |                    opcode: "end" (0xb) 0x582-0x583 (1)
     |                                               |                |            [24]{}: code 0x583-0x59d (26)
0x580|         19                                    |   .            |              size: 25 (valid) 0x583-0x584 (1)
     |                                               |                |              code{}: 0x584-0x59d (25)
     |                                               |                |                t{}: 0x584-0x585 (1)
0x580|            00                                 |    .           |                  n: 0 (valid) 0x584-0x585 (1)
     |                                               |                |                  x[0:0]: 0x585-0x585 (0)
     |                                               |                |                e[0:4]: 0x585-0x59d (24)
     |                                               |                |                  [0]{}: in 0x585-0x587 (2)
0x580|               20                              |                |                    opcode: "local.get" (0x20) 0x585-0x586 (1)
0x580|                  00                           |      .         |                    x: 0 (valid) 0x586-0x587 (1)
     |                                               |                |                  [1]{}: in 0x587-0x599 (18)
0x580|                     fd                        |       .        |                    opcode: "vector" (0xfd) 0x587-0x588 (1)
0x580|                        0c                     |        .       |                    v_opcode: "v128.const" (12) 0x588-0x589 (1)
0x580|                           00 00 00 00 01 00 01|         .......|                    bytes: raw bits 0x589-0x599 (16)
0x590|00 02 00 02 00 03 00 03 00                     |.........       |
     |                                               |                |                  [2]{}: in 0x599-0x59c (3)
0x590|                           fd                  |         .      |                    opcode: "vector" (0xfd) 0x599-0x59a (1)
0x590|                              99 01            |          ..    |                    v_opcode: "i16x8.max_u" (153) 0x59a-0x59c (2)
     |                                               |                |                  [3]{}: in 0x59c-0x59d (1)
0x590|                                    0b         |            .   |                    opcode: "end" (0xb) 0x59c-0x59d (1)
     |                                               |                |            [25]{}: code 0x59d-0x5b7 (26)
0x590|                                       19      |             .  |              size: 25 (valid) 0x59d-0x59e (1)
     |                                               |                |              code{}: 0x59e-0x5b7 (25)
     |                                               |                |                t{}: 0x59e-0x59f (1)
0x590|                                          00   |              . |                  n: 0 (valid) 0x59e-0x59f (1)
     |                                               |                |                  x[0:0]: 0x59f-0x59f (0)
     |                                               |                |                e[0:4]: 0x59f-0x5b7 (24)
     |                                               |                |                  [0]{}: in 0x59f-0x5a1 (2)
0x590|                                             20|                |                    opcode: "local.get" (0x20) 0x59f-0x5a0 (1)
0x5a0|00                                             |.               |                    x: 0 (valid) 0x5a0-0x5a1 (1)
     |                                               |                |                  [1]{}: in 0x5a1-0x5b3 (18)
0x5a0|   fd                                          | .              |                    opcode: "vector" (0xfd) 0x5a1-0x5a2 (1)
0x5a0|      0c                                       |  .             |                    v_opcode: "v128.const" (12) 0x5a2-0x5a3 (1)
0x5a0|         00 80 00 80 ff 7f ff 7f 00 40 00 40 ff|   .........@.@.|                    bytes: raw bits 0x5a3-0x5b3 (16)
0x5b0|ff ff ff                                       |...             |
     |                                               |                |                  [2]{}: in 0x5b3-0x5b6 (3)
0x5b0|         fd                                    |   .            |                    opcode: "vector" (0xfd) 0x5b3-0x5b4 (1)
0x5b0|            9b 01                              |    ..          |                    v_opcode: "i16x8.avgr_u" (155) 0x5b4-0x5b6 (2)
     |                                               |                |                  [3]{}: in 0x5b6-0x5b7 (1)
0x5b0|                  0b                           |      .         |                    opcode: "end" (0xb) 0x5b6-0x5b7 (1)
     |                                               |                |            [26]{}: code 0x5b7-0x5d1 (26)
0x5b0|                     19                        |       .        |              size: 25 (valid) 0x5b7-0x5b8 (1)
     |                                               |                |              code{}: 0x5b8-0x5d1 (25)
     |                                               |                |                t{}: 0x5b8-0x5b9 (1)
0x5b0|                        00                     |        .       |                  n: 0 (valid) 0x5b8-0x5b9 (1)
     |                                               |                |                  x[0:0]: 0x5b9-0x5b9 (0)
     |                                               |                |                e[0:4]: 0x5b9-0x5d1 (24)
     |                                               |                |                  [0]{}: in 0x5b9-0x5bb (2)
0x5b0|                           20                  |                |                    opcode: "local.get" (0x20) 0x5b9-0x5ba (1)
0x5b0|                              00               |          .     |                    x: 0 (valid) 0x5ba-0x5bb (1)
     |                                               |                |                  [1]{}: in 0x5bb-0x5cd (18)
0x5b0|                                 fd            |           .    |                    opcode: "vector" (0xfd) 0x5bb-0x5bc (1)
0x5b0|                                    0c         |            .   |                    v_opcode: "v128.const" (12) 0x5bc-0x5bd (1)
0x5b0|                                       00 00 00|             ...|                    bytes: raw bits 0x5bd-0x5cd (16)
0x5c0|00 01 00 01 00 02 00 02 00 03 00 03 00         |.............   |
     |                                               |                |                  [2]{}: in 0x5cd-0x5d0 (3)
0x5c0|                                       fd      |             .  |                    opcode: "vector" (0xfd) 0x5cd-0x5ce (1)
0x5c0|                                          9b 01|              ..|                    v_opcode: "i16x8.avgr_u" (155) 0x5ce-0x5d0 (2)
     |                                               |                |                  [3]{}: in 0x5d0-0x5d1 (1)
0x5d0|0b|                                            |.|              |                    opcode: "end" (0xb) 0x5d0-0x5d1 (1)
