$ fq -d wasm dv simd_load-0.wasm
    |00 01 02 03 04 05 06 07 08 09 0a 0b 0c 0d 0e 0f|0123456789abcdef|.{}: simd_load-0.wasm (wasm) 0x0-0x4e.7 (79)
0x00|00 61 73 6d                                    |.asm            |  magic: raw bits (valid) 0x0-0x3.7 (4)
0x00|            01 00 00 00                        |    ....        |  version: 1 0x4-0x7.7 (4)
    |                                               |                |  sections[0:6]: 0x8-0x4e.7 (71)
    |                                               |                |    [0]{}: section 0x8-0xe.7 (7)
0x00|                        01                     |        .       |      id: "type_section" (1) 0x8-0x8.7 (1)
0x00|                           05                  |         .      |      size: 5 (valid) 0x9-0x9.7 (1)
    |                                               |                |      content{}: 0xa-0xe.7 (5)
    |                                               |                |        ft{}: 0xa-0xe.7 (5)
0x00|                              01               |          .     |          n: 1 (valid) 0xa-0xa.7 (1)
    |                                               |                |          x[0:1]: 0xb-0xe.7 (4)
    |                                               |                |            [0]{}: ft 0xb-0xe.7 (4)
0x00|                                 60            |           `    |              tag: 0x60 (valid) 0xb-0xb.7 (1)
    |                                               |                |              rt1{}: 0xc-0xc.7 (1)
0x00|                                    00         |            .   |                n: 0 (valid) 0xc-0xc.7 (1)
    |                                               |                |                x[0:0]: 0xd-NA (0)
    |                                               |                |              rt2{}: 0xd-0xe.7 (2)
0x00|                                       01      |             .  |                n: 1 (valid) 0xd-0xd.7 (1)
    |                                               |                |                x[0:1]: 0xe-0xe.7 (1)
0x00|                                          7b   |              { |                  [0]: "v128" (0x7b) t 0xe-0xe.7 (1)
    |                                               |                |    [1]{}: section 0xf-0x12.7 (4)
0x00|                                             03|               .|      id: "function_section" (3) 0xf-0xf.7 (1)
0x10|02                                             |.               |      size: 2 (valid) 0x10-0x10.7 (1)
    |                                               |                |      content{}: 0x11-0x12.7 (2)
    |                                               |                |        x{}: 0x11-0x12.7 (2)
0x10|   01                                          | .              |          n: 1 (valid) 0x11-0x11.7 (1)
    |                                               |                |          x[0:1]: 0x12-0x12.7 (1)
0x10|      00                                       |  .             |            [0]: 0 x (valid) 0x12-0x12.7 (1)
    |                                               |                |    [2]{}: section 0x13-0x17.7 (5)
0x10|         05                                    |   .            |      id: "memory_section" (5) 0x13-0x13.7 (1)
0x10|            03                                 |    .           |      size: 3 (valid) 0x14-0x14.7 (1)
    |                                               |                |      content{}: 0x15-0x17.7 (3)
    |                                               |                |        mem{}: 0x15-0x17.7 (3)
0x10|               01                              |     .          |          n: 1 (valid) 0x15-0x15.7 (1)
    |                                               |                |          x[0:1]: 0x16-0x17.7 (2)
    |                                               |                |            [0]{}: mem 0x16-0x17.7 (2)
    |                                               |                |              lim{}: 0x16-0x17.7 (2)
0x10|                  00                           |      .         |                tag: 0x0 0x16-0x16.7 (1)
0x10|                     01                        |       .        |                n: 1 (valid) 0x17-0x17.7 (1)
    |                                               |                |    [3]{}: section 0x18-0x26.7 (15)
0x10|                        07                     |        .       |      id: "export_section" (7) 0x18-0x18.7 (1)
0x10|                           0d                  |         .      |      size: 13 (valid) 0x19-0x19.7 (1)
    |                                               |                |      content{}: 0x1a-0x26.7 (13)
    |                                               |                |        ex{}: 0x1a-0x26.7 (13)
0x10|                              01               |          .     |          n: 1 (valid) 0x1a-0x1a.7 (1)
    |                                               |                |          x[0:1]: 0x1b-0x26.7 (12)
    |                                               |                |            [0]{}: ex 0x1b-0x26.7 (12)
    |                                               |                |              nm{}: 0x1b-0x24.7 (10)
0x10|                                 09            |           .    |                n: 9 (valid) 0x1b-0x1b.7 (1)
0x10|                                    76 31 32 38|            v128|                b: "v128.load" 0x1c-0x24.7 (9)
0x20|2e 6c 6f 61 64                                 |.load           |
    |                                               |                |              d{}: 0x25-0x26.7 (2)
0x20|               00                              |     .          |                tag: "funcidx" (0x0) 0x25-0x25.7 (1)
0x20|                  00                           |      .         |                x: 0 (valid) 0x26-0x26.7 (1)
    |                                               |                |    [4]{}: section 0x27-0x32.7 (12)
0x20|                     0a                        |       .        |      id: "code_section" (10) 0x27-0x27.7 (1)
0x20|                        0a                     |        .       |      size: 10 (valid) 0x28-0x28.7 (1)
    |                                               |                |      content{}: 0x29-0x32.7 (10)
    |                                               |                |        code{}: 0x29-0x32.7 (10)
0x20|                           01                  |         .      |          n: 1 (valid) 0x29-0x29.7 (1)
    |                                               |                |          x[0:1]: 0x2a-0x32.7 (9)
    |                                               |                |            [0]{}: code 0x2a-0x32.7 (9)
0x20|                              08               |          .     |              size: 8 (valid) 0x2a-0x2a.7 (1)
    |                                               |                |              code{}: 0x2b-0x32.7 (8)
    |                                               |                |                t{}: 0x2b-0x2b.7 (1)
0x20|                                 00            |           .    |                  n: 0 (valid) 0x2b-0x2b.7 (1)
    |                                               |                |                  x[0:0]: 0x2c-NA (0)
    |                                               |                |                e[0:3]: 0x2c-0x32.7 (7)
    |                                               |                |                  [0]{}: in 0x2c-0x2d.7 (2)
0x20|                                    41         |            A   |                    opcode: "i32.const" (0x41) 0x2c-0x2c.7 (1)
0x20|                                       00      |             .  |                    n: 0 (valid) 0x2d-0x2d.7 (1)
    |                                               |                |                  [1]{}: in 0x2e-0x31.7 (4)
0x20|                                          fd   |              . |                    opcode: "vector" (0xfd) 0x2e-0x2e.7 (1)
0x20|                                             00|               .|                    v_opcode: "v128.load" (0) 0x2f-0x2f.7 (1)
    |                                               |                |                    m{}: 0x30-0x31.7 (2)
0x30|04                                             |.               |                      a: 4 (valid) 0x30-0x30.7 (1)
0x30|   00                                          | .              |                      o: 0 (valid) 0x31-0x31.7 (1)
    |                                               |                |                  [2]{}: in 0x32-0x32.7 (1)
0x30|      0b                                       |  .             |                    opcode: "end" (0xb) 0x32-0x32.7 (1)
    |                                               |                |    [5]{}: section 0x33-0x4e.7 (28)
0x30|         0b                                    |   .            |      id: "data_section" (11) 0x33-0x33.7 (1)
0x30|            1a                                 |    .           |      size: 26 (valid) 0x34-0x34.7 (1)
    |                                               |                |      content{}: 0x35-0x4e.7 (26)
    |                                               |                |        seg{}: 0x35-0x4e.7 (26)
0x30|               01                              |     .          |          n: 1 (valid) 0x35-0x35.7 (1)
    |                                               |                |          x[0:1]: 0x36-0x4e.7 (25)
    |                                               |                |            [0]{}: seg 0x36-0x4e.7 (25)
0x30|                  00                           |      .         |              tag: 0 (valid) 0x36-0x36.7 (1)
    |                                               |                |              e[0:2]: 0x37-0x39.7 (3)
    |                                               |                |                [0]{}: in 0x37-0x38.7 (2)
0x30|                     41                        |       A        |                  opcode: "i32.const" (0x41) 0x37-0x37.7 (1)
0x30|                        00                     |        .       |                  n: 0 (valid) 0x38-0x38.7 (1)
    |                                               |                |                [1]{}: in 0x39-0x39.7 (1)
0x30|                           0b                  |         .      |                  opcode: "end" (0xb) 0x39-0x39.7 (1)
    |                                               |                |              b{}: 0x3a-0x4e.7 (21)
0x30|                              14               |          .     |                n: 20 (valid) 0x3a-0x3a.7 (1)
0x30|                                 00 01 02 03 04|           .....|                x: raw bits 0x3b-0x4e.7 (20)
0x40|05 06 07 08 09 0a 0b 0c 0d 0e 0f 00 01 02 03|  |...............||
