$ fq -d wasm dv simd_store16_lane-0.wasm
     |00 01 02 03 04 05 06 07 08 09 0a 0b 0c 0d 0e 0f|0123456789abcdef|.{}: simd_store16_lane-0.wasm (wasm) 0x0-0x7c5.7 (1990)
0x000|00 61 73 6d                                    |.asm            |  magic: raw bits (valid) 0x0-0x3.7 (4)
0x000|            01 00 00 00                        |    ....        |  version: 1 0x4-0x7.7 (4)
     |                                               |                |  sections[0:6]: 0x8-0x7c5.7 (1982)
     |                                               |                |    [0]{}: section 0x8-0x15.7 (14)
0x000|                        01                     |        .       |      id: "type section" (1) 0x8-0x8.7 (1)
0x000|                           0c                  |         .      |      size: 12 0x9-0x9.7 (1)
     |                                               |                |      content{}: 0xa-0x15.7 (12)
     |                                               |                |        ft{}: 0xa-0x15.7 (12)
0x000|                              02               |          .     |          n: 2 0xa-0xa.7 (1)
     |                                               |                |          x[0:2]: 0xb-0x15.7 (11)
     |                                               |                |            [0]{}: ft 0xb-0x10.7 (6)
0x000|                                 60            |           `    |              tag: 0x60 (valid) 0xb-0xb.7 (1)
     |                                               |                |              rt1{}: 0xc-0xe.7 (3)
0x000|                                    02         |            .   |                n: 2 0xc-0xc.7 (1)
     |                                               |                |                x[0:2]: 0xd-0xe.7 (2)
0x000|                                       7f      |             .  |                  [0]: "i32" (0x7f) t 0xd-0xd.7 (1)
0x000|                                          7b   |              { |                  [1]: "v128" (0x7b) t 0xe-0xe.7 (1)
     |                                               |                |              rt2{}: 0xf-0x10.7 (2)
0x000|                                             01|               .|                n: 1 0xf-0xf.7 (1)
     |                                               |                |                x[0:1]: 0x10-0x10.7 (1)
0x010|7e                                             |~               |                  [0]: "i64" (0x7e) t 0x10-0x10.7 (1)
     |                                               |                |            [1]{}: ft 0x11-0x15.7 (5)
0x010|   60                                          | `              |              tag: 0x60 (valid) 0x11-0x11.7 (1)
     |                                               |                |              rt1{}: 0x12-0x13.7 (2)
0x010|      01                                       |  .             |                n: 1 0x12-0x12.7 (1)
     |                                               |                |                x[0:1]: 0x13-0x13.7 (1)
0x010|         7b                                    |   {            |                  [0]: "v128" (0x7b) t 0x13-0x13.7 (1)
     |                                               |                |              rt2{}: 0x14-0x15.7 (2)
0x010|            01                                 |    .           |                n: 1 0x14-0x14.7 (1)
     |                                               |                |                x[0:1]: 0x15-0x15.7 (1)
0x010|               7e                              |     ~          |                  [0]: "i64" (0x7e) t 0x15-0x15.7 (1)
     |                                               |                |    [1]{}: section 0x16-0x38.7 (35)
0x010|                  03                           |      .         |      id: "function section" (3) 0x16-0x16.7 (1)
0x010|                     21                        |       !        |      size: 33 0x17-0x17.7 (1)
     |                                               |                |      content{}: 0x18-0x38.7 (33)
     |                                               |                |        x{}: 0x18-0x38.7 (33)
0x010|                        20                     |                |          n: 32 0x18-0x18.7 (1)
     |                                               |                |          x[0:32]: 0x19-0x38.7 (32)
0x010|                           00                  |         .      |            [0]: 0 x 0x19-0x19.7 (1)
0x010|                              00               |          .     |            [1]: 0 x 0x1a-0x1a.7 (1)
0x010|                                 00            |           .    |            [2]: 0 x 0x1b-0x1b.7 (1)
0x010|                                    00         |            .   |            [3]: 0 x 0x1c-0x1c.7 (1)
0x010|                                       00      |             .  |            [4]: 0 x 0x1d-0x1d.7 (1)
0x010|                                          00   |              . |            [5]: 0 x 0x1e-0x1e.7 (1)
0x010|                                             00|               .|            [6]: 0 x 0x1f-0x1f.7 (1)
0x020|00                                             |.               |            [7]: 0 x 0x20-0x20.7 (1)
0x020|   01                                          | .              |            [8]: 1 x 0x21-0x21.7 (1)
0x020|      01                                       |  .             |            [9]: 1 x 0x22-0x22.7 (1)
0x020|         01                                    |   .            |            [10]: 1 x 0x23-0x23.7 (1)
0x020|            01                                 |    .           |            [11]: 1 x 0x24-0x24.7 (1)
0x020|               01                              |     .          |            [12]: 1 x 0x25-0x25.7 (1)
0x020|                  01                           |      .         |            [13]: 1 x 0x26-0x26.7 (1)
0x020|                     01                        |       .        |            [14]: 1 x 0x27-0x27.7 (1)
0x020|                        01                     |        .       |            [15]: 1 x 0x28-0x28.7 (1)
0x020|                           00                  |         .      |            [16]: 0 x 0x29-0x29.7 (1)
0x020|                              00               |          .     |            [17]: 0 x 0x2a-0x2a.7 (1)
0x020|                                 00            |           .    |            [18]: 0 x 0x2b-0x2b.7 (1)
0x020|                                    00         |            .   |            [19]: 0 x 0x2c-0x2c.7 (1)
0x020|                                       00      |             .  |            [20]: 0 x 0x2d-0x2d.7 (1)
0x020|                                          00   |              . |            [21]: 0 x 0x2e-0x2e.7 (1)
0x020|                                             00|               .|            [22]: 0 x 0x2f-0x2f.7 (1)
0x030|00                                             |.               |            [23]: 0 x 0x30-0x30.7 (1)
0x030|   00                                          | .              |            [24]: 0 x 0x31-0x31.7 (1)
0x030|      00                                       |  .             |            [25]: 0 x 0x32-0x32.7 (1)
0x030|         00                                    |   .            |            [26]: 0 x 0x33-0x33.7 (1)
0x030|            00                                 |    .           |            [27]: 0 x 0x34-0x34.7 (1)
0x030|               00                              |     .          |            [28]: 0 x 0x35-0x35.7 (1)
0x030|                  00                           |      .         |            [29]: 0 x 0x36-0x36.7 (1)
0x030|                     00                        |       .        |            [30]: 0 x 0x37-0x37.7 (1)
0x030|                        00                     |        .       |            [31]: 0 x 0x38-0x38.7 (1)
     |                                               |                |    [2]{}: section 0x39-0x3d.7 (5)
0x030|                           05                  |         .      |      id: "memory section" (5) 0x39-0x39.7 (1)
0x030|                              03               |          .     |      size: 3 0x3a-0x3a.7 (1)
     |                                               |                |      content{}: 0x3b-0x3d.7 (3)
     |                                               |                |        mem{}: 0x3b-0x3d.7 (3)
0x030|                                 01            |           .    |          n: 1 0x3b-0x3b.7 (1)
     |                                               |                |          x[0:1]: 0x3c-0x3d.7 (2)
     |                                               |                |            [0]{}: mem 0x3c-0x3d.7 (2)
     |                                               |                |              lim{}: 0x3c-0x3d.7 (2)
0x030|                                    00         |            .   |                tag: 0x0 0x3c-0x3c.7 (1)
0x030|                                       01      |             .  |                n: 1 0x3d-0x3d.7 (1)
     |                                               |                |    [3]{}: section 0x3e-0x55.7 (24)
0x030|                                          06   |              . |      id: "global section" (6) 0x3e-0x3e.7 (1)
0x030|                                             16|               .|      size: 22 0x3f-0x3f.7 (1)
     |                                               |                |      content{}: 0x40-0x55.7 (22)
     |                                               |                |        glob{}: 0x40-0x55.7 (22)
0x040|01                                             |.               |          n: 1 0x40-0x40.7 (1)
     |                                               |                |          x[0:1]: 0x41-0x55.7 (21)
     |                                               |                |            [0]{}: glob 0x41-0x55.7 (21)
     |                                               |                |              gt{}: 0x41-0x42.7 (2)
0x040|   7b                                          | {              |                t: "v128" (0x7b) 0x41-0x41.7 (1)
0x040|      01                                       |  .             |                m: "var" (1) 0x42-0x42.7 (1)
     |                                               |                |              e[0:2]: 0x43-0x55.7 (19)
     |                                               |                |                [0]{}: in 0x43-0x54.7 (18)
0x040|         fd                                    |   .            |                  prefix: 0xfd (valid) 0x43-0x43.7 (1)
0x040|            0c                                 |    .           |                  v128.const: 12 (valid) 0x44-0x44.7 (1)
0x040|               00 00 00 00 00 00 00 00 00 00 00|     ...........|                  bytes: raw bits 0x45-0x54.7 (16)
0x050|00 00 00 00 00                                 |.....           |
     |                                               |                |                [1]{}: in 0x55-0x55.7 (1)
0x050|               0b                              |     .          |                  end: 0xb (valid) 0x55-0x55.7 (1)
     |                                               |                |    [4]{}: section 0x56-0x3e1.7 (908)
0x050|                  07                           |      .         |      id: "export section" (7) 0x56-0x56.7 (1)
0x050|                     89 07                     |       ..       |      size: 905 0x57-0x58.7 (2)
     |                                               |                |      content{}: 0x59-0x3e1.7 (905)
     |                                               |                |        ex{}: 0x59-0x3e1.7 (905)
0x050|                           20                  |                |          n: 32 0x59-0x59.7 (1)
     |                                               |                |          x[0:32]: 0x5a-0x3e1.7 (904)
     |                                               |                |            [0]{}: ex 0x5a-0x6f.7 (22)
     |                                               |                |              nm{}: 0x5a-0x6d.7 (20)
0x050|                              13               |          .     |                n: 19 0x5a-0x5a.7 (1)
0x050|                                 76 31 32 38 2e|           v128.|                b: "v128.store16_lane_0" 0x5b-0x6d.7 (19)
0x060|73 74 6f 72 65 31 36 5f 6c 61 6e 65 5f 30      |store16_lane_0  |
     |                                               |                |              d{}: 0x6e-0x6f.7 (2)
0x060|                                          00   |              . |                tag: "funcidx" (0x0) 0x6e-0x6e.7 (1)
0x060|                                             00|               .|                x: 0 0x6f-0x6f.7 (1)
     |                                               |                |            [1]{}: ex 0x70-0x85.7 (22)
     |                                               |                |              nm{}: 0x70-0x83.7 (20)
0x070|13                                             |.               |                n: 19 0x70-0x70.7 (1)
0x070|   76 31 32 38 2e 73 74 6f 72 65 31 36 5f 6c 61| v128.store16_la|                b: "v128.store16_lane_1" 0x71-0x83.7 (19)
0x080|6e 65 5f 31                                    |ne_1            |
     |                                               |                |              d{}: 0x84-0x85.7 (2)
0x080|            00                                 |    .           |                tag: "funcidx" (0x0) 0x84-0x84.7 (1)
0x080|               01                              |     .          |                x: 1 0x85-0x85.7 (1)
     |                                               |                |            [2]{}: ex 0x86-0x9b.7 (22)
     |                                               |                |              nm{}: 0x86-0x99.7 (20)
0x080|                  13                           |      .         |                n: 19 0x86-0x86.7 (1)
0x080|                     76 31 32 38 2e 73 74 6f 72|       v128.stor|                b: "v128.store16_lane_2" 0x87-0x99.7 (19)
0x090|65 31 36 5f 6c 61 6e 65 5f 32                  |e16_lane_2      |
     |                                               |                |              d{}: 0x9a-0x9b.7 (2)
0x090|                              00               |          .     |                tag: "funcidx" (0x0) 0x9a-0x9a.7 (1)
0x090|                                 02            |           .    |                x: 2 0x9b-0x9b.7 (1)
     |                                               |                |            [3]{}: ex 0x9c-0xb1.7 (22)
     |                                               |                |              nm{}: 0x9c-0xaf.7 (20)
0x090|                                    13         |            .   |                n: 19 0x9c-0x9c.7 (1)
0x090|                                       76 31 32|             v12|                b: "v128.store16_lane_3" 0x9d-0xaf.7 (19)
0x0a0|38 2e 73 74 6f 72 65 31 36 5f 6c 61 6e 65 5f 33|8.store16_lane_3|
     |                                               |                |              d{}: 0xb0-0xb1.7 (2)
0x0b0|00                                             |.               |                tag: "funcidx" (0x0) 0xb0-0xb0.7 (1)
0x0b0|   03                                          | .              |                x: 3 0xb1-0xb1.7 (1)
     |                                               |                |            [4]{}: ex 0xb2-0xc7.7 (22)
     |                                               |                |              nm{}: 0xb2-0xc5.7 (20)
0x0b0|      13                                       |  .             |                n: 19 0xb2-0xb2.7 (1)
0x0b0|         76 31 32 38 2e 73 74 6f 72 65 31 36 5f|   v128.store16_|                b: "v128.store16_lane_4" 0xb3-0xc5.7 (19)
0x0c0|6c 61 6e 65 5f 34                              |lane_4          |
     |                                               |                |              d{}: 0xc6-0xc7.7 (2)
0x0c0|                  00                           |      .         |                tag: "funcidx" (0x0) 0xc6-0xc6.7 (1)
0x0c0|                     04                        |       .        |                x: 4 0xc7-0xc7.7 (1)
     |                                               |                |            [5]{}: ex 0xc8-0xdd.7 (22)
     |                                               |                |              nm{}: 0xc8-0xdb.7 (20)
0x0c0|                        13                     |        .       |                n: 19 0xc8-0xc8.7 (1)
0x0c0|                           76 31 32 38 2e 73 74|         v128.st|                b: "v128.store16_lane_5" 0xc9-0xdb.7 (19)
0x0d0|6f 72 65 31 36 5f 6c 61 6e 65 5f 35            |ore16_lane_5    |
     |                                               |                |              d{}: 0xdc-0xdd.7 (2)
0x0d0|                                    00         |            .   |                tag: "funcidx" (0x0) 0xdc-0xdc.7 (1)
0x0d0|                                       05      |             .  |                x: 5 0xdd-0xdd.7 (1)
     |                                               |                |            [6]{}: ex 0xde-0xf3.7 (22)
     |                                               |                |              nm{}: 0xde-0xf1.7 (20)
0x0d0|                                          13   |              . |                n: 19 0xde-0xde.7 (1)
0x0d0|                                             76|               v|                b: "v128.store16_lane_6" 0xdf-0xf1.7 (19)
0x0e0|31 32 38 2e 73 74 6f 72 65 31 36 5f 6c 61 6e 65|128.store16_lane|
0x0f0|5f 36                                          |_6              |
     |                                               |                |              d{}: 0xf2-0xf3.7 (2)
0x0f0|      00                                       |  .             |                tag: "funcidx" (0x0) 0xf2-0xf2.7 (1)
0x0f0|         06                                    |   .            |                x: 6 0xf3-0xf3.7 (1)
     |                                               |                |            [7]{}: ex 0xf4-0x109.7 (22)
     |                                               |                |              nm{}: 0xf4-0x107.7 (20)
0x0f0|            13                                 |    .           |                n: 19 0xf4-0xf4.7 (1)
0x0f0|               76 31 32 38 2e 73 74 6f 72 65 31|     v128.store1|                b: "v128.store16_lane_7" 0xf5-0x107.7 (19)
0x100|36 5f 6c 61 6e 65 5f 37                        |6_lane_7        |
     |                                               |                |              d{}: 0x108-0x109.7 (2)
0x100|                        00                     |        .       |                tag: "funcidx" (0x0) 0x108-0x108.7 (1)
0x100|                           07                  |         .      |                x: 7 0x109-0x109.7 (1)
     |                                               |                |            [8]{}: ex 0x10a-0x128.7 (31)
     |                                               |                |              nm{}: 0x10a-0x126.7 (29)
0x100|                              1c               |          .     |                n: 28 0x10a-0x10a.7 (1)
0x100|                                 76 31 32 38 2e|           v128.|                b: "v128.store16_lane_0_offset_0" 0x10b-0x126.7 (28)
0x110|73 74 6f 72 65 31 36 5f 6c 61 6e 65 5f 30 5f 6f|store16_lane_0_o|
0x120|66 66 73 65 74 5f 30                           |ffset_0         |
     |                                               |                |              d{}: 0x127-0x128.7 (2)
0x120|                     00                        |       .        |                tag: "funcidx" (0x0) 0x127-0x127.7 (1)
0x120|                        08                     |        .       |                x: 8 0x128-0x128.7 (1)
     |                                               |                |            [9]{}: ex 0x129-0x147.7 (31)
     |                                               |                |              nm{}: 0x129-0x145.7 (29)
0x120|                           1c                  |         .      |                n: 28 0x129-0x129.7 (1)
0x120|                              76 31 32 38 2e 73|          v128.s|                b: "v128.store16_lane_1_offset_1" 0x12a-0x145.7 (28)
0x130|74 6f 72 65 31 36 5f 6c 61 6e 65 5f 31 5f 6f 66|tore16_lane_1_of|
0x140|66 73 65 74 5f 31                              |fset_1          |
     |                                               |                |              d{}: 0x146-0x147.7 (2)
0x140|                  00                           |      .         |                tag: "funcidx" (0x0) 0x146-0x146.7 (1)
0x140|                     09                        |       .        |                x: 9 0x147-0x147.7 (1)
     |                                               |                |            [10]{}: ex 0x148-0x166.7 (31)
     |                                               |                |              nm{}: 0x148-0x164.7 (29)
0x140|                        1c                     |        .       |                n: 28 0x148-0x148.7 (1)
0x140|                           76 31 32 38 2e 73 74|         v128.st|                b: "v128.store16_lane_2_offset_2" 0x149-0x164.7 (28)
0x150|6f 72 65 31 36 5f 6c 61 6e 65 5f 32 5f 6f 66 66|ore16_lane_2_off|
0x160|73 65 74 5f 32                                 |set_2           |
     |                                               |                |              d{}: 0x165-0x166.7 (2)
0x160|               00                              |     .          |                tag: "funcidx" (0x0) 0x165-0x165.7 (1)
0x160|                  0a                           |      .         |                x: 10 0x166-0x166.7 (1)
     |                                               |                |            [11]{}: ex 0x167-0x185.7 (31)
     |                                               |                |              nm{}: 0x167-0x183.7 (29)
0x160|                     1c                        |       .        |                n: 28 0x167-0x167.7 (1)
0x160|                        76 31 32 38 2e 73 74 6f|        v128.sto|                b: "v128.store16_lane_3_offset_3" 0x168-0x183.7 (28)
0x170|72 65 31 36 5f 6c 61 6e 65 5f 33 5f 6f 66 66 73|re16_lane_3_offs|
0x180|65 74 5f 33                                    |et_3            |
     |                                               |                |              d{}: 0x184-0x185.7 (2)
0x180|            00                                 |    .           |                tag: "funcidx" (0x0) 0x184-0x184.7 (1)
0x180|               0b                              |     .          |                x: 11 0x185-0x185.7 (1)
     |                                               |                |            [12]{}: ex 0x186-0x1a4.7 (31)
     |                                               |                |              nm{}: 0x186-0x1a2.7 (29)
0x180|                  1c                           |      .         |                n: 28 0x186-0x186.7 (1)
0x180|                     76 31 32 38 2e 73 74 6f 72|       v128.stor|                b: "v128.store16_lane_4_offset_4" 0x187-0x1a2.7 (28)
0x190|65 31 36 5f 6c 61 6e 65 5f 34 5f 6f 66 66 73 65|e16_lane_4_offse|
0x1a0|74 5f 34                                       |t_4             |
     |                                               |                |              d{}: 0x1a3-0x1a4.7 (2)
0x1a0|         00                                    |   .            |                tag: "funcidx" (0x0) 0x1a3-0x1a3.7 (1)
0x1a0|            0c                                 |    .           |                x: 12 0x1a4-0x1a4.7 (1)
     |                                               |                |            [13]{}: ex 0x1a5-0x1c3.7 (31)
     |                                               |                |              nm{}: 0x1a5-0x1c1.7 (29)
0x1a0|               1c                              |     .          |                n: 28 0x1a5-0x1a5.7 (1)
0x1a0|                  76 31 32 38 2e 73 74 6f 72 65|      v128.store|                b: "v128.store16_lane_5_offset_5" 0x1a6-0x1c1.7 (28)
0x1b0|31 36 5f 6c 61 6e 65 5f 35 5f 6f 66 66 73 65 74|16_lane_5_offset|
0x1c0|5f 35                                          |_5              |
     |                                               |                |              d{}: 0x1c2-0x1c3.7 (2)
0x1c0|      00                                       |  .             |                tag: "funcidx" (0x0) 0x1c2-0x1c2.7 (1)
0x1c0|         0d                                    |   .            |                x: 13 0x1c3-0x1c3.7 (1)
     |                                               |                |            [14]{}: ex 0x1c4-0x1e2.7 (31)
     |                                               |                |              nm{}: 0x1c4-0x1e0.7 (29)
0x1c0|            1c                                 |    .           |                n: 28 0x1c4-0x1c4.7 (1)
0x1c0|               76 31 32 38 2e 73 74 6f 72 65 31|     v128.store1|                b: "v128.store16_lane_6_offset_6" 0x1c5-0x1e0.7 (28)
0x1d0|36 5f 6c 61 6e 65 5f 36 5f 6f 66 66 73 65 74 5f|6_lane_6_offset_|
0x1e0|36                                             |6               |
     |                                               |                |              d{}: 0x1e1-0x1e2.7 (2)
0x1e0|   00                                          | .              |                tag: "funcidx" (0x0) 0x1e1-0x1e1.7 (1)
0x1e0|      0e                                       |  .             |                x: 14 0x1e2-0x1e2.7 (1)
     |                                               |                |            [15]{}: ex 0x1e3-0x201.7 (31)
     |                                               |                |              nm{}: 0x1e3-0x1ff.7 (29)
0x1e0|         1c                                    |   .            |                n: 28 0x1e3-0x1e3.7 (1)
0x1e0|            76 31 32 38 2e 73 74 6f 72 65 31 36|    v128.store16|                b: "v128.store16_lane_7_offset_7" 0x1e4-0x1ff.7 (28)
0x1f0|5f 6c 61 6e 65 5f 37 5f 6f 66 66 73 65 74 5f 37|_lane_7_offset_7|
     |                                               |                |              d{}: 0x200-0x201.7 (2)
0x200|00                                             |.               |                tag: "funcidx" (0x0) 0x200-0x200.7 (1)
0x200|   0f                                          | .              |                x: 15 0x201-0x201.7 (1)
     |                                               |                |            [16]{}: ex 0x202-0x21f.7 (30)
     |                                               |                |              nm{}: 0x202-0x21d.7 (28)
0x200|      1b                                       |  .             |                n: 27 0x202-0x202.7 (1)
0x200|         76 31 32 38 2e 73 74 6f 72 65 31 36 5f|   v128.store16_|                b: "v128.store16_lane_0_align_1" 0x203-0x21d.7 (27)
0x210|6c 61 6e 65 5f 30 5f 61 6c 69 67 6e 5f 31      |lane_0_align_1  |
     |                                               |                |              d{}: 0x21e-0x21f.7 (2)
0x210|                                          00   |              . |                tag: "funcidx" (0x0) 0x21e-0x21e.7 (1)
0x210|                                             10|               .|                x: 16 0x21f-0x21f.7 (1)
     |                                               |                |            [17]{}: ex 0x220-0x23d.7 (30)
     |                                               |                |              nm{}: 0x220-0x23b.7 (28)
0x220|1b                                             |.               |                n: 27 0x220-0x220.7 (1)
0x220|   76 31 32 38 2e 73 74 6f 72 65 31 36 5f 6c 61| v128.store16_la|                b: "v128.store16_lane_0_align_2" 0x221-0x23b.7 (27)
0x230|6e 65 5f 30 5f 61 6c 69 67 6e 5f 32            |ne_0_align_2    |
     |                                               |                |              d{}: 0x23c-0x23d.7 (2)
0x230|                                    00         |            .   |                tag: "funcidx" (0x0) 0x23c-0x23c.7 (1)
0x230|                                       11      |             .  |                x: 17 0x23d-0x23d.7 (1)
     |                                               |                |            [18]{}: ex 0x23e-0x25b.7 (30)
     |                                               |                |              nm{}: 0x23e-0x259.7 (28)
0x230|                                          1b   |              . |                n: 27 0x23e-0x23e.7 (1)
0x230|                                             76|               v|                b: "v128.store16_lane_1_align_1" 0x23f-0x259.7 (27)
0x240|31 32 38 2e 73 74 6f 72 65 31 36 5f 6c 61 6e 65|128.store16_lane|
0x250|5f 31 5f 61 6c 69 67 6e 5f 31                  |_1_align_1      |
     |                                               |                |              d{}: 0x25a-0x25b.7 (2)
0x250|                              00               |          .     |                tag: "funcidx" (0x0) 0x25a-0x25a.7 (1)
0x250|                                 12            |           .    |                x: 18 0x25b-0x25b.7 (1)
     |                                               |                |            [19]{}: ex 0x25c-0x279.7 (30)
     |                                               |                |              nm{}: 0x25c-0x277.7 (28)
0x250|                                    1b         |            .   |                n: 27 0x25c-0x25c.7 (1)
0x250|                                       76 31 32|             v12|                b: "v128.store16_lane_1_align_2" 0x25d-0x277.7 (27)
0x260|38 2e 73 74 6f 72 65 31 36 5f 6c 61 6e 65 5f 31|8.store16_lane_1|
0x270|5f 61 6c 69 67 6e 5f 32                        |_align_2        |
     |                                               |                |              d{}: 0x278-0x279.7 (2)
0x270|                        00                     |        .       |                tag: "funcidx" (0x0) 0x278-0x278.7 (1)
0x270|                           13                  |         .      |                x: 19 0x279-0x279.7 (1)
     |                                               |                |            [20]{}: ex 0x27a-0x297.7 (30)
     |                                               |                |              nm{}: 0x27a-0x295.7 (28)
0x270|                              1b               |          .     |                n: 27 0x27a-0x27a.7 (1)
0x270|                                 76 31 32 38 2e|           v128.|                b: "v128.store16_lane_2_align_1" 0x27b-0x295.7 (27)
0x280|73 74 6f 72 65 31 36 5f 6c 61 6e 65 5f 32 5f 61|store16_lane_2_a|
0x290|6c 69 67 6e 5f 31                              |lign_1          |
     |                                               |                |              d{}: 0x296-0x297.7 (2)
0x290|                  00                           |      .         |                tag: "funcidx" (0x0) 0x296-0x296.7 (1)
0x290|                     14                        |       .        |                x: 20 0x297-0x297.7 (1)
     |                                               |                |            [21]{}: ex 0x298-0x2b5.7 (30)
     |                                               |                |              nm{}: 0x298-0x2b3.7 (28)
0x290|                        1b                     |        .       |                n: 27 0x298-0x298.7 (1)
0x290|                           76 31 32 38 2e 73 74|         v128.st|                b: "v128.store16_lane_2_align_2" 0x299-0x2b3.7 (27)
0x2a0|6f 72 65 31 36 5f 6c 61 6e 65 5f 32 5f 61 6c 69|ore16_lane_2_ali|
0x2b0|67 6e 5f 32                                    |gn_2            |
     |                                               |                |              d{}: 0x2b4-0x2b5.7 (2)
0x2b0|            00                                 |    .           |                tag: "funcidx" (0x0) 0x2b4-0x2b4.7 (1)
0x2b0|               15                              |     .          |                x: 21 0x2b5-0x2b5.7 (1)
     |                                               |                |            [22]{}: ex 0x2b6-0x2d3.7 (30)
     |                                               |                |              nm{}: 0x2b6-0x2d1.7 (28)
0x2b0|                  1b                           |      .         |                n: 27 0x2b6-0x2b6.7 (1)
0x2b0|                     76 31 32 38 2e 73 74 6f 72|       v128.stor|                b: "v128.store16_lane_3_align_1" 0x2b7-0x2d1.7 (27)
0x2c0|65 31 36 5f 6c 61 6e 65 5f 33 5f 61 6c 69 67 6e|e16_lane_3_align|
0x2d0|5f 31                                          |_1              |
     |                                               |                |              d{}: 0x2d2-0x2d3.7 (2)
0x2d0|      00                                       |  .             |                tag: "funcidx" (0x0) 0x2d2-0x2d2.7 (1)
0x2d0|         16                                    |   .            |                x: 22 0x2d3-0x2d3.7 (1)
     |                                               |                |            [23]{}: ex 0x2d4-0x2f1.7 (30)
     |                                               |                |              nm{}: 0x2d4-0x2ef.7 (28)
0x2d0|            1b                                 |    .           |                n: 27 0x2d4-0x2d4.7 (1)
0x2d0|               76 31 32 38 2e 73 74 6f 72 65 31|     v128.store1|                b: "v128.store16_lane_3_align_2" 0x2d5-0x2ef.7 (27)
0x2e0|36 5f 6c 61 6e 65 5f 33 5f 61 6c 69 67 6e 5f 32|6_lane_3_align_2|
     |                                               |                |              d{}: 0x2f0-0x2f1.7 (2)
0x2f0|00                                             |.               |                tag: "funcidx" (0x0) 0x2f0-0x2f0.7 (1)
0x2f0|   17                                          | .              |                x: 23 0x2f1-0x2f1.7 (1)
     |                                               |                |            [24]{}: ex 0x2f2-0x30f.7 (30)
     |                                               |                |              nm{}: 0x2f2-0x30d.7 (28)
0x2f0|      1b                                       |  .             |                n: 27 0x2f2-0x2f2.7 (1)
0x2f0|         76 31 32 38 2e 73 74 6f 72 65 31 36 5f|   v128.store16_|                b: "v128.store16_lane_4_align_1" 0x2f3-0x30d.7 (27)
0x300|6c 61 6e 65 5f 34 5f 61 6c 69 67 6e 5f 31      |lane_4_align_1  |
     |                                               |                |              d{}: 0x30e-0x30f.7 (2)
0x300|                                          00   |              . |                tag: "funcidx" (0x0) 0x30e-0x30e.7 (1)
0x300|                                             18|               .|                x: 24 0x30f-0x30f.7 (1)
     |                                               |                |            [25]{}: ex 0x310-0x32d.7 (30)
     |                                               |                |              nm{}: 0x310-0x32b.7 (28)
0x310|1b                                             |.               |                n: 27 0x310-0x310.7 (1)
0x310|   76 31 32 38 2e 73 74 6f 72 65 31 36 5f 6c 61| v128.store16_la|                b: "v128.store16_lane_4_align_2" 0x311-0x32b.7 (27)
0x320|6e 65 5f 34 5f 61 6c 69 67 6e 5f 32            |ne_4_align_2    |
     |                                               |                |              d{}: 0x32c-0x32d.7 (2)
0x320|                                    00         |            .   |                tag: "funcidx" (0x0) 0x32c-0x32c.7 (1)
0x320|                                       19      |             .  |                x: 25 0x32d-0x32d.7 (1)
     |                                               |                |            [26]{}: ex 0x32e-0x34b.7 (30)
     |                                               |                |              nm{}: 0x32e-0x349.7 (28)
0x320|                                          1b   |              . |                n: 27 0x32e-0x32e.7 (1)
0x320|                                             76|               v|                b: "v128.store16_lane_5_align_1" 0x32f-0x349.7 (27)
0x330|31 32 38 2e 73 74 6f 72 65 31 36 5f 6c 61 6e 65|128.store16_lane|
0x340|5f 35 5f 61 6c 69 67 6e 5f 31                  |_5_align_1      |
     |                                               |                |              d{}: 0x34a-0x34b.7 (2)
0x340|                              00               |          .     |                tag: "funcidx" (0x0) 0x34a-0x34a.7 (1)
0x340|                                 1a            |           .    |                x: 26 0x34b-0x34b.7 (1)
     |                                               |                |            [27]{}: ex 0x34c-0x369.7 (30)
     |                                               |                |              nm{}: 0x34c-0x367.7 (28)
0x340|                                    1b         |            .   |                n: 27 0x34c-0x34c.7 (1)
0x340|                                       76 31 32|             v12|                b: "v128.store16_lane_5_align_2" 0x34d-0x367.7 (27)
0x350|38 2e 73 74 6f 72 65 31 36 5f 6c 61 6e 65 5f 35|8.store16_lane_5|
0x360|5f 61 6c 69 67 6e 5f 32                        |_align_2        |
     |                                               |                |              d{}: 0x368-0x369.7 (2)
0x360|                        00                     |        .       |                tag: "funcidx" (0x0) 0x368-0x368.7 (1)
0x360|                           1b                  |         .      |                x: 27 0x369-0x369.7 (1)
     |                                               |                |            [28]{}: ex 0x36a-0x387.7 (30)
     |                                               |                |              nm{}: 0x36a-0x385.7 (28)
0x360|                              1b               |          .     |                n: 27 0x36a-0x36a.7 (1)
0x360|                                 76 31 32 38 2e|           v128.|                b: "v128.store16_lane_6_align_1" 0x36b-0x385.7 (27)
0x370|73 74 6f 72 65 31 36 5f 6c 61 6e 65 5f 36 5f 61|store16_lane_6_a|
0x380|6c 69 67 6e 5f 31                              |lign_1          |
     |                                               |                |              d{}: 0x386-0x387.7 (2)
0x380|                  00                           |      .         |                tag: "funcidx" (0x0) 0x386-0x386.7 (1)
0x380|                     1c                        |       .        |                x: 28 0x387-0x387.7 (1)
     |                                               |                |            [29]{}: ex 0x388-0x3a5.7 (30)
     |                                               |                |              nm{}: 0x388-0x3a3.7 (28)
0x380|                        1b                     |        .       |                n: 27 0x388-0x388.7 (1)
0x380|                           76 31 32 38 2e 73 74|         v128.st|                b: "v128.store16_lane_6_align_2" 0x389-0x3a3.7 (27)
0x390|6f 72 65 31 36 5f 6c 61 6e 65 5f 36 5f 61 6c 69|ore16_lane_6_ali|
0x3a0|67 6e 5f 32                                    |gn_2            |
     |                                               |                |              d{}: 0x3a4-0x3a5.7 (2)
0x3a0|            00                                 |    .           |                tag: "funcidx" (0x0) 0x3a4-0x3a4.7 (1)
0x3a0|               1d                              |     .          |                x: 29 0x3a5-0x3a5.7 (1)
     |                                               |                |            [30]{}: ex 0x3a6-0x3c3.7 (30)
     |                                               |                |              nm{}: 0x3a6-0x3c1.7 (28)
0x3a0|                  1b                           |      .         |                n: 27 0x3a6-0x3a6.7 (1)
0x3a0|                     76 31 32 38 2e 73 74 6f 72|       v128.stor|                b: "v128.store16_lane_7_align_1" 0x3a7-0x3c1.7 (27)
0x3b0|65 31 36 5f 6c 61 6e 65 5f 37 5f 61 6c 69 67 6e|e16_lane_7_align|
0x3c0|5f 31                                          |_1              |
     |                                               |                |              d{}: 0x3c2-0x3c3.7 (2)
0x3c0|      00                                       |  .             |                tag: "funcidx" (0x0) 0x3c2-0x3c2.7 (1)
0x3c0|         1e                                    |   .            |                x: 30 0x3c3-0x3c3.7 (1)
     |                                               |                |            [31]{}: ex 0x3c4-0x3e1.7 (30)
     |                                               |                |              nm{}: 0x3c4-0x3df.7 (28)
0x3c0|            1b                                 |    .           |                n: 27 0x3c4-0x3c4.7 (1)
0x3c0|               76 31 32 38 2e 73 74 6f 72 65 31|     v128.store1|                b: "v128.store16_lane_7_align_2" 0x3c5-0x3df.7 (27)
0x3d0|36 5f 6c 61 6e 65 5f 37 5f 61 6c 69 67 6e 5f 32|6_lane_7_align_2|
     |                                               |                |              d{}: 0x3e0-0x3e1.7 (2)
0x3e0|00                                             |.               |                tag: "funcidx" (0x0) 0x3e0-0x3e0.7 (1)
0x3e0|   1f                                          | .              |                x: 31 0x3e1-0x3e1.7 (1)
     |                                               |                |    [5]{}: section 0x3e2-0x7c5.7 (996)
0x3e0|      0a                                       |  .             |      id: "code section" (10) 0x3e2-0x3e2.7 (1)
0x3e0|         e1 07                                 |   ..           |      size: 993 0x3e3-0x3e4.7 (2)
     |                                               |                |      content{}: 0x3e5-0x7c5.7 (993)
     |                                               |                |        code{}: 0x3e5-0x7c5.7 (993)
0x3e0|               20                              |                |          n: 32 0x3e5-0x3e5.7 (1)
     |                                               |                |          x[0:32]: 0x3e6-0x7c5.7 (992)
     |                                               |                |            [0]{}: code 0x3e6-0x404.7 (31)
0x3e0|                  1e                           |      .         |              size: 30 0x3e6-0x3e6.7 (1)
     |                                               |                |              code{}: 0x3e7-0x404.7 (30)
     |                                               |                |                t{}: 0x3e7-0x3e9.7 (3)
0x3e0|                     01                        |       .        |                  n: 1 0x3e7-0x3e7.7 (1)
     |                                               |                |                  x[0:1]: 0x3e8-0x3e9.7 (2)
     |                                               |                |                    [0]{}: t 0x3e8-0x3e9.7 (2)
0x3e0|                        01                     |        .       |                      n: 1 0x3e8-0x3e8.7 (1)
0x3e0|                           7e                  |         ~      |                      t: "i64" (0x7e) 0x3e9-0x3e9.7 (1)
     |                                               |                |                e[0:11]: 0x3ea-0x404.7 (27)
     |                                               |                |                  [0]{}: in 0x3ea-0x3eb.7 (2)
0x3e0|                              20               |                |                    local.get: 0x20 (valid) 0x3ea-0x3ea.7 (1)
0x3e0|                                 00            |           .    |                    x: 0 0x3eb-0x3eb.7 (1)
     |                                               |                |                  [1]{}: in 0x3ec-0x3ed.7 (2)
0x3e0|                                    20         |                |                    local.get: 0x20 (valid) 0x3ec-0x3ec.7 (1)
0x3e0|                                       01      |             .  |                    x: 1 0x3ed-0x3ed.7 (1)
     |                                               |                |                  [2]{}: in 0x3ee-0x3f2.7 (5)
0x3e0|                                          fd   |              . |                    prefix: 0xfd (valid) 0x3ee-0x3ee.7 (1)
0x3e0|                                             59|               Y|                    v128.store16_lane: 89 (valid) 0x3ef-0x3ef.7 (1)
     |                                               |                |                    m{}: 0x3f0-0x3f1.7 (2)
0x3f0|01                                             |.               |                      a: 1 0x3f0-0x3f0.7 (1)
0x3f0|   00                                          | .              |                      o: 0 0x3f1-0x3f1.7 (1)
0x3f0|      00                                       |  .             |                    l: 0 0x3f2-0x3f2.7 (1)
     |                                               |                |                  [3]{}: in 0x3f3-0x3f4.7 (2)
0x3f0|         20                                    |                |                    local.get: 0x20 (valid) 0x3f3-0x3f3.7 (1)
0x3f0|            00                                 |    .           |                    x: 0 0x3f4-0x3f4.7 (1)
     |                                               |                |                  [4]{}: in 0x3f5-0x3f7.7 (3)
0x3f0|               29                              |     )          |                    i64.load: 0x29 (valid) 0x3f5-0x3f5.7 (1)
     |                                               |                |                    m{}: 0x3f6-0x3f7.7 (2)
0x3f0|                  03                           |      .         |                      a: 3 0x3f6-0x3f6.7 (1)
0x3f0|                     00                        |       .        |                      o: 0 0x3f7-0x3f7.7 (1)
     |                                               |                |                  [5]{}: in 0x3f8-0x3f9.7 (2)
0x3f0|                        21                     |        !       |                    local.set: 0x21 (valid) 0x3f8-0x3f8.7 (1)
0x3f0|                           02                  |         .      |                    x: 2 0x3f9-0x3f9.7 (1)
     |                                               |                |                  [6]{}: in 0x3fa-0x3fb.7 (2)
0x3f0|                              20               |                |                    local.get: 0x20 (valid) 0x3fa-0x3fa.7 (1)
0x3f0|                                 00            |           .    |                    x: 0 0x3fb-0x3fb.7 (1)
     |                                               |                |                  [7]{}: in 0x3fc-0x3fd.7 (2)
0x3f0|                                    23         |            #   |                    global.get: 0x23 (valid) 0x3fc-0x3fc.7 (1)
0x3f0|                                       00      |             .  |                    x: 0 0x3fd-0x3fd.7 (1)
     |                                               |                |                  [8]{}: in 0x3fe-0x401.7 (4)
0x3f0|                                          fd   |              . |                    prefix: 0xfd (valid) 0x3fe-0x3fe.7 (1)
0x3f0|                                             0b|               .|                    v128.store: 11 (valid) 0x3ff-0x3ff.7 (1)
     |                                               |                |                    m{}: 0x400-0x401.7 (2)
0x400|04                                             |.               |                      a: 4 0x400-0x400.7 (1)
0x400|   00                                          | .              |                      o: 0 0x401-0x401.7 (1)
     |                                               |                |                  [9]{}: in 0x402-0x403.7 (2)
0x400|      20                                       |                |                    local.get: 0x20 (valid) 0x402-0x402.7 (1)
0x400|         02                                    |   .            |                    x: 2 0x403-0x403.7 (1)
     |                                               |                |                  [10]{}: in 0x404-0x404.7 (1)
0x400|            0b                                 |    .           |                    end: 0xb (valid) 0x404-0x404.7 (1)
     |                                               |                |            [1]{}: code 0x405-0x423.7 (31)
0x400|               1e                              |     .          |              size: 30 0x405-0x405.7 (1)
     |                                               |                |              code{}: 0x406-0x423.7 (30)
     |                                               |                |                t{}: 0x406-0x408.7 (3)
0x400|                  01                           |      .         |                  n: 1 0x406-0x406.7 (1)
     |                                               |                |                  x[0:1]: 0x407-0x408.7 (2)
     |                                               |                |                    [0]{}: t 0x407-0x408.7 (2)
0x400|                     01                        |       .        |                      n: 1 0x407-0x407.7 (1)
0x400|                        7e                     |        ~       |                      t: "i64" (0x7e) 0x408-0x408.7 (1)
     |                                               |                |                e[0:11]: 0x409-0x423.7 (27)
     |                                               |                |                  [0]{}: in 0x409-0x40a.7 (2)
0x400|                           20                  |                |                    local.get: 0x20 (valid) 0x409-0x409.7 (1)
0x400|                              00               |          .     |                    x: 0 0x40a-0x40a.7 (1)
     |                                               |                |                  [1]{}: in 0x40b-0x40c.7 (2)
0x400|                                 20            |                |                    local.get: 0x20 (valid) 0x40b-0x40b.7 (1)
0x400|                                    01         |            .   |                    x: 1 0x40c-0x40c.7 (1)
     |                                               |                |                  [2]{}: in 0x40d-0x411.7 (5)
0x400|                                       fd      |             .  |                    prefix: 0xfd (valid) 0x40d-0x40d.7 (1)
0x400|                                          59   |              Y |                    v128.store16_lane: 89 (valid) 0x40e-0x40e.7 (1)
     |                                               |                |                    m{}: 0x40f-0x410.7 (2)
0x400|                                             01|               .|                      a: 1 0x40f-0x40f.7 (1)
0x410|00                                             |.               |                      o: 0 0x410-0x410.7 (1)
0x410|   01                                          | .              |                    l: 1 0x411-0x411.7 (1)
     |                                               |                |                  [3]{}: in 0x412-0x413.7 (2)
0x410|      20                                       |                |                    local.get: 0x20 (valid) 0x412-0x412.7 (1)
0x410|         00                                    |   .            |                    x: 0 0x413-0x413.7 (1)
     |                                               |                |                  [4]{}: in 0x414-0x416.7 (3)
0x410|            29                                 |    )           |                    i64.load: 0x29 (valid) 0x414-0x414.7 (1)
     |                                               |                |                    m{}: 0x415-0x416.7 (2)
0x410|               03                              |     .          |                      a: 3 0x415-0x415.7 (1)
0x410|                  00                           |      .         |                      o: 0 0x416-0x416.7 (1)
     |                                               |                |                  [5]{}: in 0x417-0x418.7 (2)
0x410|                     21                        |       !        |                    local.set: 0x21 (valid) 0x417-0x417.7 (1)
0x410|                        02                     |        .       |                    x: 2 0x418-0x418.7 (1)
     |                                               |                |                  [6]{}: in 0x419-0x41a.7 (2)
0x410|                           20                  |                |                    local.get: 0x20 (valid) 0x419-0x419.7 (1)
0x410|                              00               |          .     |                    x: 0 0x41a-0x41a.7 (1)
     |                                               |                |                  [7]{}: in 0x41b-0x41c.7 (2)
0x410|                                 23            |           #    |                    global.get: 0x23 (valid) 0x41b-0x41b.7 (1)
0x410|                                    00         |            .   |                    x: 0 0x41c-0x41c.7 (1)
     |                                               |                |                  [8]{}: in 0x41d-0x420.7 (4)
0x410|                                       fd      |             .  |                    prefix: 0xfd (valid) 0x41d-0x41d.7 (1)
0x410|                                          0b   |              . |                    v128.store: 11 (valid) 0x41e-0x41e.7 (1)
     |                                               |                |                    m{}: 0x41f-0x420.7 (2)
0x410|                                             04|               .|                      a: 4 0x41f-0x41f.7 (1)
0x420|00                                             |.               |                      o: 0 0x420-0x420.7 (1)
     |                                               |                |                  [9]{}: in 0x421-0x422.7 (2)
0x420|   20                                          |                |                    local.get: 0x20 (valid) 0x421-0x421.7 (1)
0x420|      02                                       |  .             |                    x: 2 0x422-0x422.7 (1)
     |                                               |                |                  [10]{}: in 0x423-0x423.7 (1)
0x420|         0b                                    |   .            |                    end: 0xb (valid) 0x423-0x423.7 (1)
     |                                               |                |            [2]{}: code 0x424-0x442.7 (31)
0x420|            1e                                 |    .           |              size: 30 0x424-0x424.7 (1)
     |                                               |                |              code{}: 0x425-0x442.7 (30)
     |                                               |                |                t{}: 0x425-0x427.7 (3)
0x420|               01                              |     .          |                  n: 1 0x425-0x425.7 (1)
     |                                               |                |                  x[0:1]: 0x426-0x427.7 (2)
     |                                               |                |                    [0]{}: t 0x426-0x427.7 (2)
0x420|                  01                           |      .         |                      n: 1 0x426-0x426.7 (1)
0x420|                     7e                        |       ~        |                      t: "i64" (0x7e) 0x427-0x427.7 (1)
     |                                               |                |                e[0:11]: 0x428-0x442.7 (27)
     |                                               |                |                  [0]{}: in 0x428-0x429.7 (2)
0x420|                        20                     |                |                    local.get: 0x20 (valid) 0x428-0x428.7 (1)
0x420|                           00                  |         .      |                    x: 0 0x429-0x429.7 (1)
     |                                               |                |                  [1]{}: in 0x42a-0x42b.7 (2)
0x420|                              20               |                |                    local.get: 0x20 (valid) 0x42a-0x42a.7 (1)
0x420|                                 01            |           .    |                    x: 1 0x42b-0x42b.7 (1)
     |                                               |                |                  [2]{}: in 0x42c-0x430.7 (5)
0x420|                                    fd         |            .   |                    prefix: 0xfd (valid) 0x42c-0x42c.7 (1)
0x420|                                       59      |             Y  |                    v128.store16_lane: 89 (valid) 0x42d-0x42d.7 (1)
     |                                               |                |                    m{}: 0x42e-0x42f.7 (2)
0x420|                                          01   |              . |                      a: 1 0x42e-0x42e.7 (1)
0x420|                                             00|               .|                      o: 0 0x42f-0x42f.7 (1)
0x430|02                                             |.               |                    l: 2 0x430-0x430.7 (1)
     |                                               |                |                  [3]{}: in 0x431-0x432.7 (2)
0x430|   20                                          |                |                    local.get: 0x20 (valid) 0x431-0x431.7 (1)
0x430|      00                                       |  .             |                    x: 0 0x432-0x432.7 (1)
     |                                               |                |                  [4]{}: in 0x433-0x435.7 (3)
0x430|         29                                    |   )            |                    i64.load: 0x29 (valid) 0x433-0x433.7 (1)
     |                                               |                |                    m{}: 0x434-0x435.7 (2)
0x430|            03                                 |    .           |                      a: 3 0x434-0x434.7 (1)
0x430|               00                              |     .          |                      o: 0 0x435-0x435.7 (1)
     |                                               |                |                  [5]{}: in 0x436-0x437.7 (2)
0x430|                  21                           |      !         |                    local.set: 0x21 (valid) 0x436-0x436.7 (1)
0x430|                     02                        |       .        |                    x: 2 0x437-0x437.7 (1)
     |                                               |                |                  [6]{}: in 0x438-0x439.7 (2)
0x430|                        20                     |                |                    local.get: 0x20 (valid) 0x438-0x438.7 (1)
0x430|                           00                  |         .      |                    x: 0 0x439-0x439.7 (1)
     |                                               |                |                  [7]{}: in 0x43a-0x43b.7 (2)
0x430|                              23               |          #     |                    global.get: 0x23 (valid) 0x43a-0x43a.7 (1)
0x430|                                 00            |           .    |                    x: 0 0x43b-0x43b.7 (1)
     |                                               |                |                  [8]{}: in 0x43c-0x43f.7 (4)
0x430|                                    fd         |            .   |                    prefix: 0xfd (valid) 0x43c-0x43c.7 (1)
0x430|                                       0b      |             .  |                    v128.store: 11 (valid) 0x43d-0x43d.7 (1)
     |                                               |                |                    m{}: 0x43e-0x43f.7 (2)
0x430|                                          04   |              . |                      a: 4 0x43e-0x43e.7 (1)
0x430|                                             00|               .|                      o: 0 0x43f-0x43f.7 (1)
     |                                               |                |                  [9]{}: in 0x440-0x441.7 (2)
0x440|20                                             |                |                    local.get: 0x20 (valid) 0x440-0x440.7 (1)
0x440|   02                                          | .              |                    x: 2 0x441-0x441.7 (1)
     |                                               |                |                  [10]{}: in 0x442-0x442.7 (1)
0x440|      0b                                       |  .             |                    end: 0xb (valid) 0x442-0x442.7 (1)
     |                                               |                |            [3]{}: code 0x443-0x461.7 (31)
0x440|         1e                                    |   .            |              size: 30 0x443-0x443.7 (1)
     |                                               |                |              code{}: 0x444-0x461.7 (30)
     |                                               |                |                t{}: 0x444-0x446.7 (3)
0x440|            01                                 |    .           |                  n: 1 0x444-0x444.7 (1)
     |                                               |                |                  x[0:1]: 0x445-0x446.7 (2)
     |                                               |                |                    [0]{}: t 0x445-0x446.7 (2)
0x440|               01                              |     .          |                      n: 1 0x445-0x445.7 (1)
0x440|                  7e                           |      ~         |                      t: "i64" (0x7e) 0x446-0x446.7 (1)
     |                                               |                |                e[0:11]: 0x447-0x461.7 (27)
     |                                               |                |                  [0]{}: in 0x447-0x448.7 (2)
0x440|                     20                        |                |                    local.get: 0x20 (valid) 0x447-0x447.7 (1)
0x440|                        00                     |        .       |                    x: 0 0x448-0x448.7 (1)
     |                                               |                |                  [1]{}: in 0x449-0x44a.7 (2)
0x440|                           20                  |                |                    local.get: 0x20 (valid) 0x449-0x449.7 (1)
0x440|                              01               |          .     |                    x: 1 0x44a-0x44a.7 (1)
     |                                               |                |                  [2]{}: in 0x44b-0x44f.7 (5)
0x440|                                 fd            |           .    |                    prefix: 0xfd (valid) 0x44b-0x44b.7 (1)
0x440|                                    59         |            Y   |                    v128.store16_lane: 89 (valid) 0x44c-0x44c.7 (1)
     |                                               |                |                    m{}: 0x44d-0x44e.7 (2)
0x440|                                       01      |             .  |                      a: 1 0x44d-0x44d.7 (1)
0x440|                                          00   |              . |                      o: 0 0x44e-0x44e.7 (1)
0x440|                                             03|               .|                    l: 3 0x44f-0x44f.7 (1)
     |                                               |                |                  [3]{}: in 0x450-0x451.7 (2)
0x450|20                                             |                |                    local.get: 0x20 (valid) 0x450-0x450.7 (1)
0x450|   00                                          | .              |                    x: 0 0x451-0x451.7 (1)
     |                                               |                |                  [4]{}: in 0x452-0x454.7 (3)
0x450|      29                                       |  )             |                    i64.load: 0x29 (valid) 0x452-0x452.7 (1)
     |                                               |                |                    m{}: 0x453-0x454.7 (2)
0x450|         03                                    |   .            |                      a: 3 0x453-0x453.7 (1)
0x450|            00                                 |    .           |                      o: 0 0x454-0x454.7 (1)
     |                                               |                |                  [5]{}: in 0x455-0x456.7 (2)
0x450|               21                              |     !          |                    local.set: 0x21 (valid) 0x455-0x455.7 (1)
0x450|                  02                           |      .         |                    x: 2 0x456-0x456.7 (1)
     |                                               |                |                  [6]{}: in 0x457-0x458.7 (2)
0x450|                     20                        |                |                    local.get: 0x20 (valid) 0x457-0x457.7 (1)
0x450|                        00                     |        .       |                    x: 0 0x458-0x458.7 (1)
     |                                               |                |                  [7]{}: in 0x459-0x45a.7 (2)
0x450|                           23                  |         #      |                    global.get: 0x23 (valid) 0x459-0x459.7 (1)
0x450|                              00               |          .     |                    x: 0 0x45a-0x45a.7 (1)
     |                                               |                |                  [8]{}: in 0x45b-0x45e.7 (4)
0x450|                                 fd            |           .    |                    prefix: 0xfd (valid) 0x45b-0x45b.7 (1)
0x450|                                    0b         |            .   |                    v128.store: 11 (valid) 0x45c-0x45c.7 (1)
     |                                               |                |                    m{}: 0x45d-0x45e.7 (2)
0x450|                                       04      |             .  |                      a: 4 0x45d-0x45d.7 (1)
0x450|                                          00   |              . |                      o: 0 0x45e-0x45e.7 (1)
     |                                               |                |                  [9]{}: in 0x45f-0x460.7 (2)
0x450|                                             20|                |                    local.get: 0x20 (valid) 0x45f-0x45f.7 (1)
0x460|02                                             |.               |                    x: 2 0x460-0x460.7 (1)
     |                                               |                |                  [10]{}: in 0x461-0x461.7 (1)
0x460|   0b                                          | .              |                    end: 0xb (valid) 0x461-0x461.7 (1)
     |                                               |                |            [4]{}: code 0x462-0x480.7 (31)
0x460|      1e                                       |  .             |              size: 30 0x462-0x462.7 (1)
     |                                               |                |              code{}: 0x463-0x480.7 (30)
     |                                               |                |                t{}: 0x463-0x465.7 (3)
0x460|         01                                    |   .            |                  n: 1 0x463-0x463.7 (1)
     |                                               |                |                  x[0:1]: 0x464-0x465.7 (2)
     |                                               |                |                    [0]{}: t 0x464-0x465.7 (2)
0x460|            01                                 |    .           |                      n: 1 0x464-0x464.7 (1)
0x460|               7e                              |     ~          |                      t: "i64" (0x7e) 0x465-0x465.7 (1)
     |                                               |                |                e[0:11]: 0x466-0x480.7 (27)
     |                                               |                |                  [0]{}: in 0x466-0x467.7 (2)
0x460|                  20                           |                |                    local.get: 0x20 (valid) 0x466-0x466.7 (1)
0x460|                     00                        |       .        |                    x: 0 0x467-0x467.7 (1)
     |                                               |                |                  [1]{}: in 0x468-0x469.7 (2)
0x460|                        20                     |                |                    local.get: 0x20 (valid) 0x468-0x468.7 (1)
0x460|                           01                  |         .      |                    x: 1 0x469-0x469.7 (1)
     |                                               |                |                  [2]{}: in 0x46a-0x46e.7 (5)
0x460|                              fd               |          .     |                    prefix: 0xfd (valid) 0x46a-0x46a.7 (1)
0x460|                                 59            |           Y    |                    v128.store16_lane: 89 (valid) 0x46b-0x46b.7 (1)
     |                                               |                |                    m{}: 0x46c-0x46d.7 (2)
0x460|                                    01         |            .   |                      a: 1 0x46c-0x46c.7 (1)
0x460|                                       00      |             .  |                      o: 0 0x46d-0x46d.7 (1)
0x460|                                          04   |              . |                    l: 4 0x46e-0x46e.7 (1)
     |                                               |                |                  [3]{}: in 0x46f-0x470.7 (2)
0x460|                                             20|                |                    local.get: 0x20 (valid) 0x46f-0x46f.7 (1)
0x470|00                                             |.               |                    x: 0 0x470-0x470.7 (1)
     |                                               |                |                  [4]{}: in 0x471-0x473.7 (3)
0x470|   29                                          | )              |                    i64.load: 0x29 (valid) 0x471-0x471.7 (1)
     |                                               |                |                    m{}: 0x472-0x473.7 (2)
0x470|      03                                       |  .             |                      a: 3 0x472-0x472.7 (1)
0x470|         00                                    |   .            |                      o: 0 0x473-0x473.7 (1)
     |                                               |                |                  [5]{}: in 0x474-0x475.7 (2)
0x470|            21                                 |    !           |                    local.set: 0x21 (valid) 0x474-0x474.7 (1)
0x470|               02                              |     .          |                    x: 2 0x475-0x475.7 (1)
     |                                               |                |                  [6]{}: in 0x476-0x477.7 (2)
0x470|                  20                           |                |                    local.get: 0x20 (valid) 0x476-0x476.7 (1)
0x470|                     00                        |       .        |                    x: 0 0x477-0x477.7 (1)
     |                                               |                |                  [7]{}: in 0x478-0x479.7 (2)
0x470|                        23                     |        #       |                    global.get: 0x23 (valid) 0x478-0x478.7 (1)
0x470|                           00                  |         .      |                    x: 0 0x479-0x479.7 (1)
     |                                               |                |                  [8]{}: in 0x47a-0x47d.7 (4)
0x470|                              fd               |          .     |                    prefix: 0xfd (valid) 0x47a-0x47a.7 (1)
0x470|                                 0b            |           .    |                    v128.store: 11 (valid) 0x47b-0x47b.7 (1)
     |                                               |                |                    m{}: 0x47c-0x47d.7 (2)
0x470|                                    04         |            .   |                      a: 4 0x47c-0x47c.7 (1)
0x470|                                       00      |             .  |                      o: 0 0x47d-0x47d.7 (1)
     |                                               |                |                  [9]{}: in 0x47e-0x47f.7 (2)
0x470|                                          20   |                |                    local.get: 0x20 (valid) 0x47e-0x47e.7 (1)
0x470|                                             02|               .|                    x: 2 0x47f-0x47f.7 (1)
     |                                               |                |                  [10]{}: in 0x480-0x480.7 (1)
0x480|0b                                             |.               |                    end: 0xb (valid) 0x480-0x480.7 (1)
     |                                               |                |            [5]{}: code 0x481-0x49f.7 (31)
0x480|   1e                                          | .              |              size: 30 0x481-0x481.7 (1)
     |                                               |                |              code{}: 0x482-0x49f.7 (30)
     |                                               |                |                t{}: 0x482-0x484.7 (3)
0x480|      01                                       |  .             |                  n: 1 0x482-0x482.7 (1)
     |                                               |                |                  x[0:1]: 0x483-0x484.7 (2)
     |                                               |                |                    [0]{}: t 0x483-0x484.7 (2)
0x480|         01                                    |   .            |                      n: 1 0x483-0x483.7 (1)
0x480|            7e                                 |    ~           |                      t: "i64" (0x7e) 0x484-0x484.7 (1)
     |                                               |                |                e[0:11]: 0x485-0x49f.7 (27)
     |                                               |                |                  [0]{}: in 0x485-0x486.7 (2)
0x480|               20                              |                |                    local.get: 0x20 (valid) 0x485-0x485.7 (1)
0x480|                  00                           |      .         |                    x: 0 0x486-0x486.7 (1)
     |                                               |                |                  [1]{}: in 0x487-0x488.7 (2)
0x480|                     20                        |                |                    local.get: 0x20 (valid) 0x487-0x487.7 (1)
0x480|                        01                     |        .       |                    x: 1 0x488-0x488.7 (1)
     |                                               |                |                  [2]{}: in 0x489-0x48d.7 (5)
0x480|                           fd                  |         .      |                    prefix: 0xfd (valid) 0x489-0x489.7 (1)
0x480|                              59               |          Y     |                    v128.store16_lane: 89 (valid) 0x48a-0x48a.7 (1)
     |                                               |                |                    m{}: 0x48b-0x48c.7 (2)
0x480|                                 01            |           .    |                      a: 1 0x48b-0x48b.7 (1)
0x480|                                    00         |            .   |                      o: 0 0x48c-0x48c.7 (1)
0x480|                                       05      |             .  |                    l: 5 0x48d-0x48d.7 (1)
     |                                               |                |                  [3]{}: in 0x48e-0x48f.7 (2)
0x480|                                          20   |                |                    local.get: 0x20 (valid) 0x48e-0x48e.7 (1)
0x480|                                             00|               .|                    x: 0 0x48f-0x48f.7 (1)
     |                                               |                |                  [4]{}: in 0x490-0x492.7 (3)
0x490|29                                             |)               |                    i64.load: 0x29 (valid) 0x490-0x490.7 (1)
     |                                               |                |                    m{}: 0x491-0x492.7 (2)
0x490|   03                                          | .              |                      a: 3 0x491-0x491.7 (1)
0x490|      00                                       |  .             |                      o: 0 0x492-0x492.7 (1)
     |                                               |                |                  [5]{}: in 0x493-0x494.7 (2)
0x490|         21                                    |   !            |                    local.set: 0x21 (valid) 0x493-0x493.7 (1)
0x490|            02                                 |    .           |                    x: 2 0x494-0x494.7 (1)
     |                                               |                |                  [6]{}: in 0x495-0x496.7 (2)
0x490|               20                              |                |                    local.get: 0x20 (valid) 0x495-0x495.7 (1)
0x490|                  00                           |      .         |                    x: 0 0x496-0x496.7 (1)
     |                                               |                |                  [7]{}: in 0x497-0x498.7 (2)
0x490|                     23                        |       #        |                    global.get: 0x23 (valid) 0x497-0x497.7 (1)
0x490|                        00                     |        .       |                    x: 0 0x498-0x498.7 (1)
     |                                               |                |                  [8]{}: in 0x499-0x49c.7 (4)
0x490|                           fd                  |         .      |                    prefix: 0xfd (valid) 0x499-0x499.7 (1)
0x490|                              0b               |          .     |                    v128.store: 11 (valid) 0x49a-0x49a.7 (1)
     |                                               |                |                    m{}: 0x49b-0x49c.7 (2)
0x490|                                 04            |           .    |                      a: 4 0x49b-0x49b.7 (1)
0x490|                                    00         |            .   |                      o: 0 0x49c-0x49c.7 (1)
     |                                               |                |                  [9]{}: in 0x49d-0x49e.7 (2)
0x490|                                       20      |                |                    local.get: 0x20 (valid) 0x49d-0x49d.7 (1)
0x490|                                          02   |              . |                    x: 2 0x49e-0x49e.7 (1)
     |                                               |                |                  [10]{}: in 0x49f-0x49f.7 (1)
0x490|                                             0b|               .|                    end: 0xb (valid) 0x49f-0x49f.7 (1)
     |                                               |                |            [6]{}: code 0x4a0-0x4be.7 (31)
0x4a0|1e                                             |.               |              size: 30 0x4a0-0x4a0.7 (1)
     |                                               |                |              code{}: 0x4a1-0x4be.7 (30)
     |                                               |                |                t{}: 0x4a1-0x4a3.7 (3)
0x4a0|   01                                          | .              |                  n: 1 0x4a1-0x4a1.7 (1)
     |                                               |                |                  x[0:1]: 0x4a2-0x4a3.7 (2)
     |                                               |                |                    [0]{}: t 0x4a2-0x4a3.7 (2)
0x4a0|      01                                       |  .             |                      n: 1 0x4a2-0x4a2.7 (1)
0x4a0|         7e                                    |   ~            |                      t: "i64" (0x7e) 0x4a3-0x4a3.7 (1)
     |                                               |                |                e[0:11]: 0x4a4-0x4be.7 (27)
     |                                               |                |                  [0]{}: in 0x4a4-0x4a5.7 (2)
0x4a0|            20                                 |                |                    local.get: 0x20 (valid) 0x4a4-0x4a4.7 (1)
0x4a0|               00                              |     .          |                    x: 0 0x4a5-0x4a5.7 (1)
     |                                               |                |                  [1]{}: in 0x4a6-0x4a7.7 (2)
0x4a0|                  20                           |                |                    local.get: 0x20 (valid) 0x4a6-0x4a6.7 (1)
0x4a0|                     01                        |       .        |                    x: 1 0x4a7-0x4a7.7 (1)
     |                                               |                |                  [2]{}: in 0x4a8-0x4ac.7 (5)
0x4a0|                        fd                     |        .       |                    prefix: 0xfd (valid) 0x4a8-0x4a8.7 (1)
0x4a0|                           59                  |         Y      |                    v128.store16_lane: 89 (valid) 0x4a9-0x4a9.7 (1)
     |                                               |                |                    m{}: 0x4aa-0x4ab.7 (2)
0x4a0|                              01               |          .     |                      a: 1 0x4aa-0x4aa.7 (1)
0x4a0|                                 00            |           .    |                      o: 0 0x4ab-0x4ab.7 (1)
0x4a0|                                    06         |            .   |                    l: 6 0x4ac-0x4ac.7 (1)
     |                                               |                |                  [3]{}: in 0x4ad-0x4ae.7 (2)
0x4a0|                                       20      |                |                    local.get: 0x20 (valid) 0x4ad-0x4ad.7 (1)
0x4a0|                                          00   |              . |                    x: 0 0x4ae-0x4ae.7 (1)
     |                                               |                |                  [4]{}: in 0x4af-0x4b1.7 (3)
0x4a0|                                             29|               )|                    i64.load: 0x29 (valid) 0x4af-0x4af.7 (1)
     |                                               |                |                    m{}: 0x4b0-0x4b1.7 (2)
0x4b0|03                                             |.               |                      a: 3 0x4b0-0x4b0.7 (1)
0x4b0|   00                                          | .              |                      o: 0 0x4b1-0x4b1.7 (1)
     |                                               |                |                  [5]{}: in 0x4b2-0x4b3.7 (2)
0x4b0|      21                                       |  !             |                    local.set: 0x21 (valid) 0x4b2-0x4b2.7 (1)
0x4b0|         02                                    |   .            |                    x: 2 0x4b3-0x4b3.7 (1)
     |                                               |                |                  [6]{}: in 0x4b4-0x4b5.7 (2)
0x4b0|            20                                 |                |                    local.get: 0x20 (valid) 0x4b4-0x4b4.7 (1)
0x4b0|               00                              |     .          |                    x: 0 0x4b5-0x4b5.7 (1)
     |                                               |                |                  [7]{}: in 0x4b6-0x4b7.7 (2)
0x4b0|                  23                           |      #         |                    global.get: 0x23 (valid) 0x4b6-0x4b6.7 (1)
0x4b0|                     00                        |       .        |                    x: 0 0x4b7-0x4b7.7 (1)
     |                                               |                |                  [8]{}: in 0x4b8-0x4bb.7 (4)
0x4b0|                        fd                     |        .       |                    prefix: 0xfd (valid) 0x4b8-0x4b8.7 (1)
0x4b0|                           0b                  |         .      |                    v128.store: 11 (valid) 0x4b9-0x4b9.7 (1)
     |                                               |                |                    m{}: 0x4ba-0x4bb.7 (2)
0x4b0|                              04               |          .     |                      a: 4 0x4ba-0x4ba.7 (1)
0x4b0|                                 00            |           .    |                      o: 0 0x4bb-0x4bb.7 (1)
     |                                               |                |                  [9]{}: in 0x4bc-0x4bd.7 (2)
0x4b0|                                    20         |                |                    local.get: 0x20 (valid) 0x4bc-0x4bc.7 (1)
0x4b0|                                       02      |             .  |                    x: 2 0x4bd-0x4bd.7 (1)
     |                                               |                |                  [10]{}: in 0x4be-0x4be.7 (1)
0x4b0|                                          0b   |              . |                    end: 0xb (valid) 0x4be-0x4be.7 (1)
     |                                               |                |            [7]{}: code 0x4bf-0x4dd.7 (31)
0x4b0|                                             1e|               .|              size: 30 0x4bf-0x4bf.7 (1)
     |                                               |                |              code{}: 0x4c0-0x4dd.7 (30)
     |                                               |                |                t{}: 0x4c0-0x4c2.7 (3)
0x4c0|01                                             |.               |                  n: 1 0x4c0-0x4c0.7 (1)
     |                                               |                |                  x[0:1]: 0x4c1-0x4c2.7 (2)
     |                                               |                |                    [0]{}: t 0x4c1-0x4c2.7 (2)
0x4c0|   01                                          | .              |                      n: 1 0x4c1-0x4c1.7 (1)
0x4c0|      7e                                       |  ~             |                      t: "i64" (0x7e) 0x4c2-0x4c2.7 (1)
     |                                               |                |                e[0:11]: 0x4c3-0x4dd.7 (27)
     |                                               |                |                  [0]{}: in 0x4c3-0x4c4.7 (2)
0x4c0|         20                                    |                |                    local.get: 0x20 (valid) 0x4c3-0x4c3.7 (1)
0x4c0|            00                                 |    .           |                    x: 0 0x4c4-0x4c4.7 (1)
     |                                               |                |                  [1]{}: in 0x4c5-0x4c6.7 (2)
0x4c0|               20                              |                |                    local.get: 0x20 (valid) 0x4c5-0x4c5.7 (1)
0x4c0|                  01                           |      .         |                    x: 1 0x4c6-0x4c6.7 (1)
     |                                               |                |                  [2]{}: in 0x4c7-0x4cb.7 (5)
0x4c0|                     fd                        |       .        |                    prefix: 0xfd (valid) 0x4c7-0x4c7.7 (1)
0x4c0|                        59                     |        Y       |                    v128.store16_lane: 89 (valid) 0x4c8-0x4c8.7 (1)
     |                                               |                |                    m{}: 0x4c9-0x4ca.7 (2)
0x4c0|                           01                  |         .      |                      a: 1 0x4c9-0x4c9.7 (1)
0x4c0|                              00               |          .     |                      o: 0 0x4ca-0x4ca.7 (1)
0x4c0|                                 07            |           .    |                    l: 7 0x4cb-0x4cb.7 (1)
     |                                               |                |                  [3]{}: in 0x4cc-0x4cd.7 (2)
0x4c0|                                    20         |                |                    local.get: 0x20 (valid) 0x4cc-0x4cc.7 (1)
0x4c0|                                       00      |             .  |                    x: 0 0x4cd-0x4cd.7 (1)
     |                                               |                |                  [4]{}: in 0x4ce-0x4d0.7 (3)
0x4c0|                                          29   |              ) |                    i64.load: 0x29 (valid) 0x4ce-0x4ce.7 (1)
     |                                               |                |                    m{}: 0x4cf-0x4d0.7 (2)
0x4c0|                                             03|               .|                      a: 3 0x4cf-0x4cf.7 (1)
0x4d0|00                                             |.               |                      o: 0 0x4d0-0x4d0.7 (1)
     |                                               |                |                  [5]{}: in 0x4d1-0x4d2.7 (2)
0x4d0|   21                                          | !              |                    local.set: 0x21 (valid) 0x4d1-0x4d1.7 (1)
0x4d0|      02                                       |  .             |                    x: 2 0x4d2-0x4d2.7 (1)
     |                                               |                |                  [6]{}: in 0x4d3-0x4d4.7 (2)
0x4d0|         20                                    |                |                    local.get: 0x20 (valid) 0x4d3-0x4d3.7 (1)
0x4d0|            00                                 |    .           |                    x: 0 0x4d4-0x4d4.7 (1)
     |                                               |                |                  [7]{}: in 0x4d5-0x4d6.7 (2)
0x4d0|               23                              |     #          |                    global.get: 0x23 (valid) 0x4d5-0x4d5.7 (1)
0x4d0|                  00                           |      .         |                    x: 0 0x4d6-0x4d6.7 (1)
     |                                               |                |                  [8]{}: in 0x4d7-0x4da.7 (4)
0x4d0|                     fd                        |       .        |                    prefix: 0xfd (valid) 0x4d7-0x4d7.7 (1)
0x4d0|                        0b                     |        .       |                    v128.store: 11 (valid) 0x4d8-0x4d8.7 (1)
     |                                               |                |                    m{}: 0x4d9-0x4da.7 (2)
0x4d0|                           04                  |         .      |                      a: 4 0x4d9-0x4d9.7 (1)
0x4d0|                              00               |          .     |                      o: 0 0x4da-0x4da.7 (1)
     |                                               |                |                  [9]{}: in 0x4db-0x4dc.7 (2)
0x4d0|                                 20            |                |                    local.get: 0x20 (valid) 0x4db-0x4db.7 (1)
0x4d0|                                    02         |            .   |                    x: 2 0x4dc-0x4dc.7 (1)
     |                                               |                |                  [10]{}: in 0x4dd-0x4dd.7 (1)
0x4d0|                                       0b      |             .  |                    end: 0xb (valid) 0x4dd-0x4dd.7 (1)
     |                                               |                |            [8]{}: code 0x4de-0x4fc.7 (31)
0x4d0|                                          1e   |              . |              size: 30 0x4de-0x4de.7 (1)
     |                                               |                |              code{}: 0x4df-0x4fc.7 (30)
     |                                               |                |                t{}: 0x4df-0x4e1.7 (3)
0x4d0|                                             01|               .|                  n: 1 0x4df-0x4df.7 (1)
     |                                               |                |                  x[0:1]: 0x4e0-0x4e1.7 (2)
     |                                               |                |                    [0]{}: t 0x4e0-0x4e1.7 (2)
0x4e0|01                                             |.               |                      n: 1 0x4e0-0x4e0.7 (1)
0x4e0|   7e                                          | ~              |                      t: "i64" (0x7e) 0x4e1-0x4e1.7 (1)
     |                                               |                |                e[0:11]: 0x4e2-0x4fc.7 (27)
     |                                               |                |                  [0]{}: in 0x4e2-0x4e3.7 (2)
0x4e0|      41                                       |  A             |                    i32.const: 0x41 (valid) 0x4e2-0x4e2.7 (1)
0x4e0|         00                                    |   .            |                    n: 0 0x4e3-0x4e3.7 (1)
     |                                               |                |                  [1]{}: in 0x4e4-0x4e5.7 (2)
0x4e0|            20                                 |                |                    local.get: 0x20 (valid) 0x4e4-0x4e4.7 (1)
0x4e0|               00                              |     .          |                    x: 0 0x4e5-0x4e5.7 (1)
     |                                               |                |                  [2]{}: in 0x4e6-0x4ea.7 (5)
0x4e0|                  fd                           |      .         |                    prefix: 0xfd (valid) 0x4e6-0x4e6.7 (1)
0x4e0|                     59                        |       Y        |                    v128.store16_lane: 89 (valid) 0x4e7-0x4e7.7 (1)
     |                                               |                |                    m{}: 0x4e8-0x4e9.7 (2)
0x4e0|                        01                     |        .       |                      a: 1 0x4e8-0x4e8.7 (1)
0x4e0|                           00                  |         .      |                      o: 0 0x4e9-0x4e9.7 (1)
0x4e0|                              00               |          .     |                    l: 0 0x4ea-0x4ea.7 (1)
     |                                               |                |                  [3]{}: in 0x4eb-0x4ec.7 (2)
0x4e0|                                 41            |           A    |                    i32.const: 0x41 (valid) 0x4eb-0x4eb.7 (1)
0x4e0|                                    00         |            .   |                    n: 0 0x4ec-0x4ec.7 (1)
     |                                               |                |                  [4]{}: in 0x4ed-0x4ef.7 (3)
0x4e0|                                       29      |             )  |                    i64.load: 0x29 (valid) 0x4ed-0x4ed.7 (1)
     |                                               |                |                    m{}: 0x4ee-0x4ef.7 (2)
0x4e0|                                          03   |              . |                      a: 3 0x4ee-0x4ee.7 (1)
0x4e0|                                             00|               .|                      o: 0 0x4ef-0x4ef.7 (1)
     |                                               |                |                  [5]{}: in 0x4f0-0x4f1.7 (2)
0x4f0|21                                             |!               |                    local.set: 0x21 (valid) 0x4f0-0x4f0.7 (1)
0x4f0|   01                                          | .              |                    x: 1 0x4f1-0x4f1.7 (1)
     |                                               |                |                  [6]{}: in 0x4f2-0x4f3.7 (2)
0x4f0|      41                                       |  A             |                    i32.const: 0x41 (valid) 0x4f2-0x4f2.7 (1)
0x4f0|         00                                    |   .            |                    n: 0 0x4f3-0x4f3.7 (1)
     |                                               |                |                  [7]{}: in 0x4f4-0x4f5.7 (2)
0x4f0|            23                                 |    #           |                    global.get: 0x23 (valid) 0x4f4-0x4f4.7 (1)
0x4f0|               00                              |     .          |                    x: 0 0x4f5-0x4f5.7 (1)
     |                                               |                |                  [8]{}: in 0x4f6-0x4f9.7 (4)
0x4f0|                  fd                           |      .         |                    prefix: 0xfd (valid) 0x4f6-0x4f6.7 (1)
0x4f0|                     0b                        |       .        |                    v128.store: 11 (valid) 0x4f7-0x4f7.7 (1)
     |                                               |                |                    m{}: 0x4f8-0x4f9.7 (2)
0x4f0|                        04                     |        .       |                      a: 4 0x4f8-0x4f8.7 (1)
0x4f0|                           00                  |         .      |                      o: 0 0x4f9-0x4f9.7 (1)
     |                                               |                |                  [9]{}: in 0x4fa-0x4fb.7 (2)
0x4f0|                              20               |                |                    local.get: 0x20 (valid) 0x4fa-0x4fa.7 (1)
0x4f0|                                 01            |           .    |                    x: 1 0x4fb-0x4fb.7 (1)
     |                                               |                |                  [10]{}: in 0x4fc-0x4fc.7 (1)
0x4f0|                                    0b         |            .   |                    end: 0xb (valid) 0x4fc-0x4fc.7 (1)
     |                                               |                |            [9]{}: code 0x4fd-0x51b.7 (31)
0x4f0|                                       1e      |             .  |              size: 30 0x4fd-0x4fd.7 (1)
     |                                               |                |              code{}: 0x4fe-0x51b.7 (30)
     |                                               |                |                t{}: 0x4fe-0x500.7 (3)
0x4f0|                                          01   |              . |                  n: 1 0x4fe-0x4fe.7 (1)
     |                                               |                |                  x[0:1]: 0x4ff-0x500.7 (2)
     |                                               |                |                    [0]{}: t 0x4ff-0x500.7 (2)
0x4f0|                                             01|               .|                      n: 1 0x4ff-0x4ff.7 (1)
0x500|7e                                             |~               |                      t: "i64" (0x7e) 0x500-0x500.7 (1)
     |                                               |                |                e[0:11]: 0x501-0x51b.7 (27)
     |                                               |                |                  [0]{}: in 0x501-0x502.7 (2)
0x500|   41                                          | A              |                    i32.const: 0x41 (valid) 0x501-0x501.7 (1)
0x500|      00                                       |  .             |                    n: 0 0x502-0x502.7 (1)
     |                                               |                |                  [1]{}: in 0x503-0x504.7 (2)
0x500|         20                                    |                |                    local.get: 0x20 (valid) 0x503-0x503.7 (1)
0x500|            00                                 |    .           |                    x: 0 0x504-0x504.7 (1)
     |                                               |                |                  [2]{}: in 0x505-0x509.7 (5)
0x500|               fd                              |     .          |                    prefix: 0xfd (valid) 0x505-0x505.7 (1)
0x500|                  59                           |      Y         |                    v128.store16_lane: 89 (valid) 0x506-0x506.7 (1)
     |                                               |                |                    m{}: 0x507-0x508.7 (2)
0x500|                     01                        |       .        |                      a: 1 0x507-0x507.7 (1)
0x500|                        01                     |        .       |                      o: 1 0x508-0x508.7 (1)
0x500|                           01                  |         .      |                    l: 1 0x509-0x509.7 (1)
     |                                               |                |                  [3]{}: in 0x50a-0x50b.7 (2)
0x500|                              41               |          A     |                    i32.const: 0x41 (valid) 0x50a-0x50a.7 (1)
0x500|                                 00            |           .    |                    n: 0 0x50b-0x50b.7 (1)
     |                                               |                |                  [4]{}: in 0x50c-0x50e.7 (3)
0x500|                                    29         |            )   |                    i64.load: 0x29 (valid) 0x50c-0x50c.7 (1)
     |                                               |                |                    m{}: 0x50d-0x50e.7 (2)
0x500|                                       03      |             .  |                      a: 3 0x50d-0x50d.7 (1)
0x500|                                          01   |              . |                      o: 1 0x50e-0x50e.7 (1)
     |                                               |                |                  [5]{}: in 0x50f-0x510.7 (2)
0x500|                                             21|               !|                    local.set: 0x21 (valid) 0x50f-0x50f.7 (1)
0x510|01                                             |.               |                    x: 1 0x510-0x510.7 (1)
     |                                               |                |                  [6]{}: in 0x511-0x512.7 (2)
0x510|   41                                          | A              |                    i32.const: 0x41 (valid) 0x511-0x511.7 (1)
0x510|      00                                       |  .             |                    n: 0 0x512-0x512.7 (1)
     |                                               |                |                  [7]{}: in 0x513-0x514.7 (2)
0x510|         23                                    |   #            |                    global.get: 0x23 (valid) 0x513-0x513.7 (1)
0x510|            00                                 |    .           |                    x: 0 0x514-0x514.7 (1)
     |                                               |                |                  [8]{}: in 0x515-0x518.7 (4)
0x510|               fd                              |     .          |                    prefix: 0xfd (valid) 0x515-0x515.7 (1)
0x510|                  0b                           |      .         |                    v128.store: 11 (valid) 0x516-0x516.7 (1)
     |                                               |                |                    m{}: 0x517-0x518.7 (2)
0x510|                     04                        |       .        |                      a: 4 0x517-0x517.7 (1)
0x510|                        01                     |        .       |                      o: 1 0x518-0x518.7 (1)
     |                                               |                |                  [9]{}: in 0x519-0x51a.7 (2)
0x510|                           20                  |                |                    local.get: 0x20 (valid) 0x519-0x519.7 (1)
0x510|                              01               |          .     |                    x: 1 0x51a-0x51a.7 (1)
     |                                               |                |                  [10]{}: in 0x51b-0x51b.7 (1)
0x510|                                 0b            |           .    |                    end: 0xb (valid) 0x51b-0x51b.7 (1)
     |                                               |                |            [10]{}: code 0x51c-0x53a.7 (31)
0x510|                                    1e         |            .   |              size: 30 0x51c-0x51c.7 (1)
     |                                               |                |              code{}: 0x51d-0x53a.7 (30)
     |                                               |                |                t{}: 0x51d-0x51f.7 (3)
0x510|                                       01      |             .  |                  n: 1 0x51d-0x51d.7 (1)
     |                                               |                |                  x[0:1]: 0x51e-0x51f.7 (2)
     |                                               |                |                    [0]{}: t 0x51e-0x51f.7 (2)
0x510|                                          01   |              . |                      n: 1 0x51e-0x51e.7 (1)
0x510|                                             7e|               ~|                      t: "i64" (0x7e) 0x51f-0x51f.7 (1)
     |                                               |                |                e[0:11]: 0x520-0x53a.7 (27)
     |                                               |                |                  [0]{}: in 0x520-0x521.7 (2)
0x520|41                                             |A               |                    i32.const: 0x41 (valid) 0x520-0x520.7 (1)
0x520|   00                                          | .              |                    n: 0 0x521-0x521.7 (1)
     |                                               |                |                  [1]{}: in 0x522-0x523.7 (2)
0x520|      20                                       |                |                    local.get: 0x20 (valid) 0x522-0x522.7 (1)
0x520|         00                                    |   .            |                    x: 0 0x523-0x523.7 (1)
     |                                               |                |                  [2]{}: in 0x524-0x528.7 (5)
0x520|            fd                                 |    .           |                    prefix: 0xfd (valid) 0x524-0x524.7 (1)
0x520|               59                              |     Y          |                    v128.store16_lane: 89 (valid) 0x525-0x525.7 (1)
     |                                               |                |                    m{}: 0x526-0x527.7 (2)
0x520|                  01                           |      .         |                      a: 1 0x526-0x526.7 (1)
0x520|                     02                        |       .        |                      o: 2 0x527-0x527.7 (1)
0x520|                        02                     |        .       |                    l: 2 0x528-0x528.7 (1)
     |                                               |                |                  [3]{}: in 0x529-0x52a.7 (2)
0x520|                           41                  |         A      |                    i32.const: 0x41 (valid) 0x529-0x529.7 (1)
0x520|                              00               |          .     |                    n: 0 0x52a-0x52a.7 (1)
     |                                               |                |                  [4]{}: in 0x52b-0x52d.7 (3)
0x520|                                 29            |           )    |                    i64.load: 0x29 (valid) 0x52b-0x52b.7 (1)
     |                                               |                |                    m{}: 0x52c-0x52d.7 (2)
0x520|                                    03         |            .   |                      a: 3 0x52c-0x52c.7 (1)
0x520|                                       02      |             .  |                      o: 2 0x52d-0x52d.7 (1)
     |                                               |                |                  [5]{}: in 0x52e-0x52f.7 (2)
0x520|                                          21   |              ! |                    local.set: 0x21 (valid) 0x52e-0x52e.7 (1)
0x520|                                             01|               .|                    x: 1 0x52f-0x52f.7 (1)
     |                                               |                |                  [6]{}: in 0x530-0x531.7 (2)
0x530|41                                             |A               |                    i32.const: 0x41 (valid) 0x530-0x530.7 (1)
0x530|   00                                          | .              |                    n: 0 0x531-0x531.7 (1)
     |                                               |                |                  [7]{}: in 0x532-0x533.7 (2)
0x530|      23                                       |  #             |                    global.get: 0x23 (valid) 0x532-0x532.7 (1)
0x530|         00                                    |   .            |                    x: 0 0x533-0x533.7 (1)
     |                                               |                |                  [8]{}: in 0x534-0x537.7 (4)
0x530|            fd                                 |    .           |                    prefix: 0xfd (valid) 0x534-0x534.7 (1)
0x530|               0b                              |     .          |                    v128.store: 11 (valid) 0x535-0x535.7 (1)
     |                                               |                |                    m{}: 0x536-0x537.7 (2)
0x530|                  04                           |      .         |                      a: 4 0x536-0x536.7 (1)
0x530|                     02                        |       .        |                      o: 2 0x537-0x537.7 (1)
     |                                               |                |                  [9]{}: in 0x538-0x539.7 (2)
0x530|                        20                     |                |                    local.get: 0x20 (valid) 0x538-0x538.7 (1)
0x530|                           01                  |         .      |                    x: 1 0x539-0x539.7 (1)
     |                                               |                |                  [10]{}: in 0x53a-0x53a.7 (1)
0x530|                              0b               |          .     |                    end: 0xb (valid) 0x53a-0x53a.7 (1)
     |                                               |                |            [11]{}: code 0x53b-0x559.7 (31)
0x530|                                 1e            |           .    |              size: 30 0x53b-0x53b.7 (1)
     |                                               |                |              code{}: 0x53c-0x559.7 (30)
     |                                               |                |                t{}: 0x53c-0x53e.7 (3)
0x530|                                    01         |            .   |                  n: 1 0x53c-0x53c.7 (1)
     |                                               |                |                  x[0:1]: 0x53d-0x53e.7 (2)
     |                                               |                |                    [0]{}: t 0x53d-0x53e.7 (2)
0x530|                                       01      |             .  |                      n: 1 0x53d-0x53d.7 (1)
0x530|                                          7e   |              ~ |                      t: "i64" (0x7e) 0x53e-0x53e.7 (1)
     |                                               |                |                e[0:11]: 0x53f-0x559.7 (27)
     |                                               |                |                  [0]{}: in 0x53f-0x540.7 (2)
0x530|                                             41|               A|                    i32.const: 0x41 (valid) 0x53f-0x53f.7 (1)
0x540|00                                             |.               |                    n: 0 0x540-0x540.7 (1)
     |                                               |                |                  [1]{}: in 0x541-0x542.7 (2)
0x540|   20                                          |                |                    local.get: 0x20 (valid) 0x541-0x541.7 (1)
0x540|      00                                       |  .             |                    x: 0 0x542-0x542.7 (1)
     |                                               |                |                  [2]{}: in 0x543-0x547.7 (5)
0x540|         fd                                    |   .            |                    prefix: 0xfd (valid) 0x543-0x543.7 (1)
0x540|            59                                 |    Y           |                    v128.store16_lane: 89 (valid) 0x544-0x544.7 (1)
     |                                               |                |                    m{}: 0x545-0x546.7 (2)
0x540|               01                              |     .          |                      a: 1 0x545-0x545.7 (1)
0x540|                  03                           |      .         |                      o: 3 0x546-0x546.7 (1)
0x540|                     03                        |       .        |                    l: 3 0x547-0x547.7 (1)
     |                                               |                |                  [3]{}: in 0x548-0x549.7 (2)
0x540|                        41                     |        A       |                    i32.const: 0x41 (valid) 0x548-0x548.7 (1)
0x540|                           00                  |         .      |                    n: 0 0x549-0x549.7 (1)
     |                                               |                |                  [4]{}: in 0x54a-0x54c.7 (3)
0x540|                              29               |          )     |                    i64.load: 0x29 (valid) 0x54a-0x54a.7 (1)
     |                                               |                |                    m{}: 0x54b-0x54c.7 (2)
0x540|                                 03            |           .    |                      a: 3 0x54b-0x54b.7 (1)
0x540|                                    03         |            .   |                      o: 3 0x54c-0x54c.7 (1)
     |                                               |                |                  [5]{}: in 0x54d-0x54e.7 (2)
0x540|                                       21      |             !  |                    local.set: 0x21 (valid) 0x54d-0x54d.7 (1)
0x540|                                          01   |              . |                    x: 1 0x54e-0x54e.7 (1)
     |                                               |                |                  [6]{}: in 0x54f-0x550.7 (2)
0x540|                                             41|               A|                    i32.const: 0x41 (valid) 0x54f-0x54f.7 (1)
0x550|00                                             |.               |                    n: 0 0x550-0x550.7 (1)
     |                                               |                |                  [7]{}: in 0x551-0x552.7 (2)
0x550|   23                                          | #              |                    global.get: 0x23 (valid) 0x551-0x551.7 (1)
0x550|      00                                       |  .             |                    x: 0 0x552-0x552.7 (1)
     |                                               |                |                  [8]{}: in 0x553-0x556.7 (4)
0x550|         fd                                    |   .            |                    prefix: 0xfd (valid) 0x553-0x553.7 (1)
0x550|            0b                                 |    .           |                    v128.store: 11 (valid) 0x554-0x554.7 (1)
     |                                               |                |                    m{}: 0x555-0x556.7 (2)
0x550|               04                              |     .          |                      a: 4 0x555-0x555.7 (1)
0x550|                  03                           |      .         |                      o: 3 0x556-0x556.7 (1)
     |                                               |                |                  [9]{}: in 0x557-0x558.7 (2)
0x550|                     20                        |                |                    local.get: 0x20 (valid) 0x557-0x557.7 (1)
0x550|                        01                     |        .       |                    x: 1 0x558-0x558.7 (1)
     |                                               |                |                  [10]{}: in 0x559-0x559.7 (1)
0x550|                           0b                  |         .      |                    end: 0xb (valid) 0x559-0x559.7 (1)
     |                                               |                |            [12]{}: code 0x55a-0x578.7 (31)
0x550|                              1e               |          .     |              size: 30 0x55a-0x55a.7 (1)
     |                                               |                |              code{}: 0x55b-0x578.7 (30)
     |                                               |                |                t{}: 0x55b-0x55d.7 (3)
0x550|                                 01            |           .    |                  n: 1 0x55b-0x55b.7 (1)
     |                                               |                |                  x[0:1]: 0x55c-0x55d.7 (2)
     |                                               |                |                    [0]{}: t 0x55c-0x55d.7 (2)
0x550|                                    01         |            .   |                      n: 1 0x55c-0x55c.7 (1)
0x550|                                       7e      |             ~  |                      t: "i64" (0x7e) 0x55d-0x55d.7 (1)
     |                                               |                |                e[0:11]: 0x55e-0x578.7 (27)
     |                                               |                |                  [0]{}: in 0x55e-0x55f.7 (2)
0x550|                                          41   |              A |                    i32.const: 0x41 (valid) 0x55e-0x55e.7 (1)
0x550|                                             00|               .|                    n: 0 0x55f-0x55f.7 (1)
     |                                               |                |                  [1]{}: in 0x560-0x561.7 (2)
0x560|20                                             |                |                    local.get: 0x20 (valid) 0x560-0x560.7 (1)
0x560|   00                                          | .              |                    x: 0 0x561-0x561.7 (1)
     |                                               |                |                  [2]{}: in 0x562-0x566.7 (5)
0x560|      fd                                       |  .             |                    prefix: 0xfd (valid) 0x562-0x562.7 (1)
0x560|         59                                    |   Y            |                    v128.store16_lane: 89 (valid) 0x563-0x563.7 (1)
     |                                               |                |                    m{}: 0x564-0x565.7 (2)
0x560|            01                                 |    .           |                      a: 1 0x564-0x564.7 (1)
0x560|               04                              |     .          |                      o: 4 0x565-0x565.7 (1)
0x560|                  04                           |      .         |                    l: 4 0x566-0x566.7 (1)
     |                                               |                |                  [3]{}: in 0x567-0x568.7 (2)
0x560|                     41                        |       A        |                    i32.const: 0x41 (valid) 0x567-0x567.7 (1)
0x560|                        00                     |        .       |                    n: 0 0x568-0x568.7 (1)
     |                                               |                |                  [4]{}: in 0x569-0x56b.7 (3)
0x560|                           29                  |         )      |                    i64.load: 0x29 (valid) 0x569-0x569.7 (1)
     |                                               |                |                    m{}: 0x56a-0x56b.7 (2)
0x560|                              03               |          .     |                      a: 3 0x56a-0x56a.7 (1)
0x560|                                 04            |           .    |                      o: 4 0x56b-0x56b.7 (1)
     |                                               |                |                  [5]{}: in 0x56c-0x56d.7 (2)
0x560|                                    21         |            !   |                    local.set: 0x21 (valid) 0x56c-0x56c.7 (1)
0x560|                                       01      |             .  |                    x: 1 0x56d-0x56d.7 (1)
     |                                               |                |                  [6]{}: in 0x56e-0x56f.7 (2)
0x560|                                          41   |              A |                    i32.const: 0x41 (valid) 0x56e-0x56e.7 (1)
0x560|                                             00|               .|                    n: 0 0x56f-0x56f.7 (1)
     |                                               |                |                  [7]{}: in 0x570-0x571.7 (2)
0x570|23                                             |#               |                    global.get: 0x23 (valid) 0x570-0x570.7 (1)
0x570|   00                                          | .              |                    x: 0 0x571-0x571.7 (1)
     |                                               |                |                  [8]{}: in 0x572-0x575.7 (4)
0x570|      fd                                       |  .             |                    prefix: 0xfd (valid) 0x572-0x572.7 (1)
0x570|         0b                                    |   .            |                    v128.store: 11 (valid) 0x573-0x573.7 (1)
     |                                               |                |                    m{}: 0x574-0x575.7 (2)
0x570|            04                                 |    .           |                      a: 4 0x574-0x574.7 (1)
0x570|               04                              |     .          |                      o: 4 0x575-0x575.7 (1)
     |                                               |                |                  [9]{}: in 0x576-0x577.7 (2)
0x570|                  20                           |                |                    local.get: 0x20 (valid) 0x576-0x576.7 (1)
0x570|                     01                        |       .        |                    x: 1 0x577-0x577.7 (1)
     |                                               |                |                  [10]{}: in 0x578-0x578.7 (1)
0x570|                        0b                     |        .       |                    end: 0xb (valid) 0x578-0x578.7 (1)
     |                                               |                |            [13]{}: code 0x579-0x597.7 (31)
0x570|                           1e                  |         .      |              size: 30 0x579-0x579.7 (1)
     |                                               |                |              code{}: 0x57a-0x597.7 (30)
     |                                               |                |                t{}: 0x57a-0x57c.7 (3)
0x570|                              01               |          .     |                  n: 1 0x57a-0x57a.7 (1)
     |                                               |                |                  x[0:1]: 0x57b-0x57c.7 (2)
     |                                               |                |                    [0]{}: t 0x57b-0x57c.7 (2)
0x570|                                 01            |           .    |                      n: 1 0x57b-0x57b.7 (1)
0x570|                                    7e         |            ~   |                      t: "i64" (0x7e) 0x57c-0x57c.7 (1)
     |                                               |                |                e[0:11]: 0x57d-0x597.7 (27)
     |                                               |                |                  [0]{}: in 0x57d-0x57e.7 (2)
0x570|                                       41      |             A  |                    i32.const: 0x41 (valid) 0x57d-0x57d.7 (1)
0x570|                                          00   |              . |                    n: 0 0x57e-0x57e.7 (1)
     |                                               |                |                  [1]{}: in 0x57f-0x580.7 (2)
0x570|                                             20|                |                    local.get: 0x20 (valid) 0x57f-0x57f.7 (1)
0x580|00                                             |.               |                    x: 0 0x580-0x580.7 (1)
     |                                               |                |                  [2]{}: in 0x581-0x585.7 (5)
0x580|   fd                                          | .              |                    prefix: 0xfd (valid) 0x581-0x581.7 (1)
0x580|      59                                       |  Y             |                    v128.store16_lane: 89 (valid) 0x582-0x582.7 (1)
     |                                               |                |                    m{}: 0x583-0x584.7 (2)
0x580|         01                                    |   .            |                      a: 1 0x583-0x583.7 (1)
0x580|            05                                 |    .           |                      o: 5 0x584-0x584.7 (1)
0x580|               05                              |     .          |                    l: 5 0x585-0x585.7 (1)
     |                                               |                |                  [3]{}: in 0x586-0x587.7 (2)
0x580|                  41                           |      A         |                    i32.const: 0x41 (valid) 0x586-0x586.7 (1)
0x580|                     00                        |       .        |                    n: 0 0x587-0x587.7 (1)
     |                                               |                |                  [4]{}: in 0x588-0x58a.7 (3)
0x580|                        29                     |        )       |                    i64.load: 0x29 (valid) 0x588-0x588.7 (1)
     |                                               |                |                    m{}: 0x589-0x58a.7 (2)
0x580|                           03                  |         .      |                      a: 3 0x589-0x589.7 (1)
0x580|                              05               |          .     |                      o: 5 0x58a-0x58a.7 (1)
     |                                               |                |                  [5]{}: in 0x58b-0x58c.7 (2)
0x580|                                 21            |           !    |                    local.set: 0x21 (valid) 0x58b-0x58b.7 (1)
0x580|                                    01         |            .   |                    x: 1 0x58c-0x58c.7 (1)
     |                                               |                |                  [6]{}: in 0x58d-0x58e.7 (2)
0x580|                                       41      |             A  |                    i32.const: 0x41 (valid) 0x58d-0x58d.7 (1)
0x580|                                          00   |              . |                    n: 0 0x58e-0x58e.7 (1)
     |                                               |                |                  [7]{}: in 0x58f-0x590.7 (2)
0x580|                                             23|               #|                    global.get: 0x23 (valid) 0x58f-0x58f.7 (1)
0x590|00                                             |.               |                    x: 0 0x590-0x590.7 (1)
     |                                               |                |                  [8]{}: in 0x591-0x594.7 (4)
0x590|   fd                                          | .              |                    prefix: 0xfd (valid) 0x591-0x591.7 (1)
0x590|      0b                                       |  .             |                    v128.store: 11 (valid) 0x592-0x592.7 (1)
     |                                               |                |                    m{}: 0x593-0x594.7 (2)
0x590|         04                                    |   .            |                      a: 4 0x593-0x593.7 (1)
0x590|            05                                 |    .           |                      o: 5 0x594-0x594.7 (1)
     |                                               |                |                  [9]{}: in 0x595-0x596.7 (2)
0x590|               20                              |                |                    local.get: 0x20 (valid) 0x595-0x595.7 (1)
0x590|                  01                           |      .         |                    x: 1 0x596-0x596.7 (1)
     |                                               |                |                  [10]{}: in 0x597-0x597.7 (1)
0x590|                     0b                        |       .        |                    end: 0xb (valid) 0x597-0x597.7 (1)
     |                                               |                |            [14]{}: code 0x598-0x5b6.7 (31)
0x590|                        1e                     |        .       |              size: 30 0x598-0x598.7 (1)
     |                                               |                |              code{}: 0x599-0x5b6.7 (30)
     |                                               |                |                t{}: 0x599-0x59b.7 (3)
0x590|                           01                  |         .      |                  n: 1 0x599-0x599.7 (1)
     |                                               |                |                  x[0:1]: 0x59a-0x59b.7 (2)
     |                                               |                |                    [0]{}: t 0x59a-0x59b.7 (2)
0x590|                              01               |          .     |                      n: 1 0x59a-0x59a.7 (1)
0x590|                                 7e            |           ~    |                      t: "i64" (0x7e) 0x59b-0x59b.7 (1)
     |                                               |                |                e[0:11]: 0x59c-0x5b6.7 (27)
     |                                               |                |                  [0]{}: in 0x59c-0x59d.7 (2)
0x590|                                    41         |            A   |                    i32.const: 0x41 (valid) 0x59c-0x59c.7 (1)
0x590|                                       00      |             .  |                    n: 0 0x59d-0x59d.7 (1)
     |                                               |                |                  [1]{}: in 0x59e-0x59f.7 (2)
0x590|                                          20   |                |                    local.get: 0x20 (valid) 0x59e-0x59e.7 (1)
0x590|                                             00|               .|                    x: 0 0x59f-0x59f.7 (1)
     |                                               |                |                  [2]{}: in 0x5a0-0x5a4.7 (5)
0x5a0|fd                                             |.               |                    prefix: 0xfd (valid) 0x5a0-0x5a0.7 (1)
0x5a0|   59                                          | Y              |                    v128.store16_lane: 89 (valid) 0x5a1-0x5a1.7 (1)
     |                                               |                |                    m{}: 0x5a2-0x5a3.7 (2)
0x5a0|      01                                       |  .             |                      a: 1 0x5a2-0x5a2.7 (1)
0x5a0|         06                                    |   .            |                      o: 6 0x5a3-0x5a3.7 (1)
0x5a0|            06                                 |    .           |                    l: 6 0x5a4-0x5a4.7 (1)
     |                                               |                |                  [3]{}: in 0x5a5-0x5a6.7 (2)
0x5a0|               41                              |     A          |                    i32.const: 0x41 (valid) 0x5a5-0x5a5.7 (1)
0x5a0|                  00                           |      .         |                    n: 0 0x5a6-0x5a6.7 (1)
     |                                               |                |                  [4]{}: in 0x5a7-0x5a9.7 (3)
0x5a0|                     29                        |       )        |                    i64.load: 0x29 (valid) 0x5a7-0x5a7.7 (1)
     |                                               |                |                    m{}: 0x5a8-0x5a9.7 (2)
0x5a0|                        03                     |        .       |                      a: 3 0x5a8-0x5a8.7 (1)
0x5a0|                           06                  |         .      |                      o: 6 0x5a9-0x5a9.7 (1)
     |                                               |                |                  [5]{}: in 0x5aa-0x5ab.7 (2)
0x5a0|                              21               |          !     |                    local.set: 0x21 (valid) 0x5aa-0x5aa.7 (1)
0x5a0|                                 01            |           .    |                    x: 1 0x5ab-0x5ab.7 (1)
     |                                               |                |                  [6]{}: in 0x5ac-0x5ad.7 (2)
0x5a0|                                    41         |            A   |                    i32.const: 0x41 (valid) 0x5ac-0x5ac.7 (1)
0x5a0|                                       00      |             .  |                    n: 0 0x5ad-0x5ad.7 (1)
     |                                               |                |                  [7]{}: in 0x5ae-0x5af.7 (2)
0x5a0|                                          23   |              # |                    global.get: 0x23 (valid) 0x5ae-0x5ae.7 (1)
0x5a0|                                             00|               .|                    x: 0 0x5af-0x5af.7 (1)
     |                                               |                |                  [8]{}: in 0x5b0-0x5b3.7 (4)
0x5b0|fd                                             |.               |                    prefix: 0xfd (valid) 0x5b0-0x5b0.7 (1)
0x5b0|   0b                                          | .              |                    v128.store: 11 (valid) 0x5b1-0x5b1.7 (1)
     |                                               |                |                    m{}: 0x5b2-0x5b3.7 (2)
0x5b0|      04                                       |  .             |                      a: 4 0x5b2-0x5b2.7 (1)
0x5b0|         06                                    |   .            |                      o: 6 0x5b3-0x5b3.7 (1)
     |                                               |                |                  [9]{}: in 0x5b4-0x5b5.7 (2)
0x5b0|            20                                 |                |                    local.get: 0x20 (valid) 0x5b4-0x5b4.7 (1)
0x5b0|               01                              |     .          |                    x: 1 0x5b5-0x5b5.7 (1)
     |                                               |                |                  [10]{}: in 0x5b6-0x5b6.7 (1)
0x5b0|                  0b                           |      .         |                    end: 0xb (valid) 0x5b6-0x5b6.7 (1)
     |                                               |                |            [15]{}: code 0x5b7-0x5d5.7 (31)
0x5b0|                     1e                        |       .        |              size: 30 0x5b7-0x5b7.7 (1)
     |                                               |                |              code{}: 0x5b8-0x5d5.7 (30)
     |                                               |                |                t{}: 0x5b8-0x5ba.7 (3)
0x5b0|                        01                     |        .       |                  n: 1 0x5b8-0x5b8.7 (1)
     |                                               |                |                  x[0:1]: 0x5b9-0x5ba.7 (2)
     |                                               |                |                    [0]{}: t 0x5b9-0x5ba.7 (2)
0x5b0|                           01                  |         .      |                      n: 1 0x5b9-0x5b9.7 (1)
0x5b0|                              7e               |          ~     |                      t: "i64" (0x7e) 0x5ba-0x5ba.7 (1)
     |                                               |                |                e[0:11]: 0x5bb-0x5d5.7 (27)
     |                                               |                |                  [0]{}: in 0x5bb-0x5bc.7 (2)
0x5b0|                                 41            |           A    |                    i32.const: 0x41 (valid) 0x5bb-0x5bb.7 (1)
0x5b0|                                    00         |            .   |                    n: 0 0x5bc-0x5bc.7 (1)
     |                                               |                |                  [1]{}: in 0x5bd-0x5be.7 (2)
0x5b0|                                       20      |                |                    local.get: 0x20 (valid) 0x5bd-0x5bd.7 (1)
0x5b0|                                          00   |              . |                    x: 0 0x5be-0x5be.7 (1)
     |                                               |                |                  [2]{}: in 0x5bf-0x5c3.7 (5)
0x5b0|                                             fd|               .|                    prefix: 0xfd (valid) 0x5bf-0x5bf.7 (1)
0x5c0|59                                             |Y               |                    v128.store16_lane: 89 (valid) 0x5c0-0x5c0.7 (1)
     |                                               |                |                    m{}: 0x5c1-0x5c2.7 (2)
0x5c0|   01                                          | .              |                      a: 1 0x5c1-0x5c1.7 (1)
0x5c0|      07                                       |  .             |                      o: 7 0x5c2-0x5c2.7 (1)
0x5c0|         07                                    |   .            |                    l: 7 0x5c3-0x5c3.7 (1)
     |                                               |                |                  [3]{}: in 0x5c4-0x5c5.7 (2)
0x5c0|            41                                 |    A           |                    i32.const: 0x41 (valid) 0x5c4-0x5c4.7 (1)
0x5c0|               00                              |     .          |                    n: 0 0x5c5-0x5c5.7 (1)
     |                                               |                |                  [4]{}: in 0x5c6-0x5c8.7 (3)
0x5c0|                  29                           |      )         |                    i64.load: 0x29 (valid) 0x5c6-0x5c6.7 (1)
     |                                               |                |                    m{}: 0x5c7-0x5c8.7 (2)
0x5c0|                     03                        |       .        |                      a: 3 0x5c7-0x5c7.7 (1)
0x5c0|                        07                     |        .       |                      o: 7 0x5c8-0x5c8.7 (1)
     |                                               |                |                  [5]{}: in 0x5c9-0x5ca.7 (2)
0x5c0|                           21                  |         !      |                    local.set: 0x21 (valid) 0x5c9-0x5c9.7 (1)
0x5c0|                              01               |          .     |                    x: 1 0x5ca-0x5ca.7 (1)
     |                                               |                |                  [6]{}: in 0x5cb-0x5cc.7 (2)
0x5c0|                                 41            |           A    |                    i32.const: 0x41 (valid) 0x5cb-0x5cb.7 (1)
0x5c0|                                    00         |            .   |                    n: 0 0x5cc-0x5cc.7 (1)
     |                                               |                |                  [7]{}: in 0x5cd-0x5ce.7 (2)
0x5c0|                                       23      |             #  |                    global.get: 0x23 (valid) 0x5cd-0x5cd.7 (1)
0x5c0|                                          00   |              . |                    x: 0 0x5ce-0x5ce.7 (1)
     |                                               |                |                  [8]{}: in 0x5cf-0x5d2.7 (4)
0x5c0|                                             fd|               .|                    prefix: 0xfd (valid) 0x5cf-0x5cf.7 (1)
0x5d0|0b                                             |.               |                    v128.store: 11 (valid) 0x5d0-0x5d0.7 (1)
     |                                               |                |                    m{}: 0x5d1-0x5d2.7 (2)
0x5d0|   04                                          | .              |                      a: 4 0x5d1-0x5d1.7 (1)
0x5d0|      07                                       |  .             |                      o: 7 0x5d2-0x5d2.7 (1)
     |                                               |                |                  [9]{}: in 0x5d3-0x5d4.7 (2)
0x5d0|         20                                    |                |                    local.get: 0x20 (valid) 0x5d3-0x5d3.7 (1)
0x5d0|            01                                 |    .           |                    x: 1 0x5d4-0x5d4.7 (1)
     |                                               |                |                  [10]{}: in 0x5d5-0x5d5.7 (1)
0x5d0|               0b                              |     .          |                    end: 0xb (valid) 0x5d5-0x5d5.7 (1)
     |                                               |                |            [16]{}: code 0x5d6-0x5f4.7 (31)
0x5d0|                  1e                           |      .         |              size: 30 0x5d6-0x5d6.7 (1)
     |                                               |                |              code{}: 0x5d7-0x5f4.7 (30)
     |                                               |                |                t{}: 0x5d7-0x5d9.7 (3)
0x5d0|                     01                        |       .        |                  n: 1 0x5d7-0x5d7.7 (1)
     |                                               |                |                  x[0:1]: 0x5d8-0x5d9.7 (2)
     |                                               |                |                    [0]{}: t 0x5d8-0x5d9.7 (2)
0x5d0|                        01                     |        .       |                      n: 1 0x5d8-0x5d8.7 (1)
0x5d0|                           7e                  |         ~      |                      t: "i64" (0x7e) 0x5d9-0x5d9.7 (1)
     |                                               |                |                e[0:11]: 0x5da-0x5f4.7 (27)
     |                                               |                |                  [0]{}: in 0x5da-0x5db.7 (2)
0x5d0|                              20               |                |                    local.get: 0x20 (valid) 0x5da-0x5da.7 (1)
0x5d0|                                 00            |           .    |                    x: 0 0x5db-0x5db.7 (1)
     |                                               |                |                  [1]{}: in 0x5dc-0x5dd.7 (2)
0x5d0|                                    20         |                |                    local.get: 0x20 (valid) 0x5dc-0x5dc.7 (1)
0x5d0|                                       01      |             .  |                    x: 1 0x5dd-0x5dd.7 (1)
     |                                               |                |                  [2]{}: in 0x5de-0x5e2.7 (5)
0x5d0|                                          fd   |              . |                    prefix: 0xfd (valid) 0x5de-0x5de.7 (1)
0x5d0|                                             59|               Y|                    v128.store16_lane: 89 (valid) 0x5df-0x5df.7 (1)
     |                                               |                |                    m{}: 0x5e0-0x5e1.7 (2)
0x5e0|00                                             |.               |                      a: 0 0x5e0-0x5e0.7 (1)
0x5e0|   00                                          | .              |                      o: 0 0x5e1-0x5e1.7 (1)
0x5e0|      00                                       |  .             |                    l: 0 0x5e2-0x5e2.7 (1)
     |                                               |                |                  [3]{}: in 0x5e3-0x5e4.7 (2)
0x5e0|         20                                    |                |                    local.get: 0x20 (valid) 0x5e3-0x5e3.7 (1)
0x5e0|            00                                 |    .           |                    x: 0 0x5e4-0x5e4.7 (1)
     |                                               |                |                  [4]{}: in 0x5e5-0x5e7.7 (3)
0x5e0|               29                              |     )          |                    i64.load: 0x29 (valid) 0x5e5-0x5e5.7 (1)
     |                                               |                |                    m{}: 0x5e6-0x5e7.7 (2)
0x5e0|                  03                           |      .         |                      a: 3 0x5e6-0x5e6.7 (1)
0x5e0|                     00                        |       .        |                      o: 0 0x5e7-0x5e7.7 (1)
     |                                               |                |                  [5]{}: in 0x5e8-0x5e9.7 (2)
0x5e0|                        21                     |        !       |                    local.set: 0x21 (valid) 0x5e8-0x5e8.7 (1)
0x5e0|                           02                  |         .      |                    x: 2 0x5e9-0x5e9.7 (1)
     |                                               |                |                  [6]{}: in 0x5ea-0x5eb.7 (2)
0x5e0|                              41               |          A     |                    i32.const: 0x41 (valid) 0x5ea-0x5ea.7 (1)
0x5e0|                                 00            |           .    |                    n: 0 0x5eb-0x5eb.7 (1)
     |                                               |                |                  [7]{}: in 0x5ec-0x5ed.7 (2)
0x5e0|                                    23         |            #   |                    global.get: 0x23 (valid) 0x5ec-0x5ec.7 (1)
0x5e0|                                       00      |             .  |                    x: 0 0x5ed-0x5ed.7 (1)
     |                                               |                |                  [8]{}: in 0x5ee-0x5f1.7 (4)
0x5e0|                                          fd   |              . |                    prefix: 0xfd (valid) 0x5ee-0x5ee.7 (1)
0x5e0|                                             0b|               .|                    v128.store: 11 (valid) 0x5ef-0x5ef.7 (1)
     |                                               |                |                    m{}: 0x5f0-0x5f1.7 (2)
0x5f0|04                                             |.               |                      a: 4 0x5f0-0x5f0.7 (1)
0x5f0|   00                                          | .              |                      o: 0 0x5f1-0x5f1.7 (1)
     |                                               |                |                  [9]{}: in 0x5f2-0x5f3.7 (2)
0x5f0|      20                                       |                |                    local.get: 0x20 (valid) 0x5f2-0x5f2.7 (1)
0x5f0|         02                                    |   .            |                    x: 2 0x5f3-0x5f3.7 (1)
     |                                               |                |                  [10]{}: in 0x5f4-0x5f4.7 (1)
0x5f0|            0b                                 |    .           |                    end: 0xb (valid) 0x5f4-0x5f4.7 (1)
     |                                               |                |            [17]{}: code 0x5f5-0x613.7 (31)
0x5f0|               1e                              |     .          |              size: 30 0x5f5-0x5f5.7 (1)
     |                                               |                |              code{}: 0x5f6-0x613.7 (30)
     |                                               |                |                t{}: 0x5f6-0x5f8.7 (3)
0x5f0|                  01                           |      .         |                  n: 1 0x5f6-0x5f6.7 (1)
     |                                               |                |                  x[0:1]: 0x5f7-0x5f8.7 (2)
     |                                               |                |                    [0]{}: t 0x5f7-0x5f8.7 (2)
0x5f0|                     01                        |       .        |                      n: 1 0x5f7-0x5f7.7 (1)
0x5f0|                        7e                     |        ~       |                      t: "i64" (0x7e) 0x5f8-0x5f8.7 (1)
     |                                               |                |                e[0:11]: 0x5f9-0x613.7 (27)
     |                                               |                |                  [0]{}: in 0x5f9-0x5fa.7 (2)
0x5f0|                           20                  |                |                    local.get: 0x20 (valid) 0x5f9-0x5f9.7 (1)
0x5f0|                              00               |          .     |                    x: 0 0x5fa-0x5fa.7 (1)
     |                                               |                |                  [1]{}: in 0x5fb-0x5fc.7 (2)
0x5f0|                                 20            |                |                    local.get: 0x20 (valid) 0x5fb-0x5fb.7 (1)
0x5f0|                                    01         |            .   |                    x: 1 0x5fc-0x5fc.7 (1)
     |                                               |                |                  [2]{}: in 0x5fd-0x601.7 (5)
0x5f0|                                       fd      |             .  |                    prefix: 0xfd (valid) 0x5fd-0x5fd.7 (1)
0x5f0|                                          59   |              Y |                    v128.store16_lane: 89 (valid) 0x5fe-0x5fe.7 (1)
     |                                               |                |                    m{}: 0x5ff-0x600.7 (2)
0x5f0|                                             01|               .|                      a: 1 0x5ff-0x5ff.7 (1)
0x600|00                                             |.               |                      o: 0 0x600-0x600.7 (1)
0x600|   00                                          | .              |                    l: 0 0x601-0x601.7 (1)
     |                                               |                |                  [3]{}: in 0x602-0x603.7 (2)
0x600|      20                                       |                |                    local.get: 0x20 (valid) 0x602-0x602.7 (1)
0x600|         00                                    |   .            |                    x: 0 0x603-0x603.7 (1)
     |                                               |                |                  [4]{}: in 0x604-0x606.7 (3)
0x600|            29                                 |    )           |                    i64.load: 0x29 (valid) 0x604-0x604.7 (1)
     |                                               |                |                    m{}: 0x605-0x606.7 (2)
0x600|               03                              |     .          |                      a: 3 0x605-0x605.7 (1)
0x600|                  00                           |      .         |                      o: 0 0x606-0x606.7 (1)
     |                                               |                |                  [5]{}: in 0x607-0x608.7 (2)
0x600|                     21                        |       !        |                    local.set: 0x21 (valid) 0x607-0x607.7 (1)
0x600|                        02                     |        .       |                    x: 2 0x608-0x608.7 (1)
     |                                               |                |                  [6]{}: in 0x609-0x60a.7 (2)
0x600|                           41                  |         A      |                    i32.const: 0x41 (valid) 0x609-0x609.7 (1)
0x600|                              00               |          .     |                    n: 0 0x60a-0x60a.7 (1)
     |                                               |                |                  [7]{}: in 0x60b-0x60c.7 (2)
0x600|                                 23            |           #    |                    global.get: 0x23 (valid) 0x60b-0x60b.7 (1)
0x600|                                    00         |            .   |                    x: 0 0x60c-0x60c.7 (1)
     |                                               |                |                  [8]{}: in 0x60d-0x610.7 (4)
0x600|                                       fd      |             .  |                    prefix: 0xfd (valid) 0x60d-0x60d.7 (1)
0x600|                                          0b   |              . |                    v128.store: 11 (valid) 0x60e-0x60e.7 (1)
     |                                               |                |                    m{}: 0x60f-0x610.7 (2)
0x600|                                             04|               .|                      a: 4 0x60f-0x60f.7 (1)
0x610|00                                             |.               |                      o: 0 0x610-0x610.7 (1)
     |                                               |                |                  [9]{}: in 0x611-0x612.7 (2)
0x610|   20                                          |                |                    local.get: 0x20 (valid) 0x611-0x611.7 (1)
0x610|      02                                       |  .             |                    x: 2 0x612-0x612.7 (1)
     |                                               |                |                  [10]{}: in 0x613-0x613.7 (1)
0x610|         0b                                    |   .            |                    end: 0xb (valid) 0x613-0x613.7 (1)
     |                                               |                |            [18]{}: code 0x614-0x632.7 (31)
0x610|            1e                                 |    .           |              size: 30 0x614-0x614.7 (1)
     |                                               |                |              code{}: 0x615-0x632.7 (30)
     |                                               |                |                t{}: 0x615-0x617.7 (3)
0x610|               01                              |     .          |                  n: 1 0x615-0x615.7 (1)
     |                                               |                |                  x[0:1]: 0x616-0x617.7 (2)
     |                                               |                |                    [0]{}: t 0x616-0x617.7 (2)
0x610|                  01                           |      .         |                      n: 1 0x616-0x616.7 (1)
0x610|                     7e                        |       ~        |                      t: "i64" (0x7e) 0x617-0x617.7 (1)
     |                                               |                |                e[0:11]: 0x618-0x632.7 (27)
     |                                               |                |                  [0]{}: in 0x618-0x619.7 (2)
0x610|                        20                     |                |                    local.get: 0x20 (valid) 0x618-0x618.7 (1)
0x610|                           00                  |         .      |                    x: 0 0x619-0x619.7 (1)
     |                                               |                |                  [1]{}: in 0x61a-0x61b.7 (2)
0x610|                              20               |                |                    local.get: 0x20 (valid) 0x61a-0x61a.7 (1)
0x610|                                 01            |           .    |                    x: 1 0x61b-0x61b.7 (1)
     |                                               |                |                  [2]{}: in 0x61c-0x620.7 (5)
0x610|                                    fd         |            .   |                    prefix: 0xfd (valid) 0x61c-0x61c.7 (1)
0x610|                                       59      |             Y  |                    v128.store16_lane: 89 (valid) 0x61d-0x61d.7 (1)
     |                                               |                |                    m{}: 0x61e-0x61f.7 (2)
0x610|                                          00   |              . |                      a: 0 0x61e-0x61e.7 (1)
0x610|                                             00|               .|                      o: 0 0x61f-0x61f.7 (1)
0x620|01                                             |.               |                    l: 1 0x620-0x620.7 (1)
     |                                               |                |                  [3]{}: in 0x621-0x622.7 (2)
0x620|   20                                          |                |                    local.get: 0x20 (valid) 0x621-0x621.7 (1)
0x620|      00                                       |  .             |                    x: 0 0x622-0x622.7 (1)
     |                                               |                |                  [4]{}: in 0x623-0x625.7 (3)
0x620|         29                                    |   )            |                    i64.load: 0x29 (valid) 0x623-0x623.7 (1)
     |                                               |                |                    m{}: 0x624-0x625.7 (2)
0x620|            03                                 |    .           |                      a: 3 0x624-0x624.7 (1)
0x620|               00                              |     .          |                      o: 0 0x625-0x625.7 (1)
     |                                               |                |                  [5]{}: in 0x626-0x627.7 (2)
0x620|                  21                           |      !         |                    local.set: 0x21 (valid) 0x626-0x626.7 (1)
0x620|                     02                        |       .        |                    x: 2 0x627-0x627.7 (1)
     |                                               |                |                  [6]{}: in 0x628-0x629.7 (2)
0x620|                        41                     |        A       |                    i32.const: 0x41 (valid) 0x628-0x628.7 (1)
0x620|                           00                  |         .      |                    n: 0 0x629-0x629.7 (1)
     |                                               |                |                  [7]{}: in 0x62a-0x62b.7 (2)
0x620|                              23               |          #     |                    global.get: 0x23 (valid) 0x62a-0x62a.7 (1)
0x620|                                 00            |           .    |                    x: 0 0x62b-0x62b.7 (1)
     |                                               |                |                  [8]{}: in 0x62c-0x62f.7 (4)
0x620|                                    fd         |            .   |                    prefix: 0xfd (valid) 0x62c-0x62c.7 (1)
0x620|                                       0b      |             .  |                    v128.store: 11 (valid) 0x62d-0x62d.7 (1)
     |                                               |                |                    m{}: 0x62e-0x62f.7 (2)
0x620|                                          04   |              . |                      a: 4 0x62e-0x62e.7 (1)
0x620|                                             01|               .|                      o: 1 0x62f-0x62f.7 (1)
     |                                               |                |                  [9]{}: in 0x630-0x631.7 (2)
0x630|20                                             |                |                    local.get: 0x20 (valid) 0x630-0x630.7 (1)
0x630|   02                                          | .              |                    x: 2 0x631-0x631.7 (1)
     |                                               |                |                  [10]{}: in 0x632-0x632.7 (1)
0x630|      0b                                       |  .             |                    end: 0xb (valid) 0x632-0x632.7 (1)
     |                                               |                |            [19]{}: code 0x633-0x651.7 (31)
0x630|         1e                                    |   .            |              size: 30 0x633-0x633.7 (1)
     |                                               |                |              code{}: 0x634-0x651.7 (30)
     |                                               |                |                t{}: 0x634-0x636.7 (3)
0x630|            01                                 |    .           |                  n: 1 0x634-0x634.7 (1)
     |                                               |                |                  x[0:1]: 0x635-0x636.7 (2)
     |                                               |                |                    [0]{}: t 0x635-0x636.7 (2)
0x630|               01                              |     .          |                      n: 1 0x635-0x635.7 (1)
0x630|                  7e                           |      ~         |                      t: "i64" (0x7e) 0x636-0x636.7 (1)
     |                                               |                |                e[0:11]: 0x637-0x651.7 (27)
     |                                               |                |                  [0]{}: in 0x637-0x638.7 (2)
0x630|                     20                        |                |                    local.get: 0x20 (valid) 0x637-0x637.7 (1)
0x630|                        00                     |        .       |                    x: 0 0x638-0x638.7 (1)
     |                                               |                |                  [1]{}: in 0x639-0x63a.7 (2)
0x630|                           20                  |                |                    local.get: 0x20 (valid) 0x639-0x639.7 (1)
0x630|                              01               |          .     |                    x: 1 0x63a-0x63a.7 (1)
     |                                               |                |                  [2]{}: in 0x63b-0x63f.7 (5)
0x630|                                 fd            |           .    |                    prefix: 0xfd (valid) 0x63b-0x63b.7 (1)
0x630|                                    59         |            Y   |                    v128.store16_lane: 89 (valid) 0x63c-0x63c.7 (1)
     |                                               |                |                    m{}: 0x63d-0x63e.7 (2)
0x630|                                       01      |             .  |                      a: 1 0x63d-0x63d.7 (1)
0x630|                                          00   |              . |                      o: 0 0x63e-0x63e.7 (1)
0x630|                                             01|               .|                    l: 1 0x63f-0x63f.7 (1)
     |                                               |                |                  [3]{}: in 0x640-0x641.7 (2)
0x640|20                                             |                |                    local.get: 0x20 (valid) 0x640-0x640.7 (1)
0x640|   00                                          | .              |                    x: 0 0x641-0x641.7 (1)
     |                                               |                |                  [4]{}: in 0x642-0x644.7 (3)
0x640|      29                                       |  )             |                    i64.load: 0x29 (valid) 0x642-0x642.7 (1)
     |                                               |                |                    m{}: 0x643-0x644.7 (2)
0x640|         03                                    |   .            |                      a: 3 0x643-0x643.7 (1)
0x640|            00                                 |    .           |                      o: 0 0x644-0x644.7 (1)
     |                                               |                |                  [5]{}: in 0x645-0x646.7 (2)
0x640|               21                              |     !          |                    local.set: 0x21 (valid) 0x645-0x645.7 (1)
0x640|                  02                           |      .         |                    x: 2 0x646-0x646.7 (1)
     |                                               |                |                  [6]{}: in 0x647-0x648.7 (2)
0x640|                     41                        |       A        |                    i32.const: 0x41 (valid) 0x647-0x647.7 (1)
0x640|                        00                     |        .       |                    n: 0 0x648-0x648.7 (1)
     |                                               |                |                  [7]{}: in 0x649-0x64a.7 (2)
0x640|                           23                  |         #      |                    global.get: 0x23 (valid) 0x649-0x649.7 (1)
0x640|                              00               |          .     |                    x: 0 0x64a-0x64a.7 (1)
     |                                               |                |                  [8]{}: in 0x64b-0x64e.7 (4)
0x640|                                 fd            |           .    |                    prefix: 0xfd (valid) 0x64b-0x64b.7 (1)
0x640|                                    0b         |            .   |                    v128.store: 11 (valid) 0x64c-0x64c.7 (1)
     |                                               |                |                    m{}: 0x64d-0x64e.7 (2)
0x640|                                       04      |             .  |                      a: 4 0x64d-0x64d.7 (1)
0x640|                                          01   |              . |                      o: 1 0x64e-0x64e.7 (1)
     |                                               |                |                  [9]{}: in 0x64f-0x650.7 (2)
0x640|                                             20|                |                    local.get: 0x20 (valid) 0x64f-0x64f.7 (1)
0x650|02                                             |.               |                    x: 2 0x650-0x650.7 (1)
     |                                               |                |                  [10]{}: in 0x651-0x651.7 (1)
0x650|   0b                                          | .              |                    end: 0xb (valid) 0x651-0x651.7 (1)
     |                                               |                |            [20]{}: code 0x652-0x670.7 (31)
0x650|      1e                                       |  .             |              size: 30 0x652-0x652.7 (1)
     |                                               |                |              code{}: 0x653-0x670.7 (30)
     |                                               |                |                t{}: 0x653-0x655.7 (3)
0x650|         01                                    |   .            |                  n: 1 0x653-0x653.7 (1)
     |                                               |                |                  x[0:1]: 0x654-0x655.7 (2)
     |                                               |                |                    [0]{}: t 0x654-0x655.7 (2)
0x650|            01                                 |    .           |                      n: 1 0x654-0x654.7 (1)
0x650|               7e                              |     ~          |                      t: "i64" (0x7e) 0x655-0x655.7 (1)
     |                                               |                |                e[0:11]: 0x656-0x670.7 (27)
     |                                               |                |                  [0]{}: in 0x656-0x657.7 (2)
0x650|                  20                           |                |                    local.get: 0x20 (valid) 0x656-0x656.7 (1)
0x650|                     00                        |       .        |                    x: 0 0x657-0x657.7 (1)
     |                                               |                |                  [1]{}: in 0x658-0x659.7 (2)
0x650|                        20                     |                |                    local.get: 0x20 (valid) 0x658-0x658.7 (1)
0x650|                           01                  |         .      |                    x: 1 0x659-0x659.7 (1)
     |                                               |                |                  [2]{}: in 0x65a-0x65e.7 (5)
0x650|                              fd               |          .     |                    prefix: 0xfd (valid) 0x65a-0x65a.7 (1)
0x650|                                 59            |           Y    |                    v128.store16_lane: 89 (valid) 0x65b-0x65b.7 (1)
     |                                               |                |                    m{}: 0x65c-0x65d.7 (2)
0x650|                                    00         |            .   |                      a: 0 0x65c-0x65c.7 (1)
0x650|                                       00      |             .  |                      o: 0 0x65d-0x65d.7 (1)
0x650|                                          02   |              . |                    l: 2 0x65e-0x65e.7 (1)
     |                                               |                |                  [3]{}: in 0x65f-0x660.7 (2)
0x650|                                             20|                |                    local.get: 0x20 (valid) 0x65f-0x65f.7 (1)
0x660|00                                             |.               |                    x: 0 0x660-0x660.7 (1)
     |                                               |                |                  [4]{}: in 0x661-0x663.7 (3)
0x660|   29                                          | )              |                    i64.load: 0x29 (valid) 0x661-0x661.7 (1)
     |                                               |                |                    m{}: 0x662-0x663.7 (2)
0x660|      03                                       |  .             |                      a: 3 0x662-0x662.7 (1)
0x660|         00                                    |   .            |                      o: 0 0x663-0x663.7 (1)
     |                                               |                |                  [5]{}: in 0x664-0x665.7 (2)
0x660|            21                                 |    !           |                    local.set: 0x21 (valid) 0x664-0x664.7 (1)
0x660|               02                              |     .          |                    x: 2 0x665-0x665.7 (1)
     |                                               |                |                  [6]{}: in 0x666-0x667.7 (2)
0x660|                  41                           |      A         |                    i32.const: 0x41 (valid) 0x666-0x666.7 (1)
0x660|                     00                        |       .        |                    n: 0 0x667-0x667.7 (1)
     |                                               |                |                  [7]{}: in 0x668-0x669.7 (2)
0x660|                        23                     |        #       |                    global.get: 0x23 (valid) 0x668-0x668.7 (1)
0x660|                           00                  |         .      |                    x: 0 0x669-0x669.7 (1)
     |                                               |                |                  [8]{}: in 0x66a-0x66d.7 (4)
0x660|                              fd               |          .     |                    prefix: 0xfd (valid) 0x66a-0x66a.7 (1)
0x660|                                 0b            |           .    |                    v128.store: 11 (valid) 0x66b-0x66b.7 (1)
     |                                               |                |                    m{}: 0x66c-0x66d.7 (2)
0x660|                                    04         |            .   |                      a: 4 0x66c-0x66c.7 (1)
0x660|                                       02      |             .  |                      o: 2 0x66d-0x66d.7 (1)
     |                                               |                |                  [9]{}: in 0x66e-0x66f.7 (2)
0x660|                                          20   |                |                    local.get: 0x20 (valid) 0x66e-0x66e.7 (1)
0x660|                                             02|               .|                    x: 2 0x66f-0x66f.7 (1)
     |                                               |                |                  [10]{}: in 0x670-0x670.7 (1)
0x670|0b                                             |.               |                    end: 0xb (valid) 0x670-0x670.7 (1)
     |                                               |                |            [21]{}: code 0x671-0x68f.7 (31)
0x670|   1e                                          | .              |              size: 30 0x671-0x671.7 (1)
     |                                               |                |              code{}: 0x672-0x68f.7 (30)
     |                                               |                |                t{}: 0x672-0x674.7 (3)
0x670|      01                                       |  .             |                  n: 1 0x672-0x672.7 (1)
     |                                               |                |                  x[0:1]: 0x673-0x674.7 (2)
     |                                               |                |                    [0]{}: t 0x673-0x674.7 (2)
0x670|         01                                    |   .            |                      n: 1 0x673-0x673.7 (1)
0x670|            7e                                 |    ~           |                      t: "i64" (0x7e) 0x674-0x674.7 (1)
     |                                               |                |                e[0:11]: 0x675-0x68f.7 (27)
     |                                               |                |                  [0]{}: in 0x675-0x676.7 (2)
0x670|               20                              |                |                    local.get: 0x20 (valid) 0x675-0x675.7 (1)
0x670|                  00                           |      .         |                    x: 0 0x676-0x676.7 (1)
     |                                               |                |                  [1]{}: in 0x677-0x678.7 (2)
0x670|                     20                        |                |                    local.get: 0x20 (valid) 0x677-0x677.7 (1)
0x670|                        01                     |        .       |                    x: 1 0x678-0x678.7 (1)
     |                                               |                |                  [2]{}: in 0x679-0x67d.7 (5)
0x670|                           fd                  |         .      |                    prefix: 0xfd (valid) 0x679-0x679.7 (1)
0x670|                              59               |          Y     |                    v128.store16_lane: 89 (valid) 0x67a-0x67a.7 (1)
     |                                               |                |                    m{}: 0x67b-0x67c.7 (2)
0x670|                                 01            |           .    |                      a: 1 0x67b-0x67b.7 (1)
0x670|                                    00         |            .   |                      o: 0 0x67c-0x67c.7 (1)
0x670|                                       02      |             .  |                    l: 2 0x67d-0x67d.7 (1)
     |                                               |                |                  [3]{}: in 0x67e-0x67f.7 (2)
0x670|                                          20   |                |                    local.get: 0x20 (valid) 0x67e-0x67e.7 (1)
0x670|                                             00|               .|                    x: 0 0x67f-0x67f.7 (1)
     |                                               |                |                  [4]{}: in 0x680-0x682.7 (3)
0x680|29                                             |)               |                    i64.load: 0x29 (valid) 0x680-0x680.7 (1)
     |                                               |                |                    m{}: 0x681-0x682.7 (2)
0x680|   03                                          | .              |                      a: 3 0x681-0x681.7 (1)
0x680|      00                                       |  .             |                      o: 0 0x682-0x682.7 (1)
     |                                               |                |                  [5]{}: in 0x683-0x684.7 (2)
0x680|         21                                    |   !            |                    local.set: 0x21 (valid) 0x683-0x683.7 (1)
0x680|            02                                 |    .           |                    x: 2 0x684-0x684.7 (1)
     |                                               |                |                  [6]{}: in 0x685-0x686.7 (2)
0x680|               41                              |     A          |                    i32.const: 0x41 (valid) 0x685-0x685.7 (1)
0x680|                  00                           |      .         |                    n: 0 0x686-0x686.7 (1)
     |                                               |                |                  [7]{}: in 0x687-0x688.7 (2)
0x680|                     23                        |       #        |                    global.get: 0x23 (valid) 0x687-0x687.7 (1)
0x680|                        00                     |        .       |                    x: 0 0x688-0x688.7 (1)
     |                                               |                |                  [8]{}: in 0x689-0x68c.7 (4)
0x680|                           fd                  |         .      |                    prefix: 0xfd (valid) 0x689-0x689.7 (1)
0x680|                              0b               |          .     |                    v128.store: 11 (valid) 0x68a-0x68a.7 (1)
     |                                               |                |                    m{}: 0x68b-0x68c.7 (2)
0x680|                                 04            |           .    |                      a: 4 0x68b-0x68b.7 (1)
0x680|                                    02         |            .   |                      o: 2 0x68c-0x68c.7 (1)
     |                                               |                |                  [9]{}: in 0x68d-0x68e.7 (2)
0x680|                                       20      |                |                    local.get: 0x20 (valid) 0x68d-0x68d.7 (1)
0x680|                                          02   |              . |                    x: 2 0x68e-0x68e.7 (1)
     |                                               |                |                  [10]{}: in 0x68f-0x68f.7 (1)
0x680|                                             0b|               .|                    end: 0xb (valid) 0x68f-0x68f.7 (1)
     |                                               |                |            [22]{}: code 0x690-0x6ae.7 (31)
0x690|1e                                             |.               |              size: 30 0x690-0x690.7 (1)
     |                                               |                |              code{}: 0x691-0x6ae.7 (30)
     |                                               |                |                t{}: 0x691-0x693.7 (3)
0x690|   01                                          | .              |                  n: 1 0x691-0x691.7 (1)
     |                                               |                |                  x[0:1]: 0x692-0x693.7 (2)
     |                                               |                |                    [0]{}: t 0x692-0x693.7 (2)
0x690|      01                                       |  .             |                      n: 1 0x692-0x692.7 (1)
0x690|         7e                                    |   ~            |                      t: "i64" (0x7e) 0x693-0x693.7 (1)
     |                                               |                |                e[0:11]: 0x694-0x6ae.7 (27)
     |                                               |                |                  [0]{}: in 0x694-0x695.7 (2)
0x690|            20                                 |                |                    local.get: 0x20 (valid) 0x694-0x694.7 (1)
0x690|               00                              |     .          |                    x: 0 0x695-0x695.7 (1)
     |                                               |                |                  [1]{}: in 0x696-0x697.7 (2)
0x690|                  20                           |                |                    local.get: 0x20 (valid) 0x696-0x696.7 (1)
0x690|                     01                        |       .        |                    x: 1 0x697-0x697.7 (1)
     |                                               |                |                  [2]{}: in 0x698-0x69c.7 (5)
0x690|                        fd                     |        .       |                    prefix: 0xfd (valid) 0x698-0x698.7 (1)
0x690|                           59                  |         Y      |                    v128.store16_lane: 89 (valid) 0x699-0x699.7 (1)
     |                                               |                |                    m{}: 0x69a-0x69b.7 (2)
0x690|                              00               |          .     |                      a: 0 0x69a-0x69a.7 (1)
0x690|                                 00            |           .    |                      o: 0 0x69b-0x69b.7 (1)
0x690|                                    03         |            .   |                    l: 3 0x69c-0x69c.7 (1)
     |                                               |                |                  [3]{}: in 0x69d-0x69e.7 (2)
0x690|                                       20      |                |                    local.get: 0x20 (valid) 0x69d-0x69d.7 (1)
0x690|                                          00   |              . |                    x: 0 0x69e-0x69e.7 (1)
     |                                               |                |                  [4]{}: in 0x69f-0x6a1.7 (3)
0x690|                                             29|               )|                    i64.load: 0x29 (valid) 0x69f-0x69f.7 (1)
     |                                               |                |                    m{}: 0x6a0-0x6a1.7 (2)
0x6a0|03                                             |.               |                      a: 3 0x6a0-0x6a0.7 (1)
0x6a0|   00                                          | .              |                      o: 0 0x6a1-0x6a1.7 (1)
     |                                               |                |                  [5]{}: in 0x6a2-0x6a3.7 (2)
0x6a0|      21                                       |  !             |                    local.set: 0x21 (valid) 0x6a2-0x6a2.7 (1)
0x6a0|         02                                    |   .            |                    x: 2 0x6a3-0x6a3.7 (1)
     |                                               |                |                  [6]{}: in 0x6a4-0x6a5.7 (2)
0x6a0|            41                                 |    A           |                    i32.const: 0x41 (valid) 0x6a4-0x6a4.7 (1)
0x6a0|               00                              |     .          |                    n: 0 0x6a5-0x6a5.7 (1)
     |                                               |                |                  [7]{}: in 0x6a6-0x6a7.7 (2)
0x6a0|                  23                           |      #         |                    global.get: 0x23 (valid) 0x6a6-0x6a6.7 (1)
0x6a0|                     00                        |       .        |                    x: 0 0x6a7-0x6a7.7 (1)
     |                                               |                |                  [8]{}: in 0x6a8-0x6ab.7 (4)
0x6a0|                        fd                     |        .       |                    prefix: 0xfd (valid) 0x6a8-0x6a8.7 (1)
0x6a0|                           0b                  |         .      |                    v128.store: 11 (valid) 0x6a9-0x6a9.7 (1)
     |                                               |                |                    m{}: 0x6aa-0x6ab.7 (2)
0x6a0|                              04               |          .     |                      a: 4 0x6aa-0x6aa.7 (1)
0x6a0|                                 03            |           .    |                      o: 3 0x6ab-0x6ab.7 (1)
     |                                               |                |                  [9]{}: in 0x6ac-0x6ad.7 (2)
0x6a0|                                    20         |                |                    local.get: 0x20 (valid) 0x6ac-0x6ac.7 (1)
0x6a0|                                       02      |             .  |                    x: 2 0x6ad-0x6ad.7 (1)
     |                                               |                |                  [10]{}: in 0x6ae-0x6ae.7 (1)
0x6a0|                                          0b   |              . |                    end: 0xb (valid) 0x6ae-0x6ae.7 (1)
     |                                               |                |            [23]{}: code 0x6af-0x6cd.7 (31)
0x6a0|                                             1e|               .|              size: 30 0x6af-0x6af.7 (1)
     |                                               |                |              code{}: 0x6b0-0x6cd.7 (30)
     |                                               |                |                t{}: 0x6b0-0x6b2.7 (3)
0x6b0|01                                             |.               |                  n: 1 0x6b0-0x6b0.7 (1)
     |                                               |                |                  x[0:1]: 0x6b1-0x6b2.7 (2)
     |                                               |                |                    [0]{}: t 0x6b1-0x6b2.7 (2)
0x6b0|   01                                          | .              |                      n: 1 0x6b1-0x6b1.7 (1)
0x6b0|      7e                                       |  ~             |                      t: "i64" (0x7e) 0x6b2-0x6b2.7 (1)
     |                                               |                |                e[0:11]: 0x6b3-0x6cd.7 (27)
     |                                               |                |                  [0]{}: in 0x6b3-0x6b4.7 (2)
0x6b0|         20                                    |                |                    local.get: 0x20 (valid) 0x6b3-0x6b3.7 (1)
0x6b0|            00                                 |    .           |                    x: 0 0x6b4-0x6b4.7 (1)
     |                                               |                |                  [1]{}: in 0x6b5-0x6b6.7 (2)
0x6b0|               20                              |                |                    local.get: 0x20 (valid) 0x6b5-0x6b5.7 (1)
0x6b0|                  01                           |      .         |                    x: 1 0x6b6-0x6b6.7 (1)
     |                                               |                |                  [2]{}: in 0x6b7-0x6bb.7 (5)
0x6b0|                     fd                        |       .        |                    prefix: 0xfd (valid) 0x6b7-0x6b7.7 (1)
0x6b0|                        59                     |        Y       |                    v128.store16_lane: 89 (valid) 0x6b8-0x6b8.7 (1)
     |                                               |                |                    m{}: 0x6b9-0x6ba.7 (2)
0x6b0|                           01                  |         .      |                      a: 1 0x6b9-0x6b9.7 (1)
0x6b0|                              00               |          .     |                      o: 0 0x6ba-0x6ba.7 (1)
0x6b0|                                 03            |           .    |                    l: 3 0x6bb-0x6bb.7 (1)
     |                                               |                |                  [3]{}: in 0x6bc-0x6bd.7 (2)
0x6b0|                                    20         |                |                    local.get: 0x20 (valid) 0x6bc-0x6bc.7 (1)
0x6b0|                                       00      |             .  |                    x: 0 0x6bd-0x6bd.7 (1)
     |                                               |                |                  [4]{}: in 0x6be-0x6c0.7 (3)
0x6b0|                                          29   |              ) |                    i64.load: 0x29 (valid) 0x6be-0x6be.7 (1)
     |                                               |                |                    m{}: 0x6bf-0x6c0.7 (2)
0x6b0|                                             03|               .|                      a: 3 0x6bf-0x6bf.7 (1)
0x6c0|00                                             |.               |                      o: 0 0x6c0-0x6c0.7 (1)
     |                                               |                |                  [5]{}: in 0x6c1-0x6c2.7 (2)
0x6c0|   21                                          | !              |                    local.set: 0x21 (valid) 0x6c1-0x6c1.7 (1)
0x6c0|      02                                       |  .             |                    x: 2 0x6c2-0x6c2.7 (1)
     |                                               |                |                  [6]{}: in 0x6c3-0x6c4.7 (2)
0x6c0|         41                                    |   A            |                    i32.const: 0x41 (valid) 0x6c3-0x6c3.7 (1)
0x6c0|            00                                 |    .           |                    n: 0 0x6c4-0x6c4.7 (1)
     |                                               |                |                  [7]{}: in 0x6c5-0x6c6.7 (2)
0x6c0|               23                              |     #          |                    global.get: 0x23 (valid) 0x6c5-0x6c5.7 (1)
0x6c0|                  00                           |      .         |                    x: 0 0x6c6-0x6c6.7 (1)
     |                                               |                |                  [8]{}: in 0x6c7-0x6ca.7 (4)
0x6c0|                     fd                        |       .        |                    prefix: 0xfd (valid) 0x6c7-0x6c7.7 (1)
0x6c0|                        0b                     |        .       |                    v128.store: 11 (valid) 0x6c8-0x6c8.7 (1)
     |                                               |                |                    m{}: 0x6c9-0x6ca.7 (2)
0x6c0|                           04                  |         .      |                      a: 4 0x6c9-0x6c9.7 (1)
0x6c0|                              03               |          .     |                      o: 3 0x6ca-0x6ca.7 (1)
     |                                               |                |                  [9]{}: in 0x6cb-0x6cc.7 (2)
0x6c0|                                 20            |                |                    local.get: 0x20 (valid) 0x6cb-0x6cb.7 (1)
0x6c0|                                    02         |            .   |                    x: 2 0x6cc-0x6cc.7 (1)
     |                                               |                |                  [10]{}: in 0x6cd-0x6cd.7 (1)
0x6c0|                                       0b      |             .  |                    end: 0xb (valid) 0x6cd-0x6cd.7 (1)
     |                                               |                |            [24]{}: code 0x6ce-0x6ec.7 (31)
0x6c0|                                          1e   |              . |              size: 30 0x6ce-0x6ce.7 (1)
     |                                               |                |              code{}: 0x6cf-0x6ec.7 (30)
     |                                               |                |                t{}: 0x6cf-0x6d1.7 (3)
0x6c0|                                             01|               .|                  n: 1 0x6cf-0x6cf.7 (1)
     |                                               |                |                  x[0:1]: 0x6d0-0x6d1.7 (2)
     |                                               |                |                    [0]{}: t 0x6d0-0x6d1.7 (2)
0x6d0|01                                             |.               |                      n: 1 0x6d0-0x6d0.7 (1)
0x6d0|   7e                                          | ~              |                      t: "i64" (0x7e) 0x6d1-0x6d1.7 (1)
     |                                               |                |                e[0:11]: 0x6d2-0x6ec.7 (27)
     |                                               |                |                  [0]{}: in 0x6d2-0x6d3.7 (2)
0x6d0|      20                                       |                |                    local.get: 0x20 (valid) 0x6d2-0x6d2.7 (1)
0x6d0|         00                                    |   .            |                    x: 0 0x6d3-0x6d3.7 (1)
     |                                               |                |                  [1]{}: in 0x6d4-0x6d5.7 (2)
0x6d0|            20                                 |                |                    local.get: 0x20 (valid) 0x6d4-0x6d4.7 (1)
0x6d0|               01                              |     .          |                    x: 1 0x6d5-0x6d5.7 (1)
     |                                               |                |                  [2]{}: in 0x6d6-0x6da.7 (5)
0x6d0|                  fd                           |      .         |                    prefix: 0xfd (valid) 0x6d6-0x6d6.7 (1)
0x6d0|                     59                        |       Y        |                    v128.store16_lane: 89 (valid) 0x6d7-0x6d7.7 (1)
     |                                               |                |                    m{}: 0x6d8-0x6d9.7 (2)
0x6d0|                        00                     |        .       |                      a: 0 0x6d8-0x6d8.7 (1)
0x6d0|                           00                  |         .      |                      o: 0 0x6d9-0x6d9.7 (1)
0x6d0|                              04               |          .     |                    l: 4 0x6da-0x6da.7 (1)
     |                                               |                |                  [3]{}: in 0x6db-0x6dc.7 (2)
0x6d0|                                 20            |                |                    local.get: 0x20 (valid) 0x6db-0x6db.7 (1)
0x6d0|                                    00         |            .   |                    x: 0 0x6dc-0x6dc.7 (1)
     |                                               |                |                  [4]{}: in 0x6dd-0x6df.7 (3)
0x6d0|                                       29      |             )  |                    i64.load: 0x29 (valid) 0x6dd-0x6dd.7 (1)
     |                                               |                |                    m{}: 0x6de-0x6df.7 (2)
0x6d0|                                          03   |              . |                      a: 3 0x6de-0x6de.7 (1)
0x6d0|                                             00|               .|                      o: 0 0x6df-0x6df.7 (1)
     |                                               |                |                  [5]{}: in 0x6e0-0x6e1.7 (2)
0x6e0|21                                             |!               |                    local.set: 0x21 (valid) 0x6e0-0x6e0.7 (1)
0x6e0|   02                                          | .              |                    x: 2 0x6e1-0x6e1.7 (1)
     |                                               |                |                  [6]{}: in 0x6e2-0x6e3.7 (2)
0x6e0|      41                                       |  A             |                    i32.const: 0x41 (valid) 0x6e2-0x6e2.7 (1)
0x6e0|         00                                    |   .            |                    n: 0 0x6e3-0x6e3.7 (1)
     |                                               |                |                  [7]{}: in 0x6e4-0x6e5.7 (2)
0x6e0|            23                                 |    #           |                    global.get: 0x23 (valid) 0x6e4-0x6e4.7 (1)
0x6e0|               00                              |     .          |                    x: 0 0x6e5-0x6e5.7 (1)
     |                                               |                |                  [8]{}: in 0x6e6-0x6e9.7 (4)
0x6e0|                  fd                           |      .         |                    prefix: 0xfd (valid) 0x6e6-0x6e6.7 (1)
0x6e0|                     0b                        |       .        |                    v128.store: 11 (valid) 0x6e7-0x6e7.7 (1)
     |                                               |                |                    m{}: 0x6e8-0x6e9.7 (2)
0x6e0|                        04                     |        .       |                      a: 4 0x6e8-0x6e8.7 (1)
0x6e0|                           04                  |         .      |                      o: 4 0x6e9-0x6e9.7 (1)
     |                                               |                |                  [9]{}: in 0x6ea-0x6eb.7 (2)
0x6e0|                              20               |                |                    local.get: 0x20 (valid) 0x6ea-0x6ea.7 (1)
0x6e0|                                 02            |           .    |                    x: 2 0x6eb-0x6eb.7 (1)
     |                                               |                |                  [10]{}: in 0x6ec-0x6ec.7 (1)
0x6e0|                                    0b         |            .   |                    end: 0xb (valid) 0x6ec-0x6ec.7 (1)
     |                                               |                |            [25]{}: code 0x6ed-0x70b.7 (31)
0x6e0|                                       1e      |             .  |              size: 30 0x6ed-0x6ed.7 (1)
     |                                               |                |              code{}: 0x6ee-0x70b.7 (30)
     |                                               |                |                t{}: 0x6ee-0x6f0.7 (3)
0x6e0|                                          01   |              . |                  n: 1 0x6ee-0x6ee.7 (1)
     |                                               |                |                  x[0:1]: 0x6ef-0x6f0.7 (2)
     |                                               |                |                    [0]{}: t 0x6ef-0x6f0.7 (2)
0x6e0|                                             01|               .|                      n: 1 0x6ef-0x6ef.7 (1)
0x6f0|7e                                             |~               |                      t: "i64" (0x7e) 0x6f0-0x6f0.7 (1)
     |                                               |                |                e[0:11]: 0x6f1-0x70b.7 (27)
     |                                               |                |                  [0]{}: in 0x6f1-0x6f2.7 (2)
0x6f0|   20                                          |                |                    local.get: 0x20 (valid) 0x6f1-0x6f1.7 (1)
0x6f0|      00                                       |  .             |                    x: 0 0x6f2-0x6f2.7 (1)
     |                                               |                |                  [1]{}: in 0x6f3-0x6f4.7 (2)
0x6f0|         20                                    |                |                    local.get: 0x20 (valid) 0x6f3-0x6f3.7 (1)
0x6f0|            01                                 |    .           |                    x: 1 0x6f4-0x6f4.7 (1)
     |                                               |                |                  [2]{}: in 0x6f5-0x6f9.7 (5)
0x6f0|               fd                              |     .          |                    prefix: 0xfd (valid) 0x6f5-0x6f5.7 (1)
0x6f0|                  59                           |      Y         |                    v128.store16_lane: 89 (valid) 0x6f6-0x6f6.7 (1)
     |                                               |                |                    m{}: 0x6f7-0x6f8.7 (2)
0x6f0|                     01                        |       .        |                      a: 1 0x6f7-0x6f7.7 (1)
0x6f0|                        00                     |        .       |                      o: 0 0x6f8-0x6f8.7 (1)
0x6f0|                           04                  |         .      |                    l: 4 0x6f9-0x6f9.7 (1)
     |                                               |                |                  [3]{}: in 0x6fa-0x6fb.7 (2)
0x6f0|                              20               |                |                    local.get: 0x20 (valid) 0x6fa-0x6fa.7 (1)
0x6f0|                                 00            |           .    |                    x: 0 0x6fb-0x6fb.7 (1)
     |                                               |                |                  [4]{}: in 0x6fc-0x6fe.7 (3)
0x6f0|                                    29         |            )   |                    i64.load: 0x29 (valid) 0x6fc-0x6fc.7 (1)
     |                                               |                |                    m{}: 0x6fd-0x6fe.7 (2)
0x6f0|                                       03      |             .  |                      a: 3 0x6fd-0x6fd.7 (1)
0x6f0|                                          00   |              . |                      o: 0 0x6fe-0x6fe.7 (1)
     |                                               |                |                  [5]{}: in 0x6ff-0x700.7 (2)
0x6f0|                                             21|               !|                    local.set: 0x21 (valid) 0x6ff-0x6ff.7 (1)
0x700|02                                             |.               |                    x: 2 0x700-0x700.7 (1)
     |                                               |                |                  [6]{}: in 0x701-0x702.7 (2)
0x700|   41                                          | A              |                    i32.const: 0x41 (valid) 0x701-0x701.7 (1)
0x700|      00                                       |  .             |                    n: 0 0x702-0x702.7 (1)
     |                                               |                |                  [7]{}: in 0x703-0x704.7 (2)
0x700|         23                                    |   #            |                    global.get: 0x23 (valid) 0x703-0x703.7 (1)
0x700|            00                                 |    .           |                    x: 0 0x704-0x704.7 (1)
     |                                               |                |                  [8]{}: in 0x705-0x708.7 (4)
0x700|               fd                              |     .          |                    prefix: 0xfd (valid) 0x705-0x705.7 (1)
0x700|                  0b                           |      .         |                    v128.store: 11 (valid) 0x706-0x706.7 (1)
     |                                               |                |                    m{}: 0x707-0x708.7 (2)
0x700|                     04                        |       .        |                      a: 4 0x707-0x707.7 (1)
0x700|                        04                     |        .       |                      o: 4 0x708-0x708.7 (1)
     |                                               |                |                  [9]{}: in 0x709-0x70a.7 (2)
0x700|                           20                  |                |                    local.get: 0x20 (valid) 0x709-0x709.7 (1)
0x700|                              02               |          .     |                    x: 2 0x70a-0x70a.7 (1)
     |                                               |                |                  [10]{}: in 0x70b-0x70b.7 (1)
0x700|                                 0b            |           .    |                    end: 0xb (valid) 0x70b-0x70b.7 (1)
     |                                               |                |            [26]{}: code 0x70c-0x72a.7 (31)
0x700|                                    1e         |            .   |              size: 30 0x70c-0x70c.7 (1)
     |                                               |                |              code{}: 0x70d-0x72a.7 (30)
     |                                               |                |                t{}: 0x70d-0x70f.7 (3)
0x700|                                       01      |             .  |                  n: 1 0x70d-0x70d.7 (1)
     |                                               |                |                  x[0:1]: 0x70e-0x70f.7 (2)
     |                                               |                |                    [0]{}: t 0x70e-0x70f.7 (2)
0x700|                                          01   |              . |                      n: 1 0x70e-0x70e.7 (1)
0x700|                                             7e|               ~|                      t: "i64" (0x7e) 0x70f-0x70f.7 (1)
     |                                               |                |                e[0:11]: 0x710-0x72a.7 (27)
     |                                               |                |                  [0]{}: in 0x710-0x711.7 (2)
0x710|20                                             |                |                    local.get: 0x20 (valid) 0x710-0x710.7 (1)
0x710|   00                                          | .              |                    x: 0 0x711-0x711.7 (1)
     |                                               |                |                  [1]{}: in 0x712-0x713.7 (2)
0x710|      20                                       |                |                    local.get: 0x20 (valid) 0x712-0x712.7 (1)
0x710|         01                                    |   .            |                    x: 1 0x713-0x713.7 (1)
     |                                               |                |                  [2]{}: in 0x714-0x718.7 (5)
0x710|            fd                                 |    .           |                    prefix: 0xfd (valid) 0x714-0x714.7 (1)
0x710|               59                              |     Y          |                    v128.store16_lane: 89 (valid) 0x715-0x715.7 (1)
     |                                               |                |                    m{}: 0x716-0x717.7 (2)
0x710|                  00                           |      .         |                      a: 0 0x716-0x716.7 (1)
0x710|                     00                        |       .        |                      o: 0 0x717-0x717.7 (1)
0x710|                        05                     |        .       |                    l: 5 0x718-0x718.7 (1)
     |                                               |                |                  [3]{}: in 0x719-0x71a.7 (2)
0x710|                           20                  |                |                    local.get: 0x20 (valid) 0x719-0x719.7 (1)
0x710|                              00               |          .     |                    x: 0 0x71a-0x71a.7 (1)
     |                                               |                |                  [4]{}: in 0x71b-0x71d.7 (3)
0x710|                                 29            |           )    |                    i64.load: 0x29 (valid) 0x71b-0x71b.7 (1)
     |                                               |                |                    m{}: 0x71c-0x71d.7 (2)
0x710|                                    03         |            .   |                      a: 3 0x71c-0x71c.7 (1)
0x710|                                       00      |             .  |                      o: 0 0x71d-0x71d.7 (1)
     |                                               |                |                  [5]{}: in 0x71e-0x71f.7 (2)
0x710|                                          21   |              ! |                    local.set: 0x21 (valid) 0x71e-0x71e.7 (1)
0x710|                                             02|               .|                    x: 2 0x71f-0x71f.7 (1)
     |                                               |                |                  [6]{}: in 0x720-0x721.7 (2)
0x720|41                                             |A               |                    i32.const: 0x41 (valid) 0x720-0x720.7 (1)
0x720|   00                                          | .              |                    n: 0 0x721-0x721.7 (1)
     |                                               |                |                  [7]{}: in 0x722-0x723.7 (2)
0x720|      23                                       |  #             |                    global.get: 0x23 (valid) 0x722-0x722.7 (1)
0x720|         00                                    |   .            |                    x: 0 0x723-0x723.7 (1)
     |                                               |                |                  [8]{}: in 0x724-0x727.7 (4)
0x720|            fd                                 |    .           |                    prefix: 0xfd (valid) 0x724-0x724.7 (1)
0x720|               0b                              |     .          |                    v128.store: 11 (valid) 0x725-0x725.7 (1)
     |                                               |                |                    m{}: 0x726-0x727.7 (2)
0x720|                  04                           |      .         |                      a: 4 0x726-0x726.7 (1)
0x720|                     05                        |       .        |                      o: 5 0x727-0x727.7 (1)
     |                                               |                |                  [9]{}: in 0x728-0x729.7 (2)
0x720|                        20                     |                |                    local.get: 0x20 (valid) 0x728-0x728.7 (1)
0x720|                           02                  |         .      |                    x: 2 0x729-0x729.7 (1)
     |                                               |                |                  [10]{}: in 0x72a-0x72a.7 (1)
0x720|                              0b               |          .     |                    end: 0xb (valid) 0x72a-0x72a.7 (1)
     |                                               |                |            [27]{}: code 0x72b-0x749.7 (31)
0x720|                                 1e            |           .    |              size: 30 0x72b-0x72b.7 (1)
     |                                               |                |              code{}: 0x72c-0x749.7 (30)
     |                                               |                |                t{}: 0x72c-0x72e.7 (3)
0x720|                                    01         |            .   |                  n: 1 0x72c-0x72c.7 (1)
     |                                               |                |                  x[0:1]: 0x72d-0x72e.7 (2)
     |                                               |                |                    [0]{}: t 0x72d-0x72e.7 (2)
0x720|                                       01      |             .  |                      n: 1 0x72d-0x72d.7 (1)
0x720|                                          7e   |              ~ |                      t: "i64" (0x7e) 0x72e-0x72e.7 (1)
     |                                               |                |                e[0:11]: 0x72f-0x749.7 (27)
     |                                               |                |                  [0]{}: in 0x72f-0x730.7 (2)
0x720|                                             20|                |                    local.get: 0x20 (valid) 0x72f-0x72f.7 (1)
0x730|00                                             |.               |                    x: 0 0x730-0x730.7 (1)
     |                                               |                |                  [1]{}: in 0x731-0x732.7 (2)
0x730|   20                                          |                |                    local.get: 0x20 (valid) 0x731-0x731.7 (1)
0x730|      01                                       |  .             |                    x: 1 0x732-0x732.7 (1)
     |                                               |                |                  [2]{}: in 0x733-0x737.7 (5)
0x730|         fd                                    |   .            |                    prefix: 0xfd (valid) 0x733-0x733.7 (1)
0x730|            59                                 |    Y           |                    v128.store16_lane: 89 (valid) 0x734-0x734.7 (1)
     |                                               |                |                    m{}: 0x735-0x736.7 (2)
0x730|               01                              |     .          |                      a: 1 0x735-0x735.7 (1)
0x730|                  00                           |      .         |                      o: 0 0x736-0x736.7 (1)
0x730|                     05                        |       .        |                    l: 5 0x737-0x737.7 (1)
     |                                               |                |                  [3]{}: in 0x738-0x739.7 (2)
0x730|                        20                     |                |                    local.get: 0x20 (valid) 0x738-0x738.7 (1)
0x730|                           00                  |         .      |                    x: 0 0x739-0x739.7 (1)
     |                                               |                |                  [4]{}: in 0x73a-0x73c.7 (3)
0x730|                              29               |          )     |                    i64.load: 0x29 (valid) 0x73a-0x73a.7 (1)
     |                                               |                |                    m{}: 0x73b-0x73c.7 (2)
0x730|                                 03            |           .    |                      a: 3 0x73b-0x73b.7 (1)
0x730|                                    00         |            .   |                      o: 0 0x73c-0x73c.7 (1)
     |                                               |                |                  [5]{}: in 0x73d-0x73e.7 (2)
0x730|                                       21      |             !  |                    local.set: 0x21 (valid) 0x73d-0x73d.7 (1)
0x730|                                          02   |              . |                    x: 2 0x73e-0x73e.7 (1)
     |                                               |                |                  [6]{}: in 0x73f-0x740.7 (2)
0x730|                                             41|               A|                    i32.const: 0x41 (valid) 0x73f-0x73f.7 (1)
0x740|00                                             |.               |                    n: 0 0x740-0x740.7 (1)
     |                                               |                |                  [7]{}: in 0x741-0x742.7 (2)
0x740|   23                                          | #              |                    global.get: 0x23 (valid) 0x741-0x741.7 (1)
0x740|      00                                       |  .             |                    x: 0 0x742-0x742.7 (1)
     |                                               |                |                  [8]{}: in 0x743-0x746.7 (4)
0x740|         fd                                    |   .            |                    prefix: 0xfd (valid) 0x743-0x743.7 (1)
0x740|            0b                                 |    .           |                    v128.store: 11 (valid) 0x744-0x744.7 (1)
     |                                               |                |                    m{}: 0x745-0x746.7 (2)
0x740|               04                              |     .          |                      a: 4 0x745-0x745.7 (1)
0x740|                  05                           |      .         |                      o: 5 0x746-0x746.7 (1)
     |                                               |                |                  [9]{}: in 0x747-0x748.7 (2)
0x740|                     20                        |                |                    local.get: 0x20 (valid) 0x747-0x747.7 (1)
0x740|                        02                     |        .       |                    x: 2 0x748-0x748.7 (1)
     |                                               |                |                  [10]{}: in 0x749-0x749.7 (1)
0x740|                           0b                  |         .      |                    end: 0xb (valid) 0x749-0x749.7 (1)
     |                                               |                |            [28]{}: code 0x74a-0x768.7 (31)
0x740|                              1e               |          .     |              size: 30 0x74a-0x74a.7 (1)
     |                                               |                |              code{}: 0x74b-0x768.7 (30)
     |                                               |                |                t{}: 0x74b-0x74d.7 (3)
0x740|                                 01            |           .    |                  n: 1 0x74b-0x74b.7 (1)
     |                                               |                |                  x[0:1]: 0x74c-0x74d.7 (2)
     |                                               |                |                    [0]{}: t 0x74c-0x74d.7 (2)
0x740|                                    01         |            .   |                      n: 1 0x74c-0x74c.7 (1)
0x740|                                       7e      |             ~  |                      t: "i64" (0x7e) 0x74d-0x74d.7 (1)
     |                                               |                |                e[0:11]: 0x74e-0x768.7 (27)
     |                                               |                |                  [0]{}: in 0x74e-0x74f.7 (2)
0x740|                                          20   |                |                    local.get: 0x20 (valid) 0x74e-0x74e.7 (1)
0x740|                                             00|               .|                    x: 0 0x74f-0x74f.7 (1)
     |                                               |                |                  [1]{}: in 0x750-0x751.7 (2)
0x750|20                                             |                |                    local.get: 0x20 (valid) 0x750-0x750.7 (1)
0x750|   01                                          | .              |                    x: 1 0x751-0x751.7 (1)
     |                                               |                |                  [2]{}: in 0x752-0x756.7 (5)
0x750|      fd                                       |  .             |                    prefix: 0xfd (valid) 0x752-0x752.7 (1)
0x750|         59                                    |   Y            |                    v128.store16_lane: 89 (valid) 0x753-0x753.7 (1)
     |                                               |                |                    m{}: 0x754-0x755.7 (2)
0x750|            00                                 |    .           |                      a: 0 0x754-0x754.7 (1)
0x750|               00                              |     .          |                      o: 0 0x755-0x755.7 (1)
0x750|                  06                           |      .         |                    l: 6 0x756-0x756.7 (1)
     |                                               |                |                  [3]{}: in 0x757-0x758.7 (2)
0x750|                     20                        |                |                    local.get: 0x20 (valid) 0x757-0x757.7 (1)
0x750|                        00                     |        .       |                    x: 0 0x758-0x758.7 (1)
     |                                               |                |                  [4]{}: in 0x759-0x75b.7 (3)
0x750|                           29                  |         )      |                    i64.load: 0x29 (valid) 0x759-0x759.7 (1)
     |                                               |                |                    m{}: 0x75a-0x75b.7 (2)
0x750|                              03               |          .     |                      a: 3 0x75a-0x75a.7 (1)
0x750|                                 00            |           .    |                      o: 0 0x75b-0x75b.7 (1)
     |                                               |                |                  [5]{}: in 0x75c-0x75d.7 (2)
0x750|                                    21         |            !   |                    local.set: 0x21 (valid) 0x75c-0x75c.7 (1)
0x750|                                       02      |             .  |                    x: 2 0x75d-0x75d.7 (1)
     |                                               |                |                  [6]{}: in 0x75e-0x75f.7 (2)
0x750|                                          41   |              A |                    i32.const: 0x41 (valid) 0x75e-0x75e.7 (1)
0x750|                                             00|               .|                    n: 0 0x75f-0x75f.7 (1)
     |                                               |                |                  [7]{}: in 0x760-0x761.7 (2)
0x760|23                                             |#               |                    global.get: 0x23 (valid) 0x760-0x760.7 (1)
0x760|   00                                          | .              |                    x: 0 0x761-0x761.7 (1)
     |                                               |                |                  [8]{}: in 0x762-0x765.7 (4)
0x760|      fd                                       |  .             |                    prefix: 0xfd (valid) 0x762-0x762.7 (1)
0x760|         0b                                    |   .            |                    v128.store: 11 (valid) 0x763-0x763.7 (1)
     |                                               |                |                    m{}: 0x764-0x765.7 (2)
0x760|            04                                 |    .           |                      a: 4 0x764-0x764.7 (1)
0x760|               06                              |     .          |                      o: 6 0x765-0x765.7 (1)
     |                                               |                |                  [9]{}: in 0x766-0x767.7 (2)
0x760|                  20                           |                |                    local.get: 0x20 (valid) 0x766-0x766.7 (1)
0x760|                     02                        |       .        |                    x: 2 0x767-0x767.7 (1)
     |                                               |                |                  [10]{}: in 0x768-0x768.7 (1)
0x760|                        0b                     |        .       |                    end: 0xb (valid) 0x768-0x768.7 (1)
     |                                               |                |            [29]{}: code 0x769-0x787.7 (31)
0x760|                           1e                  |         .      |              size: 30 0x769-0x769.7 (1)
     |                                               |                |              code{}: 0x76a-0x787.7 (30)
     |                                               |                |                t{}: 0x76a-0x76c.7 (3)
0x760|                              01               |          .     |                  n: 1 0x76a-0x76a.7 (1)
     |                                               |                |                  x[0:1]: 0x76b-0x76c.7 (2)
     |                                               |                |                    [0]{}: t 0x76b-0x76c.7 (2)
0x760|                                 01            |           .    |                      n: 1 0x76b-0x76b.7 (1)
0x760|                                    7e         |            ~   |                      t: "i64" (0x7e) 0x76c-0x76c.7 (1)
     |                                               |                |                e[0:11]: 0x76d-0x787.7 (27)
     |                                               |                |                  [0]{}: in 0x76d-0x76e.7 (2)
0x760|                                       20      |                |                    local.get: 0x20 (valid) 0x76d-0x76d.7 (1)
0x760|                                          00   |              . |                    x: 0 0x76e-0x76e.7 (1)
     |                                               |                |                  [1]{}: in 0x76f-0x770.7 (2)
0x760|                                             20|                |                    local.get: 0x20 (valid) 0x76f-0x76f.7 (1)
0x770|01                                             |.               |                    x: 1 0x770-0x770.7 (1)
     |                                               |                |                  [2]{}: in 0x771-0x775.7 (5)
0x770|   fd                                          | .              |                    prefix: 0xfd (valid) 0x771-0x771.7 (1)
0x770|      59                                       |  Y             |                    v128.store16_lane: 89 (valid) 0x772-0x772.7 (1)
     |                                               |                |                    m{}: 0x773-0x774.7 (2)
0x770|         01                                    |   .            |                      a: 1 0x773-0x773.7 (1)
0x770|            00                                 |    .           |                      o: 0 0x774-0x774.7 (1)
0x770|               06                              |     .          |                    l: 6 0x775-0x775.7 (1)
     |                                               |                |                  [3]{}: in 0x776-0x777.7 (2)
0x770|                  20                           |                |                    local.get: 0x20 (valid) 0x776-0x776.7 (1)
0x770|                     00                        |       .        |                    x: 0 0x777-0x777.7 (1)
     |                                               |                |                  [4]{}: in 0x778-0x77a.7 (3)
0x770|                        29                     |        )       |                    i64.load: 0x29 (valid) 0x778-0x778.7 (1)
     |                                               |                |                    m{}: 0x779-0x77a.7 (2)
0x770|                           03                  |         .      |                      a: 3 0x779-0x779.7 (1)
0x770|                              00               |          .     |                      o: 0 0x77a-0x77a.7 (1)
     |                                               |                |                  [5]{}: in 0x77b-0x77c.7 (2)
0x770|                                 21            |           !    |                    local.set: 0x21 (valid) 0x77b-0x77b.7 (1)
0x770|                                    02         |            .   |                    x: 2 0x77c-0x77c.7 (1)
     |                                               |                |                  [6]{}: in 0x77d-0x77e.7 (2)
0x770|                                       41      |             A  |                    i32.const: 0x41 (valid) 0x77d-0x77d.7 (1)
0x770|                                          00   |              . |                    n: 0 0x77e-0x77e.7 (1)
     |                                               |                |                  [7]{}: in 0x77f-0x780.7 (2)
0x770|                                             23|               #|                    global.get: 0x23 (valid) 0x77f-0x77f.7 (1)
0x780|00                                             |.               |                    x: 0 0x780-0x780.7 (1)
     |                                               |                |                  [8]{}: in 0x781-0x784.7 (4)
0x780|   fd                                          | .              |                    prefix: 0xfd (valid) 0x781-0x781.7 (1)
0x780|      0b                                       |  .             |                    v128.store: 11 (valid) 0x782-0x782.7 (1)
     |                                               |                |                    m{}: 0x783-0x784.7 (2)
0x780|         04                                    |   .            |                      a: 4 0x783-0x783.7 (1)
0x780|            06                                 |    .           |                      o: 6 0x784-0x784.7 (1)
     |                                               |                |                  [9]{}: in 0x785-0x786.7 (2)
0x780|               20                              |                |                    local.get: 0x20 (valid) 0x785-0x785.7 (1)
0x780|                  02                           |      .         |                    x: 2 0x786-0x786.7 (1)
     |                                               |                |                  [10]{}: in 0x787-0x787.7 (1)
0x780|                     0b                        |       .        |                    end: 0xb (valid) 0x787-0x787.7 (1)
     |                                               |                |            [30]{}: code 0x788-0x7a6.7 (31)
0x780|                        1e                     |        .       |              size: 30 0x788-0x788.7 (1)
     |                                               |                |              code{}: 0x789-0x7a6.7 (30)
     |                                               |                |                t{}: 0x789-0x78b.7 (3)
0x780|                           01                  |         .      |                  n: 1 0x789-0x789.7 (1)
     |                                               |                |                  x[0:1]: 0x78a-0x78b.7 (2)
     |                                               |                |                    [0]{}: t 0x78a-0x78b.7 (2)
0x780|                              01               |          .     |                      n: 1 0x78a-0x78a.7 (1)
0x780|                                 7e            |           ~    |                      t: "i64" (0x7e) 0x78b-0x78b.7 (1)
     |                                               |                |                e[0:11]: 0x78c-0x7a6.7 (27)
     |                                               |                |                  [0]{}: in 0x78c-0x78d.7 (2)
0x780|                                    20         |                |                    local.get: 0x20 (valid) 0x78c-0x78c.7 (1)
0x780|                                       00      |             .  |                    x: 0 0x78d-0x78d.7 (1)
     |                                               |                |                  [1]{}: in 0x78e-0x78f.7 (2)
0x780|                                          20   |                |                    local.get: 0x20 (valid) 0x78e-0x78e.7 (1)
0x780|                                             01|               .|                    x: 1 0x78f-0x78f.7 (1)
     |                                               |                |                  [2]{}: in 0x790-0x794.7 (5)
0x790|fd                                             |.               |                    prefix: 0xfd (valid) 0x790-0x790.7 (1)
0x790|   59                                          | Y              |                    v128.store16_lane: 89 (valid) 0x791-0x791.7 (1)
     |                                               |                |                    m{}: 0x792-0x793.7 (2)
0x790|      00                                       |  .             |                      a: 0 0x792-0x792.7 (1)
0x790|         00                                    |   .            |                      o: 0 0x793-0x793.7 (1)
0x790|            07                                 |    .           |                    l: 7 0x794-0x794.7 (1)
     |                                               |                |                  [3]{}: in 0x795-0x796.7 (2)
0x790|               20                              |                |                    local.get: 0x20 (valid) 0x795-0x795.7 (1)
0x790|                  00                           |      .         |                    x: 0 0x796-0x796.7 (1)
     |                                               |                |                  [4]{}: in 0x797-0x799.7 (3)
0x790|                     29                        |       )        |                    i64.load: 0x29 (valid) 0x797-0x797.7 (1)
     |                                               |                |                    m{}: 0x798-0x799.7 (2)
0x790|                        03                     |        .       |                      a: 3 0x798-0x798.7 (1)
0x790|                           00                  |         .      |                      o: 0 0x799-0x799.7 (1)
     |                                               |                |                  [5]{}: in 0x79a-0x79b.7 (2)
0x790|                              21               |          !     |                    local.set: 0x21 (valid) 0x79a-0x79a.7 (1)
0x790|                                 02            |           .    |                    x: 2 0x79b-0x79b.7 (1)
     |                                               |                |                  [6]{}: in 0x79c-0x79d.7 (2)
0x790|                                    41         |            A   |                    i32.const: 0x41 (valid) 0x79c-0x79c.7 (1)
0x790|                                       00      |             .  |                    n: 0 0x79d-0x79d.7 (1)
     |                                               |                |                  [7]{}: in 0x79e-0x79f.7 (2)
0x790|                                          23   |              # |                    global.get: 0x23 (valid) 0x79e-0x79e.7 (1)
0x790|                                             00|               .|                    x: 0 0x79f-0x79f.7 (1)
     |                                               |                |                  [8]{}: in 0x7a0-0x7a3.7 (4)
0x7a0|fd                                             |.               |                    prefix: 0xfd (valid) 0x7a0-0x7a0.7 (1)
0x7a0|   0b                                          | .              |                    v128.store: 11 (valid) 0x7a1-0x7a1.7 (1)
     |                                               |                |                    m{}: 0x7a2-0x7a3.7 (2)
0x7a0|      04                                       |  .             |                      a: 4 0x7a2-0x7a2.7 (1)
0x7a0|         07                                    |   .            |                      o: 7 0x7a3-0x7a3.7 (1)
     |                                               |                |                  [9]{}: in 0x7a4-0x7a5.7 (2)
0x7a0|            20                                 |                |                    local.get: 0x20 (valid) 0x7a4-0x7a4.7 (1)
0x7a0|               02                              |     .          |                    x: 2 0x7a5-0x7a5.7 (1)
     |                                               |                |                  [10]{}: in 0x7a6-0x7a6.7 (1)
0x7a0|                  0b                           |      .         |                    end: 0xb (valid) 0x7a6-0x7a6.7 (1)
     |                                               |                |            [31]{}: code 0x7a7-0x7c5.7 (31)
0x7a0|                     1e                        |       .        |              size: 30 0x7a7-0x7a7.7 (1)
     |                                               |                |              code{}: 0x7a8-0x7c5.7 (30)
     |                                               |                |                t{}: 0x7a8-0x7aa.7 (3)
0x7a0|                        01                     |        .       |                  n: 1 0x7a8-0x7a8.7 (1)
     |                                               |                |                  x[0:1]: 0x7a9-0x7aa.7 (2)
     |                                               |                |                    [0]{}: t 0x7a9-0x7aa.7 (2)
0x7a0|                           01                  |         .      |                      n: 1 0x7a9-0x7a9.7 (1)
0x7a0|                              7e               |          ~     |                      t: "i64" (0x7e) 0x7aa-0x7aa.7 (1)
     |                                               |                |                e[0:11]: 0x7ab-0x7c5.7 (27)
     |                                               |                |                  [0]{}: in 0x7ab-0x7ac.7 (2)
0x7a0|                                 20            |                |                    local.get: 0x20 (valid) 0x7ab-0x7ab.7 (1)
0x7a0|                                    00         |            .   |                    x: 0 0x7ac-0x7ac.7 (1)
     |                                               |                |                  [1]{}: in 0x7ad-0x7ae.7 (2)
0x7a0|                                       20      |                |                    local.get: 0x20 (valid) 0x7ad-0x7ad.7 (1)
0x7a0|                                          01   |              . |                    x: 1 0x7ae-0x7ae.7 (1)
     |                                               |                |                  [2]{}: in 0x7af-0x7b3.7 (5)
0x7a0|                                             fd|               .|                    prefix: 0xfd (valid) 0x7af-0x7af.7 (1)
0x7b0|59                                             |Y               |                    v128.store16_lane: 89 (valid) 0x7b0-0x7b0.7 (1)
     |                                               |                |                    m{}: 0x7b1-0x7b2.7 (2)
0x7b0|   01                                          | .              |                      a: 1 0x7b1-0x7b1.7 (1)
0x7b0|      00                                       |  .             |                      o: 0 0x7b2-0x7b2.7 (1)
0x7b0|         07                                    |   .            |                    l: 7 0x7b3-0x7b3.7 (1)
     |                                               |                |                  [3]{}: in 0x7b4-0x7b5.7 (2)
0x7b0|            20                                 |                |                    local.get: 0x20 (valid) 0x7b4-0x7b4.7 (1)
0x7b0|               00                              |     .          |                    x: 0 0x7b5-0x7b5.7 (1)
     |                                               |                |                  [4]{}: in 0x7b6-0x7b8.7 (3)
0x7b0|                  29                           |      )         |                    i64.load: 0x29 (valid) 0x7b6-0x7b6.7 (1)
     |                                               |                |                    m{}: 0x7b7-0x7b8.7 (2)
0x7b0|                     03                        |       .        |                      a: 3 0x7b7-0x7b7.7 (1)
0x7b0|                        00                     |        .       |                      o: 0 0x7b8-0x7b8.7 (1)
     |                                               |                |                  [5]{}: in 0x7b9-0x7ba.7 (2)
0x7b0|                           21                  |         !      |                    local.set: 0x21 (valid) 0x7b9-0x7b9.7 (1)
0x7b0|                              02               |          .     |                    x: 2 0x7ba-0x7ba.7 (1)
     |                                               |                |                  [6]{}: in 0x7bb-0x7bc.7 (2)
0x7b0|                                 41            |           A    |                    i32.const: 0x41 (valid) 0x7bb-0x7bb.7 (1)
0x7b0|                                    00         |            .   |                    n: 0 0x7bc-0x7bc.7 (1)
     |                                               |                |                  [7]{}: in 0x7bd-0x7be.7 (2)
0x7b0|                                       23      |             #  |                    global.get: 0x23 (valid) 0x7bd-0x7bd.7 (1)
0x7b0|                                          00   |              . |                    x: 0 0x7be-0x7be.7 (1)
     |                                               |                |                  [8]{}: in 0x7bf-0x7c2.7 (4)
0x7b0|                                             fd|               .|                    prefix: 0xfd (valid) 0x7bf-0x7bf.7 (1)
0x7c0|0b                                             |.               |                    v128.store: 11 (valid) 0x7c0-0x7c0.7 (1)
     |                                               |                |                    m{}: 0x7c1-0x7c2.7 (2)
0x7c0|   04                                          | .              |                      a: 4 0x7c1-0x7c1.7 (1)
0x7c0|      07                                       |  .             |                      o: 7 0x7c2-0x7c2.7 (1)
     |                                               |                |                  [9]{}: in 0x7c3-0x7c4.7 (2)
0x7c0|         20                                    |                |                    local.get: 0x20 (valid) 0x7c3-0x7c3.7 (1)
0x7c0|            02                                 |    .           |                    x: 2 0x7c4-0x7c4.7 (1)
     |                                               |                |                  [10]{}: in 0x7c5-0x7c5.7 (1)
0x7c0|               0b|                             |     .|         |                    end: 0xb (valid) 0x7c5-0x7c5.7 (1)
