$ fq -d wasm dv simd_i16x8_arith-0.wasm
    |00 01 02 03 04 05 06 07 08 09 0a 0b 0c 0d 0e 0f|0123456789abcdef|.{}: simd_i16x8_arith-0.wasm (wasm) 0x0-0x79 (121)
0x00|00 61 73 6d                                    |.asm            |  magic: raw bits (valid) 0x0-0x4 (4)
0x00|            01 00 00 00                        |    ....        |  version: 1 0x4-0x8 (4)
    |                                               |                |  sections[0:4]: 0x8-0x79 (113)
    |                                               |                |    [0]{}: section 0x8-0x16 (14)
0x00|                        01                     |        .       |      id: "type_section" (1) 0x8-0x9 (1)
0x00|                           0c                  |         .      |      size: 12 (valid) 0x9-0xa (1)
    |                                               |                |      content{}: 0xa-0x16 (12)
    |                                               |                |        ft{}: 0xa-0x16 (12)
0x00|                              02               |          .     |          n: 2 (valid) 0xa-0xb (1)
    |                                               |                |          x[0:2]: 0xb-0x16 (11)
    |                                               |                |            [0]{}: ft 0xb-0x11 (6)
0x00|                                 60            |           `    |              tag: 0x60 (valid) 0xb-0xc (1)
    |                                               |                |              rt1{}: 0xc-0xf (3)
0x00|                                    02         |            .   |                n: 2 (valid) 0xc-0xd (1)
    |                                               |                |                x[0:2]: 0xd-0xf (2)
0x00|                                       7b      |             {  |                  [0]: "v128" (0x7b) t 0xd-0xe (1)
0x00|                                          7b   |              { |                  [1]: "v128" (0x7b) t 0xe-0xf (1)
    |                                               |                |              rt2{}: 0xf-0x11 (2)
0x00|                                             01|               .|                n: 1 (valid) 0xf-0x10 (1)
    |                                               |                |                x[0:1]: 0x10-0x11 (1)
0x10|7b                                             |{               |                  [0]: "v128" (0x7b) t 0x10-0x11 (1)
    |                                               |                |            [1]{}: ft 0x11-0x16 (5)
0x10|   60                                          | `              |              tag: 0x60 (valid) 0x11-0x12 (1)
    |                                               |                |              rt1{}: 0x12-0x14 (2)
0x10|      01                                       |  .             |                n: 1 (valid) 0x12-0x13 (1)
    |                                               |                |                x[0:1]: 0x13-0x14 (1)
0x10|         7b                                    |   {            |                  [0]: "v128" (0x7b) t 0x13-0x14 (1)
    |                                               |                |              rt2{}: 0x14-0x16 (2)
0x10|            01                                 |    .           |                n: 1 (valid) 0x14-0x15 (1)
    |                                               |                |                x[0:1]: 0x15-0x16 (1)
0x10|               7b                              |     {          |                  [0]: "v128" (0x7b) t 0x15-0x16 (1)
    |                                               |                |    [1]{}: section 0x16-0x1d (7)
0x10|                  03                           |      .         |      id: "function_section" (3) 0x16-0x17 (1)
0x10|                     05                        |       .        |      size: 5 (valid) 0x17-0x18 (1)
    |                                               |                |      content{}: 0x18-0x1d (5)
    |                                               |                |        x{}: 0x18-0x1d (5)
0x10|                        04                     |        .       |          n: 4 (valid) 0x18-0x19 (1)
    |                                               |                |          x[0:4]: 0x19-0x1d (4)
0x10|                           00                  |         .      |            [0]: 0 x (valid) 0x19-0x1a (1)
0x10|                              00               |          .     |            [1]: 0 x (valid) 0x1a-0x1b (1)
0x10|                                 00            |           .    |            [2]: 0 x (valid) 0x1b-0x1c (1)
0x10|                                    01         |            .   |            [3]: 1 x (valid) 0x1c-0x1d (1)
    |                                               |                |    [2]{}: section 0x1d-0x50 (51)
0x10|                                       07      |             .  |      id: "export_section" (7) 0x1d-0x1e (1)
0x10|                                          31   |              1 |      size: 49 (valid) 0x1e-0x1f (1)
    |                                               |                |      content{}: 0x1f-0x50 (49)
    |                                               |                |        ex{}: 0x1f-0x50 (49)
0x10|                                             04|               .|          n: 4 (valid) 0x1f-0x20 (1)
    |                                               |                |          x[0:4]: 0x20-0x50 (48)
    |                                               |                |            [0]{}: ex 0x20-0x2c (12)
    |                                               |                |              nm{}: 0x20-0x2a (10)
0x20|09                                             |.               |                n: 9 (valid) 0x20-0x21 (1)
0x20|   69 31 36 78 38 2e 61 64 64                  | i16x8.add      |                b: "i16x8.add" 0x21-0x2a (9)
    |                                               |                |              d{}: 0x2a-0x2c (2)
0x20|                              00               |          .     |                tag: "funcidx" (0x0) 0x2a-0x2b (1)
0x20|                                 00            |           .    |                x: 0 (valid) 0x2b-0x2c (1)
    |                                               |                |            [1]{}: ex 0x2c-0x38 (12)
    |                                               |                |              nm{}: 0x2c-0x36 (10)
0x20|                                    09         |            .   |                n: 9 (valid) 0x2c-0x2d (1)
0x20|                                       69 31 36|             i16|                b: "i16x8.sub" 0x2d-0x36 (9)
0x30|78 38 2e 73 75 62                              |x8.sub          |
    |                                               |                |              d{}: 0x36-0x38 (2)
0x30|                  00                           |      .         |                tag: "funcidx" (0x0) 0x36-0x37 (1)
0x30|                     01                        |       .        |                x: 1 (valid) 0x37-0x38 (1)
    |                                               |                |            [2]{}: ex 0x38-0x44 (12)
    |                                               |                |              nm{}: 0x38-0x42 (10)
0x30|                        09                     |        .       |                n: 9 (valid) 0x38-0x39 (1)
0x30|                           69 31 36 78 38 2e 6d|         i16x8.m|                b: "i16x8.mul" 0x39-0x42 (9)
0x40|75 6c                                          |ul              |
    |                                               |                |              d{}: 0x42-0x44 (2)
0x40|      00                                       |  .             |                tag: "funcidx" (0x0) 0x42-0x43 (1)
0x40|         02                                    |   .            |                x: 2 (valid) 0x43-0x44 (1)
    |                                               |                |            [3]{}: ex 0x44-0x50 (12)
    |                                               |                |              nm{}: 0x44-0x4e (10)
0x40|            09                                 |    .           |                n: 9 (valid) 0x44-0x45 (1)
0x40|               69 31 36 78 38 2e 6e 65 67      |     i16x8.neg  |                b: "i16x8.neg" 0x45-0x4e (9)
    |                                               |                |              d{}: 0x4e-0x50 (2)
0x40|                                          00   |              . |                tag: "funcidx" (0x0) 0x4e-0x4f (1)
0x40|                                             03|               .|                x: 3 (valid) 0x4f-0x50 (1)
    |                                               |                |    [3]{}: section 0x50-0x79 (41)
0x50|0a                                             |.               |      id: "code_section" (10) 0x50-0x51 (1)
0x50|   27                                          | '              |      size: 39 (valid) 0x51-0x52 (1)
    |                                               |                |      content{}: 0x52-0x79 (39)
    |                                               |                |        code{}: 0x52-0x79 (39)
0x50|      04                                       |  .             |          n: 4 (valid) 0x52-0x53 (1)
    |                                               |                |          x[0:4]: 0x53-0x79 (38)
    |                                               |                |            [0]{}: code 0x53-0x5d (10)
0x50|         09                                    |   .            |              size: 9 (valid) 0x53-0x54 (1)
    |                                               |                |              code{}: 0x54-0x5d (9)
    |                                               |                |                t{}: 0x54-0x55 (1)
0x50|            00                                 |    .           |                  n: 0 (valid) 0x54-0x55 (1)
    |                                               |                |                  x[0:0]: 0x55-0x55 (0)
    |                                               |                |                e[0:4]: 0x55-0x5d (8)
    |                                               |                |                  [0]{}: in 0x55-0x57 (2)
0x50|               20                              |                |                    opcode: "local.get" (0x20) 0x55-0x56 (1)
0x50|                  00                           |      .         |                    x: 0 (valid) 0x56-0x57 (1)
    |                                               |                |                  [1]{}: in 0x57-0x59 (2)
0x50|                     20                        |                |                    opcode: "local.get" (0x20) 0x57-0x58 (1)
0x50|                        01                     |        .       |                    x: 1 (valid) 0x58-0x59 (1)
    |                                               |                |                  [2]{}: in 0x59-0x5c (3)
0x50|                           fd                  |         .      |                    opcode: "vector" (0xfd) 0x59-0x5a (1)
0x50|                              8e 01            |          ..    |                    v_opcode: "i16x8.add" (142) 0x5a-0x5c (2)
    |                                               |                |                  [3]{}: in 0x5c-0x5d (1)
0x50|                                    0b         |            .   |                    opcode: "end" (0xb) 0x5c-0x5d (1)
    |                                               |                |            [1]{}: code 0x5d-0x67 (10)
0x50|                                       09      |             .  |              size: 9 (valid) 0x5d-0x5e (1)
    |                                               |                |              code{}: 0x5e-0x67 (9)
    |                                               |                |                t{}: 0x5e-0x5f (1)
0x50|                                          00   |              . |                  n: 0 (valid) 0x5e-0x5f (1)
    |                                               |                |                  x[0:0]: 0x5f-0x5f (0)
    |                                               |                |                e[0:4]: 0x5f-0x67 (8)
    |                                               |                |                  [0]{}: in 0x5f-0x61 (2)
0x50|                                             20|                |                    opcode: "local.get" (0x20) 0x5f-0x60 (1)
0x60|00                                             |.               |                    x: 0 (valid) 0x60-0x61 (1)
    |                                               |                |                  [1]{}: in 0x61-0x63 (2)
0x60|   20                                          |                |                    opcode: "local.get" (0x20) 0x61-0x62 (1)
0x60|      01                                       |  .             |                    x: 1 (valid) 0x62-0x63 (1)
    |                                               |                |                  [2]{}: in 0x63-0x66 (3)
0x60|         fd                                    |   .            |                    opcode: "vector" (0xfd) 0x63-0x64 (1)
0x60|            91 01                              |    ..          |                    v_opcode: "i16x8.sub" (145) 0x64-0x66 (2)
    |                                               |                |                  [3]{}: in 0x66-0x67 (1)
0x60|                  0b                           |      .         |                    opcode: "end" (0xb) 0x66-0x67 (1)
    |                                               |                |            [2]{}: code 0x67-0x71 (10)
0x60|                     09                        |       .        |              size: 9 (valid) 0x67-0x68 (1)
    |                                               |                |              code{}: 0x68-0x71 (9)
    |                                               |                |                t{}: 0x68-0x69 (1)
0x60|                        00                     |        .       |                  n: 0 (valid) 0x68-0x69 (1)
    |                                               |                |                  x[0:0]: 0x69-0x69 (0)
    |                                               |                |                e[0:4]: 0x69-0x71 (8)
    |                                               |                |                  [0]{}: in 0x69-0x6b (2)
0x60|                           20                  |                |                    opcode: "local.get" (0x20) 0x69-0x6a (1)
0x60|                              00               |          .     |                    x: 0 (valid) 0x6a-0x6b (1)
    |                                               |                |                  [1]{}: in 0x6b-0x6d (2)
0x60|                                 20            |                |                    opcode: "local.get" (0x20) 0x6b-0x6c (1)
0x60|                                    01         |            .   |                    x: 1 (valid) 0x6c-0x6d (1)
    |                                               |                |                  [2]{}: in 0x6d-0x70 (3)
0x60|                                       fd      |             .  |                    opcode: "vector" (0xfd) 0x6d-0x6e (1)
0x60|                                          95 01|              ..|                    v_opcode: "i16x8.mul" (149) 0x6e-0x70 (2)
    |                                               |                |                  [3]{}: in 0x70-0x71 (1)
0x70|0b                                             |.               |                    opcode: "end" (0xb) 0x70-0x71 (1)
    |                                               |                |            [3]{}: code 0x71-0x79 (8)
0x70|   07                                          | .              |              size: 7 (valid) 0x71-0x72 (1)
    |                                               |                |              code{}: 0x72-0x79 (7)
    |                                               |                |                t{}: 0x72-0x73 (1)
0x70|      00                                       |  .             |                  n: 0 (valid) 0x72-0x73 (1)
    |                                               |                |                  x[0:0]: 0x73-0x73 (0)
    |                                               |                |                e[0:3]: 0x73-0x79 (6)
    |                                               |                |                  [0]{}: in 0x73-0x75 (2)
0x70|         20                                    |                |                    opcode: "local.get" (0x20) 0x73-0x74 (1)
0x70|            00                                 |    .           |                    x: 0 (valid) 0x74-0x75 (1)
    |                                               |                |                  [1]{}: in 0x75-0x78 (3)
0x70|               fd                              |     .          |                    opcode: "vector" (0xfd) 0x75-0x76 (1)
0x70|                  81 01                        |      ..        |                    v_opcode: "i16x8.neg" (129) 0x76-0x78 (2)
    |                                               |                |                  [2]{}: in 0x78-0x79 (1)
0x70|                        0b|                    |        .|      |                    opcode: "end" (0xb) 0x78-0x79 (1)
