$ fq -d wasm dv simd_i8x16_arith2-1.wasm
     |00 01 02 03 04 05 06 07 08 09 0a 0b 0c 0d 0e 0f|0123456789abcdef|.{}: simd_i8x16_arith2-1.wasm (wasm) 0x0-0x798 (1944)
0x000|00 61 73 6d                                    |.asm            |  magic: raw bits (valid) 0x0-0x4 (4)
0x000|            01 00 00 00                        |    ....        |  version: 1 0x4-0x8 (4)
     |                                               |                |  sections[0:4]: 0x8-0x798 (1936)
     |                                               |                |    [0]{}: section 0x8-0x1d (21)
0x000|                        01                     |        .       |      id: "type_section" (1) 0x8-0x9 (1)
0x000|                           13                  |         .      |      size: 19 (valid) 0x9-0xa (1)
     |                                               |                |      content{}: 0xa-0x1d (19)
     |                                               |                |        ft{}: 0xa-0x1d (19)
0x000|                              03               |          .     |          n: 3 (valid) 0xa-0xb (1)
     |                                               |                |          x[0:3]: 0xb-0x1d (18)
     |                                               |                |            [0]{}: ft 0xb-0x12 (7)
0x000|                                 60            |           `    |              tag: 0x60 (valid) 0xb-0xc (1)
     |                                               |                |              rt1{}: 0xc-0x10 (4)
0x000|                                    03         |            .   |                n: 3 (valid) 0xc-0xd (1)
     |                                               |                |                x[0:3]: 0xd-0x10 (3)
0x000|                                       7b      |             {  |                  [0]: "v128" (0x7b) t 0xd-0xe (1)
0x000|                                          7b   |              { |                  [1]: "v128" (0x7b) t 0xe-0xf (1)
0x000|                                             7b|               {|                  [2]: "v128" (0x7b) t 0xf-0x10 (1)
     |                                               |                |              rt2{}: 0x10-0x12 (2)
0x010|01                                             |.               |                n: 1 (valid) 0x10-0x11 (1)
     |                                               |                |                x[0:1]: 0x11-0x12 (1)
0x010|   7b                                          | {              |                  [0]: "v128" (0x7b) t 0x11-0x12 (1)
     |                                               |                |            [1]{}: ft 0x12-0x18 (6)
0x010|      60                                       |  `             |              tag: 0x60 (valid) 0x12-0x13 (1)
     |                                               |                |              rt1{}: 0x13-0x16 (3)
0x010|         02                                    |   .            |                n: 2 (valid) 0x13-0x14 (1)
     |                                               |                |                x[0:2]: 0x14-0x16 (2)
0x010|            7b                                 |    {           |                  [0]: "v128" (0x7b) t 0x14-0x15 (1)
0x010|               7b                              |     {          |                  [1]: "v128" (0x7b) t 0x15-0x16 (1)
     |                                               |                |              rt2{}: 0x16-0x18 (2)
0x010|                  01                           |      .         |                n: 1 (valid) 0x16-0x17 (1)
     |                                               |                |                x[0:1]: 0x17-0x18 (1)
0x010|                     7b                        |       {        |                  [0]: "v128" (0x7b) t 0x17-0x18 (1)
     |                                               |                |            [2]{}: ft 0x18-0x1d (5)
0x010|                        60                     |        `       |              tag: 0x60 (valid) 0x18-0x19 (1)
     |                                               |                |              rt1{}: 0x19-0x1b (2)
0x010|                           01                  |         .      |                n: 1 (valid) 0x19-0x1a (1)
     |                                               |                |                x[0:1]: 0x1a-0x1b (1)
0x010|                              7b               |          {     |                  [0]: "v128" (0x7b) t 0x1a-0x1b (1)
     |                                               |                |              rt2{}: 0x1b-0x1d (2)
0x010|                                 01            |           .    |                n: 1 (valid) 0x1b-0x1c (1)
     |                                               |                |                x[0:1]: 0x1c-0x1d (1)
0x010|                                    7b         |            {   |                  [0]: "v128" (0x7b) t 0x1c-0x1d (1)
     |                                               |                |    [1]{}: section 0x1d-0x51 (52)
0x010|                                       03      |             .  |      id: "function_section" (3) 0x1d-0x1e (1)
0x010|                                          32   |              2 |      size: 50 (valid) 0x1e-0x1f (1)
     |                                               |                |      content{}: 0x1f-0x51 (50)
     |                                               |                |        x{}: 0x1f-0x51 (50)
0x010|                                             31|               1|          n: 49 (valid) 0x1f-0x20 (1)
     |                                               |                |          x[0:49]: 0x20-0x51 (49)
0x020|00                                             |.               |            [0]: 0 x (valid) 0x20-0x21 (1)
0x020|   00                                          | .              |            [1]: 0 x (valid) 0x21-0x22 (1)
0x020|      00                                       |  .             |            [2]: 0 x (valid) 0x22-0x23 (1)
0x020|         00                                    |   .            |            [3]: 0 x (valid) 0x23-0x24 (1)
0x020|            00                                 |    .           |            [4]: 0 x (valid) 0x24-0x25 (1)
0x020|               01                              |     .          |            [5]: 1 x (valid) 0x25-0x26 (1)
0x020|                  01                           |      .         |            [6]: 1 x (valid) 0x26-0x27 (1)
0x020|                     01                        |       .        |            [7]: 1 x (valid) 0x27-0x28 (1)
0x020|                        01                     |        .       |            [8]: 1 x (valid) 0x28-0x29 (1)
0x020|                           00                  |         .      |            [9]: 0 x (valid) 0x29-0x2a (1)
0x020|                              00               |          .     |            [10]: 0 x (valid) 0x2a-0x2b (1)
0x020|                                 00            |           .    |            [11]: 0 x (valid) 0x2b-0x2c (1)
0x020|                                    00         |            .   |            [12]: 0 x (valid) 0x2c-0x2d (1)
0x020|                                       00      |             .  |            [13]: 0 x (valid) 0x2d-0x2e (1)
0x020|                                          01   |              . |            [14]: 1 x (valid) 0x2e-0x2f (1)
0x020|                                             01|               .|            [15]: 1 x (valid) 0x2f-0x30 (1)
0x030|01                                             |.               |            [16]: 1 x (valid) 0x30-0x31 (1)
0x030|   01                                          | .              |            [17]: 1 x (valid) 0x31-0x32 (1)
0x030|      00                                       |  .             |            [18]: 0 x (valid) 0x32-0x33 (1)
0x030|         00                                    |   .            |            [19]: 0 x (valid) 0x33-0x34 (1)
0x030|            00                                 |    .           |            [20]: 0 x (valid) 0x34-0x35 (1)
0x030|               00                              |     .          |            [21]: 0 x (valid) 0x35-0x36 (1)
0x030|                  00                           |      .         |            [22]: 0 x (valid) 0x36-0x37 (1)
0x030|                     01                        |       .        |            [23]: 1 x (valid) 0x37-0x38 (1)
0x030|                        01                     |        .       |            [24]: 1 x (valid) 0x38-0x39 (1)
0x030|                           01                  |         .      |            [25]: 1 x (valid) 0x39-0x3a (1)
0x030|                              01               |          .     |            [26]: 1 x (valid) 0x3a-0x3b (1)
0x030|                                 00            |           .    |            [27]: 0 x (valid) 0x3b-0x3c (1)
0x030|                                    00         |            .   |            [28]: 0 x (valid) 0x3c-0x3d (1)
0x030|                                       00      |             .  |            [29]: 0 x (valid) 0x3d-0x3e (1)
0x030|                                          00   |              . |            [30]: 0 x (valid) 0x3e-0x3f (1)
0x030|                                             00|               .|            [31]: 0 x (valid) 0x3f-0x40 (1)
0x040|01                                             |.               |            [32]: 1 x (valid) 0x40-0x41 (1)
0x040|   01                                          | .              |            [33]: 1 x (valid) 0x41-0x42 (1)
0x040|      01                                       |  .             |            [34]: 1 x (valid) 0x42-0x43 (1)
0x040|         01                                    |   .            |            [35]: 1 x (valid) 0x43-0x44 (1)
0x040|            00                                 |    .           |            [36]: 0 x (valid) 0x44-0x45 (1)
0x040|               00                              |     .          |            [37]: 0 x (valid) 0x45-0x46 (1)
0x040|                  00                           |      .         |            [38]: 0 x (valid) 0x46-0x47 (1)
0x040|                     00                        |       .        |            [39]: 0 x (valid) 0x47-0x48 (1)
0x040|                        00                     |        .       |            [40]: 0 x (valid) 0x48-0x49 (1)
0x040|                           01                  |         .      |            [41]: 1 x (valid) 0x49-0x4a (1)
0x040|                              01               |          .     |            [42]: 1 x (valid) 0x4a-0x4b (1)
0x040|                                 01            |           .    |            [43]: 1 x (valid) 0x4b-0x4c (1)
0x040|                                    01         |            .   |            [44]: 1 x (valid) 0x4c-0x4d (1)
0x040|                                       02      |             .  |            [45]: 2 x (valid) 0x4d-0x4e (1)
0x040|                                          02   |              . |            [46]: 2 x (valid) 0x4e-0x4f (1)
0x040|                                             02|               .|            [47]: 2 x (valid) 0x4f-0x50 (1)
0x050|02                                             |.               |            [48]: 2 x (valid) 0x50-0x51 (1)
     |                                               |                |    [2]{}: section 0x51-0x54f (1278)
0x050|   07                                          | .              |      id: "export_section" (7) 0x51-0x52 (1)
0x050|      fb 09                                    |  ..            |      size: 1275 (valid) 0x52-0x54 (2)
     |                                               |                |      content{}: 0x54-0x54f (1275)
     |                                               |                |        ex{}: 0x54-0x54f (1275)
0x050|            31                                 |    1           |          n: 49 (valid) 0x54-0x55 (1)
     |                                               |                |          x[0:49]: 0x55-0x54f (1274)
     |                                               |                |            [0]{}: ex 0x55-0x70 (27)
     |                                               |                |              nm{}: 0x55-0x6e (25)
0x050|               18                              |     .          |                n: 24 (valid) 0x55-0x56 (1)
0x050|                  69 38 78 31 36 2e 6d 69 6e 5f|      i8x16.min_|                b: "i8x16.min_s-i8x16.avgr_u" 0x56-0x6e (24)
0x060|73 2d 69 38 78 31 36 2e 61 76 67 72 5f 75      |s-i8x16.avgr_u  |
     |                                               |                |              d{}: 0x6e-0x70 (2)
0x060|                                          00   |              . |                tag: "funcidx" (0x0) 0x6e-0x6f (1)
0x060|                                             00|               .|                x: 0 (valid) 0x6f-0x70 (1)
     |                                               |                |            [1]{}: ex 0x70-0x8a (26)
     |                                               |                |              nm{}: 0x70-0x88 (24)
0x070|17                                             |.               |                n: 23 (valid) 0x70-0x71 (1)
0x070|   69 38 78 31 36 2e 6d 69 6e 5f 73 2d 69 38 78| i8x16.min_s-i8x|                b: "i8x16.min_s-i8x16.max_u" 0x71-0x88 (23)
0x080|31 36 2e 6d 61 78 5f 75                        |16.max_u        |
     |                                               |                |              d{}: 0x88-0x8a (2)
0x080|                        00                     |        .       |                tag: "funcidx" (0x0) 0x88-0x89 (1)
0x080|                           01                  |         .      |                x: 1 (valid) 0x89-0x8a (1)
     |                                               |                |            [2]{}: ex 0x8a-0xa4 (26)
     |                                               |                |              nm{}: 0x8a-0xa2 (24)
0x080|                              17               |          .     |                n: 23 (valid) 0x8a-0x8b (1)
0x080|                                 69 38 78 31 36|           i8x16|                b: "i8x16.min_s-i8x16.max_s" 0x8b-0xa2 (23)
0x090|2e 6d 69 6e 5f 73 2d 69 38 78 31 36 2e 6d 61 78|.min_s-i8x16.max|
0x0a0|5f 73                                          |_s              |
     |                                               |                |              d{}: 0xa2-0xa4 (2)
0x0a0|      00                                       |  .             |                tag: "funcidx" (0x0) 0xa2-0xa3 (1)
0x0a0|         02                                    |   .            |                x: 2 (valid) 0xa3-0xa4 (1)
     |                                               |                |            [3]{}: ex 0xa4-0xbe (26)
     |                                               |                |              nm{}: 0xa4-0xbc (24)
0x0a0|            17                                 |    .           |                n: 23 (valid) 0xa4-0xa5 (1)
0x0a0|               69 38 78 31 36 2e 6d 69 6e 5f 73|     i8x16.min_s|                b: "i8x16.min_s-i8x16.min_u" 0xa5-0xbc (23)
0x0b0|2d 69 38 78 31 36 2e 6d 69 6e 5f 75            |-i8x16.min_u    |
     |                                               |                |              d{}: 0xbc-0xbe (2)
0x0b0|                                    00         |            .   |                tag: "funcidx" (0x0) 0xbc-0xbd (1)
0x0b0|                                       03      |             .  |                x: 3 (valid) 0xbd-0xbe (1)
     |                                               |                |            [4]{}: ex 0xbe-0xd8 (26)
     |                                               |                |              nm{}: 0xbe-0xd6 (24)
0x0b0|                                          17   |              . |                n: 23 (valid) 0xbe-0xbf (1)
0x0b0|                                             69|               i|                b: "i8x16.min_s-i8x16.min_s" 0xbf-0xd6 (23)
0x0c0|38 78 31 36 2e 6d 69 6e 5f 73 2d 69 38 78 31 36|8x16.min_s-i8x16|
0x0d0|2e 6d 69 6e 5f 73                              |.min_s          |
     |                                               |                |              d{}: 0xd6-0xd8 (2)
0x0d0|                  00                           |      .         |                tag: "funcidx" (0x0) 0xd6-0xd7 (1)
0x0d0|                     04                        |       .        |                x: 4 (valid) 0xd7-0xd8 (1)
     |                                               |                |            [5]{}: ex 0xd8-0xf0 (24)
     |                                               |                |              nm{}: 0xd8-0xee (22)
0x0d0|                        15                     |        .       |                n: 21 (valid) 0xd8-0xd9 (1)
0x0d0|                           69 38 78 31 36 2e 6d|         i8x16.m|                b: "i8x16.min_s-i8x16.abs" 0xd9-0xee (21)
0x0e0|69 6e 5f 73 2d 69 38 78 31 36 2e 61 62 73      |in_s-i8x16.abs  |
     |                                               |                |              d{}: 0xee-0xf0 (2)
0x0e0|                                          00   |              . |                tag: "funcidx" (0x0) 0xee-0xef (1)
0x0e0|                                             05|               .|                x: 5 (valid) 0xef-0xf0 (1)
     |                                               |                |            [6]{}: ex 0xf0-0x108 (24)
     |                                               |                |              nm{}: 0xf0-0x106 (22)
0x0f0|15                                             |.               |                n: 21 (valid) 0xf0-0xf1 (1)
0x0f0|   69 38 78 31 36 2e 61 62 73 2d 69 38 78 31 36| i8x16.abs-i8x16|                b: "i8x16.abs-i8x16.min_s" 0xf1-0x106 (21)
0x100|2e 6d 69 6e 5f 73                              |.min_s          |
     |                                               |                |              d{}: 0x106-0x108 (2)
0x100|                  00                           |      .         |                tag: "funcidx" (0x0) 0x106-0x107 (1)
0x100|                     06                        |       .        |                x: 6 (valid) 0x107-0x108 (1)
     |                                               |                |            [7]{}: ex 0x108-0x123 (27)
     |                                               |                |              nm{}: 0x108-0x121 (25)
0x100|                        18                     |        .       |                n: 24 (valid) 0x108-0x109 (1)
0x100|                           69 38 78 31 36 2e 6d|         i8x16.m|                b: "i8x16.min_s-i8x16.popcnt" 0x109-0x121 (24)
0x110|69 6e 5f 73 2d 69 38 78 31 36 2e 70 6f 70 63 6e|in_s-i8x16.popcn|
0x120|74                                             |t               |
     |                                               |                |              d{}: 0x121-0x123 (2)
0x120|   00                                          | .              |                tag: "funcidx" (0x0) 0x121-0x122 (1)
0x120|      07                                       |  .             |                x: 7 (valid) 0x122-0x123 (1)
     |                                               |                |            [8]{}: ex 0x123-0x13e (27)
     |                                               |                |              nm{}: 0x123-0x13c (25)
0x120|         18                                    |   .            |                n: 24 (valid) 0x123-0x124 (1)
0x120|            69 38 78 31 36 2e 70 6f 70 63 6e 74|    i8x16.popcnt|                b: "i8x16.popcnt-i8x16.min_s" 0x124-0x13c (24)
0x130|2d 69 38 78 31 36 2e 6d 69 6e 5f 73            |-i8x16.min_s    |
     |                                               |                |              d{}: 0x13c-0x13e (2)
0x130|                                    00         |            .   |                tag: "funcidx" (0x0) 0x13c-0x13d (1)
0x130|                                       08      |             .  |                x: 8 (valid) 0x13d-0x13e (1)
     |                                               |                |            [9]{}: ex 0x13e-0x159 (27)
     |                                               |                |              nm{}: 0x13e-0x157 (25)
0x130|                                          18   |              . |                n: 24 (valid) 0x13e-0x13f (1)
0x130|                                             69|               i|                b: "i8x16.min_u-i8x16.avgr_u" 0x13f-0x157 (24)
0x140|38 78 31 36 2e 6d 69 6e 5f 75 2d 69 38 78 31 36|8x16.min_u-i8x16|
0x150|2e 61 76 67 72 5f 75                           |.avgr_u         |
     |                                               |                |              d{}: 0x157-0x159 (2)
0x150|                     00                        |       .        |                tag: "funcidx" (0x0) 0x157-0x158 (1)
0x150|                        09                     |        .       |                x: 9 (valid) 0x158-0x159 (1)
     |                                               |                |            [10]{}: ex 0x159-0x173 (26)
     |                                               |                |              nm{}: 0x159-0x171 (24)
0x150|                           17                  |         .      |                n: 23 (valid) 0x159-0x15a (1)
0x150|                              69 38 78 31 36 2e|          i8x16.|                b: "i8x16.min_u-i8x16.max_u" 0x15a-0x171 (23)
0x160|6d 69 6e 5f 75 2d 69 38 78 31 36 2e 6d 61 78 5f|min_u-i8x16.max_|
0x170|75                                             |u               |
     |                                               |                |              d{}: 0x171-0x173 (2)
0x170|   00                                          | .              |                tag: "funcidx" (0x0) 0x171-0x172 (1)
0x170|      0a                                       |  .             |                x: 10 (valid) 0x172-0x173 (1)
     |                                               |                |            [11]{}: ex 0x173-0x18d (26)
     |                                               |                |              nm{}: 0x173-0x18b (24)
0x170|         17                                    |   .            |                n: 23 (valid) 0x173-0x174 (1)
0x170|            69 38 78 31 36 2e 6d 69 6e 5f 75 2d|    i8x16.min_u-|                b: "i8x16.min_u-i8x16.max_s" 0x174-0x18b (23)
0x180|69 38 78 31 36 2e 6d 61 78 5f 73               |i8x16.max_s     |
     |                                               |                |              d{}: 0x18b-0x18d (2)
0x180|                                 00            |           .    |                tag: "funcidx" (0x0) 0x18b-0x18c (1)
0x180|                                    0b         |            .   |                x: 11 (valid) 0x18c-0x18d (1)
     |                                               |                |            [12]{}: ex 0x18d-0x1a7 (26)
     |                                               |                |              nm{}: 0x18d-0x1a5 (24)
0x180|                                       17      |             .  |                n: 23 (valid) 0x18d-0x18e (1)
0x180|                                          69 38|              i8|                b: "i8x16.min_u-i8x16.min_u" 0x18e-0x1a5 (23)
0x190|78 31 36 2e 6d 69 6e 5f 75 2d 69 38 78 31 36 2e|x16.min_u-i8x16.|
0x1a0|6d 69 6e 5f 75                                 |min_u           |
     |                                               |                |              d{}: 0x1a5-0x1a7 (2)
0x1a0|               00                              |     .          |                tag: "funcidx" (0x0) 0x1a5-0x1a6 (1)
0x1a0|                  0c                           |      .         |                x: 12 (valid) 0x1a6-0x1a7 (1)
     |                                               |                |            [13]{}: ex 0x1a7-0x1c1 (26)
     |                                               |                |              nm{}: 0x1a7-0x1bf (24)
0x1a0|                     17                        |       .        |                n: 23 (valid) 0x1a7-0x1a8 (1)
0x1a0|                        69 38 78 31 36 2e 6d 69|        i8x16.mi|                b: "i8x16.min_u-i8x16.min_s" 0x1a8-0x1bf (23)
0x1b0|6e 5f 75 2d 69 38 78 31 36 2e 6d 69 6e 5f 73   |n_u-i8x16.min_s |
     |                                               |                |              d{}: 0x1bf-0x1c1 (2)
0x1b0|                                             00|               .|                tag: "funcidx" (0x0) 0x1bf-0x1c0 (1)
0x1c0|0d                                             |.               |                x: 13 (valid) 0x1c0-0x1c1 (1)
     |                                               |                |            [14]{}: ex 0x1c1-0x1d9 (24)
     |                                               |                |              nm{}: 0x1c1-0x1d7 (22)
0x1c0|   15                                          | .              |                n: 21 (valid) 0x1c1-0x1c2 (1)
0x1c0|      69 38 78 31 36 2e 6d 69 6e 5f 75 2d 69 38|  i8x16.min_u-i8|                b: "i8x16.min_u-i8x16.abs" 0x1c2-0x1d7 (21)
0x1d0|78 31 36 2e 61 62 73                           |x16.abs         |
     |                                               |                |              d{}: 0x1d7-0x1d9 (2)
0x1d0|                     00                        |       .        |                tag: "funcidx" (0x0) 0x1d7-0x1d8 (1)
0x1d0|                        0e                     |        .       |                x: 14 (valid) 0x1d8-0x1d9 (1)
     |                                               |                |            [15]{}: ex 0x1d9-0x1f1 (24)
     |                                               |                |              nm{}: 0x1d9-0x1ef (22)
0x1d0|                           15                  |         .      |                n: 21 (valid) 0x1d9-0x1da (1)
0x1d0|                              69 38 78 31 36 2e|          i8x16.|                b: "i8x16.abs-i8x16.min_u" 0x1da-0x1ef (21)
0x1e0|61 62 73 2d 69 38 78 31 36 2e 6d 69 6e 5f 75   |abs-i8x16.min_u |
     |                                               |                |              d{}: 0x1ef-0x1f1 (2)
0x1e0|                                             00|               .|                tag: "funcidx" (0x0) 0x1ef-0x1f0 (1)
0x1f0|0f                                             |.               |                x: 15 (valid) 0x1f0-0x1f1 (1)
     |                                               |                |            [16]{}: ex 0x1f1-0x20c (27)
     |                                               |                |              nm{}: 0x1f1-0x20a (25)
0x1f0|   18                                          | .              |                n: 24 (valid) 0x1f1-0x1f2 (1)
0x1f0|      69 38 78 31 36 2e 6d 69 6e 5f 75 2d 69 38|  i8x16.min_u-i8|                b: "i8x16.min_u-i8x16.popcnt" 0x1f2-0x20a (24)
0x200|78 31 36 2e 70 6f 70 63 6e 74                  |x16.popcnt      |
     |                                               |                |              d{}: 0x20a-0x20c (2)
0x200|                              00               |          .     |                tag: "funcidx" (0x0) 0x20a-0x20b (1)
0x200|                                 10            |           .    |                x: 16 (valid) 0x20b-0x20c (1)
     |                                               |                |            [17]{}: ex 0x20c-0x227 (27)
     |                                               |                |              nm{}: 0x20c-0x225 (25)
0x200|                                    18         |            .   |                n: 24 (valid) 0x20c-0x20d (1)
0x200|                                       69 38 78|             i8x|                b: "i8x16.popcnt-i8x16.min_u" 0x20d-0x225 (24)
0x210|31 36 2e 70 6f 70 63 6e 74 2d 69 38 78 31 36 2e|16.popcnt-i8x16.|
0x220|6d 69 6e 5f 75                                 |min_u           |
     |                                               |                |              d{}: 0x225-0x227 (2)
0x220|               00                              |     .          |                tag: "funcidx" (0x0) 0x225-0x226 (1)
0x220|                  11                           |      .         |                x: 17 (valid) 0x226-0x227 (1)
     |                                               |                |            [18]{}: ex 0x227-0x242 (27)
     |                                               |                |              nm{}: 0x227-0x240 (25)
0x220|                     18                        |       .        |                n: 24 (valid) 0x227-0x228 (1)
0x220|                        69 38 78 31 36 2e 6d 61|        i8x16.ma|                b: "i8x16.max_s-i8x16.avgr_u" 0x228-0x240 (24)
0x230|78 5f 73 2d 69 38 78 31 36 2e 61 76 67 72 5f 75|x_s-i8x16.avgr_u|
     |                                               |                |              d{}: 0x240-0x242 (2)
0x240|00                                             |.               |                tag: "funcidx" (0x0) 0x240-0x241 (1)
0x240|   12                                          | .              |                x: 18 (valid) 0x241-0x242 (1)
     |                                               |                |            [19]{}: ex 0x242-0x25c (26)
     |                                               |                |              nm{}: 0x242-0x25a (24)
0x240|      17                                       |  .             |                n: 23 (valid) 0x242-0x243 (1)
0x240|         69 38 78 31 36 2e 6d 61 78 5f 73 2d 69|   i8x16.max_s-i|                b: "i8x16.max_s-i8x16.max_u" 0x243-0x25a (23)
0x250|38 78 31 36 2e 6d 61 78 5f 75                  |8x16.max_u      |
     |                                               |                |              d{}: 0x25a-0x25c (2)
0x250|                              00               |          .     |                tag: "funcidx" (0x0) 0x25a-0x25b (1)
0x250|                                 13            |           .    |                x: 19 (valid) 0x25b-0x25c (1)
     |                                               |                |            [20]{}: ex 0x25c-0x276 (26)
     |                                               |                |              nm{}: 0x25c-0x274 (24)
0x250|                                    17         |            .   |                n: 23 (valid) 0x25c-0x25d (1)
0x250|                                       69 38 78|             i8x|                b: "i8x16.max_s-i8x16.max_s" 0x25d-0x274 (23)
0x260|31 36 2e 6d 61 78 5f 73 2d 69 38 78 31 36 2e 6d|16.max_s-i8x16.m|
0x270|61 78 5f 73                                    |ax_s            |
     |                                               |                |              d{}: 0x274-0x276 (2)
0x270|            00                                 |    .           |                tag: "funcidx" (0x0) 0x274-0x275 (1)
0x270|               14                              |     .          |                x: 20 (valid) 0x275-0x276 (1)
     |                                               |                |            [21]{}: ex 0x276-0x290 (26)
     |                                               |                |              nm{}: 0x276-0x28e (24)
0x270|                  17                           |      .         |                n: 23 (valid) 0x276-0x277 (1)
0x270|                     69 38 78 31 36 2e 6d 61 78|       i8x16.max|                b: "i8x16.max_s-i8x16.min_u" 0x277-0x28e (23)
0x280|5f 73 2d 69 38 78 31 36 2e 6d 69 6e 5f 75      |_s-i8x16.min_u  |
     |                                               |                |              d{}: 0x28e-0x290 (2)
0x280|                                          00   |              . |                tag: "funcidx" (0x0) 0x28e-0x28f (1)
0x280|                                             15|               .|                x: 21 (valid) 0x28f-0x290 (1)
     |                                               |                |            [22]{}: ex 0x290-0x2aa (26)
     |                                               |                |              nm{}: 0x290-0x2a8 (24)
0x290|17                                             |.               |                n: 23 (valid) 0x290-0x291 (1)
0x290|   69 38 78 31 36 2e 6d 61 78 5f 73 2d 69 38 78| i8x16.max_s-i8x|                b: "i8x16.max_s-i8x16.min_s" 0x291-0x2a8 (23)
0x2a0|31 36 2e 6d 69 6e 5f 73                        |16.min_s        |
     |                                               |                |              d{}: 0x2a8-0x2aa (2)
0x2a0|                        00                     |        .       |                tag: "funcidx" (0x0) 0x2a8-0x2a9 (1)
0x2a0|                           16                  |         .      |                x: 22 (valid) 0x2a9-0x2aa (1)
     |                                               |                |            [23]{}: ex 0x2aa-0x2c2 (24)
     |                                               |                |              nm{}: 0x2aa-0x2c0 (22)
0x2a0|                              15               |          .     |                n: 21 (valid) 0x2aa-0x2ab (1)
0x2a0|                                 69 38 78 31 36|           i8x16|                b: "i8x16.max_s-i8x16.abs" 0x2ab-0x2c0 (21)
0x2b0|2e 6d 61 78 5f 73 2d 69 38 78 31 36 2e 61 62 73|.max_s-i8x16.abs|
     |                                               |                |              d{}: 0x2c0-0x2c2 (2)
0x2c0|00                                             |.               |                tag: "funcidx" (0x0) 0x2c0-0x2c1 (1)
0x2c0|   17                                          | .              |                x: 23 (valid) 0x2c1-0x2c2 (1)
     |                                               |                |            [24]{}: ex 0x2c2-0x2da (24)
     |                                               |                |              nm{}: 0x2c2-0x2d8 (22)
0x2c0|      15                                       |  .             |                n: 21 (valid) 0x2c2-0x2c3 (1)
0x2c0|         69 38 78 31 36 2e 61 62 73 2d 69 38 78|   i8x16.abs-i8x|                b: "i8x16.abs-i8x16.max_s" 0x2c3-0x2d8 (21)
0x2d0|31 36 2e 6d 61 78 5f 73                        |16.max_s        |
     |                                               |                |              d{}: 0x2d8-0x2da (2)
0x2d0|                        00                     |        .       |                tag: "funcidx" (0x0) 0x2d8-0x2d9 (1)
0x2d0|                           18                  |         .      |                x: 24 (valid) 0x2d9-0x2da (1)
     |                                               |                |            [25]{}: ex 0x2da-0x2f5 (27)
     |                                               |                |              nm{}: 0x2da-0x2f3 (25)
0x2d0|                              18               |          .     |                n: 24 (valid) 0x2da-0x2db (1)
0x2d0|                                 69 38 78 31 36|           i8x16|                b: "i8x16.max_s-i8x16.popcnt" 0x2db-0x2f3 (24)
0x2e0|2e 6d 61 78 5f 73 2d 69 38 78 31 36 2e 70 6f 70|.max_s-i8x16.pop|
0x2f0|63 6e 74                                       |cnt             |
     |                                               |                |              d{}: 0x2f3-0x2f5 (2)
0x2f0|         00                                    |   .            |                tag: "funcidx" (0x0) 0x2f3-0x2f4 (1)
0x2f0|            19                                 |    .           |                x: 25 (valid) 0x2f4-0x2f5 (1)
     |                                               |                |            [26]{}: ex 0x2f5-0x310 (27)
     |                                               |                |              nm{}: 0x2f5-0x30e (25)
0x2f0|               18                              |     .          |                n: 24 (valid) 0x2f5-0x2f6 (1)
0x2f0|                  69 38 78 31 36 2e 70 6f 70 63|      i8x16.popc|                b: "i8x16.popcnt-i8x16.max_s" 0x2f6-0x30e (24)
0x300|6e 74 2d 69 38 78 31 36 2e 6d 61 78 5f 73      |nt-i8x16.max_s  |
     |                                               |                |              d{}: 0x30e-0x310 (2)
0x300|                                          00   |              . |                tag: "funcidx" (0x0) 0x30e-0x30f (1)
0x300|                                             1a|               .|                x: 26 (valid) 0x30f-0x310 (1)
     |                                               |                |            [27]{}: ex 0x310-0x32b (27)
     |                                               |                |              nm{}: 0x310-0x329 (25)
0x310|18                                             |.               |                n: 24 (valid) 0x310-0x311 (1)
0x310|   69 38 78 31 36 2e 6d 61 78 5f 75 2d 69 38 78| i8x16.max_u-i8x|                b: "i8x16.max_u-i8x16.avgr_u" 0x311-0x329 (24)
0x320|31 36 2e 61 76 67 72 5f 75                     |16.avgr_u       |
     |                                               |                |              d{}: 0x329-0x32b (2)
0x320|                           00                  |         .      |                tag: "funcidx" (0x0) 0x329-0x32a (1)
0x320|                              1b               |          .     |                x: 27 (valid) 0x32a-0x32b (1)
     |                                               |                |            [28]{}: ex 0x32b-0x345 (26)
     |                                               |                |              nm{}: 0x32b-0x343 (24)
0x320|                                 17            |           .    |                n: 23 (valid) 0x32b-0x32c (1)
0x320|                                    69 38 78 31|            i8x1|                b: "i8x16.max_u-i8x16.max_u" 0x32c-0x343 (23)
0x330|36 2e 6d 61 78 5f 75 2d 69 38 78 31 36 2e 6d 61|6.max_u-i8x16.ma|
0x340|78 5f 75                                       |x_u             |
     |                                               |                |              d{}: 0x343-0x345 (2)
0x340|         00                                    |   .            |                tag: "funcidx" (0x0) 0x343-0x344 (1)
0x340|            1c                                 |    .           |                x: 28 (valid) 0x344-0x345 (1)
     |                                               |                |            [29]{}: ex 0x345-0x35f (26)
     |                                               |                |              nm{}: 0x345-0x35d (24)
0x340|               17                              |     .          |                n: 23 (valid) 0x345-0x346 (1)
0x340|                  69 38 78 31 36 2e 6d 61 78 5f|      i8x16.max_|                b: "i8x16.max_u-i8x16.max_s" 0x346-0x35d (23)
0x350|75 2d 69 38 78 31 36 2e 6d 61 78 5f 73         |u-i8x16.max_s   |
     |                                               |                |              d{}: 0x35d-0x35f (2)
0x350|                                       00      |             .  |                tag: "funcidx" (0x0) 0x35d-0x35e (1)
0x350|                                          1d   |              . |                x: 29 (valid) 0x35e-0x35f (1)
     |                                               |                |            [30]{}: ex 0x35f-0x379 (26)
     |                                               |                |              nm{}: 0x35f-0x377 (24)
0x350|                                             17|               .|                n: 23 (valid) 0x35f-0x360 (1)
0x360|69 38 78 31 36 2e 6d 61 78 5f 75 2d 69 38 78 31|i8x16.max_u-i8x1|                b: "i8x16.max_u-i8x16.min_u" 0x360-0x377 (23)
0x370|36 2e 6d 69 6e 5f 75                           |6.min_u         |
     |                                               |                |              d{}: 0x377-0x379 (2)
0x370|                     00                        |       .        |                tag: "funcidx" (0x0) 0x377-0x378 (1)
0x370|                        1e                     |        .       |                x: 30 (valid) 0x378-0x379 (1)
     |                                               |                |            [31]{}: ex 0x379-0x393 (26)
     |                                               |                |              nm{}: 0x379-0x391 (24)
0x370|                           17                  |         .      |                n: 23 (valid) 0x379-0x37a (1)
0x370|                              69 38 78 31 36 2e|          i8x16.|                b: "i8x16.max_u-i8x16.min_s" 0x37a-0x391 (23)
0x380|6d 61 78 5f 75 2d 69 38 78 31 36 2e 6d 69 6e 5f|max_u-i8x16.min_|
0x390|73                                             |s               |
     |                                               |                |              d{}: 0x391-0x393 (2)
0x390|   00                                          | .              |                tag: "funcidx" (0x0) 0x391-0x392 (1)
0x390|      1f                                       |  .             |                x: 31 (valid) 0x392-0x393 (1)
     |                                               |                |            [32]{}: ex 0x393-0x3ab (24)
     |                                               |                |              nm{}: 0x393-0x3a9 (22)
0x390|         15                                    |   .            |                n: 21 (valid) 0x393-0x394 (1)
0x390|            69 38 78 31 36 2e 6d 61 78 5f 75 2d|    i8x16.max_u-|                b: "i8x16.max_u-i8x16.abs" 0x394-0x3a9 (21)
0x3a0|69 38 78 31 36 2e 61 62 73                     |i8x16.abs       |
     |                                               |                |              d{}: 0x3a9-0x3ab (2)
0x3a0|                           00                  |         .      |                tag: "funcidx" (0x0) 0x3a9-0x3aa (1)
0x3a0|                              20               |                |                x: 32 (valid) 0x3aa-0x3ab (1)
     |                                               |                |            [33]{}: ex 0x3ab-0x3c3 (24)
     |                                               |                |              nm{}: 0x3ab-0x3c1 (22)
0x3a0|                                 15            |           .    |                n: 21 (valid) 0x3ab-0x3ac (1)
0x3a0|                                    69 38 78 31|            i8x1|                b: "i8x16.abs-i8x16.max_u" 0x3ac-0x3c1 (21)
0x3b0|36 2e 61 62 73 2d 69 38 78 31 36 2e 6d 61 78 5f|6.abs-i8x16.max_|
0x3c0|75                                             |u               |
     |                                               |                |              d{}: 0x3c1-0x3c3 (2)
0x3c0|   00                                          | .              |                tag: "funcidx" (0x0) 0x3c1-0x3c2 (1)
0x3c0|      21                                       |  !             |                x: 33 (valid) 0x3c2-0x3c3 (1)
     |                                               |                |            [34]{}: ex 0x3c3-0x3de (27)
     |                                               |                |              nm{}: 0x3c3-0x3dc (25)
0x3c0|         18                                    |   .            |                n: 24 (valid) 0x3c3-0x3c4 (1)
0x3c0|            69 38 78 31 36 2e 6d 61 78 5f 75 2d|    i8x16.max_u-|                b: "i8x16.max_u-i8x16.popcnt" 0x3c4-0x3dc (24)
0x3d0|69 38 78 31 36 2e 70 6f 70 63 6e 74            |i8x16.popcnt    |
     |                                               |                |              d{}: 0x3dc-0x3de (2)
0x3d0|                                    00         |            .   |                tag: "funcidx" (0x0) 0x3dc-0x3dd (1)
0x3d0|                                       22      |             "  |                x: 34 (valid) 0x3dd-0x3de (1)
     |                                               |                |            [35]{}: ex 0x3de-0x3f9 (27)
     |                                               |                |              nm{}: 0x3de-0x3f7 (25)
0x3d0|                                          18   |              . |                n: 24 (valid) 0x3de-0x3df (1)
0x3d0|                                             69|               i|                b: "i8x16.popcnt-i8x16.max_u" 0x3df-0x3f7 (24)
0x3e0|38 78 31 36 2e 70 6f 70 63 6e 74 2d 69 38 78 31|8x16.popcnt-i8x1|
0x3f0|36 2e 6d 61 78 5f 75                           |6.max_u         |
     |                                               |                |              d{}: 0x3f7-0x3f9 (2)
0x3f0|                     00                        |       .        |                tag: "funcidx" (0x0) 0x3f7-0x3f8 (1)
0x3f0|                        23                     |        #       |                x: 35 (valid) 0x3f8-0x3f9 (1)
     |                                               |                |            [36]{}: ex 0x3f9-0x415 (28)
     |                                               |                |              nm{}: 0x3f9-0x413 (26)
0x3f0|                           19                  |         .      |                n: 25 (valid) 0x3f9-0x3fa (1)
0x3f0|                              69 38 78 31 36 2e|          i8x16.|                b: "i8x16.avgr_u-i8x16.avgr_u" 0x3fa-0x413 (25)
0x400|61 76 67 72 5f 75 2d 69 38 78 31 36 2e 61 76 67|avgr_u-i8x16.avg|
0x410|72 5f 75                                       |r_u             |
     |                                               |                |              d{}: 0x413-0x415 (2)
0x410|         00                                    |   .            |                tag: "funcidx" (0x0) 0x413-0x414 (1)
0x410|            24                                 |    $           |                x: 36 (valid) 0x414-0x415 (1)
     |                                               |                |            [37]{}: ex 0x415-0x430 (27)
     |                                               |                |              nm{}: 0x415-0x42e (25)
0x410|               18                              |     .          |                n: 24 (valid) 0x415-0x416 (1)
0x410|                  69 38 78 31 36 2e 61 76 67 72|      i8x16.avgr|                b: "i8x16.avgr_u-i8x16.max_u" 0x416-0x42e (24)
0x420|5f 75 2d 69 38 78 31 36 2e 6d 61 78 5f 75      |_u-i8x16.max_u  |
     |                                               |                |              d{}: 0x42e-0x430 (2)
0x420|                                          00   |              . |                tag: "funcidx" (0x0) 0x42e-0x42f (1)
0x420|                                             25|               %|                x: 37 (valid) 0x42f-0x430 (1)
     |                                               |                |            [38]{}: ex 0x430-0x44b (27)
     |                                               |                |              nm{}: 0x430-0x449 (25)
0x430|18                                             |.               |                n: 24 (valid) 0x430-0x431 (1)
0x430|   69 38 78 31 36 2e 61 76 67 72 5f 75 2d 69 38| i8x16.avgr_u-i8|                b: "i8x16.avgr_u-i8x16.max_s" 0x431-0x449 (24)
0x440|78 31 36 2e 6d 61 78 5f 73                     |x16.max_s       |
     |                                               |                |              d{}: 0x449-0x44b (2)
0x440|                           00                  |         .      |                tag: "funcidx" (0x0) 0x449-0x44a (1)
0x440|                              26               |          &     |                x: 38 (valid) 0x44a-0x44b (1)
     |                                               |                |            [39]{}: ex 0x44b-0x466 (27)
     |                                               |                |              nm{}: 0x44b-0x464 (25)
0x440|                                 18            |           .    |                n: 24 (valid) 0x44b-0x44c (1)
0x440|                                    69 38 78 31|            i8x1|                b: "i8x16.avgr_u-i8x16.min_u" 0x44c-0x464 (24)
0x450|36 2e 61 76 67 72 5f 75 2d 69 38 78 31 36 2e 6d|6.avgr_u-i8x16.m|
0x460|69 6e 5f 75                                    |in_u            |
     |                                               |                |              d{}: 0x464-0x466 (2)
0x460|            00                                 |    .           |                tag: "funcidx" (0x0) 0x464-0x465 (1)
0x460|               27                              |     '          |                x: 39 (valid) 0x465-0x466 (1)
     |                                               |                |            [40]{}: ex 0x466-0x481 (27)
     |                                               |                |              nm{}: 0x466-0x47f (25)
0x460|                  18                           |      .         |                n: 24 (valid) 0x466-0x467 (1)
0x460|                     69 38 78 31 36 2e 61 76 67|       i8x16.avg|                b: "i8x16.avgr_u-i8x16.min_s" 0x467-0x47f (24)
0x470|72 5f 75 2d 69 38 78 31 36 2e 6d 69 6e 5f 73   |r_u-i8x16.min_s |
     |                                               |                |              d{}: 0x47f-0x481 (2)
0x470|                                             00|               .|                tag: "funcidx" (0x0) 0x47f-0x480 (1)
0x480|28                                             |(               |                x: 40 (valid) 0x480-0x481 (1)
     |                                               |                |            [41]{}: ex 0x481-0x49a (25)
     |                                               |                |              nm{}: 0x481-0x498 (23)
0x480|   16                                          | .              |                n: 22 (valid) 0x481-0x482 (1)
0x480|      69 38 78 31 36 2e 61 76 67 72 5f 75 2d 69|  i8x16.avgr_u-i|                b: "i8x16.avgr_u-i8x16.abs" 0x482-0x498 (22)
0x490|38 78 31 36 2e 61 62 73                        |8x16.abs        |
     |                                               |                |              d{}: 0x498-0x49a (2)
0x490|                        00                     |        .       |                tag: "funcidx" (0x0) 0x498-0x499 (1)
0x490|                           29                  |         )      |                x: 41 (valid) 0x499-0x49a (1)
     |                                               |                |            [42]{}: ex 0x49a-0x4b3 (25)
     |                                               |                |              nm{}: 0x49a-0x4b1 (23)
0x490|                              16               |          .     |                n: 22 (valid) 0x49a-0x49b (1)
0x490|                                 69 38 78 31 36|           i8x16|                b: "i8x16.abs-i8x16.avgr_u" 0x49b-0x4b1 (22)
0x4a0|2e 61 62 73 2d 69 38 78 31 36 2e 61 76 67 72 5f|.abs-i8x16.avgr_|
0x4b0|75                                             |u               |
     |                                               |                |              d{}: 0x4b1-0x4b3 (2)
0x4b0|   00                                          | .              |                tag: "funcidx" (0x0) 0x4b1-0x4b2 (1)
0x4b0|      2a                                       |  *             |                x: 42 (valid) 0x4b2-0x4b3 (1)
     |                                               |                |            [43]{}: ex 0x4b3-0x4cf (28)
     |                                               |                |              nm{}: 0x4b3-0x4cd (26)
0x4b0|         19                                    |   .            |                n: 25 (valid) 0x4b3-0x4b4 (1)
0x4b0|            69 38 78 31 36 2e 61 76 67 72 5f 75|    i8x16.avgr_u|                b: "i8x16.avgr_u-i8x16.popcnt" 0x4b4-0x4cd (25)
0x4c0|2d 69 38 78 31 36 2e 70 6f 70 63 6e 74         |-i8x16.popcnt   |
     |                                               |                |              d{}: 0x4cd-0x4cf (2)
0x4c0|                                       00      |             .  |                tag: "funcidx" (0x0) 0x4cd-0x4ce (1)
0x4c0|                                          2b   |              + |                x: 43 (valid) 0x4ce-0x4cf (1)
     |                                               |                |            [44]{}: ex 0x4cf-0x4eb (28)
     |                                               |                |              nm{}: 0x4cf-0x4e9 (26)
0x4c0|                                             19|               .|                n: 25 (valid) 0x4cf-0x4d0 (1)
0x4d0|69 38 78 31 36 2e 70 6f 70 63 6e 74 2d 69 38 78|i8x16.popcnt-i8x|                b: "i8x16.popcnt-i8x16.avgr_u" 0x4d0-0x4e9 (25)
0x4e0|31 36 2e 61 76 67 72 5f 75                     |16.avgr_u       |
     |                                               |                |              d{}: 0x4e9-0x4eb (2)
0x4e0|                           00                  |         .      |                tag: "funcidx" (0x0) 0x4e9-0x4ea (1)
0x4e0|                              2c               |          ,     |                x: 44 (valid) 0x4ea-0x4eb (1)
     |                                               |                |            [45]{}: ex 0x4eb-0x504 (25)
     |                                               |                |              nm{}: 0x4eb-0x502 (23)
0x4e0|                                 16            |           .    |                n: 22 (valid) 0x4eb-0x4ec (1)
0x4e0|                                    69 38 78 31|            i8x1|                b: "i8x16.abs-i8x16.popcnt" 0x4ec-0x502 (22)
0x4f0|36 2e 61 62 73 2d 69 38 78 31 36 2e 70 6f 70 63|6.abs-i8x16.popc|
0x500|6e 74                                          |nt              |
     |                                               |                |              d{}: 0x502-0x504 (2)
0x500|      00                                       |  .             |                tag: "funcidx" (0x0) 0x502-0x503 (1)
0x500|         2d                                    |   -            |                x: 45 (valid) 0x503-0x504 (1)
     |                                               |                |            [46]{}: ex 0x504-0x51a (22)
     |                                               |                |              nm{}: 0x504-0x518 (20)
0x500|            13                                 |    .           |                n: 19 (valid) 0x504-0x505 (1)
0x500|               69 38 78 31 36 2e 61 62 73 2d 69|     i8x16.abs-i|                b: "i8x16.abs-i8x16.abs" 0x505-0x518 (19)
0x510|38 78 31 36 2e 61 62 73                        |8x16.abs        |
     |                                               |                |              d{}: 0x518-0x51a (2)
0x510|                        00                     |        .       |                tag: "funcidx" (0x0) 0x518-0x519 (1)
0x510|                           2e                  |         .      |                x: 46 (valid) 0x519-0x51a (1)
     |                                               |                |            [47]{}: ex 0x51a-0x536 (28)
     |                                               |                |              nm{}: 0x51a-0x534 (26)
0x510|                              19               |          .     |                n: 25 (valid) 0x51a-0x51b (1)
0x510|                                 69 38 78 31 36|           i8x16|                b: "i8x16.popcnt-i8x16.popcnt" 0x51b-0x534 (25)
0x520|2e 70 6f 70 63 6e 74 2d 69 38 78 31 36 2e 70 6f|.popcnt-i8x16.po|
0x530|70 63 6e 74                                    |pcnt            |
     |                                               |                |              d{}: 0x534-0x536 (2)
0x530|            00                                 |    .           |                tag: "funcidx" (0x0) 0x534-0x535 (1)
0x530|               2f                              |     /          |                x: 47 (valid) 0x535-0x536 (1)
     |                                               |                |            [48]{}: ex 0x536-0x54f (25)
     |                                               |                |              nm{}: 0x536-0x54d (23)
0x530|                  16                           |      .         |                n: 22 (valid) 0x536-0x537 (1)
0x530|                     69 38 78 31 36 2e 70 6f 70|       i8x16.pop|                b: "i8x16.popcnt-i8x16.abs" 0x537-0x54d (22)
0x540|63 6e 74 2d 69 38 78 31 36 2e 61 62 73         |cnt-i8x16.abs   |
     |                                               |                |              d{}: 0x54d-0x54f (2)
0x540|                                       00      |             .  |                tag: "funcidx" (0x0) 0x54d-0x54e (1)
0x540|                                          30   |              0 |                x: 48 (valid) 0x54e-0x54f (1)
     |                                               |                |    [3]{}: section 0x54f-0x798 (585)
0x540|                                             0a|               .|      id: "code_section" (10) 0x54f-0x550 (1)
0x550|c6 04                                          |..              |      size: 582 (valid) 0x550-0x552 (2)
     |                                               |                |      content{}: 0x552-0x798 (582)
     |                                               |                |        code{}: 0x552-0x798 (582)
0x550|      31                                       |  1             |          n: 49 (valid) 0x552-0x553 (1)
     |                                               |                |          x[0:49]: 0x553-0x798 (581)
     |                                               |                |            [0]{}: code 0x553-0x560 (13)
0x550|         0c                                    |   .            |              size: 12 (valid) 0x553-0x554 (1)
     |                                               |                |              code{}: 0x554-0x560 (12)
     |                                               |                |                t{}: 0x554-0x555 (1)
0x550|            00                                 |    .           |                  n: 0 (valid) 0x554-0x555 (1)
     |                                               |                |                  x[0:0]: 0x555-0x555 (0)
     |                                               |                |                e[0:6]: 0x555-0x560 (11)
     |                                               |                |                  [0]{}: in 0x555-0x557 (2)
0x550|               20                              |                |                    opcode: "local.get" (0x20) 0x555-0x556 (1)
0x550|                  00                           |      .         |                    x: 0 (valid) 0x556-0x557 (1)
     |                                               |                |                  [1]{}: in 0x557-0x559 (2)
0x550|                     20                        |                |                    opcode: "local.get" (0x20) 0x557-0x558 (1)
0x550|                        01                     |        .       |                    x: 1 (valid) 0x558-0x559 (1)
     |                                               |                |                  [2]{}: in 0x559-0x55b (2)
0x550|                           fd                  |         .      |                    opcode: "vector" (0xfd) 0x559-0x55a (1)
0x550|                              7b               |          {     |                    v_opcode: "i8x16.avgr_u" (123) 0x55a-0x55b (1)
     |                                               |                |                  [3]{}: in 0x55b-0x55d (2)
0x550|                                 20            |                |                    opcode: "local.get" (0x20) 0x55b-0x55c (1)
0x550|                                    02         |            .   |                    x: 2 (valid) 0x55c-0x55d (1)
     |                                               |                |                  [4]{}: in 0x55d-0x55f (2)
0x550|                                       fd      |             .  |                    opcode: "vector" (0xfd) 0x55d-0x55e (1)
0x550|                                          76   |              v |                    v_opcode: "i8x16.min_s" (118) 0x55e-0x55f (1)
     |                                               |                |                  [5]{}: in 0x55f-0x560 (1)
0x550|                                             0b|               .|                    opcode: "end" (0xb) 0x55f-0x560 (1)
     |                                               |                |            [1]{}: code 0x560-0x56d (13)
0x560|0c                                             |.               |              size: 12 (valid) 0x560-0x561 (1)
     |                                               |                |              code{}: 0x561-0x56d (12)
     |                                               |                |                t{}: 0x561-0x562 (1)
0x560|   00                                          | .              |                  n: 0 (valid) 0x561-0x562 (1)
     |                                               |                |                  x[0:0]: 0x562-0x562 (0)
     |                                               |                |                e[0:6]: 0x562-0x56d (11)
     |                                               |                |                  [0]{}: in 0x562-0x564 (2)
0x560|      20                                       |                |                    opcode: "local.get" (0x20) 0x562-0x563 (1)
0x560|         00                                    |   .            |                    x: 0 (valid) 0x563-0x564 (1)
     |                                               |                |                  [1]{}: in 0x564-0x566 (2)
0x560|            20                                 |                |                    opcode: "local.get" (0x20) 0x564-0x565 (1)
0x560|               01                              |     .          |                    x: 1 (valid) 0x565-0x566 (1)
     |                                               |                |                  [2]{}: in 0x566-0x568 (2)
0x560|                  fd                           |      .         |                    opcode: "vector" (0xfd) 0x566-0x567 (1)
0x560|                     79                        |       y        |                    v_opcode: "i8x16.max_u" (121) 0x567-0x568 (1)
     |                                               |                |                  [3]{}: in 0x568-0x56a (2)
0x560|                        20                     |                |                    opcode: "local.get" (0x20) 0x568-0x569 (1)
0x560|                           02                  |         .      |                    x: 2 (valid) 0x569-0x56a (1)
     |                                               |                |                  [4]{}: in 0x56a-0x56c (2)
0x560|                              fd               |          .     |                    opcode: "vector" (0xfd) 0x56a-0x56b (1)
0x560|                                 76            |           v    |                    v_opcode: "i8x16.min_s" (118) 0x56b-0x56c (1)
     |                                               |                |                  [5]{}: in 0x56c-0x56d (1)
0x560|                                    0b         |            .   |                    opcode: "end" (0xb) 0x56c-0x56d (1)
     |                                               |                |            [2]{}: code 0x56d-0x57a (13)
0x560|                                       0c      |             .  |              size: 12 (valid) 0x56d-0x56e (1)
     |                                               |                |              code{}: 0x56e-0x57a (12)
     |                                               |                |                t{}: 0x56e-0x56f (1)
0x560|                                          00   |              . |                  n: 0 (valid) 0x56e-0x56f (1)
     |                                               |                |                  x[0:0]: 0x56f-0x56f (0)
     |                                               |                |                e[0:6]: 0x56f-0x57a (11)
     |                                               |                |                  [0]{}: in 0x56f-0x571 (2)
0x560|                                             20|                |                    opcode: "local.get" (0x20) 0x56f-0x570 (1)
0x570|00                                             |.               |                    x: 0 (valid) 0x570-0x571 (1)
     |                                               |                |                  [1]{}: in 0x571-0x573 (2)
0x570|   20                                          |                |                    opcode: "local.get" (0x20) 0x571-0x572 (1)
0x570|      01                                       |  .             |                    x: 1 (valid) 0x572-0x573 (1)
     |                                               |                |                  [2]{}: in 0x573-0x575 (2)
0x570|         fd                                    |   .            |                    opcode: "vector" (0xfd) 0x573-0x574 (1)
0x570|            78                                 |    x           |                    v_opcode: "i8x16.max_s" (120) 0x574-0x575 (1)
     |                                               |                |                  [3]{}: in 0x575-0x577 (2)
0x570|               20                              |                |                    opcode: "local.get" (0x20) 0x575-0x576 (1)
0x570|                  02                           |      .         |                    x: 2 (valid) 0x576-0x577 (1)
     |                                               |                |                  [4]{}: in 0x577-0x579 (2)
0x570|                     fd                        |       .        |                    opcode: "vector" (0xfd) 0x577-0x578 (1)
0x570|                        76                     |        v       |                    v_opcode: "i8x16.min_s" (118) 0x578-0x579 (1)
     |                                               |                |                  [5]{}: in 0x579-0x57a (1)
0x570|                           0b                  |         .      |                    opcode: "end" (0xb) 0x579-0x57a (1)
     |                                               |                |            [3]{}: code 0x57a-0x587 (13)
0x570|                              0c               |          .     |              size: 12 (valid) 0x57a-0x57b (1)
     |                                               |                |              code{}: 0x57b-0x587 (12)
     |                                               |                |                t{}: 0x57b-0x57c (1)
0x570|                                 00            |           .    |                  n: 0 (valid) 0x57b-0x57c (1)
     |                                               |                |                  x[0:0]: 0x57c-0x57c (0)
     |                                               |                |                e[0:6]: 0x57c-0x587 (11)
     |                                               |                |                  [0]{}: in 0x57c-0x57e (2)
0x570|                                    20         |                |                    opcode: "local.get" (0x20) 0x57c-0x57d (1)
0x570|                                       00      |             .  |                    x: 0 (valid) 0x57d-0x57e (1)
     |                                               |                |                  [1]{}: in 0x57e-0x580 (2)
0x570|                                          20   |                |                    opcode: "local.get" (0x20) 0x57e-0x57f (1)
0x570|                                             01|               .|                    x: 1 (valid) 0x57f-0x580 (1)
     |                                               |                |                  [2]{}: in 0x580-0x582 (2)
0x580|fd                                             |.               |                    opcode: "vector" (0xfd) 0x580-0x581 (1)
0x580|   77                                          | w              |                    v_opcode: "i8x16.min_u" (119) 0x581-0x582 (1)
     |                                               |                |                  [3]{}: in 0x582-0x584 (2)
0x580|      20                                       |                |                    opcode: "local.get" (0x20) 0x582-0x583 (1)
0x580|         02                                    |   .            |                    x: 2 (valid) 0x583-0x584 (1)
     |                                               |                |                  [4]{}: in 0x584-0x586 (2)
0x580|            fd                                 |    .           |                    opcode: "vector" (0xfd) 0x584-0x585 (1)
0x580|               76                              |     v          |                    v_opcode: "i8x16.min_s" (118) 0x585-0x586 (1)
     |                                               |                |                  [5]{}: in 0x586-0x587 (1)
0x580|                  0b                           |      .         |                    opcode: "end" (0xb) 0x586-0x587 (1)
     |                                               |                |            [4]{}: code 0x587-0x594 (13)
0x580|                     0c                        |       .        |              size: 12 (valid) 0x587-0x588 (1)
     |                                               |                |              code{}: 0x588-0x594 (12)
     |                                               |                |                t{}: 0x588-0x589 (1)
0x580|                        00                     |        .       |                  n: 0 (valid) 0x588-0x589 (1)
     |                                               |                |                  x[0:0]: 0x589-0x589 (0)
     |                                               |                |                e[0:6]: 0x589-0x594 (11)
     |                                               |                |                  [0]{}: in 0x589-0x58b (2)
0x580|                           20                  |                |                    opcode: "local.get" (0x20) 0x589-0x58a (1)
0x580|                              00               |          .     |                    x: 0 (valid) 0x58a-0x58b (1)
     |                                               |                |                  [1]{}: in 0x58b-0x58d (2)
0x580|                                 20            |                |                    opcode: "local.get" (0x20) 0x58b-0x58c (1)
0x580|                                    01         |            .   |                    x: 1 (valid) 0x58c-0x58d (1)
     |                                               |                |                  [2]{}: in 0x58d-0x58f (2)
0x580|                                       fd      |             .  |                    opcode: "vector" (0xfd) 0x58d-0x58e (1)
0x580|                                          76   |              v |                    v_opcode: "i8x16.min_s" (118) 0x58e-0x58f (1)
     |                                               |                |                  [3]{}: in 0x58f-0x591 (2)
0x580|                                             20|                |                    opcode: "local.get" (0x20) 0x58f-0x590 (1)
0x590|02                                             |.               |                    x: 2 (valid) 0x590-0x591 (1)
     |                                               |                |                  [4]{}: in 0x591-0x593 (2)
0x590|   fd                                          | .              |                    opcode: "vector" (0xfd) 0x591-0x592 (1)
0x590|      76                                       |  v             |                    v_opcode: "i8x16.min_s" (118) 0x592-0x593 (1)
     |                                               |                |                  [5]{}: in 0x593-0x594 (1)
0x590|         0b                                    |   .            |                    opcode: "end" (0xb) 0x593-0x594 (1)
     |                                               |                |            [5]{}: code 0x594-0x59f (11)
0x590|            0a                                 |    .           |              size: 10 (valid) 0x594-0x595 (1)
     |                                               |                |              code{}: 0x595-0x59f (10)
     |                                               |                |                t{}: 0x595-0x596 (1)
0x590|               00                              |     .          |                  n: 0 (valid) 0x595-0x596 (1)
     |                                               |                |                  x[0:0]: 0x596-0x596 (0)
     |                                               |                |                e[0:5]: 0x596-0x59f (9)
     |                                               |                |                  [0]{}: in 0x596-0x598 (2)
0x590|                  20                           |                |                    opcode: "local.get" (0x20) 0x596-0x597 (1)
0x590|                     00                        |       .        |                    x: 0 (valid) 0x597-0x598 (1)
     |                                               |                |                  [1]{}: in 0x598-0x59a (2)
0x590|                        fd                     |        .       |                    opcode: "vector" (0xfd) 0x598-0x599 (1)
0x590|                           60                  |         `      |                    v_opcode: "i8x16.abs" (96) 0x599-0x59a (1)
     |                                               |                |                  [2]{}: in 0x59a-0x59c (2)
0x590|                              20               |                |                    opcode: "local.get" (0x20) 0x59a-0x59b (1)
0x590|                                 01            |           .    |                    x: 1 (valid) 0x59b-0x59c (1)
     |                                               |                |                  [3]{}: in 0x59c-0x59e (2)
0x590|                                    fd         |            .   |                    opcode: "vector" (0xfd) 0x59c-0x59d (1)
0x590|                                       76      |             v  |                    v_opcode: "i8x16.min_s" (118) 0x59d-0x59e (1)
     |                                               |                |                  [4]{}: in 0x59e-0x59f (1)
0x590|                                          0b   |              . |                    opcode: "end" (0xb) 0x59e-0x59f (1)
     |                                               |                |            [6]{}: code 0x59f-0x5aa (11)
0x590|                                             0a|               .|              size: 10 (valid) 0x59f-0x5a0 (1)
     |                                               |                |              code{}: 0x5a0-0x5aa (10)
     |                                               |                |                t{}: 0x5a0-0x5a1 (1)
0x5a0|00                                             |.               |                  n: 0 (valid) 0x5a0-0x5a1 (1)
     |                                               |                |                  x[0:0]: 0x5a1-0x5a1 (0)
     |                                               |                |                e[0:5]: 0x5a1-0x5aa (9)
     |                                               |                |                  [0]{}: in 0x5a1-0x5a3 (2)
0x5a0|   20                                          |                |                    opcode: "local.get" (0x20) 0x5a1-0x5a2 (1)
0x5a0|      00                                       |  .             |                    x: 0 (valid) 0x5a2-0x5a3 (1)
     |                                               |                |                  [1]{}: in 0x5a3-0x5a5 (2)
0x5a0|         20                                    |                |                    opcode: "local.get" (0x20) 0x5a3-0x5a4 (1)
0x5a0|            01                                 |    .           |                    x: 1 (valid) 0x5a4-0x5a5 (1)
     |                                               |                |                  [2]{}: in 0x5a5-0x5a7 (2)
0x5a0|               fd                              |     .          |                    opcode: "vector" (0xfd) 0x5a5-0x5a6 (1)
0x5a0|                  76                           |      v         |                    v_opcode: "i8x16.min_s" (118) 0x5a6-0x5a7 (1)
     |                                               |                |                  [3]{}: in 0x5a7-0x5a9 (2)
0x5a0|                     fd                        |       .        |                    opcode: "vector" (0xfd) 0x5a7-0x5a8 (1)
0x5a0|                        60                     |        `       |                    v_opcode: "i8x16.abs" (96) 0x5a8-0x5a9 (1)
     |                                               |                |                  [4]{}: in 0x5a9-0x5aa (1)
0x5a0|                           0b                  |         .      |                    opcode: "end" (0xb) 0x5a9-0x5aa (1)
     |                                               |                |            [7]{}: code 0x5aa-0x5b5 (11)
0x5a0|                              0a               |          .     |              size: 10 (valid) 0x5aa-0x5ab (1)
     |                                               |                |              code{}: 0x5ab-0x5b5 (10)
     |                                               |                |                t{}: 0x5ab-0x5ac (1)
0x5a0|                                 00            |           .    |                  n: 0 (valid) 0x5ab-0x5ac (1)
     |                                               |                |                  x[0:0]: 0x5ac-0x5ac (0)
     |                                               |                |                e[0:5]: 0x5ac-0x5b5 (9)
     |                                               |                |                  [0]{}: in 0x5ac-0x5ae (2)
0x5a0|                                    20         |                |                    opcode: "local.get" (0x20) 0x5ac-0x5ad (1)
0x5a0|                                       00      |             .  |                    x: 0 (valid) 0x5ad-0x5ae (1)
     |                                               |                |                  [1]{}: in 0x5ae-0x5b0 (2)
0x5a0|                                          fd   |              . |                    opcode: "vector" (0xfd) 0x5ae-0x5af (1)
0x5a0|                                             62|               b|                    v_opcode: "i8x16.popcnt" (98) 0x5af-0x5b0 (1)
     |                                               |                |                  [2]{}: in 0x5b0-0x5b2 (2)
0x5b0|20                                             |                |                    opcode: "local.get" (0x20) 0x5b0-0x5b1 (1)
0x5b0|   01                                          | .              |                    x: 1 (valid) 0x5b1-0x5b2 (1)
     |                                               |                |                  [3]{}: in 0x5b2-0x5b4 (2)
0x5b0|      fd                                       |  .             |                    opcode: "vector" (0xfd) 0x5b2-0x5b3 (1)
0x5b0|         76                                    |   v            |                    v_opcode: "i8x16.min_s" (118) 0x5b3-0x5b4 (1)
     |                                               |                |                  [4]{}: in 0x5b4-0x5b5 (1)
0x5b0|            0b                                 |    .           |                    opcode: "end" (0xb) 0x5b4-0x5b5 (1)
     |                                               |                |            [8]{}: code 0x5b5-0x5c0 (11)
0x5b0|               0a                              |     .          |              size: 10 (valid) 0x5b5-0x5b6 (1)
     |                                               |                |              code{}: 0x5b6-0x5c0 (10)
     |                                               |                |                t{}: 0x5b6-0x5b7 (1)
0x5b0|                  00                           |      .         |                  n: 0 (valid) 0x5b6-0x5b7 (1)
     |                                               |                |                  x[0:0]: 0x5b7-0x5b7 (0)
     |                                               |                |                e[0:5]: 0x5b7-0x5c0 (9)
     |                                               |                |                  [0]{}: in 0x5b7-0x5b9 (2)
0x5b0|                     20                        |                |                    opcode: "local.get" (0x20) 0x5b7-0x5b8 (1)
0x5b0|                        00                     |        .       |                    x: 0 (valid) 0x5b8-0x5b9 (1)
     |                                               |                |                  [1]{}: in 0x5b9-0x5bb (2)
0x5b0|                           20                  |                |                    opcode: "local.get" (0x20) 0x5b9-0x5ba (1)
0x5b0|                              01               |          .     |                    x: 1 (valid) 0x5ba-0x5bb (1)
     |                                               |                |                  [2]{}: in 0x5bb-0x5bd (2)
0x5b0|                                 fd            |           .    |                    opcode: "vector" (0xfd) 0x5bb-0x5bc (1)
0x5b0|                                    76         |            v   |                    v_opcode: "i8x16.min_s" (118) 0x5bc-0x5bd (1)
     |                                               |                |                  [3]{}: in 0x5bd-0x5bf (2)
0x5b0|                                       fd      |             .  |                    opcode: "vector" (0xfd) 0x5bd-0x5be (1)
0x5b0|                                          62   |              b |                    v_opcode: "i8x16.popcnt" (98) 0x5be-0x5bf (1)
     |                                               |                |                  [4]{}: in 0x5bf-0x5c0 (1)
0x5b0|                                             0b|               .|                    opcode: "end" (0xb) 0x5bf-0x5c0 (1)
     |                                               |                |            [9]{}: code 0x5c0-0x5cd (13)
0x5c0|0c                                             |.               |              size: 12 (valid) 0x5c0-0x5c1 (1)
     |                                               |                |              code{}: 0x5c1-0x5cd (12)
     |                                               |                |                t{}: 0x5c1-0x5c2 (1)
0x5c0|   00                                          | .              |                  n: 0 (valid) 0x5c1-0x5c2 (1)
     |                                               |                |                  x[0:0]: 0x5c2-0x5c2 (0)
     |                                               |                |                e[0:6]: 0x5c2-0x5cd (11)
     |                                               |                |                  [0]{}: in 0x5c2-0x5c4 (2)
0x5c0|      20                                       |                |                    opcode: "local.get" (0x20) 0x5c2-0x5c3 (1)
0x5c0|         00                                    |   .            |                    x: 0 (valid) 0x5c3-0x5c4 (1)
     |                                               |                |                  [1]{}: in 0x5c4-0x5c6 (2)
0x5c0|            20                                 |                |                    opcode: "local.get" (0x20) 0x5c4-0x5c5 (1)
0x5c0|               01                              |     .          |                    x: 1 (valid) 0x5c5-0x5c6 (1)
     |                                               |                |                  [2]{}: in 0x5c6-0x5c8 (2)
0x5c0|                  fd                           |      .         |                    opcode: "vector" (0xfd) 0x5c6-0x5c7 (1)
0x5c0|                     7b                        |       {        |                    v_opcode: "i8x16.avgr_u" (123) 0x5c7-0x5c8 (1)
     |                                               |                |                  [3]{}: in 0x5c8-0x5ca (2)
0x5c0|                        20                     |                |                    opcode: "local.get" (0x20) 0x5c8-0x5c9 (1)
0x5c0|                           02                  |         .      |                    x: 2 (valid) 0x5c9-0x5ca (1)
     |                                               |                |                  [4]{}: in 0x5ca-0x5cc (2)
0x5c0|                              fd               |          .     |                    opcode: "vector" (0xfd) 0x5ca-0x5cb (1)
0x5c0|                                 77            |           w    |                    v_opcode: "i8x16.min_u" (119) 0x5cb-0x5cc (1)
     |                                               |                |                  [5]{}: in 0x5cc-0x5cd (1)
0x5c0|                                    0b         |            .   |                    opcode: "end" (0xb) 0x5cc-0x5cd (1)
     |                                               |                |            [10]{}: code 0x5cd-0x5da (13)
0x5c0|                                       0c      |             .  |              size: 12 (valid) 0x5cd-0x5ce (1)
     |                                               |                |              code{}: 0x5ce-0x5da (12)
     |                                               |                |                t{}: 0x5ce-0x5cf (1)
0x5c0|                                          00   |              . |                  n: 0 (valid) 0x5ce-0x5cf (1)
     |                                               |                |                  x[0:0]: 0x5cf-0x5cf (0)
     |                                               |                |                e[0:6]: 0x5cf-0x5da (11)
     |                                               |                |                  [0]{}: in 0x5cf-0x5d1 (2)
0x5c0|                                             20|                |                    opcode: "local.get" (0x20) 0x5cf-0x5d0 (1)
0x5d0|00                                             |.               |                    x: 0 (valid) 0x5d0-0x5d1 (1)
     |                                               |                |                  [1]{}: in 0x5d1-0x5d3 (2)
0x5d0|   20                                          |                |                    opcode: "local.get" (0x20) 0x5d1-0x5d2 (1)
0x5d0|      01                                       |  .             |                    x: 1 (valid) 0x5d2-0x5d3 (1)
     |                                               |                |                  [2]{}: in 0x5d3-0x5d5 (2)
0x5d0|         fd                                    |   .            |                    opcode: "vector" (0xfd) 0x5d3-0x5d4 (1)
0x5d0|            79                                 |    y           |                    v_opcode: "i8x16.max_u" (121) 0x5d4-0x5d5 (1)
     |                                               |                |                  [3]{}: in 0x5d5-0x5d7 (2)
0x5d0|               20                              |                |                    opcode: "local.get" (0x20) 0x5d5-0x5d6 (1)
0x5d0|                  02                           |      .         |                    x: 2 (valid) 0x5d6-0x5d7 (1)
     |                                               |                |                  [4]{}: in 0x5d7-0x5d9 (2)
0x5d0|                     fd                        |       .        |                    opcode: "vector" (0xfd) 0x5d7-0x5d8 (1)
0x5d0|                        77                     |        w       |                    v_opcode: "i8x16.min_u" (119) 0x5d8-0x5d9 (1)
     |                                               |                |                  [5]{}: in 0x5d9-0x5da (1)
0x5d0|                           0b                  |         .      |                    opcode: "end" (0xb) 0x5d9-0x5da (1)
     |                                               |                |            [11]{}: code 0x5da-0x5e7 (13)
0x5d0|                              0c               |          .     |              size: 12 (valid) 0x5da-0x5db (1)
     |                                               |                |              code{}: 0x5db-0x5e7 (12)
     |                                               |                |                t{}: 0x5db-0x5dc (1)
0x5d0|                                 00            |           .    |                  n: 0 (valid) 0x5db-0x5dc (1)
     |                                               |                |                  x[0:0]: 0x5dc-0x5dc (0)
     |                                               |                |                e[0:6]: 0x5dc-0x5e7 (11)
     |                                               |                |                  [0]{}: in 0x5dc-0x5de (2)
0x5d0|                                    20         |                |                    opcode: "local.get" (0x20) 0x5dc-0x5dd (1)
0x5d0|                                       00      |             .  |                    x: 0 (valid) 0x5dd-0x5de (1)
     |                                               |                |                  [1]{}: in 0x5de-0x5e0 (2)
0x5d0|                                          20   |                |                    opcode: "local.get" (0x20) 0x5de-0x5df (1)
0x5d0|                                             01|               .|                    x: 1 (valid) 0x5df-0x5e0 (1)
     |                                               |                |                  [2]{}: in 0x5e0-0x5e2 (2)
0x5e0|fd                                             |.               |                    opcode: "vector" (0xfd) 0x5e0-0x5e1 (1)
0x5e0|   78                                          | x              |                    v_opcode: "i8x16.max_s" (120) 0x5e1-0x5e2 (1)
     |                                               |                |                  [3]{}: in 0x5e2-0x5e4 (2)
0x5e0|      20                                       |                |                    opcode: "local.get" (0x20) 0x5e2-0x5e3 (1)
0x5e0|         02                                    |   .            |                    x: 2 (valid) 0x5e3-0x5e4 (1)
     |                                               |                |                  [4]{}: in 0x5e4-0x5e6 (2)
0x5e0|            fd                                 |    .           |                    opcode: "vector" (0xfd) 0x5e4-0x5e5 (1)
0x5e0|               77                              |     w          |                    v_opcode: "i8x16.min_u" (119) 0x5e5-0x5e6 (1)
     |                                               |                |                  [5]{}: in 0x5e6-0x5e7 (1)
0x5e0|                  0b                           |      .         |                    opcode: "end" (0xb) 0x5e6-0x5e7 (1)
     |                                               |                |            [12]{}: code 0x5e7-0x5f4 (13)
0x5e0|                     0c                        |       .        |              size: 12 (valid) 0x5e7-0x5e8 (1)
     |                                               |                |              code{}: 0x5e8-0x5f4 (12)
     |                                               |                |                t{}: 0x5e8-0x5e9 (1)
0x5e0|                        00                     |        .       |                  n: 0 (valid) 0x5e8-0x5e9 (1)
     |                                               |                |                  x[0:0]: 0x5e9-0x5e9 (0)
     |                                               |                |                e[0:6]: 0x5e9-0x5f4 (11)
     |                                               |                |                  [0]{}: in 0x5e9-0x5eb (2)
0x5e0|                           20                  |                |                    opcode: "local.get" (0x20) 0x5e9-0x5ea (1)
0x5e0|                              00               |          .     |                    x: 0 (valid) 0x5ea-0x5eb (1)
     |                                               |                |                  [1]{}: in 0x5eb-0x5ed (2)
0x5e0|                                 20            |                |                    opcode: "local.get" (0x20) 0x5eb-0x5ec (1)
0x5e0|                                    01         |            .   |                    x: 1 (valid) 0x5ec-0x5ed (1)
     |                                               |                |                  [2]{}: in 0x5ed-0x5ef (2)
0x5e0|                                       fd      |             .  |                    opcode: "vector" (0xfd) 0x5ed-0x5ee (1)
0x5e0|                                          77   |              w |                    v_opcode: "i8x16.min_u" (119) 0x5ee-0x5ef (1)
     |                                               |                |                  [3]{}: in 0x5ef-0x5f1 (2)
0x5e0|                                             20|                |                    opcode: "local.get" (0x20) 0x5ef-0x5f0 (1)
0x5f0|02                                             |.               |                    x: 2 (valid) 0x5f0-0x5f1 (1)
     |                                               |                |                  [4]{}: in 0x5f1-0x5f3 (2)
0x5f0|   fd                                          | .              |                    opcode: "vector" (0xfd) 0x5f1-0x5f2 (1)
0x5f0|      77                                       |  w             |                    v_opcode: "i8x16.min_u" (119) 0x5f2-0x5f3 (1)
     |                                               |                |                  [5]{}: in 0x5f3-0x5f4 (1)
0x5f0|         0b                                    |   .            |                    opcode: "end" (0xb) 0x5f3-0x5f4 (1)
     |                                               |                |            [13]{}: code 0x5f4-0x601 (13)
0x5f0|            0c                                 |    .           |              size: 12 (valid) 0x5f4-0x5f5 (1)
     |                                               |                |              code{}: 0x5f5-0x601 (12)
     |                                               |                |                t{}: 0x5f5-0x5f6 (1)
0x5f0|               00                              |     .          |                  n: 0 (valid) 0x5f5-0x5f6 (1)
     |                                               |                |                  x[0:0]: 0x5f6-0x5f6 (0)
     |                                               |                |                e[0:6]: 0x5f6-0x601 (11)
     |                                               |                |                  [0]{}: in 0x5f6-0x5f8 (2)
0x5f0|                  20                           |                |                    opcode: "local.get" (0x20) 0x5f6-0x5f7 (1)
0x5f0|                     00                        |       .        |                    x: 0 (valid) 0x5f7-0x5f8 (1)
     |                                               |                |                  [1]{}: in 0x5f8-0x5fa (2)
0x5f0|                        20                     |                |                    opcode: "local.get" (0x20) 0x5f8-0x5f9 (1)
0x5f0|                           01                  |         .      |                    x: 1 (valid) 0x5f9-0x5fa (1)
     |                                               |                |                  [2]{}: in 0x5fa-0x5fc (2)
0x5f0|                              fd               |          .     |                    opcode: "vector" (0xfd) 0x5fa-0x5fb (1)
0x5f0|                                 76            |           v    |                    v_opcode: "i8x16.min_s" (118) 0x5fb-0x5fc (1)
     |                                               |                |                  [3]{}: in 0x5fc-0x5fe (2)
0x5f0|                                    20         |                |                    opcode: "local.get" (0x20) 0x5fc-0x5fd (1)
0x5f0|                                       02      |             .  |                    x: 2 (valid) 0x5fd-0x5fe (1)
     |                                               |                |                  [4]{}: in 0x5fe-0x600 (2)
0x5f0|                                          fd   |              . |                    opcode: "vector" (0xfd) 0x5fe-0x5ff (1)
0x5f0|                                             77|               w|                    v_opcode: "i8x16.min_u" (119) 0x5ff-0x600 (1)
     |                                               |                |                  [5]{}: in 0x600-0x601 (1)
0x600|0b                                             |.               |                    opcode: "end" (0xb) 0x600-0x601 (1)
     |                                               |                |            [14]{}: code 0x601-0x60c (11)
0x600|   0a                                          | .              |              size: 10 (valid) 0x601-0x602 (1)
     |                                               |                |              code{}: 0x602-0x60c (10)
     |                                               |                |                t{}: 0x602-0x603 (1)
0x600|      00                                       |  .             |                  n: 0 (valid) 0x602-0x603 (1)
     |                                               |                |                  x[0:0]: 0x603-0x603 (0)
     |                                               |                |                e[0:5]: 0x603-0x60c (9)
     |                                               |                |                  [0]{}: in 0x603-0x605 (2)
0x600|         20                                    |                |                    opcode: "local.get" (0x20) 0x603-0x604 (1)
0x600|            00                                 |    .           |                    x: 0 (valid) 0x604-0x605 (1)
     |                                               |                |                  [1]{}: in 0x605-0x607 (2)
0x600|               fd                              |     .          |                    opcode: "vector" (0xfd) 0x605-0x606 (1)
0x600|                  60                           |      `         |                    v_opcode: "i8x16.abs" (96) 0x606-0x607 (1)
     |                                               |                |                  [2]{}: in 0x607-0x609 (2)
0x600|                     20                        |                |                    opcode: "local.get" (0x20) 0x607-0x608 (1)
0x600|                        01                     |        .       |                    x: 1 (valid) 0x608-0x609 (1)
     |                                               |                |                  [3]{}: in 0x609-0x60b (2)
0x600|                           fd                  |         .      |                    opcode: "vector" (0xfd) 0x609-0x60a (1)
0x600|                              77               |          w     |                    v_opcode: "i8x16.min_u" (119) 0x60a-0x60b (1)
     |                                               |                |                  [4]{}: in 0x60b-0x60c (1)
0x600|                                 0b            |           .    |                    opcode: "end" (0xb) 0x60b-0x60c (1)
     |                                               |                |            [15]{}: code 0x60c-0x617 (11)
0x600|                                    0a         |            .   |              size: 10 (valid) 0x60c-0x60d (1)
     |                                               |                |              code{}: 0x60d-0x617 (10)
     |                                               |                |                t{}: 0x60d-0x60e (1)
0x600|                                       00      |             .  |                  n: 0 (valid) 0x60d-0x60e (1)
     |                                               |                |                  x[0:0]: 0x60e-0x60e (0)
     |                                               |                |                e[0:5]: 0x60e-0x617 (9)
     |                                               |                |                  [0]{}: in 0x60e-0x610 (2)
0x600|                                          20   |                |                    opcode: "local.get" (0x20) 0x60e-0x60f (1)
0x600|                                             00|               .|                    x: 0 (valid) 0x60f-0x610 (1)
     |                                               |                |                  [1]{}: in 0x610-0x612 (2)
0x610|20                                             |                |                    opcode: "local.get" (0x20) 0x610-0x611 (1)
0x610|   01                                          | .              |                    x: 1 (valid) 0x611-0x612 (1)
     |                                               |                |                  [2]{}: in 0x612-0x614 (2)
0x610|      fd                                       |  .             |                    opcode: "vector" (0xfd) 0x612-0x613 (1)
0x610|         77                                    |   w            |                    v_opcode: "i8x16.min_u" (119) 0x613-0x614 (1)
     |                                               |                |                  [3]{}: in 0x614-0x616 (2)
0x610|            fd                                 |    .           |                    opcode: "vector" (0xfd) 0x614-0x615 (1)
0x610|               60                              |     `          |                    v_opcode: "i8x16.abs" (96) 0x615-0x616 (1)
     |                                               |                |                  [4]{}: in 0x616-0x617 (1)
0x610|                  0b                           |      .         |                    opcode: "end" (0xb) 0x616-0x617 (1)
     |                                               |                |            [16]{}: code 0x617-0x622 (11)
0x610|                     0a                        |       .        |              size: 10 (valid) 0x617-0x618 (1)
     |                                               |                |              code{}: 0x618-0x622 (10)
     |                                               |                |                t{}: 0x618-0x619 (1)
0x610|                        00                     |        .       |                  n: 0 (valid) 0x618-0x619 (1)
     |                                               |                |                  x[0:0]: 0x619-0x619 (0)
     |                                               |                |                e[0:5]: 0x619-0x622 (9)
     |                                               |                |                  [0]{}: in 0x619-0x61b (2)
0x610|                           20                  |                |                    opcode: "local.get" (0x20) 0x619-0x61a (1)
0x610|                              00               |          .     |                    x: 0 (valid) 0x61a-0x61b (1)
     |                                               |                |                  [1]{}: in 0x61b-0x61d (2)
0x610|                                 fd            |           .    |                    opcode: "vector" (0xfd) 0x61b-0x61c (1)
0x610|                                    62         |            b   |                    v_opcode: "i8x16.popcnt" (98) 0x61c-0x61d (1)
     |                                               |                |                  [2]{}: in 0x61d-0x61f (2)
0x610|                                       20      |                |                    opcode: "local.get" (0x20) 0x61d-0x61e (1)
0x610|                                          01   |              . |                    x: 1 (valid) 0x61e-0x61f (1)
     |                                               |                |                  [3]{}: in 0x61f-0x621 (2)
0x610|                                             fd|               .|                    opcode: "vector" (0xfd) 0x61f-0x620 (1)
0x620|77                                             |w               |                    v_opcode: "i8x16.min_u" (119) 0x620-0x621 (1)
     |                                               |                |                  [4]{}: in 0x621-0x622 (1)
0x620|   0b                                          | .              |                    opcode: "end" (0xb) 0x621-0x622 (1)
     |                                               |                |            [17]{}: code 0x622-0x62d (11)
0x620|      0a                                       |  .             |              size: 10 (valid) 0x622-0x623 (1)
     |                                               |                |              code{}: 0x623-0x62d (10)
     |                                               |                |                t{}: 0x623-0x624 (1)
0x620|         00                                    |   .            |                  n: 0 (valid) 0x623-0x624 (1)
     |                                               |                |                  x[0:0]: 0x624-0x624 (0)
     |                                               |                |                e[0:5]: 0x624-0x62d (9)
     |                                               |                |                  [0]{}: in 0x624-0x626 (2)
0x620|            20                                 |                |                    opcode: "local.get" (0x20) 0x624-0x625 (1)
0x620|               00                              |     .          |                    x: 0 (valid) 0x625-0x626 (1)
     |                                               |                |                  [1]{}: in 0x626-0x628 (2)
0x620|                  20                           |                |                    opcode: "local.get" (0x20) 0x626-0x627 (1)
0x620|                     01                        |       .        |                    x: 1 (valid) 0x627-0x628 (1)
     |                                               |                |                  [2]{}: in 0x628-0x62a (2)
0x620|                        fd                     |        .       |                    opcode: "vector" (0xfd) 0x628-0x629 (1)
0x620|                           77                  |         w      |                    v_opcode: "i8x16.min_u" (119) 0x629-0x62a (1)
     |                                               |                |                  [3]{}: in 0x62a-0x62c (2)
0x620|                              fd               |          .     |                    opcode: "vector" (0xfd) 0x62a-0x62b (1)
0x620|                                 62            |           b    |                    v_opcode: "i8x16.popcnt" (98) 0x62b-0x62c (1)
     |                                               |                |                  [4]{}: in 0x62c-0x62d (1)
0x620|                                    0b         |            .   |                    opcode: "end" (0xb) 0x62c-0x62d (1)
     |                                               |                |            [18]{}: code 0x62d-0x63a (13)
0x620|                                       0c      |             .  |              size: 12 (valid) 0x62d-0x62e (1)
     |                                               |                |              code{}: 0x62e-0x63a (12)
     |                                               |                |                t{}: 0x62e-0x62f (1)
0x620|                                          00   |              . |                  n: 0 (valid) 0x62e-0x62f (1)
     |                                               |                |                  x[0:0]: 0x62f-0x62f (0)
     |                                               |                |                e[0:6]: 0x62f-0x63a (11)
     |                                               |                |                  [0]{}: in 0x62f-0x631 (2)
0x620|                                             20|                |                    opcode: "local.get" (0x20) 0x62f-0x630 (1)
0x630|00                                             |.               |                    x: 0 (valid) 0x630-0x631 (1)
     |                                               |                |                  [1]{}: in 0x631-0x633 (2)
0x630|   20                                          |                |                    opcode: "local.get" (0x20) 0x631-0x632 (1)
0x630|      01                                       |  .             |                    x: 1 (valid) 0x632-0x633 (1)
     |                                               |                |                  [2]{}: in 0x633-0x635 (2)
0x630|         fd                                    |   .            |                    opcode: "vector" (0xfd) 0x633-0x634 (1)
0x630|            7b                                 |    {           |                    v_opcode: "i8x16.avgr_u" (123) 0x634-0x635 (1)
     |                                               |                |                  [3]{}: in 0x635-0x637 (2)
0x630|               20                              |                |                    opcode: "local.get" (0x20) 0x635-0x636 (1)
0x630|                  02                           |      .         |                    x: 2 (valid) 0x636-0x637 (1)
     |                                               |                |                  [4]{}: in 0x637-0x639 (2)
0x630|                     fd                        |       .        |                    opcode: "vector" (0xfd) 0x637-0x638 (1)
0x630|                        78                     |        x       |                    v_opcode: "i8x16.max_s" (120) 0x638-0x639 (1)
     |                                               |                |                  [5]{}: in 0x639-0x63a (1)
0x630|                           0b                  |         .      |                    opcode: "end" (0xb) 0x639-0x63a (1)
     |                                               |                |            [19]{}: code 0x63a-0x647 (13)
0x630|                              0c               |          .     |              size: 12 (valid) 0x63a-0x63b (1)
     |                                               |                |              code{}: 0x63b-0x647 (12)
     |                                               |                |                t{}: 0x63b-0x63c (1)
0x630|                                 00            |           .    |                  n: 0 (valid) 0x63b-0x63c (1)
     |                                               |                |                  x[0:0]: 0x63c-0x63c (0)
     |                                               |                |                e[0:6]: 0x63c-0x647 (11)
     |                                               |                |                  [0]{}: in 0x63c-0x63e (2)
0x630|                                    20         |                |                    opcode: "local.get" (0x20) 0x63c-0x63d (1)
0x630|                                       00      |             .  |                    x: 0 (valid) 0x63d-0x63e (1)
     |                                               |                |                  [1]{}: in 0x63e-0x640 (2)
0x630|                                          20   |                |                    opcode: "local.get" (0x20) 0x63e-0x63f (1)
0x630|                                             01|               .|                    x: 1 (valid) 0x63f-0x640 (1)
     |                                               |                |                  [2]{}: in 0x640-0x642 (2)
0x640|fd                                             |.               |                    opcode: "vector" (0xfd) 0x640-0x641 (1)
0x640|   79                                          | y              |                    v_opcode: "i8x16.max_u" (121) 0x641-0x642 (1)
     |                                               |                |                  [3]{}: in 0x642-0x644 (2)
0x640|      20                                       |                |                    opcode: "local.get" (0x20) 0x642-0x643 (1)
0x640|         02                                    |   .            |                    x: 2 (valid) 0x643-0x644 (1)
     |                                               |                |                  [4]{}: in 0x644-0x646 (2)
0x640|            fd                                 |    .           |                    opcode: "vector" (0xfd) 0x644-0x645 (1)
0x640|               78                              |     x          |                    v_opcode: "i8x16.max_s" (120) 0x645-0x646 (1)
     |                                               |                |                  [5]{}: in 0x646-0x647 (1)
0x640|                  0b                           |      .         |                    opcode: "end" (0xb) 0x646-0x647 (1)
     |                                               |                |            [20]{}: code 0x647-0x654 (13)
0x640|                     0c                        |       .        |              size: 12 (valid) 0x647-0x648 (1)
     |                                               |                |              code{}: 0x648-0x654 (12)
     |                                               |                |                t{}: 0x648-0x649 (1)
0x640|                        00                     |        .       |                  n: 0 (valid) 0x648-0x649 (1)
     |                                               |                |                  x[0:0]: 0x649-0x649 (0)
     |                                               |                |                e[0:6]: 0x649-0x654 (11)
     |                                               |                |                  [0]{}: in 0x649-0x64b (2)
0x640|                           20                  |                |                    opcode: "local.get" (0x20) 0x649-0x64a (1)
0x640|                              00               |          .     |                    x: 0 (valid) 0x64a-0x64b (1)
     |                                               |                |                  [1]{}: in 0x64b-0x64d (2)
0x640|                                 20            |                |                    opcode: "local.get" (0x20) 0x64b-0x64c (1)
0x640|                                    01         |            .   |                    x: 1 (valid) 0x64c-0x64d (1)
     |                                               |                |                  [2]{}: in 0x64d-0x64f (2)
0x640|                                       fd      |             .  |                    opcode: "vector" (0xfd) 0x64d-0x64e (1)
0x640|                                          78   |              x |                    v_opcode: "i8x16.max_s" (120) 0x64e-0x64f (1)
     |                                               |                |                  [3]{}: in 0x64f-0x651 (2)
0x640|                                             20|                |                    opcode: "local.get" (0x20) 0x64f-0x650 (1)
0x650|02                                             |.               |                    x: 2 (valid) 0x650-0x651 (1)
     |                                               |                |                  [4]{}: in 0x651-0x653 (2)
0x650|   fd                                          | .              |                    opcode: "vector" (0xfd) 0x651-0x652 (1)
0x650|      78                                       |  x             |                    v_opcode: "i8x16.max_s" (120) 0x652-0x653 (1)
     |                                               |                |                  [5]{}: in 0x653-0x654 (1)
0x650|         0b                                    |   .            |                    opcode: "end" (0xb) 0x653-0x654 (1)
     |                                               |                |            [21]{}: code 0x654-0x661 (13)
0x650|            0c                                 |    .           |              size: 12 (valid) 0x654-0x655 (1)
     |                                               |                |              code{}: 0x655-0x661 (12)
     |                                               |                |                t{}: 0x655-0x656 (1)
0x650|               00                              |     .          |                  n: 0 (valid) 0x655-0x656 (1)
     |                                               |                |                  x[0:0]: 0x656-0x656 (0)
     |                                               |                |                e[0:6]: 0x656-0x661 (11)
     |                                               |                |                  [0]{}: in 0x656-0x658 (2)
0x650|                  20                           |                |                    opcode: "local.get" (0x20) 0x656-0x657 (1)
0x650|                     00                        |       .        |                    x: 0 (valid) 0x657-0x658 (1)
     |                                               |                |                  [1]{}: in 0x658-0x65a (2)
0x650|                        20                     |                |                    opcode: "local.get" (0x20) 0x658-0x659 (1)
0x650|                           01                  |         .      |                    x: 1 (valid) 0x659-0x65a (1)
     |                                               |                |                  [2]{}: in 0x65a-0x65c (2)
0x650|                              fd               |          .     |                    opcode: "vector" (0xfd) 0x65a-0x65b (1)
0x650|                                 77            |           w    |                    v_opcode: "i8x16.min_u" (119) 0x65b-0x65c (1)
     |                                               |                |                  [3]{}: in 0x65c-0x65e (2)
0x650|                                    20         |                |                    opcode: "local.get" (0x20) 0x65c-0x65d (1)
0x650|                                       02      |             .  |                    x: 2 (valid) 0x65d-0x65e (1)
     |                                               |                |                  [4]{}: in 0x65e-0x660 (2)
0x650|                                          fd   |              . |                    opcode: "vector" (0xfd) 0x65e-0x65f (1)
0x650|                                             78|               x|                    v_opcode: "i8x16.max_s" (120) 0x65f-0x660 (1)
     |                                               |                |                  [5]{}: in 0x660-0x661 (1)
0x660|0b                                             |.               |                    opcode: "end" (0xb) 0x660-0x661 (1)
     |                                               |                |            [22]{}: code 0x661-0x66e (13)
0x660|   0c                                          | .              |              size: 12 (valid) 0x661-0x662 (1)
     |                                               |                |              code{}: 0x662-0x66e (12)
     |                                               |                |                t{}: 0x662-0x663 (1)
0x660|      00                                       |  .             |                  n: 0 (valid) 0x662-0x663 (1)
     |                                               |                |                  x[0:0]: 0x663-0x663 (0)
     |                                               |                |                e[0:6]: 0x663-0x66e (11)
     |                                               |                |                  [0]{}: in 0x663-0x665 (2)
0x660|         20                                    |                |                    opcode: "local.get" (0x20) 0x663-0x664 (1)
0x660|            00                                 |    .           |                    x: 0 (valid) 0x664-0x665 (1)
     |                                               |                |                  [1]{}: in 0x665-0x667 (2)
0x660|               20                              |                |                    opcode: "local.get" (0x20) 0x665-0x666 (1)
0x660|                  01                           |      .         |                    x: 1 (valid) 0x666-0x667 (1)
     |                                               |                |                  [2]{}: in 0x667-0x669 (2)
0x660|                     fd                        |       .        |                    opcode: "vector" (0xfd) 0x667-0x668 (1)
0x660|                        76                     |        v       |                    v_opcode: "i8x16.min_s" (118) 0x668-0x669 (1)
     |                                               |                |                  [3]{}: in 0x669-0x66b (2)
0x660|                           20                  |                |                    opcode: "local.get" (0x20) 0x669-0x66a (1)
0x660|                              02               |          .     |                    x: 2 (valid) 0x66a-0x66b (1)
     |                                               |                |                  [4]{}: in 0x66b-0x66d (2)
0x660|                                 fd            |           .    |                    opcode: "vector" (0xfd) 0x66b-0x66c (1)
0x660|                                    78         |            x   |                    v_opcode: "i8x16.max_s" (120) 0x66c-0x66d (1)
     |                                               |                |                  [5]{}: in 0x66d-0x66e (1)
0x660|                                       0b      |             .  |                    opcode: "end" (0xb) 0x66d-0x66e (1)
     |                                               |                |            [23]{}: code 0x66e-0x679 (11)
0x660|                                          0a   |              . |              size: 10 (valid) 0x66e-0x66f (1)
     |                                               |                |              code{}: 0x66f-0x679 (10)
     |                                               |                |                t{}: 0x66f-0x670 (1)
0x660|                                             00|               .|                  n: 0 (valid) 0x66f-0x670 (1)
     |                                               |                |                  x[0:0]: 0x670-0x670 (0)
     |                                               |                |                e[0:5]: 0x670-0x679 (9)
     |                                               |                |                  [0]{}: in 0x670-0x672 (2)
0x670|20                                             |                |                    opcode: "local.get" (0x20) 0x670-0x671 (1)
0x670|   00                                          | .              |                    x: 0 (valid) 0x671-0x672 (1)
     |                                               |                |                  [1]{}: in 0x672-0x674 (2)
0x670|      fd                                       |  .             |                    opcode: "vector" (0xfd) 0x672-0x673 (1)
0x670|         60                                    |   `            |                    v_opcode: "i8x16.abs" (96) 0x673-0x674 (1)
     |                                               |                |                  [2]{}: in 0x674-0x676 (2)
0x670|            20                                 |                |                    opcode: "local.get" (0x20) 0x674-0x675 (1)
0x670|               01                              |     .          |                    x: 1 (valid) 0x675-0x676 (1)
     |                                               |                |                  [3]{}: in 0x676-0x678 (2)
0x670|                  fd                           |      .         |                    opcode: "vector" (0xfd) 0x676-0x677 (1)
0x670|                     78                        |       x        |                    v_opcode: "i8x16.max_s" (120) 0x677-0x678 (1)
     |                                               |                |                  [4]{}: in 0x678-0x679 (1)
0x670|                        0b                     |        .       |                    opcode: "end" (0xb) 0x678-0x679 (1)
     |                                               |                |            [24]{}: code 0x679-0x684 (11)
0x670|                           0a                  |         .      |              size: 10 (valid) 0x679-0x67a (1)
     |                                               |                |              code{}: 0x67a-0x684 (10)
     |                                               |                |                t{}: 0x67a-0x67b (1)
0x670|                              00               |          .     |                  n: 0 (valid) 0x67a-0x67b (1)
     |                                               |                |                  x[0:0]: 0x67b-0x67b (0)
     |                                               |                |                e[0:5]: 0x67b-0x684 (9)
     |                                               |                |                  [0]{}: in 0x67b-0x67d (2)
0x670|                                 20            |                |                    opcode: "local.get" (0x20) 0x67b-0x67c (1)
0x670|                                    00         |            .   |                    x: 0 (valid) 0x67c-0x67d (1)
     |                                               |                |                  [1]{}: in 0x67d-0x67f (2)
0x670|                                       20      |                |                    opcode: "local.get" (0x20) 0x67d-0x67e (1)
0x670|                                          01   |              . |                    x: 1 (valid) 0x67e-0x67f (1)
     |                                               |                |                  [2]{}: in 0x67f-0x681 (2)
0x670|                                             fd|               .|                    opcode: "vector" (0xfd) 0x67f-0x680 (1)
0x680|78                                             |x               |                    v_opcode: "i8x16.max_s" (120) 0x680-0x681 (1)
     |                                               |                |                  [3]{}: in 0x681-0x683 (2)
0x680|   fd                                          | .              |                    opcode: "vector" (0xfd) 0x681-0x682 (1)
0x680|      60                                       |  `             |                    v_opcode: "i8x16.abs" (96) 0x682-0x683 (1)
     |                                               |                |                  [4]{}: in 0x683-0x684 (1)
0x680|         0b                                    |   .            |                    opcode: "end" (0xb) 0x683-0x684 (1)
     |                                               |                |            [25]{}: code 0x684-0x68f (11)
0x680|            0a                                 |    .           |              size: 10 (valid) 0x684-0x685 (1)
     |                                               |                |              code{}: 0x685-0x68f (10)
     |                                               |                |                t{}: 0x685-0x686 (1)
0x680|               00                              |     .          |                  n: 0 (valid) 0x685-0x686 (1)
     |                                               |                |                  x[0:0]: 0x686-0x686 (0)
     |                                               |                |                e[0:5]: 0x686-0x68f (9)
     |                                               |                |                  [0]{}: in 0x686-0x688 (2)
0x680|                  20                           |                |                    opcode: "local.get" (0x20) 0x686-0x687 (1)
0x680|                     00                        |       .        |                    x: 0 (valid) 0x687-0x688 (1)
     |                                               |                |                  [1]{}: in 0x688-0x68a (2)
0x680|                        fd                     |        .       |                    opcode: "vector" (0xfd) 0x688-0x689 (1)
0x680|                           62                  |         b      |                    v_opcode: "i8x16.popcnt" (98) 0x689-0x68a (1)
     |                                               |                |                  [2]{}: in 0x68a-0x68c (2)
0x680|                              20               |                |                    opcode: "local.get" (0x20) 0x68a-0x68b (1)
0x680|                                 01            |           .    |                    x: 1 (valid) 0x68b-0x68c (1)
     |                                               |                |                  [3]{}: in 0x68c-0x68e (2)
0x680|                                    fd         |            .   |                    opcode: "vector" (0xfd) 0x68c-0x68d (1)
0x680|                                       78      |             x  |                    v_opcode: "i8x16.max_s" (120) 0x68d-0x68e (1)
     |                                               |                |                  [4]{}: in 0x68e-0x68f (1)
0x680|                                          0b   |              . |                    opcode: "end" (0xb) 0x68e-0x68f (1)
     |                                               |                |            [26]{}: code 0x68f-0x69a (11)
0x680|                                             0a|               .|              size: 10 (valid) 0x68f-0x690 (1)
     |                                               |                |              code{}: 0x690-0x69a (10)
     |                                               |                |                t{}: 0x690-0x691 (1)
0x690|00                                             |.               |                  n: 0 (valid) 0x690-0x691 (1)
     |                                               |                |                  x[0:0]: 0x691-0x691 (0)
     |                                               |                |                e[0:5]: 0x691-0x69a (9)
     |                                               |                |                  [0]{}: in 0x691-0x693 (2)
0x690|   20                                          |                |                    opcode: "local.get" (0x20) 0x691-0x692 (1)
0x690|      00                                       |  .             |                    x: 0 (valid) 0x692-0x693 (1)
     |                                               |                |                  [1]{}: in 0x693-0x695 (2)
0x690|         20                                    |                |                    opcode: "local.get" (0x20) 0x693-0x694 (1)
0x690|            01                                 |    .           |                    x: 1 (valid) 0x694-0x695 (1)
     |                                               |                |                  [2]{}: in 0x695-0x697 (2)
0x690|               fd                              |     .          |                    opcode: "vector" (0xfd) 0x695-0x696 (1)
0x690|                  78                           |      x         |                    v_opcode: "i8x16.max_s" (120) 0x696-0x697 (1)
     |                                               |                |                  [3]{}: in 0x697-0x699 (2)
0x690|                     fd                        |       .        |                    opcode: "vector" (0xfd) 0x697-0x698 (1)
0x690|                        62                     |        b       |                    v_opcode: "i8x16.popcnt" (98) 0x698-0x699 (1)
     |                                               |                |                  [4]{}: in 0x699-0x69a (1)
0x690|                           0b                  |         .      |                    opcode: "end" (0xb) 0x699-0x69a (1)
     |                                               |                |            [27]{}: code 0x69a-0x6a7 (13)
0x690|                              0c               |          .     |              size: 12 (valid) 0x69a-0x69b (1)
     |                                               |                |              code{}: 0x69b-0x6a7 (12)
     |                                               |                |                t{}: 0x69b-0x69c (1)
0x690|                                 00            |           .    |                  n: 0 (valid) 0x69b-0x69c (1)
     |                                               |                |                  x[0:0]: 0x69c-0x69c (0)
     |                                               |                |                e[0:6]: 0x69c-0x6a7 (11)
     |                                               |                |                  [0]{}: in 0x69c-0x69e (2)
0x690|                                    20         |                |                    opcode: "local.get" (0x20) 0x69c-0x69d (1)
0x690|                                       00      |             .  |                    x: 0 (valid) 0x69d-0x69e (1)
     |                                               |                |                  [1]{}: in 0x69e-0x6a0 (2)
0x690|                                          20   |                |                    opcode: "local.get" (0x20) 0x69e-0x69f (1)
0x690|                                             01|               .|                    x: 1 (valid) 0x69f-0x6a0 (1)
     |                                               |                |                  [2]{}: in 0x6a0-0x6a2 (2)
0x6a0|fd                                             |.               |                    opcode: "vector" (0xfd) 0x6a0-0x6a1 (1)
0x6a0|   7b                                          | {              |                    v_opcode: "i8x16.avgr_u" (123) 0x6a1-0x6a2 (1)
     |                                               |                |                  [3]{}: in 0x6a2-0x6a4 (2)
0x6a0|      20                                       |                |                    opcode: "local.get" (0x20) 0x6a2-0x6a3 (1)
0x6a0|         02                                    |   .            |                    x: 2 (valid) 0x6a3-0x6a4 (1)
     |                                               |                |                  [4]{}: in 0x6a4-0x6a6 (2)
0x6a0|            fd                                 |    .           |                    opcode: "vector" (0xfd) 0x6a4-0x6a5 (1)
0x6a0|               79                              |     y          |                    v_opcode: "i8x16.max_u" (121) 0x6a5-0x6a6 (1)
     |                                               |                |                  [5]{}: in 0x6a6-0x6a7 (1)
0x6a0|                  0b                           |      .         |                    opcode: "end" (0xb) 0x6a6-0x6a7 (1)
     |                                               |                |            [28]{}: code 0x6a7-0x6b4 (13)
0x6a0|                     0c                        |       .        |              size: 12 (valid) 0x6a7-0x6a8 (1)
     |                                               |                |              code{}: 0x6a8-0x6b4 (12)
     |                                               |                |                t{}: 0x6a8-0x6a9 (1)
0x6a0|                        00                     |        .       |                  n: 0 (valid) 0x6a8-0x6a9 (1)
     |                                               |                |                  x[0:0]: 0x6a9-0x6a9 (0)
     |                                               |                |                e[0:6]: 0x6a9-0x6b4 (11)
     |                                               |                |                  [0]{}: in 0x6a9-0x6ab (2)
0x6a0|                           20                  |                |                    opcode: "local.get" (0x20) 0x6a9-0x6aa (1)
0x6a0|                              00               |          .     |                    x: 0 (valid) 0x6aa-0x6ab (1)
     |                                               |                |                  [1]{}: in 0x6ab-0x6ad (2)
0x6a0|                                 20            |                |                    opcode: "local.get" (0x20) 0x6ab-0x6ac (1)
0x6a0|                                    01         |            .   |                    x: 1 (valid) 0x6ac-0x6ad (1)
     |                                               |                |                  [2]{}: in 0x6ad-0x6af (2)
0x6a0|                                       fd      |             .  |                    opcode: "vector" (0xfd) 0x6ad-0x6ae (1)
0x6a0|                                          79   |              y |                    v_opcode: "i8x16.max_u" (121) 0x6ae-0x6af (1)
     |                                               |                |                  [3]{}: in 0x6af-0x6b1 (2)
0x6a0|                                             20|                |                    opcode: "local.get" (0x20) 0x6af-0x6b0 (1)
0x6b0|02                                             |.               |                    x: 2 (valid) 0x6b0-0x6b1 (1)
     |                                               |                |                  [4]{}: in 0x6b1-0x6b3 (2)
0x6b0|   fd                                          | .              |                    opcode: "vector" (0xfd) 0x6b1-0x6b2 (1)
0x6b0|      79                                       |  y             |                    v_opcode: "i8x16.max_u" (121) 0x6b2-0x6b3 (1)
     |                                               |                |                  [5]{}: in 0x6b3-0x6b4 (1)
0x6b0|         0b                                    |   .            |                    opcode: "end" (0xb) 0x6b3-0x6b4 (1)
     |                                               |                |            [29]{}: code 0x6b4-0x6c1 (13)
0x6b0|            0c                                 |    .           |              size: 12 (valid) 0x6b4-0x6b5 (1)
     |                                               |                |              code{}: 0x6b5-0x6c1 (12)
     |                                               |                |                t{}: 0x6b5-0x6b6 (1)
0x6b0|               00                              |     .          |                  n: 0 (valid) 0x6b5-0x6b6 (1)
     |                                               |                |                  x[0:0]: 0x6b6-0x6b6 (0)
     |                                               |                |                e[0:6]: 0x6b6-0x6c1 (11)
     |                                               |                |                  [0]{}: in 0x6b6-0x6b8 (2)
0x6b0|                  20                           |                |                    opcode: "local.get" (0x20) 0x6b6-0x6b7 (1)
0x6b0|                     00                        |       .        |                    x: 0 (valid) 0x6b7-0x6b8 (1)
     |                                               |                |                  [1]{}: in 0x6b8-0x6ba (2)
0x6b0|                        20                     |                |                    opcode: "local.get" (0x20) 0x6b8-0x6b9 (1)
0x6b0|                           01                  |         .      |                    x: 1 (valid) 0x6b9-0x6ba (1)
     |                                               |                |                  [2]{}: in 0x6ba-0x6bc (2)
0x6b0|                              fd               |          .     |                    opcode: "vector" (0xfd) 0x6ba-0x6bb (1)
0x6b0|                                 78            |           x    |                    v_opcode: "i8x16.max_s" (120) 0x6bb-0x6bc (1)
     |                                               |                |                  [3]{}: in 0x6bc-0x6be (2)
0x6b0|                                    20         |                |                    opcode: "local.get" (0x20) 0x6bc-0x6bd (1)
0x6b0|                                       02      |             .  |                    x: 2 (valid) 0x6bd-0x6be (1)
     |                                               |                |                  [4]{}: in 0x6be-0x6c0 (2)
0x6b0|                                          fd   |              . |                    opcode: "vector" (0xfd) 0x6be-0x6bf (1)
0x6b0|                                             79|               y|                    v_opcode: "i8x16.max_u" (121) 0x6bf-0x6c0 (1)
     |                                               |                |                  [5]{}: in 0x6c0-0x6c1 (1)
0x6c0|0b                                             |.               |                    opcode: "end" (0xb) 0x6c0-0x6c1 (1)
     |                                               |                |            [30]{}: code 0x6c1-0x6ce (13)
0x6c0|   0c                                          | .              |              size: 12 (valid) 0x6c1-0x6c2 (1)
     |                                               |                |              code{}: 0x6c2-0x6ce (12)
     |                                               |                |                t{}: 0x6c2-0x6c3 (1)
0x6c0|      00                                       |  .             |                  n: 0 (valid) 0x6c2-0x6c3 (1)
     |                                               |                |                  x[0:0]: 0x6c3-0x6c3 (0)
     |                                               |                |                e[0:6]: 0x6c3-0x6ce (11)
     |                                               |                |                  [0]{}: in 0x6c3-0x6c5 (2)
0x6c0|         20                                    |                |                    opcode: "local.get" (0x20) 0x6c3-0x6c4 (1)
0x6c0|            00                                 |    .           |                    x: 0 (valid) 0x6c4-0x6c5 (1)
     |                                               |                |                  [1]{}: in 0x6c5-0x6c7 (2)
0x6c0|               20                              |                |                    opcode: "local.get" (0x20) 0x6c5-0x6c6 (1)
0x6c0|                  01                           |      .         |                    x: 1 (valid) 0x6c6-0x6c7 (1)
     |                                               |                |                  [2]{}: in 0x6c7-0x6c9 (2)
0x6c0|                     fd                        |       .        |                    opcode: "vector" (0xfd) 0x6c7-0x6c8 (1)
0x6c0|                        77                     |        w       |                    v_opcode: "i8x16.min_u" (119) 0x6c8-0x6c9 (1)
     |                                               |                |                  [3]{}: in 0x6c9-0x6cb (2)
0x6c0|                           20                  |                |                    opcode: "local.get" (0x20) 0x6c9-0x6ca (1)
0x6c0|                              02               |          .     |                    x: 2 (valid) 0x6ca-0x6cb (1)
     |                                               |                |                  [4]{}: in 0x6cb-0x6cd (2)
0x6c0|                                 fd            |           .    |                    opcode: "vector" (0xfd) 0x6cb-0x6cc (1)
0x6c0|                                    79         |            y   |                    v_opcode: "i8x16.max_u" (121) 0x6cc-0x6cd (1)
     |                                               |                |                  [5]{}: in 0x6cd-0x6ce (1)
0x6c0|                                       0b      |             .  |                    opcode: "end" (0xb) 0x6cd-0x6ce (1)
     |                                               |                |            [31]{}: code 0x6ce-0x6db (13)
0x6c0|                                          0c   |              . |              size: 12 (valid) 0x6ce-0x6cf (1)
     |                                               |                |              code{}: 0x6cf-0x6db (12)
     |                                               |                |                t{}: 0x6cf-0x6d0 (1)
0x6c0|                                             00|               .|                  n: 0 (valid) 0x6cf-0x6d0 (1)
     |                                               |                |                  x[0:0]: 0x6d0-0x6d0 (0)
     |                                               |                |                e[0:6]: 0x6d0-0x6db (11)
     |                                               |                |                  [0]{}: in 0x6d0-0x6d2 (2)
0x6d0|20                                             |                |                    opcode: "local.get" (0x20) 0x6d0-0x6d1 (1)
0x6d0|   00                                          | .              |                    x: 0 (valid) 0x6d1-0x6d2 (1)
     |                                               |                |                  [1]{}: in 0x6d2-0x6d4 (2)
0x6d0|      20                                       |                |                    opcode: "local.get" (0x20) 0x6d2-0x6d3 (1)
0x6d0|         01                                    |   .            |                    x: 1 (valid) 0x6d3-0x6d4 (1)
     |                                               |                |                  [2]{}: in 0x6d4-0x6d6 (2)
0x6d0|            fd                                 |    .           |                    opcode: "vector" (0xfd) 0x6d4-0x6d5 (1)
0x6d0|               76                              |     v          |                    v_opcode: "i8x16.min_s" (118) 0x6d5-0x6d6 (1)
     |                                               |                |                  [3]{}: in 0x6d6-0x6d8 (2)
0x6d0|                  20                           |                |                    opcode: "local.get" (0x20) 0x6d6-0x6d7 (1)
0x6d0|                     02                        |       .        |                    x: 2 (valid) 0x6d7-0x6d8 (1)
     |                                               |                |                  [4]{}: in 0x6d8-0x6da (2)
0x6d0|                        fd                     |        .       |                    opcode: "vector" (0xfd) 0x6d8-0x6d9 (1)
0x6d0|                           79                  |         y      |                    v_opcode: "i8x16.max_u" (121) 0x6d9-0x6da (1)
     |                                               |                |                  [5]{}: in 0x6da-0x6db (1)
0x6d0|                              0b               |          .     |                    opcode: "end" (0xb) 0x6da-0x6db (1)
     |                                               |                |            [32]{}: code 0x6db-0x6e6 (11)
0x6d0|                                 0a            |           .    |              size: 10 (valid) 0x6db-0x6dc (1)
     |                                               |                |              code{}: 0x6dc-0x6e6 (10)
     |                                               |                |                t{}: 0x6dc-0x6dd (1)
0x6d0|                                    00         |            .   |                  n: 0 (valid) 0x6dc-0x6dd (1)
     |                                               |                |                  x[0:0]: 0x6dd-0x6dd (0)
     |                                               |                |                e[0:5]: 0x6dd-0x6e6 (9)
     |                                               |                |                  [0]{}: in 0x6dd-0x6df (2)
0x6d0|                                       20      |                |                    opcode: "local.get" (0x20) 0x6dd-0x6de (1)
0x6d0|                                          00   |              . |                    x: 0 (valid) 0x6de-0x6df (1)
     |                                               |                |                  [1]{}: in 0x6df-0x6e1 (2)
0x6d0|                                             fd|               .|                    opcode: "vector" (0xfd) 0x6df-0x6e0 (1)
0x6e0|60                                             |`               |                    v_opcode: "i8x16.abs" (96) 0x6e0-0x6e1 (1)
     |                                               |                |                  [2]{}: in 0x6e1-0x6e3 (2)
0x6e0|   20                                          |                |                    opcode: "local.get" (0x20) 0x6e1-0x6e2 (1)
0x6e0|      01                                       |  .             |                    x: 1 (valid) 0x6e2-0x6e3 (1)
     |                                               |                |                  [3]{}: in 0x6e3-0x6e5 (2)
0x6e0|         fd                                    |   .            |                    opcode: "vector" (0xfd) 0x6e3-0x6e4 (1)
0x6e0|            79                                 |    y           |                    v_opcode: "i8x16.max_u" (121) 0x6e4-0x6e5 (1)
     |                                               |                |                  [4]{}: in 0x6e5-0x6e6 (1)
0x6e0|               0b                              |     .          |                    opcode: "end" (0xb) 0x6e5-0x6e6 (1)
     |                                               |                |            [33]{}: code 0x6e6-0x6f1 (11)
0x6e0|                  0a                           |      .         |              size: 10 (valid) 0x6e6-0x6e7 (1)
     |                                               |                |              code{}: 0x6e7-0x6f1 (10)
     |                                               |                |                t{}: 0x6e7-0x6e8 (1)
0x6e0|                     00                        |       .        |                  n: 0 (valid) 0x6e7-0x6e8 (1)
     |                                               |                |                  x[0:0]: 0x6e8-0x6e8 (0)
     |                                               |                |                e[0:5]: 0x6e8-0x6f1 (9)
     |                                               |                |                  [0]{}: in 0x6e8-0x6ea (2)
0x6e0|                        20                     |                |                    opcode: "local.get" (0x20) 0x6e8-0x6e9 (1)
0x6e0|                           00                  |         .      |                    x: 0 (valid) 0x6e9-0x6ea (1)
     |                                               |                |                  [1]{}: in 0x6ea-0x6ec (2)
0x6e0|                              20               |                |                    opcode: "local.get" (0x20) 0x6ea-0x6eb (1)
0x6e0|                                 01            |           .    |                    x: 1 (valid) 0x6eb-0x6ec (1)
     |                                               |                |                  [2]{}: in 0x6ec-0x6ee (2)
0x6e0|                                    fd         |            .   |                    opcode: "vector" (0xfd) 0x6ec-0x6ed (1)
0x6e0|                                       79      |             y  |                    v_opcode: "i8x16.max_u" (121) 0x6ed-0x6ee (1)
     |                                               |                |                  [3]{}: in 0x6ee-0x6f0 (2)
0x6e0|                                          fd   |              . |                    opcode: "vector" (0xfd) 0x6ee-0x6ef (1)
0x6e0|                                             60|               `|                    v_opcode: "i8x16.abs" (96) 0x6ef-0x6f0 (1)
     |                                               |                |                  [4]{}: in 0x6f0-0x6f1 (1)
0x6f0|0b                                             |.               |                    opcode: "end" (0xb) 0x6f0-0x6f1 (1)
     |                                               |                |            [34]{}: code 0x6f1-0x6fc (11)
0x6f0|   0a                                          | .              |              size: 10 (valid) 0x6f1-0x6f2 (1)
     |                                               |                |              code{}: 0x6f2-0x6fc (10)
     |                                               |                |                t{}: 0x6f2-0x6f3 (1)
0x6f0|      00                                       |  .             |                  n: 0 (valid) 0x6f2-0x6f3 (1)
     |                                               |                |                  x[0:0]: 0x6f3-0x6f3 (0)
     |                                               |                |                e[0:5]: 0x6f3-0x6fc (9)
     |                                               |                |                  [0]{}: in 0x6f3-0x6f5 (2)
0x6f0|         20                                    |                |                    opcode: "local.get" (0x20) 0x6f3-0x6f4 (1)
0x6f0|            00                                 |    .           |                    x: 0 (valid) 0x6f4-0x6f5 (1)
     |                                               |                |                  [1]{}: in 0x6f5-0x6f7 (2)
0x6f0|               fd                              |     .          |                    opcode: "vector" (0xfd) 0x6f5-0x6f6 (1)
0x6f0|                  62                           |      b         |                    v_opcode: "i8x16.popcnt" (98) 0x6f6-0x6f7 (1)
     |                                               |                |                  [2]{}: in 0x6f7-0x6f9 (2)
0x6f0|                     20                        |                |                    opcode: "local.get" (0x20) 0x6f7-0x6f8 (1)
0x6f0|                        01                     |        .       |                    x: 1 (valid) 0x6f8-0x6f9 (1)
     |                                               |                |                  [3]{}: in 0x6f9-0x6fb (2)
0x6f0|                           fd                  |         .      |                    opcode: "vector" (0xfd) 0x6f9-0x6fa (1)
0x6f0|                              79               |          y     |                    v_opcode: "i8x16.max_u" (121) 0x6fa-0x6fb (1)
     |                                               |                |                  [4]{}: in 0x6fb-0x6fc (1)
0x6f0|                                 0b            |           .    |                    opcode: "end" (0xb) 0x6fb-0x6fc (1)
     |                                               |                |            [35]{}: code 0x6fc-0x707 (11)
0x6f0|                                    0a         |            .   |              size: 10 (valid) 0x6fc-0x6fd (1)
     |                                               |                |              code{}: 0x6fd-0x707 (10)
     |                                               |                |                t{}: 0x6fd-0x6fe (1)
0x6f0|                                       00      |             .  |                  n: 0 (valid) 0x6fd-0x6fe (1)
     |                                               |                |                  x[0:0]: 0x6fe-0x6fe (0)
     |                                               |                |                e[0:5]: 0x6fe-0x707 (9)
     |                                               |                |                  [0]{}: in 0x6fe-0x700 (2)
0x6f0|                                          20   |                |                    opcode: "local.get" (0x20) 0x6fe-0x6ff (1)
0x6f0|                                             00|               .|                    x: 0 (valid) 0x6ff-0x700 (1)
     |                                               |                |                  [1]{}: in 0x700-0x702 (2)
0x700|20                                             |                |                    opcode: "local.get" (0x20) 0x700-0x701 (1)
0x700|   01                                          | .              |                    x: 1 (valid) 0x701-0x702 (1)
     |                                               |                |                  [2]{}: in 0x702-0x704 (2)
0x700|      fd                                       |  .             |                    opcode: "vector" (0xfd) 0x702-0x703 (1)
0x700|         79                                    |   y            |                    v_opcode: "i8x16.max_u" (121) 0x703-0x704 (1)
     |                                               |                |                  [3]{}: in 0x704-0x706 (2)
0x700|            fd                                 |    .           |                    opcode: "vector" (0xfd) 0x704-0x705 (1)
0x700|               62                              |     b          |                    v_opcode: "i8x16.popcnt" (98) 0x705-0x706 (1)
     |                                               |                |                  [4]{}: in 0x706-0x707 (1)
0x700|                  0b                           |      .         |                    opcode: "end" (0xb) 0x706-0x707 (1)
     |                                               |                |            [36]{}: code 0x707-0x714 (13)
0x700|                     0c                        |       .        |              size: 12 (valid) 0x707-0x708 (1)
     |                                               |                |              code{}: 0x708-0x714 (12)
     |                                               |                |                t{}: 0x708-0x709 (1)
0x700|                        00                     |        .       |                  n: 0 (valid) 0x708-0x709 (1)
     |                                               |                |                  x[0:0]: 0x709-0x709 (0)
     |                                               |                |                e[0:6]: 0x709-0x714 (11)
     |                                               |                |                  [0]{}: in 0x709-0x70b (2)
0x700|                           20                  |                |                    opcode: "local.get" (0x20) 0x709-0x70a (1)
0x700|                              00               |          .     |                    x: 0 (valid) 0x70a-0x70b (1)
     |                                               |                |                  [1]{}: in 0x70b-0x70d (2)
0x700|                                 20            |                |                    opcode: "local.get" (0x20) 0x70b-0x70c (1)
0x700|                                    01         |            .   |                    x: 1 (valid) 0x70c-0x70d (1)
     |                                               |                |                  [2]{}: in 0x70d-0x70f (2)
0x700|                                       fd      |             .  |                    opcode: "vector" (0xfd) 0x70d-0x70e (1)
0x700|                                          7b   |              { |                    v_opcode: "i8x16.avgr_u" (123) 0x70e-0x70f (1)
     |                                               |                |                  [3]{}: in 0x70f-0x711 (2)
0x700|                                             20|                |                    opcode: "local.get" (0x20) 0x70f-0x710 (1)
0x710|02                                             |.               |                    x: 2 (valid) 0x710-0x711 (1)
     |                                               |                |                  [4]{}: in 0x711-0x713 (2)
0x710|   fd                                          | .              |                    opcode: "vector" (0xfd) 0x711-0x712 (1)
0x710|      7b                                       |  {             |                    v_opcode: "i8x16.avgr_u" (123) 0x712-0x713 (1)
     |                                               |                |                  [5]{}: in 0x713-0x714 (1)
0x710|         0b                                    |   .            |                    opcode: "end" (0xb) 0x713-0x714 (1)
     |                                               |                |            [37]{}: code 0x714-0x721 (13)
0x710|            0c                                 |    .           |              size: 12 (valid) 0x714-0x715 (1)
     |                                               |                |              code{}: 0x715-0x721 (12)
     |                                               |                |                t{}: 0x715-0x716 (1)
0x710|               00                              |     .          |                  n: 0 (valid) 0x715-0x716 (1)
     |                                               |                |                  x[0:0]: 0x716-0x716 (0)
     |                                               |                |                e[0:6]: 0x716-0x721 (11)
     |                                               |                |                  [0]{}: in 0x716-0x718 (2)
0x710|                  20                           |                |                    opcode: "local.get" (0x20) 0x716-0x717 (1)
0x710|                     00                        |       .        |                    x: 0 (valid) 0x717-0x718 (1)
     |                                               |                |                  [1]{}: in 0x718-0x71a (2)
0x710|                        20                     |                |                    opcode: "local.get" (0x20) 0x718-0x719 (1)
0x710|                           01                  |         .      |                    x: 1 (valid) 0x719-0x71a (1)
     |                                               |                |                  [2]{}: in 0x71a-0x71c (2)
0x710|                              fd               |          .     |                    opcode: "vector" (0xfd) 0x71a-0x71b (1)
0x710|                                 79            |           y    |                    v_opcode: "i8x16.max_u" (121) 0x71b-0x71c (1)
     |                                               |                |                  [3]{}: in 0x71c-0x71e (2)
0x710|                                    20         |                |                    opcode: "local.get" (0x20) 0x71c-0x71d (1)
0x710|                                       02      |             .  |                    x: 2 (valid) 0x71d-0x71e (1)
     |                                               |                |                  [4]{}: in 0x71e-0x720 (2)
0x710|                                          fd   |              . |                    opcode: "vector" (0xfd) 0x71e-0x71f (1)
0x710|                                             7b|               {|                    v_opcode: "i8x16.avgr_u" (123) 0x71f-0x720 (1)
     |                                               |                |                  [5]{}: in 0x720-0x721 (1)
0x720|0b                                             |.               |                    opcode: "end" (0xb) 0x720-0x721 (1)
     |                                               |                |            [38]{}: code 0x721-0x72e (13)
0x720|   0c                                          | .              |              size: 12 (valid) 0x721-0x722 (1)
     |                                               |                |              code{}: 0x722-0x72e (12)
     |                                               |                |                t{}: 0x722-0x723 (1)
0x720|      00                                       |  .             |                  n: 0 (valid) 0x722-0x723 (1)
     |                                               |                |                  x[0:0]: 0x723-0x723 (0)
     |                                               |                |                e[0:6]: 0x723-0x72e (11)
     |                                               |                |                  [0]{}: in 0x723-0x725 (2)
0x720|         20                                    |                |                    opcode: "local.get" (0x20) 0x723-0x724 (1)
0x720|            00                                 |    .           |                    x: 0 (valid) 0x724-0x725 (1)
     |                                               |                |                  [1]{}: in 0x725-0x727 (2)
0x720|               20                              |                |                    opcode: "local.get" (0x20) 0x725-0x726 (1)
0x720|                  01                           |      .         |                    x: 1 (valid) 0x726-0x727 (1)
     |                                               |                |                  [2]{}: in 0x727-0x729 (2)
0x720|                     fd                        |       .        |                    opcode: "vector" (0xfd) 0x727-0x728 (1)
0x720|                        78                     |        x       |                    v_opcode: "i8x16.max_s" (120) 0x728-0x729 (1)
     |                                               |                |                  [3]{}: in 0x729-0x72b (2)
0x720|                           20                  |                |                    opcode: "local.get" (0x20) 0x729-0x72a (1)
0x720|                              02               |          .     |                    x: 2 (valid) 0x72a-0x72b (1)
     |                                               |                |                  [4]{}: in 0x72b-0x72d (2)
0x720|                                 fd            |           .    |                    opcode: "vector" (0xfd) 0x72b-0x72c (1)
0x720|                                    7b         |            {   |                    v_opcode: "i8x16.avgr_u" (123) 0x72c-0x72d (1)
     |                                               |                |                  [5]{}: in 0x72d-0x72e (1)
0x720|                                       0b      |             .  |                    opcode: "end" (0xb) 0x72d-0x72e (1)
     |                                               |                |            [39]{}: code 0x72e-0x73b (13)
0x720|                                          0c   |              . |              size: 12 (valid) 0x72e-0x72f (1)
     |                                               |                |              code{}: 0x72f-0x73b (12)
     |                                               |                |                t{}: 0x72f-0x730 (1)
0x720|                                             00|               .|                  n: 0 (valid) 0x72f-0x730 (1)
     |                                               |                |                  x[0:0]: 0x730-0x730 (0)
     |                                               |                |                e[0:6]: 0x730-0x73b (11)
     |                                               |                |                  [0]{}: in 0x730-0x732 (2)
0x730|20                                             |                |                    opcode: "local.get" (0x20) 0x730-0x731 (1)
0x730|   00                                          | .              |                    x: 0 (valid) 0x731-0x732 (1)
     |                                               |                |                  [1]{}: in 0x732-0x734 (2)
0x730|      20                                       |                |                    opcode: "local.get" (0x20) 0x732-0x733 (1)
0x730|         01                                    |   .            |                    x: 1 (valid) 0x733-0x734 (1)
     |                                               |                |                  [2]{}: in 0x734-0x736 (2)
0x730|            fd                                 |    .           |                    opcode: "vector" (0xfd) 0x734-0x735 (1)
0x730|               77                              |     w          |                    v_opcode: "i8x16.min_u" (119) 0x735-0x736 (1)
     |                                               |                |                  [3]{}: in 0x736-0x738 (2)
0x730|                  20                           |                |                    opcode: "local.get" (0x20) 0x736-0x737 (1)
0x730|                     02                        |       .        |                    x: 2 (valid) 0x737-0x738 (1)
     |                                               |                |                  [4]{}: in 0x738-0x73a (2)
0x730|                        fd                     |        .       |                    opcode: "vector" (0xfd) 0x738-0x739 (1)
0x730|                           7b                  |         {      |                    v_opcode: "i8x16.avgr_u" (123) 0x739-0x73a (1)
     |                                               |                |                  [5]{}: in 0x73a-0x73b (1)
0x730|                              0b               |          .     |                    opcode: "end" (0xb) 0x73a-0x73b (1)
     |                                               |                |            [40]{}: code 0x73b-0x748 (13)
0x730|                                 0c            |           .    |              size: 12 (valid) 0x73b-0x73c (1)
     |                                               |                |              code{}: 0x73c-0x748 (12)
     |                                               |                |                t{}: 0x73c-0x73d (1)
0x730|                                    00         |            .   |                  n: 0 (valid) 0x73c-0x73d (1)
     |                                               |                |                  x[0:0]: 0x73d-0x73d (0)
     |                                               |                |                e[0:6]: 0x73d-0x748 (11)
     |                                               |                |                  [0]{}: in 0x73d-0x73f (2)
0x730|                                       20      |                |                    opcode: "local.get" (0x20) 0x73d-0x73e (1)
0x730|                                          00   |              . |                    x: 0 (valid) 0x73e-0x73f (1)
     |                                               |                |                  [1]{}: in 0x73f-0x741 (2)
0x730|                                             20|                |                    opcode: "local.get" (0x20) 0x73f-0x740 (1)
0x740|01                                             |.               |                    x: 1 (valid) 0x740-0x741 (1)
     |                                               |                |                  [2]{}: in 0x741-0x743 (2)
0x740|   fd                                          | .              |                    opcode: "vector" (0xfd) 0x741-0x742 (1)
0x740|      76                                       |  v             |                    v_opcode: "i8x16.min_s" (118) 0x742-0x743 (1)
     |                                               |                |                  [3]{}: in 0x743-0x745 (2)
0x740|         20                                    |                |                    opcode: "local.get" (0x20) 0x743-0x744 (1)
0x740|            02                                 |    .           |                    x: 2 (valid) 0x744-0x745 (1)
     |                                               |                |                  [4]{}: in 0x745-0x747 (2)
0x740|               fd                              |     .          |                    opcode: "vector" (0xfd) 0x745-0x746 (1)
0x740|                  7b                           |      {         |                    v_opcode: "i8x16.avgr_u" (123) 0x746-0x747 (1)
     |                                               |                |                  [5]{}: in 0x747-0x748 (1)
0x740|                     0b                        |       .        |                    opcode: "end" (0xb) 0x747-0x748 (1)
     |                                               |                |            [41]{}: code 0x748-0x753 (11)
0x740|                        0a                     |        .       |              size: 10 (valid) 0x748-0x749 (1)
     |                                               |                |              code{}: 0x749-0x753 (10)
     |                                               |                |                t{}: 0x749-0x74a (1)
0x740|                           00                  |         .      |                  n: 0 (valid) 0x749-0x74a (1)
     |                                               |                |                  x[0:0]: 0x74a-0x74a (0)
     |                                               |                |                e[0:5]: 0x74a-0x753 (9)
     |                                               |                |                  [0]{}: in 0x74a-0x74c (2)
0x740|                              20               |                |                    opcode: "local.get" (0x20) 0x74a-0x74b (1)
0x740|                                 00            |           .    |                    x: 0 (valid) 0x74b-0x74c (1)
     |                                               |                |                  [1]{}: in 0x74c-0x74e (2)
0x740|                                    fd         |            .   |                    opcode: "vector" (0xfd) 0x74c-0x74d (1)
0x740|                                       60      |             `  |                    v_opcode: "i8x16.abs" (96) 0x74d-0x74e (1)
     |                                               |                |                  [2]{}: in 0x74e-0x750 (2)
0x740|                                          20   |                |                    opcode: "local.get" (0x20) 0x74e-0x74f (1)
0x740|                                             01|               .|                    x: 1 (valid) 0x74f-0x750 (1)
     |                                               |                |                  [3]{}: in 0x750-0x752 (2)
0x750|fd                                             |.               |                    opcode: "vector" (0xfd) 0x750-0x751 (1)
0x750|   7b                                          | {              |                    v_opcode: "i8x16.avgr_u" (123) 0x751-0x752 (1)
     |                                               |                |                  [4]{}: in 0x752-0x753 (1)
0x750|      0b                                       |  .             |                    opcode: "end" (0xb) 0x752-0x753 (1)
     |                                               |                |            [42]{}: code 0x753-0x75e (11)
0x750|         0a                                    |   .            |              size: 10 (valid) 0x753-0x754 (1)
     |                                               |                |              code{}: 0x754-0x75e (10)
     |                                               |                |                t{}: 0x754-0x755 (1)
0x750|            00                                 |    .           |                  n: 0 (valid) 0x754-0x755 (1)
     |                                               |                |                  x[0:0]: 0x755-0x755 (0)
     |                                               |                |                e[0:5]: 0x755-0x75e (9)
     |                                               |                |                  [0]{}: in 0x755-0x757 (2)
0x750|               20                              |                |                    opcode: "local.get" (0x20) 0x755-0x756 (1)
0x750|                  00                           |      .         |                    x: 0 (valid) 0x756-0x757 (1)
     |                                               |                |                  [1]{}: in 0x757-0x759 (2)
0x750|                     20                        |                |                    opcode: "local.get" (0x20) 0x757-0x758 (1)
0x750|                        01                     |        .       |                    x: 1 (valid) 0x758-0x759 (1)
     |                                               |                |                  [2]{}: in 0x759-0x75b (2)
0x750|                           fd                  |         .      |                    opcode: "vector" (0xfd) 0x759-0x75a (1)
0x750|                              7b               |          {     |                    v_opcode: "i8x16.avgr_u" (123) 0x75a-0x75b (1)
     |                                               |                |                  [3]{}: in 0x75b-0x75d (2)
0x750|                                 fd            |           .    |                    opcode: "vector" (0xfd) 0x75b-0x75c (1)
0x750|                                    60         |            `   |                    v_opcode: "i8x16.abs" (96) 0x75c-0x75d (1)
     |                                               |                |                  [4]{}: in 0x75d-0x75e (1)
0x750|                                       0b      |             .  |                    opcode: "end" (0xb) 0x75d-0x75e (1)
     |                                               |                |            [43]{}: code 0x75e-0x769 (11)
0x750|                                          0a   |              . |              size: 10 (valid) 0x75e-0x75f (1)
     |                                               |                |              code{}: 0x75f-0x769 (10)
     |                                               |                |                t{}: 0x75f-0x760 (1)
0x750|                                             00|               .|                  n: 0 (valid) 0x75f-0x760 (1)
     |                                               |                |                  x[0:0]: 0x760-0x760 (0)
     |                                               |                |                e[0:5]: 0x760-0x769 (9)
     |                                               |                |                  [0]{}: in 0x760-0x762 (2)
0x760|20                                             |                |                    opcode: "local.get" (0x20) 0x760-0x761 (1)
0x760|   00                                          | .              |                    x: 0 (valid) 0x761-0x762 (1)
     |                                               |                |                  [1]{}: in 0x762-0x764 (2)
0x760|      fd                                       |  .             |                    opcode: "vector" (0xfd) 0x762-0x763 (1)
0x760|         62                                    |   b            |                    v_opcode: "i8x16.popcnt" (98) 0x763-0x764 (1)
     |                                               |                |                  [2]{}: in 0x764-0x766 (2)
0x760|            20                                 |                |                    opcode: "local.get" (0x20) 0x764-0x765 (1)
0x760|               01                              |     .          |                    x: 1 (valid) 0x765-0x766 (1)
     |                                               |                |                  [3]{}: in 0x766-0x768 (2)
0x760|                  fd                           |      .         |                    opcode: "vector" (0xfd) 0x766-0x767 (1)
0x760|                     7b                        |       {        |                    v_opcode: "i8x16.avgr_u" (123) 0x767-0x768 (1)
     |                                               |                |                  [4]{}: in 0x768-0x769 (1)
0x760|                        0b                     |        .       |                    opcode: "end" (0xb) 0x768-0x769 (1)
     |                                               |                |            [44]{}: code 0x769-0x774 (11)
0x760|                           0a                  |         .      |              size: 10 (valid) 0x769-0x76a (1)
     |                                               |                |              code{}: 0x76a-0x774 (10)
     |                                               |                |                t{}: 0x76a-0x76b (1)
0x760|                              00               |          .     |                  n: 0 (valid) 0x76a-0x76b (1)
     |                                               |                |                  x[0:0]: 0x76b-0x76b (0)
     |                                               |                |                e[0:5]: 0x76b-0x774 (9)
     |                                               |                |                  [0]{}: in 0x76b-0x76d (2)
0x760|                                 20            |                |                    opcode: "local.get" (0x20) 0x76b-0x76c (1)
0x760|                                    00         |            .   |                    x: 0 (valid) 0x76c-0x76d (1)
     |                                               |                |                  [1]{}: in 0x76d-0x76f (2)
0x760|                                       20      |                |                    opcode: "local.get" (0x20) 0x76d-0x76e (1)
0x760|                                          01   |              . |                    x: 1 (valid) 0x76e-0x76f (1)
     |                                               |                |                  [2]{}: in 0x76f-0x771 (2)
0x760|                                             fd|               .|                    opcode: "vector" (0xfd) 0x76f-0x770 (1)
0x770|7b                                             |{               |                    v_opcode: "i8x16.avgr_u" (123) 0x770-0x771 (1)
     |                                               |                |                  [3]{}: in 0x771-0x773 (2)
0x770|   fd                                          | .              |                    opcode: "vector" (0xfd) 0x771-0x772 (1)
0x770|      62                                       |  b             |                    v_opcode: "i8x16.popcnt" (98) 0x772-0x773 (1)
     |                                               |                |                  [4]{}: in 0x773-0x774 (1)
0x770|         0b                                    |   .            |                    opcode: "end" (0xb) 0x773-0x774 (1)
     |                                               |                |            [45]{}: code 0x774-0x77d (9)
0x770|            08                                 |    .           |              size: 8 (valid) 0x774-0x775 (1)
     |                                               |                |              code{}: 0x775-0x77d (8)
     |                                               |                |                t{}: 0x775-0x776 (1)
0x770|               00                              |     .          |                  n: 0 (valid) 0x775-0x776 (1)
     |                                               |                |                  x[0:0]: 0x776-0x776 (0)
     |                                               |                |                e[0:4]: 0x776-0x77d (7)
     |                                               |                |                  [0]{}: in 0x776-0x778 (2)
0x770|                  20                           |                |                    opcode: "local.get" (0x20) 0x776-0x777 (1)
0x770|                     00                        |       .        |                    x: 0 (valid) 0x777-0x778 (1)
     |                                               |                |                  [1]{}: in 0x778-0x77a (2)
0x770|                        fd                     |        .       |                    opcode: "vector" (0xfd) 0x778-0x779 (1)
0x770|                           62                  |         b      |                    v_opcode: "i8x16.popcnt" (98) 0x779-0x77a (1)
     |                                               |                |                  [2]{}: in 0x77a-0x77c (2)
0x770|                              fd               |          .     |                    opcode: "vector" (0xfd) 0x77a-0x77b (1)
0x770|                                 60            |           `    |                    v_opcode: "i8x16.abs" (96) 0x77b-0x77c (1)
     |                                               |                |                  [3]{}: in 0x77c-0x77d (1)
0x770|                                    0b         |            .   |                    opcode: "end" (0xb) 0x77c-0x77d (1)
     |                                               |                |            [46]{}: code 0x77d-0x786 (9)
0x770|                                       08      |             .  |              size: 8 (valid) 0x77d-0x77e (1)
     |                                               |                |              code{}: 0x77e-0x786 (8)
     |                                               |                |                t{}: 0x77e-0x77f (1)
0x770|                                          00   |              . |                  n: 0 (valid) 0x77e-0x77f (1)
     |                                               |                |                  x[0:0]: 0x77f-0x77f (0)
     |                                               |                |                e[0:4]: 0x77f-0x786 (7)
     |                                               |                |                  [0]{}: in 0x77f-0x781 (2)
0x770|                                             20|                |                    opcode: "local.get" (0x20) 0x77f-0x780 (1)
0x780|00                                             |.               |                    x: 0 (valid) 0x780-0x781 (1)
     |                                               |                |                  [1]{}: in 0x781-0x783 (2)
0x780|   fd                                          | .              |                    opcode: "vector" (0xfd) 0x781-0x782 (1)
0x780|      60                                       |  `             |                    v_opcode: "i8x16.abs" (96) 0x782-0x783 (1)
     |                                               |                |                  [2]{}: in 0x783-0x785 (2)
0x780|         fd                                    |   .            |                    opcode: "vector" (0xfd) 0x783-0x784 (1)
0x780|            60                                 |    `           |                    v_opcode: "i8x16.abs" (96) 0x784-0x785 (1)
     |                                               |                |                  [3]{}: in 0x785-0x786 (1)
0x780|               0b                              |     .          |                    opcode: "end" (0xb) 0x785-0x786 (1)
     |                                               |                |            [47]{}: code 0x786-0x78f (9)
0x780|                  08                           |      .         |              size: 8 (valid) 0x786-0x787 (1)
     |                                               |                |              code{}: 0x787-0x78f (8)
     |                                               |                |                t{}: 0x787-0x788 (1)
0x780|                     00                        |       .        |                  n: 0 (valid) 0x787-0x788 (1)
     |                                               |                |                  x[0:0]: 0x788-0x788 (0)
     |                                               |                |                e[0:4]: 0x788-0x78f (7)
     |                                               |                |                  [0]{}: in 0x788-0x78a (2)
0x780|                        20                     |                |                    opcode: "local.get" (0x20) 0x788-0x789 (1)
0x780|                           00                  |         .      |                    x: 0 (valid) 0x789-0x78a (1)
     |                                               |                |                  [1]{}: in 0x78a-0x78c (2)
0x780|                              fd               |          .     |                    opcode: "vector" (0xfd) 0x78a-0x78b (1)
0x780|                                 62            |           b    |                    v_opcode: "i8x16.popcnt" (98) 0x78b-0x78c (1)
     |                                               |                |                  [2]{}: in 0x78c-0x78e (2)
0x780|                                    fd         |            .   |                    opcode: "vector" (0xfd) 0x78c-0x78d (1)
0x780|                                       62      |             b  |                    v_opcode: "i8x16.popcnt" (98) 0x78d-0x78e (1)
     |                                               |                |                  [3]{}: in 0x78e-0x78f (1)
0x780|                                          0b   |              . |                    opcode: "end" (0xb) 0x78e-0x78f (1)
     |                                               |                |            [48]{}: code 0x78f-0x798 (9)
0x780|                                             08|               .|              size: 8 (valid) 0x78f-0x790 (1)
     |                                               |                |              code{}: 0x790-0x798 (8)
     |                                               |                |                t{}: 0x790-0x791 (1)
0x790|00                                             |.               |                  n: 0 (valid) 0x790-0x791 (1)
     |                                               |                |                  x[0:0]: 0x791-0x791 (0)
     |                                               |                |                e[0:4]: 0x791-0x798 (7)
     |                                               |                |                  [0]{}: in 0x791-0x793 (2)
0x790|   20                                          |                |                    opcode: "local.get" (0x20) 0x791-0x792 (1)
0x790|      00                                       |  .             |                    x: 0 (valid) 0x792-0x793 (1)
     |                                               |                |                  [1]{}: in 0x793-0x795 (2)
0x790|         fd                                    |   .            |                    opcode: "vector" (0xfd) 0x793-0x794 (1)
0x790|            60                                 |    `           |                    v_opcode: "i8x16.abs" (96) 0x794-0x795 (1)
     |                                               |                |                  [2]{}: in 0x795-0x797 (2)
0x790|               fd                              |     .          |                    opcode: "vector" (0xfd) 0x795-0x796 (1)
0x790|                  62                           |      b         |                    v_opcode: "i8x16.popcnt" (98) 0x796-0x797 (1)
     |                                               |                |                  [3]{}: in 0x797-0x798 (1)
0x790|                     0b|                       |       .|       |                    opcode: "end" (0xb) 0x797-0x798 (1)
