$ fq -d wasm dv simd_load_splat-1.wasm
     |00 01 02 03 04 05 06 07 08 09 0a 0b 0c 0d 0e 0f|0123456789abcdef|.{}: simd_load_splat-1.wasm (wasm) 0x0-0x282.7 (643)
0x000|00 61 73 6d                                    |.asm            |  magic: raw bits (valid) 0x0-0x3.7 (4)
0x000|            01 00 00 00                        |    ....        |  version: 1 0x4-0x7.7 (4)
     |                                               |                |  sections[0:6]: 0x8-0x282.7 (635)
     |                                               |                |    [0]{}: section 0x8-0x12.7 (11)
0x000|                        01                     |        .       |      id: "type section" (1) 0x8-0x8.7 (1)
0x000|                           09                  |         .      |      size: 9 0x9-0x9.7 (1)
     |                                               |                |      content{}: 0xa-0x12.7 (9)
     |                                               |                |        ft{}: 0xa-0x12.7 (9)
0x000|                              02               |          .     |          n: 2 0xa-0xa.7 (1)
     |                                               |                |          x[0:2]: 0xb-0x12.7 (8)
     |                                               |                |            [0]{}: ft 0xb-0xe.7 (4)
0x000|                                 60            |           `    |              tag: 0x60 (valid) 0xb-0xb.7 (1)
     |                                               |                |              rt1{}: 0xc-0xc.7 (1)
0x000|                                    00         |            .   |                n: 0 0xc-0xc.7 (1)
     |                                               |                |                x[0:0]: 0xd-NA (0)
     |                                               |                |              rt2{}: 0xd-0xe.7 (2)
0x000|                                       01      |             .  |                n: 1 0xd-0xd.7 (1)
     |                                               |                |                x[0:1]: 0xe-0xe.7 (1)
0x000|                                          7b   |              { |                  [0]: "v128" (0x7b) t 0xe-0xe.7 (1)
     |                                               |                |            [1]{}: ft 0xf-0x12.7 (4)
0x000|                                             60|               `|              tag: 0x60 (valid) 0xf-0xf.7 (1)
     |                                               |                |              rt1{}: 0x10-0x10.7 (1)
0x010|00                                             |.               |                n: 0 0x10-0x10.7 (1)
     |                                               |                |                x[0:0]: 0x11-NA (0)
     |                                               |                |              rt2{}: 0x11-0x12.7 (2)
0x010|   01                                          | .              |                n: 1 0x11-0x11.7 (1)
     |                                               |                |                x[0:1]: 0x12-0x12.7 (1)
0x010|      7f                                       |  .             |                  [0]: "i32" (0x7f) t 0x12-0x12.7 (1)
     |                                               |                |    [1]{}: section 0x13-0x21.7 (15)
0x010|         03                                    |   .            |      id: "function section" (3) 0x13-0x13.7 (1)
0x010|            0d                                 |    .           |      size: 13 0x14-0x14.7 (1)
     |                                               |                |      content{}: 0x15-0x21.7 (13)
     |                                               |                |        x{}: 0x15-0x21.7 (13)
0x010|               0c                              |     .          |          n: 12 0x15-0x15.7 (1)
     |                                               |                |          x[0:12]: 0x16-0x21.7 (12)
0x010|                  00                           |      .         |            [0]: 0 x 0x16-0x16.7 (1)
0x010|                     00                        |       .        |            [1]: 0 x 0x17-0x17.7 (1)
0x010|                        00                     |        .       |            [2]: 0 x 0x18-0x18.7 (1)
0x010|                           00                  |         .      |            [3]: 0 x 0x19-0x19.7 (1)
0x010|                              00               |          .     |            [4]: 0 x 0x1a-0x1a.7 (1)
0x010|                                 00            |           .    |            [5]: 0 x 0x1b-0x1b.7 (1)
0x010|                                    00         |            .   |            [6]: 0 x 0x1c-0x1c.7 (1)
0x010|                                       00      |             .  |            [7]: 0 x 0x1d-0x1d.7 (1)
0x010|                                          01   |              . |            [8]: 1 x 0x1e-0x1e.7 (1)
0x010|                                             01|               .|            [9]: 1 x 0x1f-0x1f.7 (1)
0x020|01                                             |.               |            [10]: 1 x 0x20-0x20.7 (1)
0x020|   01                                          | .              |            [11]: 1 x 0x21-0x21.7 (1)
     |                                               |                |    [2]{}: section 0x22-0x26.7 (5)
0x020|      05                                       |  .             |      id: "memory section" (5) 0x22-0x22.7 (1)
0x020|         03                                    |   .            |      size: 3 0x23-0x23.7 (1)
     |                                               |                |      content{}: 0x24-0x26.7 (3)
     |                                               |                |        mem{}: 0x24-0x26.7 (3)
0x020|            01                                 |    .           |          n: 1 0x24-0x24.7 (1)
     |                                               |                |          x[0:1]: 0x25-0x26.7 (2)
     |                                               |                |            [0]{}: mem 0x25-0x26.7 (2)
     |                                               |                |              lim{}: 0x25-0x26.7 (2)
0x020|               00                              |     .          |                tag: 0x0 0x25-0x25.7 (1)
0x020|                  01                           |      .         |                n: 1 0x26-0x26.7 (1)
     |                                               |                |    [3]{}: section 0x27-0x1c7.7 (417)
0x020|                     07                        |       .        |      id: "export section" (7) 0x27-0x27.7 (1)
0x020|                        9e 03                  |        ..      |      size: 414 0x28-0x29.7 (2)
     |                                               |                |      content{}: 0x2a-0x1c7.7 (414)
     |                                               |                |        ex{}: 0x2a-0x1c7.7 (414)
0x020|                              0c               |          .     |          n: 12 0x2a-0x2a.7 (1)
     |                                               |                |          x[0:12]: 0x2b-0x1c7.7 (413)
     |                                               |                |            [0]{}: ex 0x2b-0x46.7 (28)
     |                                               |                |              nm{}: 0x2b-0x44.7 (26)
0x020|                                 19            |           .    |                n: 25 0x2b-0x2b.7 (1)
0x020|                                    76 31 32 38|            v128|                b: "v128.load8_splat-in-block" 0x2c-0x44.7 (25)
0x030|2e 6c 6f 61 64 38 5f 73 70 6c 61 74 2d 69 6e 2d|.load8_splat-in-|
0x040|62 6c 6f 63 6b                                 |block           |
     |                                               |                |              d{}: 0x45-0x46.7 (2)
0x040|               00                              |     .          |                tag: "funcidx" (0x0) 0x45-0x45.7 (1)
0x040|                  00                           |      .         |                x: 0 0x46-0x46.7 (1)
     |                                               |                |            [1]{}: ex 0x47-0x63.7 (29)
     |                                               |                |              nm{}: 0x47-0x61.7 (27)
0x040|                     1a                        |       .        |                n: 26 0x47-0x47.7 (1)
0x040|                        76 31 32 38 2e 6c 6f 61|        v128.loa|                b: "v128.load16_splat-in-block" 0x48-0x61.7 (26)
0x050|64 31 36 5f 73 70 6c 61 74 2d 69 6e 2d 62 6c 6f|d16_splat-in-blo|
0x060|63 6b                                          |ck              |
     |                                               |                |              d{}: 0x62-0x63.7 (2)
0x060|      00                                       |  .             |                tag: "funcidx" (0x0) 0x62-0x62.7 (1)
0x060|         01                                    |   .            |                x: 1 0x63-0x63.7 (1)
     |                                               |                |            [2]{}: ex 0x64-0x80.7 (29)
     |                                               |                |              nm{}: 0x64-0x7e.7 (27)
0x060|            1a                                 |    .           |                n: 26 0x64-0x64.7 (1)
0x060|               76 31 32 38 2e 6c 6f 61 64 33 32|     v128.load32|                b: "v128.load32_splat-in-block" 0x65-0x7e.7 (26)
0x070|5f 73 70 6c 61 74 2d 69 6e 2d 62 6c 6f 63 6b   |_splat-in-block |
     |                                               |                |              d{}: 0x7f-0x80.7 (2)
0x070|                                             00|               .|                tag: "funcidx" (0x0) 0x7f-0x7f.7 (1)
0x080|02                                             |.               |                x: 2 0x80-0x80.7 (1)
     |                                               |                |            [3]{}: ex 0x81-0x9d.7 (29)
     |                                               |                |              nm{}: 0x81-0x9b.7 (27)
0x080|   1a                                          | .              |                n: 26 0x81-0x81.7 (1)
0x080|      76 31 32 38 2e 6c 6f 61 64 36 34 5f 73 70|  v128.load64_sp|                b: "v128.load64_splat-in-block" 0x82-0x9b.7 (26)
0x090|6c 61 74 2d 69 6e 2d 62 6c 6f 63 6b            |lat-in-block    |
     |                                               |                |              d{}: 0x9c-0x9d.7 (2)
0x090|                                    00         |            .   |                tag: "funcidx" (0x0) 0x9c-0x9c.7 (1)
0x090|                                       03      |             .  |                x: 3 0x9d-0x9d.7 (1)
     |                                               |                |            [4]{}: ex 0x9e-0xbc.7 (31)
     |                                               |                |              nm{}: 0x9e-0xba.7 (29)
0x090|                                          1c   |              . |                n: 28 0x9e-0x9e.7 (1)
0x090|                                             76|               v|                b: "v128.load8_splat-as-br-value" 0x9f-0xba.7 (28)
0x0a0|31 32 38 2e 6c 6f 61 64 38 5f 73 70 6c 61 74 2d|128.load8_splat-|
0x0b0|61 73 2d 62 72 2d 76 61 6c 75 65               |as-br-value     |
     |                                               |                |              d{}: 0xbb-0xbc.7 (2)
0x0b0|                                 00            |           .    |                tag: "funcidx" (0x0) 0xbb-0xbb.7 (1)
0x0b0|                                    04         |            .   |                x: 4 0xbc-0xbc.7 (1)
     |                                               |                |            [5]{}: ex 0xbd-0xdc.7 (32)
     |                                               |                |              nm{}: 0xbd-0xda.7 (30)
0x0b0|                                       1d      |             .  |                n: 29 0xbd-0xbd.7 (1)
0x0b0|                                          76 31|              v1|                b: "v128.load16_splat-as-br-value" 0xbe-0xda.7 (29)
0x0c0|32 38 2e 6c 6f 61 64 31 36 5f 73 70 6c 61 74 2d|28.load16_splat-|
0x0d0|61 73 2d 62 72 2d 76 61 6c 75 65               |as-br-value     |
     |                                               |                |              d{}: 0xdb-0xdc.7 (2)
0x0d0|                                 00            |           .    |                tag: "funcidx" (0x0) 0xdb-0xdb.7 (1)
0x0d0|                                    05         |            .   |                x: 5 0xdc-0xdc.7 (1)
     |                                               |                |            [6]{}: ex 0xdd-0xfc.7 (32)
     |                                               |                |              nm{}: 0xdd-0xfa.7 (30)
0x0d0|                                       1d      |             .  |                n: 29 0xdd-0xdd.7 (1)
0x0d0|                                          76 31|              v1|                b: "v128.load32_splat-as-br-value" 0xde-0xfa.7 (29)
0x0e0|32 38 2e 6c 6f 61 64 33 32 5f 73 70 6c 61 74 2d|28.load32_splat-|
0x0f0|61 73 2d 62 72 2d 76 61 6c 75 65               |as-br-value     |
     |                                               |                |              d{}: 0xfb-0xfc.7 (2)
0x0f0|                                 00            |           .    |                tag: "funcidx" (0x0) 0xfb-0xfb.7 (1)
0x0f0|                                    06         |            .   |                x: 6 0xfc-0xfc.7 (1)
     |                                               |                |            [7]{}: ex 0xfd-0x11c.7 (32)
     |                                               |                |              nm{}: 0xfd-0x11a.7 (30)
0x0f0|                                       1d      |             .  |                n: 29 0xfd-0xfd.7 (1)
0x0f0|                                          76 31|              v1|                b: "v128.load64_splat-as-br-value" 0xfe-0x11a.7 (29)
0x100|32 38 2e 6c 6f 61 64 36 34 5f 73 70 6c 61 74 2d|28.load64_splat-|
0x110|61 73 2d 62 72 2d 76 61 6c 75 65               |as-br-value     |
     |                                               |                |              d{}: 0x11b-0x11c.7 (2)
0x110|                                 00            |           .    |                tag: "funcidx" (0x0) 0x11b-0x11b.7 (1)
0x110|                                    07         |            .   |                x: 7 0x11c-0x11c.7 (1)
     |                                               |                |            [8]{}: ex 0x11d-0x146.7 (42)
     |                                               |                |              nm{}: 0x11d-0x144.7 (40)
0x110|                                       27      |             '  |                n: 39 0x11d-0x11d.7 (1)
0x110|                                          76 31|              v1|                b: "v128.load8_splat-extract_lane_s-operand" 0x11e-0x144.7 (39)
0x120|32 38 2e 6c 6f 61 64 38 5f 73 70 6c 61 74 2d 65|28.load8_splat-e|
*    |until 0x144.7 (39)                             |                |
     |                                               |                |              d{}: 0x145-0x146.7 (2)
0x140|               00                              |     .          |                tag: "funcidx" (0x0) 0x145-0x145.7 (1)
0x140|                  08                           |      .         |                x: 8 0x146-0x146.7 (1)
     |                                               |                |            [9]{}: ex 0x147-0x171.7 (43)
     |                                               |                |              nm{}: 0x147-0x16f.7 (41)
0x140|                     28                        |       (        |                n: 40 0x147-0x147.7 (1)
0x140|                        76 31 32 38 2e 6c 6f 61|        v128.loa|                b: "v128.load16_splat-extract_lane_s-operand" 0x148-0x16f.7 (40)
0x150|64 31 36 5f 73 70 6c 61 74 2d 65 78 74 72 61 63|d16_splat-extrac|
0x160|74 5f 6c 61 6e 65 5f 73 2d 6f 70 65 72 61 6e 64|t_lane_s-operand|
     |                                               |                |              d{}: 0x170-0x171.7 (2)
0x170|00                                             |.               |                tag: "funcidx" (0x0) 0x170-0x170.7 (1)
0x170|   09                                          | .              |                x: 9 0x171-0x171.7 (1)
     |                                               |                |            [10]{}: ex 0x172-0x19c.7 (43)
     |                                               |                |              nm{}: 0x172-0x19a.7 (41)
0x170|      28                                       |  (             |                n: 40 0x172-0x172.7 (1)
0x170|         76 31 32 38 2e 6c 6f 61 64 33 32 5f 73|   v128.load32_s|                b: "v128.load32_splat-extract_lane_s-operand" 0x173-0x19a.7 (40)
0x180|70 6c 61 74 2d 65 78 74 72 61 63 74 5f 6c 61 6e|plat-extract_lan|
0x190|65 5f 73 2d 6f 70 65 72 61 6e 64               |e_s-operand     |
     |                                               |                |              d{}: 0x19b-0x19c.7 (2)
0x190|                                 00            |           .    |                tag: "funcidx" (0x0) 0x19b-0x19b.7 (1)
0x190|                                    0a         |            .   |                x: 10 0x19c-0x19c.7 (1)
     |                                               |                |            [11]{}: ex 0x19d-0x1c7.7 (43)
     |                                               |                |              nm{}: 0x19d-0x1c5.7 (41)
0x190|                                       28      |             (  |                n: 40 0x19d-0x19d.7 (1)
0x190|                                          76 31|              v1|                b: "v128.load64_splat-extract_lane_s-operand" 0x19e-0x1c5.7 (40)
0x1a0|32 38 2e 6c 6f 61 64 36 34 5f 73 70 6c 61 74 2d|28.load64_splat-|
*    |until 0x1c5.7 (40)                             |                |
     |                                               |                |              d{}: 0x1c6-0x1c7.7 (2)
0x1c0|                  00                           |      .         |                tag: "funcidx" (0x0) 0x1c6-0x1c6.7 (1)
0x1c0|                     0b                        |       .        |                x: 11 0x1c7-0x1c7.7 (1)
     |                                               |                |    [4]{}: section 0x1c8-0x26f.7 (168)
0x1c0|                        0a                     |        .       |      id: "code section" (10) 0x1c8-0x1c8.7 (1)
0x1c0|                           a5 01               |         ..     |      size: 165 0x1c9-0x1ca.7 (2)
     |                                               |                |      content{}: 0x1cb-0x26f.7 (165)
     |                                               |                |        code{}: 0x1cb-0x26f.7 (165)
0x1c0|                                 0c            |           .    |          n: 12 0x1cb-0x1cb.7 (1)
     |                                               |                |          x[0:12]: 0x1cc-0x26f.7 (164)
     |                                               |                |            [0]{}: code 0x1cc-0x1da.7 (15)
0x1c0|                                    0e         |            .   |              size: 14 0x1cc-0x1cc.7 (1)
     |                                               |                |              code{}: 0x1cd-0x1da.7 (14)
     |                                               |                |                t{}: 0x1cd-0x1cd.7 (1)
0x1c0|                                       00      |             .  |                  n: 0 0x1cd-0x1cd.7 (1)
     |                                               |                |                  x[0:0]: 0x1ce-NA (0)
     |                                               |                |                e[0:2]: 0x1ce-0x1da.7 (13)
     |                                               |                |                  [0]{}: in 0x1ce-0x1d9.7 (12)
0x1c0|                                          02   |              . |                    block: 0x2 (valid) 0x1ce-0x1ce.7 (1)
0x1c0|                                             7b|               {|                    bt: "v128" (123) 0x1cf-0x1cf.7 (1)
     |                                               |                |                    instructions[0:1]: 0x1d0-0x1d8.7 (9)
     |                                               |                |                      [0]{}: instr 0x1d0-0x1d8.7 (9)
0x1d0|02                                             |.               |                        block: 0x2 (valid) 0x1d0-0x1d0.7 (1)
0x1d0|   7b                                          | {              |                        bt: "v128" (123) 0x1d1-0x1d1.7 (1)
     |                                               |                |                        instructions[0:2]: 0x1d2-0x1d7.7 (6)
     |                                               |                |                          [0]{}: instr 0x1d2-0x1d3.7 (2)
0x1d0|      41                                       |  A             |                            i32.const: 0x41 (valid) 0x1d2-0x1d2.7 (1)
0x1d0|         00                                    |   .            |                            n: 0 0x1d3-0x1d3.7 (1)
     |                                               |                |                          [1]{}: instr 0x1d4-0x1d7.7 (4)
0x1d0|            fd                                 |    .           |                            prefix: 0xfd (valid) 0x1d4-0x1d4.7 (1)
0x1d0|               07                              |     .          |                            v128.load8_splat: 7 (valid) 0x1d5-0x1d5.7 (1)
     |                                               |                |                            m{}: 0x1d6-0x1d7.7 (2)
0x1d0|                  00                           |      .         |                              a: 0 0x1d6-0x1d6.7 (1)
0x1d0|                     00                        |       .        |                              o: 0 0x1d7-0x1d7.7 (1)
0x1d0|                        0b                     |        .       |                        end: 11 (valid) 0x1d8-0x1d8.7 (1)
0x1d0|                           0b                  |         .      |                    end: 11 (valid) 0x1d9-0x1d9.7 (1)
     |                                               |                |                  [1]{}: in 0x1da-0x1da.7 (1)
0x1d0|                              0b               |          .     |                    end: 0xb (valid) 0x1da-0x1da.7 (1)
     |                                               |                |            [1]{}: code 0x1db-0x1e9.7 (15)
0x1d0|                                 0e            |           .    |              size: 14 0x1db-0x1db.7 (1)
     |                                               |                |              code{}: 0x1dc-0x1e9.7 (14)
     |                                               |                |                t{}: 0x1dc-0x1dc.7 (1)
0x1d0|                                    00         |            .   |                  n: 0 0x1dc-0x1dc.7 (1)
     |                                               |                |                  x[0:0]: 0x1dd-NA (0)
     |                                               |                |                e[0:2]: 0x1dd-0x1e9.7 (13)
     |                                               |                |                  [0]{}: in 0x1dd-0x1e8.7 (12)
0x1d0|                                       02      |             .  |                    block: 0x2 (valid) 0x1dd-0x1dd.7 (1)
0x1d0|                                          7b   |              { |                    bt: "v128" (123) 0x1de-0x1de.7 (1)
     |                                               |                |                    instructions[0:1]: 0x1df-0x1e7.7 (9)
     |                                               |                |                      [0]{}: instr 0x1df-0x1e7.7 (9)
0x1d0|                                             02|               .|                        block: 0x2 (valid) 0x1df-0x1df.7 (1)
0x1e0|7b                                             |{               |                        bt: "v128" (123) 0x1e0-0x1e0.7 (1)
     |                                               |                |                        instructions[0:2]: 0x1e1-0x1e6.7 (6)
     |                                               |                |                          [0]{}: instr 0x1e1-0x1e2.7 (2)
0x1e0|   41                                          | A              |                            i32.const: 0x41 (valid) 0x1e1-0x1e1.7 (1)
0x1e0|      01                                       |  .             |                            n: 1 0x1e2-0x1e2.7 (1)
     |                                               |                |                          [1]{}: instr 0x1e3-0x1e6.7 (4)
0x1e0|         fd                                    |   .            |                            prefix: 0xfd (valid) 0x1e3-0x1e3.7 (1)
0x1e0|            08                                 |    .           |                            v128.load16_splat: 8 (valid) 0x1e4-0x1e4.7 (1)
     |                                               |                |                            m{}: 0x1e5-0x1e6.7 (2)
0x1e0|               01                              |     .          |                              a: 1 0x1e5-0x1e5.7 (1)
0x1e0|                  00                           |      .         |                              o: 0 0x1e6-0x1e6.7 (1)
0x1e0|                     0b                        |       .        |                        end: 11 (valid) 0x1e7-0x1e7.7 (1)
0x1e0|                        0b                     |        .       |                    end: 11 (valid) 0x1e8-0x1e8.7 (1)
     |                                               |                |                  [1]{}: in 0x1e9-0x1e9.7 (1)
0x1e0|                           0b                  |         .      |                    end: 0xb (valid) 0x1e9-0x1e9.7 (1)
     |                                               |                |            [2]{}: code 0x1ea-0x1f8.7 (15)
0x1e0|                              0e               |          .     |              size: 14 0x1ea-0x1ea.7 (1)
     |                                               |                |              code{}: 0x1eb-0x1f8.7 (14)
     |                                               |                |                t{}: 0x1eb-0x1eb.7 (1)
0x1e0|                                 00            |           .    |                  n: 0 0x1eb-0x1eb.7 (1)
     |                                               |                |                  x[0:0]: 0x1ec-NA (0)
     |                                               |                |                e[0:2]: 0x1ec-0x1f8.7 (13)
     |                                               |                |                  [0]{}: in 0x1ec-0x1f7.7 (12)
0x1e0|                                    02         |            .   |                    block: 0x2 (valid) 0x1ec-0x1ec.7 (1)
0x1e0|                                       7b      |             {  |                    bt: "v128" (123) 0x1ed-0x1ed.7 (1)
     |                                               |                |                    instructions[0:1]: 0x1ee-0x1f6.7 (9)
     |                                               |                |                      [0]{}: instr 0x1ee-0x1f6.7 (9)
0x1e0|                                          02   |              . |                        block: 0x2 (valid) 0x1ee-0x1ee.7 (1)
0x1e0|                                             7b|               {|                        bt: "v128" (123) 0x1ef-0x1ef.7 (1)
     |                                               |                |                        instructions[0:2]: 0x1f0-0x1f5.7 (6)
     |                                               |                |                          [0]{}: instr 0x1f0-0x1f1.7 (2)
0x1f0|41                                             |A               |                            i32.const: 0x41 (valid) 0x1f0-0x1f0.7 (1)
0x1f0|   02                                          | .              |                            n: 2 0x1f1-0x1f1.7 (1)
     |                                               |                |                          [1]{}: instr 0x1f2-0x1f5.7 (4)
0x1f0|      fd                                       |  .             |                            prefix: 0xfd (valid) 0x1f2-0x1f2.7 (1)
0x1f0|         09                                    |   .            |                            v128.load32_splat: 9 (valid) 0x1f3-0x1f3.7 (1)
     |                                               |                |                            m{}: 0x1f4-0x1f5.7 (2)
0x1f0|            02                                 |    .           |                              a: 2 0x1f4-0x1f4.7 (1)
0x1f0|               00                              |     .          |                              o: 0 0x1f5-0x1f5.7 (1)
0x1f0|                  0b                           |      .         |                        end: 11 (valid) 0x1f6-0x1f6.7 (1)
0x1f0|                     0b                        |       .        |                    end: 11 (valid) 0x1f7-0x1f7.7 (1)
     |                                               |                |                  [1]{}: in 0x1f8-0x1f8.7 (1)
0x1f0|                        0b                     |        .       |                    end: 0xb (valid) 0x1f8-0x1f8.7 (1)
     |                                               |                |            [3]{}: code 0x1f9-0x207.7 (15)
0x1f0|                           0e                  |         .      |              size: 14 0x1f9-0x1f9.7 (1)
     |                                               |                |              code{}: 0x1fa-0x207.7 (14)
     |                                               |                |                t{}: 0x1fa-0x1fa.7 (1)
0x1f0|                              00               |          .     |                  n: 0 0x1fa-0x1fa.7 (1)
     |                                               |                |                  x[0:0]: 0x1fb-NA (0)
     |                                               |                |                e[0:2]: 0x1fb-0x207.7 (13)
     |                                               |                |                  [0]{}: in 0x1fb-0x206.7 (12)
0x1f0|                                 02            |           .    |                    block: 0x2 (valid) 0x1fb-0x1fb.7 (1)
0x1f0|                                    7b         |            {   |                    bt: "v128" (123) 0x1fc-0x1fc.7 (1)
     |                                               |                |                    instructions[0:1]: 0x1fd-0x205.7 (9)
     |                                               |                |                      [0]{}: instr 0x1fd-0x205.7 (9)
0x1f0|                                       02      |             .  |                        block: 0x2 (valid) 0x1fd-0x1fd.7 (1)
0x1f0|                                          7b   |              { |                        bt: "v128" (123) 0x1fe-0x1fe.7 (1)
     |                                               |                |                        instructions[0:2]: 0x1ff-0x204.7 (6)
     |                                               |                |                          [0]{}: instr 0x1ff-0x200.7 (2)
0x1f0|                                             41|               A|                            i32.const: 0x41 (valid) 0x1ff-0x1ff.7 (1)
0x200|09                                             |.               |                            n: 9 0x200-0x200.7 (1)
     |                                               |                |                          [1]{}: instr 0x201-0x204.7 (4)
0x200|   fd                                          | .              |                            prefix: 0xfd (valid) 0x201-0x201.7 (1)
0x200|      0a                                       |  .             |                            v128.load64_splat: 10 (valid) 0x202-0x202.7 (1)
     |                                               |                |                            m{}: 0x203-0x204.7 (2)
0x200|         03                                    |   .            |                              a: 3 0x203-0x203.7 (1)
0x200|            00                                 |    .           |                              o: 0 0x204-0x204.7 (1)
0x200|               0b                              |     .          |                        end: 11 (valid) 0x205-0x205.7 (1)
0x200|                  0b                           |      .         |                    end: 11 (valid) 0x206-0x206.7 (1)
     |                                               |                |                  [1]{}: in 0x207-0x207.7 (1)
0x200|                     0b                        |       .        |                    end: 0xb (valid) 0x207-0x207.7 (1)
     |                                               |                |            [4]{}: code 0x208-0x215.7 (14)
0x200|                        0d                     |        .       |              size: 13 0x208-0x208.7 (1)
     |                                               |                |              code{}: 0x209-0x215.7 (13)
     |                                               |                |                t{}: 0x209-0x209.7 (1)
0x200|                           00                  |         .      |                  n: 0 0x209-0x209.7 (1)
     |                                               |                |                  x[0:0]: 0x20a-NA (0)
     |                                               |                |                e[0:2]: 0x20a-0x215.7 (12)
     |                                               |                |                  [0]{}: in 0x20a-0x214.7 (11)
0x200|                              02               |          .     |                    block: 0x2 (valid) 0x20a-0x20a.7 (1)
0x200|                                 7b            |           {    |                    bt: "v128" (123) 0x20b-0x20b.7 (1)
     |                                               |                |                    instructions[0:3]: 0x20c-0x213.7 (8)
     |                                               |                |                      [0]{}: instr 0x20c-0x20d.7 (2)
0x200|                                    41         |            A   |                        i32.const: 0x41 (valid) 0x20c-0x20c.7 (1)
0x200|                                       03      |             .  |                        n: 3 0x20d-0x20d.7 (1)
     |                                               |                |                      [1]{}: instr 0x20e-0x211.7 (4)
0x200|                                          fd   |              . |                        prefix: 0xfd (valid) 0x20e-0x20e.7 (1)
0x200|                                             07|               .|                        v128.load8_splat: 7 (valid) 0x20f-0x20f.7 (1)
     |                                               |                |                        m{}: 0x210-0x211.7 (2)
0x210|00                                             |.               |                          a: 0 0x210-0x210.7 (1)
0x210|   00                                          | .              |                          o: 0 0x211-0x211.7 (1)
     |                                               |                |                      [2]{}: instr 0x212-0x213.7 (2)
0x210|      0c                                       |  .             |                        br: 0xc (valid) 0x212-0x212.7 (1)
0x210|         00                                    |   .            |                        l: 0 0x213-0x213.7 (1)
0x210|            0b                                 |    .           |                    end: 11 (valid) 0x214-0x214.7 (1)
     |                                               |                |                  [1]{}: in 0x215-0x215.7 (1)
0x210|               0b                              |     .          |                    end: 0xb (valid) 0x215-0x215.7 (1)
     |                                               |                |            [5]{}: code 0x216-0x223.7 (14)
0x210|                  0d                           |      .         |              size: 13 0x216-0x216.7 (1)
     |                                               |                |              code{}: 0x217-0x223.7 (13)
     |                                               |                |                t{}: 0x217-0x217.7 (1)
0x210|                     00                        |       .        |                  n: 0 0x217-0x217.7 (1)
     |                                               |                |                  x[0:0]: 0x218-NA (0)
     |                                               |                |                e[0:2]: 0x218-0x223.7 (12)
     |                                               |                |                  [0]{}: in 0x218-0x222.7 (11)
0x210|                        02                     |        .       |                    block: 0x2 (valid) 0x218-0x218.7 (1)
0x210|                           7b                  |         {      |                    bt: "v128" (123) 0x219-0x219.7 (1)
     |                                               |                |                    instructions[0:3]: 0x21a-0x221.7 (8)
     |                                               |                |                      [0]{}: instr 0x21a-0x21b.7 (2)
0x210|                              41               |          A     |                        i32.const: 0x41 (valid) 0x21a-0x21a.7 (1)
0x210|                                 04            |           .    |                        n: 4 0x21b-0x21b.7 (1)
     |                                               |                |                      [1]{}: instr 0x21c-0x21f.7 (4)
0x210|                                    fd         |            .   |                        prefix: 0xfd (valid) 0x21c-0x21c.7 (1)
0x210|                                       08      |             .  |                        v128.load16_splat: 8 (valid) 0x21d-0x21d.7 (1)
     |                                               |                |                        m{}: 0x21e-0x21f.7 (2)
0x210|                                          01   |              . |                          a: 1 0x21e-0x21e.7 (1)
0x210|                                             00|               .|                          o: 0 0x21f-0x21f.7 (1)
     |                                               |                |                      [2]{}: instr 0x220-0x221.7 (2)
0x220|0c                                             |.               |                        br: 0xc (valid) 0x220-0x220.7 (1)
0x220|   00                                          | .              |                        l: 0 0x221-0x221.7 (1)
0x220|      0b                                       |  .             |                    end: 11 (valid) 0x222-0x222.7 (1)
     |                                               |                |                  [1]{}: in 0x223-0x223.7 (1)
0x220|         0b                                    |   .            |                    end: 0xb (valid) 0x223-0x223.7 (1)
     |                                               |                |            [6]{}: code 0x224-0x231.7 (14)
0x220|            0d                                 |    .           |              size: 13 0x224-0x224.7 (1)
     |                                               |                |              code{}: 0x225-0x231.7 (13)
     |                                               |                |                t{}: 0x225-0x225.7 (1)
0x220|               00                              |     .          |                  n: 0 0x225-0x225.7 (1)
     |                                               |                |                  x[0:0]: 0x226-NA (0)
     |                                               |                |                e[0:2]: 0x226-0x231.7 (12)
     |                                               |                |                  [0]{}: in 0x226-0x230.7 (11)
0x220|                  02                           |      .         |                    block: 0x2 (valid) 0x226-0x226.7 (1)
0x220|                     7b                        |       {        |                    bt: "v128" (123) 0x227-0x227.7 (1)
     |                                               |                |                    instructions[0:3]: 0x228-0x22f.7 (8)
     |                                               |                |                      [0]{}: instr 0x228-0x229.7 (2)
0x220|                        41                     |        A       |                        i32.const: 0x41 (valid) 0x228-0x228.7 (1)
0x220|                           05                  |         .      |                        n: 5 0x229-0x229.7 (1)
     |                                               |                |                      [1]{}: instr 0x22a-0x22d.7 (4)
0x220|                              fd               |          .     |                        prefix: 0xfd (valid) 0x22a-0x22a.7 (1)
0x220|                                 09            |           .    |                        v128.load32_splat: 9 (valid) 0x22b-0x22b.7 (1)
     |                                               |                |                        m{}: 0x22c-0x22d.7 (2)
0x220|                                    02         |            .   |                          a: 2 0x22c-0x22c.7 (1)
0x220|                                       00      |             .  |                          o: 0 0x22d-0x22d.7 (1)
     |                                               |                |                      [2]{}: instr 0x22e-0x22f.7 (2)
0x220|                                          0c   |              . |                        br: 0xc (valid) 0x22e-0x22e.7 (1)
0x220|                                             00|               .|                        l: 0 0x22f-0x22f.7 (1)
0x230|0b                                             |.               |                    end: 11 (valid) 0x230-0x230.7 (1)
     |                                               |                |                  [1]{}: in 0x231-0x231.7 (1)
0x230|   0b                                          | .              |                    end: 0xb (valid) 0x231-0x231.7 (1)
     |                                               |                |            [7]{}: code 0x232-0x23f.7 (14)
0x230|      0d                                       |  .             |              size: 13 0x232-0x232.7 (1)
     |                                               |                |              code{}: 0x233-0x23f.7 (13)
     |                                               |                |                t{}: 0x233-0x233.7 (1)
0x230|         00                                    |   .            |                  n: 0 0x233-0x233.7 (1)
     |                                               |                |                  x[0:0]: 0x234-NA (0)
     |                                               |                |                e[0:2]: 0x234-0x23f.7 (12)
     |                                               |                |                  [0]{}: in 0x234-0x23e.7 (11)
0x230|            02                                 |    .           |                    block: 0x2 (valid) 0x234-0x234.7 (1)
0x230|               7b                              |     {          |                    bt: "v128" (123) 0x235-0x235.7 (1)
     |                                               |                |                    instructions[0:3]: 0x236-0x23d.7 (8)
     |                                               |                |                      [0]{}: instr 0x236-0x237.7 (2)
0x230|                  41                           |      A         |                        i32.const: 0x41 (valid) 0x236-0x236.7 (1)
0x230|                     0a                        |       .        |                        n: 10 0x237-0x237.7 (1)
     |                                               |                |                      [1]{}: instr 0x238-0x23b.7 (4)
0x230|                        fd                     |        .       |                        prefix: 0xfd (valid) 0x238-0x238.7 (1)
0x230|                           0a                  |         .      |                        v128.load64_splat: 10 (valid) 0x239-0x239.7 (1)
     |                                               |                |                        m{}: 0x23a-0x23b.7 (2)
0x230|                              03               |          .     |                          a: 3 0x23a-0x23a.7 (1)
0x230|                                 00            |           .    |                          o: 0 0x23b-0x23b.7 (1)
     |                                               |                |                      [2]{}: instr 0x23c-0x23d.7 (2)
0x230|                                    0c         |            .   |                        br: 0xc (valid) 0x23c-0x23c.7 (1)
0x230|                                       00      |             .  |                        l: 0 0x23d-0x23d.7 (1)
0x230|                                          0b   |              . |                    end: 11 (valid) 0x23e-0x23e.7 (1)
     |                                               |                |                  [1]{}: in 0x23f-0x23f.7 (1)
0x230|                                             0b|               .|                    end: 0xb (valid) 0x23f-0x23f.7 (1)
     |                                               |                |            [8]{}: code 0x240-0x24b.7 (12)
0x240|0b                                             |.               |              size: 11 0x240-0x240.7 (1)
     |                                               |                |              code{}: 0x241-0x24b.7 (11)
     |                                               |                |                t{}: 0x241-0x241.7 (1)
0x240|   00                                          | .              |                  n: 0 0x241-0x241.7 (1)
     |                                               |                |                  x[0:0]: 0x242-NA (0)
     |                                               |                |                e[0:4]: 0x242-0x24b.7 (10)
     |                                               |                |                  [0]{}: in 0x242-0x243.7 (2)
0x240|      41                                       |  A             |                    i32.const: 0x41 (valid) 0x242-0x242.7 (1)
0x240|         06                                    |   .            |                    n: 6 0x243-0x243.7 (1)
     |                                               |                |                  [1]{}: in 0x244-0x247.7 (4)
0x240|            fd                                 |    .           |                    prefix: 0xfd (valid) 0x244-0x244.7 (1)
0x240|               07                              |     .          |                    v128.load8_splat: 7 (valid) 0x245-0x245.7 (1)
     |                                               |                |                    m{}: 0x246-0x247.7 (2)
0x240|                  00                           |      .         |                      a: 0 0x246-0x246.7 (1)
0x240|                     00                        |       .        |                      o: 0 0x247-0x247.7 (1)
     |                                               |                |                  [2]{}: in 0x248-0x24a.7 (3)
0x240|                        fd                     |        .       |                    prefix: 0xfd (valid) 0x248-0x248.7 (1)
0x240|                           15                  |         .      |                    i8x16.extract_lane_s: 21 (valid) 0x249-0x249.7 (1)
0x240|                              00               |          .     |                    l: 0 0x24a-0x24a.7 (1)
     |                                               |                |                  [3]{}: in 0x24b-0x24b.7 (1)
0x240|                                 0b            |           .    |                    end: 0xb (valid) 0x24b-0x24b.7 (1)
     |                                               |                |            [9]{}: code 0x24c-0x257.7 (12)
0x240|                                    0b         |            .   |              size: 11 0x24c-0x24c.7 (1)
     |                                               |                |              code{}: 0x24d-0x257.7 (11)
     |                                               |                |                t{}: 0x24d-0x24d.7 (1)
0x240|                                       00      |             .  |                  n: 0 0x24d-0x24d.7 (1)
     |                                               |                |                  x[0:0]: 0x24e-NA (0)
     |                                               |                |                e[0:4]: 0x24e-0x257.7 (10)
     |                                               |                |                  [0]{}: in 0x24e-0x24f.7 (2)
0x240|                                          41   |              A |                    i32.const: 0x41 (valid) 0x24e-0x24e.7 (1)
0x240|                                             07|               .|                    n: 7 0x24f-0x24f.7 (1)
     |                                               |                |                  [1]{}: in 0x250-0x253.7 (4)
0x250|fd                                             |.               |                    prefix: 0xfd (valid) 0x250-0x250.7 (1)
0x250|   08                                          | .              |                    v128.load16_splat: 8 (valid) 0x251-0x251.7 (1)
     |                                               |                |                    m{}: 0x252-0x253.7 (2)
0x250|      01                                       |  .             |                      a: 1 0x252-0x252.7 (1)
0x250|         00                                    |   .            |                      o: 0 0x253-0x253.7 (1)
     |                                               |                |                  [2]{}: in 0x254-0x256.7 (3)
0x250|            fd                                 |    .           |                    prefix: 0xfd (valid) 0x254-0x254.7 (1)
0x250|               15                              |     .          |                    i8x16.extract_lane_s: 21 (valid) 0x255-0x255.7 (1)
0x250|                  00                           |      .         |                    l: 0 0x256-0x256.7 (1)
     |                                               |                |                  [3]{}: in 0x257-0x257.7 (1)
0x250|                     0b                        |       .        |                    end: 0xb (valid) 0x257-0x257.7 (1)
     |                                               |                |            [10]{}: code 0x258-0x263.7 (12)
0x250|                        0b                     |        .       |              size: 11 0x258-0x258.7 (1)
     |                                               |                |              code{}: 0x259-0x263.7 (11)
     |                                               |                |                t{}: 0x259-0x259.7 (1)
0x250|                           00                  |         .      |                  n: 0 0x259-0x259.7 (1)
     |                                               |                |                  x[0:0]: 0x25a-NA (0)
     |                                               |                |                e[0:4]: 0x25a-0x263.7 (10)
     |                                               |                |                  [0]{}: in 0x25a-0x25b.7 (2)
0x250|                              41               |          A     |                    i32.const: 0x41 (valid) 0x25a-0x25a.7 (1)
0x250|                                 08            |           .    |                    n: 8 0x25b-0x25b.7 (1)
     |                                               |                |                  [1]{}: in 0x25c-0x25f.7 (4)
0x250|                                    fd         |            .   |                    prefix: 0xfd (valid) 0x25c-0x25c.7 (1)
0x250|                                       09      |             .  |                    v128.load32_splat: 9 (valid) 0x25d-0x25d.7 (1)
     |                                               |                |                    m{}: 0x25e-0x25f.7 (2)
0x250|                                          02   |              . |                      a: 2 0x25e-0x25e.7 (1)
0x250|                                             00|               .|                      o: 0 0x25f-0x25f.7 (1)
     |                                               |                |                  [2]{}: in 0x260-0x262.7 (3)
0x260|fd                                             |.               |                    prefix: 0xfd (valid) 0x260-0x260.7 (1)
0x260|   15                                          | .              |                    i8x16.extract_lane_s: 21 (valid) 0x261-0x261.7 (1)
0x260|      00                                       |  .             |                    l: 0 0x262-0x262.7 (1)
     |                                               |                |                  [3]{}: in 0x263-0x263.7 (1)
0x260|         0b                                    |   .            |                    end: 0xb (valid) 0x263-0x263.7 (1)
     |                                               |                |            [11]{}: code 0x264-0x26f.7 (12)
0x260|            0b                                 |    .           |              size: 11 0x264-0x264.7 (1)
     |                                               |                |              code{}: 0x265-0x26f.7 (11)
     |                                               |                |                t{}: 0x265-0x265.7 (1)
0x260|               00                              |     .          |                  n: 0 0x265-0x265.7 (1)
     |                                               |                |                  x[0:0]: 0x266-NA (0)
     |                                               |                |                e[0:4]: 0x266-0x26f.7 (10)
     |                                               |                |                  [0]{}: in 0x266-0x267.7 (2)
0x260|                  41                           |      A         |                    i32.const: 0x41 (valid) 0x266-0x266.7 (1)
0x260|                     0b                        |       .        |                    n: 11 0x267-0x267.7 (1)
     |                                               |                |                  [1]{}: in 0x268-0x26b.7 (4)
0x260|                        fd                     |        .       |                    prefix: 0xfd (valid) 0x268-0x268.7 (1)
0x260|                           0a                  |         .      |                    v128.load64_splat: 10 (valid) 0x269-0x269.7 (1)
     |                                               |                |                    m{}: 0x26a-0x26b.7 (2)
0x260|                              03               |          .     |                      a: 3 0x26a-0x26a.7 (1)
0x260|                                 00            |           .    |                      o: 0 0x26b-0x26b.7 (1)
     |                                               |                |                  [2]{}: in 0x26c-0x26e.7 (3)
0x260|                                    fd         |            .   |                    prefix: 0xfd (valid) 0x26c-0x26c.7 (1)
0x260|                                       15      |             .  |                    i8x16.extract_lane_s: 21 (valid) 0x26d-0x26d.7 (1)
0x260|                                          00   |              . |                    l: 0 0x26e-0x26e.7 (1)
     |                                               |                |                  [3]{}: in 0x26f-0x26f.7 (1)
0x260|                                             0b|               .|                    end: 0xb (valid) 0x26f-0x26f.7 (1)
     |                                               |                |    [5]{}: section 0x270-0x282.7 (19)
0x270|0b                                             |.               |      id: "data section" (11) 0x270-0x270.7 (1)
0x270|   11                                          | .              |      size: 17 0x271-0x271.7 (1)
     |                                               |                |      content{}: 0x272-0x282.7 (17)
     |                                               |                |        seg{}: 0x272-0x282.7 (17)
0x270|      01                                       |  .             |          n: 1 0x272-0x272.7 (1)
     |                                               |                |          x[0:1]: 0x273-0x282.7 (16)
     |                                               |                |            [0]{}: seg 0x273-0x282.7 (16)
0x270|         00                                    |   .            |              tag: 0 0x273-0x273.7 (1)
     |                                               |                |              e[0:2]: 0x274-0x276.7 (3)
     |                                               |                |                [0]{}: in 0x274-0x275.7 (2)
0x270|            41                                 |    A           |                  i32.const: 0x41 (valid) 0x274-0x274.7 (1)
0x270|               00                              |     .          |                  n: 0 0x275-0x275.7 (1)
     |                                               |                |                [1]{}: in 0x276-0x276.7 (1)
0x270|                  0b                           |      .         |                  end: 0xb (valid) 0x276-0x276.7 (1)
     |                                               |                |              b{}: 0x277-0x282.7 (12)
0x270|                     0b                        |       .        |                n: 11 0x277-0x277.7 (1)
0x270|                        00 01 02 03 04 05 06 07|        ........|                x: raw bits 0x278-0x282.7 (11)
0x280|08 09 0a|                                      |...|            |
