$ fq -d wasm dv simd_load-4.wasm
    |00 01 02 03 04 05 06 07 08 09 0a 0b 0c 0d 0e 0f|0123456789abcdef|.{}: simd_load-4.wasm (wasm) 0x0-0x93 (147)
0x00|00 61 73 6d                                    |.asm            |  magic: raw bits (valid) 0x0-0x4 (4)
0x00|            01 00 00 00                        |    ....        |  version: 1 0x4-0x8 (4)
    |                                               |                |  sections[0:6]: 0x8-0x93 (139)
    |                                               |                |    [0]{}: section 0x8-0xf (7)
0x00|                        01                     |        .       |      id: "type_section" (1) 0x8-0x9 (1)
0x00|                           05                  |         .      |      size: 5 (valid) 0x9-0xa (1)
    |                                               |                |      content{}: 0xa-0xf (5)
    |                                               |                |        ft{}: 0xa-0xf (5)
0x00|                              01               |          .     |          n: 1 (valid) 0xa-0xb (1)
    |                                               |                |          x[0:1]: 0xb-0xf (4)
    |                                               |                |            [0]{}: ft 0xb-0xf (4)
0x00|                                 60            |           `    |              tag: 0x60 (valid) 0xb-0xc (1)
    |                                               |                |              rt1{}: 0xc-0xd (1)
0x00|                                    00         |            .   |                n: 0 (valid) 0xc-0xd (1)
    |                                               |                |                x[0:0]: 0xd-0xd (0)
    |                                               |                |              rt2{}: 0xd-0xf (2)
0x00|                                       01      |             .  |                n: 1 (valid) 0xd-0xe (1)
    |                                               |                |                x[0:1]: 0xe-0xf (1)
0x00|                                          7b   |              { |                  [0]: "v128" (0x7b) t 0xe-0xf (1)
    |                                               |                |    [1]{}: section 0xf-0x13 (4)
0x00|                                             03|               .|      id: "function_section" (3) 0xf-0x10 (1)
0x10|02                                             |.               |      size: 2 (valid) 0x10-0x11 (1)
    |                                               |                |      content{}: 0x11-0x13 (2)
    |                                               |                |        x{}: 0x11-0x13 (2)
0x10|   01                                          | .              |          n: 1 (valid) 0x11-0x12 (1)
    |                                               |                |          x[0:1]: 0x12-0x13 (1)
0x10|      00                                       |  .             |            [0]: 0 x (valid) 0x12-0x13 (1)
    |                                               |                |    [2]{}: section 0x13-0x18 (5)
0x10|         05                                    |   .            |      id: "memory_section" (5) 0x13-0x14 (1)
0x10|            03                                 |    .           |      size: 3 (valid) 0x14-0x15 (1)
    |                                               |                |      content{}: 0x15-0x18 (3)
    |                                               |                |        mem{}: 0x15-0x18 (3)
0x10|               01                              |     .          |          n: 1 (valid) 0x15-0x16 (1)
    |                                               |                |          x[0:1]: 0x16-0x18 (2)
    |                                               |                |            [0]{}: mem 0x16-0x18 (2)
    |                                               |                |              lim{}: 0x16-0x18 (2)
0x10|                  00                           |      .         |                tag: 0x0 0x16-0x17 (1)
0x10|                     01                        |       .        |                n: 1 (valid) 0x17-0x18 (1)
    |                                               |                |    [3]{}: section 0x18-0x37 (31)
0x10|                        07                     |        .       |      id: "export_section" (7) 0x18-0x19 (1)
0x10|                           1d                  |         .      |      size: 29 (valid) 0x19-0x1a (1)
    |                                               |                |      content{}: 0x1a-0x37 (29)
    |                                               |                |        ex{}: 0x1a-0x37 (29)
0x10|                              01               |          .     |          n: 1 (valid) 0x1a-0x1b (1)
    |                                               |                |          x[0:1]: 0x1b-0x37 (28)
    |                                               |                |            [0]{}: ex 0x1b-0x37 (28)
    |                                               |                |              nm{}: 0x1b-0x35 (26)
0x10|                                 19            |           .    |                n: 25 (valid) 0x1b-0x1c (1)
0x10|                                    61 73 2d 76|            as-v|                b: "as-v128.bitselect-operand" 0x1c-0x35 (25)
0x20|31 32 38 2e 62 69 74 73 65 6c 65 63 74 2d 6f 70|128.bitselect-op|
0x30|65 72 61 6e 64                                 |erand           |
    |                                               |                |              d{}: 0x35-0x37 (2)
0x30|               00                              |     .          |                tag: "funcidx" (0x0) 0x35-0x36 (1)
0x30|                  00                           |      .         |                x: 0 (valid) 0x36-0x37 (1)
    |                                               |                |    [4]{}: section 0x37-0x51 (26)
0x30|                     0a                        |       .        |      id: "code_section" (10) 0x37-0x38 (1)
0x30|                        18                     |        .       |      size: 24 (valid) 0x38-0x39 (1)
    |                                               |                |      content{}: 0x39-0x51 (24)
    |                                               |                |        code{}: 0x39-0x51 (24)
0x30|                           01                  |         .      |          n: 1 (valid) 0x39-0x3a (1)
    |                                               |                |          x[0:1]: 0x3a-0x51 (23)
    |                                               |                |            [0]{}: code 0x3a-0x51 (23)
0x30|                              16               |          .     |              size: 22 (valid) 0x3a-0x3b (1)
    |                                               |                |              code{}: 0x3b-0x51 (22)
    |                                               |                |                t{}: 0x3b-0x3c (1)
0x30|                                 00            |           .    |                  n: 0 (valid) 0x3b-0x3c (1)
    |                                               |                |                  x[0:0]: 0x3c-0x3c (0)
    |                                               |                |                e[0:8]: 0x3c-0x51 (21)
    |                                               |                |                  [0]{}: in 0x3c-0x3e (2)
0x30|                                    41         |            A   |                    opcode: "i32.const" (0x41) 0x3c-0x3d (1)
0x30|                                       00      |             .  |                    n: 0 (valid) 0x3d-0x3e (1)
    |                                               |                |                  [1]{}: in 0x3e-0x42 (4)
0x30|                                          fd   |              . |                    opcode: "vector" (0xfd) 0x3e-0x3f (1)
0x30|                                             00|               .|                    v_opcode: "v128.load" (0) 0x3f-0x40 (1)
    |                                               |                |                    m{}: 0x40-0x42 (2)
0x40|04                                             |.               |                      a: 4 (valid) 0x40-0x41 (1)
0x40|   00                                          | .              |                      o: 0 (valid) 0x41-0x42 (1)
    |                                               |                |                  [2]{}: in 0x42-0x44 (2)
0x40|      41                                       |  A             |                    opcode: "i32.const" (0x41) 0x42-0x43 (1)
0x40|         10                                    |   .            |                    n: 16 (valid) 0x43-0x44 (1)
    |                                               |                |                  [3]{}: in 0x44-0x48 (4)
0x40|            fd                                 |    .           |                    opcode: "vector" (0xfd) 0x44-0x45 (1)
0x40|               00                              |     .          |                    v_opcode: "v128.load" (0) 0x45-0x46 (1)
    |                                               |                |                    m{}: 0x46-0x48 (2)
0x40|                  04                           |      .         |                      a: 4 (valid) 0x46-0x47 (1)
0x40|                     00                        |       .        |                      o: 0 (valid) 0x47-0x48 (1)
    |                                               |                |                  [4]{}: in 0x48-0x4a (2)
0x40|                        41                     |        A       |                    opcode: "i32.const" (0x41) 0x48-0x49 (1)
0x40|                           20                  |                |                    n: 32 (valid) 0x49-0x4a (1)
    |                                               |                |                  [5]{}: in 0x4a-0x4e (4)
0x40|                              fd               |          .     |                    opcode: "vector" (0xfd) 0x4a-0x4b (1)
0x40|                                 00            |           .    |                    v_opcode: "v128.load" (0) 0x4b-0x4c (1)
    |                                               |                |                    m{}: 0x4c-0x4e (2)
0x40|                                    04         |            .   |                      a: 4 (valid) 0x4c-0x4d (1)
0x40|                                       00      |             .  |                      o: 0 (valid) 0x4d-0x4e (1)
    |                                               |                |                  [6]{}: in 0x4e-0x50 (2)
0x40|                                          fd   |              . |                    opcode: "vector" (0xfd) 0x4e-0x4f (1)
0x40|                                             52|               R|                    v_opcode: "v128.bitselect" (82) 0x4f-0x50 (1)
    |                                               |                |                  [7]{}: in 0x50-0x51 (1)
0x50|0b                                             |.               |                    opcode: "end" (0xb) 0x50-0x51 (1)
    |                                               |                |    [5]{}: section 0x51-0x93 (66)
0x50|   0b                                          | .              |      id: "data_section" (11) 0x51-0x52 (1)
0x50|      40                                       |  @             |      size: 64 (valid) 0x52-0x53 (1)
    |                                               |                |      content{}: 0x53-0x93 (64)
    |                                               |                |        seg{}: 0x53-0x93 (64)
0x50|         03                                    |   .            |          n: 3 (valid) 0x53-0x54 (1)
    |                                               |                |          x[0:3]: 0x54-0x93 (63)
    |                                               |                |            [0]{}: seg 0x54-0x69 (21)
0x50|            00                                 |    .           |              tag: 0 (valid) 0x54-0x55 (1)
    |                                               |                |              e[0:2]: 0x55-0x58 (3)
    |                                               |                |                [0]{}: in 0x55-0x57 (2)
0x50|               41                              |     A          |                  opcode: "i32.const" (0x41) 0x55-0x56 (1)
0x50|                  00                           |      .         |                  n: 0 (valid) 0x56-0x57 (1)
    |                                               |                |                [1]{}: in 0x57-0x58 (1)
0x50|                     0b                        |       .        |                  opcode: "end" (0xb) 0x57-0x58 (1)
    |                                               |                |              b{}: 0x58-0x69 (17)
0x50|                        10                     |        .       |                n: 16 (valid) 0x58-0x59 (1)
0x50|                           aa aa aa aa aa aa aa|         .......|                x: raw bits 0x59-0x69 (16)
0x60|aa aa aa aa aa aa aa aa aa                     |.........       |
    |                                               |                |            [1]{}: seg 0x69-0x7e (21)
0x60|                           00                  |         .      |              tag: 0 (valid) 0x69-0x6a (1)
    |                                               |                |              e[0:2]: 0x6a-0x6d (3)
    |                                               |                |                [0]{}: in 0x6a-0x6c (2)
0x60|                              41               |          A     |                  opcode: "i32.const" (0x41) 0x6a-0x6b (1)
0x60|                                 10            |           .    |                  n: 16 (valid) 0x6b-0x6c (1)
    |                                               |                |                [1]{}: in 0x6c-0x6d (1)
0x60|                                    0b         |            .   |                  opcode: "end" (0xb) 0x6c-0x6d (1)
    |                                               |                |              b{}: 0x6d-0x7e (17)
0x60|                                       10      |             .  |                n: 16 (valid) 0x6d-0x6e (1)
0x60|                                          bb bb|              ..|                x: raw bits 0x6e-0x7e (16)
0x70|bb bb bb bb bb bb bb bb bb bb bb bb bb bb      |..............  |
    |                                               |                |            [2]{}: seg 0x7e-0x93 (21)
0x70|                                          00   |              . |              tag: 0 (valid) 0x7e-0x7f (1)
    |                                               |                |              e[0:2]: 0x7f-0x82 (3)
    |                                               |                |                [0]{}: in 0x7f-0x81 (2)
0x70|                                             41|               A|                  opcode: "i32.const" (0x41) 0x7f-0x80 (1)
0x80|20                                             |                |                  n: 32 (valid) 0x80-0x81 (1)
    |                                               |                |                [1]{}: in 0x81-0x82 (1)
0x80|   0b                                          | .              |                  opcode: "end" (0xb) 0x81-0x82 (1)
    |                                               |                |              b{}: 0x82-0x93 (17)
0x80|      10                                       |  .             |                n: 16 (valid) 0x82-0x83 (1)
0x80|         f0 f0 f0 f0 ff ff ff ff 00 00 00 00 ff|   .............|                x: raw bits 0x83-0x93 (16)
0x90|00 ff 00|                                      |...|            |
