$ fq -d wasm dv simd_i16x8_arith2-1.wasm
     |00 01 02 03 04 05 06 07 08 09 0a 0b 0c 0d 0e 0f|0123456789abcdef|.{}: simd_i16x8_arith2-1.wasm (wasm) 0x0-0x5ec (1516)
0x000|00 61 73 6d                                    |.asm            |  magic: raw bits (valid) 0x0-0x4 (4)
0x000|            01 00 00 00                        |    ....        |  version: 1 0x4-0x8 (4)
     |                                               |                |  sections[0:4]: 0x8-0x5ec (1508)
     |                                               |                |    [0]{}: section 0x8-0x1d (21)
0x000|                        01                     |        .       |      id: "type_section" (1) 0x8-0x9 (1)
0x000|                           13                  |         .      |      size: 19 (valid) 0x9-0xa (1)
     |                                               |                |      content{}: 0xa-0x1d (19)
     |                                               |                |        ft{}: 0xa-0x1d (19)
0x000|                              03               |          .     |          n: 3 (valid) 0xa-0xb (1)
     |                                               |                |          x[0:3]: 0xb-0x1d (18)
     |                                               |                |            [0]{}: ft 0xb-0x12 (7)
0x000|                                 60            |           `    |              tag: 0x60 (valid) 0xb-0xc (1)
     |                                               |                |              rt1{}: 0xc-0x10 (4)
0x000|                                    03         |            .   |                n: 3 (valid) 0xc-0xd (1)
     |                                               |                |                x[0:3]: 0xd-0x10 (3)
0x000|                                       7b      |             {  |                  [0]: "v128" (0x7b) t 0xd-0xe (1)
0x000|                                          7b   |              { |                  [1]: "v128" (0x7b) t 0xe-0xf (1)
0x000|                                             7b|               {|                  [2]: "v128" (0x7b) t 0xf-0x10 (1)
     |                                               |                |              rt2{}: 0x10-0x12 (2)
0x010|01                                             |.               |                n: 1 (valid) 0x10-0x11 (1)
     |                                               |                |                x[0:1]: 0x11-0x12 (1)
0x010|   7b                                          | {              |                  [0]: "v128" (0x7b) t 0x11-0x12 (1)
     |                                               |                |            [1]{}: ft 0x12-0x18 (6)
0x010|      60                                       |  `             |              tag: 0x60 (valid) 0x12-0x13 (1)
     |                                               |                |              rt1{}: 0x13-0x16 (3)
0x010|         02                                    |   .            |                n: 2 (valid) 0x13-0x14 (1)
     |                                               |                |                x[0:2]: 0x14-0x16 (2)
0x010|            7b                                 |    {           |                  [0]: "v128" (0x7b) t 0x14-0x15 (1)
0x010|               7b                              |     {          |                  [1]: "v128" (0x7b) t 0x15-0x16 (1)
     |                                               |                |              rt2{}: 0x16-0x18 (2)
0x010|                  01                           |      .         |                n: 1 (valid) 0x16-0x17 (1)
     |                                               |                |                x[0:1]: 0x17-0x18 (1)
0x010|                     7b                        |       {        |                  [0]: "v128" (0x7b) t 0x17-0x18 (1)
     |                                               |                |            [2]{}: ft 0x18-0x1d (5)
0x010|                        60                     |        `       |              tag: 0x60 (valid) 0x18-0x19 (1)
     |                                               |                |              rt1{}: 0x19-0x1b (2)
0x010|                           01                  |         .      |                n: 1 (valid) 0x19-0x1a (1)
     |                                               |                |                x[0:1]: 0x1a-0x1b (1)
0x010|                              7b               |          {     |                  [0]: "v128" (0x7b) t 0x1a-0x1b (1)
     |                                               |                |              rt2{}: 0x1b-0x1d (2)
0x010|                                 01            |           .    |                n: 1 (valid) 0x1b-0x1c (1)
     |                                               |                |                x[0:1]: 0x1c-0x1d (1)
0x010|                                    7b         |            {   |                  [0]: "v128" (0x7b) t 0x1c-0x1d (1)
     |                                               |                |    [1]{}: section 0x1d-0x44 (39)
0x010|                                       03      |             .  |      id: "function_section" (3) 0x1d-0x1e (1)
0x010|                                          25   |              % |      size: 37 (valid) 0x1e-0x1f (1)
     |                                               |                |      content{}: 0x1f-0x44 (37)
     |                                               |                |        x{}: 0x1f-0x44 (37)
0x010|                                             24|               $|          n: 36 (valid) 0x1f-0x20 (1)
     |                                               |                |          x[0:36]: 0x20-0x44 (36)
0x020|00                                             |.               |            [0]: 0 x (valid) 0x20-0x21 (1)
0x020|   00                                          | .              |            [1]: 0 x (valid) 0x21-0x22 (1)
0x020|      00                                       |  .             |            [2]: 0 x (valid) 0x22-0x23 (1)
0x020|         00                                    |   .            |            [3]: 0 x (valid) 0x23-0x24 (1)
0x020|            00                                 |    .           |            [4]: 0 x (valid) 0x24-0x25 (1)
0x020|               01                              |     .          |            [5]: 1 x (valid) 0x25-0x26 (1)
0x020|                  01                           |      .         |            [6]: 1 x (valid) 0x26-0x27 (1)
0x020|                     00                        |       .        |            [7]: 0 x (valid) 0x27-0x28 (1)
0x020|                        00                     |        .       |            [8]: 0 x (valid) 0x28-0x29 (1)
0x020|                           00                  |         .      |            [9]: 0 x (valid) 0x29-0x2a (1)
0x020|                              00               |          .     |            [10]: 0 x (valid) 0x2a-0x2b (1)
0x020|                                 00            |           .    |            [11]: 0 x (valid) 0x2b-0x2c (1)
0x020|                                    01         |            .   |            [12]: 1 x (valid) 0x2c-0x2d (1)
0x020|                                       01      |             .  |            [13]: 1 x (valid) 0x2d-0x2e (1)
0x020|                                          00   |              . |            [14]: 0 x (valid) 0x2e-0x2f (1)
0x020|                                             00|               .|            [15]: 0 x (valid) 0x2f-0x30 (1)
0x030|00                                             |.               |            [16]: 0 x (valid) 0x30-0x31 (1)
0x030|   00                                          | .              |            [17]: 0 x (valid) 0x31-0x32 (1)
0x030|      00                                       |  .             |            [18]: 0 x (valid) 0x32-0x33 (1)
0x030|         01                                    |   .            |            [19]: 1 x (valid) 0x33-0x34 (1)
0x030|            01                                 |    .           |            [20]: 1 x (valid) 0x34-0x35 (1)
0x030|               00                              |     .          |            [21]: 0 x (valid) 0x35-0x36 (1)
0x030|                  00                           |      .         |            [22]: 0 x (valid) 0x36-0x37 (1)
0x030|                     00                        |       .        |            [23]: 0 x (valid) 0x37-0x38 (1)
0x030|                        00                     |        .       |            [24]: 0 x (valid) 0x38-0x39 (1)
0x030|                           00                  |         .      |            [25]: 0 x (valid) 0x39-0x3a (1)
0x030|                              01               |          .     |            [26]: 1 x (valid) 0x3a-0x3b (1)
0x030|                                 01            |           .    |            [27]: 1 x (valid) 0x3b-0x3c (1)
0x030|                                    00         |            .   |            [28]: 0 x (valid) 0x3c-0x3d (1)
0x030|                                       00      |             .  |            [29]: 0 x (valid) 0x3d-0x3e (1)
0x030|                                          00   |              . |            [30]: 0 x (valid) 0x3e-0x3f (1)
0x030|                                             00|               .|            [31]: 0 x (valid) 0x3f-0x40 (1)
0x040|00                                             |.               |            [32]: 0 x (valid) 0x40-0x41 (1)
0x040|   01                                          | .              |            [33]: 1 x (valid) 0x41-0x42 (1)
0x040|      01                                       |  .             |            [34]: 1 x (valid) 0x42-0x43 (1)
0x040|         02                                    |   .            |            [35]: 2 x (valid) 0x43-0x44 (1)
     |                                               |                |    [2]{}: section 0x44-0x3e4 (928)
0x040|            07                                 |    .           |      id: "export_section" (7) 0x44-0x45 (1)
0x040|               9d 07                           |     ..         |      size: 925 (valid) 0x45-0x47 (2)
     |                                               |                |      content{}: 0x47-0x3e4 (925)
     |                                               |                |        ex{}: 0x47-0x3e4 (925)
0x040|                     24                        |       $        |          n: 36 (valid) 0x47-0x48 (1)
     |                                               |                |          x[0:36]: 0x48-0x3e4 (924)
     |                                               |                |            [0]{}: ex 0x48-0x63 (27)
     |                                               |                |              nm{}: 0x48-0x61 (25)
0x040|                        18                     |        .       |                n: 24 (valid) 0x48-0x49 (1)
0x040|                           69 31 36 78 38 2e 6d|         i16x8.m|                b: "i16x8.min_s-i16x8.avgr_u" 0x49-0x61 (24)
0x050|69 6e 5f 73 2d 69 31 36 78 38 2e 61 76 67 72 5f|in_s-i16x8.avgr_|
0x060|75                                             |u               |
     |                                               |                |              d{}: 0x61-0x63 (2)
0x060|   00                                          | .              |                tag: "funcidx" (0x0) 0x61-0x62 (1)
0x060|      00                                       |  .             |                x: 0 (valid) 0x62-0x63 (1)
     |                                               |                |            [1]{}: ex 0x63-0x7d (26)
     |                                               |                |              nm{}: 0x63-0x7b (24)
0x060|         17                                    |   .            |                n: 23 (valid) 0x63-0x64 (1)
0x060|            69 31 36 78 38 2e 6d 69 6e 5f 73 2d|    i16x8.min_s-|                b: "i16x8.min_s-i16x8.max_u" 0x64-0x7b (23)
0x070|69 31 36 78 38 2e 6d 61 78 5f 75               |i16x8.max_u     |
     |                                               |                |              d{}: 0x7b-0x7d (2)
0x070|                                 00            |           .    |                tag: "funcidx" (0x0) 0x7b-0x7c (1)
0x070|                                    01         |            .   |                x: 1 (valid) 0x7c-0x7d (1)
     |                                               |                |            [2]{}: ex 0x7d-0x97 (26)
     |                                               |                |              nm{}: 0x7d-0x95 (24)
0x070|                                       17      |             .  |                n: 23 (valid) 0x7d-0x7e (1)
0x070|                                          69 31|              i1|                b: "i16x8.min_s-i16x8.max_s" 0x7e-0x95 (23)
0x080|36 78 38 2e 6d 69 6e 5f 73 2d 69 31 36 78 38 2e|6x8.min_s-i16x8.|
0x090|6d 61 78 5f 73                                 |max_s           |
     |                                               |                |              d{}: 0x95-0x97 (2)
0x090|               00                              |     .          |                tag: "funcidx" (0x0) 0x95-0x96 (1)
0x090|                  02                           |      .         |                x: 2 (valid) 0x96-0x97 (1)
     |                                               |                |            [3]{}: ex 0x97-0xb1 (26)
     |                                               |                |              nm{}: 0x97-0xaf (24)
0x090|                     17                        |       .        |                n: 23 (valid) 0x97-0x98 (1)
0x090|                        69 31 36 78 38 2e 6d 69|        i16x8.mi|                b: "i16x8.min_s-i16x8.min_u" 0x98-0xaf (23)
0x0a0|6e 5f 73 2d 69 31 36 78 38 2e 6d 69 6e 5f 75   |n_s-i16x8.min_u |
     |                                               |                |              d{}: 0xaf-0xb1 (2)
0x0a0|                                             00|               .|                tag: "funcidx" (0x0) 0xaf-0xb0 (1)
0x0b0|03                                             |.               |                x: 3 (valid) 0xb0-0xb1 (1)
     |                                               |                |            [4]{}: ex 0xb1-0xcb (26)
     |                                               |                |              nm{}: 0xb1-0xc9 (24)
0x0b0|   17                                          | .              |                n: 23 (valid) 0xb1-0xb2 (1)
0x0b0|      69 31 36 78 38 2e 6d 69 6e 5f 73 2d 69 31|  i16x8.min_s-i1|                b: "i16x8.min_s-i16x8.min_s" 0xb2-0xc9 (23)
0x0c0|36 78 38 2e 6d 69 6e 5f 73                     |6x8.min_s       |
     |                                               |                |              d{}: 0xc9-0xcb (2)
0x0c0|                           00                  |         .      |                tag: "funcidx" (0x0) 0xc9-0xca (1)
0x0c0|                              04               |          .     |                x: 4 (valid) 0xca-0xcb (1)
     |                                               |                |            [5]{}: ex 0xcb-0xe3 (24)
     |                                               |                |              nm{}: 0xcb-0xe1 (22)
0x0c0|                                 15            |           .    |                n: 21 (valid) 0xcb-0xcc (1)
0x0c0|                                    69 31 36 78|            i16x|                b: "i16x8.min_s-i16x8.abs" 0xcc-0xe1 (21)
0x0d0|38 2e 6d 69 6e 5f 73 2d 69 31 36 78 38 2e 61 62|8.min_s-i16x8.ab|
0x0e0|73                                             |s               |
     |                                               |                |              d{}: 0xe1-0xe3 (2)
0x0e0|   00                                          | .              |                tag: "funcidx" (0x0) 0xe1-0xe2 (1)
0x0e0|      05                                       |  .             |                x: 5 (valid) 0xe2-0xe3 (1)
     |                                               |                |            [6]{}: ex 0xe3-0xfb (24)
     |                                               |                |              nm{}: 0xe3-0xf9 (22)
0x0e0|         15                                    |   .            |                n: 21 (valid) 0xe3-0xe4 (1)
0x0e0|            69 31 36 78 38 2e 61 62 73 2d 69 31|    i16x8.abs-i1|                b: "i16x8.abs-i16x8.min_s" 0xe4-0xf9 (21)
0x0f0|36 78 38 2e 6d 69 6e 5f 73                     |6x8.min_s       |
     |                                               |                |              d{}: 0xf9-0xfb (2)
0x0f0|                           00                  |         .      |                tag: "funcidx" (0x0) 0xf9-0xfa (1)
0x0f0|                              06               |          .     |                x: 6 (valid) 0xfa-0xfb (1)
     |                                               |                |            [7]{}: ex 0xfb-0x116 (27)
     |                                               |                |              nm{}: 0xfb-0x114 (25)
0x0f0|                                 18            |           .    |                n: 24 (valid) 0xfb-0xfc (1)
0x0f0|                                    69 31 36 78|            i16x|                b: "i16x8.min_u-i16x8.avgr_u" 0xfc-0x114 (24)
0x100|38 2e 6d 69 6e 5f 75 2d 69 31 36 78 38 2e 61 76|8.min_u-i16x8.av|
0x110|67 72 5f 75                                    |gr_u            |
     |                                               |                |              d{}: 0x114-0x116 (2)
0x110|            00                                 |    .           |                tag: "funcidx" (0x0) 0x114-0x115 (1)
0x110|               07                              |     .          |                x: 7 (valid) 0x115-0x116 (1)
     |                                               |                |            [8]{}: ex 0x116-0x130 (26)
     |                                               |                |              nm{}: 0x116-0x12e (24)
0x110|                  17                           |      .         |                n: 23 (valid) 0x116-0x117 (1)
0x110|                     69 31 36 78 38 2e 6d 69 6e|       i16x8.min|                b: "i16x8.min_u-i16x8.max_u" 0x117-0x12e (23)
0x120|5f 75 2d 69 31 36 78 38 2e 6d 61 78 5f 75      |_u-i16x8.max_u  |
     |                                               |                |              d{}: 0x12e-0x130 (2)
0x120|                                          00   |              . |                tag: "funcidx" (0x0) 0x12e-0x12f (1)
0x120|                                             08|               .|                x: 8 (valid) 0x12f-0x130 (1)
     |                                               |                |            [9]{}: ex 0x130-0x14a (26)
     |                                               |                |              nm{}: 0x130-0x148 (24)
0x130|17                                             |.               |                n: 23 (valid) 0x130-0x131 (1)
0x130|   69 31 36 78 38 2e 6d 69 6e 5f 75 2d 69 31 36| i16x8.min_u-i16|                b: "i16x8.min_u-i16x8.max_s" 0x131-0x148 (23)
0x140|78 38 2e 6d 61 78 5f 73                        |x8.max_s        |
     |                                               |                |              d{}: 0x148-0x14a (2)
0x140|                        00                     |        .       |                tag: "funcidx" (0x0) 0x148-0x149 (1)
0x140|                           09                  |         .      |                x: 9 (valid) 0x149-0x14a (1)
     |                                               |                |            [10]{}: ex 0x14a-0x164 (26)
     |                                               |                |              nm{}: 0x14a-0x162 (24)
0x140|                              17               |          .     |                n: 23 (valid) 0x14a-0x14b (1)
0x140|                                 69 31 36 78 38|           i16x8|                b: "i16x8.min_u-i16x8.min_u" 0x14b-0x162 (23)
0x150|2e 6d 69 6e 5f 75 2d 69 31 36 78 38 2e 6d 69 6e|.min_u-i16x8.min|
0x160|5f 75                                          |_u              |
     |                                               |                |              d{}: 0x162-0x164 (2)
0x160|      00                                       |  .             |                tag: "funcidx" (0x0) 0x162-0x163 (1)
0x160|         0a                                    |   .            |                x: 10 (valid) 0x163-0x164 (1)
     |                                               |                |            [11]{}: ex 0x164-0x17e (26)
     |                                               |                |              nm{}: 0x164-0x17c (24)
0x160|            17                                 |    .           |                n: 23 (valid) 0x164-0x165 (1)
0x160|               69 31 36 78 38 2e 6d 69 6e 5f 75|     i16x8.min_u|                b: "i16x8.min_u-i16x8.min_s" 0x165-0x17c (23)
0x170|2d 69 31 36 78 38 2e 6d 69 6e 5f 73            |-i16x8.min_s    |
     |                                               |                |              d{}: 0x17c-0x17e (2)
0x170|                                    00         |            .   |                tag: "funcidx" (0x0) 0x17c-0x17d (1)
0x170|                                       0b      |             .  |                x: 11 (valid) 0x17d-0x17e (1)
     |                                               |                |            [12]{}: ex 0x17e-0x196 (24)
     |                                               |                |              nm{}: 0x17e-0x194 (22)
0x170|                                          15   |              . |                n: 21 (valid) 0x17e-0x17f (1)
0x170|                                             69|               i|                b: "i16x8.min_u-i16x8.abs" 0x17f-0x194 (21)
0x180|31 36 78 38 2e 6d 69 6e 5f 75 2d 69 31 36 78 38|16x8.min_u-i16x8|
0x190|2e 61 62 73                                    |.abs            |
     |                                               |                |              d{}: 0x194-0x196 (2)
0x190|            00                                 |    .           |                tag: "funcidx" (0x0) 0x194-0x195 (1)
0x190|               0c                              |     .          |                x: 12 (valid) 0x195-0x196 (1)
     |                                               |                |            [13]{}: ex 0x196-0x1ae (24)
     |                                               |                |              nm{}: 0x196-0x1ac (22)
0x190|                  15                           |      .         |                n: 21 (valid) 0x196-0x197 (1)
0x190|                     69 31 36 78 38 2e 61 62 73|       i16x8.abs|                b: "i16x8.abs-i16x8.min_u" 0x197-0x1ac (21)
0x1a0|2d 69 31 36 78 38 2e 6d 69 6e 5f 75            |-i16x8.min_u    |
     |                                               |                |              d{}: 0x1ac-0x1ae (2)
0x1a0|                                    00         |            .   |                tag: "funcidx" (0x0) 0x1ac-0x1ad (1)
0x1a0|                                       0d      |             .  |                x: 13 (valid) 0x1ad-0x1ae (1)
     |                                               |                |            [14]{}: ex 0x1ae-0x1c9 (27)
     |                                               |                |              nm{}: 0x1ae-0x1c7 (25)
0x1a0|                                          18   |              . |                n: 24 (valid) 0x1ae-0x1af (1)
0x1a0|                                             69|               i|                b: "i16x8.max_s-i16x8.avgr_u" 0x1af-0x1c7 (24)
0x1b0|31 36 78 38 2e 6d 61 78 5f 73 2d 69 31 36 78 38|16x8.max_s-i16x8|
0x1c0|2e 61 76 67 72 5f 75                           |.avgr_u         |
     |                                               |                |              d{}: 0x1c7-0x1c9 (2)
0x1c0|                     00                        |       .        |                tag: "funcidx" (0x0) 0x1c7-0x1c8 (1)
0x1c0|                        0e                     |        .       |                x: 14 (valid) 0x1c8-0x1c9 (1)
     |                                               |                |            [15]{}: ex 0x1c9-0x1e3 (26)
     |                                               |                |              nm{}: 0x1c9-0x1e1 (24)
0x1c0|                           17                  |         .      |                n: 23 (valid) 0x1c9-0x1ca (1)
0x1c0|                              69 31 36 78 38 2e|          i16x8.|                b: "i16x8.max_s-i16x8.max_u" 0x1ca-0x1e1 (23)
0x1d0|6d 61 78 5f 73 2d 69 31 36 78 38 2e 6d 61 78 5f|max_s-i16x8.max_|
0x1e0|75                                             |u               |
     |                                               |                |              d{}: 0x1e1-0x1e3 (2)
0x1e0|   00                                          | .              |                tag: "funcidx" (0x0) 0x1e1-0x1e2 (1)
0x1e0|      0f                                       |  .             |                x: 15 (valid) 0x1e2-0x1e3 (1)
     |                                               |                |            [16]{}: ex 0x1e3-0x1fd (26)
     |                                               |                |              nm{}: 0x1e3-0x1fb (24)
0x1e0|         17                                    |   .            |                n: 23 (valid) 0x1e3-0x1e4 (1)
0x1e0|            69 31 36 78 38 2e 6d 61 78 5f 73 2d|    i16x8.max_s-|                b: "i16x8.max_s-i16x8.max_s" 0x1e4-0x1fb (23)
0x1f0|69 31 36 78 38 2e 6d 61 78 5f 73               |i16x8.max_s     |
     |                                               |                |              d{}: 0x1fb-0x1fd (2)
0x1f0|                                 00            |           .    |                tag: "funcidx" (0x0) 0x1fb-0x1fc (1)
0x1f0|                                    10         |            .   |                x: 16 (valid) 0x1fc-0x1fd (1)
     |                                               |                |            [17]{}: ex 0x1fd-0x217 (26)
     |                                               |                |              nm{}: 0x1fd-0x215 (24)
0x1f0|                                       17      |             .  |                n: 23 (valid) 0x1fd-0x1fe (1)
0x1f0|                                          69 31|              i1|                b: "i16x8.max_s-i16x8.min_u" 0x1fe-0x215 (23)
0x200|36 78 38 2e 6d 61 78 5f 73 2d 69 31 36 78 38 2e|6x8.max_s-i16x8.|
0x210|6d 69 6e 5f 75                                 |min_u           |
     |                                               |                |              d{}: 0x215-0x217 (2)
0x210|               00                              |     .          |                tag: "funcidx" (0x0) 0x215-0x216 (1)
0x210|                  11                           |      .         |                x: 17 (valid) 0x216-0x217 (1)
     |                                               |                |            [18]{}: ex 0x217-0x231 (26)
     |                                               |                |              nm{}: 0x217-0x22f (24)
0x210|                     17                        |       .        |                n: 23 (valid) 0x217-0x218 (1)
0x210|                        69 31 36 78 38 2e 6d 61|        i16x8.ma|                b: "i16x8.max_s-i16x8.min_s" 0x218-0x22f (23)
0x220|78 5f 73 2d 69 31 36 78 38 2e 6d 69 6e 5f 73   |x_s-i16x8.min_s |
     |                                               |                |              d{}: 0x22f-0x231 (2)
0x220|                                             00|               .|                tag: "funcidx" (0x0) 0x22f-0x230 (1)
0x230|12                                             |.               |                x: 18 (valid) 0x230-0x231 (1)
     |                                               |                |            [19]{}: ex 0x231-0x249 (24)
     |                                               |                |              nm{}: 0x231-0x247 (22)
0x230|   15                                          | .              |                n: 21 (valid) 0x231-0x232 (1)
0x230|      69 31 36 78 38 2e 6d 61 78 5f 73 2d 69 31|  i16x8.max_s-i1|                b: "i16x8.max_s-i16x8.abs" 0x232-0x247 (21)
0x240|36 78 38 2e 61 62 73                           |6x8.abs         |
     |                                               |                |              d{}: 0x247-0x249 (2)
0x240|                     00                        |       .        |                tag: "funcidx" (0x0) 0x247-0x248 (1)
0x240|                        13                     |        .       |                x: 19 (valid) 0x248-0x249 (1)
     |                                               |                |            [20]{}: ex 0x249-0x261 (24)
     |                                               |                |              nm{}: 0x249-0x25f (22)
0x240|                           15                  |         .      |                n: 21 (valid) 0x249-0x24a (1)
0x240|                              69 31 36 78 38 2e|          i16x8.|                b: "i16x8.abs-i16x8.max_s" 0x24a-0x25f (21)
0x250|61 62 73 2d 69 31 36 78 38 2e 6d 61 78 5f 73   |abs-i16x8.max_s |
     |                                               |                |              d{}: 0x25f-0x261 (2)
0x250|                                             00|               .|                tag: "funcidx" (0x0) 0x25f-0x260 (1)
0x260|14                                             |.               |                x: 20 (valid) 0x260-0x261 (1)
     |                                               |                |            [21]{}: ex 0x261-0x27c (27)
     |                                               |                |              nm{}: 0x261-0x27a (25)
0x260|   18                                          | .              |                n: 24 (valid) 0x261-0x262 (1)
0x260|      69 31 36 78 38 2e 6d 61 78 5f 75 2d 69 31|  i16x8.max_u-i1|                b: "i16x8.max_u-i16x8.avgr_u" 0x262-0x27a (24)
0x270|36 78 38 2e 61 76 67 72 5f 75                  |6x8.avgr_u      |
     |                                               |                |              d{}: 0x27a-0x27c (2)
0x270|                              00               |          .     |                tag: "funcidx" (0x0) 0x27a-0x27b (1)
0x270|                                 15            |           .    |                x: 21 (valid) 0x27b-0x27c (1)
     |                                               |                |            [22]{}: ex 0x27c-0x296 (26)
     |                                               |                |              nm{}: 0x27c-0x294 (24)
0x270|                                    17         |            .   |                n: 23 (valid) 0x27c-0x27d (1)
0x270|                                       69 31 36|             i16|                b: "i16x8.max_u-i16x8.max_u" 0x27d-0x294 (23)
0x280|78 38 2e 6d 61 78 5f 75 2d 69 31 36 78 38 2e 6d|x8.max_u-i16x8.m|
0x290|61 78 5f 75                                    |ax_u            |
     |                                               |                |              d{}: 0x294-0x296 (2)
0x290|            00                                 |    .           |                tag: "funcidx" (0x0) 0x294-0x295 (1)
0x290|               16                              |     .          |                x: 22 (valid) 0x295-0x296 (1)
     |                                               |                |            [23]{}: ex 0x296-0x2b0 (26)
     |                                               |                |              nm{}: 0x296-0x2ae (24)
0x290|                  17                           |      .         |                n: 23 (valid) 0x296-0x297 (1)
0x290|                     69 31 36 78 38 2e 6d 61 78|       i16x8.max|                b: "i16x8.max_u-i16x8.max_s" 0x297-0x2ae (23)
0x2a0|5f 75 2d 69 31 36 78 38 2e 6d 61 78 5f 73      |_u-i16x8.max_s  |
     |                                               |                |              d{}: 0x2ae-0x2b0 (2)
0x2a0|                                          00   |              . |                tag: "funcidx" (0x0) 0x2ae-0x2af (1)
0x2a0|                                             17|               .|                x: 23 (valid) 0x2af-0x2b0 (1)
     |                                               |                |            [24]{}: ex 0x2b0-0x2ca (26)
     |                                               |                |              nm{}: 0x2b0-0x2c8 (24)
0x2b0|17                                             |.               |                n: 23 (valid) 0x2b0-0x2b1 (1)
0x2b0|   69 31 36 78 38 2e 6d 61 78 5f 75 2d 69 31 36| i16x8.max_u-i16|                b: "i16x8.max_u-i16x8.min_u" 0x2b1-0x2c8 (23)
0x2c0|78 38 2e 6d 69 6e 5f 75                        |x8.min_u        |
     |                                               |                |              d{}: 0x2c8-0x2ca (2)
0x2c0|                        00                     |        .       |                tag: "funcidx" (0x0) 0x2c8-0x2c9 (1)
0x2c0|                           18                  |         .      |                x: 24 (valid) 0x2c9-0x2ca (1)
     |                                               |                |            [25]{}: ex 0x2ca-0x2e4 (26)
     |                                               |                |              nm{}: 0x2ca-0x2e2 (24)
0x2c0|                              17               |          .     |                n: 23 (valid) 0x2ca-0x2cb (1)
0x2c0|                                 69 31 36 78 38|           i16x8|                b: "i16x8.max_u-i16x8.min_s" 0x2cb-0x2e2 (23)
0x2d0|2e 6d 61 78 5f 75 2d 69 31 36 78 38 2e 6d 69 6e|.max_u-i16x8.min|
0x2e0|5f 73                                          |_s              |
     |                                               |                |              d{}: 0x2e2-0x2e4 (2)
0x2e0|      00                                       |  .             |                tag: "funcidx" (0x0) 0x2e2-0x2e3 (1)
0x2e0|         19                                    |   .            |                x: 25 (valid) 0x2e3-0x2e4 (1)
     |                                               |                |            [26]{}: ex 0x2e4-0x2fc (24)
     |                                               |                |              nm{}: 0x2e4-0x2fa (22)
0x2e0|            15                                 |    .           |                n: 21 (valid) 0x2e4-0x2e5 (1)
0x2e0|               69 31 36 78 38 2e 6d 61 78 5f 75|     i16x8.max_u|                b: "i16x8.max_u-i16x8.abs" 0x2e5-0x2fa (21)
0x2f0|2d 69 31 36 78 38 2e 61 62 73                  |-i16x8.abs      |
     |                                               |                |              d{}: 0x2fa-0x2fc (2)
0x2f0|                              00               |          .     |                tag: "funcidx" (0x0) 0x2fa-0x2fb (1)
0x2f0|                                 1a            |           .    |                x: 26 (valid) 0x2fb-0x2fc (1)
     |                                               |                |            [27]{}: ex 0x2fc-0x314 (24)
     |                                               |                |              nm{}: 0x2fc-0x312 (22)
0x2f0|                                    15         |            .   |                n: 21 (valid) 0x2fc-0x2fd (1)
0x2f0|                                       69 31 36|             i16|                b: "i16x8.abs-i16x8.max_u" 0x2fd-0x312 (21)
0x300|78 38 2e 61 62 73 2d 69 31 36 78 38 2e 6d 61 78|x8.abs-i16x8.max|
0x310|5f 75                                          |_u              |
     |                                               |                |              d{}: 0x312-0x314 (2)
0x310|      00                                       |  .             |                tag: "funcidx" (0x0) 0x312-0x313 (1)
0x310|         1b                                    |   .            |                x: 27 (valid) 0x313-0x314 (1)
     |                                               |                |            [28]{}: ex 0x314-0x330 (28)
     |                                               |                |              nm{}: 0x314-0x32e (26)
0x310|            19                                 |    .           |                n: 25 (valid) 0x314-0x315 (1)
0x310|               69 31 36 78 38 2e 61 76 67 72 5f|     i16x8.avgr_|                b: "i16x8.avgr_u-i16x8.avgr_u" 0x315-0x32e (25)
0x320|75 2d 69 31 36 78 38 2e 61 76 67 72 5f 75      |u-i16x8.avgr_u  |
     |                                               |                |              d{}: 0x32e-0x330 (2)
0x320|                                          00   |              . |                tag: "funcidx" (0x0) 0x32e-0x32f (1)
0x320|                                             1c|               .|                x: 28 (valid) 0x32f-0x330 (1)
     |                                               |                |            [29]{}: ex 0x330-0x34b (27)
     |                                               |                |              nm{}: 0x330-0x349 (25)
0x330|18                                             |.               |                n: 24 (valid) 0x330-0x331 (1)
0x330|   69 31 36 78 38 2e 61 76 67 72 5f 75 2d 69 31| i16x8.avgr_u-i1|                b: "i16x8.avgr_u-i16x8.max_u" 0x331-0x349 (24)
0x340|36 78 38 2e 6d 61 78 5f 75                     |6x8.max_u       |
     |                                               |                |              d{}: 0x349-0x34b (2)
0x340|                           00                  |         .      |                tag: "funcidx" (0x0) 0x349-0x34a (1)
0x340|                              1d               |          .     |                x: 29 (valid) 0x34a-0x34b (1)
     |                                               |                |            [30]{}: ex 0x34b-0x366 (27)
     |                                               |                |              nm{}: 0x34b-0x364 (25)
0x340|                                 18            |           .    |                n: 24 (valid) 0x34b-0x34c (1)
0x340|                                    69 31 36 78|            i16x|                b: "i16x8.avgr_u-i16x8.max_s" 0x34c-0x364 (24)
0x350|38 2e 61 76 67 72 5f 75 2d 69 31 36 78 38 2e 6d|8.avgr_u-i16x8.m|
0x360|61 78 5f 73                                    |ax_s            |
     |                                               |                |              d{}: 0x364-0x366 (2)
0x360|            00                                 |    .           |                tag: "funcidx" (0x0) 0x364-0x365 (1)
0x360|               1e                              |     .          |                x: 30 (valid) 0x365-0x366 (1)
     |                                               |                |            [31]{}: ex 0x366-0x381 (27)
     |                                               |                |              nm{}: 0x366-0x37f (25)
0x360|                  18                           |      .         |                n: 24 (valid) 0x366-0x367 (1)
0x360|                     69 31 36 78 38 2e 61 76 67|       i16x8.avg|                b: "i16x8.avgr_u-i16x8.min_u" 0x367-0x37f (24)
0x370|72 5f 75 2d 69 31 36 78 38 2e 6d 69 6e 5f 75   |r_u-i16x8.min_u |
     |                                               |                |              d{}: 0x37f-0x381 (2)
0x370|                                             00|               .|                tag: "funcidx" (0x0) 0x37f-0x380 (1)
0x380|1f                                             |.               |                x: 31 (valid) 0x380-0x381 (1)
     |                                               |                |            [32]{}: ex 0x381-0x39c (27)
     |                                               |                |              nm{}: 0x381-0x39a (25)
0x380|   18                                          | .              |                n: 24 (valid) 0x381-0x382 (1)
0x380|      69 31 36 78 38 2e 61 76 67 72 5f 75 2d 69|  i16x8.avgr_u-i|                b: "i16x8.avgr_u-i16x8.min_s" 0x382-0x39a (24)
0x390|31 36 78 38 2e 6d 69 6e 5f 73                  |16x8.min_s      |
     |                                               |                |              d{}: 0x39a-0x39c (2)
0x390|                              00               |          .     |                tag: "funcidx" (0x0) 0x39a-0x39b (1)
0x390|                                 20            |                |                x: 32 (valid) 0x39b-0x39c (1)
     |                                               |                |            [33]{}: ex 0x39c-0x3b5 (25)
     |                                               |                |              nm{}: 0x39c-0x3b3 (23)
0x390|                                    16         |            .   |                n: 22 (valid) 0x39c-0x39d (1)
0x390|                                       69 31 36|             i16|                b: "i16x8.avgr_u-i16x8.abs" 0x39d-0x3b3 (22)
0x3a0|78 38 2e 61 76 67 72 5f 75 2d 69 31 36 78 38 2e|x8.avgr_u-i16x8.|
0x3b0|61 62 73                                       |abs             |
     |                                               |                |              d{}: 0x3b3-0x3b5 (2)
0x3b0|         00                                    |   .            |                tag: "funcidx" (0x0) 0x3b3-0x3b4 (1)
0x3b0|            21                                 |    !           |                x: 33 (valid) 0x3b4-0x3b5 (1)
     |                                               |                |            [34]{}: ex 0x3b5-0x3ce (25)
     |                                               |                |              nm{}: 0x3b5-0x3cc (23)
0x3b0|               16                              |     .          |                n: 22 (valid) 0x3b5-0x3b6 (1)
0x3b0|                  69 31 36 78 38 2e 61 62 73 2d|      i16x8.abs-|                b: "i16x8.abs-i16x8.avgr_u" 0x3b6-0x3cc (22)
0x3c0|69 31 36 78 38 2e 61 76 67 72 5f 75            |i16x8.avgr_u    |
     |                                               |                |              d{}: 0x3cc-0x3ce (2)
0x3c0|                                    00         |            .   |                tag: "funcidx" (0x0) 0x3cc-0x3cd (1)
0x3c0|                                       22      |             "  |                x: 34 (valid) 0x3cd-0x3ce (1)
     |                                               |                |            [35]{}: ex 0x3ce-0x3e4 (22)
     |                                               |                |              nm{}: 0x3ce-0x3e2 (20)
0x3c0|                                          13   |              . |                n: 19 (valid) 0x3ce-0x3cf (1)
0x3c0|                                             69|               i|                b: "i16x8.abs-i16x8.abs" 0x3cf-0x3e2 (19)
0x3d0|31 36 78 38 2e 61 62 73 2d 69 31 36 78 38 2e 61|16x8.abs-i16x8.a|
0x3e0|62 73                                          |bs              |
     |                                               |                |              d{}: 0x3e2-0x3e4 (2)
0x3e0|      00                                       |  .             |                tag: "funcidx" (0x0) 0x3e2-0x3e3 (1)
0x3e0|         23                                    |   #            |                x: 35 (valid) 0x3e3-0x3e4 (1)
     |                                               |                |    [3]{}: section 0x3e4-0x5ec (520)
0x3e0|            0a                                 |    .           |      id: "code_section" (10) 0x3e4-0x3e5 (1)
0x3e0|               85 04                           |     ..         |      size: 517 (valid) 0x3e5-0x3e7 (2)
     |                                               |                |      content{}: 0x3e7-0x5ec (517)
     |                                               |                |        code{}: 0x3e7-0x5ec (517)
0x3e0|                     24                        |       $        |          n: 36 (valid) 0x3e7-0x3e8 (1)
     |                                               |                |          x[0:36]: 0x3e8-0x5ec (516)
     |                                               |                |            [0]{}: code 0x3e8-0x3f7 (15)
0x3e0|                        0e                     |        .       |              size: 14 (valid) 0x3e8-0x3e9 (1)
     |                                               |                |              code{}: 0x3e9-0x3f7 (14)
     |                                               |                |                t{}: 0x3e9-0x3ea (1)
0x3e0|                           00                  |         .      |                  n: 0 (valid) 0x3e9-0x3ea (1)
     |                                               |                |                  x[0:0]: 0x3ea-0x3ea (0)
     |                                               |                |                e[0:6]: 0x3ea-0x3f7 (13)
     |                                               |                |                  [0]{}: in 0x3ea-0x3ec (2)
0x3e0|                              20               |                |                    opcode: "local.get" (0x20) 0x3ea-0x3eb (1)
0x3e0|                                 00            |           .    |                    x: 0 (valid) 0x3eb-0x3ec (1)
     |                                               |                |                  [1]{}: in 0x3ec-0x3ee (2)
0x3e0|                                    20         |                |                    opcode: "local.get" (0x20) 0x3ec-0x3ed (1)
0x3e0|                                       01      |             .  |                    x: 1 (valid) 0x3ed-0x3ee (1)
     |                                               |                |                  [2]{}: in 0x3ee-0x3f1 (3)
0x3e0|                                          fd   |              . |                    opcode: "vector" (0xfd) 0x3ee-0x3ef (1)
0x3e0|                                             9b|               .|                    v_opcode: "i16x8.avgr_u" (155) 0x3ef-0x3f1 (2)
0x3f0|01                                             |.               |
     |                                               |                |                  [3]{}: in 0x3f1-0x3f3 (2)
0x3f0|   20                                          |                |                    opcode: "local.get" (0x20) 0x3f1-0x3f2 (1)
0x3f0|      02                                       |  .             |                    x: 2 (valid) 0x3f2-0x3f3 (1)
     |                                               |                |                  [4]{}: in 0x3f3-0x3f6 (3)
0x3f0|         fd                                    |   .            |                    opcode: "vector" (0xfd) 0x3f3-0x3f4 (1)
0x3f0|            96 01                              |    ..          |                    v_opcode: "i16x8.min_s" (150) 0x3f4-0x3f6 (2)
     |                                               |                |                  [5]{}: in 0x3f6-0x3f7 (1)
0x3f0|                  0b                           |      .         |                    opcode: "end" (0xb) 0x3f6-0x3f7 (1)
     |                                               |                |            [1]{}: code 0x3f7-0x406 (15)
0x3f0|                     0e                        |       .        |              size: 14 (valid) 0x3f7-0x3f8 (1)
     |                                               |                |              code{}: 0x3f8-0x406 (14)
     |                                               |                |                t{}: 0x3f8-0x3f9 (1)
0x3f0|                        00                     |        .       |                  n: 0 (valid) 0x3f8-0x3f9 (1)
     |                                               |                |                  x[0:0]: 0x3f9-0x3f9 (0)
     |                                               |                |                e[0:6]: 0x3f9-0x406 (13)
     |                                               |                |                  [0]{}: in 0x3f9-0x3fb (2)
0x3f0|                           20                  |                |                    opcode: "local.get" (0x20) 0x3f9-0x3fa (1)
0x3f0|                              00               |          .     |                    x: 0 (valid) 0x3fa-0x3fb (1)
     |                                               |                |                  [1]{}: in 0x3fb-0x3fd (2)
0x3f0|                                 20            |                |                    opcode: "local.get" (0x20) 0x3fb-0x3fc (1)
0x3f0|                                    01         |            .   |                    x: 1 (valid) 0x3fc-0x3fd (1)
     |                                               |                |                  [2]{}: in 0x3fd-0x400 (3)
0x3f0|                                       fd      |             .  |                    opcode: "vector" (0xfd) 0x3fd-0x3fe (1)
0x3f0|                                          99 01|              ..|                    v_opcode: "i16x8.max_u" (153) 0x3fe-0x400 (2)
     |                                               |                |                  [3]{}: in 0x400-0x402 (2)
0x400|20                                             |                |                    opcode: "local.get" (0x20) 0x400-0x401 (1)
0x400|   02                                          | .              |                    x: 2 (valid) 0x401-0x402 (1)
     |                                               |                |                  [4]{}: in 0x402-0x405 (3)
0x400|      fd                                       |  .             |                    opcode: "vector" (0xfd) 0x402-0x403 (1)
0x400|         96 01                                 |   ..           |                    v_opcode: "i16x8.min_s" (150) 0x403-0x405 (2)
     |                                               |                |                  [5]{}: in 0x405-0x406 (1)
0x400|               0b                              |     .          |                    opcode: "end" (0xb) 0x405-0x406 (1)
     |                                               |                |            [2]{}: code 0x406-0x415 (15)
0x400|                  0e                           |      .         |              size: 14 (valid) 0x406-0x407 (1)
     |                                               |                |              code{}: 0x407-0x415 (14)
     |                                               |                |                t{}: 0x407-0x408 (1)
0x400|                     00                        |       .        |                  n: 0 (valid) 0x407-0x408 (1)
     |                                               |                |                  x[0:0]: 0x408-0x408 (0)
     |                                               |                |                e[0:6]: 0x408-0x415 (13)
     |                                               |                |                  [0]{}: in 0x408-0x40a (2)
0x400|                        20                     |                |                    opcode: "local.get" (0x20) 0x408-0x409 (1)
0x400|                           00                  |         .      |                    x: 0 (valid) 0x409-0x40a (1)
     |                                               |                |                  [1]{}: in 0x40a-0x40c (2)
0x400|                              20               |                |                    opcode: "local.get" (0x20) 0x40a-0x40b (1)
0x400|                                 01            |           .    |                    x: 1 (valid) 0x40b-0x40c (1)
     |                                               |                |                  [2]{}: in 0x40c-0x40f (3)
0x400|                                    fd         |            .   |                    opcode: "vector" (0xfd) 0x40c-0x40d (1)
0x400|                                       98 01   |             .. |                    v_opcode: "i16x8.max_s" (152) 0x40d-0x40f (2)
     |                                               |                |                  [3]{}: in 0x40f-0x411 (2)
0x400|                                             20|                |                    opcode: "local.get" (0x20) 0x40f-0x410 (1)
0x410|02                                             |.               |                    x: 2 (valid) 0x410-0x411 (1)
     |                                               |                |                  [4]{}: in 0x411-0x414 (3)
0x410|   fd                                          | .              |                    opcode: "vector" (0xfd) 0x411-0x412 (1)
0x410|      96 01                                    |  ..            |                    v_opcode: "i16x8.min_s" (150) 0x412-0x414 (2)
     |                                               |                |                  [5]{}: in 0x414-0x415 (1)
0x410|            0b                                 |    .           |                    opcode: "end" (0xb) 0x414-0x415 (1)
     |                                               |                |            [3]{}: code 0x415-0x424 (15)
0x410|               0e                              |     .          |              size: 14 (valid) 0x415-0x416 (1)
     |                                               |                |              code{}: 0x416-0x424 (14)
     |                                               |                |                t{}: 0x416-0x417 (1)
0x410|                  00                           |      .         |                  n: 0 (valid) 0x416-0x417 (1)
     |                                               |                |                  x[0:0]: 0x417-0x417 (0)
     |                                               |                |                e[0:6]: 0x417-0x424 (13)
     |                                               |                |                  [0]{}: in 0x417-0x419 (2)
0x410|                     20                        |                |                    opcode: "local.get" (0x20) 0x417-0x418 (1)
0x410|                        00                     |        .       |                    x: 0 (valid) 0x418-0x419 (1)
     |                                               |                |                  [1]{}: in 0x419-0x41b (2)
0x410|                           20                  |                |                    opcode: "local.get" (0x20) 0x419-0x41a (1)
0x410|                              01               |          .     |                    x: 1 (valid) 0x41a-0x41b (1)
     |                                               |                |                  [2]{}: in 0x41b-0x41e (3)
0x410|                                 fd            |           .    |                    opcode: "vector" (0xfd) 0x41b-0x41c (1)
0x410|                                    97 01      |            ..  |                    v_opcode: "i16x8.min_u" (151) 0x41c-0x41e (2)
     |                                               |                |                  [3]{}: in 0x41e-0x420 (2)
0x410|                                          20   |                |                    opcode: "local.get" (0x20) 0x41e-0x41f (1)
0x410|                                             02|               .|                    x: 2 (valid) 0x41f-0x420 (1)
     |                                               |                |                  [4]{}: in 0x420-0x423 (3)
0x420|fd                                             |.               |                    opcode: "vector" (0xfd) 0x420-0x421 (1)
0x420|   96 01                                       | ..             |                    v_opcode: "i16x8.min_s" (150) 0x421-0x423 (2)
     |                                               |                |                  [5]{}: in 0x423-0x424 (1)
0x420|         0b                                    |   .            |                    opcode: "end" (0xb) 0x423-0x424 (1)
     |                                               |                |            [4]{}: code 0x424-0x433 (15)
0x420|            0e                                 |    .           |              size: 14 (valid) 0x424-0x425 (1)
     |                                               |                |              code{}: 0x425-0x433 (14)
     |                                               |                |                t{}: 0x425-0x426 (1)
0x420|               00                              |     .          |                  n: 0 (valid) 0x425-0x426 (1)
     |                                               |                |                  x[0:0]: 0x426-0x426 (0)
     |                                               |                |                e[0:6]: 0x426-0x433 (13)
     |                                               |                |                  [0]{}: in 0x426-0x428 (2)
0x420|                  20                           |                |                    opcode: "local.get" (0x20) 0x426-0x427 (1)
0x420|                     00                        |       .        |                    x: 0 (valid) 0x427-0x428 (1)
     |                                               |                |                  [1]{}: in 0x428-0x42a (2)
0x420|                        20                     |                |                    opcode: "local.get" (0x20) 0x428-0x429 (1)
0x420|                           01                  |         .      |                    x: 1 (valid) 0x429-0x42a (1)
     |                                               |                |                  [2]{}: in 0x42a-0x42d (3)
0x420|                              fd               |          .     |                    opcode: "vector" (0xfd) 0x42a-0x42b (1)
0x420|                                 96 01         |           ..   |                    v_opcode: "i16x8.min_s" (150) 0x42b-0x42d (2)
     |                                               |                |                  [3]{}: in 0x42d-0x42f (2)
0x420|                                       20      |                |                    opcode: "local.get" (0x20) 0x42d-0x42e (1)
0x420|                                          02   |              . |                    x: 2 (valid) 0x42e-0x42f (1)
     |                                               |                |                  [4]{}: in 0x42f-0x432 (3)
0x420|                                             fd|               .|                    opcode: "vector" (0xfd) 0x42f-0x430 (1)
0x430|96 01                                          |..              |                    v_opcode: "i16x8.min_s" (150) 0x430-0x432 (2)
     |                                               |                |                  [5]{}: in 0x432-0x433 (1)
0x430|      0b                                       |  .             |                    opcode: "end" (0xb) 0x432-0x433 (1)
     |                                               |                |            [5]{}: code 0x433-0x440 (13)
0x430|         0c                                    |   .            |              size: 12 (valid) 0x433-0x434 (1)
     |                                               |                |              code{}: 0x434-0x440 (12)
     |                                               |                |                t{}: 0x434-0x435 (1)
0x430|            00                                 |    .           |                  n: 0 (valid) 0x434-0x435 (1)
     |                                               |                |                  x[0:0]: 0x435-0x435 (0)
     |                                               |                |                e[0:5]: 0x435-0x440 (11)
     |                                               |                |                  [0]{}: in 0x435-0x437 (2)
0x430|               20                              |                |                    opcode: "local.get" (0x20) 0x435-0x436 (1)
0x430|                  00                           |      .         |                    x: 0 (valid) 0x436-0x437 (1)
     |                                               |                |                  [1]{}: in 0x437-0x43a (3)
0x430|                     fd                        |       .        |                    opcode: "vector" (0xfd) 0x437-0x438 (1)
0x430|                        80 01                  |        ..      |                    v_opcode: "i16x8.abs" (128) 0x438-0x43a (2)
     |                                               |                |                  [2]{}: in 0x43a-0x43c (2)
0x430|                              20               |                |                    opcode: "local.get" (0x20) 0x43a-0x43b (1)
0x430|                                 01            |           .    |                    x: 1 (valid) 0x43b-0x43c (1)
     |                                               |                |                  [3]{}: in 0x43c-0x43f (3)
0x430|                                    fd         |            .   |                    opcode: "vector" (0xfd) 0x43c-0x43d (1)
0x430|                                       96 01   |             .. |                    v_opcode: "i16x8.min_s" (150) 0x43d-0x43f (2)
     |                                               |                |                  [4]{}: in 0x43f-0x440 (1)
0x430|                                             0b|               .|                    opcode: "end" (0xb) 0x43f-0x440 (1)
     |                                               |                |            [6]{}: code 0x440-0x44d (13)
0x440|0c                                             |.               |              size: 12 (valid) 0x440-0x441 (1)
     |                                               |                |              code{}: 0x441-0x44d (12)
     |                                               |                |                t{}: 0x441-0x442 (1)
0x440|   00                                          | .              |                  n: 0 (valid) 0x441-0x442 (1)
     |                                               |                |                  x[0:0]: 0x442-0x442 (0)
     |                                               |                |                e[0:5]: 0x442-0x44d (11)
     |                                               |                |                  [0]{}: in 0x442-0x444 (2)
0x440|      20                                       |                |                    opcode: "local.get" (0x20) 0x442-0x443 (1)
0x440|         00                                    |   .            |                    x: 0 (valid) 0x443-0x444 (1)
     |                                               |                |                  [1]{}: in 0x444-0x446 (2)
0x440|            20                                 |                |                    opcode: "local.get" (0x20) 0x444-0x445 (1)
0x440|               01                              |     .          |                    x: 1 (valid) 0x445-0x446 (1)
     |                                               |                |                  [2]{}: in 0x446-0x449 (3)
0x440|                  fd                           |      .         |                    opcode: "vector" (0xfd) 0x446-0x447 (1)
0x440|                     96 01                     |       ..       |                    v_opcode: "i16x8.min_s" (150) 0x447-0x449 (2)
     |                                               |                |                  [3]{}: in 0x449-0x44c (3)
0x440|                           fd                  |         .      |                    opcode: "vector" (0xfd) 0x449-0x44a (1)
0x440|                              80 01            |          ..    |                    v_opcode: "i16x8.abs" (128) 0x44a-0x44c (2)
     |                                               |                |                  [4]{}: in 0x44c-0x44d (1)
0x440|                                    0b         |            .   |                    opcode: "end" (0xb) 0x44c-0x44d (1)
     |                                               |                |            [7]{}: code 0x44d-0x45c (15)
0x440|                                       0e      |             .  |              size: 14 (valid) 0x44d-0x44e (1)
     |                                               |                |              code{}: 0x44e-0x45c (14)
     |                                               |                |                t{}: 0x44e-0x44f (1)
0x440|                                          00   |              . |                  n: 0 (valid) 0x44e-0x44f (1)
     |                                               |                |                  x[0:0]: 0x44f-0x44f (0)
     |                                               |                |                e[0:6]: 0x44f-0x45c (13)
     |                                               |                |                  [0]{}: in 0x44f-0x451 (2)
0x440|                                             20|                |                    opcode: "local.get" (0x20) 0x44f-0x450 (1)
0x450|00                                             |.               |                    x: 0 (valid) 0x450-0x451 (1)
     |                                               |                |                  [1]{}: in 0x451-0x453 (2)
0x450|   20                                          |                |                    opcode: "local.get" (0x20) 0x451-0x452 (1)
0x450|      01                                       |  .             |                    x: 1 (valid) 0x452-0x453 (1)
     |                                               |                |                  [2]{}: in 0x453-0x456 (3)
0x450|         fd                                    |   .            |                    opcode: "vector" (0xfd) 0x453-0x454 (1)
0x450|            9b 01                              |    ..          |                    v_opcode: "i16x8.avgr_u" (155) 0x454-0x456 (2)
     |                                               |                |                  [3]{}: in 0x456-0x458 (2)
0x450|                  20                           |                |                    opcode: "local.get" (0x20) 0x456-0x457 (1)
0x450|                     02                        |       .        |                    x: 2 (valid) 0x457-0x458 (1)
     |                                               |                |                  [4]{}: in 0x458-0x45b (3)
0x450|                        fd                     |        .       |                    opcode: "vector" (0xfd) 0x458-0x459 (1)
0x450|                           97 01               |         ..     |                    v_opcode: "i16x8.min_u" (151) 0x459-0x45b (2)
     |                                               |                |                  [5]{}: in 0x45b-0x45c (1)
0x450|                                 0b            |           .    |                    opcode: "end" (0xb) 0x45b-0x45c (1)
     |                                               |                |            [8]{}: code 0x45c-0x46b (15)
0x450|                                    0e         |            .   |              size: 14 (valid) 0x45c-0x45d (1)
     |                                               |                |              code{}: 0x45d-0x46b (14)
     |                                               |                |                t{}: 0x45d-0x45e (1)
0x450|                                       00      |             .  |                  n: 0 (valid) 0x45d-0x45e (1)
     |                                               |                |                  x[0:0]: 0x45e-0x45e (0)
     |                                               |                |                e[0:6]: 0x45e-0x46b (13)
     |                                               |                |                  [0]{}: in 0x45e-0x460 (2)
0x450|                                          20   |                |                    opcode: "local.get" (0x20) 0x45e-0x45f (1)
0x450|                                             00|               .|                    x: 0 (valid) 0x45f-0x460 (1)
     |                                               |                |                  [1]{}: in 0x460-0x462 (2)
0x460|20                                             |                |                    opcode: "local.get" (0x20) 0x460-0x461 (1)
0x460|   01                                          | .              |                    x: 1 (valid) 0x461-0x462 (1)
     |                                               |                |                  [2]{}: in 0x462-0x465 (3)
0x460|      fd                                       |  .             |                    opcode: "vector" (0xfd) 0x462-0x463 (1)
0x460|         99 01                                 |   ..           |                    v_opcode: "i16x8.max_u" (153) 0x463-0x465 (2)
     |                                               |                |                  [3]{}: in 0x465-0x467 (2)
0x460|               20                              |                |                    opcode: "local.get" (0x20) 0x465-0x466 (1)
0x460|                  02                           |      .         |                    x: 2 (valid) 0x466-0x467 (1)
     |                                               |                |                  [4]{}: in 0x467-0x46a (3)
0x460|                     fd                        |       .        |                    opcode: "vector" (0xfd) 0x467-0x468 (1)
0x460|                        97 01                  |        ..      |                    v_opcode: "i16x8.min_u" (151) 0x468-0x46a (2)
     |                                               |                |                  [5]{}: in 0x46a-0x46b (1)
0x460|                              0b               |          .     |                    opcode: "end" (0xb) 0x46a-0x46b (1)
     |                                               |                |            [9]{}: code 0x46b-0x47a (15)
0x460|                                 0e            |           .    |              size: 14 (valid) 0x46b-0x46c (1)
     |                                               |                |              code{}: 0x46c-0x47a (14)
     |                                               |                |                t{}: 0x46c-0x46d (1)
0x460|                                    00         |            .   |                  n: 0 (valid) 0x46c-0x46d (1)
     |                                               |                |                  x[0:0]: 0x46d-0x46d (0)
     |                                               |                |                e[0:6]: 0x46d-0x47a (13)
     |                                               |                |                  [0]{}: in 0x46d-0x46f (2)
0x460|                                       20      |                |                    opcode: "local.get" (0x20) 0x46d-0x46e (1)
0x460|                                          00   |              . |                    x: 0 (valid) 0x46e-0x46f (1)
     |                                               |                |                  [1]{}: in 0x46f-0x471 (2)
0x460|                                             20|                |                    opcode: "local.get" (0x20) 0x46f-0x470 (1)
0x470|01                                             |.               |                    x: 1 (valid) 0x470-0x471 (1)
     |                                               |                |                  [2]{}: in 0x471-0x474 (3)
0x470|   fd                                          | .              |                    opcode: "vector" (0xfd) 0x471-0x472 (1)
0x470|      98 01                                    |  ..            |                    v_opcode: "i16x8.max_s" (152) 0x472-0x474 (2)
     |                                               |                |                  [3]{}: in 0x474-0x476 (2)
0x470|            20                                 |                |                    opcode: "local.get" (0x20) 0x474-0x475 (1)
0x470|               02                              |     .          |                    x: 2 (valid) 0x475-0x476 (1)
     |                                               |                |                  [4]{}: in 0x476-0x479 (3)
0x470|                  fd                           |      .         |                    opcode: "vector" (0xfd) 0x476-0x477 (1)
0x470|                     97 01                     |       ..       |                    v_opcode: "i16x8.min_u" (151) 0x477-0x479 (2)
     |                                               |                |                  [5]{}: in 0x479-0x47a (1)
0x470|                           0b                  |         .      |                    opcode: "end" (0xb) 0x479-0x47a (1)
     |                                               |                |            [10]{}: code 0x47a-0x489 (15)
0x470|                              0e               |          .     |              size: 14 (valid) 0x47a-0x47b (1)
     |                                               |                |              code{}: 0x47b-0x489 (14)
     |                                               |                |                t{}: 0x47b-0x47c (1)
0x470|                                 00            |           .    |                  n: 0 (valid) 0x47b-0x47c (1)
     |                                               |                |                  x[0:0]: 0x47c-0x47c (0)
     |                                               |                |                e[0:6]: 0x47c-0x489 (13)
     |                                               |                |                  [0]{}: in 0x47c-0x47e (2)
0x470|                                    20         |                |                    opcode: "local.get" (0x20) 0x47c-0x47d (1)
0x470|                                       00      |             .  |                    x: 0 (valid) 0x47d-0x47e (1)
     |                                               |                |                  [1]{}: in 0x47e-0x480 (2)
0x470|                                          20   |                |                    opcode: "local.get" (0x20) 0x47e-0x47f (1)
0x470|                                             01|               .|                    x: 1 (valid) 0x47f-0x480 (1)
     |                                               |                |                  [2]{}: in 0x480-0x483 (3)
0x480|fd                                             |.               |                    opcode: "vector" (0xfd) 0x480-0x481 (1)
0x480|   97 01                                       | ..             |                    v_opcode: "i16x8.min_u" (151) 0x481-0x483 (2)
     |                                               |                |                  [3]{}: in 0x483-0x485 (2)
0x480|         20                                    |                |                    opcode: "local.get" (0x20) 0x483-0x484 (1)
0x480|            02                                 |    .           |                    x: 2 (valid) 0x484-0x485 (1)
     |                                               |                |                  [4]{}: in 0x485-0x488 (3)
0x480|               fd                              |     .          |                    opcode: "vector" (0xfd) 0x485-0x486 (1)
0x480|                  97 01                        |      ..        |                    v_opcode: "i16x8.min_u" (151) 0x486-0x488 (2)
     |                                               |                |                  [5]{}: in 0x488-0x489 (1)
0x480|                        0b                     |        .       |                    opcode: "end" (0xb) 0x488-0x489 (1)
     |                                               |                |            [11]{}: code 0x489-0x498 (15)
0x480|                           0e                  |         .      |              size: 14 (valid) 0x489-0x48a (1)
     |                                               |                |              code{}: 0x48a-0x498 (14)
     |                                               |                |                t{}: 0x48a-0x48b (1)
0x480|                              00               |          .     |                  n: 0 (valid) 0x48a-0x48b (1)
     |                                               |                |                  x[0:0]: 0x48b-0x48b (0)
     |                                               |                |                e[0:6]: 0x48b-0x498 (13)
     |                                               |                |                  [0]{}: in 0x48b-0x48d (2)
0x480|                                 20            |                |                    opcode: "local.get" (0x20) 0x48b-0x48c (1)
0x480|                                    00         |            .   |                    x: 0 (valid) 0x48c-0x48d (1)
     |                                               |                |                  [1]{}: in 0x48d-0x48f (2)
0x480|                                       20      |                |                    opcode: "local.get" (0x20) 0x48d-0x48e (1)
0x480|                                          01   |              . |                    x: 1 (valid) 0x48e-0x48f (1)
     |                                               |                |                  [2]{}: in 0x48f-0x492 (3)
0x480|                                             fd|               .|                    opcode: "vector" (0xfd) 0x48f-0x490 (1)
0x490|96 01                                          |..              |                    v_opcode: "i16x8.min_s" (150) 0x490-0x492 (2)
     |                                               |                |                  [3]{}: in 0x492-0x494 (2)
0x490|      20                                       |                |                    opcode: "local.get" (0x20) 0x492-0x493 (1)
0x490|         02                                    |   .            |                    x: 2 (valid) 0x493-0x494 (1)
     |                                               |                |                  [4]{}: in 0x494-0x497 (3)
0x490|            fd                                 |    .           |                    opcode: "vector" (0xfd) 0x494-0x495 (1)
0x490|               97 01                           |     ..         |                    v_opcode: "i16x8.min_u" (151) 0x495-0x497 (2)
     |                                               |                |                  [5]{}: in 0x497-0x498 (1)
0x490|                     0b                        |       .        |                    opcode: "end" (0xb) 0x497-0x498 (1)
     |                                               |                |            [12]{}: code 0x498-0x4a5 (13)
0x490|                        0c                     |        .       |              size: 12 (valid) 0x498-0x499 (1)
     |                                               |                |              code{}: 0x499-0x4a5 (12)
     |                                               |                |                t{}: 0x499-0x49a (1)
0x490|                           00                  |         .      |                  n: 0 (valid) 0x499-0x49a (1)
     |                                               |                |                  x[0:0]: 0x49a-0x49a (0)
     |                                               |                |                e[0:5]: 0x49a-0x4a5 (11)
     |                                               |                |                  [0]{}: in 0x49a-0x49c (2)
0x490|                              20               |                |                    opcode: "local.get" (0x20) 0x49a-0x49b (1)
0x490|                                 00            |           .    |                    x: 0 (valid) 0x49b-0x49c (1)
     |                                               |                |                  [1]{}: in 0x49c-0x49f (3)
0x490|                                    fd         |            .   |                    opcode: "vector" (0xfd) 0x49c-0x49d (1)
0x490|                                       80 01   |             .. |                    v_opcode: "i16x8.abs" (128) 0x49d-0x49f (2)
     |                                               |                |                  [2]{}: in 0x49f-0x4a1 (2)
0x490|                                             20|                |                    opcode: "local.get" (0x20) 0x49f-0x4a0 (1)
0x4a0|01                                             |.               |                    x: 1 (valid) 0x4a0-0x4a1 (1)
     |                                               |                |                  [3]{}: in 0x4a1-0x4a4 (3)
0x4a0|   fd                                          | .              |                    opcode: "vector" (0xfd) 0x4a1-0x4a2 (1)
0x4a0|      97 01                                    |  ..            |                    v_opcode: "i16x8.min_u" (151) 0x4a2-0x4a4 (2)
     |                                               |                |                  [4]{}: in 0x4a4-0x4a5 (1)
0x4a0|            0b                                 |    .           |                    opcode: "end" (0xb) 0x4a4-0x4a5 (1)
     |                                               |                |            [13]{}: code 0x4a5-0x4b2 (13)
0x4a0|               0c                              |     .          |              size: 12 (valid) 0x4a5-0x4a6 (1)
     |                                               |                |              code{}: 0x4a6-0x4b2 (12)
     |                                               |                |                t{}: 0x4a6-0x4a7 (1)
0x4a0|                  00                           |      .         |                  n: 0 (valid) 0x4a6-0x4a7 (1)
     |                                               |                |                  x[0:0]: 0x4a7-0x4a7 (0)
     |                                               |                |                e[0:5]: 0x4a7-0x4b2 (11)
     |                                               |                |                  [0]{}: in 0x4a7-0x4a9 (2)
0x4a0|                     20                        |                |                    opcode: "local.get" (0x20) 0x4a7-0x4a8 (1)
0x4a0|                        00                     |        .       |                    x: 0 (valid) 0x4a8-0x4a9 (1)
     |                                               |                |                  [1]{}: in 0x4a9-0x4ab (2)
0x4a0|                           20                  |                |                    opcode: "local.get" (0x20) 0x4a9-0x4aa (1)
0x4a0|                              01               |          .     |                    x: 1 (valid) 0x4aa-0x4ab (1)
     |                                               |                |                  [2]{}: in 0x4ab-0x4ae (3)
0x4a0|                                 fd            |           .    |                    opcode: "vector" (0xfd) 0x4ab-0x4ac (1)
0x4a0|                                    97 01      |            ..  |                    v_opcode: "i16x8.min_u" (151) 0x4ac-0x4ae (2)
     |                                               |                |                  [3]{}: in 0x4ae-0x4b1 (3)
0x4a0|                                          fd   |              . |                    opcode: "vector" (0xfd) 0x4ae-0x4af (1)
0x4a0|                                             80|               .|                    v_opcode: "i16x8.abs" (128) 0x4af-0x4b1 (2)
0x4b0|01                                             |.               |
     |                                               |                |                  [4]{}: in 0x4b1-0x4b2 (1)
0x4b0|   0b                                          | .              |                    opcode: "end" (0xb) 0x4b1-0x4b2 (1)
     |                                               |                |            [14]{}: code 0x4b2-0x4c1 (15)
0x4b0|      0e                                       |  .             |              size: 14 (valid) 0x4b2-0x4b3 (1)
     |                                               |                |              code{}: 0x4b3-0x4c1 (14)
     |                                               |                |                t{}: 0x4b3-0x4b4 (1)
0x4b0|         00                                    |   .            |                  n: 0 (valid) 0x4b3-0x4b4 (1)
     |                                               |                |                  x[0:0]: 0x4b4-0x4b4 (0)
     |                                               |                |                e[0:6]: 0x4b4-0x4c1 (13)
     |                                               |                |                  [0]{}: in 0x4b4-0x4b6 (2)
0x4b0|            20                                 |                |                    opcode: "local.get" (0x20) 0x4b4-0x4b5 (1)
0x4b0|               00                              |     .          |                    x: 0 (valid) 0x4b5-0x4b6 (1)
     |                                               |                |                  [1]{}: in 0x4b6-0x4b8 (2)
0x4b0|                  20                           |                |                    opcode: "local.get" (0x20) 0x4b6-0x4b7 (1)
0x4b0|                     01                        |       .        |                    x: 1 (valid) 0x4b7-0x4b8 (1)
     |                                               |                |                  [2]{}: in 0x4b8-0x4bb (3)
0x4b0|                        fd                     |        .       |                    opcode: "vector" (0xfd) 0x4b8-0x4b9 (1)
0x4b0|                           9b 01               |         ..     |                    v_opcode: "i16x8.avgr_u" (155) 0x4b9-0x4bb (2)
     |                                               |                |                  [3]{}: in 0x4bb-0x4bd (2)
0x4b0|                                 20            |                |                    opcode: "local.get" (0x20) 0x4bb-0x4bc (1)
0x4b0|                                    02         |            .   |                    x: 2 (valid) 0x4bc-0x4bd (1)
     |                                               |                |                  [4]{}: in 0x4bd-0x4c0 (3)
0x4b0|                                       fd      |             .  |                    opcode: "vector" (0xfd) 0x4bd-0x4be (1)
0x4b0|                                          98 01|              ..|                    v_opcode: "i16x8.max_s" (152) 0x4be-0x4c0 (2)
     |                                               |                |                  [5]{}: in 0x4c0-0x4c1 (1)
0x4c0|0b                                             |.               |                    opcode: "end" (0xb) 0x4c0-0x4c1 (1)
     |                                               |                |            [15]{}: code 0x4c1-0x4d0 (15)
0x4c0|   0e                                          | .              |              size: 14 (valid) 0x4c1-0x4c2 (1)
     |                                               |                |              code{}: 0x4c2-0x4d0 (14)
     |                                               |                |                t{}: 0x4c2-0x4c3 (1)
0x4c0|      00                                       |  .             |                  n: 0 (valid) 0x4c2-0x4c3 (1)
     |                                               |                |                  x[0:0]: 0x4c3-0x4c3 (0)
     |                                               |                |                e[0:6]: 0x4c3-0x4d0 (13)
     |                                               |                |                  [0]{}: in 0x4c3-0x4c5 (2)
0x4c0|         20                                    |                |                    opcode: "local.get" (0x20) 0x4c3-0x4c4 (1)
0x4c0|            00                                 |    .           |                    x: 0 (valid) 0x4c4-0x4c5 (1)
     |                                               |                |                  [1]{}: in 0x4c5-0x4c7 (2)
0x4c0|               20                              |                |                    opcode: "local.get" (0x20) 0x4c5-0x4c6 (1)
0x4c0|                  01                           |      .         |                    x: 1 (valid) 0x4c6-0x4c7 (1)
     |                                               |                |                  [2]{}: in 0x4c7-0x4ca (3)
0x4c0|                     fd                        |       .        |                    opcode: "vector" (0xfd) 0x4c7-0x4c8 (1)
0x4c0|                        99 01                  |        ..      |                    v_opcode: "i16x8.max_u" (153) 0x4c8-0x4ca (2)
     |                                               |                |                  [3]{}: in 0x4ca-0x4cc (2)
0x4c0|                              20               |                |                    opcode: "local.get" (0x20) 0x4ca-0x4cb (1)
0x4c0|                                 02            |           .    |                    x: 2 (valid) 0x4cb-0x4cc (1)
     |                                               |                |                  [4]{}: in 0x4cc-0x4cf (3)
0x4c0|                                    fd         |            .   |                    opcode: "vector" (0xfd) 0x4cc-0x4cd (1)
0x4c0|                                       98 01   |             .. |                    v_opcode: "i16x8.max_s" (152) 0x4cd-0x4cf (2)
     |                                               |                |                  [5]{}: in 0x4cf-0x4d0 (1)
0x4c0|                                             0b|               .|                    opcode: "end" (0xb) 0x4cf-0x4d0 (1)
     |                                               |                |            [16]{}: code 0x4d0-0x4df (15)
0x4d0|0e                                             |.               |              size: 14 (valid) 0x4d0-0x4d1 (1)
     |                                               |                |              code{}: 0x4d1-0x4df (14)
     |                                               |                |                t{}: 0x4d1-0x4d2 (1)
0x4d0|   00                                          | .              |                  n: 0 (valid) 0x4d1-0x4d2 (1)
     |                                               |                |                  x[0:0]: 0x4d2-0x4d2 (0)
     |                                               |                |                e[0:6]: 0x4d2-0x4df (13)
     |                                               |                |                  [0]{}: in 0x4d2-0x4d4 (2)
0x4d0|      20                                       |                |                    opcode: "local.get" (0x20) 0x4d2-0x4d3 (1)
0x4d0|         00                                    |   .            |                    x: 0 (valid) 0x4d3-0x4d4 (1)
     |                                               |                |                  [1]{}: in 0x4d4-0x4d6 (2)
0x4d0|            20                                 |                |                    opcode: "local.get" (0x20) 0x4d4-0x4d5 (1)
0x4d0|               01                              |     .          |                    x: 1 (valid) 0x4d5-0x4d6 (1)
     |                                               |                |                  [2]{}: in 0x4d6-0x4d9 (3)
0x4d0|                  fd                           |      .         |                    opcode: "vector" (0xfd) 0x4d6-0x4d7 (1)
0x4d0|                     98 01                     |       ..       |                    v_opcode: "i16x8.max_s" (152) 0x4d7-0x4d9 (2)
     |                                               |                |                  [3]{}: in 0x4d9-0x4db (2)
0x4d0|                           20                  |                |                    opcode: "local.get" (0x20) 0x4d9-0x4da (1)
0x4d0|                              02               |          .     |                    x: 2 (valid) 0x4da-0x4db (1)
     |                                               |                |                  [4]{}: in 0x4db-0x4de (3)
0x4d0|                                 fd            |           .    |                    opcode: "vector" (0xfd) 0x4db-0x4dc (1)
0x4d0|                                    98 01      |            ..  |                    v_opcode: "i16x8.max_s" (152) 0x4dc-0x4de (2)
     |                                               |                |                  [5]{}: in 0x4de-0x4df (1)
0x4d0|                                          0b   |              . |                    opcode: "end" (0xb) 0x4de-0x4df (1)
     |                                               |                |            [17]{}: code 0x4df-0x4ee (15)
0x4d0|                                             0e|               .|              size: 14 (valid) 0x4df-0x4e0 (1)
     |                                               |                |              code{}: 0x4e0-0x4ee (14)
     |                                               |                |                t{}: 0x4e0-0x4e1 (1)
0x4e0|00                                             |.               |                  n: 0 (valid) 0x4e0-0x4e1 (1)
     |                                               |                |                  x[0:0]: 0x4e1-0x4e1 (0)
     |                                               |                |                e[0:6]: 0x4e1-0x4ee (13)
     |                                               |                |                  [0]{}: in 0x4e1-0x4e3 (2)
0x4e0|   20                                          |                |                    opcode: "local.get" (0x20) 0x4e1-0x4e2 (1)
0x4e0|      00                                       |  .             |                    x: 0 (valid) 0x4e2-0x4e3 (1)
     |                                               |                |                  [1]{}: in 0x4e3-0x4e5 (2)
0x4e0|         20                                    |                |                    opcode: "local.get" (0x20) 0x4e3-0x4e4 (1)
0x4e0|            01                                 |    .           |                    x: 1 (valid) 0x4e4-0x4e5 (1)
     |                                               |                |                  [2]{}: in 0x4e5-0x4e8 (3)
0x4e0|               fd                              |     .          |                    opcode: "vector" (0xfd) 0x4e5-0x4e6 (1)
0x4e0|                  97 01                        |      ..        |                    v_opcode: "i16x8.min_u" (151) 0x4e6-0x4e8 (2)
     |                                               |                |                  [3]{}: in 0x4e8-0x4ea (2)
0x4e0|                        20                     |                |                    opcode: "local.get" (0x20) 0x4e8-0x4e9 (1)
0x4e0|                           02                  |         .      |                    x: 2 (valid) 0x4e9-0x4ea (1)
     |                                               |                |                  [4]{}: in 0x4ea-0x4ed (3)
0x4e0|                              fd               |          .     |                    opcode: "vector" (0xfd) 0x4ea-0x4eb (1)
0x4e0|                                 98 01         |           ..   |                    v_opcode: "i16x8.max_s" (152) 0x4eb-0x4ed (2)
     |                                               |                |                  [5]{}: in 0x4ed-0x4ee (1)
0x4e0|                                       0b      |             .  |                    opcode: "end" (0xb) 0x4ed-0x4ee (1)
     |                                               |                |            [18]{}: code 0x4ee-0x4fd (15)
0x4e0|                                          0e   |              . |              size: 14 (valid) 0x4ee-0x4ef (1)
     |                                               |                |              code{}: 0x4ef-0x4fd (14)
     |                                               |                |                t{}: 0x4ef-0x4f0 (1)
0x4e0|                                             00|               .|                  n: 0 (valid) 0x4ef-0x4f0 (1)
     |                                               |                |                  x[0:0]: 0x4f0-0x4f0 (0)
     |                                               |                |                e[0:6]: 0x4f0-0x4fd (13)
     |                                               |                |                  [0]{}: in 0x4f0-0x4f2 (2)
0x4f0|20                                             |                |                    opcode: "local.get" (0x20) 0x4f0-0x4f1 (1)
0x4f0|   00                                          | .              |                    x: 0 (valid) 0x4f1-0x4f2 (1)
     |                                               |                |                  [1]{}: in 0x4f2-0x4f4 (2)
0x4f0|      20                                       |                |                    opcode: "local.get" (0x20) 0x4f2-0x4f3 (1)
0x4f0|         01                                    |   .            |                    x: 1 (valid) 0x4f3-0x4f4 (1)
     |                                               |                |                  [2]{}: in 0x4f4-0x4f7 (3)
0x4f0|            fd                                 |    .           |                    opcode: "vector" (0xfd) 0x4f4-0x4f5 (1)
0x4f0|               96 01                           |     ..         |                    v_opcode: "i16x8.min_s" (150) 0x4f5-0x4f7 (2)
     |                                               |                |                  [3]{}: in 0x4f7-0x4f9 (2)
0x4f0|                     20                        |                |                    opcode: "local.get" (0x20) 0x4f7-0x4f8 (1)
0x4f0|                        02                     |        .       |                    x: 2 (valid) 0x4f8-0x4f9 (1)
     |                                               |                |                  [4]{}: in 0x4f9-0x4fc (3)
0x4f0|                           fd                  |         .      |                    opcode: "vector" (0xfd) 0x4f9-0x4fa (1)
0x4f0|                              98 01            |          ..    |                    v_opcode: "i16x8.max_s" (152) 0x4fa-0x4fc (2)
     |                                               |                |                  [5]{}: in 0x4fc-0x4fd (1)
0x4f0|                                    0b         |            .   |                    opcode: "end" (0xb) 0x4fc-0x4fd (1)
     |                                               |                |            [19]{}: code 0x4fd-0x50a (13)
0x4f0|                                       0c      |             .  |              size: 12 (valid) 0x4fd-0x4fe (1)
     |                                               |                |              code{}: 0x4fe-0x50a (12)
     |                                               |                |                t{}: 0x4fe-0x4ff (1)
0x4f0|                                          00   |              . |                  n: 0 (valid) 0x4fe-0x4ff (1)
     |                                               |                |                  x[0:0]: 0x4ff-0x4ff (0)
     |                                               |                |                e[0:5]: 0x4ff-0x50a (11)
     |                                               |                |                  [0]{}: in 0x4ff-0x501 (2)
0x4f0|                                             20|                |                    opcode: "local.get" (0x20) 0x4ff-0x500 (1)
0x500|00                                             |.               |                    x: 0 (valid) 0x500-0x501 (1)
     |                                               |                |                  [1]{}: in 0x501-0x504 (3)
0x500|   fd                                          | .              |                    opcode: "vector" (0xfd) 0x501-0x502 (1)
0x500|      80 01                                    |  ..            |                    v_opcode: "i16x8.abs" (128) 0x502-0x504 (2)
     |                                               |                |                  [2]{}: in 0x504-0x506 (2)
0x500|            20                                 |                |                    opcode: "local.get" (0x20) 0x504-0x505 (1)
0x500|               01                              |     .          |                    x: 1 (valid) 0x505-0x506 (1)
     |                                               |                |                  [3]{}: in 0x506-0x509 (3)
0x500|                  fd                           |      .         |                    opcode: "vector" (0xfd) 0x506-0x507 (1)
0x500|                     98 01                     |       ..       |                    v_opcode: "i16x8.max_s" (152) 0x507-0x509 (2)
     |                                               |                |                  [4]{}: in 0x509-0x50a (1)
0x500|                           0b                  |         .      |                    opcode: "end" (0xb) 0x509-0x50a (1)
     |                                               |                |            [20]{}: code 0x50a-0x517 (13)
0x500|                              0c               |          .     |              size: 12 (valid) 0x50a-0x50b (1)
     |                                               |                |              code{}: 0x50b-0x517 (12)
     |                                               |                |                t{}: 0x50b-0x50c (1)
0x500|                                 00            |           .    |                  n: 0 (valid) 0x50b-0x50c (1)
     |                                               |                |                  x[0:0]: 0x50c-0x50c (0)
     |                                               |                |                e[0:5]: 0x50c-0x517 (11)
     |                                               |                |                  [0]{}: in 0x50c-0x50e (2)
0x500|                                    20         |                |                    opcode: "local.get" (0x20) 0x50c-0x50d (1)
0x500|                                       00      |             .  |                    x: 0 (valid) 0x50d-0x50e (1)
     |                                               |                |                  [1]{}: in 0x50e-0x510 (2)
0x500|                                          20   |                |                    opcode: "local.get" (0x20) 0x50e-0x50f (1)
0x500|                                             01|               .|                    x: 1 (valid) 0x50f-0x510 (1)
     |                                               |                |                  [2]{}: in 0x510-0x513 (3)
0x510|fd                                             |.               |                    opcode: "vector" (0xfd) 0x510-0x511 (1)
0x510|   98 01                                       | ..             |                    v_opcode: "i16x8.max_s" (152) 0x511-0x513 (2)
     |                                               |                |                  [3]{}: in 0x513-0x516 (3)
0x510|         fd                                    |   .            |                    opcode: "vector" (0xfd) 0x513-0x514 (1)
0x510|            80 01                              |    ..          |                    v_opcode: "i16x8.abs" (128) 0x514-0x516 (2)
     |                                               |                |                  [4]{}: in 0x516-0x517 (1)
0x510|                  0b                           |      .         |                    opcode: "end" (0xb) 0x516-0x517 (1)
     |                                               |                |            [21]{}: code 0x517-0x526 (15)
0x510|                     0e                        |       .        |              size: 14 (valid) 0x517-0x518 (1)
     |                                               |                |              code{}: 0x518-0x526 (14)
     |                                               |                |                t{}: 0x518-0x519 (1)
0x510|                        00                     |        .       |                  n: 0 (valid) 0x518-0x519 (1)
     |                                               |                |                  x[0:0]: 0x519-0x519 (0)
     |                                               |                |                e[0:6]: 0x519-0x526 (13)
     |                                               |                |                  [0]{}: in 0x519-0x51b (2)
0x510|                           20                  |                |                    opcode: "local.get" (0x20) 0x519-0x51a (1)
0x510|                              00               |          .     |                    x: 0 (valid) 0x51a-0x51b (1)
     |                                               |                |                  [1]{}: in 0x51b-0x51d (2)
0x510|                                 20            |                |                    opcode: "local.get" (0x20) 0x51b-0x51c (1)
0x510|                                    01         |            .   |                    x: 1 (valid) 0x51c-0x51d (1)
     |                                               |                |                  [2]{}: in 0x51d-0x520 (3)
0x510|                                       fd      |             .  |                    opcode: "vector" (0xfd) 0x51d-0x51e (1)
0x510|                                          9b 01|              ..|                    v_opcode: "i16x8.avgr_u" (155) 0x51e-0x520 (2)
     |                                               |                |                  [3]{}: in 0x520-0x522 (2)
0x520|20                                             |                |                    opcode: "local.get" (0x20) 0x520-0x521 (1)
0x520|   02                                          | .              |                    x: 2 (valid) 0x521-0x522 (1)
     |                                               |                |                  [4]{}: in 0x522-0x525 (3)
0x520|      fd                                       |  .             |                    opcode: "vector" (0xfd) 0x522-0x523 (1)
0x520|         99 01                                 |   ..           |                    v_opcode: "i16x8.max_u" (153) 0x523-0x525 (2)
     |                                               |                |                  [5]{}: in 0x525-0x526 (1)
0x520|               0b                              |     .          |                    opcode: "end" (0xb) 0x525-0x526 (1)
     |                                               |                |            [22]{}: code 0x526-0x535 (15)
0x520|                  0e                           |      .         |              size: 14 (valid) 0x526-0x527 (1)
     |                                               |                |              code{}: 0x527-0x535 (14)
     |                                               |                |                t{}: 0x527-0x528 (1)
0x520|                     00                        |       .        |                  n: 0 (valid) 0x527-0x528 (1)
     |                                               |                |                  x[0:0]: 0x528-0x528 (0)
     |                                               |                |                e[0:6]: 0x528-0x535 (13)
     |                                               |                |                  [0]{}: in 0x528-0x52a (2)
0x520|                        20                     |                |                    opcode: "local.get" (0x20) 0x528-0x529 (1)
0x520|                           00                  |         .      |                    x: 0 (valid) 0x529-0x52a (1)
     |                                               |                |                  [1]{}: in 0x52a-0x52c (2)
0x520|                              20               |                |                    opcode: "local.get" (0x20) 0x52a-0x52b (1)
0x520|                                 01            |           .    |                    x: 1 (valid) 0x52b-0x52c (1)
     |                                               |                |                  [2]{}: in 0x52c-0x52f (3)
0x520|                                    fd         |            .   |                    opcode: "vector" (0xfd) 0x52c-0x52d (1)
0x520|                                       99 01   |             .. |                    v_opcode: "i16x8.max_u" (153) 0x52d-0x52f (2)
     |                                               |                |                  [3]{}: in 0x52f-0x531 (2)
0x520|                                             20|                |                    opcode: "local.get" (0x20) 0x52f-0x530 (1)
0x530|02                                             |.               |                    x: 2 (valid) 0x530-0x531 (1)
     |                                               |                |                  [4]{}: in 0x531-0x534 (3)
0x530|   fd                                          | .              |                    opcode: "vector" (0xfd) 0x531-0x532 (1)
0x530|      99 01                                    |  ..            |                    v_opcode: "i16x8.max_u" (153) 0x532-0x534 (2)
     |                                               |                |                  [5]{}: in 0x534-0x535 (1)
0x530|            0b                                 |    .           |                    opcode: "end" (0xb) 0x534-0x535 (1)
     |                                               |                |            [23]{}: code 0x535-0x544 (15)
0x530|               0e                              |     .          |              size: 14 (valid) 0x535-0x536 (1)
     |                                               |                |              code{}: 0x536-0x544 (14)
     |                                               |                |                t{}: 0x536-0x537 (1)
0x530|                  00                           |      .         |                  n: 0 (valid) 0x536-0x537 (1)
     |                                               |                |                  x[0:0]: 0x537-0x537 (0)
     |                                               |                |                e[0:6]: 0x537-0x544 (13)
     |                                               |                |                  [0]{}: in 0x537-0x539 (2)
0x530|                     20                        |                |                    opcode: "local.get" (0x20) 0x537-0x538 (1)
0x530|                        00                     |        .       |                    x: 0 (valid) 0x538-0x539 (1)
     |                                               |                |                  [1]{}: in 0x539-0x53b (2)
0x530|                           20                  |                |                    opcode: "local.get" (0x20) 0x539-0x53a (1)
0x530|                              01               |          .     |                    x: 1 (valid) 0x53a-0x53b (1)
     |                                               |                |                  [2]{}: in 0x53b-0x53e (3)
0x530|                                 fd            |           .    |                    opcode: "vector" (0xfd) 0x53b-0x53c (1)
0x530|                                    98 01      |            ..  |                    v_opcode: "i16x8.max_s" (152) 0x53c-0x53e (2)
     |                                               |                |                  [3]{}: in 0x53e-0x540 (2)
0x530|                                          20   |                |                    opcode: "local.get" (0x20) 0x53e-0x53f (1)
0x530|                                             02|               .|                    x: 2 (valid) 0x53f-0x540 (1)
     |                                               |                |                  [4]{}: in 0x540-0x543 (3)
0x540|fd                                             |.               |                    opcode: "vector" (0xfd) 0x540-0x541 (1)
0x540|   99 01                                       | ..             |                    v_opcode: "i16x8.max_u" (153) 0x541-0x543 (2)
     |                                               |                |                  [5]{}: in 0x543-0x544 (1)
0x540|         0b                                    |   .            |                    opcode: "end" (0xb) 0x543-0x544 (1)
     |                                               |                |            [24]{}: code 0x544-0x553 (15)
0x540|            0e                                 |    .           |              size: 14 (valid) 0x544-0x545 (1)
     |                                               |                |              code{}: 0x545-0x553 (14)
     |                                               |                |                t{}: 0x545-0x546 (1)
0x540|               00                              |     .          |                  n: 0 (valid) 0x545-0x546 (1)
     |                                               |                |                  x[0:0]: 0x546-0x546 (0)
     |                                               |                |                e[0:6]: 0x546-0x553 (13)
     |                                               |                |                  [0]{}: in 0x546-0x548 (2)
0x540|                  20                           |                |                    opcode: "local.get" (0x20) 0x546-0x547 (1)
0x540|                     00                        |       .        |                    x: 0 (valid) 0x547-0x548 (1)
     |                                               |                |                  [1]{}: in 0x548-0x54a (2)
0x540|                        20                     |                |                    opcode: "local.get" (0x20) 0x548-0x549 (1)
0x540|                           01                  |         .      |                    x: 1 (valid) 0x549-0x54a (1)
     |                                               |                |                  [2]{}: in 0x54a-0x54d (3)
0x540|                              fd               |          .     |                    opcode: "vector" (0xfd) 0x54a-0x54b (1)
0x540|                                 97 01         |           ..   |                    v_opcode: "i16x8.min_u" (151) 0x54b-0x54d (2)
     |                                               |                |                  [3]{}: in 0x54d-0x54f (2)
0x540|                                       20      |                |                    opcode: "local.get" (0x20) 0x54d-0x54e (1)
0x540|                                          02   |              . |                    x: 2 (valid) 0x54e-0x54f (1)
     |                                               |                |                  [4]{}: in 0x54f-0x552 (3)
0x540|                                             fd|               .|                    opcode: "vector" (0xfd) 0x54f-0x550 (1)
0x550|99 01                                          |..              |                    v_opcode: "i16x8.max_u" (153) 0x550-0x552 (2)
     |                                               |                |                  [5]{}: in 0x552-0x553 (1)
0x550|      0b                                       |  .             |                    opcode: "end" (0xb) 0x552-0x553 (1)
     |                                               |                |            [25]{}: code 0x553-0x562 (15)
0x550|         0e                                    |   .            |              size: 14 (valid) 0x553-0x554 (1)
     |                                               |                |              code{}: 0x554-0x562 (14)
     |                                               |                |                t{}: 0x554-0x555 (1)
0x550|            00                                 |    .           |                  n: 0 (valid) 0x554-0x555 (1)
     |                                               |                |                  x[0:0]: 0x555-0x555 (0)
     |                                               |                |                e[0:6]: 0x555-0x562 (13)
     |                                               |                |                  [0]{}: in 0x555-0x557 (2)
0x550|               20                              |                |                    opcode: "local.get" (0x20) 0x555-0x556 (1)
0x550|                  00                           |      .         |                    x: 0 (valid) 0x556-0x557 (1)
     |                                               |                |                  [1]{}: in 0x557-0x559 (2)
0x550|                     20                        |                |                    opcode: "local.get" (0x20) 0x557-0x558 (1)
0x550|                        01                     |        .       |                    x: 1 (valid) 0x558-0x559 (1)
     |                                               |                |                  [2]{}: in 0x559-0x55c (3)
0x550|                           fd                  |         .      |                    opcode: "vector" (0xfd) 0x559-0x55a (1)
0x550|                              96 01            |          ..    |                    v_opcode: "i16x8.min_s" (150) 0x55a-0x55c (2)
     |                                               |                |                  [3]{}: in 0x55c-0x55e (2)
0x550|                                    20         |                |                    opcode: "local.get" (0x20) 0x55c-0x55d (1)
0x550|                                       02      |             .  |                    x: 2 (valid) 0x55d-0x55e (1)
     |                                               |                |                  [4]{}: in 0x55e-0x561 (3)
0x550|                                          fd   |              . |                    opcode: "vector" (0xfd) 0x55e-0x55f (1)
0x550|                                             99|               .|                    v_opcode: "i16x8.max_u" (153) 0x55f-0x561 (2)
0x560|01                                             |.               |
     |                                               |                |                  [5]{}: in 0x561-0x562 (1)
0x560|   0b                                          | .              |                    opcode: "end" (0xb) 0x561-0x562 (1)
     |                                               |                |            [26]{}: code 0x562-0x56f (13)
0x560|      0c                                       |  .             |              size: 12 (valid) 0x562-0x563 (1)
     |                                               |                |              code{}: 0x563-0x56f (12)
     |                                               |                |                t{}: 0x563-0x564 (1)
0x560|         00                                    |   .            |                  n: 0 (valid) 0x563-0x564 (1)
     |                                               |                |                  x[0:0]: 0x564-0x564 (0)
     |                                               |                |                e[0:5]: 0x564-0x56f (11)
     |                                               |                |                  [0]{}: in 0x564-0x566 (2)
0x560|            20                                 |                |                    opcode: "local.get" (0x20) 0x564-0x565 (1)
0x560|               00                              |     .          |                    x: 0 (valid) 0x565-0x566 (1)
     |                                               |                |                  [1]{}: in 0x566-0x569 (3)
0x560|                  fd                           |      .         |                    opcode: "vector" (0xfd) 0x566-0x567 (1)
0x560|                     80 01                     |       ..       |                    v_opcode: "i16x8.abs" (128) 0x567-0x569 (2)
     |                                               |                |                  [2]{}: in 0x569-0x56b (2)
0x560|                           20                  |                |                    opcode: "local.get" (0x20) 0x569-0x56a (1)
0x560|                              01               |          .     |                    x: 1 (valid) 0x56a-0x56b (1)
     |                                               |                |                  [3]{}: in 0x56b-0x56e (3)
0x560|                                 fd            |           .    |                    opcode: "vector" (0xfd) 0x56b-0x56c (1)
0x560|                                    99 01      |            ..  |                    v_opcode: "i16x8.max_u" (153) 0x56c-0x56e (2)
     |                                               |                |                  [4]{}: in 0x56e-0x56f (1)
0x560|                                          0b   |              . |                    opcode: "end" (0xb) 0x56e-0x56f (1)
     |                                               |                |            [27]{}: code 0x56f-0x57c (13)
0x560|                                             0c|               .|              size: 12 (valid) 0x56f-0x570 (1)
     |                                               |                |              code{}: 0x570-0x57c (12)
     |                                               |                |                t{}: 0x570-0x571 (1)
0x570|00                                             |.               |                  n: 0 (valid) 0x570-0x571 (1)
     |                                               |                |                  x[0:0]: 0x571-0x571 (0)
     |                                               |                |                e[0:5]: 0x571-0x57c (11)
     |                                               |                |                  [0]{}: in 0x571-0x573 (2)
0x570|   20                                          |                |                    opcode: "local.get" (0x20) 0x571-0x572 (1)
0x570|      00                                       |  .             |                    x: 0 (valid) 0x572-0x573 (1)
     |                                               |                |                  [1]{}: in 0x573-0x575 (2)
0x570|         20                                    |                |                    opcode: "local.get" (0x20) 0x573-0x574 (1)
0x570|            01                                 |    .           |                    x: 1 (valid) 0x574-0x575 (1)
     |                                               |                |                  [2]{}: in 0x575-0x578 (3)
0x570|               fd                              |     .          |                    opcode: "vector" (0xfd) 0x575-0x576 (1)
0x570|                  99 01                        |      ..        |                    v_opcode: "i16x8.max_u" (153) 0x576-0x578 (2)
     |                                               |                |                  [3]{}: in 0x578-0x57b (3)
0x570|                        fd                     |        .       |                    opcode: "vector" (0xfd) 0x578-0x579 (1)
0x570|                           80 01               |         ..     |                    v_opcode: "i16x8.abs" (128) 0x579-0x57b (2)
     |                                               |                |                  [4]{}: in 0x57b-0x57c (1)
0x570|                                 0b            |           .    |                    opcode: "end" (0xb) 0x57b-0x57c (1)
     |                                               |                |            [28]{}: code 0x57c-0x58b (15)
0x570|                                    0e         |            .   |              size: 14 (valid) 0x57c-0x57d (1)
     |                                               |                |              code{}: 0x57d-0x58b (14)
     |                                               |                |                t{}: 0x57d-0x57e (1)
0x570|                                       00      |             .  |                  n: 0 (valid) 0x57d-0x57e (1)
     |                                               |                |                  x[0:0]: 0x57e-0x57e (0)
     |                                               |                |                e[0:6]: 0x57e-0x58b (13)
     |                                               |                |                  [0]{}: in 0x57e-0x580 (2)
0x570|                                          20   |                |                    opcode: "local.get" (0x20) 0x57e-0x57f (1)
0x570|                                             00|               .|                    x: 0 (valid) 0x57f-0x580 (1)
     |                                               |                |                  [1]{}: in 0x580-0x582 (2)
0x580|20                                             |                |                    opcode: "local.get" (0x20) 0x580-0x581 (1)
0x580|   01                                          | .              |                    x: 1 (valid) 0x581-0x582 (1)
     |                                               |                |                  [2]{}: in 0x582-0x585 (3)
0x580|      fd                                       |  .             |                    opcode: "vector" (0xfd) 0x582-0x583 (1)
0x580|         9b 01                                 |   ..           |                    v_opcode: "i16x8.avgr_u" (155) 0x583-0x585 (2)
     |                                               |                |                  [3]{}: in 0x585-0x587 (2)
0x580|               20                              |                |                    opcode: "local.get" (0x20) 0x585-0x586 (1)
0x580|                  02                           |      .         |                    x: 2 (valid) 0x586-0x587 (1)
     |                                               |                |                  [4]{}: in 0x587-0x58a (3)
0x580|                     fd                        |       .        |                    opcode: "vector" (0xfd) 0x587-0x588 (1)
0x580|                        9b 01                  |        ..      |                    v_opcode: "i16x8.avgr_u" (155) 0x588-0x58a (2)
     |                                               |                |                  [5]{}: in 0x58a-0x58b (1)
0x580|                              0b               |          .     |                    opcode: "end" (0xb) 0x58a-0x58b (1)
     |                                               |                |            [29]{}: code 0x58b-0x59a (15)
0x580|                                 0e            |           .    |              size: 14 (valid) 0x58b-0x58c (1)
     |                                               |                |              code{}: 0x58c-0x59a (14)
     |                                               |                |                t{}: 0x58c-0x58d (1)
0x580|                                    00         |            .   |                  n: 0 (valid) 0x58c-0x58d (1)
     |                                               |                |                  x[0:0]: 0x58d-0x58d (0)
     |                                               |                |                e[0:6]: 0x58d-0x59a (13)
     |                                               |                |                  [0]{}: in 0x58d-0x58f (2)
0x580|                                       20      |                |                    opcode: "local.get" (0x20) 0x58d-0x58e (1)
0x580|                                          00   |              . |                    x: 0 (valid) 0x58e-0x58f (1)
     |                                               |                |                  [1]{}: in 0x58f-0x591 (2)
0x580|                                             20|                |                    opcode: "local.get" (0x20) 0x58f-0x590 (1)
0x590|01                                             |.               |                    x: 1 (valid) 0x590-0x591 (1)
     |                                               |                |                  [2]{}: in 0x591-0x594 (3)
0x590|   fd                                          | .              |                    opcode: "vector" (0xfd) 0x591-0x592 (1)
0x590|      99 01                                    |  ..            |                    v_opcode: "i16x8.max_u" (153) 0x592-0x594 (2)
     |                                               |                |                  [3]{}: in 0x594-0x596 (2)
0x590|            20                                 |                |                    opcode: "local.get" (0x20) 0x594-0x595 (1)
0x590|               02                              |     .          |                    x: 2 (valid) 0x595-0x596 (1)
     |                                               |                |                  [4]{}: in 0x596-0x599 (3)
0x590|                  fd                           |      .         |                    opcode: "vector" (0xfd) 0x596-0x597 (1)
0x590|                     9b 01                     |       ..       |                    v_opcode: "i16x8.avgr_u" (155) 0x597-0x599 (2)
     |                                               |                |                  [5]{}: in 0x599-0x59a (1)
0x590|                           0b                  |         .      |                    opcode: "end" (0xb) 0x599-0x59a (1)
     |                                               |                |            [30]{}: code 0x59a-0x5a9 (15)
0x590|                              0e               |          .     |              size: 14 (valid) 0x59a-0x59b (1)
     |                                               |                |              code{}: 0x59b-0x5a9 (14)
     |                                               |                |                t{}: 0x59b-0x59c (1)
0x590|                                 00            |           .    |                  n: 0 (valid) 0x59b-0x59c (1)
     |                                               |                |                  x[0:0]: 0x59c-0x59c (0)
     |                                               |                |                e[0:6]: 0x59c-0x5a9 (13)
     |                                               |                |                  [0]{}: in 0x59c-0x59e (2)
0x590|                                    20         |                |                    opcode: "local.get" (0x20) 0x59c-0x59d (1)
0x590|                                       00      |             .  |                    x: 0 (valid) 0x59d-0x59e (1)
     |                                               |                |                  [1]{}: in 0x59e-0x5a0 (2)
0x590|                                          20   |                |                    opcode: "local.get" (0x20) 0x59e-0x59f (1)
0x590|                                             01|               .|                    x: 1 (valid) 0x59f-0x5a0 (1)
     |                                               |                |                  [2]{}: in 0x5a0-0x5a3 (3)
0x5a0|fd                                             |.               |                    opcode: "vector" (0xfd) 0x5a0-0x5a1 (1)
0x5a0|   98 01                                       | ..             |                    v_opcode: "i16x8.max_s" (152) 0x5a1-0x5a3 (2)
     |                                               |                |                  [3]{}: in 0x5a3-0x5a5 (2)
0x5a0|         20                                    |                |                    opcode: "local.get" (0x20) 0x5a3-0x5a4 (1)
0x5a0|            02                                 |    .           |                    x: 2 (valid) 0x5a4-0x5a5 (1)
     |                                               |                |                  [4]{}: in 0x5a5-0x5a8 (3)
0x5a0|               fd                              |     .          |                    opcode: "vector" (0xfd) 0x5a5-0x5a6 (1)
0x5a0|                  9b 01                        |      ..        |                    v_opcode: "i16x8.avgr_u" (155) 0x5a6-0x5a8 (2)
     |                                               |                |                  [5]{}: in 0x5a8-0x5a9 (1)
0x5a0|                        0b                     |        .       |                    opcode: "end" (0xb) 0x5a8-0x5a9 (1)
     |                                               |                |            [31]{}: code 0x5a9-0x5b8 (15)
0x5a0|                           0e                  |         .      |              size: 14 (valid) 0x5a9-0x5aa (1)
     |                                               |                |              code{}: 0x5aa-0x5b8 (14)
     |                                               |                |                t{}: 0x5aa-0x5ab (1)
0x5a0|                              00               |          .     |                  n: 0 (valid) 0x5aa-0x5ab (1)
     |                                               |                |                  x[0:0]: 0x5ab-0x5ab (0)
     |                                               |                |                e[0:6]: 0x5ab-0x5b8 (13)
     |                                               |                |                  [0]{}: in 0x5ab-0x5ad (2)
0x5a0|                                 20            |                |                    opcode: "local.get" (0x20) 0x5ab-0x5ac (1)
0x5a0|                                    00         |            .   |                    x: 0 (valid) 0x5ac-0x5ad (1)
     |                                               |                |                  [1]{}: in 0x5ad-0x5af (2)
0x5a0|                                       20      |                |                    opcode: "local.get" (0x20) 0x5ad-0x5ae (1)
0x5a0|                                          01   |              . |                    x: 1 (valid) 0x5ae-0x5af (1)
     |                                               |                |                  [2]{}: in 0x5af-0x5b2 (3)
0x5a0|                                             fd|               .|                    opcode: "vector" (0xfd) 0x5af-0x5b0 (1)
0x5b0|97 01                                          |..              |                    v_opcode: "i16x8.min_u" (151) 0x5b0-0x5b2 (2)
     |                                               |                |                  [3]{}: in 0x5b2-0x5b4 (2)
0x5b0|      20                                       |                |                    opcode: "local.get" (0x20) 0x5b2-0x5b3 (1)
0x5b0|         02                                    |   .            |                    x: 2 (valid) 0x5b3-0x5b4 (1)
     |                                               |                |                  [4]{}: in 0x5b4-0x5b7 (3)
0x5b0|            fd                                 |    .           |                    opcode: "vector" (0xfd) 0x5b4-0x5b5 (1)
0x5b0|               9b 01                           |     ..         |                    v_opcode: "i16x8.avgr_u" (155) 0x5b5-0x5b7 (2)
     |                                               |                |                  [5]{}: in 0x5b7-0x5b8 (1)
0x5b0|                     0b                        |       .        |                    opcode: "end" (0xb) 0x5b7-0x5b8 (1)
     |                                               |                |            [32]{}: code 0x5b8-0x5c7 (15)
0x5b0|                        0e                     |        .       |              size: 14 (valid) 0x5b8-0x5b9 (1)
     |                                               |                |              code{}: 0x5b9-0x5c7 (14)
     |                                               |                |                t{}: 0x5b9-0x5ba (1)
0x5b0|                           00                  |         .      |                  n: 0 (valid) 0x5b9-0x5ba (1)
     |                                               |                |                  x[0:0]: 0x5ba-0x5ba (0)
     |                                               |                |                e[0:6]: 0x5ba-0x5c7 (13)
     |                                               |                |                  [0]{}: in 0x5ba-0x5bc (2)
0x5b0|                              20               |                |                    opcode: "local.get" (0x20) 0x5ba-0x5bb (1)
0x5b0|                                 00            |           .    |                    x: 0 (valid) 0x5bb-0x5bc (1)
     |                                               |                |                  [1]{}: in 0x5bc-0x5be (2)
0x5b0|                                    20         |                |                    opcode: "local.get" (0x20) 0x5bc-0x5bd (1)
0x5b0|                                       01      |             .  |                    x: 1 (valid) 0x5bd-0x5be (1)
     |                                               |                |                  [2]{}: in 0x5be-0x5c1 (3)
0x5b0|                                          fd   |              . |                    opcode: "vector" (0xfd) 0x5be-0x5bf (1)
0x5b0|                                             96|               .|                    v_opcode: "i16x8.min_s" (150) 0x5bf-0x5c1 (2)
0x5c0|01                                             |.               |
     |                                               |                |                  [3]{}: in 0x5c1-0x5c3 (2)
0x5c0|   20                                          |                |                    opcode: "local.get" (0x20) 0x5c1-0x5c2 (1)
0x5c0|      02                                       |  .             |                    x: 2 (valid) 0x5c2-0x5c3 (1)
     |                                               |                |                  [4]{}: in 0x5c3-0x5c6 (3)
0x5c0|         fd                                    |   .            |                    opcode: "vector" (0xfd) 0x5c3-0x5c4 (1)
0x5c0|            9b 01                              |    ..          |                    v_opcode: "i16x8.avgr_u" (155) 0x5c4-0x5c6 (2)
     |                                               |                |                  [5]{}: in 0x5c6-0x5c7 (1)
0x5c0|                  0b                           |      .         |                    opcode: "end" (0xb) 0x5c6-0x5c7 (1)
     |                                               |                |            [33]{}: code 0x5c7-0x5d4 (13)
0x5c0|                     0c                        |       .        |              size: 12 (valid) 0x5c7-0x5c8 (1)
     |                                               |                |              code{}: 0x5c8-0x5d4 (12)
     |                                               |                |                t{}: 0x5c8-0x5c9 (1)
0x5c0|                        00                     |        .       |                  n: 0 (valid) 0x5c8-0x5c9 (1)
     |                                               |                |                  x[0:0]: 0x5c9-0x5c9 (0)
     |                                               |                |                e[0:5]: 0x5c9-0x5d4 (11)
     |                                               |                |                  [0]{}: in 0x5c9-0x5cb (2)
0x5c0|                           20                  |                |                    opcode: "local.get" (0x20) 0x5c9-0x5ca (1)
0x5c0|                              00               |          .     |                    x: 0 (valid) 0x5ca-0x5cb (1)
     |                                               |                |                  [1]{}: in 0x5cb-0x5ce (3)
0x5c0|                                 fd            |           .    |                    opcode: "vector" (0xfd) 0x5cb-0x5cc (1)
0x5c0|                                    80 01      |            ..  |                    v_opcode: "i16x8.abs" (128) 0x5cc-0x5ce (2)
     |                                               |                |                  [2]{}: in 0x5ce-0x5d0 (2)
0x5c0|                                          20   |                |                    opcode: "local.get" (0x20) 0x5ce-0x5cf (1)
0x5c0|                                             01|               .|                    x: 1 (valid) 0x5cf-0x5d0 (1)
     |                                               |                |                  [3]{}: in 0x5d0-0x5d3 (3)
0x5d0|fd                                             |.               |                    opcode: "vector" (0xfd) 0x5d0-0x5d1 (1)
0x5d0|   9b 01                                       | ..             |                    v_opcode: "i16x8.avgr_u" (155) 0x5d1-0x5d3 (2)
     |                                               |                |                  [4]{}: in 0x5d3-0x5d4 (1)
0x5d0|         0b                                    |   .            |                    opcode: "end" (0xb) 0x5d3-0x5d4 (1)
     |                                               |                |            [34]{}: code 0x5d4-0x5e1 (13)
0x5d0|            0c                                 |    .           |              size: 12 (valid) 0x5d4-0x5d5 (1)
     |                                               |                |              code{}: 0x5d5-0x5e1 (12)
     |                                               |                |                t{}: 0x5d5-0x5d6 (1)
0x5d0|               00                              |     .          |                  n: 0 (valid) 0x5d5-0x5d6 (1)
     |                                               |                |                  x[0:0]: 0x5d6-0x5d6 (0)
     |                                               |                |                e[0:5]: 0x5d6-0x5e1 (11)
     |                                               |                |                  [0]{}: in 0x5d6-0x5d8 (2)
0x5d0|                  20                           |                |                    opcode: "local.get" (0x20) 0x5d6-0x5d7 (1)
0x5d0|                     00                        |       .        |                    x: 0 (valid) 0x5d7-0x5d8 (1)
     |                                               |                |                  [1]{}: in 0x5d8-0x5da (2)
0x5d0|                        20                     |                |                    opcode: "local.get" (0x20) 0x5d8-0x5d9 (1)
0x5d0|                           01                  |         .      |                    x: 1 (valid) 0x5d9-0x5da (1)
     |                                               |                |                  [2]{}: in 0x5da-0x5dd (3)
0x5d0|                              fd               |          .     |                    opcode: "vector" (0xfd) 0x5da-0x5db (1)
0x5d0|                                 9b 01         |           ..   |                    v_opcode: "i16x8.avgr_u" (155) 0x5db-0x5dd (2)
     |                                               |                |                  [3]{}: in 0x5dd-0x5e0 (3)
0x5d0|                                       fd      |             .  |                    opcode: "vector" (0xfd) 0x5dd-0x5de (1)
0x5d0|                                          80 01|              ..|                    v_opcode: "i16x8.abs" (128) 0x5de-0x5e0 (2)
     |                                               |                |                  [4]{}: in 0x5e0-0x5e1 (1)
0x5e0|0b                                             |.               |                    opcode: "end" (0xb) 0x5e0-0x5e1 (1)
     |                                               |                |            [35]{}: code 0x5e1-0x5ec (11)
0x5e0|   0a                                          | .              |              size: 10 (valid) 0x5e1-0x5e2 (1)
     |                                               |                |              code{}: 0x5e2-0x5ec (10)
     |                                               |                |                t{}: 0x5e2-0x5e3 (1)
0x5e0|      00                                       |  .             |                  n: 0 (valid) 0x5e2-0x5e3 (1)
     |                                               |                |                  x[0:0]: 0x5e3-0x5e3 (0)
     |                                               |                |                e[0:4]: 0x5e3-0x5ec (9)
     |                                               |                |                  [0]{}: in 0x5e3-0x5e5 (2)
0x5e0|         20                                    |                |                    opcode: "local.get" (0x20) 0x5e3-0x5e4 (1)
0x5e0|            00                                 |    .           |                    x: 0 (valid) 0x5e4-0x5e5 (1)
     |                                               |                |                  [1]{}: in 0x5e5-0x5e8 (3)
0x5e0|               fd                              |     .          |                    opcode: "vector" (0xfd) 0x5e5-0x5e6 (1)
0x5e0|                  80 01                        |      ..        |                    v_opcode: "i16x8.abs" (128) 0x5e6-0x5e8 (2)
     |                                               |                |                  [2]{}: in 0x5e8-0x5eb (3)
0x5e0|                        fd                     |        .       |                    opcode: "vector" (0xfd) 0x5e8-0x5e9 (1)
0x5e0|                           80 01               |         ..     |                    v_opcode: "i16x8.abs" (128) 0x5e9-0x5eb (2)
     |                                               |                |                  [3]{}: in 0x5eb-0x5ec (1)
0x5e0|                                 0b|           |           .|   |                    opcode: "end" (0xb) 0x5eb-0x5ec (1)
