$ fq -d wasm dv simd_f64x2_arith-2.wasm
     |00 01 02 03 04 05 06 07 08 09 0a 0b 0c 0d 0e 0f|0123456789abcdef|.{}: simd_f64x2_arith-2.wasm (wasm) 0x0-0x1b7 (439)
0x000|00 61 73 6d                                    |.asm            |  magic: raw bits (valid) 0x0-0x4 (4)
0x000|            01 00 00 00                        |    ....        |  version: 1 0x4-0x8 (4)
     |                                               |                |  sections[0:4]: 0x8-0x1b7 (431)
     |                                               |                |    [0]{}: section 0x8-0x18 (16)
0x000|                        01                     |        .       |      id: "type_section" (1) 0x8-0x9 (1)
0x000|                           0e                  |         .      |      size: 14 (valid) 0x9-0xa (1)
     |                                               |                |      content{}: 0xa-0x18 (14)
     |                                               |                |        ft{}: 0xa-0x18 (14)
0x000|                              02               |          .     |          n: 2 (valid) 0xa-0xb (1)
     |                                               |                |          x[0:2]: 0xb-0x18 (13)
     |                                               |                |            [0]{}: ft 0xb-0x12 (7)
0x000|                                 60            |           `    |              tag: 0x60 (valid) 0xb-0xc (1)
     |                                               |                |              rt1{}: 0xc-0x10 (4)
0x000|                                    03         |            .   |                n: 3 (valid) 0xc-0xd (1)
     |                                               |                |                x[0:3]: 0xd-0x10 (3)
0x000|                                       7b      |             {  |                  [0]: "v128" (0x7b) t 0xd-0xe (1)
0x000|                                          7b   |              { |                  [1]: "v128" (0x7b) t 0xe-0xf (1)
0x000|                                             7b|               {|                  [2]: "v128" (0x7b) t 0xf-0x10 (1)
     |                                               |                |              rt2{}: 0x10-0x12 (2)
0x010|01                                             |.               |                n: 1 (valid) 0x10-0x11 (1)
     |                                               |                |                x[0:1]: 0x11-0x12 (1)
0x010|   7b                                          | {              |                  [0]: "v128" (0x7b) t 0x11-0x12 (1)
     |                                               |                |            [1]{}: ft 0x12-0x18 (6)
0x010|      60                                       |  `             |              tag: 0x60 (valid) 0x12-0x13 (1)
     |                                               |                |              rt1{}: 0x13-0x16 (3)
0x010|         02                                    |   .            |                n: 2 (valid) 0x13-0x14 (1)
     |                                               |                |                x[0:2]: 0x14-0x16 (2)
0x010|            7b                                 |    {           |                  [0]: "v128" (0x7b) t 0x14-0x15 (1)
0x010|               7b                              |     {          |                  [1]: "v128" (0x7b) t 0x15-0x16 (1)
     |                                               |                |              rt2{}: 0x16-0x18 (2)
0x010|                  01                           |      .         |                n: 1 (valid) 0x16-0x17 (1)
     |                                               |                |                x[0:1]: 0x17-0x18 (1)
0x010|                     7b                        |       {        |                  [0]: "v128" (0x7b) t 0x17-0x18 (1)
     |                                               |                |    [1]{}: section 0x18-0x2b (19)
0x010|                        03                     |        .       |      id: "function_section" (3) 0x18-0x19 (1)
0x010|                           11                  |         .      |      size: 17 (valid) 0x19-0x1a (1)
     |                                               |                |      content{}: 0x1a-0x2b (17)
     |                                               |                |        x{}: 0x1a-0x2b (17)
0x010|                              10               |          .     |          n: 16 (valid) 0x1a-0x1b (1)
     |                                               |                |          x[0:16]: 0x1b-0x2b (16)
0x010|                                 00            |           .    |            [0]: 0 x (valid) 0x1b-0x1c (1)
0x010|                                    00         |            .   |            [1]: 0 x (valid) 0x1c-0x1d (1)
0x010|                                       00      |             .  |            [2]: 0 x (valid) 0x1d-0x1e (1)
0x010|                                          00   |              . |            [3]: 0 x (valid) 0x1e-0x1f (1)
0x010|                                             00|               .|            [4]: 0 x (valid) 0x1f-0x20 (1)
0x020|00                                             |.               |            [5]: 0 x (valid) 0x20-0x21 (1)
0x020|   00                                          | .              |            [6]: 0 x (valid) 0x21-0x22 (1)
0x020|      00                                       |  .             |            [7]: 0 x (valid) 0x22-0x23 (1)
0x020|         01                                    |   .            |            [8]: 1 x (valid) 0x23-0x24 (1)
0x020|            01                                 |    .           |            [9]: 1 x (valid) 0x24-0x25 (1)
0x020|               01                              |     .          |            [10]: 1 x (valid) 0x25-0x26 (1)
0x020|                  01                           |      .         |            [11]: 1 x (valid) 0x26-0x27 (1)
0x020|                     01                        |       .        |            [12]: 1 x (valid) 0x27-0x28 (1)
0x020|                        01                     |        .       |            [13]: 1 x (valid) 0x28-0x29 (1)
0x020|                           01                  |         .      |            [14]: 1 x (valid) 0x29-0x2a (1)
0x020|                              01               |          .     |            [15]: 1 x (valid) 0x2a-0x2b (1)
     |                                               |                |    [2]{}: section 0x2b-0xd3 (168)
0x020|                                 07            |           .    |      id: "export_section" (7) 0x2b-0x2c (1)
0x020|                                    a5 01      |            ..  |      size: 165 (valid) 0x2c-0x2e (2)
     |                                               |                |      content{}: 0x2e-0xd3 (165)
     |                                               |                |        ex{}: 0x2e-0xd3 (165)
0x020|                                          10   |              . |          n: 16 (valid) 0x2e-0x2f (1)
     |                                               |                |          x[0:16]: 0x2f-0xd3 (164)
     |                                               |                |            [0]{}: ex 0x2f-0x39 (10)
     |                                               |                |              nm{}: 0x2f-0x37 (8)
0x020|                                             07|               .|                n: 7 (valid) 0x2f-0x30 (1)
0x030|61 64 64 2d 73 75 62                           |add-sub         |                b: "add-sub" 0x30-0x37 (7)
     |                                               |                |              d{}: 0x37-0x39 (2)
0x030|                     00                        |       .        |                tag: "funcidx" (0x0) 0x37-0x38 (1)
0x030|                        00                     |        .       |                x: 0 (valid) 0x38-0x39 (1)
     |                                               |                |            [1]{}: ex 0x39-0x43 (10)
     |                                               |                |              nm{}: 0x39-0x41 (8)
0x030|                           07                  |         .      |                n: 7 (valid) 0x39-0x3a (1)
0x030|                              64 69 76 2d 61 64|          div-ad|                b: "div-add" 0x3a-0x41 (7)
0x040|64                                             |d               |
     |                                               |                |              d{}: 0x41-0x43 (2)
0x040|   00                                          | .              |                tag: "funcidx" (0x0) 0x41-0x42 (1)
0x040|      01                                       |  .             |                x: 1 (valid) 0x42-0x43 (1)
     |                                               |                |            [2]{}: ex 0x43-0x4d (10)
     |                                               |                |              nm{}: 0x43-0x4b (8)
0x040|         07                                    |   .            |                n: 7 (valid) 0x43-0x44 (1)
0x040|            64 69 76 2d 6d 75 6c               |    div-mul     |                b: "div-mul" 0x44-0x4b (7)
     |                                               |                |              d{}: 0x4b-0x4d (2)
0x040|                                 00            |           .    |                tag: "funcidx" (0x0) 0x4b-0x4c (1)
0x040|                                    02         |            .   |                x: 2 (valid) 0x4c-0x4d (1)
     |                                               |                |            [3]{}: ex 0x4d-0x57 (10)
     |                                               |                |              nm{}: 0x4d-0x55 (8)
0x040|                                       07      |             .  |                n: 7 (valid) 0x4d-0x4e (1)
0x040|                                          64 69|              di|                b: "div-sub" 0x4e-0x55 (7)
0x050|76 2d 73 75 62                                 |v-sub           |
     |                                               |                |              d{}: 0x55-0x57 (2)
0x050|               00                              |     .          |                tag: "funcidx" (0x0) 0x55-0x56 (1)
0x050|                  03                           |      .         |                x: 3 (valid) 0x56-0x57 (1)
     |                                               |                |            [4]{}: ex 0x57-0x61 (10)
     |                                               |                |              nm{}: 0x57-0x5f (8)
0x050|                     07                        |       .        |                n: 7 (valid) 0x57-0x58 (1)
0x050|                        6d 75 6c 2d 61 64 64   |        mul-add |                b: "mul-add" 0x58-0x5f (7)
     |                                               |                |              d{}: 0x5f-0x61 (2)
0x050|                                             00|               .|                tag: "funcidx" (0x0) 0x5f-0x60 (1)
0x060|04                                             |.               |                x: 4 (valid) 0x60-0x61 (1)
     |                                               |                |            [5]{}: ex 0x61-0x6b (10)
     |                                               |                |              nm{}: 0x61-0x69 (8)
0x060|   07                                          | .              |                n: 7 (valid) 0x61-0x62 (1)
0x060|      6d 75 6c 2d 64 69 76                     |  mul-div       |                b: "mul-div" 0x62-0x69 (7)
     |                                               |                |              d{}: 0x69-0x6b (2)
0x060|                           00                  |         .      |                tag: "funcidx" (0x0) 0x69-0x6a (1)
0x060|                              05               |          .     |                x: 5 (valid) 0x6a-0x6b (1)
     |                                               |                |            [6]{}: ex 0x6b-0x75 (10)
     |                                               |                |              nm{}: 0x6b-0x73 (8)
0x060|                                 07            |           .    |                n: 7 (valid) 0x6b-0x6c (1)
0x060|                                    6d 75 6c 2d|            mul-|                b: "mul-sub" 0x6c-0x73 (7)
0x070|73 75 62                                       |sub             |
     |                                               |                |              d{}: 0x73-0x75 (2)
0x070|         00                                    |   .            |                tag: "funcidx" (0x0) 0x73-0x74 (1)
0x070|            06                                 |    .           |                x: 6 (valid) 0x74-0x75 (1)
     |                                               |                |            [7]{}: ex 0x75-0x7f (10)
     |                                               |                |              nm{}: 0x75-0x7d (8)
0x070|               07                              |     .          |                n: 7 (valid) 0x75-0x76 (1)
0x070|                  73 75 62 2d 61 64 64         |      sub-add   |                b: "sub-add" 0x76-0x7d (7)
     |                                               |                |              d{}: 0x7d-0x7f (2)
0x070|                                       00      |             .  |                tag: "funcidx" (0x0) 0x7d-0x7e (1)
0x070|                                          07   |              . |                x: 7 (valid) 0x7e-0x7f (1)
     |                                               |                |            [8]{}: ex 0x7f-0x89 (10)
     |                                               |                |              nm{}: 0x7f-0x87 (8)
0x070|                                             07|               .|                n: 7 (valid) 0x7f-0x80 (1)
0x080|61 64 64 2d 6e 65 67                           |add-neg         |                b: "add-neg" 0x80-0x87 (7)
     |                                               |                |              d{}: 0x87-0x89 (2)
0x080|                     00                        |       .        |                tag: "funcidx" (0x0) 0x87-0x88 (1)
0x080|                        08                     |        .       |                x: 8 (valid) 0x88-0x89 (1)
     |                                               |                |            [9]{}: ex 0x89-0x94 (11)
     |                                               |                |              nm{}: 0x89-0x92 (9)
0x080|                           08                  |         .      |                n: 8 (valid) 0x89-0x8a (1)
0x080|                              61 64 64 2d 73 71|          add-sq|                b: "add-sqrt" 0x8a-0x92 (8)
0x090|72 74                                          |rt              |
     |                                               |                |              d{}: 0x92-0x94 (2)
0x090|      00                                       |  .             |                tag: "funcidx" (0x0) 0x92-0x93 (1)
0x090|         09                                    |   .            |                x: 9 (valid) 0x93-0x94 (1)
     |                                               |                |            [10]{}: ex 0x94-0x9e (10)
     |                                               |                |              nm{}: 0x94-0x9c (8)
0x090|            07                                 |    .           |                n: 7 (valid) 0x94-0x95 (1)
0x090|               64 69 76 2d 6e 65 67            |     div-neg    |                b: "div-neg" 0x95-0x9c (7)
     |                                               |                |              d{}: 0x9c-0x9e (2)
0x090|                                    00         |            .   |                tag: "funcidx" (0x0) 0x9c-0x9d (1)
0x090|                                       0a      |             .  |                x: 10 (valid) 0x9d-0x9e (1)
     |                                               |                |            [11]{}: ex 0x9e-0xa9 (11)
     |                                               |                |              nm{}: 0x9e-0xa7 (9)
0x090|                                          08   |              . |                n: 8 (valid) 0x9e-0x9f (1)
0x090|                                             64|               d|                b: "div-sqrt" 0x9f-0xa7 (8)
0x0a0|69 76 2d 73 71 72 74                           |iv-sqrt         |
     |                                               |                |              d{}: 0xa7-0xa9 (2)
0x0a0|                     00                        |       .        |                tag: "funcidx" (0x0) 0xa7-0xa8 (1)
0x0a0|                        0b                     |        .       |                x: 11 (valid) 0xa8-0xa9 (1)
     |                                               |                |            [12]{}: ex 0xa9-0xb3 (10)
     |                                               |                |              nm{}: 0xa9-0xb1 (8)
0x0a0|                           07                  |         .      |                n: 7 (valid) 0xa9-0xaa (1)
0x0a0|                              6d 75 6c 2d 6e 65|          mul-ne|                b: "mul-neg" 0xaa-0xb1 (7)
0x0b0|67                                             |g               |
     |                                               |                |              d{}: 0xb1-0xb3 (2)
0x0b0|   00                                          | .              |                tag: "funcidx" (0x0) 0xb1-0xb2 (1)
0x0b0|      0c                                       |  .             |                x: 12 (valid) 0xb2-0xb3 (1)
     |                                               |                |            [13]{}: ex 0xb3-0xbe (11)
     |                                               |                |              nm{}: 0xb3-0xbc (9)
0x0b0|         08                                    |   .            |                n: 8 (valid) 0xb3-0xb4 (1)
0x0b0|            6d 75 6c 2d 73 71 72 74            |    mul-sqrt    |                b: "mul-sqrt" 0xb4-0xbc (8)
     |                                               |                |              d{}: 0xbc-0xbe (2)
0x0b0|                                    00         |            .   |                tag: "funcidx" (0x0) 0xbc-0xbd (1)
0x0b0|                                       0d      |             .  |                x: 13 (valid) 0xbd-0xbe (1)
     |                                               |                |            [14]{}: ex 0xbe-0xc8 (10)
     |                                               |                |              nm{}: 0xbe-0xc6 (8)
0x0b0|                                          07   |              . |                n: 7 (valid) 0xbe-0xbf (1)
0x0b0|                                             73|               s|                b: "sub-neg" 0xbf-0xc6 (7)
0x0c0|75 62 2d 6e 65 67                              |ub-neg          |
     |                                               |                |              d{}: 0xc6-0xc8 (2)
0x0c0|                  00                           |      .         |                tag: "funcidx" (0x0) 0xc6-0xc7 (1)
0x0c0|                     0e                        |       .        |                x: 14 (valid) 0xc7-0xc8 (1)
     |                                               |                |            [15]{}: ex 0xc8-0xd3 (11)
     |                                               |                |              nm{}: 0xc8-0xd1 (9)
0x0c0|                        08                     |        .       |                n: 8 (valid) 0xc8-0xc9 (1)
0x0c0|                           73 75 62 2d 73 71 72|         sub-sqr|                b: "sub-sqrt" 0xc9-0xd1 (8)
0x0d0|74                                             |t               |
     |                                               |                |              d{}: 0xd1-0xd3 (2)
0x0d0|   00                                          | .              |                tag: "funcidx" (0x0) 0xd1-0xd2 (1)
0x0d0|      0f                                       |  .             |                x: 15 (valid) 0xd2-0xd3 (1)
     |                                               |                |    [3]{}: section 0xd3-0x1b7 (228)
0x0d0|         0a                                    |   .            |      id: "code_section" (10) 0xd3-0xd4 (1)
0x0d0|            e1 01                              |    ..          |      size: 225 (valid) 0xd4-0xd6 (2)
     |                                               |                |      content{}: 0xd6-0x1b7 (225)
     |                                               |                |        code{}: 0xd6-0x1b7 (225)
0x0d0|                  10                           |      .         |          n: 16 (valid) 0xd6-0xd7 (1)
     |                                               |                |          x[0:16]: 0xd7-0x1b7 (224)
     |                                               |                |            [0]{}: code 0xd7-0xe6 (15)
0x0d0|                     0e                        |       .        |              size: 14 (valid) 0xd7-0xd8 (1)
     |                                               |                |              code{}: 0xd8-0xe6 (14)
     |                                               |                |                t{}: 0xd8-0xd9 (1)
0x0d0|                        00                     |        .       |                  n: 0 (valid) 0xd8-0xd9 (1)
     |                                               |                |                  x[0:0]: 0xd9-0xd9 (0)
     |                                               |                |                e[0:6]: 0xd9-0xe6 (13)
     |                                               |                |                  [0]{}: in 0xd9-0xdb (2)
0x0d0|                           20                  |                |                    opcode: "local.get" (0x20) 0xd9-0xda (1)
0x0d0|                              00               |          .     |                    x: 0 (valid) 0xda-0xdb (1)
     |                                               |                |                  [1]{}: in 0xdb-0xdd (2)
0x0d0|                                 20            |                |                    opcode: "local.get" (0x20) 0xdb-0xdc (1)
0x0d0|                                    01         |            .   |                    x: 1 (valid) 0xdc-0xdd (1)
     |                                               |                |                  [2]{}: in 0xdd-0xe0 (3)
0x0d0|                                       fd      |             .  |                    opcode: "vector" (0xfd) 0xdd-0xde (1)
0x0d0|                                          f1 01|              ..|                    v_opcode: "f64x2.sub" (241) 0xde-0xe0 (2)
     |                                               |                |                  [3]{}: in 0xe0-0xe2 (2)
0x0e0|20                                             |                |                    opcode: "local.get" (0x20) 0xe0-0xe1 (1)
0x0e0|   02                                          | .              |                    x: 2 (valid) 0xe1-0xe2 (1)
     |                                               |                |                  [4]{}: in 0xe2-0xe5 (3)
0x0e0|      fd                                       |  .             |                    opcode: "vector" (0xfd) 0xe2-0xe3 (1)
0x0e0|         f0 01                                 |   ..           |                    v_opcode: "f64x2.add" (240) 0xe3-0xe5 (2)
     |                                               |                |                  [5]{}: in 0xe5-0xe6 (1)
0x0e0|               0b                              |     .          |                    opcode: "end" (0xb) 0xe5-0xe6 (1)
     |                                               |                |            [1]{}: code 0xe6-0xf5 (15)
0x0e0|                  0e                           |      .         |              size: 14 (valid) 0xe6-0xe7 (1)
     |                                               |                |              code{}: 0xe7-0xf5 (14)
     |                                               |                |                t{}: 0xe7-0xe8 (1)
0x0e0|                     00                        |       .        |                  n: 0 (valid) 0xe7-0xe8 (1)
     |                                               |                |                  x[0:0]: 0xe8-0xe8 (0)
     |                                               |                |                e[0:6]: 0xe8-0xf5 (13)
     |                                               |                |                  [0]{}: in 0xe8-0xea (2)
0x0e0|                        20                     |                |                    opcode: "local.get" (0x20) 0xe8-0xe9 (1)
0x0e0|                           00                  |         .      |                    x: 0 (valid) 0xe9-0xea (1)
     |                                               |                |                  [1]{}: in 0xea-0xec (2)
0x0e0|                              20               |                |                    opcode: "local.get" (0x20) 0xea-0xeb (1)
0x0e0|                                 01            |           .    |                    x: 1 (valid) 0xeb-0xec (1)
     |                                               |                |                  [2]{}: in 0xec-0xef (3)
0x0e0|                                    fd         |            .   |                    opcode: "vector" (0xfd) 0xec-0xed (1)
0x0e0|                                       f0 01   |             .. |                    v_opcode: "f64x2.add" (240) 0xed-0xef (2)
     |                                               |                |                  [3]{}: in 0xef-0xf1 (2)
0x0e0|                                             20|                |                    opcode: "local.get" (0x20) 0xef-0xf0 (1)
0x0f0|02                                             |.               |                    x: 2 (valid) 0xf0-0xf1 (1)
     |                                               |                |                  [4]{}: in 0xf1-0xf4 (3)
0x0f0|   fd                                          | .              |                    opcode: "vector" (0xfd) 0xf1-0xf2 (1)
0x0f0|      f3 01                                    |  ..            |                    v_opcode: "f64x2.div" (243) 0xf2-0xf4 (2)
     |                                               |                |                  [5]{}: in 0xf4-0xf5 (1)
0x0f0|            0b                                 |    .           |                    opcode: "end" (0xb) 0xf4-0xf5 (1)
     |                                               |                |            [2]{}: code 0xf5-0x104 (15)
0x0f0|               0e                              |     .          |              size: 14 (valid) 0xf5-0xf6 (1)
     |                                               |                |              code{}: 0xf6-0x104 (14)
     |                                               |                |                t{}: 0xf6-0xf7 (1)
0x0f0|                  00                           |      .         |                  n: 0 (valid) 0xf6-0xf7 (1)
     |                                               |                |                  x[0:0]: 0xf7-0xf7 (0)
     |                                               |                |                e[0:6]: 0xf7-0x104 (13)
     |                                               |                |                  [0]{}: in 0xf7-0xf9 (2)
0x0f0|                     20                        |                |                    opcode: "local.get" (0x20) 0xf7-0xf8 (1)
0x0f0|                        00                     |        .       |                    x: 0 (valid) 0xf8-0xf9 (1)
     |                                               |                |                  [1]{}: in 0xf9-0xfb (2)
0x0f0|                           20                  |                |                    opcode: "local.get" (0x20) 0xf9-0xfa (1)
0x0f0|                              01               |          .     |                    x: 1 (valid) 0xfa-0xfb (1)
     |                                               |                |                  [2]{}: in 0xfb-0xfe (3)
0x0f0|                                 fd            |           .    |                    opcode: "vector" (0xfd) 0xfb-0xfc (1)
0x0f0|                                    f2 01      |            ..  |                    v_opcode: "f64x2.mul" (242) 0xfc-0xfe (2)
     |                                               |                |                  [3]{}: in 0xfe-0x100 (2)
0x0f0|                                          20   |                |                    opcode: "local.get" (0x20) 0xfe-0xff (1)
0x0f0|                                             02|               .|                    x: 2 (valid) 0xff-0x100 (1)
     |                                               |                |                  [4]{}: in 0x100-0x103 (3)
0x100|fd                                             |.               |                    opcode: "vector" (0xfd) 0x100-0x101 (1)
0x100|   f3 01                                       | ..             |                    v_opcode: "f64x2.div" (243) 0x101-0x103 (2)
     |                                               |                |                  [5]{}: in 0x103-0x104 (1)
0x100|         0b                                    |   .            |                    opcode: "end" (0xb) 0x103-0x104 (1)
     |                                               |                |            [3]{}: code 0x104-0x113 (15)
0x100|            0e                                 |    .           |              size: 14 (valid) 0x104-0x105 (1)
     |                                               |                |              code{}: 0x105-0x113 (14)
     |                                               |                |                t{}: 0x105-0x106 (1)
0x100|               00                              |     .          |                  n: 0 (valid) 0x105-0x106 (1)
     |                                               |                |                  x[0:0]: 0x106-0x106 (0)
     |                                               |                |                e[0:6]: 0x106-0x113 (13)
     |                                               |                |                  [0]{}: in 0x106-0x108 (2)
0x100|                  20                           |                |                    opcode: "local.get" (0x20) 0x106-0x107 (1)
0x100|                     00                        |       .        |                    x: 0 (valid) 0x107-0x108 (1)
     |                                               |                |                  [1]{}: in 0x108-0x10a (2)
0x100|                        20                     |                |                    opcode: "local.get" (0x20) 0x108-0x109 (1)
0x100|                           01                  |         .      |                    x: 1 (valid) 0x109-0x10a (1)
     |                                               |                |                  [2]{}: in 0x10a-0x10d (3)
0x100|                              fd               |          .     |                    opcode: "vector" (0xfd) 0x10a-0x10b (1)
0x100|                                 f1 01         |           ..   |                    v_opcode: "f64x2.sub" (241) 0x10b-0x10d (2)
     |                                               |                |                  [3]{}: in 0x10d-0x10f (2)
0x100|                                       20      |                |                    opcode: "local.get" (0x20) 0x10d-0x10e (1)
0x100|                                          02   |              . |                    x: 2 (valid) 0x10e-0x10f (1)
     |                                               |                |                  [4]{}: in 0x10f-0x112 (3)
0x100|                                             fd|               .|                    opcode: "vector" (0xfd) 0x10f-0x110 (1)
0x110|f3 01                                          |..              |                    v_opcode: "f64x2.div" (243) 0x110-0x112 (2)
     |                                               |                |                  [5]{}: in 0x112-0x113 (1)
0x110|      0b                                       |  .             |                    opcode: "end" (0xb) 0x112-0x113 (1)
     |                                               |                |            [4]{}: code 0x113-0x122 (15)
0x110|         0e                                    |   .            |              size: 14 (valid) 0x113-0x114 (1)
     |                                               |                |              code{}: 0x114-0x122 (14)
     |                                               |                |                t{}: 0x114-0x115 (1)
0x110|            00                                 |    .           |                  n: 0 (valid) 0x114-0x115 (1)
     |                                               |                |                  x[0:0]: 0x115-0x115 (0)
     |                                               |                |                e[0:6]: 0x115-0x122 (13)
     |                                               |                |                  [0]{}: in 0x115-0x117 (2)
0x110|               20                              |                |                    opcode: "local.get" (0x20) 0x115-0x116 (1)
0x110|                  00                           |      .         |                    x: 0 (valid) 0x116-0x117 (1)
     |                                               |                |                  [1]{}: in 0x117-0x119 (2)
0x110|                     20                        |                |                    opcode: "local.get" (0x20) 0x117-0x118 (1)
0x110|                        01                     |        .       |                    x: 1 (valid) 0x118-0x119 (1)
     |                                               |                |                  [2]{}: in 0x119-0x11c (3)
0x110|                           fd                  |         .      |                    opcode: "vector" (0xfd) 0x119-0x11a (1)
0x110|                              f0 01            |          ..    |                    v_opcode: "f64x2.add" (240) 0x11a-0x11c (2)
     |                                               |                |                  [3]{}: in 0x11c-0x11e (2)
0x110|                                    20         |                |                    opcode: "local.get" (0x20) 0x11c-0x11d (1)
0x110|                                       02      |             .  |                    x: 2 (valid) 0x11d-0x11e (1)
     |                                               |                |                  [4]{}: in 0x11e-0x121 (3)
0x110|                                          fd   |              . |                    opcode: "vector" (0xfd) 0x11e-0x11f (1)
0x110|                                             f2|               .|                    v_opcode: "f64x2.mul" (242) 0x11f-0x121 (2)
0x120|01                                             |.               |
     |                                               |                |                  [5]{}: in 0x121-0x122 (1)
0x120|   0b                                          | .              |                    opcode: "end" (0xb) 0x121-0x122 (1)
     |                                               |                |            [5]{}: code 0x122-0x131 (15)
0x120|      0e                                       |  .             |              size: 14 (valid) 0x122-0x123 (1)
     |                                               |                |              code{}: 0x123-0x131 (14)
     |                                               |                |                t{}: 0x123-0x124 (1)
0x120|         00                                    |   .            |                  n: 0 (valid) 0x123-0x124 (1)
     |                                               |                |                  x[0:0]: 0x124-0x124 (0)
     |                                               |                |                e[0:6]: 0x124-0x131 (13)
     |                                               |                |                  [0]{}: in 0x124-0x126 (2)
0x120|            20                                 |                |                    opcode: "local.get" (0x20) 0x124-0x125 (1)
0x120|               00                              |     .          |                    x: 0 (valid) 0x125-0x126 (1)
     |                                               |                |                  [1]{}: in 0x126-0x128 (2)
0x120|                  20                           |                |                    opcode: "local.get" (0x20) 0x126-0x127 (1)
0x120|                     01                        |       .        |                    x: 1 (valid) 0x127-0x128 (1)
     |                                               |                |                  [2]{}: in 0x128-0x12b (3)
0x120|                        fd                     |        .       |                    opcode: "vector" (0xfd) 0x128-0x129 (1)
0x120|                           f3 01               |         ..     |                    v_opcode: "f64x2.div" (243) 0x129-0x12b (2)
     |                                               |                |                  [3]{}: in 0x12b-0x12d (2)
0x120|                                 20            |                |                    opcode: "local.get" (0x20) 0x12b-0x12c (1)
0x120|                                    02         |            .   |                    x: 2 (valid) 0x12c-0x12d (1)
     |                                               |                |                  [4]{}: in 0x12d-0x130 (3)
0x120|                                       fd      |             .  |                    opcode: "vector" (0xfd) 0x12d-0x12e (1)
0x120|                                          f2 01|              ..|                    v_opcode: "f64x2.mul" (242) 0x12e-0x130 (2)
     |                                               |                |                  [5]{}: in 0x130-0x131 (1)
0x130|0b                                             |.               |                    opcode: "end" (0xb) 0x130-0x131 (1)
     |                                               |                |            [6]{}: code 0x131-0x140 (15)
0x130|   0e                                          | .              |              size: 14 (valid) 0x131-0x132 (1)
     |                                               |                |              code{}: 0x132-0x140 (14)
     |                                               |                |                t{}: 0x132-0x133 (1)
0x130|      00                                       |  .             |                  n: 0 (valid) 0x132-0x133 (1)
     |                                               |                |                  x[0:0]: 0x133-0x133 (0)
     |                                               |                |                e[0:6]: 0x133-0x140 (13)
     |                                               |                |                  [0]{}: in 0x133-0x135 (2)
0x130|         20                                    |                |                    opcode: "local.get" (0x20) 0x133-0x134 (1)
0x130|            00                                 |    .           |                    x: 0 (valid) 0x134-0x135 (1)
     |                                               |                |                  [1]{}: in 0x135-0x137 (2)
0x130|               20                              |                |                    opcode: "local.get" (0x20) 0x135-0x136 (1)
0x130|                  01                           |      .         |                    x: 1 (valid) 0x136-0x137 (1)
     |                                               |                |                  [2]{}: in 0x137-0x13a (3)
0x130|                     fd                        |       .        |                    opcode: "vector" (0xfd) 0x137-0x138 (1)
0x130|                        f1 01                  |        ..      |                    v_opcode: "f64x2.sub" (241) 0x138-0x13a (2)
     |                                               |                |                  [3]{}: in 0x13a-0x13c (2)
0x130|                              20               |                |                    opcode: "local.get" (0x20) 0x13a-0x13b (1)
0x130|                                 02            |           .    |                    x: 2 (valid) 0x13b-0x13c (1)
     |                                               |                |                  [4]{}: in 0x13c-0x13f (3)
0x130|                                    fd         |            .   |                    opcode: "vector" (0xfd) 0x13c-0x13d (1)
0x130|                                       f2 01   |             .. |                    v_opcode: "f64x2.mul" (242) 0x13d-0x13f (2)
     |                                               |                |                  [5]{}: in 0x13f-0x140 (1)
0x130|                                             0b|               .|                    opcode: "end" (0xb) 0x13f-0x140 (1)
     |                                               |                |            [7]{}: code 0x140-0x14f (15)
0x140|0e                                             |.               |              size: 14 (valid) 0x140-0x141 (1)
     |                                               |                |              code{}: 0x141-0x14f (14)
     |                                               |                |                t{}: 0x141-0x142 (1)
0x140|   00                                          | .              |                  n: 0 (valid) 0x141-0x142 (1)
     |                                               |                |                  x[0:0]: 0x142-0x142 (0)
     |                                               |                |                e[0:6]: 0x142-0x14f (13)
     |                                               |                |                  [0]{}: in 0x142-0x144 (2)
0x140|      20                                       |                |                    opcode: "local.get" (0x20) 0x142-0x143 (1)
0x140|         00                                    |   .            |                    x: 0 (valid) 0x143-0x144 (1)
     |                                               |                |                  [1]{}: in 0x144-0x146 (2)
0x140|            20                                 |                |                    opcode: "local.get" (0x20) 0x144-0x145 (1)
0x140|               01                              |     .          |                    x: 1 (valid) 0x145-0x146 (1)
     |                                               |                |                  [2]{}: in 0x146-0x149 (3)
0x140|                  fd                           |      .         |                    opcode: "vector" (0xfd) 0x146-0x147 (1)
0x140|                     f0 01                     |       ..       |                    v_opcode: "f64x2.add" (240) 0x147-0x149 (2)
     |                                               |                |                  [3]{}: in 0x149-0x14b (2)
0x140|                           20                  |                |                    opcode: "local.get" (0x20) 0x149-0x14a (1)
0x140|                              02               |          .     |                    x: 2 (valid) 0x14a-0x14b (1)
     |                                               |                |                  [4]{}: in 0x14b-0x14e (3)
0x140|                                 fd            |           .    |                    opcode: "vector" (0xfd) 0x14b-0x14c (1)
0x140|                                    f1 01      |            ..  |                    v_opcode: "f64x2.sub" (241) 0x14c-0x14e (2)
     |                                               |                |                  [5]{}: in 0x14e-0x14f (1)
0x140|                                          0b   |              . |                    opcode: "end" (0xb) 0x14e-0x14f (1)
     |                                               |                |            [8]{}: code 0x14f-0x15c (13)
0x140|                                             0c|               .|              size: 12 (valid) 0x14f-0x150 (1)
     |                                               |                |              code{}: 0x150-0x15c (12)
     |                                               |                |                t{}: 0x150-0x151 (1)
0x150|00                                             |.               |                  n: 0 (valid) 0x150-0x151 (1)
     |                                               |                |                  x[0:0]: 0x151-0x151 (0)
     |                                               |                |                e[0:5]: 0x151-0x15c (11)
     |                                               |                |                  [0]{}: in 0x151-0x153 (2)
0x150|   20                                          |                |                    opcode: "local.get" (0x20) 0x151-0x152 (1)
0x150|      00                                       |  .             |                    x: 0 (valid) 0x152-0x153 (1)
     |                                               |                |                  [1]{}: in 0x153-0x156 (3)
0x150|         fd                                    |   .            |                    opcode: "vector" (0xfd) 0x153-0x154 (1)
0x150|            ed 01                              |    ..          |                    v_opcode: "f64x2.neg" (237) 0x154-0x156 (2)
     |                                               |                |                  [2]{}: in 0x156-0x158 (2)
0x150|                  20                           |                |                    opcode: "local.get" (0x20) 0x156-0x157 (1)
0x150|                     01                        |       .        |                    x: 1 (valid) 0x157-0x158 (1)
     |                                               |                |                  [3]{}: in 0x158-0x15b (3)
0x150|                        fd                     |        .       |                    opcode: "vector" (0xfd) 0x158-0x159 (1)
0x150|                           f0 01               |         ..     |                    v_opcode: "f64x2.add" (240) 0x159-0x15b (2)
     |                                               |                |                  [4]{}: in 0x15b-0x15c (1)
0x150|                                 0b            |           .    |                    opcode: "end" (0xb) 0x15b-0x15c (1)
     |                                               |                |            [9]{}: code 0x15c-0x169 (13)
0x150|                                    0c         |            .   |              size: 12 (valid) 0x15c-0x15d (1)
     |                                               |                |              code{}: 0x15d-0x169 (12)
     |                                               |                |                t{}: 0x15d-0x15e (1)
0x150|                                       00      |             .  |                  n: 0 (valid) 0x15d-0x15e (1)
     |                                               |                |                  x[0:0]: 0x15e-0x15e (0)
     |                                               |                |                e[0:5]: 0x15e-0x169 (11)
     |                                               |                |                  [0]{}: in 0x15e-0x160 (2)
0x150|                                          20   |                |                    opcode: "local.get" (0x20) 0x15e-0x15f (1)
0x150|                                             00|               .|                    x: 0 (valid) 0x15f-0x160 (1)
     |                                               |                |                  [1]{}: in 0x160-0x163 (3)
0x160|fd                                             |.               |                    opcode: "vector" (0xfd) 0x160-0x161 (1)
0x160|   ef 01                                       | ..             |                    v_opcode: "f64x2.sqrt" (239) 0x161-0x163 (2)
     |                                               |                |                  [2]{}: in 0x163-0x165 (2)
0x160|         20                                    |                |                    opcode: "local.get" (0x20) 0x163-0x164 (1)
0x160|            01                                 |    .           |                    x: 1 (valid) 0x164-0x165 (1)
     |                                               |                |                  [3]{}: in 0x165-0x168 (3)
0x160|               fd                              |     .          |                    opcode: "vector" (0xfd) 0x165-0x166 (1)
0x160|                  f0 01                        |      ..        |                    v_opcode: "f64x2.add" (240) 0x166-0x168 (2)
     |                                               |                |                  [4]{}: in 0x168-0x169 (1)
0x160|                        0b                     |        .       |                    opcode: "end" (0xb) 0x168-0x169 (1)
     |                                               |                |            [10]{}: code 0x169-0x176 (13)
0x160|                           0c                  |         .      |              size: 12 (valid) 0x169-0x16a (1)
     |                                               |                |              code{}: 0x16a-0x176 (12)
     |                                               |                |                t{}: 0x16a-0x16b (1)
0x160|                              00               |          .     |                  n: 0 (valid) 0x16a-0x16b (1)
     |                                               |                |                  x[0:0]: 0x16b-0x16b (0)
     |                                               |                |                e[0:5]: 0x16b-0x176 (11)
     |                                               |                |                  [0]{}: in 0x16b-0x16d (2)
0x160|                                 20            |                |                    opcode: "local.get" (0x20) 0x16b-0x16c (1)
0x160|                                    00         |            .   |                    x: 0 (valid) 0x16c-0x16d (1)
     |                                               |                |                  [1]{}: in 0x16d-0x170 (3)
0x160|                                       fd      |             .  |                    opcode: "vector" (0xfd) 0x16d-0x16e (1)
0x160|                                          ed 01|              ..|                    v_opcode: "f64x2.neg" (237) 0x16e-0x170 (2)
     |                                               |                |                  [2]{}: in 0x170-0x172 (2)
0x170|20                                             |                |                    opcode: "local.get" (0x20) 0x170-0x171 (1)
0x170|   01                                          | .              |                    x: 1 (valid) 0x171-0x172 (1)
     |                                               |                |                  [3]{}: in 0x172-0x175 (3)
0x170|      fd                                       |  .             |                    opcode: "vector" (0xfd) 0x172-0x173 (1)
0x170|         f3 01                                 |   ..           |                    v_opcode: "f64x2.div" (243) 0x173-0x175 (2)
     |                                               |                |                  [4]{}: in 0x175-0x176 (1)
0x170|               0b                              |     .          |                    opcode: "end" (0xb) 0x175-0x176 (1)
     |                                               |                |            [11]{}: code 0x176-0x183 (13)
0x170|                  0c                           |      .         |              size: 12 (valid) 0x176-0x177 (1)
     |                                               |                |              code{}: 0x177-0x183 (12)
     |                                               |                |                t{}: 0x177-0x178 (1)
0x170|                     00                        |       .        |                  n: 0 (valid) 0x177-0x178 (1)
     |                                               |                |                  x[0:0]: 0x178-0x178 (0)
     |                                               |                |                e[0:5]: 0x178-0x183 (11)
     |                                               |                |                  [0]{}: in 0x178-0x17a (2)
0x170|                        20                     |                |                    opcode: "local.get" (0x20) 0x178-0x179 (1)
0x170|                           00                  |         .      |                    x: 0 (valid) 0x179-0x17a (1)
     |                                               |                |                  [1]{}: in 0x17a-0x17d (3)
0x170|                              fd               |          .     |                    opcode: "vector" (0xfd) 0x17a-0x17b (1)
0x170|                                 ef 01         |           ..   |                    v_opcode: "f64x2.sqrt" (239) 0x17b-0x17d (2)
     |                                               |                |                  [2]{}: in 0x17d-0x17f (2)
0x170|                                       20      |                |                    opcode: "local.get" (0x20) 0x17d-0x17e (1)
0x170|                                          01   |              . |                    x: 1 (valid) 0x17e-0x17f (1)
     |                                               |                |                  [3]{}: in 0x17f-0x182 (3)
0x170|                                             fd|               .|                    opcode: "vector" (0xfd) 0x17f-0x180 (1)
0x180|f3 01                                          |..              |                    v_opcode: "f64x2.div" (243) 0x180-0x182 (2)
     |                                               |                |                  [4]{}: in 0x182-0x183 (1)
0x180|      0b                                       |  .             |                    opcode: "end" (0xb) 0x182-0x183 (1)
     |                                               |                |            [12]{}: code 0x183-0x190 (13)
0x180|         0c                                    |   .            |              size: 12 (valid) 0x183-0x184 (1)
     |                                               |                |              code{}: 0x184-0x190 (12)
     |                                               |                |                t{}: 0x184-0x185 (1)
0x180|            00                                 |    .           |                  n: 0 (valid) 0x184-0x185 (1)
     |                                               |                |                  x[0:0]: 0x185-0x185 (0)
     |                                               |                |                e[0:5]: 0x185-0x190 (11)
     |                                               |                |                  [0]{}: in 0x185-0x187 (2)
0x180|               20                              |                |                    opcode: "local.get" (0x20) 0x185-0x186 (1)
0x180|                  00                           |      .         |                    x: 0 (valid) 0x186-0x187 (1)
     |                                               |                |                  [1]{}: in 0x187-0x18a (3)
0x180|                     fd                        |       .        |                    opcode: "vector" (0xfd) 0x187-0x188 (1)
0x180|                        ed 01                  |        ..      |                    v_opcode: "f64x2.neg" (237) 0x188-0x18a (2)
     |                                               |                |                  [2]{}: in 0x18a-0x18c (2)
0x180|                              20               |                |                    opcode: "local.get" (0x20) 0x18a-0x18b (1)
0x180|                                 01            |           .    |                    x: 1 (valid) 0x18b-0x18c (1)
     |                                               |                |                  [3]{}: in 0x18c-0x18f (3)
0x180|                                    fd         |            .   |                    opcode: "vector" (0xfd) 0x18c-0x18d (1)
0x180|                                       f2 01   |             .. |                    v_opcode: "f64x2.mul" (242) 0x18d-0x18f (2)
     |                                               |                |                  [4]{}: in 0x18f-0x190 (1)
0x180|                                             0b|               .|                    opcode: "end" (0xb) 0x18f-0x190 (1)
     |                                               |                |            [13]{}: code 0x190-0x19d (13)
0x190|0c                                             |.               |              size: 12 (valid) 0x190-0x191 (1)
     |                                               |                |              code{}: 0x191-0x19d (12)
     |                                               |                |                t{}: 0x191-0x192 (1)
0x190|   00                                          | .              |                  n: 0 (valid) 0x191-0x192 (1)
     |                                               |                |                  x[0:0]: 0x192-0x192 (0)
     |                                               |                |                e[0:5]: 0x192-0x19d (11)
     |                                               |                |                  [0]{}: in 0x192-0x194 (2)
0x190|      20                                       |                |                    opcode: "local.get" (0x20) 0x192-0x193 (1)
0x190|         00                                    |   .            |                    x: 0 (valid) 0x193-0x194 (1)
     |                                               |                |                  [1]{}: in 0x194-0x197 (3)
0x190|            fd                                 |    .           |                    opcode: "vector" (0xfd) 0x194-0x195 (1)
0x190|               ef 01                           |     ..         |                    v_opcode: "f64x2.sqrt" (239) 0x195-0x197 (2)
     |                                               |                |                  [2]{}: in 0x197-0x199 (2)
0x190|                     20                        |                |                    opcode: "local.get" (0x20) 0x197-0x198 (1)
0x190|                        01                     |        .       |                    x: 1 (valid) 0x198-0x199 (1)
     |                                               |                |                  [3]{}: in 0x199-0x19c (3)
0x190|                           fd                  |         .      |                    opcode: "vector" (0xfd) 0x199-0x19a (1)
0x190|                              f2 01            |          ..    |                    v_opcode: "f64x2.mul" (242) 0x19a-0x19c (2)
     |                                               |                |                  [4]{}: in 0x19c-0x19d (1)
0x190|                                    0b         |            .   |                    opcode: "end" (0xb) 0x19c-0x19d (1)
     |                                               |                |            [14]{}: code 0x19d-0x1aa (13)
0x190|                                       0c      |             .  |              size: 12 (valid) 0x19d-0x19e (1)
     |                                               |                |              code{}: 0x19e-0x1aa (12)
     |                                               |                |                t{}: 0x19e-0x19f (1)
0x190|                                          00   |              . |                  n: 0 (valid) 0x19e-0x19f (1)
     |                                               |                |                  x[0:0]: 0x19f-0x19f (0)
     |                                               |                |                e[0:5]: 0x19f-0x1aa (11)
     |                                               |                |                  [0]{}: in 0x19f-0x1a1 (2)
0x190|                                             20|                |                    opcode: "local.get" (0x20) 0x19f-0x1a0 (1)
0x1a0|00                                             |.               |                    x: 0 (valid) 0x1a0-0x1a1 (1)
     |                                               |                |                  [1]{}: in 0x1a1-0x1a4 (3)
0x1a0|   fd                                          | .              |                    opcode: "vector" (0xfd) 0x1a1-0x1a2 (1)
0x1a0|      ed 01                                    |  ..            |                    v_opcode: "f64x2.neg" (237) 0x1a2-0x1a4 (2)
     |                                               |                |                  [2]{}: in 0x1a4-0x1a6 (2)
0x1a0|            20                                 |                |                    opcode: "local.get" (0x20) 0x1a4-0x1a5 (1)
0x1a0|               01                              |     .          |                    x: 1 (valid) 0x1a5-0x1a6 (1)
     |                                               |                |                  [3]{}: in 0x1a6-0x1a9 (3)
0x1a0|                  fd                           |      .         |                    opcode: "vector" (0xfd) 0x1a6-0x1a7 (1)
0x1a0|                     f1 01                     |       ..       |                    v_opcode: "f64x2.sub" (241) 0x1a7-0x1a9 (2)
     |                                               |                |                  [4]{}: in 0x1a9-0x1aa (1)
0x1a0|                           0b                  |         .      |                    opcode: "end" (0xb) 0x1a9-0x1aa (1)
     |                                               |                |            [15]{}: code 0x1aa-0x1b7 (13)
0x1a0|                              0c               |          .     |              size: 12 (valid) 0x1aa-0x1ab (1)
     |                                               |                |              code{}: 0x1ab-0x1b7 (12)
     |                                               |                |                t{}: 0x1ab-0x1ac (1)
0x1a0|                                 00            |           .    |                  n: 0 (valid) 0x1ab-0x1ac (1)
     |                                               |                |                  x[0:0]: 0x1ac-0x1ac (0)
     |                                               |                |                e[0:5]: 0x1ac-0x1b7 (11)
     |                                               |                |                  [0]{}: in 0x1ac-0x1ae (2)
0x1a0|                                    20         |                |                    opcode: "local.get" (0x20) 0x1ac-0x1ad (1)
0x1a0|                                       00      |             .  |                    x: 0 (valid) 0x1ad-0x1ae (1)
     |                                               |                |                  [1]{}: in 0x1ae-0x1b1 (3)
0x1a0|                                          fd   |              . |                    opcode: "vector" (0xfd) 0x1ae-0x1af (1)
0x1a0|                                             ef|               .|                    v_opcode: "f64x2.sqrt" (239) 0x1af-0x1b1 (2)
0x1b0|01                                             |.               |
     |                                               |                |                  [2]{}: in 0x1b1-0x1b3 (2)
0x1b0|   20                                          |                |                    opcode: "local.get" (0x20) 0x1b1-0x1b2 (1)
0x1b0|      01                                       |  .             |                    x: 1 (valid) 0x1b2-0x1b3 (1)
     |                                               |                |                  [3]{}: in 0x1b3-0x1b6 (3)
0x1b0|         fd                                    |   .            |                    opcode: "vector" (0xfd) 0x1b3-0x1b4 (1)
0x1b0|            f1 01                              |    ..          |                    v_opcode: "f64x2.sub" (241) 0x1b4-0x1b6 (2)
     |                                               |                |                  [4]{}: in 0x1b6-0x1b7 (1)
0x1b0|                  0b|                          |      .|        |                    opcode: "end" (0xb) 0x1b6-0x1b7 (1)
