$ fq -d wasm dv simd_address-2.wasm
    |00 01 02 03 04 05 06 07 08 09 0a 0b 0c 0d 0e 0f|0123456789abcdef|.{}: simd_address-2.wasm (wasm) 0x0-0x54 (84)
0x00|00 61 73 6d                                    |.asm            |  magic: raw bits (valid) 0x0-0x4 (4)
0x00|            01 00 00 00                        |    ....        |  version: 1 0x4-0x8 (4)
    |                                               |                |  sections[0:5]: 0x8-0x54 (76)
    |                                               |                |    [0]{}: section 0x8-0xe (6)
0x00|                        01                     |        .       |      id: "type_section" (1) 0x8-0x9 (1)
0x00|                           04                  |         .      |      size: 4 (valid) 0x9-0xa (1)
    |                                               |                |      content{}: 0xa-0xe (4)
    |                                               |                |        ft{}: 0xa-0xe (4)
0x00|                              01               |          .     |          n: 1 (valid) 0xa-0xb (1)
    |                                               |                |          x[0:1]: 0xb-0xe (3)
    |                                               |                |            [0]{}: ft 0xb-0xe (3)
0x00|                                 60            |           `    |              tag: 0x60 (valid) 0xb-0xc (1)
    |                                               |                |              rt1{}: 0xc-0xd (1)
0x00|                                    00         |            .   |                n: 0 (valid) 0xc-0xd (1)
    |                                               |                |                x[0:0]: 0xd-0xd (0)
    |                                               |                |              rt2{}: 0xd-0xe (1)
0x00|                                       00      |             .  |                n: 0 (valid) 0xd-0xe (1)
    |                                               |                |                x[0:0]: 0xe-0xe (0)
    |                                               |                |    [1]{}: section 0xe-0x12 (4)
0x00|                                          03   |              . |      id: "function_section" (3) 0xe-0xf (1)
0x00|                                             02|               .|      size: 2 (valid) 0xf-0x10 (1)
    |                                               |                |      content{}: 0x10-0x12 (2)
    |                                               |                |        x{}: 0x10-0x12 (2)
0x10|01                                             |.               |          n: 1 (valid) 0x10-0x11 (1)
    |                                               |                |          x[0:1]: 0x11-0x12 (1)
0x10|   00                                          | .              |            [0]: 0 x (valid) 0x11-0x12 (1)
    |                                               |                |    [2]{}: section 0x12-0x17 (5)
0x10|      05                                       |  .             |      id: "memory_section" (5) 0x12-0x13 (1)
0x10|         03                                    |   .            |      size: 3 (valid) 0x13-0x14 (1)
    |                                               |                |      content{}: 0x14-0x17 (3)
    |                                               |                |        mem{}: 0x14-0x17 (3)
0x10|            01                                 |    .           |          n: 1 (valid) 0x14-0x15 (1)
    |                                               |                |          x[0:1]: 0x15-0x17 (2)
    |                                               |                |            [0]{}: mem 0x15-0x17 (2)
    |                                               |                |              lim{}: 0x15-0x17 (2)
0x10|               00                              |     .          |                tag: 0x0 0x15-0x16 (1)
0x10|                  01                           |      .         |                n: 1 (valid) 0x16-0x17 (1)
    |                                               |                |    [3]{}: section 0x17-0x34 (29)
0x10|                     07                        |       .        |      id: "export_section" (7) 0x17-0x18 (1)
0x10|                        1b                     |        .       |      size: 27 (valid) 0x18-0x19 (1)
    |                                               |                |      content{}: 0x19-0x34 (27)
    |                                               |                |        ex{}: 0x19-0x34 (27)
0x10|                           01                  |         .      |          n: 1 (valid) 0x19-0x1a (1)
    |                                               |                |          x[0:1]: 0x1a-0x34 (26)
    |                                               |                |            [0]{}: ex 0x1a-0x34 (26)
    |                                               |                |              nm{}: 0x1a-0x32 (24)
0x10|                              17               |          .     |                n: 23 (valid) 0x1a-0x1b (1)
0x10|                                 76 31 32 38 2e|           v128.|                b: "v128.store_offset_65521" 0x1b-0x32 (23)
0x20|73 74 6f 72 65 5f 6f 66 66 73 65 74 5f 36 35 35|store_offset_655|
0x30|32 31                                          |21              |
    |                                               |                |              d{}: 0x32-0x34 (2)
0x30|      00                                       |  .             |                tag: "funcidx" (0x0) 0x32-0x33 (1)
0x30|         00                                    |   .            |                x: 0 (valid) 0x33-0x34 (1)
    |                                               |                |    [4]{}: section 0x34-0x54 (32)
0x30|            0a                                 |    .           |      id: "code_section" (10) 0x34-0x35 (1)
0x30|               1e                              |     .          |      size: 30 (valid) 0x35-0x36 (1)
    |                                               |                |      content{}: 0x36-0x54 (30)
    |                                               |                |        code{}: 0x36-0x54 (30)
0x30|                  01                           |      .         |          n: 1 (valid) 0x36-0x37 (1)
    |                                               |                |          x[0:1]: 0x37-0x54 (29)
    |                                               |                |            [0]{}: code 0x37-0x54 (29)
0x30|                     1c                        |       .        |              size: 28 (valid) 0x37-0x38 (1)
    |                                               |                |              code{}: 0x38-0x54 (28)
    |                                               |                |                t{}: 0x38-0x39 (1)
0x30|                        00                     |        .       |                  n: 0 (valid) 0x38-0x39 (1)
    |                                               |                |                  x[0:0]: 0x39-0x39 (0)
    |                                               |                |                e[0:4]: 0x39-0x54 (27)
    |                                               |                |                  [0]{}: in 0x39-0x3b (2)
0x30|                           41                  |         A      |                    opcode: "i32.const" (0x41) 0x39-0x3a (1)
0x30|                              00               |          .     |                    n: 0 (valid) 0x3a-0x3b (1)
    |                                               |                |                  [1]{}: in 0x3b-0x4d (18)
0x30|                                 fd            |           .    |                    opcode: "vector" (0xfd) 0x3b-0x3c (1)
0x30|                                    0c         |            .   |                    v_opcode: "v128.const" (12) 0x3c-0x3d (1)
0x30|                                       00 00 00|             ...|                    bytes: raw bits 0x3d-0x4d (16)
0x40|00 00 00 00 00 00 00 00 00 00 00 00 00         |.............   |
    |                                               |                |                  [2]{}: in 0x4d-0x53 (6)
0x40|                                       fd      |             .  |                    opcode: "vector" (0xfd) 0x4d-0x4e (1)
0x40|                                          0b   |              . |                    v_opcode: "v128.store" (11) 0x4e-0x4f (1)
    |                                               |                |                    m{}: 0x4f-0x53 (4)
0x40|                                             04|               .|                      a: 4 (valid) 0x4f-0x50 (1)
0x50|f1 ff 03                                       |...             |                      o: 65521 (valid) 0x50-0x53 (3)
    |                                               |                |                  [3]{}: in 0x53-0x54 (1)
0x50|         0b|                                   |   .|           |                    opcode: "end" (0xb) 0x53-0x54 (1)
