$ fq -d wasm dv simd_store-0.wasm
     |00 01 02 03 04 05 06 07 08 09 0a 0b 0c 0d 0e 0f|0123456789abcdef|.{}: simd_store-0.wasm (wasm) 0x0-0x1cf (463)
0x000|00 61 73 6d                                    |.asm            |  magic: raw bits (valid) 0x0-0x4 (4)
0x000|            01 00 00 00                        |    ....        |  version: 1 0x4-0x8 (4)
     |                                               |                |  sections[0:5]: 0x8-0x1cf (455)
     |                                               |                |    [0]{}: section 0x8-0xf (7)
0x000|                        01                     |        .       |      id: "type_section" (1) 0x8-0x9 (1)
0x000|                           05                  |         .      |      size: 5 (valid) 0x9-0xa (1)
     |                                               |                |      content{}: 0xa-0xf (5)
     |                                               |                |        ft{}: 0xa-0xf (5)
0x000|                              01               |          .     |          n: 1 (valid) 0xa-0xb (1)
     |                                               |                |          x[0:1]: 0xb-0xf (4)
     |                                               |                |            [0]{}: ft 0xb-0xf (4)
0x000|                                 60            |           `    |              tag: 0x60 (valid) 0xb-0xc (1)
     |                                               |                |              rt1{}: 0xc-0xd (1)
0x000|                                    00         |            .   |                n: 0 (valid) 0xc-0xd (1)
     |                                               |                |                x[0:0]: 0xd-0xd (0)
     |                                               |                |              rt2{}: 0xd-0xf (2)
0x000|                                       01      |             .  |                n: 1 (valid) 0xd-0xe (1)
     |                                               |                |                x[0:1]: 0xe-0xf (1)
0x000|                                          7b   |              { |                  [0]: "v128" (0x7b) t 0xe-0xf (1)
     |                                               |                |    [1]{}: section 0xf-0x1a (11)
0x000|                                             03|               .|      id: "function_section" (3) 0xf-0x10 (1)
0x010|09                                             |.               |      size: 9 (valid) 0x10-0x11 (1)
     |                                               |                |      content{}: 0x11-0x1a (9)
     |                                               |                |        x{}: 0x11-0x1a (9)
0x010|   08                                          | .              |          n: 8 (valid) 0x11-0x12 (1)
     |                                               |                |          x[0:8]: 0x12-0x1a (8)
0x010|      00                                       |  .             |            [0]: 0 x (valid) 0x12-0x13 (1)
0x010|         00                                    |   .            |            [1]: 0 x (valid) 0x13-0x14 (1)
0x010|            00                                 |    .           |            [2]: 0 x (valid) 0x14-0x15 (1)
0x010|               00                              |     .          |            [3]: 0 x (valid) 0x15-0x16 (1)
0x010|                  00                           |      .         |            [4]: 0 x (valid) 0x16-0x17 (1)
0x010|                     00                        |       .        |            [5]: 0 x (valid) 0x17-0x18 (1)
0x010|                        00                     |        .       |            [6]: 0 x (valid) 0x18-0x19 (1)
0x010|                           00                  |         .      |            [7]: 0 x (valid) 0x19-0x1a (1)
     |                                               |                |    [2]{}: section 0x1a-0x1f (5)
0x010|                              05               |          .     |      id: "memory_section" (5) 0x1a-0x1b (1)
0x010|                                 03            |           .    |      size: 3 (valid) 0x1b-0x1c (1)
     |                                               |                |      content{}: 0x1c-0x1f (3)
     |                                               |                |        mem{}: 0x1c-0x1f (3)
0x010|                                    01         |            .   |          n: 1 (valid) 0x1c-0x1d (1)
     |                                               |                |          x[0:1]: 0x1d-0x1f (2)
     |                                               |                |            [0]{}: mem 0x1d-0x1f (2)
     |                                               |                |              lim{}: 0x1d-0x1f (2)
0x010|                                       00      |             .  |                tag: 0x0 0x1d-0x1e (1)
0x010|                                          01   |              . |                n: 1 (valid) 0x1e-0x1f (1)
     |                                               |                |    [3]{}: section 0x1f-0xc3 (164)
0x010|                                             07|               .|      id: "export_section" (7) 0x1f-0x20 (1)
0x020|a1 01                                          |..              |      size: 161 (valid) 0x20-0x22 (2)
     |                                               |                |      content{}: 0x22-0xc3 (161)
     |                                               |                |        ex{}: 0x22-0xc3 (161)
0x020|      08                                       |  .             |          n: 8 (valid) 0x22-0x23 (1)
     |                                               |                |          x[0:8]: 0x23-0xc3 (160)
     |                                               |                |            [0]{}: ex 0x23-0x36 (19)
     |                                               |                |              nm{}: 0x23-0x34 (17)
0x020|         10                                    |   .            |                n: 16 (valid) 0x23-0x24 (1)
0x020|            76 31 32 38 2e 73 74 6f 72 65 5f 69|    v128.store_i|                b: "v128.store_i8x16" 0x24-0x34 (16)
0x030|38 78 31 36                                    |8x16            |
     |                                               |                |              d{}: 0x34-0x36 (2)
0x030|            00                                 |    .           |                tag: "funcidx" (0x0) 0x34-0x35 (1)
0x030|               00                              |     .          |                x: 0 (valid) 0x35-0x36 (1)
     |                                               |                |            [1]{}: ex 0x36-0x49 (19)
     |                                               |                |              nm{}: 0x36-0x47 (17)
0x030|                  10                           |      .         |                n: 16 (valid) 0x36-0x37 (1)
0x030|                     76 31 32 38 2e 73 74 6f 72|       v128.stor|                b: "v128.store_i16x8" 0x37-0x47 (16)
0x040|65 5f 69 31 36 78 38                           |e_i16x8         |
     |                                               |                |              d{}: 0x47-0x49 (2)
0x040|                     00                        |       .        |                tag: "funcidx" (0x0) 0x47-0x48 (1)
0x040|                        01                     |        .       |                x: 1 (valid) 0x48-0x49 (1)
     |                                               |                |            [2]{}: ex 0x49-0x5e (21)
     |                                               |                |              nm{}: 0x49-0x5c (19)
0x040|                           12                  |         .      |                n: 18 (valid) 0x49-0x4a (1)
0x040|                              76 31 32 38 2e 73|          v128.s|                b: "v128.store_i16x8_2" 0x4a-0x5c (18)
0x050|74 6f 72 65 5f 69 31 36 78 38 5f 32            |tore_i16x8_2    |
     |                                               |                |              d{}: 0x5c-0x5e (2)
0x050|                                    00         |            .   |                tag: "funcidx" (0x0) 0x5c-0x5d (1)
0x050|                                       02      |             .  |                x: 2 (valid) 0x5d-0x5e (1)
     |                                               |                |            [3]{}: ex 0x5e-0x73 (21)
     |                                               |                |              nm{}: 0x5e-0x71 (19)
0x050|                                          12   |              . |                n: 18 (valid) 0x5e-0x5f (1)
0x050|                                             76|               v|                b: "v128.store_i16x8_3" 0x5f-0x71 (18)
0x060|31 32 38 2e 73 74 6f 72 65 5f 69 31 36 78 38 5f|128.store_i16x8_|
0x070|33                                             |3               |
     |                                               |                |              d{}: 0x71-0x73 (2)
0x070|   00                                          | .              |                tag: "funcidx" (0x0) 0x71-0x72 (1)
0x070|      03                                       |  .             |                x: 3 (valid) 0x72-0x73 (1)
     |                                               |                |            [4]{}: ex 0x73-0x86 (19)
     |                                               |                |              nm{}: 0x73-0x84 (17)
0x070|         10                                    |   .            |                n: 16 (valid) 0x73-0x74 (1)
0x070|            76 31 32 38 2e 73 74 6f 72 65 5f 69|    v128.store_i|                b: "v128.store_i32x4" 0x74-0x84 (16)
0x080|33 32 78 34                                    |32x4            |
     |                                               |                |              d{}: 0x84-0x86 (2)
0x080|            00                                 |    .           |                tag: "funcidx" (0x0) 0x84-0x85 (1)
0x080|               04                              |     .          |                x: 4 (valid) 0x85-0x86 (1)
     |                                               |                |            [5]{}: ex 0x86-0x9b (21)
     |                                               |                |              nm{}: 0x86-0x99 (19)
0x080|                  12                           |      .         |                n: 18 (valid) 0x86-0x87 (1)
0x080|                     76 31 32 38 2e 73 74 6f 72|       v128.stor|                b: "v128.store_i32x4_2" 0x87-0x99 (18)
0x090|65 5f 69 33 32 78 34 5f 32                     |e_i32x4_2       |
     |                                               |                |              d{}: 0x99-0x9b (2)
0x090|                           00                  |         .      |                tag: "funcidx" (0x0) 0x99-0x9a (1)
0x090|                              05               |          .     |                x: 5 (valid) 0x9a-0x9b (1)
     |                                               |                |            [6]{}: ex 0x9b-0xb0 (21)
     |                                               |                |              nm{}: 0x9b-0xae (19)
0x090|                                 12            |           .    |                n: 18 (valid) 0x9b-0x9c (1)
0x090|                                    76 31 32 38|            v128|                b: "v128.store_i32x4_3" 0x9c-0xae (18)
0x0a0|2e 73 74 6f 72 65 5f 69 33 32 78 34 5f 33      |.store_i32x4_3  |
     |                                               |                |              d{}: 0xae-0xb0 (2)
0x0a0|                                          00   |              . |                tag: "funcidx" (0x0) 0xae-0xaf (1)
0x0a0|                                             06|               .|                x: 6 (valid) 0xaf-0xb0 (1)
     |                                               |                |            [7]{}: ex 0xb0-0xc3 (19)
     |                                               |                |              nm{}: 0xb0-0xc1 (17)
0x0b0|10                                             |.               |                n: 16 (valid) 0xb0-0xb1 (1)
0x0b0|   76 31 32 38 2e 73 74 6f 72 65 5f 66 33 32 78| v128.store_f32x|                b: "v128.store_f32x4" 0xb1-0xc1 (16)
0x0c0|34                                             |4               |
     |                                               |                |              d{}: 0xc1-0xc3 (2)
0x0c0|   00                                          | .              |                tag: "funcidx" (0x0) 0xc1-0xc2 (1)
0x0c0|      07                                       |  .             |                x: 7 (valid) 0xc2-0xc3 (1)
     |                                               |                |    [4]{}: section 0xc3-0x1cf (268)
0x0c0|         0a                                    |   .            |      id: "code_section" (10) 0xc3-0xc4 (1)
0x0c0|            89 02                              |    ..          |      size: 265 (valid) 0xc4-0xc6 (2)
     |                                               |                |      content{}: 0xc6-0x1cf (265)
     |                                               |                |        code{}: 0xc6-0x1cf (265)
0x0c0|                  08                           |      .         |          n: 8 (valid) 0xc6-0xc7 (1)
     |                                               |                |          x[0:8]: 0xc7-0x1cf (264)
     |                                               |                |            [0]{}: code 0xc7-0xe8 (33)
0x0c0|                     20                        |                |              size: 32 (valid) 0xc7-0xc8 (1)
     |                                               |                |              code{}: 0xc8-0xe8 (32)
     |                                               |                |                t{}: 0xc8-0xc9 (1)
0x0c0|                        00                     |        .       |                  n: 0 (valid) 0xc8-0xc9 (1)
     |                                               |                |                  x[0:0]: 0xc9-0xc9 (0)
     |                                               |                |                e[0:6]: 0xc9-0xe8 (31)
     |                                               |                |                  [0]{}: in 0xc9-0xcb (2)
0x0c0|                           41                  |         A      |                    opcode: "i32.const" (0x41) 0xc9-0xca (1)
0x0c0|                              00               |          .     |                    n: 0 (valid) 0xca-0xcb (1)
     |                                               |                |                  [1]{}: in 0xcb-0xdd (18)
0x0c0|                                 fd            |           .    |                    opcode: "vector" (0xfd) 0xcb-0xcc (1)
0x0c0|                                    0c         |            .   |                    v_opcode: "v128.const" (12) 0xcc-0xcd (1)
0x0c0|                                       00 01 02|             ...|                    bytes: raw bits 0xcd-0xdd (16)
0x0d0|03 04 05 06 07 08 09 0a 0b 0c 0d 0e 0f         |.............   |
     |                                               |                |                  [2]{}: in 0xdd-0xe1 (4)
0x0d0|                                       fd      |             .  |                    opcode: "vector" (0xfd) 0xdd-0xde (1)
0x0d0|                                          0b   |              . |                    v_opcode: "v128.store" (11) 0xde-0xdf (1)
     |                                               |                |                    m{}: 0xdf-0xe1 (2)
0x0d0|                                             04|               .|                      a: 4 (valid) 0xdf-0xe0 (1)
0x0e0|00                                             |.               |                      o: 0 (valid) 0xe0-0xe1 (1)
     |                                               |                |                  [3]{}: in 0xe1-0xe3 (2)
0x0e0|   41                                          | A              |                    opcode: "i32.const" (0x41) 0xe1-0xe2 (1)
0x0e0|      00                                       |  .             |                    n: 0 (valid) 0xe2-0xe3 (1)
     |                                               |                |                  [4]{}: in 0xe3-0xe7 (4)
0x0e0|         fd                                    |   .            |                    opcode: "vector" (0xfd) 0xe3-0xe4 (1)
0x0e0|            00                                 |    .           |                    v_opcode: "v128.load" (0) 0xe4-0xe5 (1)
     |                                               |                |                    m{}: 0xe5-0xe7 (2)
0x0e0|               04                              |     .          |                      a: 4 (valid) 0xe5-0xe6 (1)
0x0e0|                  00                           |      .         |                      o: 0 (valid) 0xe6-0xe7 (1)
     |                                               |                |                  [5]{}: in 0xe7-0xe8 (1)
0x0e0|                     0b                        |       .        |                    opcode: "end" (0xb) 0xe7-0xe8 (1)
     |                                               |                |            [1]{}: code 0xe8-0x109 (33)
0x0e0|                        20                     |                |              size: 32 (valid) 0xe8-0xe9 (1)
     |                                               |                |              code{}: 0xe9-0x109 (32)
     |                                               |                |                t{}: 0xe9-0xea (1)
0x0e0|                           00                  |         .      |                  n: 0 (valid) 0xe9-0xea (1)
     |                                               |                |                  x[0:0]: 0xea-0xea (0)
     |                                               |                |                e[0:6]: 0xea-0x109 (31)
     |                                               |                |                  [0]{}: in 0xea-0xec (2)
0x0e0|                              41               |          A     |                    opcode: "i32.const" (0x41) 0xea-0xeb (1)
0x0e0|                                 00            |           .    |                    n: 0 (valid) 0xeb-0xec (1)
     |                                               |                |                  [1]{}: in 0xec-0xfe (18)
0x0e0|                                    fd         |            .   |                    opcode: "vector" (0xfd) 0xec-0xed (1)
0x0e0|                                       0c      |             .  |                    v_opcode: "v128.const" (12) 0xed-0xee (1)
0x0e0|                                          00 00|              ..|                    bytes: raw bits 0xee-0xfe (16)
0x0f0|01 00 02 00 03 00 04 00 05 00 06 00 07 00      |..............  |
     |                                               |                |                  [2]{}: in 0xfe-0x102 (4)
0x0f0|                                          fd   |              . |                    opcode: "vector" (0xfd) 0xfe-0xff (1)
0x0f0|                                             0b|               .|                    v_opcode: "v128.store" (11) 0xff-0x100 (1)
     |                                               |                |                    m{}: 0x100-0x102 (2)
0x100|04                                             |.               |                      a: 4 (valid) 0x100-0x101 (1)
0x100|   00                                          | .              |                      o: 0 (valid) 0x101-0x102 (1)
     |                                               |                |                  [3]{}: in 0x102-0x104 (2)
0x100|      41                                       |  A             |                    opcode: "i32.const" (0x41) 0x102-0x103 (1)
0x100|         00                                    |   .            |                    n: 0 (valid) 0x103-0x104 (1)
     |                                               |                |                  [4]{}: in 0x104-0x108 (4)
0x100|            fd                                 |    .           |                    opcode: "vector" (0xfd) 0x104-0x105 (1)
0x100|               00                              |     .          |                    v_opcode: "v128.load" (0) 0x105-0x106 (1)
     |                                               |                |                    m{}: 0x106-0x108 (2)
0x100|                  04                           |      .         |                      a: 4 (valid) 0x106-0x107 (1)
0x100|                     00                        |       .        |                      o: 0 (valid) 0x107-0x108 (1)
     |                                               |                |                  [5]{}: in 0x108-0x109 (1)
0x100|                        0b                     |        .       |                    opcode: "end" (0xb) 0x108-0x109 (1)
     |                                               |                |            [2]{}: code 0x109-0x12a (33)
0x100|                           20                  |                |              size: 32 (valid) 0x109-0x10a (1)
     |                                               |                |              code{}: 0x10a-0x12a (32)
     |                                               |                |                t{}: 0x10a-0x10b (1)
0x100|                              00               |          .     |                  n: 0 (valid) 0x10a-0x10b (1)
     |                                               |                |                  x[0:0]: 0x10b-0x10b (0)
     |                                               |                |                e[0:6]: 0x10b-0x12a (31)
     |                                               |                |                  [0]{}: in 0x10b-0x10d (2)
0x100|                                 41            |           A    |                    opcode: "i32.const" (0x41) 0x10b-0x10c (1)
0x100|                                    00         |            .   |                    n: 0 (valid) 0x10c-0x10d (1)
     |                                               |                |                  [1]{}: in 0x10d-0x11f (18)
0x100|                                       fd      |             .  |                    opcode: "vector" (0xfd) 0x10d-0x10e (1)
0x100|                                          0c   |              . |                    v_opcode: "v128.const" (12) 0x10e-0x10f (1)
0x100|                                             39|               9|                    bytes: raw bits 0x10f-0x11f (16)
0x110|30 39 30 39 30 39 30 39 30 39 30 39 30 39 30   |090909090909090 |
     |                                               |                |                  [2]{}: in 0x11f-0x123 (4)
0x110|                                             fd|               .|                    opcode: "vector" (0xfd) 0x11f-0x120 (1)
0x120|0b                                             |.               |                    v_opcode: "v128.store" (11) 0x120-0x121 (1)
     |                                               |                |                    m{}: 0x121-0x123 (2)
0x120|   04                                          | .              |                      a: 4 (valid) 0x121-0x122 (1)
0x120|      00                                       |  .             |                      o: 0 (valid) 0x122-0x123 (1)
     |                                               |                |                  [3]{}: in 0x123-0x125 (2)
0x120|         41                                    |   A            |                    opcode: "i32.const" (0x41) 0x123-0x124 (1)
0x120|            00                                 |    .           |                    n: 0 (valid) 0x124-0x125 (1)
     |                                               |                |                  [4]{}: in 0x125-0x129 (4)
0x120|               fd                              |     .          |                    opcode: "vector" (0xfd) 0x125-0x126 (1)
0x120|                  00                           |      .         |                    v_opcode: "v128.load" (0) 0x126-0x127 (1)
     |                                               |                |                    m{}: 0x127-0x129 (2)
0x120|                     04                        |       .        |                      a: 4 (valid) 0x127-0x128 (1)
0x120|                        00                     |        .       |                      o: 0 (valid) 0x128-0x129 (1)
     |                                               |                |                  [5]{}: in 0x129-0x12a (1)
0x120|                           0b                  |         .      |                    opcode: "end" (0xb) 0x129-0x12a (1)
     |                                               |                |            [3]{}: code 0x12a-0x14b (33)
0x120|                              20               |                |              size: 32 (valid) 0x12a-0x12b (1)
     |                                               |                |              code{}: 0x12b-0x14b (32)
     |                                               |                |                t{}: 0x12b-0x12c (1)
0x120|                                 00            |           .    |                  n: 0 (valid) 0x12b-0x12c (1)
     |                                               |                |                  x[0:0]: 0x12c-0x12c (0)
     |                                               |                |                e[0:6]: 0x12c-0x14b (31)
     |                                               |                |                  [0]{}: in 0x12c-0x12e (2)
0x120|                                    41         |            A   |                    opcode: "i32.const" (0x41) 0x12c-0x12d (1)
0x120|                                       00      |             .  |                    n: 0 (valid) 0x12d-0x12e (1)
     |                                               |                |                  [1]{}: in 0x12e-0x140 (18)
0x120|                                          fd   |              . |                    opcode: "vector" (0xfd) 0x12e-0x12f (1)
0x120|                                             0c|               .|                    v_opcode: "v128.const" (12) 0x12f-0x130 (1)
0x130|34 12 34 12 34 12 34 12 34 12 34 12 34 12 34 12|4.4.4.4.4.4.4.4.|                    bytes: raw bits 0x130-0x140 (16)
     |                                               |                |                  [2]{}: in 0x140-0x144 (4)
0x140|fd                                             |.               |                    opcode: "vector" (0xfd) 0x140-0x141 (1)
0x140|   0b                                          | .              |                    v_opcode: "v128.store" (11) 0x141-0x142 (1)
     |                                               |                |                    m{}: 0x142-0x144 (2)
0x140|      04                                       |  .             |                      a: 4 (valid) 0x142-0x143 (1)
0x140|         00                                    |   .            |                      o: 0 (valid) 0x143-0x144 (1)
     |                                               |                |                  [3]{}: in 0x144-0x146 (2)
0x140|            41                                 |    A           |                    opcode: "i32.const" (0x41) 0x144-0x145 (1)
0x140|               00                              |     .          |                    n: 0 (valid) 0x145-0x146 (1)
     |                                               |                |                  [4]{}: in 0x146-0x14a (4)
0x140|                  fd                           |      .         |                    opcode: "vector" (0xfd) 0x146-0x147 (1)
0x140|                     00                        |       .        |                    v_opcode: "v128.load" (0) 0x147-0x148 (1)
     |                                               |                |                    m{}: 0x148-0x14a (2)
0x140|                        04                     |        .       |                      a: 4 (valid) 0x148-0x149 (1)
0x140|                           00                  |         .      |                      o: 0 (valid) 0x149-0x14a (1)
     |                                               |                |                  [5]{}: in 0x14a-0x14b (1)
0x140|                              0b               |          .     |                    opcode: "end" (0xb) 0x14a-0x14b (1)
     |                                               |                |            [4]{}: code 0x14b-0x16c (33)
0x140|                                 20            |                |              size: 32 (valid) 0x14b-0x14c (1)
     |                                               |                |              code{}: 0x14c-0x16c (32)
     |                                               |                |                t{}: 0x14c-0x14d (1)
0x140|                                    00         |            .   |                  n: 0 (valid) 0x14c-0x14d (1)
     |                                               |                |                  x[0:0]: 0x14d-0x14d (0)
     |                                               |                |                e[0:6]: 0x14d-0x16c (31)
     |                                               |                |                  [0]{}: in 0x14d-0x14f (2)
0x140|                                       41      |             A  |                    opcode: "i32.const" (0x41) 0x14d-0x14e (1)
0x140|                                          00   |              . |                    n: 0 (valid) 0x14e-0x14f (1)
     |                                               |                |                  [1]{}: in 0x14f-0x161 (18)
0x140|                                             fd|               .|                    opcode: "vector" (0xfd) 0x14f-0x150 (1)
0x150|0c                                             |.               |                    v_opcode: "v128.const" (12) 0x150-0x151 (1)
0x150|   00 00 00 00 01 00 00 00 02 00 00 00 03 00 00| ...............|                    bytes: raw bits 0x151-0x161 (16)
0x160|00                                             |.               |
     |                                               |                |                  [2]{}: in 0x161-0x165 (4)
0x160|   fd                                          | .              |                    opcode: "vector" (0xfd) 0x161-0x162 (1)
0x160|      0b                                       |  .             |                    v_opcode: "v128.store" (11) 0x162-0x163 (1)
     |                                               |                |                    m{}: 0x163-0x165 (2)
0x160|         04                                    |   .            |                      a: 4 (valid) 0x163-0x164 (1)
0x160|            00                                 |    .           |                      o: 0 (valid) 0x164-0x165 (1)
     |                                               |                |                  [3]{}: in 0x165-0x167 (2)
0x160|               41                              |     A          |                    opcode: "i32.const" (0x41) 0x165-0x166 (1)
0x160|                  00                           |      .         |                    n: 0 (valid) 0x166-0x167 (1)
     |                                               |                |                  [4]{}: in 0x167-0x16b (4)
0x160|                     fd                        |       .        |                    opcode: "vector" (0xfd) 0x167-0x168 (1)
0x160|                        00                     |        .       |                    v_opcode: "v128.load" (0) 0x168-0x169 (1)
     |                                               |                |                    m{}: 0x169-0x16b (2)
0x160|                           04                  |         .      |                      a: 4 (valid) 0x169-0x16a (1)
0x160|                              00               |          .     |                      o: 0 (valid) 0x16a-0x16b (1)
     |                                               |                |                  [5]{}: in 0x16b-0x16c (1)
0x160|                                 0b            |           .    |                    opcode: "end" (0xb) 0x16b-0x16c (1)
     |                                               |                |            [5]{}: code 0x16c-0x18d (33)
0x160|                                    20         |                |              size: 32 (valid) 0x16c-0x16d (1)
     |                                               |                |              code{}: 0x16d-0x18d (32)
     |                                               |                |                t{}: 0x16d-0x16e (1)
0x160|                                       00      |             .  |                  n: 0 (valid) 0x16d-0x16e (1)
     |                                               |                |                  x[0:0]: 0x16e-0x16e (0)
     |                                               |                |                e[0:6]: 0x16e-0x18d (31)
     |                                               |                |                  [0]{}: in 0x16e-0x170 (2)
0x160|                                          41   |              A |                    opcode: "i32.const" (0x41) 0x16e-0x16f (1)
0x160|                                             00|               .|                    n: 0 (valid) 0x16f-0x170 (1)
     |                                               |                |                  [1]{}: in 0x170-0x182 (18)
0x170|fd                                             |.               |                    opcode: "vector" (0xfd) 0x170-0x171 (1)
0x170|   0c                                          | .              |                    v_opcode: "v128.const" (12) 0x171-0x172 (1)
0x170|      15 cd 5b 07 15 cd 5b 07 15 cd 5b 07 15 cd|  ..[...[...[...|                    bytes: raw bits 0x172-0x182 (16)
0x180|5b 07                                          |[.              |
     |                                               |                |                  [2]{}: in 0x182-0x186 (4)
0x180|      fd                                       |  .             |                    opcode: "vector" (0xfd) 0x182-0x183 (1)
0x180|         0b                                    |   .            |                    v_opcode: "v128.store" (11) 0x183-0x184 (1)
     |                                               |                |                    m{}: 0x184-0x186 (2)
0x180|            04                                 |    .           |                      a: 4 (valid) 0x184-0x185 (1)
0x180|               00                              |     .          |                      o: 0 (valid) 0x185-0x186 (1)
     |                                               |                |                  [3]{}: in 0x186-0x188 (2)
0x180|                  41                           |      A         |                    opcode: "i32.const" (0x41) 0x186-0x187 (1)
0x180|                     00                        |       .        |                    n: 0 (valid) 0x187-0x188 (1)
     |                                               |                |                  [4]{}: in 0x188-0x18c (4)
0x180|                        fd                     |        .       |                    opcode: "vector" (0xfd) 0x188-0x189 (1)
0x180|                           00                  |         .      |                    v_opcode: "v128.load" (0) 0x189-0x18a (1)
     |                                               |                |                    m{}: 0x18a-0x18c (2)
0x180|                              04               |          .     |                      a: 4 (valid) 0x18a-0x18b (1)
0x180|                                 00            |           .    |                      o: 0 (valid) 0x18b-0x18c (1)
     |                                               |                |                  [5]{}: in 0x18c-0x18d (1)
0x180|                                    0b         |            .   |                    opcode: "end" (0xb) 0x18c-0x18d (1)
     |                                               |                |            [6]{}: code 0x18d-0x1ae (33)
0x180|                                       20      |                |              size: 32 (valid) 0x18d-0x18e (1)
     |                                               |                |              code{}: 0x18e-0x1ae (32)
     |                                               |                |                t{}: 0x18e-0x18f (1)
0x180|                                          00   |              . |                  n: 0 (valid) 0x18e-0x18f (1)
     |                                               |                |                  x[0:0]: 0x18f-0x18f (0)
     |                                               |                |                e[0:6]: 0x18f-0x1ae (31)
     |                                               |                |                  [0]{}: in 0x18f-0x191 (2)
0x180|                                             41|               A|                    opcode: "i32.const" (0x41) 0x18f-0x190 (1)
0x190|00                                             |.               |                    n: 0 (valid) 0x190-0x191 (1)
     |                                               |                |                  [1]{}: in 0x191-0x1a3 (18)
0x190|   fd                                          | .              |                    opcode: "vector" (0xfd) 0x191-0x192 (1)
0x190|      0c                                       |  .             |                    v_opcode: "v128.const" (12) 0x192-0x193 (1)
0x190|         78 56 34 12 78 56 34 12 78 56 34 12 78|   xV4.xV4.xV4.x|                    bytes: raw bits 0x193-0x1a3 (16)
0x1a0|56 34 12                                       |V4.             |
     |                                               |                |                  [2]{}: in 0x1a3-0x1a7 (4)
0x1a0|         fd                                    |   .            |                    opcode: "vector" (0xfd) 0x1a3-0x1a4 (1)
0x1a0|            0b                                 |    .           |                    v_opcode: "v128.store" (11) 0x1a4-0x1a5 (1)
     |                                               |                |                    m{}: 0x1a5-0x1a7 (2)
0x1a0|               04                              |     .          |                      a: 4 (valid) 0x1a5-0x1a6 (1)
0x1a0|                  00                           |      .         |                      o: 0 (valid) 0x1a6-0x1a7 (1)
     |                                               |                |                  [3]{}: in 0x1a7-0x1a9 (2)
0x1a0|                     41                        |       A        |                    opcode: "i32.const" (0x41) 0x1a7-0x1a8 (1)
0x1a0|                        00                     |        .       |                    n: 0 (valid) 0x1a8-0x1a9 (1)
     |                                               |                |                  [4]{}: in 0x1a9-0x1ad (4)
0x1a0|                           fd                  |         .      |                    opcode: "vector" (0xfd) 0x1a9-0x1aa (1)
0x1a0|                              00               |          .     |                    v_opcode: "v128.load" (0) 0x1aa-0x1ab (1)
     |                                               |                |                    m{}: 0x1ab-0x1ad (2)
0x1a0|                                 04            |           .    |                      a: 4 (valid) 0x1ab-0x1ac (1)
0x1a0|                                    00         |            .   |                      o: 0 (valid) 0x1ac-0x1ad (1)
     |                                               |                |                  [5]{}: in 0x1ad-0x1ae (1)
0x1a0|                                       0b      |             .  |                    opcode: "end" (0xb) 0x1ad-0x1ae (1)
     |                                               |                |            [7]{}: code 0x1ae-0x1cf (33)
0x1a0|                                          20   |                |              size: 32 (valid) 0x1ae-0x1af (1)
     |                                               |                |              code{}: 0x1af-0x1cf (32)
     |                                               |                |                t{}: 0x1af-0x1b0 (1)
0x1a0|                                             00|               .|                  n: 0 (valid) 0x1af-0x1b0 (1)
     |                                               |                |                  x[0:0]: 0x1b0-0x1b0 (0)
     |                                               |                |                e[0:6]: 0x1b0-0x1cf (31)
     |                                               |                |                  [0]{}: in 0x1b0-0x1b2 (2)
0x1b0|41                                             |A               |                    opcode: "i32.const" (0x41) 0x1b0-0x1b1 (1)
0x1b0|   00                                          | .              |                    n: 0 (valid) 0x1b1-0x1b2 (1)
     |                                               |                |                  [1]{}: in 0x1b2-0x1c4 (18)
0x1b0|      fd                                       |  .             |                    opcode: "vector" (0xfd) 0x1b2-0x1b3 (1)
0x1b0|         0c                                    |   .            |                    v_opcode: "v128.const" (12) 0x1b3-0x1b4 (1)
0x1b0|            00 00 00 00 00 00 80 3f 00 00 00 40|    .......?...@|                    bytes: raw bits 0x1b4-0x1c4 (16)
0x1c0|00 00 40 40                                    |..@@            |
     |                                               |                |                  [2]{}: in 0x1c4-0x1c8 (4)
0x1c0|            fd                                 |    .           |                    opcode: "vector" (0xfd) 0x1c4-0x1c5 (1)
0x1c0|               0b                              |     .          |                    v_opcode: "v128.store" (11) 0x1c5-0x1c6 (1)
     |                                               |                |                    m{}: 0x1c6-0x1c8 (2)
0x1c0|                  04                           |      .         |                      a: 4 (valid) 0x1c6-0x1c7 (1)
0x1c0|                     00                        |       .        |                      o: 0 (valid) 0x1c7-0x1c8 (1)
     |                                               |                |                  [3]{}: in 0x1c8-0x1ca (2)
0x1c0|                        41                     |        A       |                    opcode: "i32.const" (0x41) 0x1c8-0x1c9 (1)
0x1c0|                           00                  |         .      |                    n: 0 (valid) 0x1c9-0x1ca (1)
     |                                               |                |                  [4]{}: in 0x1ca-0x1ce (4)
0x1c0|                              fd               |          .     |                    opcode: "vector" (0xfd) 0x1ca-0x1cb (1)
0x1c0|                                 00            |           .    |                    v_opcode: "v128.load" (0) 0x1cb-0x1cc (1)
     |                                               |                |                    m{}: 0x1cc-0x1ce (2)
0x1c0|                                    04         |            .   |                      a: 4 (valid) 0x1cc-0x1cd (1)
0x1c0|                                       00      |             .  |                      o: 0 (valid) 0x1cd-0x1ce (1)
     |                                               |                |                  [5]{}: in 0x1ce-0x1cf (1)
0x1c0|                                          0b|  |              .||                    opcode: "end" (0xb) 0x1ce-0x1cf (1)
