$ fq -d wasm dv simd_bitwise-1.wasm
     |00 01 02 03 04 05 06 07 08 09 0a 0b 0c 0d 0e 0f|0123456789abcdef|.{}: simd_bitwise-1.wasm (wasm) 0x0-0x3f3 (1011)
0x000|00 61 73 6d                                    |.asm            |  magic: raw bits (valid) 0x0-0x4 (4)
0x000|            01 00 00 00                        |    ....        |  version: 1 0x4-0x8 (4)
     |                                               |                |  sections[0:5]: 0x8-0x3f3 (1003)
     |                                               |                |    [0]{}: section 0x8-0xe (6)
0x000|                        01                     |        .       |      id: "type_section" (1) 0x8-0x9 (1)
0x000|                           04                  |         .      |      size: 4 (valid) 0x9-0xa (1)
     |                                               |                |      content{}: 0xa-0xe (4)
     |                                               |                |        ft{}: 0xa-0xe (4)
0x000|                              01               |          .     |          n: 1 (valid) 0xa-0xb (1)
     |                                               |                |          x[0:1]: 0xb-0xe (3)
     |                                               |                |            [0]{}: ft 0xb-0xe (3)
0x000|                                 60            |           `    |              tag: 0x60 (valid) 0xb-0xc (1)
     |                                               |                |              rt1{}: 0xc-0xd (1)
0x000|                                    00         |            .   |                n: 0 (valid) 0xc-0xd (1)
     |                                               |                |                x[0:0]: 0xd-0xd (0)
     |                                               |                |              rt2{}: 0xd-0xe (1)
0x000|                                       00      |             .  |                n: 0 (valid) 0xd-0xe (1)
     |                                               |                |                x[0:0]: 0xe-0xe (0)
     |                                               |                |    [1]{}: section 0xe-0x1e (16)
0x000|                                          03   |              . |      id: "function_section" (3) 0xe-0xf (1)
0x000|                                             0e|               .|      size: 14 (valid) 0xf-0x10 (1)
     |                                               |                |      content{}: 0x10-0x1e (14)
     |                                               |                |        x{}: 0x10-0x1e (14)
0x010|0d                                             |.               |          n: 13 (valid) 0x10-0x11 (1)
     |                                               |                |          x[0:13]: 0x11-0x1e (13)
0x010|   00                                          | .              |            [0]: 0 x (valid) 0x11-0x12 (1)
0x010|      00                                       |  .             |            [1]: 0 x (valid) 0x12-0x13 (1)
0x010|         00                                    |   .            |            [2]: 0 x (valid) 0x13-0x14 (1)
0x010|            00                                 |    .           |            [3]: 0 x (valid) 0x14-0x15 (1)
0x010|               00                              |     .          |            [4]: 0 x (valid) 0x15-0x16 (1)
0x010|                  00                           |      .         |            [5]: 0 x (valid) 0x16-0x17 (1)
0x010|                     00                        |       .        |            [6]: 0 x (valid) 0x17-0x18 (1)
0x010|                        00                     |        .       |            [7]: 0 x (valid) 0x18-0x19 (1)
0x010|                           00                  |         .      |            [8]: 0 x (valid) 0x19-0x1a (1)
0x010|                              00               |          .     |            [9]: 0 x (valid) 0x1a-0x1b (1)
0x010|                                 00            |           .    |            [10]: 0 x (valid) 0x1b-0x1c (1)
0x010|                                    00         |            .   |            [11]: 0 x (valid) 0x1c-0x1d (1)
0x010|                                       00      |             .  |            [12]: 0 x (valid) 0x1d-0x1e (1)
     |                                               |                |    [2]{}: section 0x1e-0x23 (5)
0x010|                                          05   |              . |      id: "memory_section" (5) 0x1e-0x1f (1)
0x010|                                             03|               .|      size: 3 (valid) 0x1f-0x20 (1)
     |                                               |                |      content{}: 0x20-0x23 (3)
     |                                               |                |        mem{}: 0x20-0x23 (3)
0x020|01                                             |.               |          n: 1 (valid) 0x20-0x21 (1)
     |                                               |                |          x[0:1]: 0x21-0x23 (2)
     |                                               |                |            [0]{}: mem 0x21-0x23 (2)
     |                                               |                |              lim{}: 0x21-0x23 (2)
0x020|   00                                          | .              |                tag: 0x0 0x21-0x22 (1)
0x020|      01                                       |  .             |                n: 1 (valid) 0x22-0x23 (1)
     |                                               |                |    [3]{}: section 0x23-0x126 (259)
0x020|         07                                    |   .            |      id: "export_section" (7) 0x23-0x24 (1)
0x020|            80 02                              |    ..          |      size: 256 (valid) 0x24-0x26 (2)
     |                                               |                |      content{}: 0x26-0x126 (256)
     |                                               |                |        ex{}: 0x26-0x126 (256)
0x020|                  0d                           |      .         |          n: 13 (valid) 0x26-0x27 (1)
     |                                               |                |          x[0:13]: 0x27-0x126 (255)
     |                                               |                |            [0]{}: ex 0x27-0x3b (20)
     |                                               |                |              nm{}: 0x27-0x39 (18)
0x020|                     11                        |       .        |                n: 17 (valid) 0x27-0x28 (1)
0x020|                        76 31 32 38 2e 6e 6f 74|        v128.not|                b: "v128.not-in-block" 0x28-0x39 (17)
0x030|2d 69 6e 2d 62 6c 6f 63 6b                     |-in-block       |
     |                                               |                |              d{}: 0x39-0x3b (2)
0x030|                           00                  |         .      |                tag: "funcidx" (0x0) 0x39-0x3a (1)
0x030|                              00               |          .     |                x: 0 (valid) 0x3a-0x3b (1)
     |                                               |                |            [1]{}: ex 0x3b-0x4f (20)
     |                                               |                |              nm{}: 0x3b-0x4d (18)
0x030|                                 11            |           .    |                n: 17 (valid) 0x3b-0x3c (1)
0x030|                                    76 31 32 38|            v128|                b: "v128.and-in-block" 0x3c-0x4d (17)
0x040|2e 61 6e 64 2d 69 6e 2d 62 6c 6f 63 6b         |.and-in-block   |
     |                                               |                |              d{}: 0x4d-0x4f (2)
0x040|                                       00      |             .  |                tag: "funcidx" (0x0) 0x4d-0x4e (1)
0x040|                                          01   |              . |                x: 1 (valid) 0x4e-0x4f (1)
     |                                               |                |            [2]{}: ex 0x4f-0x62 (19)
     |                                               |                |              nm{}: 0x4f-0x60 (17)
0x040|                                             10|               .|                n: 16 (valid) 0x4f-0x50 (1)
0x050|76 31 32 38 2e 6f 72 2d 69 6e 2d 62 6c 6f 63 6b|v128.or-in-block|                b: "v128.or-in-block" 0x50-0x60 (16)
     |                                               |                |              d{}: 0x60-0x62 (2)
0x060|00                                             |.               |                tag: "funcidx" (0x0) 0x60-0x61 (1)
0x060|   02                                          | .              |                x: 2 (valid) 0x61-0x62 (1)
     |                                               |                |            [3]{}: ex 0x62-0x76 (20)
     |                                               |                |              nm{}: 0x62-0x74 (18)
0x060|      11                                       |  .             |                n: 17 (valid) 0x62-0x63 (1)
0x060|         76 31 32 38 2e 78 6f 72 2d 69 6e 2d 62|   v128.xor-in-b|                b: "v128.xor-in-block" 0x63-0x74 (17)
0x070|6c 6f 63 6b                                    |lock            |
     |                                               |                |              d{}: 0x74-0x76 (2)
0x070|            00                                 |    .           |                tag: "funcidx" (0x0) 0x74-0x75 (1)
0x070|               03                              |     .          |                x: 3 (valid) 0x75-0x76 (1)
     |                                               |                |            [4]{}: ex 0x76-0x90 (26)
     |                                               |                |              nm{}: 0x76-0x8e (24)
0x070|                  17                           |      .         |                n: 23 (valid) 0x76-0x77 (1)
0x070|                     76 31 32 38 2e 62 69 74 73|       v128.bits|                b: "v128.bitselect-in-block" 0x77-0x8e (23)
0x080|65 6c 65 63 74 2d 69 6e 2d 62 6c 6f 63 6b      |elect-in-block  |
     |                                               |                |              d{}: 0x8e-0x90 (2)
0x080|                                          00   |              . |                tag: "funcidx" (0x0) 0x8e-0x8f (1)
0x080|                                             04|               .|                x: 4 (valid) 0x8f-0x90 (1)
     |                                               |                |            [5]{}: ex 0x90-0xa7 (23)
     |                                               |                |              nm{}: 0x90-0xa5 (21)
0x090|14                                             |.               |                n: 20 (valid) 0x90-0x91 (1)
0x090|   76 31 32 38 2e 61 6e 64 6e 6f 74 2d 69 6e 2d| v128.andnot-in-|                b: "v128.andnot-in-block" 0x91-0xa5 (20)
0x0a0|62 6c 6f 63 6b                                 |block           |
     |                                               |                |              d{}: 0xa5-0xa7 (2)
0x0a0|               00                              |     .          |                tag: "funcidx" (0x0) 0xa5-0xa6 (1)
0x0a0|                  05                           |      .         |                x: 5 (valid) 0xa6-0xa7 (1)
     |                                               |                |            [6]{}: ex 0xa7-0xb9 (18)
     |                                               |                |              nm{}: 0xa7-0xb7 (16)
0x0a0|                     0f                        |       .        |                n: 15 (valid) 0xa7-0xa8 (1)
0x0a0|                        6e 65 73 74 65 64 2d 76|        nested-v|                b: "nested-v128.not" 0xa8-0xb7 (15)
0x0b0|31 32 38 2e 6e 6f 74                           |128.not         |
     |                                               |                |              d{}: 0xb7-0xb9 (2)
0x0b0|                     00                        |       .        |                tag: "funcidx" (0x0) 0xb7-0xb8 (1)
0x0b0|                        06                     |        .       |                x: 6 (valid) 0xb8-0xb9 (1)
     |                                               |                |            [7]{}: ex 0xb9-0xcb (18)
     |                                               |                |              nm{}: 0xb9-0xc9 (16)
0x0b0|                           0f                  |         .      |                n: 15 (valid) 0xb9-0xba (1)
0x0b0|                              6e 65 73 74 65 64|          nested|                b: "nested-v128.and" 0xba-0xc9 (15)
0x0c0|2d 76 31 32 38 2e 61 6e 64                     |-v128.and       |
     |                                               |                |              d{}: 0xc9-0xcb (2)
0x0c0|                           00                  |         .      |                tag: "funcidx" (0x0) 0xc9-0xca (1)
0x0c0|                              07               |          .     |                x: 7 (valid) 0xca-0xcb (1)
     |                                               |                |            [8]{}: ex 0xcb-0xdc (17)
     |                                               |                |              nm{}: 0xcb-0xda (15)
0x0c0|                                 0e            |           .    |                n: 14 (valid) 0xcb-0xcc (1)
0x0c0|                                    6e 65 73 74|            nest|                b: "nested-v128.or" 0xcc-0xda (14)
0x0d0|65 64 2d 76 31 32 38 2e 6f 72                  |ed-v128.or      |
     |                                               |                |              d{}: 0xda-0xdc (2)
0x0d0|                              00               |          .     |                tag: "funcidx" (0x0) 0xda-0xdb (1)
0x0d0|                                 08            |           .    |                x: 8 (valid) 0xdb-0xdc (1)
     |                                               |                |            [9]{}: ex 0xdc-0xee (18)
     |                                               |                |              nm{}: 0xdc-0xec (16)
0x0d0|                                    0f         |            .   |                n: 15 (valid) 0xdc-0xdd (1)
0x0d0|                                       6e 65 73|             nes|                b: "nested-v128.xor" 0xdd-0xec (15)
0x0e0|74 65 64 2d 76 31 32 38 2e 78 6f 72            |ted-v128.xor    |
     |                                               |                |              d{}: 0xec-0xee (2)
0x0e0|                                    00         |            .   |                tag: "funcidx" (0x0) 0xec-0xed (1)
0x0e0|                                       09      |             .  |                x: 9 (valid) 0xed-0xee (1)
     |                                               |                |            [10]{}: ex 0xee-0x106 (24)
     |                                               |                |              nm{}: 0xee-0x104 (22)
0x0e0|                                          15   |              . |                n: 21 (valid) 0xee-0xef (1)
0x0e0|                                             6e|               n|                b: "nested-v128.bitselect" 0xef-0x104 (21)
0x0f0|65 73 74 65 64 2d 76 31 32 38 2e 62 69 74 73 65|ested-v128.bitse|
0x100|6c 65 63 74                                    |lect            |
     |                                               |                |              d{}: 0x104-0x106 (2)
0x100|            00                                 |    .           |                tag: "funcidx" (0x0) 0x104-0x105 (1)
0x100|               0a                              |     .          |                x: 10 (valid) 0x105-0x106 (1)
     |                                               |                |            [11]{}: ex 0x106-0x11b (21)
     |                                               |                |              nm{}: 0x106-0x119 (19)
0x100|                  12                           |      .         |                n: 18 (valid) 0x106-0x107 (1)
0x100|                     6e 65 73 74 65 64 2d 76 31|       nested-v1|                b: "nested-v128.andnot" 0x107-0x119 (18)
0x110|32 38 2e 61 6e 64 6e 6f 74                     |28.andnot       |
     |                                               |                |              d{}: 0x119-0x11b (2)
0x110|                           00                  |         .      |                tag: "funcidx" (0x0) 0x119-0x11a (1)
0x110|                              0b               |          .     |                x: 11 (valid) 0x11a-0x11b (1)
     |                                               |                |            [12]{}: ex 0x11b-0x126 (11)
     |                                               |                |              nm{}: 0x11b-0x124 (9)
0x110|                                 08            |           .    |                n: 8 (valid) 0x11b-0x11c (1)
0x110|                                    61 73 2d 70|            as-p|                b: "as-param" 0x11c-0x124 (8)
0x120|61 72 61 6d                                    |aram            |
     |                                               |                |              d{}: 0x124-0x126 (2)
0x120|            00                                 |    .           |                tag: "funcidx" (0x0) 0x124-0x125 (1)
0x120|               0c                              |     .          |                x: 12 (valid) 0x125-0x126 (1)
     |                                               |                |    [4]{}: section 0x126-0x3f3 (717)
0x120|                  0a                           |      .         |      id: "code_section" (10) 0x126-0x127 (1)
0x120|                     ca 05                     |       ..       |      size: 714 (valid) 0x127-0x129 (2)
     |                                               |                |      content{}: 0x129-0x3f3 (714)
     |                                               |                |        code{}: 0x129-0x3f3 (714)
0x120|                           0d                  |         .      |          n: 13 (valid) 0x129-0x12a (1)
     |                                               |                |          x[0:13]: 0x12a-0x3f3 (713)
     |                                               |                |            [0]{}: code 0x12a-0x13f (21)
0x120|                              14               |          .     |              size: 20 (valid) 0x12a-0x12b (1)
     |                                               |                |              code{}: 0x12b-0x13f (20)
     |                                               |                |                t{}: 0x12b-0x12c (1)
0x120|                                 00            |           .    |                  n: 0 (valid) 0x12b-0x12c (1)
     |                                               |                |                  x[0:0]: 0x12c-0x12c (0)
     |                                               |                |                e[0:2]: 0x12c-0x13f (19)
     |                                               |                |                  [0]{}: in 0x12c-0x13e (18)
0x120|                                    02         |            .   |                    opcode: "block" (0x2) 0x12c-0x12d (1)
0x120|                                       40      |             @  |                    bt: "ε" (64) 0x12d-0x12e (1)
     |                                               |                |                    instructions[0:2]: 0x12e-0x13d (15)
     |                                               |                |                      [0]{}: instr 0x12e-0x13c (14)
0x120|                                          02   |              . |                        opcode: "block" (0x2) 0x12e-0x12f (1)
0x120|                                             7b|               {|                        bt: "v128" (123) 0x12f-0x130 (1)
     |                                               |                |                        instructions[0:2]: 0x130-0x13b (11)
     |                                               |                |                          [0]{}: instr 0x130-0x139 (9)
0x130|02                                             |.               |                            opcode: "block" (0x2) 0x130-0x131 (1)
0x130|   7b                                          | {              |                            bt: "v128" (123) 0x131-0x132 (1)
     |                                               |                |                            instructions[0:2]: 0x132-0x138 (6)
     |                                               |                |                              [0]{}: instr 0x132-0x134 (2)
0x130|      41                                       |  A             |                                opcode: "i32.const" (0x41) 0x132-0x133 (1)
0x130|         00                                    |   .            |                                n: 0 (valid) 0x133-0x134 (1)
     |                                               |                |                              [1]{}: instr 0x134-0x138 (4)
0x130|            fd                                 |    .           |                                opcode: "vector" (0xfd) 0x134-0x135 (1)
0x130|               00                              |     .          |                                v_opcode: "v128.load" (0) 0x135-0x136 (1)
     |                                               |                |                                m{}: 0x136-0x138 (2)
0x130|                  04                           |      .         |                                  a: 4 (valid) 0x136-0x137 (1)
0x130|                     00                        |       .        |                                  o: 0 (valid) 0x137-0x138 (1)
0x130|                        0b                     |        .       |                            end: 0xb (valid) 0x138-0x139 (1)
     |                                               |                |                          [1]{}: instr 0x139-0x13b (2)
0x130|                           fd                  |         .      |                            opcode: "vector" (0xfd) 0x139-0x13a (1)
0x130|                              4d               |          M     |                            v_opcode: "v128.not" (77) 0x13a-0x13b (1)
0x130|                                 0b            |           .    |                        end: 0xb (valid) 0x13b-0x13c (1)
     |                                               |                |                      [1]{}: instr 0x13c-0x13d (1)
0x130|                                    1a         |            .   |                        opcode: "drop" (0x1a) 0x13c-0x13d (1)
0x130|                                       0b      |             .  |                    end: 0xb (valid) 0x13d-0x13e (1)
     |                                               |                |                  [1]{}: in 0x13e-0x13f (1)
0x130|                                          0b   |              . |                    opcode: "end" (0xb) 0x13e-0x13f (1)
     |                                               |                |            [1]{}: code 0x13f-0x15d (30)
0x130|                                             1d|               .|              size: 29 (valid) 0x13f-0x140 (1)
     |                                               |                |              code{}: 0x140-0x15d (29)
     |                                               |                |                t{}: 0x140-0x141 (1)
0x140|00                                             |.               |                  n: 0 (valid) 0x140-0x141 (1)
     |                                               |                |                  x[0:0]: 0x141-0x141 (0)
     |                                               |                |                e[0:2]: 0x141-0x15d (28)
     |                                               |                |                  [0]{}: in 0x141-0x15c (27)
0x140|   02                                          | .              |                    opcode: "block" (0x2) 0x141-0x142 (1)
0x140|      40                                       |  @             |                    bt: "ε" (64) 0x142-0x143 (1)
     |                                               |                |                    instructions[0:2]: 0x143-0x15b (24)
     |                                               |                |                      [0]{}: instr 0x143-0x15a (23)
0x140|         02                                    |   .            |                        opcode: "block" (0x2) 0x143-0x144 (1)
0x140|            7b                                 |    {           |                        bt: "v128" (123) 0x144-0x145 (1)
     |                                               |                |                        instructions[0:3]: 0x145-0x159 (20)
     |                                               |                |                          [0]{}: instr 0x145-0x14e (9)
0x140|               02                              |     .          |                            opcode: "block" (0x2) 0x145-0x146 (1)
0x140|                  7b                           |      {         |                            bt: "v128" (123) 0x146-0x147 (1)
     |                                               |                |                            instructions[0:2]: 0x147-0x14d (6)
     |                                               |                |                              [0]{}: instr 0x147-0x149 (2)
0x140|                     41                        |       A        |                                opcode: "i32.const" (0x41) 0x147-0x148 (1)
0x140|                        00                     |        .       |                                n: 0 (valid) 0x148-0x149 (1)
     |                                               |                |                              [1]{}: instr 0x149-0x14d (4)
0x140|                           fd                  |         .      |                                opcode: "vector" (0xfd) 0x149-0x14a (1)
0x140|                              00               |          .     |                                v_opcode: "v128.load" (0) 0x14a-0x14b (1)
     |                                               |                |                                m{}: 0x14b-0x14d (2)
0x140|                                 04            |           .    |                                  a: 4 (valid) 0x14b-0x14c (1)
0x140|                                    00         |            .   |                                  o: 0 (valid) 0x14c-0x14d (1)
0x140|                                       0b      |             .  |                            end: 0xb (valid) 0x14d-0x14e (1)
     |                                               |                |                          [1]{}: instr 0x14e-0x157 (9)
0x140|                                          02   |              . |                            opcode: "block" (0x2) 0x14e-0x14f (1)
0x140|                                             7b|               {|                            bt: "v128" (123) 0x14f-0x150 (1)
     |                                               |                |                            instructions[0:2]: 0x150-0x156 (6)
     |                                               |                |                              [0]{}: instr 0x150-0x152 (2)
0x150|41                                             |A               |                                opcode: "i32.const" (0x41) 0x150-0x151 (1)
0x150|   01                                          | .              |                                n: 1 (valid) 0x151-0x152 (1)
     |                                               |                |                              [1]{}: instr 0x152-0x156 (4)
0x150|      fd                                       |  .             |                                opcode: "vector" (0xfd) 0x152-0x153 (1)
0x150|         00                                    |   .            |                                v_opcode: "v128.load" (0) 0x153-0x154 (1)
     |                                               |                |                                m{}: 0x154-0x156 (2)
0x150|            04                                 |    .           |                                  a: 4 (valid) 0x154-0x155 (1)
0x150|               00                              |     .          |                                  o: 0 (valid) 0x155-0x156 (1)
0x150|                  0b                           |      .         |                            end: 0xb (valid) 0x156-0x157 (1)
     |                                               |                |                          [2]{}: instr 0x157-0x159 (2)
0x150|                     fd                        |       .        |                            opcode: "vector" (0xfd) 0x157-0x158 (1)
0x150|                        4e                     |        N       |                            v_opcode: "v128.and" (78) 0x158-0x159 (1)
0x150|                           0b                  |         .      |                        end: 0xb (valid) 0x159-0x15a (1)
     |                                               |                |                      [1]{}: instr 0x15a-0x15b (1)
0x150|                              1a               |          .     |                        opcode: "drop" (0x1a) 0x15a-0x15b (1)
0x150|                                 0b            |           .    |                    end: 0xb (valid) 0x15b-0x15c (1)
     |                                               |                |                  [1]{}: in 0x15c-0x15d (1)
0x150|                                    0b         |            .   |                    opcode: "end" (0xb) 0x15c-0x15d (1)
     |                                               |                |            [2]{}: code 0x15d-0x17b (30)
0x150|                                       1d      |             .  |              size: 29 (valid) 0x15d-0x15e (1)
     |                                               |                |              code{}: 0x15e-0x17b (29)
     |                                               |                |                t{}: 0x15e-0x15f (1)
0x150|                                          00   |              . |                  n: 0 (valid) 0x15e-0x15f (1)
     |                                               |                |                  x[0:0]: 0x15f-0x15f (0)
     |                                               |                |                e[0:2]: 0x15f-0x17b (28)
     |                                               |                |                  [0]{}: in 0x15f-0x17a (27)
0x150|                                             02|               .|                    opcode: "block" (0x2) 0x15f-0x160 (1)
0x160|40                                             |@               |                    bt: "ε" (64) 0x160-0x161 (1)
     |                                               |                |                    instructions[0:2]: 0x161-0x179 (24)
     |                                               |                |                      [0]{}: instr 0x161-0x178 (23)
0x160|   02                                          | .              |                        opcode: "block" (0x2) 0x161-0x162 (1)
0x160|      7b                                       |  {             |                        bt: "v128" (123) 0x162-0x163 (1)
     |                                               |                |                        instructions[0:3]: 0x163-0x177 (20)
     |                                               |                |                          [0]{}: instr 0x163-0x16c (9)
0x160|         02                                    |   .            |                            opcode: "block" (0x2) 0x163-0x164 (1)
0x160|            7b                                 |    {           |                            bt: "v128" (123) 0x164-0x165 (1)
     |                                               |                |                            instructions[0:2]: 0x165-0x16b (6)
     |                                               |                |                              [0]{}: instr 0x165-0x167 (2)
0x160|               41                              |     A          |                                opcode: "i32.const" (0x41) 0x165-0x166 (1)
0x160|                  00                           |      .         |                                n: 0 (valid) 0x166-0x167 (1)
     |                                               |                |                              [1]{}: instr 0x167-0x16b (4)
0x160|                     fd                        |       .        |                                opcode: "vector" (0xfd) 0x167-0x168 (1)
0x160|                        00                     |        .       |                                v_opcode: "v128.load" (0) 0x168-0x169 (1)
     |                                               |                |                                m{}: 0x169-0x16b (2)
0x160|                           04                  |         .      |                                  a: 4 (valid) 0x169-0x16a (1)
0x160|                              00               |          .     |                                  o: 0 (valid) 0x16a-0x16b (1)
0x160|                                 0b            |           .    |                            end: 0xb (valid) 0x16b-0x16c (1)
     |                                               |                |                          [1]{}: instr 0x16c-0x175 (9)
0x160|                                    02         |            .   |                            opcode: "block" (0x2) 0x16c-0x16d (1)
0x160|                                       7b      |             {  |                            bt: "v128" (123) 0x16d-0x16e (1)
     |                                               |                |                            instructions[0:2]: 0x16e-0x174 (6)
     |                                               |                |                              [0]{}: instr 0x16e-0x170 (2)
0x160|                                          41   |              A |                                opcode: "i32.const" (0x41) 0x16e-0x16f (1)
0x160|                                             01|               .|                                n: 1 (valid) 0x16f-0x170 (1)
     |                                               |                |                              [1]{}: instr 0x170-0x174 (4)
0x170|fd                                             |.               |                                opcode: "vector" (0xfd) 0x170-0x171 (1)
0x170|   00                                          | .              |                                v_opcode: "v128.load" (0) 0x171-0x172 (1)
     |                                               |                |                                m{}: 0x172-0x174 (2)
0x170|      04                                       |  .             |                                  a: 4 (valid) 0x172-0x173 (1)
0x170|         00                                    |   .            |                                  o: 0 (valid) 0x173-0x174 (1)
0x170|            0b                                 |    .           |                            end: 0xb (valid) 0x174-0x175 (1)
     |                                               |                |                          [2]{}: instr 0x175-0x177 (2)
0x170|               fd                              |     .          |                            opcode: "vector" (0xfd) 0x175-0x176 (1)
0x170|                  50                           |      P         |                            v_opcode: "v128.or" (80) 0x176-0x177 (1)
0x170|                     0b                        |       .        |                        end: 0xb (valid) 0x177-0x178 (1)
     |                                               |                |                      [1]{}: instr 0x178-0x179 (1)
0x170|                        1a                     |        .       |                        opcode: "drop" (0x1a) 0x178-0x179 (1)
0x170|                           0b                  |         .      |                    end: 0xb (valid) 0x179-0x17a (1)
     |                                               |                |                  [1]{}: in 0x17a-0x17b (1)
0x170|                              0b               |          .     |                    opcode: "end" (0xb) 0x17a-0x17b (1)
     |                                               |                |            [3]{}: code 0x17b-0x199 (30)
0x170|                                 1d            |           .    |              size: 29 (valid) 0x17b-0x17c (1)
     |                                               |                |              code{}: 0x17c-0x199 (29)
     |                                               |                |                t{}: 0x17c-0x17d (1)
0x170|                                    00         |            .   |                  n: 0 (valid) 0x17c-0x17d (1)
     |                                               |                |                  x[0:0]: 0x17d-0x17d (0)
     |                                               |                |                e[0:2]: 0x17d-0x199 (28)
     |                                               |                |                  [0]{}: in 0x17d-0x198 (27)
0x170|                                       02      |             .  |                    opcode: "block" (0x2) 0x17d-0x17e (1)
0x170|                                          40   |              @ |                    bt: "ε" (64) 0x17e-0x17f (1)
     |                                               |                |                    instructions[0:2]: 0x17f-0x197 (24)
     |                                               |                |                      [0]{}: instr 0x17f-0x196 (23)
0x170|                                             02|               .|                        opcode: "block" (0x2) 0x17f-0x180 (1)
0x180|7b                                             |{               |                        bt: "v128" (123) 0x180-0x181 (1)
     |                                               |                |                        instructions[0:3]: 0x181-0x195 (20)
     |                                               |                |                          [0]{}: instr 0x181-0x18a (9)
0x180|   02                                          | .              |                            opcode: "block" (0x2) 0x181-0x182 (1)
0x180|      7b                                       |  {             |                            bt: "v128" (123) 0x182-0x183 (1)
     |                                               |                |                            instructions[0:2]: 0x183-0x189 (6)
     |                                               |                |                              [0]{}: instr 0x183-0x185 (2)
0x180|         41                                    |   A            |                                opcode: "i32.const" (0x41) 0x183-0x184 (1)
0x180|            00                                 |    .           |                                n: 0 (valid) 0x184-0x185 (1)
     |                                               |                |                              [1]{}: instr 0x185-0x189 (4)
0x180|               fd                              |     .          |                                opcode: "vector" (0xfd) 0x185-0x186 (1)
0x180|                  00                           |      .         |                                v_opcode: "v128.load" (0) 0x186-0x187 (1)
     |                                               |                |                                m{}: 0x187-0x189 (2)
0x180|                     04                        |       .        |                                  a: 4 (valid) 0x187-0x188 (1)
0x180|                        00                     |        .       |                                  o: 0 (valid) 0x188-0x189 (1)
0x180|                           0b                  |         .      |                            end: 0xb (valid) 0x189-0x18a (1)
     |                                               |                |                          [1]{}: instr 0x18a-0x193 (9)
0x180|                              02               |          .     |                            opcode: "block" (0x2) 0x18a-0x18b (1)
0x180|                                 7b            |           {    |                            bt: "v128" (123) 0x18b-0x18c (1)
     |                                               |                |                            instructions[0:2]: 0x18c-0x192 (6)
     |                                               |                |                              [0]{}: instr 0x18c-0x18e (2)
0x180|                                    41         |            A   |                                opcode: "i32.const" (0x41) 0x18c-0x18d (1)
0x180|                                       01      |             .  |                                n: 1 (valid) 0x18d-0x18e (1)
     |                                               |                |                              [1]{}: instr 0x18e-0x192 (4)
0x180|                                          fd   |              . |                                opcode: "vector" (0xfd) 0x18e-0x18f (1)
0x180|                                             00|               .|                                v_opcode: "v128.load" (0) 0x18f-0x190 (1)
     |                                               |                |                                m{}: 0x190-0x192 (2)
0x190|04                                             |.               |                                  a: 4 (valid) 0x190-0x191 (1)
0x190|   00                                          | .              |                                  o: 0 (valid) 0x191-0x192 (1)
0x190|      0b                                       |  .             |                            end: 0xb (valid) 0x192-0x193 (1)
     |                                               |                |                          [2]{}: instr 0x193-0x195 (2)
0x190|         fd                                    |   .            |                            opcode: "vector" (0xfd) 0x193-0x194 (1)
0x190|            51                                 |    Q           |                            v_opcode: "v128.xor" (81) 0x194-0x195 (1)
0x190|               0b                              |     .          |                        end: 0xb (valid) 0x195-0x196 (1)
     |                                               |                |                      [1]{}: instr 0x196-0x197 (1)
0x190|                  1a                           |      .         |                        opcode: "drop" (0x1a) 0x196-0x197 (1)
0x190|                     0b                        |       .        |                    end: 0xb (valid) 0x197-0x198 (1)
     |                                               |                |                  [1]{}: in 0x198-0x199 (1)
0x190|                        0b                     |        .       |                    opcode: "end" (0xb) 0x198-0x199 (1)
     |                                               |                |            [4]{}: code 0x199-0x1c0 (39)
0x190|                           26                  |         &      |              size: 38 (valid) 0x199-0x19a (1)
     |                                               |                |              code{}: 0x19a-0x1c0 (38)
     |                                               |                |                t{}: 0x19a-0x19b (1)
0x190|                              00               |          .     |                  n: 0 (valid) 0x19a-0x19b (1)
     |                                               |                |                  x[0:0]: 0x19b-0x19b (0)
     |                                               |                |                e[0:2]: 0x19b-0x1c0 (37)
     |                                               |                |                  [0]{}: in 0x19b-0x1bf (36)
0x190|                                 02            |           .    |                    opcode: "block" (0x2) 0x19b-0x19c (1)
0x190|                                    40         |            @   |                    bt: "ε" (64) 0x19c-0x19d (1)
     |                                               |                |                    instructions[0:2]: 0x19d-0x1be (33)
     |                                               |                |                      [0]{}: instr 0x19d-0x1bd (32)
0x190|                                       02      |             .  |                        opcode: "block" (0x2) 0x19d-0x19e (1)
0x190|                                          7b   |              { |                        bt: "v128" (123) 0x19e-0x19f (1)
     |                                               |                |                        instructions[0:4]: 0x19f-0x1bc (29)
     |                                               |                |                          [0]{}: instr 0x19f-0x1a8 (9)
0x190|                                             02|               .|                            opcode: "block" (0x2) 0x19f-0x1a0 (1)
0x1a0|7b                                             |{               |                            bt: "v128" (123) 0x1a0-0x1a1 (1)
     |                                               |                |                            instructions[0:2]: 0x1a1-0x1a7 (6)
     |                                               |                |                              [0]{}: instr 0x1a1-0x1a3 (2)
0x1a0|   41                                          | A              |                                opcode: "i32.const" (0x41) 0x1a1-0x1a2 (1)
0x1a0|      00                                       |  .             |                                n: 0 (valid) 0x1a2-0x1a3 (1)
     |                                               |                |                              [1]{}: instr 0x1a3-0x1a7 (4)
0x1a0|         fd                                    |   .            |                                opcode: "vector" (0xfd) 0x1a3-0x1a4 (1)
0x1a0|            00                                 |    .           |                                v_opcode: "v128.load" (0) 0x1a4-0x1a5 (1)
     |                                               |                |                                m{}: 0x1a5-0x1a7 (2)
0x1a0|               04                              |     .          |                                  a: 4 (valid) 0x1a5-0x1a6 (1)
0x1a0|                  00                           |      .         |                                  o: 0 (valid) 0x1a6-0x1a7 (1)
0x1a0|                     0b                        |       .        |                            end: 0xb (valid) 0x1a7-0x1a8 (1)
     |                                               |                |                          [1]{}: instr 0x1a8-0x1b1 (9)
0x1a0|                        02                     |        .       |                            opcode: "block" (0x2) 0x1a8-0x1a9 (1)
0x1a0|                           7b                  |         {      |                            bt: "v128" (123) 0x1a9-0x1aa (1)
     |                                               |                |                            instructions[0:2]: 0x1aa-0x1b0 (6)
     |                                               |                |                              [0]{}: instr 0x1aa-0x1ac (2)
0x1a0|                              41               |          A     |                                opcode: "i32.const" (0x41) 0x1aa-0x1ab (1)
0x1a0|                                 01            |           .    |                                n: 1 (valid) 0x1ab-0x1ac (1)
     |                                               |                |                              [1]{}: instr 0x1ac-0x1b0 (4)
0x1a0|                                    fd         |            .   |                                opcode: "vector" (0xfd) 0x1ac-0x1ad (1)
0x1a0|                                       00      |             .  |                                v_opcode: "v128.load" (0) 0x1ad-0x1ae (1)
     |                                               |                |                                m{}: 0x1ae-0x1b0 (2)
0x1a0|                                          04   |              . |                                  a: 4 (valid) 0x1ae-0x1af (1)
0x1a0|                                             00|               .|                                  o: 0 (valid) 0x1af-0x1b0 (1)
0x1b0|0b                                             |.               |                            end: 0xb (valid) 0x1b0-0x1b1 (1)
     |                                               |                |                          [2]{}: instr 0x1b1-0x1ba (9)
0x1b0|   02                                          | .              |                            opcode: "block" (0x2) 0x1b1-0x1b2 (1)
0x1b0|      7b                                       |  {             |                            bt: "v128" (123) 0x1b2-0x1b3 (1)
     |                                               |                |                            instructions[0:2]: 0x1b3-0x1b9 (6)
     |                                               |                |                              [0]{}: instr 0x1b3-0x1b5 (2)
0x1b0|         41                                    |   A            |                                opcode: "i32.const" (0x41) 0x1b3-0x1b4 (1)
0x1b0|            02                                 |    .           |                                n: 2 (valid) 0x1b4-0x1b5 (1)
     |                                               |                |                              [1]{}: instr 0x1b5-0x1b9 (4)
0x1b0|               fd                              |     .          |                                opcode: "vector" (0xfd) 0x1b5-0x1b6 (1)
0x1b0|                  00                           |      .         |                                v_opcode: "v128.load" (0) 0x1b6-0x1b7 (1)
     |                                               |                |                                m{}: 0x1b7-0x1b9 (2)
0x1b0|                     04                        |       .        |                                  a: 4 (valid) 0x1b7-0x1b8 (1)
0x1b0|                        00                     |        .       |                                  o: 0 (valid) 0x1b8-0x1b9 (1)
0x1b0|                           0b                  |         .      |                            end: 0xb (valid) 0x1b9-0x1ba (1)
     |                                               |                |                          [3]{}: instr 0x1ba-0x1bc (2)
0x1b0|                              fd               |          .     |                            opcode: "vector" (0xfd) 0x1ba-0x1bb (1)
0x1b0|                                 52            |           R    |                            v_opcode: "v128.bitselect" (82) 0x1bb-0x1bc (1)
0x1b0|                                    0b         |            .   |                        end: 0xb (valid) 0x1bc-0x1bd (1)
     |                                               |                |                      [1]{}: instr 0x1bd-0x1be (1)
0x1b0|                                       1a      |             .  |                        opcode: "drop" (0x1a) 0x1bd-0x1be (1)
0x1b0|                                          0b   |              . |                    end: 0xb (valid) 0x1be-0x1bf (1)
     |                                               |                |                  [1]{}: in 0x1bf-0x1c0 (1)
0x1b0|                                             0b|               .|                    opcode: "end" (0xb) 0x1bf-0x1c0 (1)
     |                                               |                |            [5]{}: code 0x1c0-0x1de (30)
0x1c0|1d                                             |.               |              size: 29 (valid) 0x1c0-0x1c1 (1)
     |                                               |                |              code{}: 0x1c1-0x1de (29)
     |                                               |                |                t{}: 0x1c1-0x1c2 (1)
0x1c0|   00                                          | .              |                  n: 0 (valid) 0x1c1-0x1c2 (1)
     |                                               |                |                  x[0:0]: 0x1c2-0x1c2 (0)
     |                                               |                |                e[0:2]: 0x1c2-0x1de (28)
     |                                               |                |                  [0]{}: in 0x1c2-0x1dd (27)
0x1c0|      02                                       |  .             |                    opcode: "block" (0x2) 0x1c2-0x1c3 (1)
0x1c0|         40                                    |   @            |                    bt: "ε" (64) 0x1c3-0x1c4 (1)
     |                                               |                |                    instructions[0:2]: 0x1c4-0x1dc (24)
     |                                               |                |                      [0]{}: instr 0x1c4-0x1db (23)
0x1c0|            02                                 |    .           |                        opcode: "block" (0x2) 0x1c4-0x1c5 (1)
0x1c0|               7b                              |     {          |                        bt: "v128" (123) 0x1c5-0x1c6 (1)
     |                                               |                |                        instructions[0:3]: 0x1c6-0x1da (20)
     |                                               |                |                          [0]{}: instr 0x1c6-0x1cf (9)
0x1c0|                  02                           |      .         |                            opcode: "block" (0x2) 0x1c6-0x1c7 (1)
0x1c0|                     7b                        |       {        |                            bt: "v128" (123) 0x1c7-0x1c8 (1)
     |                                               |                |                            instructions[0:2]: 0x1c8-0x1ce (6)
     |                                               |                |                              [0]{}: instr 0x1c8-0x1ca (2)
0x1c0|                        41                     |        A       |                                opcode: "i32.const" (0x41) 0x1c8-0x1c9 (1)
0x1c0|                           00                  |         .      |                                n: 0 (valid) 0x1c9-0x1ca (1)
     |                                               |                |                              [1]{}: instr 0x1ca-0x1ce (4)
0x1c0|                              fd               |          .     |                                opcode: "vector" (0xfd) 0x1ca-0x1cb (1)
0x1c0|                                 00            |           .    |                                v_opcode: "v128.load" (0) 0x1cb-0x1cc (1)
     |                                               |                |                                m{}: 0x1cc-0x1ce (2)
0x1c0|                                    04         |            .   |                                  a: 4 (valid) 0x1cc-0x1cd (1)
0x1c0|                                       00      |             .  |                                  o: 0 (valid) 0x1cd-0x1ce (1)
0x1c0|                                          0b   |              . |                            end: 0xb (valid) 0x1ce-0x1cf (1)
     |                                               |                |                          [1]{}: instr 0x1cf-0x1d8 (9)
0x1c0|                                             02|               .|                            opcode: "block" (0x2) 0x1cf-0x1d0 (1)
0x1d0|7b                                             |{               |                            bt: "v128" (123) 0x1d0-0x1d1 (1)
     |                                               |                |                            instructions[0:2]: 0x1d1-0x1d7 (6)
     |                                               |                |                              [0]{}: instr 0x1d1-0x1d3 (2)
0x1d0|   41                                          | A              |                                opcode: "i32.const" (0x41) 0x1d1-0x1d2 (1)
0x1d0|      01                                       |  .             |                                n: 1 (valid) 0x1d2-0x1d3 (1)
     |                                               |                |                              [1]{}: instr 0x1d3-0x1d7 (4)
0x1d0|         fd                                    |   .            |                                opcode: "vector" (0xfd) 0x1d3-0x1d4 (1)
0x1d0|            00                                 |    .           |                                v_opcode: "v128.load" (0) 0x1d4-0x1d5 (1)
     |                                               |                |                                m{}: 0x1d5-0x1d7 (2)
0x1d0|               04                              |     .          |                                  a: 4 (valid) 0x1d5-0x1d6 (1)
0x1d0|                  00                           |      .         |                                  o: 0 (valid) 0x1d6-0x1d7 (1)
0x1d0|                     0b                        |       .        |                            end: 0xb (valid) 0x1d7-0x1d8 (1)
     |                                               |                |                          [2]{}: instr 0x1d8-0x1da (2)
0x1d0|                        fd                     |        .       |                            opcode: "vector" (0xfd) 0x1d8-0x1d9 (1)
0x1d0|                           4f                  |         O      |                            v_opcode: "v128.andnot" (79) 0x1d9-0x1da (1)
0x1d0|                              0b               |          .     |                        end: 0xb (valid) 0x1da-0x1db (1)
     |                                               |                |                      [1]{}: instr 0x1db-0x1dc (1)
0x1d0|                                 1a            |           .    |                        opcode: "drop" (0x1a) 0x1db-0x1dc (1)
0x1d0|                                    0b         |            .   |                    end: 0xb (valid) 0x1dc-0x1dd (1)
     |                                               |                |                  [1]{}: in 0x1dd-0x1de (1)
0x1d0|                                       0b      |             .  |                    opcode: "end" (0xb) 0x1dd-0x1de (1)
     |                                               |                |            [6]{}: code 0x1de-0x1ee (16)
0x1d0|                                          0f   |              . |              size: 15 (valid) 0x1de-0x1df (1)
     |                                               |                |              code{}: 0x1df-0x1ee (15)
     |                                               |                |                t{}: 0x1df-0x1e0 (1)
0x1d0|                                             00|               .|                  n: 0 (valid) 0x1df-0x1e0 (1)
     |                                               |                |                  x[0:0]: 0x1e0-0x1e0 (0)
     |                                               |                |                e[0:7]: 0x1e0-0x1ee (14)
     |                                               |                |                  [0]{}: in 0x1e0-0x1e2 (2)
0x1e0|41                                             |A               |                    opcode: "i32.const" (0x41) 0x1e0-0x1e1 (1)
0x1e0|   00                                          | .              |                    n: 0 (valid) 0x1e1-0x1e2 (1)
     |                                               |                |                  [1]{}: in 0x1e2-0x1e6 (4)
0x1e0|      fd                                       |  .             |                    opcode: "vector" (0xfd) 0x1e2-0x1e3 (1)
0x1e0|         00                                    |   .            |                    v_opcode: "v128.load" (0) 0x1e3-0x1e4 (1)
     |                                               |                |                    m{}: 0x1e4-0x1e6 (2)
0x1e0|            04                                 |    .           |                      a: 4 (valid) 0x1e4-0x1e5 (1)
0x1e0|               00                              |     .          |                      o: 0 (valid) 0x1e5-0x1e6 (1)
     |                                               |                |                  [2]{}: in 0x1e6-0x1e8 (2)
0x1e0|                  fd                           |      .         |                    opcode: "vector" (0xfd) 0x1e6-0x1e7 (1)
0x1e0|                     4d                        |       M        |                    v_opcode: "v128.not" (77) 0x1e7-0x1e8 (1)
     |                                               |                |                  [3]{}: in 0x1e8-0x1ea (2)
0x1e0|                        fd                     |        .       |                    opcode: "vector" (0xfd) 0x1e8-0x1e9 (1)
0x1e0|                           4d                  |         M      |                    v_opcode: "v128.not" (77) 0x1e9-0x1ea (1)
     |                                               |                |                  [4]{}: in 0x1ea-0x1ec (2)
0x1e0|                              fd               |          .     |                    opcode: "vector" (0xfd) 0x1ea-0x1eb (1)
0x1e0|                                 4d            |           M    |                    v_opcode: "v128.not" (77) 0x1eb-0x1ec (1)
     |                                               |                |                  [5]{}: in 0x1ec-0x1ed (1)
0x1e0|                                    1a         |            .   |                    opcode: "drop" (0x1a) 0x1ec-0x1ed (1)
     |                                               |                |                  [6]{}: in 0x1ed-0x1ee (1)
0x1e0|                                       0b      |             .  |                    opcode: "end" (0xb) 0x1ed-0x1ee (1)
     |                                               |                |            [7]{}: code 0x1ee-0x230 (66)
0x1e0|                                          41   |              A |              size: 65 (valid) 0x1ee-0x1ef (1)
     |                                               |                |              code{}: 0x1ef-0x230 (65)
     |                                               |                |                t{}: 0x1ef-0x1f0 (1)
0x1e0|                                             00|               .|                  n: 0 (valid) 0x1ef-0x1f0 (1)
     |                                               |                |                  x[0:0]: 0x1f0-0x1f0 (0)
     |                                               |                |                e[0:25]: 0x1f0-0x230 (64)
     |                                               |                |                  [0]{}: in 0x1f0-0x1f2 (2)
0x1f0|41                                             |A               |                    opcode: "i32.const" (0x41) 0x1f0-0x1f1 (1)
0x1f0|   00                                          | .              |                    n: 0 (valid) 0x1f1-0x1f2 (1)
     |                                               |                |                  [1]{}: in 0x1f2-0x1f6 (4)
0x1f0|      fd                                       |  .             |                    opcode: "vector" (0xfd) 0x1f2-0x1f3 (1)
0x1f0|         00                                    |   .            |                    v_opcode: "v128.load" (0) 0x1f3-0x1f4 (1)
     |                                               |                |                    m{}: 0x1f4-0x1f6 (2)
0x1f0|            04                                 |    .           |                      a: 4 (valid) 0x1f4-0x1f5 (1)
0x1f0|               00                              |     .          |                      o: 0 (valid) 0x1f5-0x1f6 (1)
     |                                               |                |                  [2]{}: in 0x1f6-0x1f8 (2)
0x1f0|                  41                           |      A         |                    opcode: "i32.const" (0x41) 0x1f6-0x1f7 (1)
0x1f0|                     01                        |       .        |                    n: 1 (valid) 0x1f7-0x1f8 (1)
     |                                               |                |                  [3]{}: in 0x1f8-0x1fc (4)
0x1f0|                        fd                     |        .       |                    opcode: "vector" (0xfd) 0x1f8-0x1f9 (1)
0x1f0|                           00                  |         .      |                    v_opcode: "v128.load" (0) 0x1f9-0x1fa (1)
     |                                               |                |                    m{}: 0x1fa-0x1fc (2)
0x1f0|                              04               |          .     |                      a: 4 (valid) 0x1fa-0x1fb (1)
0x1f0|                                 00            |           .    |                      o: 0 (valid) 0x1fb-0x1fc (1)
     |                                               |                |                  [4]{}: in 0x1fc-0x1fe (2)
0x1f0|                                    fd         |            .   |                    opcode: "vector" (0xfd) 0x1fc-0x1fd (1)
0x1f0|                                       4e      |             N  |                    v_opcode: "v128.and" (78) 0x1fd-0x1fe (1)
     |                                               |                |                  [5]{}: in 0x1fe-0x200 (2)
0x1f0|                                          41   |              A |                    opcode: "i32.const" (0x41) 0x1fe-0x1ff (1)
0x1f0|                                             00|               .|                    n: 0 (valid) 0x1ff-0x200 (1)
     |                                               |                |                  [6]{}: in 0x200-0x204 (4)
0x200|fd                                             |.               |                    opcode: "vector" (0xfd) 0x200-0x201 (1)
0x200|   00                                          | .              |                    v_opcode: "v128.load" (0) 0x201-0x202 (1)
     |                                               |                |                    m{}: 0x202-0x204 (2)
0x200|      04                                       |  .             |                      a: 4 (valid) 0x202-0x203 (1)
0x200|         00                                    |   .            |                      o: 0 (valid) 0x203-0x204 (1)
     |                                               |                |                  [7]{}: in 0x204-0x206 (2)
0x200|            41                                 |    A           |                    opcode: "i32.const" (0x41) 0x204-0x205 (1)
0x200|               01                              |     .          |                    n: 1 (valid) 0x205-0x206 (1)
     |                                               |                |                  [8]{}: in 0x206-0x20a (4)
0x200|                  fd                           |      .         |                    opcode: "vector" (0xfd) 0x206-0x207 (1)
0x200|                     00                        |       .        |                    v_opcode: "v128.load" (0) 0x207-0x208 (1)
     |                                               |                |                    m{}: 0x208-0x20a (2)
0x200|                        04                     |        .       |                      a: 4 (valid) 0x208-0x209 (1)
0x200|                           00                  |         .      |                      o: 0 (valid) 0x209-0x20a (1)
     |                                               |                |                  [9]{}: in 0x20a-0x20c (2)
0x200|                              fd               |          .     |                    opcode: "vector" (0xfd) 0x20a-0x20b (1)
0x200|                                 4e            |           N    |                    v_opcode: "v128.and" (78) 0x20b-0x20c (1)
     |                                               |                |                  [10]{}: in 0x20c-0x20e (2)
0x200|                                    fd         |            .   |                    opcode: "vector" (0xfd) 0x20c-0x20d (1)
0x200|                                       4e      |             N  |                    v_opcode: "v128.and" (78) 0x20d-0x20e (1)
     |                                               |                |                  [11]{}: in 0x20e-0x210 (2)
0x200|                                          41   |              A |                    opcode: "i32.const" (0x41) 0x20e-0x20f (1)
0x200|                                             00|               .|                    n: 0 (valid) 0x20f-0x210 (1)
     |                                               |                |                  [12]{}: in 0x210-0x214 (4)
0x210|fd                                             |.               |                    opcode: "vector" (0xfd) 0x210-0x211 (1)
0x210|   00                                          | .              |                    v_opcode: "v128.load" (0) 0x211-0x212 (1)
     |                                               |                |                    m{}: 0x212-0x214 (2)
0x210|      04                                       |  .             |                      a: 4 (valid) 0x212-0x213 (1)
0x210|         00                                    |   .            |                      o: 0 (valid) 0x213-0x214 (1)
     |                                               |                |                  [13]{}: in 0x214-0x216 (2)
0x210|            41                                 |    A           |                    opcode: "i32.const" (0x41) 0x214-0x215 (1)
0x210|               01                              |     .          |                    n: 1 (valid) 0x215-0x216 (1)
     |                                               |                |                  [14]{}: in 0x216-0x21a (4)
0x210|                  fd                           |      .         |                    opcode: "vector" (0xfd) 0x216-0x217 (1)
0x210|                     00                        |       .        |                    v_opcode: "v128.load" (0) 0x217-0x218 (1)
     |                                               |                |                    m{}: 0x218-0x21a (2)
0x210|                        04                     |        .       |                      a: 4 (valid) 0x218-0x219 (1)
0x210|                           00                  |         .      |                      o: 0 (valid) 0x219-0x21a (1)
     |                                               |                |                  [15]{}: in 0x21a-0x21c (2)
0x210|                              fd               |          .     |                    opcode: "vector" (0xfd) 0x21a-0x21b (1)
0x210|                                 4e            |           N    |                    v_opcode: "v128.and" (78) 0x21b-0x21c (1)
     |                                               |                |                  [16]{}: in 0x21c-0x21e (2)
0x210|                                    41         |            A   |                    opcode: "i32.const" (0x41) 0x21c-0x21d (1)
0x210|                                       00      |             .  |                    n: 0 (valid) 0x21d-0x21e (1)
     |                                               |                |                  [17]{}: in 0x21e-0x222 (4)
0x210|                                          fd   |              . |                    opcode: "vector" (0xfd) 0x21e-0x21f (1)
0x210|                                             00|               .|                    v_opcode: "v128.load" (0) 0x21f-0x220 (1)
     |                                               |                |                    m{}: 0x220-0x222 (2)
0x220|04                                             |.               |                      a: 4 (valid) 0x220-0x221 (1)
0x220|   00                                          | .              |                      o: 0 (valid) 0x221-0x222 (1)
     |                                               |                |                  [18]{}: in 0x222-0x224 (2)
0x220|      41                                       |  A             |                    opcode: "i32.const" (0x41) 0x222-0x223 (1)
0x220|         01                                    |   .            |                    n: 1 (valid) 0x223-0x224 (1)
     |                                               |                |                  [19]{}: in 0x224-0x228 (4)
0x220|            fd                                 |    .           |                    opcode: "vector" (0xfd) 0x224-0x225 (1)
0x220|               00                              |     .          |                    v_opcode: "v128.load" (0) 0x225-0x226 (1)
     |                                               |                |                    m{}: 0x226-0x228 (2)
0x220|                  04                           |      .         |                      a: 4 (valid) 0x226-0x227 (1)
0x220|                     00                        |       .        |                      o: 0 (valid) 0x227-0x228 (1)
     |                                               |                |                  [20]{}: in 0x228-0x22a (2)
0x220|                        fd                     |        .       |                    opcode: "vector" (0xfd) 0x228-0x229 (1)
0x220|                           4e                  |         N      |                    v_opcode: "v128.and" (78) 0x229-0x22a (1)
     |                                               |                |                  [21]{}: in 0x22a-0x22c (2)
0x220|                              fd               |          .     |                    opcode: "vector" (0xfd) 0x22a-0x22b (1)
0x220|                                 4e            |           N    |                    v_opcode: "v128.and" (78) 0x22b-0x22c (1)
     |                                               |                |                  [22]{}: in 0x22c-0x22e (2)
0x220|                                    fd         |            .   |                    opcode: "vector" (0xfd) 0x22c-0x22d (1)
0x220|                                       4e      |             N  |                    v_opcode: "v128.and" (78) 0x22d-0x22e (1)
     |                                               |                |                  [23]{}: in 0x22e-0x22f (1)
0x220|                                          1a   |              . |                    opcode: "drop" (0x1a) 0x22e-0x22f (1)
     |                                               |                |                  [24]{}: in 0x22f-0x230 (1)
0x220|                                             0b|               .|                    opcode: "end" (0xb) 0x22f-0x230 (1)
     |                                               |                |            [8]{}: code 0x230-0x272 (66)
0x230|41                                             |A               |              size: 65 (valid) 0x230-0x231 (1)
     |                                               |                |              code{}: 0x231-0x272 (65)
     |                                               |                |                t{}: 0x231-0x232 (1)
0x230|   00                                          | .              |                  n: 0 (valid) 0x231-0x232 (1)
     |                                               |                |                  x[0:0]: 0x232-0x232 (0)
     |                                               |                |                e[0:25]: 0x232-0x272 (64)
     |                                               |                |                  [0]{}: in 0x232-0x234 (2)
0x230|      41                                       |  A             |                    opcode: "i32.const" (0x41) 0x232-0x233 (1)
0x230|         00                                    |   .            |                    n: 0 (valid) 0x233-0x234 (1)
     |                                               |                |                  [1]{}: in 0x234-0x238 (4)
0x230|            fd                                 |    .           |                    opcode: "vector" (0xfd) 0x234-0x235 (1)
0x230|               00                              |     .          |                    v_opcode: "v128.load" (0) 0x235-0x236 (1)
     |                                               |                |                    m{}: 0x236-0x238 (2)
0x230|                  04                           |      .         |                      a: 4 (valid) 0x236-0x237 (1)
0x230|                     00                        |       .        |                      o: 0 (valid) 0x237-0x238 (1)
     |                                               |                |                  [2]{}: in 0x238-0x23a (2)
0x230|                        41                     |        A       |                    opcode: "i32.const" (0x41) 0x238-0x239 (1)
0x230|                           01                  |         .      |                    n: 1 (valid) 0x239-0x23a (1)
     |                                               |                |                  [3]{}: in 0x23a-0x23e (4)
0x230|                              fd               |          .     |                    opcode: "vector" (0xfd) 0x23a-0x23b (1)
0x230|                                 00            |           .    |                    v_opcode: "v128.load" (0) 0x23b-0x23c (1)
     |                                               |                |                    m{}: 0x23c-0x23e (2)
0x230|                                    04         |            .   |                      a: 4 (valid) 0x23c-0x23d (1)
0x230|                                       00      |             .  |                      o: 0 (valid) 0x23d-0x23e (1)
     |                                               |                |                  [4]{}: in 0x23e-0x240 (2)
0x230|                                          fd   |              . |                    opcode: "vector" (0xfd) 0x23e-0x23f (1)
0x230|                                             50|               P|                    v_opcode: "v128.or" (80) 0x23f-0x240 (1)
     |                                               |                |                  [5]{}: in 0x240-0x242 (2)
0x240|41                                             |A               |                    opcode: "i32.const" (0x41) 0x240-0x241 (1)
0x240|   00                                          | .              |                    n: 0 (valid) 0x241-0x242 (1)
     |                                               |                |                  [6]{}: in 0x242-0x246 (4)
0x240|      fd                                       |  .             |                    opcode: "vector" (0xfd) 0x242-0x243 (1)
0x240|         00                                    |   .            |                    v_opcode: "v128.load" (0) 0x243-0x244 (1)
     |                                               |                |                    m{}: 0x244-0x246 (2)
0x240|            04                                 |    .           |                      a: 4 (valid) 0x244-0x245 (1)
0x240|               00                              |     .          |                      o: 0 (valid) 0x245-0x246 (1)
     |                                               |                |                  [7]{}: in 0x246-0x248 (2)
0x240|                  41                           |      A         |                    opcode: "i32.const" (0x41) 0x246-0x247 (1)
0x240|                     01                        |       .        |                    n: 1 (valid) 0x247-0x248 (1)
     |                                               |                |                  [8]{}: in 0x248-0x24c (4)
0x240|                        fd                     |        .       |                    opcode: "vector" (0xfd) 0x248-0x249 (1)
0x240|                           00                  |         .      |                    v_opcode: "v128.load" (0) 0x249-0x24a (1)
     |                                               |                |                    m{}: 0x24a-0x24c (2)
0x240|                              04               |          .     |                      a: 4 (valid) 0x24a-0x24b (1)
0x240|                                 00            |           .    |                      o: 0 (valid) 0x24b-0x24c (1)
     |                                               |                |                  [9]{}: in 0x24c-0x24e (2)
0x240|                                    fd         |            .   |                    opcode: "vector" (0xfd) 0x24c-0x24d (1)
0x240|                                       50      |             P  |                    v_opcode: "v128.or" (80) 0x24d-0x24e (1)
     |                                               |                |                  [10]{}: in 0x24e-0x250 (2)
0x240|                                          fd   |              . |                    opcode: "vector" (0xfd) 0x24e-0x24f (1)
0x240|                                             50|               P|                    v_opcode: "v128.or" (80) 0x24f-0x250 (1)
     |                                               |                |                  [11]{}: in 0x250-0x252 (2)
0x250|41                                             |A               |                    opcode: "i32.const" (0x41) 0x250-0x251 (1)
0x250|   00                                          | .              |                    n: 0 (valid) 0x251-0x252 (1)
     |                                               |                |                  [12]{}: in 0x252-0x256 (4)
0x250|      fd                                       |  .             |                    opcode: "vector" (0xfd) 0x252-0x253 (1)
0x250|         00                                    |   .            |                    v_opcode: "v128.load" (0) 0x253-0x254 (1)
     |                                               |                |                    m{}: 0x254-0x256 (2)
0x250|            04                                 |    .           |                      a: 4 (valid) 0x254-0x255 (1)
0x250|               00                              |     .          |                      o: 0 (valid) 0x255-0x256 (1)
     |                                               |                |                  [13]{}: in 0x256-0x258 (2)
0x250|                  41                           |      A         |                    opcode: "i32.const" (0x41) 0x256-0x257 (1)
0x250|                     01                        |       .        |                    n: 1 (valid) 0x257-0x258 (1)
     |                                               |                |                  [14]{}: in 0x258-0x25c (4)
0x250|                        fd                     |        .       |                    opcode: "vector" (0xfd) 0x258-0x259 (1)
0x250|                           00                  |         .      |                    v_opcode: "v128.load" (0) 0x259-0x25a (1)
     |                                               |                |                    m{}: 0x25a-0x25c (2)
0x250|                              04               |          .     |                      a: 4 (valid) 0x25a-0x25b (1)
0x250|                                 00            |           .    |                      o: 0 (valid) 0x25b-0x25c (1)
     |                                               |                |                  [15]{}: in 0x25c-0x25e (2)
0x250|                                    fd         |            .   |                    opcode: "vector" (0xfd) 0x25c-0x25d (1)
0x250|                                       50      |             P  |                    v_opcode: "v128.or" (80) 0x25d-0x25e (1)
     |                                               |                |                  [16]{}: in 0x25e-0x260 (2)
0x250|                                          41   |              A |                    opcode: "i32.const" (0x41) 0x25e-0x25f (1)
0x250|                                             00|               .|                    n: 0 (valid) 0x25f-0x260 (1)
     |                                               |                |                  [17]{}: in 0x260-0x264 (4)
0x260|fd                                             |.               |                    opcode: "vector" (0xfd) 0x260-0x261 (1)
0x260|   00                                          | .              |                    v_opcode: "v128.load" (0) 0x261-0x262 (1)
     |                                               |                |                    m{}: 0x262-0x264 (2)
0x260|      04                                       |  .             |                      a: 4 (valid) 0x262-0x263 (1)
0x260|         00                                    |   .            |                      o: 0 (valid) 0x263-0x264 (1)
     |                                               |                |                  [18]{}: in 0x264-0x266 (2)
0x260|            41                                 |    A           |                    opcode: "i32.const" (0x41) 0x264-0x265 (1)
0x260|               01                              |     .          |                    n: 1 (valid) 0x265-0x266 (1)
     |                                               |                |                  [19]{}: in 0x266-0x26a (4)
0x260|                  fd                           |      .         |                    opcode: "vector" (0xfd) 0x266-0x267 (1)
0x260|                     00                        |       .        |                    v_opcode: "v128.load" (0) 0x267-0x268 (1)
     |                                               |                |                    m{}: 0x268-0x26a (2)
0x260|                        04                     |        .       |                      a: 4 (valid) 0x268-0x269 (1)
0x260|                           00                  |         .      |                      o: 0 (valid) 0x269-0x26a (1)
     |                                               |                |                  [20]{}: in 0x26a-0x26c (2)
0x260|                              fd               |          .     |                    opcode: "vector" (0xfd) 0x26a-0x26b (1)
0x260|                                 50            |           P    |                    v_opcode: "v128.or" (80) 0x26b-0x26c (1)
     |                                               |                |                  [21]{}: in 0x26c-0x26e (2)
0x260|                                    fd         |            .   |                    opcode: "vector" (0xfd) 0x26c-0x26d (1)
0x260|                                       50      |             P  |                    v_opcode: "v128.or" (80) 0x26d-0x26e (1)
     |                                               |                |                  [22]{}: in 0x26e-0x270 (2)
0x260|                                          fd   |              . |                    opcode: "vector" (0xfd) 0x26e-0x26f (1)
0x260|                                             50|               P|                    v_opcode: "v128.or" (80) 0x26f-0x270 (1)
     |                                               |                |                  [23]{}: in 0x270-0x271 (1)
0x270|1a                                             |.               |                    opcode: "drop" (0x1a) 0x270-0x271 (1)
     |                                               |                |                  [24]{}: in 0x271-0x272 (1)
0x270|   0b                                          | .              |                    opcode: "end" (0xb) 0x271-0x272 (1)
     |                                               |                |            [9]{}: code 0x272-0x2b4 (66)
0x270|      41                                       |  A             |              size: 65 (valid) 0x272-0x273 (1)
     |                                               |                |              code{}: 0x273-0x2b4 (65)
     |                                               |                |                t{}: 0x273-0x274 (1)
0x270|         00                                    |   .            |                  n: 0 (valid) 0x273-0x274 (1)
     |                                               |                |                  x[0:0]: 0x274-0x274 (0)
     |                                               |                |                e[0:25]: 0x274-0x2b4 (64)
     |                                               |                |                  [0]{}: in 0x274-0x276 (2)
0x270|            41                                 |    A           |                    opcode: "i32.const" (0x41) 0x274-0x275 (1)
0x270|               00                              |     .          |                    n: 0 (valid) 0x275-0x276 (1)
     |                                               |                |                  [1]{}: in 0x276-0x27a (4)
0x270|                  fd                           |      .         |                    opcode: "vector" (0xfd) 0x276-0x277 (1)
0x270|                     00                        |       .        |                    v_opcode: "v128.load" (0) 0x277-0x278 (1)
     |                                               |                |                    m{}: 0x278-0x27a (2)
0x270|                        04                     |        .       |                      a: 4 (valid) 0x278-0x279 (1)
0x270|                           00                  |         .      |                      o: 0 (valid) 0x279-0x27a (1)
     |                                               |                |                  [2]{}: in 0x27a-0x27c (2)
0x270|                              41               |          A     |                    opcode: "i32.const" (0x41) 0x27a-0x27b (1)
0x270|                                 01            |           .    |                    n: 1 (valid) 0x27b-0x27c (1)
     |                                               |                |                  [3]{}: in 0x27c-0x280 (4)
0x270|                                    fd         |            .   |                    opcode: "vector" (0xfd) 0x27c-0x27d (1)
0x270|                                       00      |             .  |                    v_opcode: "v128.load" (0) 0x27d-0x27e (1)
     |                                               |                |                    m{}: 0x27e-0x280 (2)
0x270|                                          04   |              . |                      a: 4 (valid) 0x27e-0x27f (1)
0x270|                                             00|               .|                      o: 0 (valid) 0x27f-0x280 (1)
     |                                               |                |                  [4]{}: in 0x280-0x282 (2)
0x280|fd                                             |.               |                    opcode: "vector" (0xfd) 0x280-0x281 (1)
0x280|   51                                          | Q              |                    v_opcode: "v128.xor" (81) 0x281-0x282 (1)
     |                                               |                |                  [5]{}: in 0x282-0x284 (2)
0x280|      41                                       |  A             |                    opcode: "i32.const" (0x41) 0x282-0x283 (1)
0x280|         00                                    |   .            |                    n: 0 (valid) 0x283-0x284 (1)
     |                                               |                |                  [6]{}: in 0x284-0x288 (4)
0x280|            fd                                 |    .           |                    opcode: "vector" (0xfd) 0x284-0x285 (1)
0x280|               00                              |     .          |                    v_opcode: "v128.load" (0) 0x285-0x286 (1)
     |                                               |                |                    m{}: 0x286-0x288 (2)
0x280|                  04                           |      .         |                      a: 4 (valid) 0x286-0x287 (1)
0x280|                     00                        |       .        |                      o: 0 (valid) 0x287-0x288 (1)
     |                                               |                |                  [7]{}: in 0x288-0x28a (2)
0x280|                        41                     |        A       |                    opcode: "i32.const" (0x41) 0x288-0x289 (1)
0x280|                           01                  |         .      |                    n: 1 (valid) 0x289-0x28a (1)
     |                                               |                |                  [8]{}: in 0x28a-0x28e (4)
0x280|                              fd               |          .     |                    opcode: "vector" (0xfd) 0x28a-0x28b (1)
0x280|                                 00            |           .    |                    v_opcode: "v128.load" (0) 0x28b-0x28c (1)
     |                                               |                |                    m{}: 0x28c-0x28e (2)
0x280|                                    04         |            .   |                      a: 4 (valid) 0x28c-0x28d (1)
0x280|                                       00      |             .  |                      o: 0 (valid) 0x28d-0x28e (1)
     |                                               |                |                  [9]{}: in 0x28e-0x290 (2)
0x280|                                          fd   |              . |                    opcode: "vector" (0xfd) 0x28e-0x28f (1)
0x280|                                             51|               Q|                    v_opcode: "v128.xor" (81) 0x28f-0x290 (1)
     |                                               |                |                  [10]{}: in 0x290-0x292 (2)
0x290|fd                                             |.               |                    opcode: "vector" (0xfd) 0x290-0x291 (1)
0x290|   51                                          | Q              |                    v_opcode: "v128.xor" (81) 0x291-0x292 (1)
     |                                               |                |                  [11]{}: in 0x292-0x294 (2)
0x290|      41                                       |  A             |                    opcode: "i32.const" (0x41) 0x292-0x293 (1)
0x290|         00                                    |   .            |                    n: 0 (valid) 0x293-0x294 (1)
     |                                               |                |                  [12]{}: in 0x294-0x298 (4)
0x290|            fd                                 |    .           |                    opcode: "vector" (0xfd) 0x294-0x295 (1)
0x290|               00                              |     .          |                    v_opcode: "v128.load" (0) 0x295-0x296 (1)
     |                                               |                |                    m{}: 0x296-0x298 (2)
0x290|                  04                           |      .         |                      a: 4 (valid) 0x296-0x297 (1)
0x290|                     00                        |       .        |                      o: 0 (valid) 0x297-0x298 (1)
     |                                               |                |                  [13]{}: in 0x298-0x29a (2)
0x290|                        41                     |        A       |                    opcode: "i32.const" (0x41) 0x298-0x299 (1)
0x290|                           01                  |         .      |                    n: 1 (valid) 0x299-0x29a (1)
     |                                               |                |                  [14]{}: in 0x29a-0x29e (4)
0x290|                              fd               |          .     |                    opcode: "vector" (0xfd) 0x29a-0x29b (1)
0x290|                                 00            |           .    |                    v_opcode: "v128.load" (0) 0x29b-0x29c (1)
     |                                               |                |                    m{}: 0x29c-0x29e (2)
0x290|                                    04         |            .   |                      a: 4 (valid) 0x29c-0x29d (1)
0x290|                                       00      |             .  |                      o: 0 (valid) 0x29d-0x29e (1)
     |                                               |                |                  [15]{}: in 0x29e-0x2a0 (2)
0x290|                                          fd   |              . |                    opcode: "vector" (0xfd) 0x29e-0x29f (1)
0x290|                                             51|               Q|                    v_opcode: "v128.xor" (81) 0x29f-0x2a0 (1)
     |                                               |                |                  [16]{}: in 0x2a0-0x2a2 (2)
0x2a0|41                                             |A               |                    opcode: "i32.const" (0x41) 0x2a0-0x2a1 (1)
0x2a0|   00                                          | .              |                    n: 0 (valid) 0x2a1-0x2a2 (1)
     |                                               |                |                  [17]{}: in 0x2a2-0x2a6 (4)
0x2a0|      fd                                       |  .             |                    opcode: "vector" (0xfd) 0x2a2-0x2a3 (1)
0x2a0|         00                                    |   .            |                    v_opcode: "v128.load" (0) 0x2a3-0x2a4 (1)
     |                                               |                |                    m{}: 0x2a4-0x2a6 (2)
0x2a0|            04                                 |    .           |                      a: 4 (valid) 0x2a4-0x2a5 (1)
0x2a0|               00                              |     .          |                      o: 0 (valid) 0x2a5-0x2a6 (1)
     |                                               |                |                  [18]{}: in 0x2a6-0x2a8 (2)
0x2a0|                  41                           |      A         |                    opcode: "i32.const" (0x41) 0x2a6-0x2a7 (1)
0x2a0|                     01                        |       .        |                    n: 1 (valid) 0x2a7-0x2a8 (1)
     |                                               |                |                  [19]{}: in 0x2a8-0x2ac (4)
0x2a0|                        fd                     |        .       |                    opcode: "vector" (0xfd) 0x2a8-0x2a9 (1)
0x2a0|                           00                  |         .      |                    v_opcode: "v128.load" (0) 0x2a9-0x2aa (1)
     |                                               |                |                    m{}: 0x2aa-0x2ac (2)
0x2a0|                              04               |          .     |                      a: 4 (valid) 0x2aa-0x2ab (1)
0x2a0|                                 00            |           .    |                      o: 0 (valid) 0x2ab-0x2ac (1)
     |                                               |                |                  [20]{}: in 0x2ac-0x2ae (2)
0x2a0|                                    fd         |            .   |                    opcode: "vector" (0xfd) 0x2ac-0x2ad (1)
0x2a0|                                       51      |             Q  |                    v_opcode: "v128.xor" (81) 0x2ad-0x2ae (1)
     |                                               |                |                  [21]{}: in 0x2ae-0x2b0 (2)
0x2a0|                                          fd   |              . |                    opcode: "vector" (0xfd) 0x2ae-0x2af (1)
0x2a0|                                             51|               Q|                    v_opcode: "v128.xor" (81) 0x2af-0x2b0 (1)
     |                                               |                |                  [22]{}: in 0x2b0-0x2b2 (2)
0x2b0|fd                                             |.               |                    opcode: "vector" (0xfd) 0x2b0-0x2b1 (1)
0x2b0|   51                                          | Q              |                    v_opcode: "v128.xor" (81) 0x2b1-0x2b2 (1)
     |                                               |                |                  [23]{}: in 0x2b2-0x2b3 (1)
0x2b0|      1a                                       |  .             |                    opcode: "drop" (0x1a) 0x2b2-0x2b3 (1)
     |                                               |                |                  [24]{}: in 0x2b3-0x2b4 (1)
0x2b0|         0b                                    |   .            |                    opcode: "end" (0xb) 0x2b3-0x2b4 (1)
     |                                               |                |            [10]{}: code 0x2b4-0x375 (193)
0x2b0|            bf 01                              |    ..          |              size: 191 (valid) 0x2b4-0x2b6 (2)
     |                                               |                |              code{}: 0x2b6-0x375 (191)
     |                                               |                |                t{}: 0x2b6-0x2b7 (1)
0x2b0|                  00                           |      .         |                  n: 0 (valid) 0x2b6-0x2b7 (1)
     |                                               |                |                  x[0:0]: 0x2b7-0x2b7 (0)
     |                                               |                |                e[0:69]: 0x2b7-0x375 (190)
     |                                               |                |                  [0]{}: in 0x2b7-0x2b9 (2)
0x2b0|                     41                        |       A        |                    opcode: "i32.const" (0x41) 0x2b7-0x2b8 (1)
0x2b0|                        00                     |        .       |                    n: 0 (valid) 0x2b8-0x2b9 (1)
     |                                               |                |                  [1]{}: in 0x2b9-0x2bd (4)
0x2b0|                           fd                  |         .      |                    opcode: "vector" (0xfd) 0x2b9-0x2ba (1)
0x2b0|                              00               |          .     |                    v_opcode: "v128.load" (0) 0x2ba-0x2bb (1)
     |                                               |                |                    m{}: 0x2bb-0x2bd (2)
0x2b0|                                 04            |           .    |                      a: 4 (valid) 0x2bb-0x2bc (1)
0x2b0|                                    00         |            .   |                      o: 0 (valid) 0x2bc-0x2bd (1)
     |                                               |                |                  [2]{}: in 0x2bd-0x2bf (2)
0x2b0|                                       41      |             A  |                    opcode: "i32.const" (0x41) 0x2bd-0x2be (1)
0x2b0|                                          01   |              . |                    n: 1 (valid) 0x2be-0x2bf (1)
     |                                               |                |                  [3]{}: in 0x2bf-0x2c3 (4)
0x2b0|                                             fd|               .|                    opcode: "vector" (0xfd) 0x2bf-0x2c0 (1)
0x2c0|00                                             |.               |                    v_opcode: "v128.load" (0) 0x2c0-0x2c1 (1)
     |                                               |                |                    m{}: 0x2c1-0x2c3 (2)
0x2c0|   04                                          | .              |                      a: 4 (valid) 0x2c1-0x2c2 (1)
0x2c0|      00                                       |  .             |                      o: 0 (valid) 0x2c2-0x2c3 (1)
     |                                               |                |                  [4]{}: in 0x2c3-0x2c5 (2)
0x2c0|         41                                    |   A            |                    opcode: "i32.const" (0x41) 0x2c3-0x2c4 (1)
0x2c0|            02                                 |    .           |                    n: 2 (valid) 0x2c4-0x2c5 (1)
     |                                               |                |                  [5]{}: in 0x2c5-0x2c9 (4)
0x2c0|               fd                              |     .          |                    opcode: "vector" (0xfd) 0x2c5-0x2c6 (1)
0x2c0|                  00                           |      .         |                    v_opcode: "v128.load" (0) 0x2c6-0x2c7 (1)
     |                                               |                |                    m{}: 0x2c7-0x2c9 (2)
0x2c0|                     04                        |       .        |                      a: 4 (valid) 0x2c7-0x2c8 (1)
0x2c0|                        00                     |        .       |                      o: 0 (valid) 0x2c8-0x2c9 (1)
     |                                               |                |                  [6]{}: in 0x2c9-0x2cb (2)
0x2c0|                           fd                  |         .      |                    opcode: "vector" (0xfd) 0x2c9-0x2ca (1)
0x2c0|                              52               |          R     |                    v_opcode: "v128.bitselect" (82) 0x2ca-0x2cb (1)
     |                                               |                |                  [7]{}: in 0x2cb-0x2cd (2)
0x2c0|                                 41            |           A    |                    opcode: "i32.const" (0x41) 0x2cb-0x2cc (1)
0x2c0|                                    00         |            .   |                    n: 0 (valid) 0x2cc-0x2cd (1)
     |                                               |                |                  [8]{}: in 0x2cd-0x2d1 (4)
0x2c0|                                       fd      |             .  |                    opcode: "vector" (0xfd) 0x2cd-0x2ce (1)
0x2c0|                                          00   |              . |                    v_opcode: "v128.load" (0) 0x2ce-0x2cf (1)
     |                                               |                |                    m{}: 0x2cf-0x2d1 (2)
0x2c0|                                             04|               .|                      a: 4 (valid) 0x2cf-0x2d0 (1)
0x2d0|00                                             |.               |                      o: 0 (valid) 0x2d0-0x2d1 (1)
     |                                               |                |                  [9]{}: in 0x2d1-0x2d3 (2)
0x2d0|   41                                          | A              |                    opcode: "i32.const" (0x41) 0x2d1-0x2d2 (1)
0x2d0|      01                                       |  .             |                    n: 1 (valid) 0x2d2-0x2d3 (1)
     |                                               |                |                  [10]{}: in 0x2d3-0x2d7 (4)
0x2d0|         fd                                    |   .            |                    opcode: "vector" (0xfd) 0x2d3-0x2d4 (1)
0x2d0|            00                                 |    .           |                    v_opcode: "v128.load" (0) 0x2d4-0x2d5 (1)
     |                                               |                |                    m{}: 0x2d5-0x2d7 (2)
0x2d0|               04                              |     .          |                      a: 4 (valid) 0x2d5-0x2d6 (1)
0x2d0|                  00                           |      .         |                      o: 0 (valid) 0x2d6-0x2d7 (1)
     |                                               |                |                  [11]{}: in 0x2d7-0x2d9 (2)
0x2d0|                     41                        |       A        |                    opcode: "i32.const" (0x41) 0x2d7-0x2d8 (1)
0x2d0|                        02                     |        .       |                    n: 2 (valid) 0x2d8-0x2d9 (1)
     |                                               |                |                  [12]{}: in 0x2d9-0x2dd (4)
0x2d0|                           fd                  |         .      |                    opcode: "vector" (0xfd) 0x2d9-0x2da (1)
0x2d0|                              00               |          .     |                    v_opcode: "v128.load" (0) 0x2da-0x2db (1)
     |                                               |                |                    m{}: 0x2db-0x2dd (2)
0x2d0|                                 04            |           .    |                      a: 4 (valid) 0x2db-0x2dc (1)
0x2d0|                                    00         |            .   |                      o: 0 (valid) 0x2dc-0x2dd (1)
     |                                               |                |                  [13]{}: in 0x2dd-0x2df (2)
0x2d0|                                       fd      |             .  |                    opcode: "vector" (0xfd) 0x2dd-0x2de (1)
0x2d0|                                          52   |              R |                    v_opcode: "v128.bitselect" (82) 0x2de-0x2df (1)
     |                                               |                |                  [14]{}: in 0x2df-0x2e1 (2)
0x2d0|                                             41|               A|                    opcode: "i32.const" (0x41) 0x2df-0x2e0 (1)
0x2e0|00                                             |.               |                    n: 0 (valid) 0x2e0-0x2e1 (1)
     |                                               |                |                  [15]{}: in 0x2e1-0x2e5 (4)
0x2e0|   fd                                          | .              |                    opcode: "vector" (0xfd) 0x2e1-0x2e2 (1)
0x2e0|      00                                       |  .             |                    v_opcode: "v128.load" (0) 0x2e2-0x2e3 (1)
     |                                               |                |                    m{}: 0x2e3-0x2e5 (2)
0x2e0|         04                                    |   .            |                      a: 4 (valid) 0x2e3-0x2e4 (1)
0x2e0|            00                                 |    .           |                      o: 0 (valid) 0x2e4-0x2e5 (1)
     |                                               |                |                  [16]{}: in 0x2e5-0x2e7 (2)
0x2e0|               41                              |     A          |                    opcode: "i32.const" (0x41) 0x2e5-0x2e6 (1)
0x2e0|                  01                           |      .         |                    n: 1 (valid) 0x2e6-0x2e7 (1)
     |                                               |                |                  [17]{}: in 0x2e7-0x2eb (4)
0x2e0|                     fd                        |       .        |                    opcode: "vector" (0xfd) 0x2e7-0x2e8 (1)
0x2e0|                        00                     |        .       |                    v_opcode: "v128.load" (0) 0x2e8-0x2e9 (1)
     |                                               |                |                    m{}: 0x2e9-0x2eb (2)
0x2e0|                           04                  |         .      |                      a: 4 (valid) 0x2e9-0x2ea (1)
0x2e0|                              00               |          .     |                      o: 0 (valid) 0x2ea-0x2eb (1)
     |                                               |                |                  [18]{}: in 0x2eb-0x2ed (2)
0x2e0|                                 41            |           A    |                    opcode: "i32.const" (0x41) 0x2eb-0x2ec (1)
0x2e0|                                    02         |            .   |                    n: 2 (valid) 0x2ec-0x2ed (1)
     |                                               |                |                  [19]{}: in 0x2ed-0x2f1 (4)
0x2e0|                                       fd      |             .  |                    opcode: "vector" (0xfd) 0x2ed-0x2ee (1)
0x2e0|                                          00   |              . |                    v_opcode: "v128.load" (0) 0x2ee-0x2ef (1)
     |                                               |                |                    m{}: 0x2ef-0x2f1 (2)
0x2e0|                                             04|               .|                      a: 4 (valid) 0x2ef-0x2f0 (1)
0x2f0|00                                             |.               |                      o: 0 (valid) 0x2f0-0x2f1 (1)
     |                                               |                |                  [20]{}: in 0x2f1-0x2f3 (2)
0x2f0|   fd                                          | .              |                    opcode: "vector" (0xfd) 0x2f1-0x2f2 (1)
0x2f0|      52                                       |  R             |                    v_opcode: "v128.bitselect" (82) 0x2f2-0x2f3 (1)
     |                                               |                |                  [21]{}: in 0x2f3-0x2f5 (2)
0x2f0|         fd                                    |   .            |                    opcode: "vector" (0xfd) 0x2f3-0x2f4 (1)
0x2f0|            52                                 |    R           |                    v_opcode: "v128.bitselect" (82) 0x2f4-0x2f5 (1)
     |                                               |                |                  [22]{}: in 0x2f5-0x2f7 (2)
0x2f0|               41                              |     A          |                    opcode: "i32.const" (0x41) 0x2f5-0x2f6 (1)
0x2f0|                  00                           |      .         |                    n: 0 (valid) 0x2f6-0x2f7 (1)
     |                                               |                |                  [23]{}: in 0x2f7-0x2fb (4)
0x2f0|                     fd                        |       .        |                    opcode: "vector" (0xfd) 0x2f7-0x2f8 (1)
0x2f0|                        00                     |        .       |                    v_opcode: "v128.load" (0) 0x2f8-0x2f9 (1)
     |                                               |                |                    m{}: 0x2f9-0x2fb (2)
0x2f0|                           04                  |         .      |                      a: 4 (valid) 0x2f9-0x2fa (1)
0x2f0|                              00               |          .     |                      o: 0 (valid) 0x2fa-0x2fb (1)
     |                                               |                |                  [24]{}: in 0x2fb-0x2fd (2)
0x2f0|                                 41            |           A    |                    opcode: "i32.const" (0x41) 0x2fb-0x2fc (1)
0x2f0|                                    01         |            .   |                    n: 1 (valid) 0x2fc-0x2fd (1)
     |                                               |                |                  [25]{}: in 0x2fd-0x301 (4)
0x2f0|                                       fd      |             .  |                    opcode: "vector" (0xfd) 0x2fd-0x2fe (1)
0x2f0|                                          00   |              . |                    v_opcode: "v128.load" (0) 0x2fe-0x2ff (1)
     |                                               |                |                    m{}: 0x2ff-0x301 (2)
0x2f0|                                             04|               .|                      a: 4 (valid) 0x2ff-0x300 (1)
0x300|00                                             |.               |                      o: 0 (valid) 0x300-0x301 (1)
     |                                               |                |                  [26]{}: in 0x301-0x303 (2)
0x300|   41                                          | A              |                    opcode: "i32.const" (0x41) 0x301-0x302 (1)
0x300|      02                                       |  .             |                    n: 2 (valid) 0x302-0x303 (1)
     |                                               |                |                  [27]{}: in 0x303-0x307 (4)
0x300|         fd                                    |   .            |                    opcode: "vector" (0xfd) 0x303-0x304 (1)
0x300|            00                                 |    .           |                    v_opcode: "v128.load" (0) 0x304-0x305 (1)
     |                                               |                |                    m{}: 0x305-0x307 (2)
0x300|               04                              |     .          |                      a: 4 (valid) 0x305-0x306 (1)
0x300|                  00                           |      .         |                      o: 0 (valid) 0x306-0x307 (1)
     |                                               |                |                  [28]{}: in 0x307-0x309 (2)
0x300|                     fd                        |       .        |                    opcode: "vector" (0xfd) 0x307-0x308 (1)
0x300|                        52                     |        R       |                    v_opcode: "v128.bitselect" (82) 0x308-0x309 (1)
     |                                               |                |                  [29]{}: in 0x309-0x30b (2)
0x300|                           41                  |         A      |                    opcode: "i32.const" (0x41) 0x309-0x30a (1)
0x300|                              00               |          .     |                    n: 0 (valid) 0x30a-0x30b (1)
     |                                               |                |                  [30]{}: in 0x30b-0x30f (4)
0x300|                                 fd            |           .    |                    opcode: "vector" (0xfd) 0x30b-0x30c (1)
0x300|                                    00         |            .   |                    v_opcode: "v128.load" (0) 0x30c-0x30d (1)
     |                                               |                |                    m{}: 0x30d-0x30f (2)
0x300|                                       04      |             .  |                      a: 4 (valid) 0x30d-0x30e (1)
0x300|                                          00   |              . |                      o: 0 (valid) 0x30e-0x30f (1)
     |                                               |                |                  [31]{}: in 0x30f-0x311 (2)
0x300|                                             41|               A|                    opcode: "i32.const" (0x41) 0x30f-0x310 (1)
0x310|01                                             |.               |                    n: 1 (valid) 0x310-0x311 (1)
     |                                               |                |                  [32]{}: in 0x311-0x315 (4)
0x310|   fd                                          | .              |                    opcode: "vector" (0xfd) 0x311-0x312 (1)
0x310|      00                                       |  .             |                    v_opcode: "v128.load" (0) 0x312-0x313 (1)
     |                                               |                |                    m{}: 0x313-0x315 (2)
0x310|         04                                    |   .            |                      a: 4 (valid) 0x313-0x314 (1)
0x310|            00                                 |    .           |                      o: 0 (valid) 0x314-0x315 (1)
     |                                               |                |                  [33]{}: in 0x315-0x317 (2)
0x310|               41                              |     A          |                    opcode: "i32.const" (0x41) 0x315-0x316 (1)
0x310|                  02                           |      .         |                    n: 2 (valid) 0x316-0x317 (1)
     |                                               |                |                  [34]{}: in 0x317-0x31b (4)
0x310|                     fd                        |       .        |                    opcode: "vector" (0xfd) 0x317-0x318 (1)
0x310|                        00                     |        .       |                    v_opcode: "v128.load" (0) 0x318-0x319 (1)
     |                                               |                |                    m{}: 0x319-0x31b (2)
0x310|                           04                  |         .      |                      a: 4 (valid) 0x319-0x31a (1)
0x310|                              00               |          .     |                      o: 0 (valid) 0x31a-0x31b (1)
     |                                               |                |                  [35]{}: in 0x31b-0x31d (2)
0x310|                                 fd            |           .    |                    opcode: "vector" (0xfd) 0x31b-0x31c (1)
0x310|                                    52         |            R   |                    v_opcode: "v128.bitselect" (82) 0x31c-0x31d (1)
     |                                               |                |                  [36]{}: in 0x31d-0x31f (2)
0x310|                                       41      |             A  |                    opcode: "i32.const" (0x41) 0x31d-0x31e (1)
0x310|                                          00   |              . |                    n: 0 (valid) 0x31e-0x31f (1)
     |                                               |                |                  [37]{}: in 0x31f-0x323 (4)
0x310|                                             fd|               .|                    opcode: "vector" (0xfd) 0x31f-0x320 (1)
0x320|00                                             |.               |                    v_opcode: "v128.load" (0) 0x320-0x321 (1)
     |                                               |                |                    m{}: 0x321-0x323 (2)
0x320|   04                                          | .              |                      a: 4 (valid) 0x321-0x322 (1)
0x320|      00                                       |  .             |                      o: 0 (valid) 0x322-0x323 (1)
     |                                               |                |                  [38]{}: in 0x323-0x325 (2)
0x320|         41                                    |   A            |                    opcode: "i32.const" (0x41) 0x323-0x324 (1)
0x320|            01                                 |    .           |                    n: 1 (valid) 0x324-0x325 (1)
     |                                               |                |                  [39]{}: in 0x325-0x329 (4)
0x320|               fd                              |     .          |                    opcode: "vector" (0xfd) 0x325-0x326 (1)
0x320|                  00                           |      .         |                    v_opcode: "v128.load" (0) 0x326-0x327 (1)
     |                                               |                |                    m{}: 0x327-0x329 (2)
0x320|                     04                        |       .        |                      a: 4 (valid) 0x327-0x328 (1)
0x320|                        00                     |        .       |                      o: 0 (valid) 0x328-0x329 (1)
     |                                               |                |                  [40]{}: in 0x329-0x32b (2)
0x320|                           41                  |         A      |                    opcode: "i32.const" (0x41) 0x329-0x32a (1)
0x320|                              02               |          .     |                    n: 2 (valid) 0x32a-0x32b (1)
     |                                               |                |                  [41]{}: in 0x32b-0x32f (4)
0x320|                                 fd            |           .    |                    opcode: "vector" (0xfd) 0x32b-0x32c (1)
0x320|                                    00         |            .   |                    v_opcode: "v128.load" (0) 0x32c-0x32d (1)
     |                                               |                |                    m{}: 0x32d-0x32f (2)
0x320|                                       04      |             .  |                      a: 4 (valid) 0x32d-0x32e (1)
0x320|                                          00   |              . |                      o: 0 (valid) 0x32e-0x32f (1)
     |                                               |                |                  [42]{}: in 0x32f-0x331 (2)
0x320|                                             fd|               .|                    opcode: "vector" (0xfd) 0x32f-0x330 (1)
0x330|52                                             |R               |                    v_opcode: "v128.bitselect" (82) 0x330-0x331 (1)
     |                                               |                |                  [43]{}: in 0x331-0x333 (2)
0x330|   fd                                          | .              |                    opcode: "vector" (0xfd) 0x331-0x332 (1)
0x330|      52                                       |  R             |                    v_opcode: "v128.bitselect" (82) 0x332-0x333 (1)
     |                                               |                |                  [44]{}: in 0x333-0x335 (2)
0x330|         41                                    |   A            |                    opcode: "i32.const" (0x41) 0x333-0x334 (1)
0x330|            00                                 |    .           |                    n: 0 (valid) 0x334-0x335 (1)
     |                                               |                |                  [45]{}: in 0x335-0x339 (4)
0x330|               fd                              |     .          |                    opcode: "vector" (0xfd) 0x335-0x336 (1)
0x330|                  00                           |      .         |                    v_opcode: "v128.load" (0) 0x336-0x337 (1)
     |                                               |                |                    m{}: 0x337-0x339 (2)
0x330|                     04                        |       .        |                      a: 4 (valid) 0x337-0x338 (1)
0x330|                        00                     |        .       |                      o: 0 (valid) 0x338-0x339 (1)
     |                                               |                |                  [46]{}: in 0x339-0x33b (2)
0x330|                           41                  |         A      |                    opcode: "i32.const" (0x41) 0x339-0x33a (1)
0x330|                              01               |          .     |                    n: 1 (valid) 0x33a-0x33b (1)
     |                                               |                |                  [47]{}: in 0x33b-0x33f (4)
0x330|                                 fd            |           .    |                    opcode: "vector" (0xfd) 0x33b-0x33c (1)
0x330|                                    00         |            .   |                    v_opcode: "v128.load" (0) 0x33c-0x33d (1)
     |                                               |                |                    m{}: 0x33d-0x33f (2)
0x330|                                       04      |             .  |                      a: 4 (valid) 0x33d-0x33e (1)
0x330|                                          00   |              . |                      o: 0 (valid) 0x33e-0x33f (1)
     |                                               |                |                  [48]{}: in 0x33f-0x341 (2)
0x330|                                             41|               A|                    opcode: "i32.const" (0x41) 0x33f-0x340 (1)
0x340|02                                             |.               |                    n: 2 (valid) 0x340-0x341 (1)
     |                                               |                |                  [49]{}: in 0x341-0x345 (4)
0x340|   fd                                          | .              |                    opcode: "vector" (0xfd) 0x341-0x342 (1)
0x340|      00                                       |  .             |                    v_opcode: "v128.load" (0) 0x342-0x343 (1)
     |                                               |                |                    m{}: 0x343-0x345 (2)
0x340|         04                                    |   .            |                      a: 4 (valid) 0x343-0x344 (1)
0x340|            00                                 |    .           |                      o: 0 (valid) 0x344-0x345 (1)
     |                                               |                |                  [50]{}: in 0x345-0x347 (2)
0x340|               fd                              |     .          |                    opcode: "vector" (0xfd) 0x345-0x346 (1)
0x340|                  52                           |      R         |                    v_opcode: "v128.bitselect" (82) 0x346-0x347 (1)
     |                                               |                |                  [51]{}: in 0x347-0x349 (2)
0x340|                     41                        |       A        |                    opcode: "i32.const" (0x41) 0x347-0x348 (1)
0x340|                        00                     |        .       |                    n: 0 (valid) 0x348-0x349 (1)
     |                                               |                |                  [52]{}: in 0x349-0x34d (4)
0x340|                           fd                  |         .      |                    opcode: "vector" (0xfd) 0x349-0x34a (1)
0x340|                              00               |          .     |                    v_opcode: "v128.load" (0) 0x34a-0x34b (1)
     |                                               |                |                    m{}: 0x34b-0x34d (2)
0x340|                                 04            |           .    |                      a: 4 (valid) 0x34b-0x34c (1)
0x340|                                    00         |            .   |                      o: 0 (valid) 0x34c-0x34d (1)
     |                                               |                |                  [53]{}: in 0x34d-0x34f (2)
0x340|                                       41      |             A  |                    opcode: "i32.const" (0x41) 0x34d-0x34e (1)
0x340|                                          01   |              . |                    n: 1 (valid) 0x34e-0x34f (1)
     |                                               |                |                  [54]{}: in 0x34f-0x353 (4)
0x340|                                             fd|               .|                    opcode: "vector" (0xfd) 0x34f-0x350 (1)
0x350|00                                             |.               |                    v_opcode: "v128.load" (0) 0x350-0x351 (1)
     |                                               |                |                    m{}: 0x351-0x353 (2)
0x350|   04                                          | .              |                      a: 4 (valid) 0x351-0x352 (1)
0x350|      00                                       |  .             |                      o: 0 (valid) 0x352-0x353 (1)
     |                                               |                |                  [55]{}: in 0x353-0x355 (2)
0x350|         41                                    |   A            |                    opcode: "i32.const" (0x41) 0x353-0x354 (1)
0x350|            02                                 |    .           |                    n: 2 (valid) 0x354-0x355 (1)
     |                                               |                |                  [56]{}: in 0x355-0x359 (4)
0x350|               fd                              |     .          |                    opcode: "vector" (0xfd) 0x355-0x356 (1)
0x350|                  00                           |      .         |                    v_opcode: "v128.load" (0) 0x356-0x357 (1)
     |                                               |                |                    m{}: 0x357-0x359 (2)
0x350|                     04                        |       .        |                      a: 4 (valid) 0x357-0x358 (1)
0x350|                        00                     |        .       |                      o: 0 (valid) 0x358-0x359 (1)
     |                                               |                |                  [57]{}: in 0x359-0x35b (2)
0x350|                           fd                  |         .      |                    opcode: "vector" (0xfd) 0x359-0x35a (1)
0x350|                              52               |          R     |                    v_opcode: "v128.bitselect" (82) 0x35a-0x35b (1)
     |                                               |                |                  [58]{}: in 0x35b-0x35d (2)
0x350|                                 41            |           A    |                    opcode: "i32.const" (0x41) 0x35b-0x35c (1)
0x350|                                    00         |            .   |                    n: 0 (valid) 0x35c-0x35d (1)
     |                                               |                |                  [59]{}: in 0x35d-0x361 (4)
0x350|                                       fd      |             .  |                    opcode: "vector" (0xfd) 0x35d-0x35e (1)
0x350|                                          00   |              . |                    v_opcode: "v128.load" (0) 0x35e-0x35f (1)
     |                                               |                |                    m{}: 0x35f-0x361 (2)
0x350|                                             04|               .|                      a: 4 (valid) 0x35f-0x360 (1)
0x360|00                                             |.               |                      o: 0 (valid) 0x360-0x361 (1)
     |                                               |                |                  [60]{}: in 0x361-0x363 (2)
0x360|   41                                          | A              |                    opcode: "i32.const" (0x41) 0x361-0x362 (1)
0x360|      01                                       |  .             |                    n: 1 (valid) 0x362-0x363 (1)
     |                                               |                |                  [61]{}: in 0x363-0x367 (4)
0x360|         fd                                    |   .            |                    opcode: "vector" (0xfd) 0x363-0x364 (1)
0x360|            00                                 |    .           |                    v_opcode: "v128.load" (0) 0x364-0x365 (1)
     |                                               |                |                    m{}: 0x365-0x367 (2)
0x360|               04                              |     .          |                      a: 4 (valid) 0x365-0x366 (1)
0x360|                  00                           |      .         |                      o: 0 (valid) 0x366-0x367 (1)
     |                                               |                |                  [62]{}: in 0x367-0x369 (2)
0x360|                     41                        |       A        |                    opcode: "i32.const" (0x41) 0x367-0x368 (1)
0x360|                        02                     |        .       |                    n: 2 (valid) 0x368-0x369 (1)
     |                                               |                |                  [63]{}: in 0x369-0x36d (4)
0x360|                           fd                  |         .      |                    opcode: "vector" (0xfd) 0x369-0x36a (1)
0x360|                              00               |          .     |                    v_opcode: "v128.load" (0) 0x36a-0x36b (1)
     |                                               |                |                    m{}: 0x36b-0x36d (2)
0x360|                                 04            |           .    |                      a: 4 (valid) 0x36b-0x36c (1)
0x360|                                    00         |            .   |                      o: 0 (valid) 0x36c-0x36d (1)
     |                                               |                |                  [64]{}: in 0x36d-0x36f (2)
0x360|                                       fd      |             .  |                    opcode: "vector" (0xfd) 0x36d-0x36e (1)
0x360|                                          52   |              R |                    v_opcode: "v128.bitselect" (82) 0x36e-0x36f (1)
     |                                               |                |                  [65]{}: in 0x36f-0x371 (2)
0x360|                                             fd|               .|                    opcode: "vector" (0xfd) 0x36f-0x370 (1)
0x370|52                                             |R               |                    v_opcode: "v128.bitselect" (82) 0x370-0x371 (1)
     |                                               |                |                  [66]{}: in 0x371-0x373 (2)
0x370|   fd                                          | .              |                    opcode: "vector" (0xfd) 0x371-0x372 (1)
0x370|      52                                       |  R             |                    v_opcode: "v128.bitselect" (82) 0x372-0x373 (1)
     |                                               |                |                  [67]{}: in 0x373-0x374 (1)
0x370|         1a                                    |   .            |                    opcode: "drop" (0x1a) 0x373-0x374 (1)
     |                                               |                |                  [68]{}: in 0x374-0x375 (1)
0x370|            0b                                 |    .           |                    opcode: "end" (0xb) 0x374-0x375 (1)
     |                                               |                |            [11]{}: code 0x375-0x3b7 (66)
0x370|               41                              |     A          |              size: 65 (valid) 0x375-0x376 (1)
     |                                               |                |              code{}: 0x376-0x3b7 (65)
     |                                               |                |                t{}: 0x376-0x377 (1)
0x370|                  00                           |      .         |                  n: 0 (valid) 0x376-0x377 (1)
     |                                               |                |                  x[0:0]: 0x377-0x377 (0)
     |                                               |                |                e[0:25]: 0x377-0x3b7 (64)
     |                                               |                |                  [0]{}: in 0x377-0x379 (2)
0x370|                     41                        |       A        |                    opcode: "i32.const" (0x41) 0x377-0x378 (1)
0x370|                        00                     |        .       |                    n: 0 (valid) 0x378-0x379 (1)
     |                                               |                |                  [1]{}: in 0x379-0x37d (4)
0x370|                           fd                  |         .      |                    opcode: "vector" (0xfd) 0x379-0x37a (1)
0x370|                              00               |          .     |                    v_opcode: "v128.load" (0) 0x37a-0x37b (1)
     |                                               |                |                    m{}: 0x37b-0x37d (2)
0x370|                                 04            |           .    |                      a: 4 (valid) 0x37b-0x37c (1)
0x370|                                    00         |            .   |                      o: 0 (valid) 0x37c-0x37d (1)
     |                                               |                |                  [2]{}: in 0x37d-0x37f (2)
0x370|                                       41      |             A  |                    opcode: "i32.const" (0x41) 0x37d-0x37e (1)
0x370|                                          01   |              . |                    n: 1 (valid) 0x37e-0x37f (1)
     |                                               |                |                  [3]{}: in 0x37f-0x383 (4)
0x370|                                             fd|               .|                    opcode: "vector" (0xfd) 0x37f-0x380 (1)
0x380|00                                             |.               |                    v_opcode: "v128.load" (0) 0x380-0x381 (1)
     |                                               |                |                    m{}: 0x381-0x383 (2)
0x380|   04                                          | .              |                      a: 4 (valid) 0x381-0x382 (1)
0x380|      00                                       |  .             |                      o: 0 (valid) 0x382-0x383 (1)
     |                                               |                |                  [4]{}: in 0x383-0x385 (2)
0x380|         fd                                    |   .            |                    opcode: "vector" (0xfd) 0x383-0x384 (1)
0x380|            4f                                 |    O           |                    v_opcode: "v128.andnot" (79) 0x384-0x385 (1)
     |                                               |                |                  [5]{}: in 0x385-0x387 (2)
0x380|               41                              |     A          |                    opcode: "i32.const" (0x41) 0x385-0x386 (1)
0x380|                  00                           |      .         |                    n: 0 (valid) 0x386-0x387 (1)
     |                                               |                |                  [6]{}: in 0x387-0x38b (4)
0x380|                     fd                        |       .        |                    opcode: "vector" (0xfd) 0x387-0x388 (1)
0x380|                        00                     |        .       |                    v_opcode: "v128.load" (0) 0x388-0x389 (1)
     |                                               |                |                    m{}: 0x389-0x38b (2)
0x380|                           04                  |         .      |                      a: 4 (valid) 0x389-0x38a (1)
0x380|                              00               |          .     |                      o: 0 (valid) 0x38a-0x38b (1)
     |                                               |                |                  [7]{}: in 0x38b-0x38d (2)
0x380|                                 41            |           A    |                    opcode: "i32.const" (0x41) 0x38b-0x38c (1)
0x380|                                    01         |            .   |                    n: 1 (valid) 0x38c-0x38d (1)
     |                                               |                |                  [8]{}: in 0x38d-0x391 (4)
0x380|                                       fd      |             .  |                    opcode: "vector" (0xfd) 0x38d-0x38e (1)
0x380|                                          00   |              . |                    v_opcode: "v128.load" (0) 0x38e-0x38f (1)
     |                                               |                |                    m{}: 0x38f-0x391 (2)
0x380|                                             04|               .|                      a: 4 (valid) 0x38f-0x390 (1)
0x390|00                                             |.               |                      o: 0 (valid) 0x390-0x391 (1)
     |                                               |                |                  [9]{}: in 0x391-0x393 (2)
0x390|   fd                                          | .              |                    opcode: "vector" (0xfd) 0x391-0x392 (1)
0x390|      4f                                       |  O             |                    v_opcode: "v128.andnot" (79) 0x392-0x393 (1)
     |                                               |                |                  [10]{}: in 0x393-0x395 (2)
0x390|         fd                                    |   .            |                    opcode: "vector" (0xfd) 0x393-0x394 (1)
0x390|            4f                                 |    O           |                    v_opcode: "v128.andnot" (79) 0x394-0x395 (1)
     |                                               |                |                  [11]{}: in 0x395-0x397 (2)
0x390|               41                              |     A          |                    opcode: "i32.const" (0x41) 0x395-0x396 (1)
0x390|                  00                           |      .         |                    n: 0 (valid) 0x396-0x397 (1)
     |                                               |                |                  [12]{}: in 0x397-0x39b (4)
0x390|                     fd                        |       .        |                    opcode: "vector" (0xfd) 0x397-0x398 (1)
0x390|                        00                     |        .       |                    v_opcode: "v128.load" (0) 0x398-0x399 (1)
     |                                               |                |                    m{}: 0x399-0x39b (2)
0x390|                           04                  |         .      |                      a: 4 (valid) 0x399-0x39a (1)
0x390|                              00               |          .     |                      o: 0 (valid) 0x39a-0x39b (1)
     |                                               |                |                  [13]{}: in 0x39b-0x39d (2)
0x390|                                 41            |           A    |                    opcode: "i32.const" (0x41) 0x39b-0x39c (1)
0x390|                                    01         |            .   |                    n: 1 (valid) 0x39c-0x39d (1)
     |                                               |                |                  [14]{}: in 0x39d-0x3a1 (4)
0x390|                                       fd      |             .  |                    opcode: "vector" (0xfd) 0x39d-0x39e (1)
0x390|                                          00   |              . |                    v_opcode: "v128.load" (0) 0x39e-0x39f (1)
     |                                               |                |                    m{}: 0x39f-0x3a1 (2)
0x390|                                             04|               .|                      a: 4 (valid) 0x39f-0x3a0 (1)
0x3a0|00                                             |.               |                      o: 0 (valid) 0x3a0-0x3a1 (1)
     |                                               |                |                  [15]{}: in 0x3a1-0x3a3 (2)
0x3a0|   fd                                          | .              |                    opcode: "vector" (0xfd) 0x3a1-0x3a2 (1)
0x3a0|      4f                                       |  O             |                    v_opcode: "v128.andnot" (79) 0x3a2-0x3a3 (1)
     |                                               |                |                  [16]{}: in 0x3a3-0x3a5 (2)
0x3a0|         41                                    |   A            |                    opcode: "i32.const" (0x41) 0x3a3-0x3a4 (1)
0x3a0|            00                                 |    .           |                    n: 0 (valid) 0x3a4-0x3a5 (1)
     |                                               |                |                  [17]{}: in 0x3a5-0x3a9 (4)
0x3a0|               fd                              |     .          |                    opcode: "vector" (0xfd) 0x3a5-0x3a6 (1)
0x3a0|                  00                           |      .         |                    v_opcode: "v128.load" (0) 0x3a6-0x3a7 (1)
     |                                               |                |                    m{}: 0x3a7-0x3a9 (2)
0x3a0|                     04                        |       .        |                      a: 4 (valid) 0x3a7-0x3a8 (1)
0x3a0|                        00                     |        .       |                      o: 0 (valid) 0x3a8-0x3a9 (1)
     |                                               |                |                  [18]{}: in 0x3a9-0x3ab (2)
0x3a0|                           41                  |         A      |                    opcode: "i32.const" (0x41) 0x3a9-0x3aa (1)
0x3a0|                              01               |          .     |                    n: 1 (valid) 0x3aa-0x3ab (1)
     |                                               |                |                  [19]{}: in 0x3ab-0x3af (4)
0x3a0|                                 fd            |           .    |                    opcode: "vector" (0xfd) 0x3ab-0x3ac (1)
0x3a0|                                    00         |            .   |                    v_opcode: "v128.load" (0) 0x3ac-0x3ad (1)
     |                                               |                |                    m{}: 0x3ad-0x3af (2)
0x3a0|                                       04      |             .  |                      a: 4 (valid) 0x3ad-0x3ae (1)
0x3a0|                                          00   |              . |                      o: 0 (valid) 0x3ae-0x3af (1)
     |                                               |                |                  [20]{}: in 0x3af-0x3b1 (2)
0x3a0|                                             fd|               .|                    opcode: "vector" (0xfd) 0x3af-0x3b0 (1)
0x3b0|4f                                             |O               |                    v_opcode: "v128.andnot" (79) 0x3b0-0x3b1 (1)
     |                                               |                |                  [21]{}: in 0x3b1-0x3b3 (2)
0x3b0|   fd                                          | .              |                    opcode: "vector" (0xfd) 0x3b1-0x3b2 (1)
0x3b0|      4f                                       |  O             |                    v_opcode: "v128.andnot" (79) 0x3b2-0x3b3 (1)
     |                                               |                |                  [22]{}: in 0x3b3-0x3b5 (2)
0x3b0|         fd                                    |   .            |                    opcode: "vector" (0xfd) 0x3b3-0x3b4 (1)
0x3b0|            4f                                 |    O           |                    v_opcode: "v128.andnot" (79) 0x3b4-0x3b5 (1)
     |                                               |                |                  [23]{}: in 0x3b5-0x3b6 (1)
0x3b0|               1a                              |     .          |                    opcode: "drop" (0x1a) 0x3b5-0x3b6 (1)
     |                                               |                |                  [24]{}: in 0x3b6-0x3b7 (1)
0x3b0|                  0b                           |      .         |                    opcode: "end" (0xb) 0x3b6-0x3b7 (1)
     |                                               |                |            [12]{}: code 0x3b7-0x3f3 (60)
0x3b0|                     3b                        |       ;        |              size: 59 (valid) 0x3b7-0x3b8 (1)
     |                                               |                |              code{}: 0x3b8-0x3f3 (59)
     |                                               |                |                t{}: 0x3b8-0x3b9 (1)
0x3b0|                        00                     |        .       |                  n: 0 (valid) 0x3b8-0x3b9 (1)
     |                                               |                |                  x[0:0]: 0x3b9-0x3b9 (0)
     |                                               |                |                e[0:23]: 0x3b9-0x3f3 (58)
     |                                               |                |                  [0]{}: in 0x3b9-0x3bb (2)
0x3b0|                           41                  |         A      |                    opcode: "i32.const" (0x41) 0x3b9-0x3ba (1)
0x3b0|                              00               |          .     |                    n: 0 (valid) 0x3ba-0x3bb (1)
     |                                               |                |                  [1]{}: in 0x3bb-0x3bf (4)
0x3b0|                                 fd            |           .    |                    opcode: "vector" (0xfd) 0x3bb-0x3bc (1)
0x3b0|                                    00         |            .   |                    v_opcode: "v128.load" (0) 0x3bc-0x3bd (1)
     |                                               |                |                    m{}: 0x3bd-0x3bf (2)
0x3b0|                                       04      |             .  |                      a: 4 (valid) 0x3bd-0x3be (1)
0x3b0|                                          00   |              . |                      o: 0 (valid) 0x3be-0x3bf (1)
     |                                               |                |                  [2]{}: in 0x3bf-0x3c1 (2)
0x3b0|                                             fd|               .|                    opcode: "vector" (0xfd) 0x3bf-0x3c0 (1)
0x3c0|4d                                             |M               |                    v_opcode: "v128.not" (77) 0x3c0-0x3c1 (1)
     |                                               |                |                  [3]{}: in 0x3c1-0x3c3 (2)
0x3c0|   41                                          | A              |                    opcode: "i32.const" (0x41) 0x3c1-0x3c2 (1)
0x3c0|      01                                       |  .             |                    n: 1 (valid) 0x3c2-0x3c3 (1)
     |                                               |                |                  [4]{}: in 0x3c3-0x3c7 (4)
0x3c0|         fd                                    |   .            |                    opcode: "vector" (0xfd) 0x3c3-0x3c4 (1)
0x3c0|            00                                 |    .           |                    v_opcode: "v128.load" (0) 0x3c4-0x3c5 (1)
     |                                               |                |                    m{}: 0x3c5-0x3c7 (2)
0x3c0|               04                              |     .          |                      a: 4 (valid) 0x3c5-0x3c6 (1)
0x3c0|                  00                           |      .         |                      o: 0 (valid) 0x3c6-0x3c7 (1)
     |                                               |                |                  [5]{}: in 0x3c7-0x3c9 (2)
0x3c0|                     fd                        |       .        |                    opcode: "vector" (0xfd) 0x3c7-0x3c8 (1)
0x3c0|                        4d                     |        M       |                    v_opcode: "v128.not" (77) 0x3c8-0x3c9 (1)
     |                                               |                |                  [6]{}: in 0x3c9-0x3cb (2)
0x3c0|                           fd                  |         .      |                    opcode: "vector" (0xfd) 0x3c9-0x3ca (1)
0x3c0|                              4e               |          N     |                    v_opcode: "v128.and" (78) 0x3ca-0x3cb (1)
     |                                               |                |                  [7]{}: in 0x3cb-0x3cd (2)
0x3c0|                                 41            |           A    |                    opcode: "i32.const" (0x41) 0x3cb-0x3cc (1)
0x3c0|                                    00         |            .   |                    n: 0 (valid) 0x3cc-0x3cd (1)
     |                                               |                |                  [8]{}: in 0x3cd-0x3d1 (4)
0x3c0|                                       fd      |             .  |                    opcode: "vector" (0xfd) 0x3cd-0x3ce (1)
0x3c0|                                          00   |              . |                    v_opcode: "v128.load" (0) 0x3ce-0x3cf (1)
     |                                               |                |                    m{}: 0x3cf-0x3d1 (2)
0x3c0|                                             04|               .|                      a: 4 (valid) 0x3cf-0x3d0 (1)
0x3d0|00                                             |.               |                      o: 0 (valid) 0x3d0-0x3d1 (1)
     |                                               |                |                  [9]{}: in 0x3d1-0x3d3 (2)
0x3d0|   41                                          | A              |                    opcode: "i32.const" (0x41) 0x3d1-0x3d2 (1)
0x3d0|      01                                       |  .             |                    n: 1 (valid) 0x3d2-0x3d3 (1)
     |                                               |                |                  [10]{}: in 0x3d3-0x3d7 (4)
0x3d0|         fd                                    |   .            |                    opcode: "vector" (0xfd) 0x3d3-0x3d4 (1)
0x3d0|            00                                 |    .           |                    v_opcode: "v128.load" (0) 0x3d4-0x3d5 (1)
     |                                               |                |                    m{}: 0x3d5-0x3d7 (2)
0x3d0|               04                              |     .          |                      a: 4 (valid) 0x3d5-0x3d6 (1)
0x3d0|                  00                           |      .         |                      o: 0 (valid) 0x3d6-0x3d7 (1)
     |                                               |                |                  [11]{}: in 0x3d7-0x3d9 (2)
0x3d0|                     41                        |       A        |                    opcode: "i32.const" (0x41) 0x3d7-0x3d8 (1)
0x3d0|                        02                     |        .       |                    n: 2 (valid) 0x3d8-0x3d9 (1)
     |                                               |                |                  [12]{}: in 0x3d9-0x3dd (4)
0x3d0|                           fd                  |         .      |                    opcode: "vector" (0xfd) 0x3d9-0x3da (1)
0x3d0|                              00               |          .     |                    v_opcode: "v128.load" (0) 0x3da-0x3db (1)
     |                                               |                |                    m{}: 0x3db-0x3dd (2)
0x3d0|                                 04            |           .    |                      a: 4 (valid) 0x3db-0x3dc (1)
0x3d0|                                    00         |            .   |                      o: 0 (valid) 0x3dc-0x3dd (1)
     |                                               |                |                  [13]{}: in 0x3dd-0x3df (2)
0x3d0|                                       fd      |             .  |                    opcode: "vector" (0xfd) 0x3dd-0x3de (1)
0x3d0|                                          52   |              R |                    v_opcode: "v128.bitselect" (82) 0x3de-0x3df (1)
     |                                               |                |                  [14]{}: in 0x3df-0x3e1 (2)
0x3d0|                                             41|               A|                    opcode: "i32.const" (0x41) 0x3df-0x3e0 (1)
0x3e0|00                                             |.               |                    n: 0 (valid) 0x3e0-0x3e1 (1)
     |                                               |                |                  [15]{}: in 0x3e1-0x3e5 (4)
0x3e0|   fd                                          | .              |                    opcode: "vector" (0xfd) 0x3e1-0x3e2 (1)
0x3e0|      00                                       |  .             |                    v_opcode: "v128.load" (0) 0x3e2-0x3e3 (1)
     |                                               |                |                    m{}: 0x3e3-0x3e5 (2)
0x3e0|         04                                    |   .            |                      a: 4 (valid) 0x3e3-0x3e4 (1)
0x3e0|            00                                 |    .           |                      o: 0 (valid) 0x3e4-0x3e5 (1)
     |                                               |                |                  [16]{}: in 0x3e5-0x3e7 (2)
0x3e0|               41                              |     A          |                    opcode: "i32.const" (0x41) 0x3e5-0x3e6 (1)
0x3e0|                  01                           |      .         |                    n: 1 (valid) 0x3e6-0x3e7 (1)
     |                                               |                |                  [17]{}: in 0x3e7-0x3eb (4)
0x3e0|                     fd                        |       .        |                    opcode: "vector" (0xfd) 0x3e7-0x3e8 (1)
0x3e0|                        00                     |        .       |                    v_opcode: "v128.load" (0) 0x3e8-0x3e9 (1)
     |                                               |                |                    m{}: 0x3e9-0x3eb (2)
0x3e0|                           04                  |         .      |                      a: 4 (valid) 0x3e9-0x3ea (1)
0x3e0|                              00               |          .     |                      o: 0 (valid) 0x3ea-0x3eb (1)
     |                                               |                |                  [18]{}: in 0x3eb-0x3ed (2)
0x3e0|                                 fd            |           .    |                    opcode: "vector" (0xfd) 0x3eb-0x3ec (1)
0x3e0|                                    4f         |            O   |                    v_opcode: "v128.andnot" (79) 0x3ec-0x3ed (1)
     |                                               |                |                  [19]{}: in 0x3ed-0x3ef (2)
0x3e0|                                       fd      |             .  |                    opcode: "vector" (0xfd) 0x3ed-0x3ee (1)
0x3e0|                                          51   |              Q |                    v_opcode: "v128.xor" (81) 0x3ee-0x3ef (1)
     |                                               |                |                  [20]{}: in 0x3ef-0x3f1 (2)
0x3e0|                                             fd|               .|                    opcode: "vector" (0xfd) 0x3ef-0x3f0 (1)
0x3f0|50                                             |P               |                    v_opcode: "v128.or" (80) 0x3f0-0x3f1 (1)
     |                                               |                |                  [21]{}: in 0x3f1-0x3f2 (1)
0x3f0|   1a                                          | .              |                    opcode: "drop" (0x1a) 0x3f1-0x3f2 (1)
     |                                               |                |                  [22]{}: in 0x3f2-0x3f3 (1)
0x3f0|      0b|                                      |  .|            |                    opcode: "end" (0xb) 0x3f2-0x3f3 (1)
