$ fq -d wasm dv simd_i32x4_arith2-1.wasm
     |00 01 02 03 04 05 06 07 08 09 0a 0b 0c 0d 0e 0f|0123456789abcdef|.{}: simd_i32x4_arith2-1.wasm (wasm) 0x0-0x41a (1050)
0x000|00 61 73 6d                                    |.asm            |  magic: raw bits (valid) 0x0-0x4 (4)
0x000|            01 00 00 00                        |    ....        |  version: 1 0x4-0x8 (4)
     |                                               |                |  sections[0:4]: 0x8-0x41a (1042)
     |                                               |                |    [0]{}: section 0x8-0x1d (21)
0x000|                        01                     |        .       |      id: "type_section" (1) 0x8-0x9 (1)
0x000|                           13                  |         .      |      size: 19 (valid) 0x9-0xa (1)
     |                                               |                |      content{}: 0xa-0x1d (19)
     |                                               |                |        ft{}: 0xa-0x1d (19)
0x000|                              03               |          .     |          n: 3 (valid) 0xa-0xb (1)
     |                                               |                |          x[0:3]: 0xb-0x1d (18)
     |                                               |                |            [0]{}: ft 0xb-0x12 (7)
0x000|                                 60            |           `    |              tag: 0x60 (valid) 0xb-0xc (1)
     |                                               |                |              rt1{}: 0xc-0x10 (4)
0x000|                                    03         |            .   |                n: 3 (valid) 0xc-0xd (1)
     |                                               |                |                x[0:3]: 0xd-0x10 (3)
0x000|                                       7b      |             {  |                  [0]: "v128" (0x7b) t 0xd-0xe (1)
0x000|                                          7b   |              { |                  [1]: "v128" (0x7b) t 0xe-0xf (1)
0x000|                                             7b|               {|                  [2]: "v128" (0x7b) t 0xf-0x10 (1)
     |                                               |                |              rt2{}: 0x10-0x12 (2)
0x010|01                                             |.               |                n: 1 (valid) 0x10-0x11 (1)
     |                                               |                |                x[0:1]: 0x11-0x12 (1)
0x010|   7b                                          | {              |                  [0]: "v128" (0x7b) t 0x11-0x12 (1)
     |                                               |                |            [1]{}: ft 0x12-0x18 (6)
0x010|      60                                       |  `             |              tag: 0x60 (valid) 0x12-0x13 (1)
     |                                               |                |              rt1{}: 0x13-0x16 (3)
0x010|         02                                    |   .            |                n: 2 (valid) 0x13-0x14 (1)
     |                                               |                |                x[0:2]: 0x14-0x16 (2)
0x010|            7b                                 |    {           |                  [0]: "v128" (0x7b) t 0x14-0x15 (1)
0x010|               7b                              |     {          |                  [1]: "v128" (0x7b) t 0x15-0x16 (1)
     |                                               |                |              rt2{}: 0x16-0x18 (2)
0x010|                  01                           |      .         |                n: 1 (valid) 0x16-0x17 (1)
     |                                               |                |                x[0:1]: 0x17-0x18 (1)
0x010|                     7b                        |       {        |                  [0]: "v128" (0x7b) t 0x17-0x18 (1)
     |                                               |                |            [2]{}: ft 0x18-0x1d (5)
0x010|                        60                     |        `       |              tag: 0x60 (valid) 0x18-0x19 (1)
     |                                               |                |              rt1{}: 0x19-0x1b (2)
0x010|                           01                  |         .      |                n: 1 (valid) 0x19-0x1a (1)
     |                                               |                |                x[0:1]: 0x1a-0x1b (1)
0x010|                              7b               |          {     |                  [0]: "v128" (0x7b) t 0x1a-0x1b (1)
     |                                               |                |              rt2{}: 0x1b-0x1d (2)
0x010|                                 01            |           .    |                n: 1 (valid) 0x1b-0x1c (1)
     |                                               |                |                x[0:1]: 0x1c-0x1d (1)
0x010|                                    7b         |            {   |                  [0]: "v128" (0x7b) t 0x1c-0x1d (1)
     |                                               |                |    [1]{}: section 0x1d-0x39 (28)
0x010|                                       03      |             .  |      id: "function_section" (3) 0x1d-0x1e (1)
0x010|                                          1a   |              . |      size: 26 (valid) 0x1e-0x1f (1)
     |                                               |                |      content{}: 0x1f-0x39 (26)
     |                                               |                |        x{}: 0x1f-0x39 (26)
0x010|                                             19|               .|          n: 25 (valid) 0x1f-0x20 (1)
     |                                               |                |          x[0:25]: 0x20-0x39 (25)
0x020|00                                             |.               |            [0]: 0 x (valid) 0x20-0x21 (1)
0x020|   00                                          | .              |            [1]: 0 x (valid) 0x21-0x22 (1)
0x020|      00                                       |  .             |            [2]: 0 x (valid) 0x22-0x23 (1)
0x020|         00                                    |   .            |            [3]: 0 x (valid) 0x23-0x24 (1)
0x020|            01                                 |    .           |            [4]: 1 x (valid) 0x24-0x25 (1)
0x020|               01                              |     .          |            [5]: 1 x (valid) 0x25-0x26 (1)
0x020|                  00                           |      .         |            [6]: 0 x (valid) 0x26-0x27 (1)
0x020|                     00                        |       .        |            [7]: 0 x (valid) 0x27-0x28 (1)
0x020|                        00                     |        .       |            [8]: 0 x (valid) 0x28-0x29 (1)
0x020|                           00                  |         .      |            [9]: 0 x (valid) 0x29-0x2a (1)
0x020|                              01               |          .     |            [10]: 1 x (valid) 0x2a-0x2b (1)
0x020|                                 01            |           .    |            [11]: 1 x (valid) 0x2b-0x2c (1)
0x020|                                    00         |            .   |            [12]: 0 x (valid) 0x2c-0x2d (1)
0x020|                                       00      |             .  |            [13]: 0 x (valid) 0x2d-0x2e (1)
0x020|                                          00   |              . |            [14]: 0 x (valid) 0x2e-0x2f (1)
0x020|                                             00|               .|            [15]: 0 x (valid) 0x2f-0x30 (1)
0x030|01                                             |.               |            [16]: 1 x (valid) 0x30-0x31 (1)
0x030|   01                                          | .              |            [17]: 1 x (valid) 0x31-0x32 (1)
0x030|      00                                       |  .             |            [18]: 0 x (valid) 0x32-0x33 (1)
0x030|         00                                    |   .            |            [19]: 0 x (valid) 0x33-0x34 (1)
0x030|            00                                 |    .           |            [20]: 0 x (valid) 0x34-0x35 (1)
0x030|               00                              |     .          |            [21]: 0 x (valid) 0x35-0x36 (1)
0x030|                  01                           |      .         |            [22]: 1 x (valid) 0x36-0x37 (1)
0x030|                     01                        |       .        |            [23]: 1 x (valid) 0x37-0x38 (1)
0x030|                        02                     |        .       |            [24]: 2 x (valid) 0x38-0x39 (1)
     |                                               |                |    [2]{}: section 0x39-0x2b3 (634)
0x030|                           07                  |         .      |      id: "export_section" (7) 0x39-0x3a (1)
0x030|                              f7 04            |          ..    |      size: 631 (valid) 0x3a-0x3c (2)
     |                                               |                |      content{}: 0x3c-0x2b3 (631)
     |                                               |                |        ex{}: 0x3c-0x2b3 (631)
0x030|                                    19         |            .   |          n: 25 (valid) 0x3c-0x3d (1)
     |                                               |                |          x[0:25]: 0x3d-0x2b3 (630)
     |                                               |                |            [0]{}: ex 0x3d-0x57 (26)
     |                                               |                |              nm{}: 0x3d-0x55 (24)
0x030|                                       17      |             .  |                n: 23 (valid) 0x3d-0x3e (1)
0x030|                                          69 33|              i3|                b: "i32x4.min_s-i32x4.max_u" 0x3e-0x55 (23)
0x040|32 78 34 2e 6d 69 6e 5f 73 2d 69 33 32 78 34 2e|2x4.min_s-i32x4.|
0x050|6d 61 78 5f 75                                 |max_u           |
     |                                               |                |              d{}: 0x55-0x57 (2)
0x050|               00                              |     .          |                tag: "funcidx" (0x0) 0x55-0x56 (1)
0x050|                  00                           |      .         |                x: 0 (valid) 0x56-0x57 (1)
     |                                               |                |            [1]{}: ex 0x57-0x71 (26)
     |                                               |                |              nm{}: 0x57-0x6f (24)
0x050|                     17                        |       .        |                n: 23 (valid) 0x57-0x58 (1)
0x050|                        69 33 32 78 34 2e 6d 69|        i32x4.mi|                b: "i32x4.min_s-i32x4.max_s" 0x58-0x6f (23)
0x060|6e 5f 73 2d 69 33 32 78 34 2e 6d 61 78 5f 73   |n_s-i32x4.max_s |
     |                                               |                |              d{}: 0x6f-0x71 (2)
0x060|                                             00|               .|                tag: "funcidx" (0x0) 0x6f-0x70 (1)
0x070|01                                             |.               |                x: 1 (valid) 0x70-0x71 (1)
     |                                               |                |            [2]{}: ex 0x71-0x8b (26)
     |                                               |                |              nm{}: 0x71-0x89 (24)
0x070|   17                                          | .              |                n: 23 (valid) 0x71-0x72 (1)
0x070|      69 33 32 78 34 2e 6d 69 6e 5f 73 2d 69 33|  i32x4.min_s-i3|                b: "i32x4.min_s-i32x4.min_u" 0x72-0x89 (23)
0x080|32 78 34 2e 6d 69 6e 5f 75                     |2x4.min_u       |
     |                                               |                |              d{}: 0x89-0x8b (2)
0x080|                           00                  |         .      |                tag: "funcidx" (0x0) 0x89-0x8a (1)
0x080|                              02               |          .     |                x: 2 (valid) 0x8a-0x8b (1)
     |                                               |                |            [3]{}: ex 0x8b-0xa5 (26)
     |                                               |                |              nm{}: 0x8b-0xa3 (24)
0x080|                                 17            |           .    |                n: 23 (valid) 0x8b-0x8c (1)
0x080|                                    69 33 32 78|            i32x|                b: "i32x4.min_s-i32x4.min_s" 0x8c-0xa3 (23)
0x090|34 2e 6d 69 6e 5f 73 2d 69 33 32 78 34 2e 6d 69|4.min_s-i32x4.mi|
0x0a0|6e 5f 73                                       |n_s             |
     |                                               |                |              d{}: 0xa3-0xa5 (2)
0x0a0|         00                                    |   .            |                tag: "funcidx" (0x0) 0xa3-0xa4 (1)
0x0a0|            03                                 |    .           |                x: 3 (valid) 0xa4-0xa5 (1)
     |                                               |                |            [4]{}: ex 0xa5-0xbd (24)
     |                                               |                |              nm{}: 0xa5-0xbb (22)
0x0a0|               15                              |     .          |                n: 21 (valid) 0xa5-0xa6 (1)
0x0a0|                  69 33 32 78 34 2e 6d 69 6e 5f|      i32x4.min_|                b: "i32x4.min_s-i32x4.abs" 0xa6-0xbb (21)
0x0b0|73 2d 69 33 32 78 34 2e 61 62 73               |s-i32x4.abs     |
     |                                               |                |              d{}: 0xbb-0xbd (2)
0x0b0|                                 00            |           .    |                tag: "funcidx" (0x0) 0xbb-0xbc (1)
0x0b0|                                    04         |            .   |                x: 4 (valid) 0xbc-0xbd (1)
     |                                               |                |            [5]{}: ex 0xbd-0xd5 (24)
     |                                               |                |              nm{}: 0xbd-0xd3 (22)
0x0b0|                                       15      |             .  |                n: 21 (valid) 0xbd-0xbe (1)
0x0b0|                                          69 33|              i3|                b: "i32x4.abs-i32x4.min_s" 0xbe-0xd3 (21)
0x0c0|32 78 34 2e 61 62 73 2d 69 33 32 78 34 2e 6d 69|2x4.abs-i32x4.mi|
0x0d0|6e 5f 73                                       |n_s             |
     |                                               |                |              d{}: 0xd3-0xd5 (2)
0x0d0|         00                                    |   .            |                tag: "funcidx" (0x0) 0xd3-0xd4 (1)
0x0d0|            05                                 |    .           |                x: 5 (valid) 0xd4-0xd5 (1)
     |                                               |                |            [6]{}: ex 0xd5-0xef (26)
     |                                               |                |              nm{}: 0xd5-0xed (24)
0x0d0|               17                              |     .          |                n: 23 (valid) 0xd5-0xd6 (1)
0x0d0|                  69 33 32 78 34 2e 6d 69 6e 5f|      i32x4.min_|                b: "i32x4.min_u-i32x4.max_u" 0xd6-0xed (23)
0x0e0|75 2d 69 33 32 78 34 2e 6d 61 78 5f 75         |u-i32x4.max_u   |
     |                                               |                |              d{}: 0xed-0xef (2)
0x0e0|                                       00      |             .  |                tag: "funcidx" (0x0) 0xed-0xee (1)
0x0e0|                                          06   |              . |                x: 6 (valid) 0xee-0xef (1)
     |                                               |                |            [7]{}: ex 0xef-0x109 (26)
     |                                               |                |              nm{}: 0xef-0x107 (24)
0x0e0|                                             17|               .|                n: 23 (valid) 0xef-0xf0 (1)
0x0f0|69 33 32 78 34 2e 6d 69 6e 5f 75 2d 69 33 32 78|i32x4.min_u-i32x|                b: "i32x4.min_u-i32x4.max_s" 0xf0-0x107 (23)
0x100|34 2e 6d 61 78 5f 73                           |4.max_s         |
     |                                               |                |              d{}: 0x107-0x109 (2)
0x100|                     00                        |       .        |                tag: "funcidx" (0x0) 0x107-0x108 (1)
0x100|                        07                     |        .       |                x: 7 (valid) 0x108-0x109 (1)
     |                                               |                |            [8]{}: ex 0x109-0x123 (26)
     |                                               |                |              nm{}: 0x109-0x121 (24)
0x100|                           17                  |         .      |                n: 23 (valid) 0x109-0x10a (1)
0x100|                              69 33 32 78 34 2e|          i32x4.|                b: "i32x4.min_u-i32x4.min_u" 0x10a-0x121 (23)
0x110|6d 69 6e 5f 75 2d 69 33 32 78 34 2e 6d 69 6e 5f|min_u-i32x4.min_|
0x120|75                                             |u               |
     |                                               |                |              d{}: 0x121-0x123 (2)
0x120|   00                                          | .              |                tag: "funcidx" (0x0) 0x121-0x122 (1)
0x120|      08                                       |  .             |                x: 8 (valid) 0x122-0x123 (1)
     |                                               |                |            [9]{}: ex 0x123-0x13d (26)
     |                                               |                |              nm{}: 0x123-0x13b (24)
0x120|         17                                    |   .            |                n: 23 (valid) 0x123-0x124 (1)
0x120|            69 33 32 78 34 2e 6d 69 6e 5f 75 2d|    i32x4.min_u-|                b: "i32x4.min_u-i32x4.min_s" 0x124-0x13b (23)
0x130|69 33 32 78 34 2e 6d 69 6e 5f 73               |i32x4.min_s     |
     |                                               |                |              d{}: 0x13b-0x13d (2)
0x130|                                 00            |           .    |                tag: "funcidx" (0x0) 0x13b-0x13c (1)
0x130|                                    09         |            .   |                x: 9 (valid) 0x13c-0x13d (1)
     |                                               |                |            [10]{}: ex 0x13d-0x155 (24)
     |                                               |                |              nm{}: 0x13d-0x153 (22)
0x130|                                       15      |             .  |                n: 21 (valid) 0x13d-0x13e (1)
0x130|                                          69 33|              i3|                b: "i32x4.min_u-i32x4.abs" 0x13e-0x153 (21)
0x140|32 78 34 2e 6d 69 6e 5f 75 2d 69 33 32 78 34 2e|2x4.min_u-i32x4.|
0x150|61 62 73                                       |abs             |
     |                                               |                |              d{}: 0x153-0x155 (2)
0x150|         00                                    |   .            |                tag: "funcidx" (0x0) 0x153-0x154 (1)
0x150|            0a                                 |    .           |                x: 10 (valid) 0x154-0x155 (1)
     |                                               |                |            [11]{}: ex 0x155-0x16d (24)
     |                                               |                |              nm{}: 0x155-0x16b (22)
0x150|               15                              |     .          |                n: 21 (valid) 0x155-0x156 (1)
0x150|                  69 33 32 78 34 2e 61 62 73 2d|      i32x4.abs-|                b: "i32x4.abs-i32x4.min_u" 0x156-0x16b (21)
0x160|69 33 32 78 34 2e 6d 69 6e 5f 75               |i32x4.min_u     |
     |                                               |                |              d{}: 0x16b-0x16d (2)
0x160|                                 00            |           .    |                tag: "funcidx" (0x0) 0x16b-0x16c (1)
0x160|                                    0b         |            .   |                x: 11 (valid) 0x16c-0x16d (1)
     |                                               |                |            [12]{}: ex 0x16d-0x187 (26)
     |                                               |                |              nm{}: 0x16d-0x185 (24)
0x160|                                       17      |             .  |                n: 23 (valid) 0x16d-0x16e (1)
0x160|                                          69 33|              i3|                b: "i32x4.max_s-i32x4.max_u" 0x16e-0x185 (23)
0x170|32 78 34 2e 6d 61 78 5f 73 2d 69 33 32 78 34 2e|2x4.max_s-i32x4.|
0x180|6d 61 78 5f 75                                 |max_u           |
     |                                               |                |              d{}: 0x185-0x187 (2)
0x180|               00                              |     .          |                tag: "funcidx" (0x0) 0x185-0x186 (1)
0x180|                  0c                           |      .         |                x: 12 (valid) 0x186-0x187 (1)
     |                                               |                |            [13]{}: ex 0x187-0x1a1 (26)
     |                                               |                |              nm{}: 0x187-0x19f (24)
0x180|                     17                        |       .        |                n: 23 (valid) 0x187-0x188 (1)
0x180|                        69 33 32 78 34 2e 6d 61|        i32x4.ma|                b: "i32x4.max_s-i32x4.max_s" 0x188-0x19f (23)
0x190|78 5f 73 2d 69 33 32 78 34 2e 6d 61 78 5f 73   |x_s-i32x4.max_s |
     |                                               |                |              d{}: 0x19f-0x1a1 (2)
0x190|                                             00|               .|                tag: "funcidx" (0x0) 0x19f-0x1a0 (1)
0x1a0|0d                                             |.               |                x: 13 (valid) 0x1a0-0x1a1 (1)
     |                                               |                |            [14]{}: ex 0x1a1-0x1bb (26)
     |                                               |                |              nm{}: 0x1a1-0x1b9 (24)
0x1a0|   17                                          | .              |                n: 23 (valid) 0x1a1-0x1a2 (1)
0x1a0|      69 33 32 78 34 2e 6d 61 78 5f 73 2d 69 33|  i32x4.max_s-i3|                b: "i32x4.max_s-i32x4.min_u" 0x1a2-0x1b9 (23)
0x1b0|32 78 34 2e 6d 69 6e 5f 75                     |2x4.min_u       |
     |                                               |                |              d{}: 0x1b9-0x1bb (2)
0x1b0|                           00                  |         .      |                tag: "funcidx" (0x0) 0x1b9-0x1ba (1)
0x1b0|                              0e               |          .     |                x: 14 (valid) 0x1ba-0x1bb (1)
     |                                               |                |            [15]{}: ex 0x1bb-0x1d5 (26)
     |                                               |                |              nm{}: 0x1bb-0x1d3 (24)
0x1b0|                                 17            |           .    |                n: 23 (valid) 0x1bb-0x1bc (1)
0x1b0|                                    69 33 32 78|            i32x|                b: "i32x4.max_s-i32x4.min_s" 0x1bc-0x1d3 (23)
0x1c0|34 2e 6d 61 78 5f 73 2d 69 33 32 78 34 2e 6d 69|4.max_s-i32x4.mi|
0x1d0|6e 5f 73                                       |n_s             |
     |                                               |                |              d{}: 0x1d3-0x1d5 (2)
0x1d0|         00                                    |   .            |                tag: "funcidx" (0x0) 0x1d3-0x1d4 (1)
0x1d0|            0f                                 |    .           |                x: 15 (valid) 0x1d4-0x1d5 (1)
     |                                               |                |            [16]{}: ex 0x1d5-0x1ed (24)
     |                                               |                |              nm{}: 0x1d5-0x1eb (22)
0x1d0|               15                              |     .          |                n: 21 (valid) 0x1d5-0x1d6 (1)
0x1d0|                  69 33 32 78 34 2e 6d 61 78 5f|      i32x4.max_|                b: "i32x4.max_s-i32x4.abs" 0x1d6-0x1eb (21)
0x1e0|73 2d 69 33 32 78 34 2e 61 62 73               |s-i32x4.abs     |
     |                                               |                |              d{}: 0x1eb-0x1ed (2)
0x1e0|                                 00            |           .    |                tag: "funcidx" (0x0) 0x1eb-0x1ec (1)
0x1e0|                                    10         |            .   |                x: 16 (valid) 0x1ec-0x1ed (1)
     |                                               |                |            [17]{}: ex 0x1ed-0x205 (24)
     |                                               |                |              nm{}: 0x1ed-0x203 (22)
0x1e0|                                       15      |             .  |                n: 21 (valid) 0x1ed-0x1ee (1)
0x1e0|                                          69 33|              i3|                b: "i32x4.abs-i32x4.max_s" 0x1ee-0x203 (21)
0x1f0|32 78 34 2e 61 62 73 2d 69 33 32 78 34 2e 6d 61|2x4.abs-i32x4.ma|
0x200|78 5f 73                                       |x_s             |
     |                                               |                |              d{}: 0x203-0x205 (2)
0x200|         00                                    |   .            |                tag: "funcidx" (0x0) 0x203-0x204 (1)
0x200|            11                                 |    .           |                x: 17 (valid) 0x204-0x205 (1)
     |                                               |                |            [18]{}: ex 0x205-0x21f (26)
     |                                               |                |              nm{}: 0x205-0x21d (24)
0x200|               17                              |     .          |                n: 23 (valid) 0x205-0x206 (1)
0x200|                  69 33 32 78 34 2e 6d 61 78 5f|      i32x4.max_|                b: "i32x4.max_u-i32x4.max_u" 0x206-0x21d (23)
0x210|75 2d 69 33 32 78 34 2e 6d 61 78 5f 75         |u-i32x4.max_u   |
     |                                               |                |              d{}: 0x21d-0x21f (2)
0x210|                                       00      |             .  |                tag: "funcidx" (0x0) 0x21d-0x21e (1)
0x210|                                          12   |              . |                x: 18 (valid) 0x21e-0x21f (1)
     |                                               |                |            [19]{}: ex 0x21f-0x239 (26)
     |                                               |                |              nm{}: 0x21f-0x237 (24)
0x210|                                             17|               .|                n: 23 (valid) 0x21f-0x220 (1)
0x220|69 33 32 78 34 2e 6d 61 78 5f 75 2d 69 33 32 78|i32x4.max_u-i32x|                b: "i32x4.max_u-i32x4.max_s" 0x220-0x237 (23)
0x230|34 2e 6d 61 78 5f 73                           |4.max_s         |
     |                                               |                |              d{}: 0x237-0x239 (2)
0x230|                     00                        |       .        |                tag: "funcidx" (0x0) 0x237-0x238 (1)
0x230|                        13                     |        .       |                x: 19 (valid) 0x238-0x239 (1)
     |                                               |                |            [20]{}: ex 0x239-0x253 (26)
     |                                               |                |              nm{}: 0x239-0x251 (24)
0x230|                           17                  |         .      |                n: 23 (valid) 0x239-0x23a (1)
0x230|                              69 33 32 78 34 2e|          i32x4.|                b: "i32x4.max_u-i32x4.min_u" 0x23a-0x251 (23)
0x240|6d 61 78 5f 75 2d 69 33 32 78 34 2e 6d 69 6e 5f|max_u-i32x4.min_|
0x250|75                                             |u               |
     |                                               |                |              d{}: 0x251-0x253 (2)
0x250|   00                                          | .              |                tag: "funcidx" (0x0) 0x251-0x252 (1)
0x250|      14                                       |  .             |                x: 20 (valid) 0x252-0x253 (1)
     |                                               |                |            [21]{}: ex 0x253-0x26d (26)
     |                                               |                |              nm{}: 0x253-0x26b (24)
0x250|         17                                    |   .            |                n: 23 (valid) 0x253-0x254 (1)
0x250|            69 33 32 78 34 2e 6d 61 78 5f 75 2d|    i32x4.max_u-|                b: "i32x4.max_u-i32x4.min_s" 0x254-0x26b (23)
0x260|69 33 32 78 34 2e 6d 69 6e 5f 73               |i32x4.min_s     |
     |                                               |                |              d{}: 0x26b-0x26d (2)
0x260|                                 00            |           .    |                tag: "funcidx" (0x0) 0x26b-0x26c (1)
0x260|                                    15         |            .   |                x: 21 (valid) 0x26c-0x26d (1)
     |                                               |                |            [22]{}: ex 0x26d-0x285 (24)
     |                                               |                |              nm{}: 0x26d-0x283 (22)
0x260|                                       15      |             .  |                n: 21 (valid) 0x26d-0x26e (1)
0x260|                                          69 33|              i3|                b: "i32x4.max_u-i32x4.abs" 0x26e-0x283 (21)
0x270|32 78 34 2e 6d 61 78 5f 75 2d 69 33 32 78 34 2e|2x4.max_u-i32x4.|
0x280|61 62 73                                       |abs             |
     |                                               |                |              d{}: 0x283-0x285 (2)
0x280|         00                                    |   .            |                tag: "funcidx" (0x0) 0x283-0x284 (1)
0x280|            16                                 |    .           |                x: 22 (valid) 0x284-0x285 (1)
     |                                               |                |            [23]{}: ex 0x285-0x29d (24)
     |                                               |                |              nm{}: 0x285-0x29b (22)
0x280|               15                              |     .          |                n: 21 (valid) 0x285-0x286 (1)
0x280|                  69 33 32 78 34 2e 61 62 73 2d|      i32x4.abs-|                b: "i32x4.abs-i32x4.max_u" 0x286-0x29b (21)
0x290|69 33 32 78 34 2e 6d 61 78 5f 75               |i32x4.max_u     |
     |                                               |                |              d{}: 0x29b-0x29d (2)
0x290|                                 00            |           .    |                tag: "funcidx" (0x0) 0x29b-0x29c (1)
0x290|                                    17         |            .   |                x: 23 (valid) 0x29c-0x29d (1)
     |                                               |                |            [24]{}: ex 0x29d-0x2b3 (22)
     |                                               |                |              nm{}: 0x29d-0x2b1 (20)
0x290|                                       13      |             .  |                n: 19 (valid) 0x29d-0x29e (1)
0x290|                                          69 33|              i3|                b: "i32x4.abs-i32x4.abs" 0x29e-0x2b1 (19)
0x2a0|32 78 34 2e 61 62 73 2d 69 33 32 78 34 2e 61 62|2x4.abs-i32x4.ab|
0x2b0|73                                             |s               |
     |                                               |                |              d{}: 0x2b1-0x2b3 (2)
0x2b0|   00                                          | .              |                tag: "funcidx" (0x0) 0x2b1-0x2b2 (1)
0x2b0|      18                                       |  .             |                x: 24 (valid) 0x2b2-0x2b3 (1)
     |                                               |                |    [3]{}: section 0x2b3-0x41a (359)
0x2b0|         0a                                    |   .            |      id: "code_section" (10) 0x2b3-0x2b4 (1)
0x2b0|            e4 02                              |    ..          |      size: 356 (valid) 0x2b4-0x2b6 (2)
     |                                               |                |      content{}: 0x2b6-0x41a (356)
     |                                               |                |        code{}: 0x2b6-0x41a (356)
0x2b0|                  19                           |      .         |          n: 25 (valid) 0x2b6-0x2b7 (1)
     |                                               |                |          x[0:25]: 0x2b7-0x41a (355)
     |                                               |                |            [0]{}: code 0x2b7-0x2c6 (15)
0x2b0|                     0e                        |       .        |              size: 14 (valid) 0x2b7-0x2b8 (1)
     |                                               |                |              code{}: 0x2b8-0x2c6 (14)
     |                                               |                |                t{}: 0x2b8-0x2b9 (1)
0x2b0|                        00                     |        .       |                  n: 0 (valid) 0x2b8-0x2b9 (1)
     |                                               |                |                  x[0:0]: 0x2b9-0x2b9 (0)
     |                                               |                |                e[0:6]: 0x2b9-0x2c6 (13)
     |                                               |                |                  [0]{}: in 0x2b9-0x2bb (2)
0x2b0|                           20                  |                |                    opcode: "local.get" (0x20) 0x2b9-0x2ba (1)
0x2b0|                              00               |          .     |                    x: 0 (valid) 0x2ba-0x2bb (1)
     |                                               |                |                  [1]{}: in 0x2bb-0x2bd (2)
0x2b0|                                 20            |                |                    opcode: "local.get" (0x20) 0x2bb-0x2bc (1)
0x2b0|                                    01         |            .   |                    x: 1 (valid) 0x2bc-0x2bd (1)
     |                                               |                |                  [2]{}: in 0x2bd-0x2c0 (3)
0x2b0|                                       fd      |             .  |                    opcode: "vector" (0xfd) 0x2bd-0x2be (1)
0x2b0|                                          b9 01|              ..|                    v_opcode: "i32x4.max_u" (185) 0x2be-0x2c0 (2)
     |                                               |                |                  [3]{}: in 0x2c0-0x2c2 (2)
0x2c0|20                                             |                |                    opcode: "local.get" (0x20) 0x2c0-0x2c1 (1)
0x2c0|   02                                          | .              |                    x: 2 (valid) 0x2c1-0x2c2 (1)
     |                                               |                |                  [4]{}: in 0x2c2-0x2c5 (3)
0x2c0|      fd                                       |  .             |                    opcode: "vector" (0xfd) 0x2c2-0x2c3 (1)
0x2c0|         b6 01                                 |   ..           |                    v_opcode: "i32x4.min_s" (182) 0x2c3-0x2c5 (2)
     |                                               |                |                  [5]{}: in 0x2c5-0x2c6 (1)
0x2c0|               0b                              |     .          |                    opcode: "end" (0xb) 0x2c5-0x2c6 (1)
     |                                               |                |            [1]{}: code 0x2c6-0x2d5 (15)
0x2c0|                  0e                           |      .         |              size: 14 (valid) 0x2c6-0x2c7 (1)
     |                                               |                |              code{}: 0x2c7-0x2d5 (14)
     |                                               |                |                t{}: 0x2c7-0x2c8 (1)
0x2c0|                     00                        |       .        |                  n: 0 (valid) 0x2c7-0x2c8 (1)
     |                                               |                |                  x[0:0]: 0x2c8-0x2c8 (0)
     |                                               |                |                e[0:6]: 0x2c8-0x2d5 (13)
     |                                               |                |                  [0]{}: in 0x2c8-0x2ca (2)
0x2c0|                        20                     |                |                    opcode: "local.get" (0x20) 0x2c8-0x2c9 (1)
0x2c0|                           00                  |         .      |                    x: 0 (valid) 0x2c9-0x2ca (1)
     |                                               |                |                  [1]{}: in 0x2ca-0x2cc (2)
0x2c0|                              20               |                |                    opcode: "local.get" (0x20) 0x2ca-0x2cb (1)
0x2c0|                                 01            |           .    |                    x: 1 (valid) 0x2cb-0x2cc (1)
     |                                               |                |                  [2]{}: in 0x2cc-0x2cf (3)
0x2c0|                                    fd         |            .   |                    opcode: "vector" (0xfd) 0x2cc-0x2cd (1)
0x2c0|                                       b8 01   |             .. |                    v_opcode: "i32x4.max_s" (184) 0x2cd-0x2cf (2)
     |                                               |                |                  [3]{}: in 0x2cf-0x2d1 (2)
0x2c0|                                             20|                |                    opcode: "local.get" (0x20) 0x2cf-0x2d0 (1)
0x2d0|02                                             |.               |                    x: 2 (valid) 0x2d0-0x2d1 (1)
     |                                               |                |                  [4]{}: in 0x2d1-0x2d4 (3)
0x2d0|   fd                                          | .              |                    opcode: "vector" (0xfd) 0x2d1-0x2d2 (1)
0x2d0|      b6 01                                    |  ..            |                    v_opcode: "i32x4.min_s" (182) 0x2d2-0x2d4 (2)
     |                                               |                |                  [5]{}: in 0x2d4-0x2d5 (1)
0x2d0|            0b                                 |    .           |                    opcode: "end" (0xb) 0x2d4-0x2d5 (1)
     |                                               |                |            [2]{}: code 0x2d5-0x2e4 (15)
0x2d0|               0e                              |     .          |              size: 14 (valid) 0x2d5-0x2d6 (1)
     |                                               |                |              code{}: 0x2d6-0x2e4 (14)
     |                                               |                |                t{}: 0x2d6-0x2d7 (1)
0x2d0|                  00                           |      .         |                  n: 0 (valid) 0x2d6-0x2d7 (1)
     |                                               |                |                  x[0:0]: 0x2d7-0x2d7 (0)
     |                                               |                |                e[0:6]: 0x2d7-0x2e4 (13)
     |                                               |                |                  [0]{}: in 0x2d7-0x2d9 (2)
0x2d0|                     20                        |                |                    opcode: "local.get" (0x20) 0x2d7-0x2d8 (1)
0x2d0|                        00                     |        .       |                    x: 0 (valid) 0x2d8-0x2d9 (1)
     |                                               |                |                  [1]{}: in 0x2d9-0x2db (2)
0x2d0|                           20                  |                |                    opcode: "local.get" (0x20) 0x2d9-0x2da (1)
0x2d0|                              01               |          .     |                    x: 1 (valid) 0x2da-0x2db (1)
     |                                               |                |                  [2]{}: in 0x2db-0x2de (3)
0x2d0|                                 fd            |           .    |                    opcode: "vector" (0xfd) 0x2db-0x2dc (1)
0x2d0|                                    b7 01      |            ..  |                    v_opcode: "i32x4.min_u" (183) 0x2dc-0x2de (2)
     |                                               |                |                  [3]{}: in 0x2de-0x2e0 (2)
0x2d0|                                          20   |                |                    opcode: "local.get" (0x20) 0x2de-0x2df (1)
0x2d0|                                             02|               .|                    x: 2 (valid) 0x2df-0x2e0 (1)
     |                                               |                |                  [4]{}: in 0x2e0-0x2e3 (3)
0x2e0|fd                                             |.               |                    opcode: "vector" (0xfd) 0x2e0-0x2e1 (1)
0x2e0|   b6 01                                       | ..             |                    v_opcode: "i32x4.min_s" (182) 0x2e1-0x2e3 (2)
     |                                               |                |                  [5]{}: in 0x2e3-0x2e4 (1)
0x2e0|         0b                                    |   .            |                    opcode: "end" (0xb) 0x2e3-0x2e4 (1)
     |                                               |                |            [3]{}: code 0x2e4-0x2f3 (15)
0x2e0|            0e                                 |    .           |              size: 14 (valid) 0x2e4-0x2e5 (1)
     |                                               |                |              code{}: 0x2e5-0x2f3 (14)
     |                                               |                |                t{}: 0x2e5-0x2e6 (1)
0x2e0|               00                              |     .          |                  n: 0 (valid) 0x2e5-0x2e6 (1)
     |                                               |                |                  x[0:0]: 0x2e6-0x2e6 (0)
     |                                               |                |                e[0:6]: 0x2e6-0x2f3 (13)
     |                                               |                |                  [0]{}: in 0x2e6-0x2e8 (2)
0x2e0|                  20                           |                |                    opcode: "local.get" (0x20) 0x2e6-0x2e7 (1)
0x2e0|                     00                        |       .        |                    x: 0 (valid) 0x2e7-0x2e8 (1)
     |                                               |                |                  [1]{}: in 0x2e8-0x2ea (2)
0x2e0|                        20                     |                |                    opcode: "local.get" (0x20) 0x2e8-0x2e9 (1)
0x2e0|                           01                  |         .      |                    x: 1 (valid) 0x2e9-0x2ea (1)
     |                                               |                |                  [2]{}: in 0x2ea-0x2ed (3)
0x2e0|                              fd               |          .     |                    opcode: "vector" (0xfd) 0x2ea-0x2eb (1)
0x2e0|                                 b6 01         |           ..   |                    v_opcode: "i32x4.min_s" (182) 0x2eb-0x2ed (2)
     |                                               |                |                  [3]{}: in 0x2ed-0x2ef (2)
0x2e0|                                       20      |                |                    opcode: "local.get" (0x20) 0x2ed-0x2ee (1)
0x2e0|                                          02   |              . |                    x: 2 (valid) 0x2ee-0x2ef (1)
     |                                               |                |                  [4]{}: in 0x2ef-0x2f2 (3)
0x2e0|                                             fd|               .|                    opcode: "vector" (0xfd) 0x2ef-0x2f0 (1)
0x2f0|b6 01                                          |..              |                    v_opcode: "i32x4.min_s" (182) 0x2f0-0x2f2 (2)
     |                                               |                |                  [5]{}: in 0x2f2-0x2f3 (1)
0x2f0|      0b                                       |  .             |                    opcode: "end" (0xb) 0x2f2-0x2f3 (1)
     |                                               |                |            [4]{}: code 0x2f3-0x300 (13)
0x2f0|         0c                                    |   .            |              size: 12 (valid) 0x2f3-0x2f4 (1)
     |                                               |                |              code{}: 0x2f4-0x300 (12)
     |                                               |                |                t{}: 0x2f4-0x2f5 (1)
0x2f0|            00                                 |    .           |                  n: 0 (valid) 0x2f4-0x2f5 (1)
     |                                               |                |                  x[0:0]: 0x2f5-0x2f5 (0)
     |                                               |                |                e[0:5]: 0x2f5-0x300 (11)
     |                                               |                |                  [0]{}: in 0x2f5-0x2f7 (2)
0x2f0|               20                              |                |                    opcode: "local.get" (0x20) 0x2f5-0x2f6 (1)
0x2f0|                  00                           |      .         |                    x: 0 (valid) 0x2f6-0x2f7 (1)
     |                                               |                |                  [1]{}: in 0x2f7-0x2fa (3)
0x2f0|                     fd                        |       .        |                    opcode: "vector" (0xfd) 0x2f7-0x2f8 (1)
0x2f0|                        a0 01                  |        ..      |                    v_opcode: "i32x4.abs" (160) 0x2f8-0x2fa (2)
     |                                               |                |                  [2]{}: in 0x2fa-0x2fc (2)
0x2f0|                              20               |                |                    opcode: "local.get" (0x20) 0x2fa-0x2fb (1)
0x2f0|                                 01            |           .    |                    x: 1 (valid) 0x2fb-0x2fc (1)
     |                                               |                |                  [3]{}: in 0x2fc-0x2ff (3)
0x2f0|                                    fd         |            .   |                    opcode: "vector" (0xfd) 0x2fc-0x2fd (1)
0x2f0|                                       b6 01   |             .. |                    v_opcode: "i32x4.min_s" (182) 0x2fd-0x2ff (2)
     |                                               |                |                  [4]{}: in 0x2ff-0x300 (1)
0x2f0|                                             0b|               .|                    opcode: "end" (0xb) 0x2ff-0x300 (1)
     |                                               |                |            [5]{}: code 0x300-0x30d (13)
0x300|0c                                             |.               |              size: 12 (valid) 0x300-0x301 (1)
     |                                               |                |              code{}: 0x301-0x30d (12)
     |                                               |                |                t{}: 0x301-0x302 (1)
0x300|   00                                          | .              |                  n: 0 (valid) 0x301-0x302 (1)
     |                                               |                |                  x[0:0]: 0x302-0x302 (0)
     |                                               |                |                e[0:5]: 0x302-0x30d (11)
     |                                               |                |                  [0]{}: in 0x302-0x304 (2)
0x300|      20                                       |                |                    opcode: "local.get" (0x20) 0x302-0x303 (1)
0x300|         00                                    |   .            |                    x: 0 (valid) 0x303-0x304 (1)
     |                                               |                |                  [1]{}: in 0x304-0x306 (2)
0x300|            20                                 |                |                    opcode: "local.get" (0x20) 0x304-0x305 (1)
0x300|               01                              |     .          |                    x: 1 (valid) 0x305-0x306 (1)
     |                                               |                |                  [2]{}: in 0x306-0x309 (3)
0x300|                  fd                           |      .         |                    opcode: "vector" (0xfd) 0x306-0x307 (1)
0x300|                     b6 01                     |       ..       |                    v_opcode: "i32x4.min_s" (182) 0x307-0x309 (2)
     |                                               |                |                  [3]{}: in 0x309-0x30c (3)
0x300|                           fd                  |         .      |                    opcode: "vector" (0xfd) 0x309-0x30a (1)
0x300|                              a0 01            |          ..    |                    v_opcode: "i32x4.abs" (160) 0x30a-0x30c (2)
     |                                               |                |                  [4]{}: in 0x30c-0x30d (1)
0x300|                                    0b         |            .   |                    opcode: "end" (0xb) 0x30c-0x30d (1)
     |                                               |                |            [6]{}: code 0x30d-0x31c (15)
0x300|                                       0e      |             .  |              size: 14 (valid) 0x30d-0x30e (1)
     |                                               |                |              code{}: 0x30e-0x31c (14)
     |                                               |                |                t{}: 0x30e-0x30f (1)
0x300|                                          00   |              . |                  n: 0 (valid) 0x30e-0x30f (1)
     |                                               |                |                  x[0:0]: 0x30f-0x30f (0)
     |                                               |                |                e[0:6]: 0x30f-0x31c (13)
     |                                               |                |                  [0]{}: in 0x30f-0x311 (2)
0x300|                                             20|                |                    opcode: "local.get" (0x20) 0x30f-0x310 (1)
0x310|00                                             |.               |                    x: 0 (valid) 0x310-0x311 (1)
     |                                               |                |                  [1]{}: in 0x311-0x313 (2)
0x310|   20                                          |                |                    opcode: "local.get" (0x20) 0x311-0x312 (1)
0x310|      01                                       |  .             |                    x: 1 (valid) 0x312-0x313 (1)
     |                                               |                |                  [2]{}: in 0x313-0x316 (3)
0x310|         fd                                    |   .            |                    opcode: "vector" (0xfd) 0x313-0x314 (1)
0x310|            b9 01                              |    ..          |                    v_opcode: "i32x4.max_u" (185) 0x314-0x316 (2)
     |                                               |                |                  [3]{}: in 0x316-0x318 (2)
0x310|                  20                           |                |                    opcode: "local.get" (0x20) 0x316-0x317 (1)
0x310|                     02                        |       .        |                    x: 2 (valid) 0x317-0x318 (1)
     |                                               |                |                  [4]{}: in 0x318-0x31b (3)
0x310|                        fd                     |        .       |                    opcode: "vector" (0xfd) 0x318-0x319 (1)
0x310|                           b7 01               |         ..     |                    v_opcode: "i32x4.min_u" (183) 0x319-0x31b (2)
     |                                               |                |                  [5]{}: in 0x31b-0x31c (1)
0x310|                                 0b            |           .    |                    opcode: "end" (0xb) 0x31b-0x31c (1)
     |                                               |                |            [7]{}: code 0x31c-0x32b (15)
0x310|                                    0e         |            .   |              size: 14 (valid) 0x31c-0x31d (1)
     |                                               |                |              code{}: 0x31d-0x32b (14)
     |                                               |                |                t{}: 0x31d-0x31e (1)
0x310|                                       00      |             .  |                  n: 0 (valid) 0x31d-0x31e (1)
     |                                               |                |                  x[0:0]: 0x31e-0x31e (0)
     |                                               |                |                e[0:6]: 0x31e-0x32b (13)
     |                                               |                |                  [0]{}: in 0x31e-0x320 (2)
0x310|                                          20   |                |                    opcode: "local.get" (0x20) 0x31e-0x31f (1)
0x310|                                             00|               .|                    x: 0 (valid) 0x31f-0x320 (1)
     |                                               |                |                  [1]{}: in 0x320-0x322 (2)
0x320|20                                             |                |                    opcode: "local.get" (0x20) 0x320-0x321 (1)
0x320|   01                                          | .              |                    x: 1 (valid) 0x321-0x322 (1)
     |                                               |                |                  [2]{}: in 0x322-0x325 (3)
0x320|      fd                                       |  .             |                    opcode: "vector" (0xfd) 0x322-0x323 (1)
0x320|         b8 01                                 |   ..           |                    v_opcode: "i32x4.max_s" (184) 0x323-0x325 (2)
     |                                               |                |                  [3]{}: in 0x325-0x327 (2)
0x320|               20                              |                |                    opcode: "local.get" (0x20) 0x325-0x326 (1)
0x320|                  02                           |      .         |                    x: 2 (valid) 0x326-0x327 (1)
     |                                               |                |                  [4]{}: in 0x327-0x32a (3)
0x320|                     fd                        |       .        |                    opcode: "vector" (0xfd) 0x327-0x328 (1)
0x320|                        b7 01                  |        ..      |                    v_opcode: "i32x4.min_u" (183) 0x328-0x32a (2)
     |                                               |                |                  [5]{}: in 0x32a-0x32b (1)
0x320|                              0b               |          .     |                    opcode: "end" (0xb) 0x32a-0x32b (1)
     |                                               |                |            [8]{}: code 0x32b-0x33a (15)
0x320|                                 0e            |           .    |              size: 14 (valid) 0x32b-0x32c (1)
     |                                               |                |              code{}: 0x32c-0x33a (14)
     |                                               |                |                t{}: 0x32c-0x32d (1)
0x320|                                    00         |            .   |                  n: 0 (valid) 0x32c-0x32d (1)
     |                                               |                |                  x[0:0]: 0x32d-0x32d (0)
     |                                               |                |                e[0:6]: 0x32d-0x33a (13)
     |                                               |                |                  [0]{}: in 0x32d-0x32f (2)
0x320|                                       20      |                |                    opcode: "local.get" (0x20) 0x32d-0x32e (1)
0x320|                                          00   |              . |                    x: 0 (valid) 0x32e-0x32f (1)
     |                                               |                |                  [1]{}: in 0x32f-0x331 (2)
0x320|                                             20|                |                    opcode: "local.get" (0x20) 0x32f-0x330 (1)
0x330|01                                             |.               |                    x: 1 (valid) 0x330-0x331 (1)
     |                                               |                |                  [2]{}: in 0x331-0x334 (3)
0x330|   fd                                          | .              |                    opcode: "vector" (0xfd) 0x331-0x332 (1)
0x330|      b7 01                                    |  ..            |                    v_opcode: "i32x4.min_u" (183) 0x332-0x334 (2)
     |                                               |                |                  [3]{}: in 0x334-0x336 (2)
0x330|            20                                 |                |                    opcode: "local.get" (0x20) 0x334-0x335 (1)
0x330|               02                              |     .          |                    x: 2 (valid) 0x335-0x336 (1)
     |                                               |                |                  [4]{}: in 0x336-0x339 (3)
0x330|                  fd                           |      .         |                    opcode: "vector" (0xfd) 0x336-0x337 (1)
0x330|                     b7 01                     |       ..       |                    v_opcode: "i32x4.min_u" (183) 0x337-0x339 (2)
     |                                               |                |                  [5]{}: in 0x339-0x33a (1)
0x330|                           0b                  |         .      |                    opcode: "end" (0xb) 0x339-0x33a (1)
     |                                               |                |            [9]{}: code 0x33a-0x349 (15)
0x330|                              0e               |          .     |              size: 14 (valid) 0x33a-0x33b (1)
     |                                               |                |              code{}: 0x33b-0x349 (14)
     |                                               |                |                t{}: 0x33b-0x33c (1)
0x330|                                 00            |           .    |                  n: 0 (valid) 0x33b-0x33c (1)
     |                                               |                |                  x[0:0]: 0x33c-0x33c (0)
     |                                               |                |                e[0:6]: 0x33c-0x349 (13)
     |                                               |                |                  [0]{}: in 0x33c-0x33e (2)
0x330|                                    20         |                |                    opcode: "local.get" (0x20) 0x33c-0x33d (1)
0x330|                                       00      |             .  |                    x: 0 (valid) 0x33d-0x33e (1)
     |                                               |                |                  [1]{}: in 0x33e-0x340 (2)
0x330|                                          20   |                |                    opcode: "local.get" (0x20) 0x33e-0x33f (1)
0x330|                                             01|               .|                    x: 1 (valid) 0x33f-0x340 (1)
     |                                               |                |                  [2]{}: in 0x340-0x343 (3)
0x340|fd                                             |.               |                    opcode: "vector" (0xfd) 0x340-0x341 (1)
0x340|   b6 01                                       | ..             |                    v_opcode: "i32x4.min_s" (182) 0x341-0x343 (2)
     |                                               |                |                  [3]{}: in 0x343-0x345 (2)
0x340|         20                                    |                |                    opcode: "local.get" (0x20) 0x343-0x344 (1)
0x340|            02                                 |    .           |                    x: 2 (valid) 0x344-0x345 (1)
     |                                               |                |                  [4]{}: in 0x345-0x348 (3)
0x340|               fd                              |     .          |                    opcode: "vector" (0xfd) 0x345-0x346 (1)
0x340|                  b7 01                        |      ..        |                    v_opcode: "i32x4.min_u" (183) 0x346-0x348 (2)
     |                                               |                |                  [5]{}: in 0x348-0x349 (1)
0x340|                        0b                     |        .       |                    opcode: "end" (0xb) 0x348-0x349 (1)
     |                                               |                |            [10]{}: code 0x349-0x356 (13)
0x340|                           0c                  |         .      |              size: 12 (valid) 0x349-0x34a (1)
     |                                               |                |              code{}: 0x34a-0x356 (12)
     |                                               |                |                t{}: 0x34a-0x34b (1)
0x340|                              00               |          .     |                  n: 0 (valid) 0x34a-0x34b (1)
     |                                               |                |                  x[0:0]: 0x34b-0x34b (0)
     |                                               |                |                e[0:5]: 0x34b-0x356 (11)
     |                                               |                |                  [0]{}: in 0x34b-0x34d (2)
0x340|                                 20            |                |                    opcode: "local.get" (0x20) 0x34b-0x34c (1)
0x340|                                    00         |            .   |                    x: 0 (valid) 0x34c-0x34d (1)
     |                                               |                |                  [1]{}: in 0x34d-0x350 (3)
0x340|                                       fd      |             .  |                    opcode: "vector" (0xfd) 0x34d-0x34e (1)
0x340|                                          a0 01|              ..|                    v_opcode: "i32x4.abs" (160) 0x34e-0x350 (2)
     |                                               |                |                  [2]{}: in 0x350-0x352 (2)
0x350|20                                             |                |                    opcode: "local.get" (0x20) 0x350-0x351 (1)
0x350|   01                                          | .              |                    x: 1 (valid) 0x351-0x352 (1)
     |                                               |                |                  [3]{}: in 0x352-0x355 (3)
0x350|      fd                                       |  .             |                    opcode: "vector" (0xfd) 0x352-0x353 (1)
0x350|         b7 01                                 |   ..           |                    v_opcode: "i32x4.min_u" (183) 0x353-0x355 (2)
     |                                               |                |                  [4]{}: in 0x355-0x356 (1)
0x350|               0b                              |     .          |                    opcode: "end" (0xb) 0x355-0x356 (1)
     |                                               |                |            [11]{}: code 0x356-0x363 (13)
0x350|                  0c                           |      .         |              size: 12 (valid) 0x356-0x357 (1)
     |                                               |                |              code{}: 0x357-0x363 (12)
     |                                               |                |                t{}: 0x357-0x358 (1)
0x350|                     00                        |       .        |                  n: 0 (valid) 0x357-0x358 (1)
     |                                               |                |                  x[0:0]: 0x358-0x358 (0)
     |                                               |                |                e[0:5]: 0x358-0x363 (11)
     |                                               |                |                  [0]{}: in 0x358-0x35a (2)
0x350|                        20                     |                |                    opcode: "local.get" (0x20) 0x358-0x359 (1)
0x350|                           00                  |         .      |                    x: 0 (valid) 0x359-0x35a (1)
     |                                               |                |                  [1]{}: in 0x35a-0x35c (2)
0x350|                              20               |                |                    opcode: "local.get" (0x20) 0x35a-0x35b (1)
0x350|                                 01            |           .    |                    x: 1 (valid) 0x35b-0x35c (1)
     |                                               |                |                  [2]{}: in 0x35c-0x35f (3)
0x350|                                    fd         |            .   |                    opcode: "vector" (0xfd) 0x35c-0x35d (1)
0x350|                                       b7 01   |             .. |                    v_opcode: "i32x4.min_u" (183) 0x35d-0x35f (2)
     |                                               |                |                  [3]{}: in 0x35f-0x362 (3)
0x350|                                             fd|               .|                    opcode: "vector" (0xfd) 0x35f-0x360 (1)
0x360|a0 01                                          |..              |                    v_opcode: "i32x4.abs" (160) 0x360-0x362 (2)
     |                                               |                |                  [4]{}: in 0x362-0x363 (1)
0x360|      0b                                       |  .             |                    opcode: "end" (0xb) 0x362-0x363 (1)
     |                                               |                |            [12]{}: code 0x363-0x372 (15)
0x360|         0e                                    |   .            |              size: 14 (valid) 0x363-0x364 (1)
     |                                               |                |              code{}: 0x364-0x372 (14)
     |                                               |                |                t{}: 0x364-0x365 (1)
0x360|            00                                 |    .           |                  n: 0 (valid) 0x364-0x365 (1)
     |                                               |                |                  x[0:0]: 0x365-0x365 (0)
     |                                               |                |                e[0:6]: 0x365-0x372 (13)
     |                                               |                |                  [0]{}: in 0x365-0x367 (2)
0x360|               20                              |                |                    opcode: "local.get" (0x20) 0x365-0x366 (1)
0x360|                  00                           |      .         |                    x: 0 (valid) 0x366-0x367 (1)
     |                                               |                |                  [1]{}: in 0x367-0x369 (2)
0x360|                     20                        |                |                    opcode: "local.get" (0x20) 0x367-0x368 (1)
0x360|                        01                     |        .       |                    x: 1 (valid) 0x368-0x369 (1)
     |                                               |                |                  [2]{}: in 0x369-0x36c (3)
0x360|                           fd                  |         .      |                    opcode: "vector" (0xfd) 0x369-0x36a (1)
0x360|                              b9 01            |          ..    |                    v_opcode: "i32x4.max_u" (185) 0x36a-0x36c (2)
     |                                               |                |                  [3]{}: in 0x36c-0x36e (2)
0x360|                                    20         |                |                    opcode: "local.get" (0x20) 0x36c-0x36d (1)
0x360|                                       02      |             .  |                    x: 2 (valid) 0x36d-0x36e (1)
     |                                               |                |                  [4]{}: in 0x36e-0x371 (3)
0x360|                                          fd   |              . |                    opcode: "vector" (0xfd) 0x36e-0x36f (1)
0x360|                                             b8|               .|                    v_opcode: "i32x4.max_s" (184) 0x36f-0x371 (2)
0x370|01                                             |.               |
     |                                               |                |                  [5]{}: in 0x371-0x372 (1)
0x370|   0b                                          | .              |                    opcode: "end" (0xb) 0x371-0x372 (1)
     |                                               |                |            [13]{}: code 0x372-0x381 (15)
0x370|      0e                                       |  .             |              size: 14 (valid) 0x372-0x373 (1)
     |                                               |                |              code{}: 0x373-0x381 (14)
     |                                               |                |                t{}: 0x373-0x374 (1)
0x370|         00                                    |   .            |                  n: 0 (valid) 0x373-0x374 (1)
     |                                               |                |                  x[0:0]: 0x374-0x374 (0)
     |                                               |                |                e[0:6]: 0x374-0x381 (13)
     |                                               |                |                  [0]{}: in 0x374-0x376 (2)
0x370|            20                                 |                |                    opcode: "local.get" (0x20) 0x374-0x375 (1)
0x370|               00                              |     .          |                    x: 0 (valid) 0x375-0x376 (1)
     |                                               |                |                  [1]{}: in 0x376-0x378 (2)
0x370|                  20                           |                |                    opcode: "local.get" (0x20) 0x376-0x377 (1)
0x370|                     01                        |       .        |                    x: 1 (valid) 0x377-0x378 (1)
     |                                               |                |                  [2]{}: in 0x378-0x37b (3)
0x370|                        fd                     |        .       |                    opcode: "vector" (0xfd) 0x378-0x379 (1)
0x370|                           b8 01               |         ..     |                    v_opcode: "i32x4.max_s" (184) 0x379-0x37b (2)
     |                                               |                |                  [3]{}: in 0x37b-0x37d (2)
0x370|                                 20            |                |                    opcode: "local.get" (0x20) 0x37b-0x37c (1)
0x370|                                    02         |            .   |                    x: 2 (valid) 0x37c-0x37d (1)
     |                                               |                |                  [4]{}: in 0x37d-0x380 (3)
0x370|                                       fd      |             .  |                    opcode: "vector" (0xfd) 0x37d-0x37e (1)
0x370|                                          b8 01|              ..|                    v_opcode: "i32x4.max_s" (184) 0x37e-0x380 (2)
     |                                               |                |                  [5]{}: in 0x380-0x381 (1)
0x380|0b                                             |.               |                    opcode: "end" (0xb) 0x380-0x381 (1)
     |                                               |                |            [14]{}: code 0x381-0x390 (15)
0x380|   0e                                          | .              |              size: 14 (valid) 0x381-0x382 (1)
     |                                               |                |              code{}: 0x382-0x390 (14)
     |                                               |                |                t{}: 0x382-0x383 (1)
0x380|      00                                       |  .             |                  n: 0 (valid) 0x382-0x383 (1)
     |                                               |                |                  x[0:0]: 0x383-0x383 (0)
     |                                               |                |                e[0:6]: 0x383-0x390 (13)
     |                                               |                |                  [0]{}: in 0x383-0x385 (2)
0x380|         20                                    |                |                    opcode: "local.get" (0x20) 0x383-0x384 (1)
0x380|            00                                 |    .           |                    x: 0 (valid) 0x384-0x385 (1)
     |                                               |                |                  [1]{}: in 0x385-0x387 (2)
0x380|               20                              |                |                    opcode: "local.get" (0x20) 0x385-0x386 (1)
0x380|                  01                           |      .         |                    x: 1 (valid) 0x386-0x387 (1)
     |                                               |                |                  [2]{}: in 0x387-0x38a (3)
0x380|                     fd                        |       .        |                    opcode: "vector" (0xfd) 0x387-0x388 (1)
0x380|                        b7 01                  |        ..      |                    v_opcode: "i32x4.min_u" (183) 0x388-0x38a (2)
     |                                               |                |                  [3]{}: in 0x38a-0x38c (2)
0x380|                              20               |                |                    opcode: "local.get" (0x20) 0x38a-0x38b (1)
0x380|                                 02            |           .    |                    x: 2 (valid) 0x38b-0x38c (1)
     |                                               |                |                  [4]{}: in 0x38c-0x38f (3)
0x380|                                    fd         |            .   |                    opcode: "vector" (0xfd) 0x38c-0x38d (1)
0x380|                                       b8 01   |             .. |                    v_opcode: "i32x4.max_s" (184) 0x38d-0x38f (2)
     |                                               |                |                  [5]{}: in 0x38f-0x390 (1)
0x380|                                             0b|               .|                    opcode: "end" (0xb) 0x38f-0x390 (1)
     |                                               |                |            [15]{}: code 0x390-0x39f (15)
0x390|0e                                             |.               |              size: 14 (valid) 0x390-0x391 (1)
     |                                               |                |              code{}: 0x391-0x39f (14)
     |                                               |                |                t{}: 0x391-0x392 (1)
0x390|   00                                          | .              |                  n: 0 (valid) 0x391-0x392 (1)
     |                                               |                |                  x[0:0]: 0x392-0x392 (0)
     |                                               |                |                e[0:6]: 0x392-0x39f (13)
     |                                               |                |                  [0]{}: in 0x392-0x394 (2)
0x390|      20                                       |                |                    opcode: "local.get" (0x20) 0x392-0x393 (1)
0x390|         00                                    |   .            |                    x: 0 (valid) 0x393-0x394 (1)
     |                                               |                |                  [1]{}: in 0x394-0x396 (2)
0x390|            20                                 |                |                    opcode: "local.get" (0x20) 0x394-0x395 (1)
0x390|               01                              |     .          |                    x: 1 (valid) 0x395-0x396 (1)
     |                                               |                |                  [2]{}: in 0x396-0x399 (3)
0x390|                  fd                           |      .         |                    opcode: "vector" (0xfd) 0x396-0x397 (1)
0x390|                     b6 01                     |       ..       |                    v_opcode: "i32x4.min_s" (182) 0x397-0x399 (2)
     |                                               |                |                  [3]{}: in 0x399-0x39b (2)
0x390|                           20                  |                |                    opcode: "local.get" (0x20) 0x399-0x39a (1)
0x390|                              02               |          .     |                    x: 2 (valid) 0x39a-0x39b (1)
     |                                               |                |                  [4]{}: in 0x39b-0x39e (3)
0x390|                                 fd            |           .    |                    opcode: "vector" (0xfd) 0x39b-0x39c (1)
0x390|                                    b8 01      |            ..  |                    v_opcode: "i32x4.max_s" (184) 0x39c-0x39e (2)
     |                                               |                |                  [5]{}: in 0x39e-0x39f (1)
0x390|                                          0b   |              . |                    opcode: "end" (0xb) 0x39e-0x39f (1)
     |                                               |                |            [16]{}: code 0x39f-0x3ac (13)
0x390|                                             0c|               .|              size: 12 (valid) 0x39f-0x3a0 (1)
     |                                               |                |              code{}: 0x3a0-0x3ac (12)
     |                                               |                |                t{}: 0x3a0-0x3a1 (1)
0x3a0|00                                             |.               |                  n: 0 (valid) 0x3a0-0x3a1 (1)
     |                                               |                |                  x[0:0]: 0x3a1-0x3a1 (0)
     |                                               |                |                e[0:5]: 0x3a1-0x3ac (11)
     |                                               |                |                  [0]{}: in 0x3a1-0x3a3 (2)
0x3a0|   20                                          |                |                    opcode: "local.get" (0x20) 0x3a1-0x3a2 (1)
0x3a0|      00                                       |  .             |                    x: 0 (valid) 0x3a2-0x3a3 (1)
     |                                               |                |                  [1]{}: in 0x3a3-0x3a6 (3)
0x3a0|         fd                                    |   .            |                    opcode: "vector" (0xfd) 0x3a3-0x3a4 (1)
0x3a0|            a0 01                              |    ..          |                    v_opcode: "i32x4.abs" (160) 0x3a4-0x3a6 (2)
     |                                               |                |                  [2]{}: in 0x3a6-0x3a8 (2)
0x3a0|                  20                           |                |                    opcode: "local.get" (0x20) 0x3a6-0x3a7 (1)
0x3a0|                     01                        |       .        |                    x: 1 (valid) 0x3a7-0x3a8 (1)
     |                                               |                |                  [3]{}: in 0x3a8-0x3ab (3)
0x3a0|                        fd                     |        .       |                    opcode: "vector" (0xfd) 0x3a8-0x3a9 (1)
0x3a0|                           b8 01               |         ..     |                    v_opcode: "i32x4.max_s" (184) 0x3a9-0x3ab (2)
     |                                               |                |                  [4]{}: in 0x3ab-0x3ac (1)
0x3a0|                                 0b            |           .    |                    opcode: "end" (0xb) 0x3ab-0x3ac (1)
     |                                               |                |            [17]{}: code 0x3ac-0x3b9 (13)
0x3a0|                                    0c         |            .   |              size: 12 (valid) 0x3ac-0x3ad (1)
     |                                               |                |              code{}: 0x3ad-0x3b9 (12)
     |                                               |                |                t{}: 0x3ad-0x3ae (1)
0x3a0|                                       00      |             .  |                  n: 0 (valid) 0x3ad-0x3ae (1)
     |                                               |                |                  x[0:0]: 0x3ae-0x3ae (0)
     |                                               |                |                e[0:5]: 0x3ae-0x3b9 (11)
     |                                               |                |                  [0]{}: in 0x3ae-0x3b0 (2)
0x3a0|                                          20   |                |                    opcode: "local.get" (0x20) 0x3ae-0x3af (1)
0x3a0|                                             00|               .|                    x: 0 (valid) 0x3af-0x3b0 (1)
     |                                               |                |                  [1]{}: in 0x3b0-0x3b2 (2)
0x3b0|20                                             |                |                    opcode: "local.get" (0x20) 0x3b0-0x3b1 (1)
0x3b0|   01                                          | .              |                    x: 1 (valid) 0x3b1-0x3b2 (1)
     |                                               |                |                  [2]{}: in 0x3b2-0x3b5 (3)
0x3b0|      fd                                       |  .             |                    opcode: "vector" (0xfd) 0x3b2-0x3b3 (1)
0x3b0|         b8 01                                 |   ..           |                    v_opcode: "i32x4.max_s" (184) 0x3b3-0x3b5 (2)
     |                                               |                |                  [3]{}: in 0x3b5-0x3b8 (3)
0x3b0|               fd                              |     .          |                    opcode: "vector" (0xfd) 0x3b5-0x3b6 (1)
0x3b0|                  a0 01                        |      ..        |                    v_opcode: "i32x4.abs" (160) 0x3b6-0x3b8 (2)
     |                                               |                |                  [4]{}: in 0x3b8-0x3b9 (1)
0x3b0|                        0b                     |        .       |                    opcode: "end" (0xb) 0x3b8-0x3b9 (1)
     |                                               |                |            [18]{}: code 0x3b9-0x3c8 (15)
0x3b0|                           0e                  |         .      |              size: 14 (valid) 0x3b9-0x3ba (1)
     |                                               |                |              code{}: 0x3ba-0x3c8 (14)
     |                                               |                |                t{}: 0x3ba-0x3bb (1)
0x3b0|                              00               |          .     |                  n: 0 (valid) 0x3ba-0x3bb (1)
     |                                               |                |                  x[0:0]: 0x3bb-0x3bb (0)
     |                                               |                |                e[0:6]: 0x3bb-0x3c8 (13)
     |                                               |                |                  [0]{}: in 0x3bb-0x3bd (2)
0x3b0|                                 20            |                |                    opcode: "local.get" (0x20) 0x3bb-0x3bc (1)
0x3b0|                                    00         |            .   |                    x: 0 (valid) 0x3bc-0x3bd (1)
     |                                               |                |                  [1]{}: in 0x3bd-0x3bf (2)
0x3b0|                                       20      |                |                    opcode: "local.get" (0x20) 0x3bd-0x3be (1)
0x3b0|                                          01   |              . |                    x: 1 (valid) 0x3be-0x3bf (1)
     |                                               |                |                  [2]{}: in 0x3bf-0x3c2 (3)
0x3b0|                                             fd|               .|                    opcode: "vector" (0xfd) 0x3bf-0x3c0 (1)
0x3c0|b9 01                                          |..              |                    v_opcode: "i32x4.max_u" (185) 0x3c0-0x3c2 (2)
     |                                               |                |                  [3]{}: in 0x3c2-0x3c4 (2)
0x3c0|      20                                       |                |                    opcode: "local.get" (0x20) 0x3c2-0x3c3 (1)
0x3c0|         02                                    |   .            |                    x: 2 (valid) 0x3c3-0x3c4 (1)
     |                                               |                |                  [4]{}: in 0x3c4-0x3c7 (3)
0x3c0|            fd                                 |    .           |                    opcode: "vector" (0xfd) 0x3c4-0x3c5 (1)
0x3c0|               b9 01                           |     ..         |                    v_opcode: "i32x4.max_u" (185) 0x3c5-0x3c7 (2)
     |                                               |                |                  [5]{}: in 0x3c7-0x3c8 (1)
0x3c0|                     0b                        |       .        |                    opcode: "end" (0xb) 0x3c7-0x3c8 (1)
     |                                               |                |            [19]{}: code 0x3c8-0x3d7 (15)
0x3c0|                        0e                     |        .       |              size: 14 (valid) 0x3c8-0x3c9 (1)
     |                                               |                |              code{}: 0x3c9-0x3d7 (14)
     |                                               |                |                t{}: 0x3c9-0x3ca (1)
0x3c0|                           00                  |         .      |                  n: 0 (valid) 0x3c9-0x3ca (1)
     |                                               |                |                  x[0:0]: 0x3ca-0x3ca (0)
     |                                               |                |                e[0:6]: 0x3ca-0x3d7 (13)
     |                                               |                |                  [0]{}: in 0x3ca-0x3cc (2)
0x3c0|                              20               |                |                    opcode: "local.get" (0x20) 0x3ca-0x3cb (1)
0x3c0|                                 00            |           .    |                    x: 0 (valid) 0x3cb-0x3cc (1)
     |                                               |                |                  [1]{}: in 0x3cc-0x3ce (2)
0x3c0|                                    20         |                |                    opcode: "local.get" (0x20) 0x3cc-0x3cd (1)
0x3c0|                                       01      |             .  |                    x: 1 (valid) 0x3cd-0x3ce (1)
     |                                               |                |                  [2]{}: in 0x3ce-0x3d1 (3)
0x3c0|                                          fd   |              . |                    opcode: "vector" (0xfd) 0x3ce-0x3cf (1)
0x3c0|                                             b8|               .|                    v_opcode: "i32x4.max_s" (184) 0x3cf-0x3d1 (2)
0x3d0|01                                             |.               |
     |                                               |                |                  [3]{}: in 0x3d1-0x3d3 (2)
0x3d0|   20                                          |                |                    opcode: "local.get" (0x20) 0x3d1-0x3d2 (1)
0x3d0|      02                                       |  .             |                    x: 2 (valid) 0x3d2-0x3d3 (1)
     |                                               |                |                  [4]{}: in 0x3d3-0x3d6 (3)
0x3d0|         fd                                    |   .            |                    opcode: "vector" (0xfd) 0x3d3-0x3d4 (1)
0x3d0|            b9 01                              |    ..          |                    v_opcode: "i32x4.max_u" (185) 0x3d4-0x3d6 (2)
     |                                               |                |                  [5]{}: in 0x3d6-0x3d7 (1)
0x3d0|                  0b                           |      .         |                    opcode: "end" (0xb) 0x3d6-0x3d7 (1)
     |                                               |                |            [20]{}: code 0x3d7-0x3e6 (15)
0x3d0|                     0e                        |       .        |              size: 14 (valid) 0x3d7-0x3d8 (1)
     |                                               |                |              code{}: 0x3d8-0x3e6 (14)
     |                                               |                |                t{}: 0x3d8-0x3d9 (1)
0x3d0|                        00                     |        .       |                  n: 0 (valid) 0x3d8-0x3d9 (1)
     |                                               |                |                  x[0:0]: 0x3d9-0x3d9 (0)
     |                                               |                |                e[0:6]: 0x3d9-0x3e6 (13)
     |                                               |                |                  [0]{}: in 0x3d9-0x3db (2)
0x3d0|                           20                  |                |                    opcode: "local.get" (0x20) 0x3d9-0x3da (1)
0x3d0|                              00               |          .     |                    x: 0 (valid) 0x3da-0x3db (1)
     |                                               |                |                  [1]{}: in 0x3db-0x3dd (2)
0x3d0|                                 20            |                |                    opcode: "local.get" (0x20) 0x3db-0x3dc (1)
0x3d0|                                    01         |            .   |                    x: 1 (valid) 0x3dc-0x3dd (1)
     |                                               |                |                  [2]{}: in 0x3dd-0x3e0 (3)
0x3d0|                                       fd      |             .  |                    opcode: "vector" (0xfd) 0x3dd-0x3de (1)
0x3d0|                                          b7 01|              ..|                    v_opcode: "i32x4.min_u" (183) 0x3de-0x3e0 (2)
     |                                               |                |                  [3]{}: in 0x3e0-0x3e2 (2)
0x3e0|20                                             |                |                    opcode: "local.get" (0x20) 0x3e0-0x3e1 (1)
0x3e0|   02                                          | .              |                    x: 2 (valid) 0x3e1-0x3e2 (1)
     |                                               |                |                  [4]{}: in 0x3e2-0x3e5 (3)
0x3e0|      fd                                       |  .             |                    opcode: "vector" (0xfd) 0x3e2-0x3e3 (1)
0x3e0|         b9 01                                 |   ..           |                    v_opcode: "i32x4.max_u" (185) 0x3e3-0x3e5 (2)
     |                                               |                |                  [5]{}: in 0x3e5-0x3e6 (1)
0x3e0|               0b                              |     .          |                    opcode: "end" (0xb) 0x3e5-0x3e6 (1)
     |                                               |                |            [21]{}: code 0x3e6-0x3f5 (15)
0x3e0|                  0e                           |      .         |              size: 14 (valid) 0x3e6-0x3e7 (1)
     |                                               |                |              code{}: 0x3e7-0x3f5 (14)
     |                                               |                |                t{}: 0x3e7-0x3e8 (1)
0x3e0|                     00                        |       .        |                  n: 0 (valid) 0x3e7-0x3e8 (1)
     |                                               |                |                  x[0:0]: 0x3e8-0x3e8 (0)
     |                                               |                |                e[0:6]: 0x3e8-0x3f5 (13)
     |                                               |                |                  [0]{}: in 0x3e8-0x3ea (2)
0x3e0|                        20                     |                |                    opcode: "local.get" (0x20) 0x3e8-0x3e9 (1)
0x3e0|                           00                  |         .      |                    x: 0 (valid) 0x3e9-0x3ea (1)
     |                                               |                |                  [1]{}: in 0x3ea-0x3ec (2)
0x3e0|                              20               |                |                    opcode: "local.get" (0x20) 0x3ea-0x3eb (1)
0x3e0|                                 01            |           .    |                    x: 1 (valid) 0x3eb-0x3ec (1)
     |                                               |                |                  [2]{}: in 0x3ec-0x3ef (3)
0x3e0|                                    fd         |            .   |                    opcode: "vector" (0xfd) 0x3ec-0x3ed (1)
0x3e0|                                       b6 01   |             .. |                    v_opcode: "i32x4.min_s" (182) 0x3ed-0x3ef (2)
     |                                               |                |                  [3]{}: in 0x3ef-0x3f1 (2)
0x3e0|                                             20|                |                    opcode: "local.get" (0x20) 0x3ef-0x3f0 (1)
0x3f0|02                                             |.               |                    x: 2 (valid) 0x3f0-0x3f1 (1)
     |                                               |                |                  [4]{}: in 0x3f1-0x3f4 (3)
0x3f0|   fd                                          | .              |                    opcode: "vector" (0xfd) 0x3f1-0x3f2 (1)
0x3f0|      b9 01                                    |  ..            |                    v_opcode: "i32x4.max_u" (185) 0x3f2-0x3f4 (2)
     |                                               |                |                  [5]{}: in 0x3f4-0x3f5 (1)
0x3f0|            0b                                 |    .           |                    opcode: "end" (0xb) 0x3f4-0x3f5 (1)
     |                                               |                |            [22]{}: code 0x3f5-0x402 (13)
0x3f0|               0c                              |     .          |              size: 12 (valid) 0x3f5-0x3f6 (1)
     |                                               |                |              code{}: 0x3f6-0x402 (12)
     |                                               |                |                t{}: 0x3f6-0x3f7 (1)
0x3f0|                  00                           |      .         |                  n: 0 (valid) 0x3f6-0x3f7 (1)
     |                                               |                |                  x[0:0]: 0x3f7-0x3f7 (0)
     |                                               |                |                e[0:5]: 0x3f7-0x402 (11)
     |                                               |                |                  [0]{}: in 0x3f7-0x3f9 (2)
0x3f0|                     20                        |                |                    opcode: "local.get" (0x20) 0x3f7-0x3f8 (1)
0x3f0|                        00                     |        .       |                    x: 0 (valid) 0x3f8-0x3f9 (1)
     |                                               |                |                  [1]{}: in 0x3f9-0x3fc (3)
0x3f0|                           fd                  |         .      |                    opcode: "vector" (0xfd) 0x3f9-0x3fa (1)
0x3f0|                              a0 01            |          ..    |                    v_opcode: "i32x4.abs" (160) 0x3fa-0x3fc (2)
     |                                               |                |                  [2]{}: in 0x3fc-0x3fe (2)
0x3f0|                                    20         |                |                    opcode: "local.get" (0x20) 0x3fc-0x3fd (1)
0x3f0|                                       01      |             .  |                    x: 1 (valid) 0x3fd-0x3fe (1)
     |                                               |                |                  [3]{}: in 0x3fe-0x401 (3)
0x3f0|                                          fd   |              . |                    opcode: "vector" (0xfd) 0x3fe-0x3ff (1)
0x3f0|                                             b9|               .|                    v_opcode: "i32x4.max_u" (185) 0x3ff-0x401 (2)
0x400|01                                             |.               |
     |                                               |                |                  [4]{}: in 0x401-0x402 (1)
0x400|   0b                                          | .              |                    opcode: "end" (0xb) 0x401-0x402 (1)
     |                                               |                |            [23]{}: code 0x402-0x40f (13)
0x400|      0c                                       |  .             |              size: 12 (valid) 0x402-0x403 (1)
     |                                               |                |              code{}: 0x403-0x40f (12)
     |                                               |                |                t{}: 0x403-0x404 (1)
0x400|         00                                    |   .            |                  n: 0 (valid) 0x403-0x404 (1)
     |                                               |                |                  x[0:0]: 0x404-0x404 (0)
     |                                               |                |                e[0:5]: 0x404-0x40f (11)
     |                                               |                |                  [0]{}: in 0x404-0x406 (2)
0x400|            20                                 |                |                    opcode: "local.get" (0x20) 0x404-0x405 (1)
0x400|               00                              |     .          |                    x: 0 (valid) 0x405-0x406 (1)
     |                                               |                |                  [1]{}: in 0x406-0x408 (2)
0x400|                  20                           |                |                    opcode: "local.get" (0x20) 0x406-0x407 (1)
0x400|                     01                        |       .        |                    x: 1 (valid) 0x407-0x408 (1)
     |                                               |                |                  [2]{}: in 0x408-0x40b (3)
0x400|                        fd                     |        .       |                    opcode: "vector" (0xfd) 0x408-0x409 (1)
0x400|                           b9 01               |         ..     |                    v_opcode: "i32x4.max_u" (185) 0x409-0x40b (2)
     |                                               |                |                  [3]{}: in 0x40b-0x40e (3)
0x400|                                 fd            |           .    |                    opcode: "vector" (0xfd) 0x40b-0x40c (1)
0x400|                                    a0 01      |            ..  |                    v_opcode: "i32x4.abs" (160) 0x40c-0x40e (2)
     |                                               |                |                  [4]{}: in 0x40e-0x40f (1)
0x400|                                          0b   |              . |                    opcode: "end" (0xb) 0x40e-0x40f (1)
     |                                               |                |            [24]{}: code 0x40f-0x41a (11)
0x400|                                             0a|               .|              size: 10 (valid) 0x40f-0x410 (1)
     |                                               |                |              code{}: 0x410-0x41a (10)
     |                                               |                |                t{}: 0x410-0x411 (1)
0x410|00                                             |.               |                  n: 0 (valid) 0x410-0x411 (1)
     |                                               |                |                  x[0:0]: 0x411-0x411 (0)
     |                                               |                |                e[0:4]: 0x411-0x41a (9)
     |                                               |                |                  [0]{}: in 0x411-0x413 (2)
0x410|   20                                          |                |                    opcode: "local.get" (0x20) 0x411-0x412 (1)
0x410|      00                                       |  .             |                    x: 0 (valid) 0x412-0x413 (1)
     |                                               |                |                  [1]{}: in 0x413-0x416 (3)
0x410|         fd                                    |   .            |                    opcode: "vector" (0xfd) 0x413-0x414 (1)
0x410|            a0 01                              |    ..          |                    v_opcode: "i32x4.abs" (160) 0x414-0x416 (2)
     |                                               |                |                  [2]{}: in 0x416-0x419 (3)
0x410|                  fd                           |      .         |                    opcode: "vector" (0xfd) 0x416-0x417 (1)
0x410|                     a0 01                     |       ..       |                    v_opcode: "i32x4.abs" (160) 0x417-0x419 (2)
     |                                               |                |                  [3]{}: in 0x419-0x41a (1)
0x410|                           0b|                 |         .|     |                    opcode: "end" (0xb) 0x419-0x41a (1)
