$ fq -d wasm dv simd_align-44.wasm
    |00 01 02 03 04 05 06 07 08 09 0a 0b 0c 0d 0e 0f|0123456789abcdef|.{}: simd_align-44.wasm (wasm) 0x0-0x65 (101)
0x00|00 61 73 6d                                    |.asm            |  magic: raw bits (valid) 0x0-0x4 (4)
0x00|            01 00 00 00                        |    ....        |  version: 1 0x4-0x8 (4)
    |                                               |                |  sections[0:5]: 0x8-0x65 (93)
    |                                               |                |    [0]{}: section 0x8-0x15 (13)
0x00|                        01                     |        .       |      id: "type_section" (1) 0x8-0x9 (1)
0x00|                           0b                  |         .      |      size: 11 (valid) 0x9-0xa (1)
    |                                               |                |      content{}: 0xa-0x15 (11)
    |                                               |                |        ft{}: 0xa-0x15 (11)
0x00|                              02               |          .     |          n: 2 (valid) 0xa-0xb (1)
    |                                               |                |          x[0:2]: 0xb-0x15 (10)
    |                                               |                |            [0]{}: ft 0xb-0x10 (5)
0x00|                                 60            |           `    |              tag: 0x60 (valid) 0xb-0xc (1)
    |                                               |                |              rt1{}: 0xc-0xe (2)
0x00|                                    01         |            .   |                n: 1 (valid) 0xc-0xd (1)
    |                                               |                |                x[0:1]: 0xd-0xe (1)
0x00|                                       7f      |             .  |                  [0]: "i32" (0x7f) t 0xd-0xe (1)
    |                                               |                |              rt2{}: 0xe-0x10 (2)
0x00|                                          01   |              . |                n: 1 (valid) 0xe-0xf (1)
    |                                               |                |                x[0:1]: 0xf-0x10 (1)
0x00|                                             7b|               {|                  [0]: "v128" (0x7b) t 0xf-0x10 (1)
    |                                               |                |            [1]{}: ft 0x10-0x15 (5)
0x10|60                                             |`               |              tag: 0x60 (valid) 0x10-0x11 (1)
    |                                               |                |              rt1{}: 0x11-0x14 (3)
0x10|   02                                          | .              |                n: 2 (valid) 0x11-0x12 (1)
    |                                               |                |                x[0:2]: 0x12-0x14 (2)
0x10|      7f                                       |  .             |                  [0]: "i32" (0x7f) t 0x12-0x13 (1)
0x10|         7b                                    |   {            |                  [1]: "v128" (0x7b) t 0x13-0x14 (1)
    |                                               |                |              rt2{}: 0x14-0x15 (1)
0x10|            00                                 |    .           |                n: 0 (valid) 0x14-0x15 (1)
    |                                               |                |                x[0:0]: 0x15-0x15 (0)
    |                                               |                |    [1]{}: section 0x15-0x1a (5)
0x10|               03                              |     .          |      id: "function_section" (3) 0x15-0x16 (1)
0x10|                  03                           |      .         |      size: 3 (valid) 0x16-0x17 (1)
    |                                               |                |      content{}: 0x17-0x1a (3)
    |                                               |                |        x{}: 0x17-0x1a (3)
0x10|                     02                        |       .        |          n: 2 (valid) 0x17-0x18 (1)
    |                                               |                |          x[0:2]: 0x18-0x1a (2)
0x10|                        00                     |        .       |            [0]: 0 x (valid) 0x18-0x19 (1)
0x10|                           01                  |         .      |            [1]: 1 x (valid) 0x19-0x1a (1)
    |                                               |                |    [2]{}: section 0x1a-0x20 (6)
0x10|                              05               |          .     |      id: "memory_section" (5) 0x1a-0x1b (1)
0x10|                                 04            |           .    |      size: 4 (valid) 0x1b-0x1c (1)
    |                                               |                |      content{}: 0x1c-0x20 (4)
    |                                               |                |        mem{}: 0x1c-0x20 (4)
0x10|                                    01         |            .   |          n: 1 (valid) 0x1c-0x1d (1)
    |                                               |                |          x[0:1]: 0x1d-0x20 (3)
    |                                               |                |            [0]{}: mem 0x1d-0x20 (3)
    |                                               |                |              lim{}: 0x1d-0x20 (3)
0x10|                                       01      |             .  |                tag: 0x1 0x1d-0x1e (1)
0x10|                                          01   |              . |                n: 1 (valid) 0x1e-0x1f (1)
0x10|                                             01|               .|                m: 1 (valid) 0x1f-0x20 (1)
    |                                               |                |    [3]{}: section 0x20-0x4e (46)
0x20|07                                             |.               |      id: "export_section" (7) 0x20-0x21 (1)
0x20|   2c                                          | ,              |      size: 44 (valid) 0x21-0x22 (1)
    |                                               |                |      content{}: 0x22-0x4e (44)
    |                                               |                |        ex{}: 0x22-0x4e (44)
0x20|      02                                       |  .             |          n: 2 (valid) 0x22-0x23 (1)
    |                                               |                |          x[0:2]: 0x23-0x4e (43)
    |                                               |                |            [0]{}: ex 0x23-0x38 (21)
    |                                               |                |              nm{}: 0x23-0x36 (19)
0x20|         12                                    |   .            |                n: 18 (valid) 0x23-0x24 (1)
0x20|            76 31 32 38 2e 6c 6f 61 64 20 61 6c|    v128.load al|                b: "v128.load align=16" 0x24-0x36 (18)
0x30|69 67 6e 3d 31 36                              |ign=16          |
    |                                               |                |              d{}: 0x36-0x38 (2)
0x30|                  00                           |      .         |                tag: "funcidx" (0x0) 0x36-0x37 (1)
0x30|                     00                        |       .        |                x: 0 (valid) 0x37-0x38 (1)
    |                                               |                |            [1]{}: ex 0x38-0x4e (22)
    |                                               |                |              nm{}: 0x38-0x4c (20)
0x30|                        13                     |        .       |                n: 19 (valid) 0x38-0x39 (1)
0x30|                           76 31 32 38 2e 73 74|         v128.st|                b: "v128.store align=16" 0x39-0x4c (19)
0x40|6f 72 65 20 61 6c 69 67 6e 3d 31 36            |ore align=16    |
    |                                               |                |              d{}: 0x4c-0x4e (2)
0x40|                                    00         |            .   |                tag: "funcidx" (0x0) 0x4c-0x4d (1)
0x40|                                       01      |             .  |                x: 1 (valid) 0x4d-0x4e (1)
    |                                               |                |    [4]{}: section 0x4e-0x65 (23)
0x40|                                          0a   |              . |      id: "code_section" (10) 0x4e-0x4f (1)
0x40|                                             15|               .|      size: 21 (valid) 0x4f-0x50 (1)
    |                                               |                |      content{}: 0x50-0x65 (21)
    |                                               |                |        code{}: 0x50-0x65 (21)
0x50|02                                             |.               |          n: 2 (valid) 0x50-0x51 (1)
    |                                               |                |          x[0:2]: 0x51-0x65 (20)
    |                                               |                |            [0]{}: code 0x51-0x5a (9)
0x50|   08                                          | .              |              size: 8 (valid) 0x51-0x52 (1)
    |                                               |                |              code{}: 0x52-0x5a (8)
    |                                               |                |                t{}: 0x52-0x53 (1)
0x50|      00                                       |  .             |                  n: 0 (valid) 0x52-0x53 (1)
    |                                               |                |                  x[0:0]: 0x53-0x53 (0)
    |                                               |                |                e[0:3]: 0x53-0x5a (7)
    |                                               |                |                  [0]{}: in 0x53-0x55 (2)
0x50|         20                                    |                |                    opcode: "local.get" (0x20) 0x53-0x54 (1)
0x50|            00                                 |    .           |                    x: 0 (valid) 0x54-0x55 (1)
    |                                               |                |                  [1]{}: in 0x55-0x59 (4)
0x50|               fd                              |     .          |                    opcode: "vector" (0xfd) 0x55-0x56 (1)
0x50|                  00                           |      .         |                    v_opcode: "v128.load" (0) 0x56-0x57 (1)
    |                                               |                |                    m{}: 0x57-0x59 (2)
0x50|                     04                        |       .        |                      a: 4 (valid) 0x57-0x58 (1)
0x50|                        00                     |        .       |                      o: 0 (valid) 0x58-0x59 (1)
    |                                               |                |                  [2]{}: in 0x59-0x5a (1)
0x50|                           0b                  |         .      |                    opcode: "end" (0xb) 0x59-0x5a (1)
    |                                               |                |            [1]{}: code 0x5a-0x65 (11)
0x50|                              0a               |          .     |              size: 10 (valid) 0x5a-0x5b (1)
    |                                               |                |              code{}: 0x5b-0x65 (10)
    |                                               |                |                t{}: 0x5b-0x5c (1)
0x50|                                 00            |           .    |                  n: 0 (valid) 0x5b-0x5c (1)
    |                                               |                |                  x[0:0]: 0x5c-0x5c (0)
    |                                               |                |                e[0:4]: 0x5c-0x65 (9)
    |                                               |                |                  [0]{}: in 0x5c-0x5e (2)
0x50|                                    20         |                |                    opcode: "local.get" (0x20) 0x5c-0x5d (1)
0x50|                                       00      |             .  |                    x: 0 (valid) 0x5d-0x5e (1)
    |                                               |                |                  [1]{}: in 0x5e-0x60 (2)
0x50|                                          20   |                |                    opcode: "local.get" (0x20) 0x5e-0x5f (1)
0x50|                                             01|               .|                    x: 1 (valid) 0x5f-0x60 (1)
    |                                               |                |                  [2]{}: in 0x60-0x64 (4)
0x60|fd                                             |.               |                    opcode: "vector" (0xfd) 0x60-0x61 (1)
0x60|   0b                                          | .              |                    v_opcode: "v128.store" (11) 0x61-0x62 (1)
    |                                               |                |                    m{}: 0x62-0x64 (2)
0x60|      04                                       |  .             |                      a: 4 (valid) 0x62-0x63 (1)
0x60|         00                                    |   .            |                      o: 0 (valid) 0x63-0x64 (1)
    |                                               |                |                  [3]{}: in 0x64-0x65 (1)
0x60|            0b|                                |    .|          |                    opcode: "end" (0xb) 0x64-0x65 (1)
