$ fq -d wasm dv simd_splat-2.wasm
     |00 01 02 03 04 05 06 07 08 09 0a 0b 0c 0d 0e 0f|0123456789abcdef|.{}: simd_splat-2.wasm (wasm) 0x0-0x7ef.7 (2032)
0x000|00 61 73 6d                                    |.asm            |  magic: raw bits (valid) 0x0-0x3.7 (4)
0x000|            01 00 00 00                        |    ....        |  version: 1 0x4-0x7.7 (4)
     |                                               |                |  sections[0:4]: 0x8-0x7ef.7 (2024)
     |                                               |                |    [0]{}: section 0x8-0x64.7 (93)
0x000|                        01                     |        .       |      id: "type section" (1) 0x8-0x8.7 (1)
0x000|                           5b                  |         [      |      size: 91 0x9-0x9.7 (1)
     |                                               |                |      content{}: 0xa-0x64.7 (91)
     |                                               |                |        ft{}: 0xa-0x64.7 (91)
0x000|                              0f               |          .     |          n: 15 0xa-0xa.7 (1)
     |                                               |                |          x[0:15]: 0xb-0x64.7 (90)
     |                                               |                |            [0]{}: ft 0xb-0xf.7 (5)
0x000|                                 60            |           `    |              tag: 0x60 (valid) 0xb-0xb.7 (1)
     |                                               |                |              rt1{}: 0xc-0xd.7 (2)
0x000|                                    01         |            .   |                n: 1 0xc-0xc.7 (1)
     |                                               |                |                x[0:1]: 0xd-0xd.7 (1)
0x000|                                       7f      |             .  |                  [0]: "i32" (0x7f) t 0xd-0xd.7 (1)
     |                                               |                |              rt2{}: 0xe-0xf.7 (2)
0x000|                                          01   |              . |                n: 1 0xe-0xe.7 (1)
     |                                               |                |                x[0:1]: 0xf-0xf.7 (1)
0x000|                                             7f|               .|                  [0]: "i32" (0x7f) t 0xf-0xf.7 (1)
     |                                               |                |            [1]{}: ft 0x10-0x14.7 (5)
0x010|60                                             |`               |              tag: 0x60 (valid) 0x10-0x10.7 (1)
     |                                               |                |              rt1{}: 0x11-0x12.7 (2)
0x010|   01                                          | .              |                n: 1 0x11-0x11.7 (1)
     |                                               |                |                x[0:1]: 0x12-0x12.7 (1)
0x010|      7d                                       |  }             |                  [0]: "f32" (0x7d) t 0x12-0x12.7 (1)
     |                                               |                |              rt2{}: 0x13-0x14.7 (2)
0x010|         01                                    |   .            |                n: 1 0x13-0x13.7 (1)
     |                                               |                |                x[0:1]: 0x14-0x14.7 (1)
0x010|            7d                                 |    }           |                  [0]: "f32" (0x7d) t 0x14-0x14.7 (1)
     |                                               |                |            [2]{}: ft 0x15-0x1a.7 (6)
0x010|               60                              |     `          |              tag: 0x60 (valid) 0x15-0x15.7 (1)
     |                                               |                |              rt1{}: 0x16-0x18.7 (3)
0x010|                  02                           |      .         |                n: 2 0x16-0x16.7 (1)
     |                                               |                |                x[0:2]: 0x17-0x18.7 (2)
0x010|                     7f                        |       .        |                  [0]: "i32" (0x7f) t 0x17-0x17.7 (1)
0x010|                        7f                     |        .       |                  [1]: "i32" (0x7f) t 0x18-0x18.7 (1)
     |                                               |                |              rt2{}: 0x19-0x1a.7 (2)
0x010|                           01                  |         .      |                n: 1 0x19-0x19.7 (1)
     |                                               |                |                x[0:1]: 0x1a-0x1a.7 (1)
0x010|                              7b               |          {     |                  [0]: "v128" (0x7b) t 0x1a-0x1a.7 (1)
     |                                               |                |            [3]{}: ft 0x1b-0x1f.7 (5)
0x010|                                 60            |           `    |              tag: 0x60 (valid) 0x1b-0x1b.7 (1)
     |                                               |                |              rt1{}: 0x1c-0x1d.7 (2)
0x010|                                    01         |            .   |                n: 1 0x1c-0x1c.7 (1)
     |                                               |                |                x[0:1]: 0x1d-0x1d.7 (1)
0x010|                                       7e      |             ~  |                  [0]: "i64" (0x7e) t 0x1d-0x1d.7 (1)
     |                                               |                |              rt2{}: 0x1e-0x1f.7 (2)
0x010|                                          01   |              . |                n: 1 0x1e-0x1e.7 (1)
     |                                               |                |                x[0:1]: 0x1f-0x1f.7 (1)
0x010|                                             7e|               ~|                  [0]: "i64" (0x7e) t 0x1f-0x1f.7 (1)
     |                                               |                |            [4]{}: ft 0x20-0x24.7 (5)
0x020|60                                             |`               |              tag: 0x60 (valid) 0x20-0x20.7 (1)
     |                                               |                |              rt1{}: 0x21-0x22.7 (2)
0x020|   01                                          | .              |                n: 1 0x21-0x21.7 (1)
     |                                               |                |                x[0:1]: 0x22-0x22.7 (1)
0x020|      7c                                       |  |             |                  [0]: "f64" (0x7c) t 0x22-0x22.7 (1)
     |                                               |                |              rt2{}: 0x23-0x24.7 (2)
0x020|         01                                    |   .            |                n: 1 0x23-0x23.7 (1)
     |                                               |                |                x[0:1]: 0x24-0x24.7 (1)
0x020|            7c                                 |    |           |                  [0]: "f64" (0x7c) t 0x24-0x24.7 (1)
     |                                               |                |            [5]{}: ft 0x25-0x2b.7 (7)
0x020|               60                              |     `          |              tag: 0x60 (valid) 0x25-0x25.7 (1)
     |                                               |                |              rt1{}: 0x26-0x29.7 (4)
0x020|                  03                           |      .         |                n: 3 0x26-0x26.7 (1)
     |                                               |                |                x[0:3]: 0x27-0x29.7 (3)
0x020|                     7f                        |       .        |                  [0]: "i32" (0x7f) t 0x27-0x27.7 (1)
0x020|                        7f                     |        .       |                  [1]: "i32" (0x7f) t 0x28-0x28.7 (1)
0x020|                           7f                  |         .      |                  [2]: "i32" (0x7f) t 0x29-0x29.7 (1)
     |                                               |                |              rt2{}: 0x2a-0x2b.7 (2)
0x020|                              01               |          .     |                n: 1 0x2a-0x2a.7 (1)
     |                                               |                |                x[0:1]: 0x2b-0x2b.7 (1)
0x020|                                 7b            |           {    |                  [0]: "v128" (0x7b) t 0x2b-0x2b.7 (1)
     |                                               |                |            [6]{}: ft 0x2c-0x33.7 (8)
0x020|                                    60         |            `   |              tag: 0x60 (valid) 0x2c-0x2c.7 (1)
     |                                               |                |              rt1{}: 0x2d-0x31.7 (5)
0x020|                                       04      |             .  |                n: 4 0x2d-0x2d.7 (1)
     |                                               |                |                x[0:4]: 0x2e-0x31.7 (4)
0x020|                                          7f   |              . |                  [0]: "i32" (0x7f) t 0x2e-0x2e.7 (1)
0x020|                                             7f|               .|                  [1]: "i32" (0x7f) t 0x2f-0x2f.7 (1)
0x030|7f                                             |.               |                  [2]: "i32" (0x7f) t 0x30-0x30.7 (1)
0x030|   7f                                          | .              |                  [3]: "i32" (0x7f) t 0x31-0x31.7 (1)
     |                                               |                |              rt2{}: 0x32-0x33.7 (2)
0x030|      01                                       |  .             |                n: 1 0x32-0x32.7 (1)
     |                                               |                |                x[0:1]: 0x33-0x33.7 (1)
0x030|         7b                                    |   {            |                  [0]: "v128" (0x7b) t 0x33-0x33.7 (1)
     |                                               |                |            [7]{}: ft 0x34-0x3b.7 (8)
0x030|            60                                 |    `           |              tag: 0x60 (valid) 0x34-0x34.7 (1)
     |                                               |                |              rt1{}: 0x35-0x39.7 (5)
0x030|               04                              |     .          |                n: 4 0x35-0x35.7 (1)
     |                                               |                |                x[0:4]: 0x36-0x39.7 (4)
0x030|                  7e                           |      ~         |                  [0]: "i64" (0x7e) t 0x36-0x36.7 (1)
0x030|                     7e                        |       ~        |                  [1]: "i64" (0x7e) t 0x37-0x37.7 (1)
0x030|                        7e                     |        ~       |                  [2]: "i64" (0x7e) t 0x38-0x38.7 (1)
0x030|                           7e                  |         ~      |                  [3]: "i64" (0x7e) t 0x39-0x39.7 (1)
     |                                               |                |              rt2{}: 0x3a-0x3b.7 (2)
0x030|                              01               |          .     |                n: 1 0x3a-0x3a.7 (1)
     |                                               |                |                x[0:1]: 0x3b-0x3b.7 (1)
0x030|                                 7b            |           {    |                  [0]: "v128" (0x7b) t 0x3b-0x3b.7 (1)
     |                                               |                |            [8]{}: ft 0x3c-0x43.7 (8)
0x030|                                    60         |            `   |              tag: 0x60 (valid) 0x3c-0x3c.7 (1)
     |                                               |                |              rt1{}: 0x3d-0x41.7 (5)
0x030|                                       04      |             .  |                n: 4 0x3d-0x3d.7 (1)
     |                                               |                |                x[0:4]: 0x3e-0x41.7 (4)
0x030|                                          7c   |              | |                  [0]: "f64" (0x7c) t 0x3e-0x3e.7 (1)
0x030|                                             7c|               ||                  [1]: "f64" (0x7c) t 0x3f-0x3f.7 (1)
0x040|7c                                             ||               |                  [2]: "f64" (0x7c) t 0x40-0x40.7 (1)
0x040|   7c                                          | |              |                  [3]: "f64" (0x7c) t 0x41-0x41.7 (1)
     |                                               |                |              rt2{}: 0x42-0x43.7 (2)
0x040|      01                                       |  .             |                n: 1 0x42-0x42.7 (1)
     |                                               |                |                x[0:1]: 0x43-0x43.7 (1)
0x040|         7b                                    |   {            |                  [0]: "v128" (0x7b) t 0x43-0x43.7 (1)
     |                                               |                |            [9]{}: ft 0x44-0x48.7 (5)
0x040|            60                                 |    `           |              tag: 0x60 (valid) 0x44-0x44.7 (1)
     |                                               |                |              rt1{}: 0x45-0x46.7 (2)
0x040|               01                              |     .          |                n: 1 0x45-0x45.7 (1)
     |                                               |                |                x[0:1]: 0x46-0x46.7 (1)
0x040|                  7e                           |      ~         |                  [0]: "i64" (0x7e) t 0x46-0x46.7 (1)
     |                                               |                |              rt2{}: 0x47-0x48.7 (2)
0x040|                     01                        |       .        |                n: 1 0x47-0x47.7 (1)
     |                                               |                |                x[0:1]: 0x48-0x48.7 (1)
0x040|                        7f                     |        .       |                  [0]: "i32" (0x7f) t 0x48-0x48.7 (1)
     |                                               |                |            [10]{}: ft 0x49-0x4e.7 (6)
0x040|                           60                  |         `      |              tag: 0x60 (valid) 0x49-0x49.7 (1)
     |                                               |                |              rt1{}: 0x4a-0x4c.7 (3)
0x040|                              02               |          .     |                n: 2 0x4a-0x4a.7 (1)
     |                                               |                |                x[0:2]: 0x4b-0x4c.7 (2)
0x040|                                 7e            |           ~    |                  [0]: "i64" (0x7e) t 0x4b-0x4b.7 (1)
0x040|                                    7e         |            ~   |                  [1]: "i64" (0x7e) t 0x4c-0x4c.7 (1)
     |                                               |                |              rt2{}: 0x4d-0x4e.7 (2)
0x040|                                       01      |             .  |                n: 1 0x4d-0x4d.7 (1)
     |                                               |                |                x[0:1]: 0x4e-0x4e.7 (1)
0x040|                                          7b   |              { |                  [0]: "v128" (0x7b) t 0x4e-0x4e.7 (1)
     |                                               |                |            [11]{}: ft 0x4f-0x54.7 (6)
0x040|                                             60|               `|              tag: 0x60 (valid) 0x4f-0x4f.7 (1)
     |                                               |                |              rt1{}: 0x50-0x52.7 (3)
0x050|02                                             |.               |                n: 2 0x50-0x50.7 (1)
     |                                               |                |                x[0:2]: 0x51-0x52.7 (2)
0x050|   7d                                          | }              |                  [0]: "f32" (0x7d) t 0x51-0x51.7 (1)
0x050|      7d                                       |  }             |                  [1]: "f32" (0x7d) t 0x52-0x52.7 (1)
     |                                               |                |              rt2{}: 0x53-0x54.7 (2)
0x050|         01                                    |   .            |                n: 1 0x53-0x53.7 (1)
     |                                               |                |                x[0:1]: 0x54-0x54.7 (1)
0x050|            7b                                 |    {           |                  [0]: "v128" (0x7b) t 0x54-0x54.7 (1)
     |                                               |                |            [12]{}: ft 0x55-0x5a.7 (6)
0x050|               60                              |     `          |              tag: 0x60 (valid) 0x55-0x55.7 (1)
     |                                               |                |              rt1{}: 0x56-0x58.7 (3)
0x050|                  02                           |      .         |                n: 2 0x56-0x56.7 (1)
     |                                               |                |                x[0:2]: 0x57-0x58.7 (2)
0x050|                     7c                        |       |        |                  [0]: "f64" (0x7c) t 0x57-0x57.7 (1)
0x050|                        7c                     |        |       |                  [1]: "f64" (0x7c) t 0x58-0x58.7 (1)
     |                                               |                |              rt2{}: 0x59-0x5a.7 (2)
0x050|                           01                  |         .      |                n: 1 0x59-0x59.7 (1)
     |                                               |                |                x[0:1]: 0x5a-0x5a.7 (1)
0x050|                              7b               |          {     |                  [0]: "v128" (0x7b) t 0x5a-0x5a.7 (1)
     |                                               |                |            [13]{}: ft 0x5b-0x5f.7 (5)
0x050|                                 60            |           `    |              tag: 0x60 (valid) 0x5b-0x5b.7 (1)
     |                                               |                |              rt1{}: 0x5c-0x5d.7 (2)
0x050|                                    01         |            .   |                n: 1 0x5c-0x5c.7 (1)
     |                                               |                |                x[0:1]: 0x5d-0x5d.7 (1)
0x050|                                       7d      |             }  |                  [0]: "f32" (0x7d) t 0x5d-0x5d.7 (1)
     |                                               |                |              rt2{}: 0x5e-0x5f.7 (2)
0x050|                                          01   |              . |                n: 1 0x5e-0x5e.7 (1)
     |                                               |                |                x[0:1]: 0x5f-0x5f.7 (1)
0x050|                                             7b|               {|                  [0]: "v128" (0x7b) t 0x5f-0x5f.7 (1)
     |                                               |                |            [14]{}: ft 0x60-0x64.7 (5)
0x060|60                                             |`               |              tag: 0x60 (valid) 0x60-0x60.7 (1)
     |                                               |                |              rt1{}: 0x61-0x62.7 (2)
0x060|   01                                          | .              |                n: 1 0x61-0x61.7 (1)
     |                                               |                |                x[0:1]: 0x62-0x62.7 (1)
0x060|      7f                                       |  .             |                  [0]: "i32" (0x7f) t 0x62-0x62.7 (1)
     |                                               |                |              rt2{}: 0x63-0x64.7 (2)
0x060|         01                                    |   .            |                n: 1 0x63-0x63.7 (1)
     |                                               |                |                x[0:1]: 0x64-0x64.7 (1)
0x060|            7b                                 |    {           |                  [0]: "v128" (0x7b) t 0x64-0x64.7 (1)
     |                                               |                |    [1]{}: section 0x65-0x92.7 (46)
0x060|               03                              |     .          |      id: "function section" (3) 0x65-0x65.7 (1)
0x060|                  2c                           |      ,         |      size: 44 0x66-0x66.7 (1)
     |                                               |                |      content{}: 0x67-0x92.7 (44)
     |                                               |                |        x{}: 0x67-0x92.7 (44)
0x060|                     2b                        |       +        |          n: 43 0x67-0x67.7 (1)
     |                                               |                |          x[0:43]: 0x68-0x92.7 (43)
0x060|                        00                     |        .       |            [0]: 0 x 0x68-0x68.7 (1)
0x060|                           00                  |         .      |            [1]: 0 x 0x69-0x69.7 (1)
0x060|                              00               |          .     |            [2]: 0 x 0x6a-0x6a.7 (1)
0x060|                                 00            |           .    |            [3]: 0 x 0x6b-0x6b.7 (1)
0x060|                                    00         |            .   |            [4]: 0 x 0x6c-0x6c.7 (1)
0x060|                                       00      |             .  |            [5]: 0 x 0x6d-0x6d.7 (1)
0x060|                                          01   |              . |            [6]: 1 x 0x6e-0x6e.7 (1)
0x060|                                             01|               .|            [7]: 1 x 0x6f-0x6f.7 (1)
0x070|02                                             |.               |            [8]: 2 x 0x70-0x70.7 (1)
0x070|   03                                          | .              |            [9]: 3 x 0x71-0x71.7 (1)
0x070|      03                                       |  .             |            [10]: 3 x 0x72-0x72.7 (1)
0x070|         04                                    |   .            |            [11]: 4 x 0x73-0x73.7 (1)
0x070|            04                                 |    .           |            [12]: 4 x 0x74-0x74.7 (1)
0x070|               05                              |     .          |            [13]: 5 x 0x75-0x75.7 (1)
0x070|                  06                           |      .         |            [14]: 6 x 0x76-0x76.7 (1)
0x070|                     06                        |       .        |            [15]: 6 x 0x77-0x77.7 (1)
0x070|                        07                     |        .       |            [16]: 7 x 0x78-0x78.7 (1)
0x070|                           08                  |         .      |            [17]: 8 x 0x79-0x79.7 (1)
0x070|                              02               |          .     |            [18]: 2 x 0x7a-0x7a.7 (1)
0x070|                                 02            |           .    |            [19]: 2 x 0x7b-0x7b.7 (1)
0x070|                                    02         |            .   |            [20]: 2 x 0x7c-0x7c.7 (1)
0x070|                                       02      |             .  |            [21]: 2 x 0x7d-0x7d.7 (1)
0x070|                                          02   |              . |            [22]: 2 x 0x7e-0x7e.7 (1)
0x070|                                             02|               .|            [23]: 2 x 0x7f-0x7f.7 (1)
0x080|02                                             |.               |            [24]: 2 x 0x80-0x80.7 (1)
0x080|   02                                          | .              |            [25]: 2 x 0x81-0x81.7 (1)
0x080|      02                                       |  .             |            [26]: 2 x 0x82-0x82.7 (1)
0x080|         02                                    |   .            |            [27]: 2 x 0x83-0x83.7 (1)
0x080|            00                                 |    .           |            [28]: 0 x 0x84-0x84.7 (1)
0x080|               00                              |     .          |            [29]: 0 x 0x85-0x85.7 (1)
0x080|                  00                           |      .         |            [30]: 0 x 0x86-0x86.7 (1)
0x080|                     09                        |       .        |            [31]: 9 x 0x87-0x87.7 (1)
0x080|                        02                     |        .       |            [32]: 2 x 0x88-0x88.7 (1)
0x080|                           02                  |         .      |            [33]: 2 x 0x89-0x89.7 (1)
0x080|                              02               |          .     |            [34]: 2 x 0x8a-0x8a.7 (1)
0x080|                                 0a            |           .    |            [35]: 10 x 0x8b-0x8b.7 (1)
0x080|                                    0b         |            .   |            [36]: 11 x 0x8c-0x8c.7 (1)
0x080|                                       0c      |             .  |            [37]: 12 x 0x8d-0x8d.7 (1)
0x080|                                          0d   |              . |            [38]: 13 x 0x8e-0x8e.7 (1)
0x080|                                             0b|               .|            [39]: 11 x 0x8f-0x8f.7 (1)
0x090|0b                                             |.               |            [40]: 11 x 0x90-0x90.7 (1)
0x090|   0e                                          | .              |            [41]: 14 x 0x91-0x91.7 (1)
0x090|      0d                                       |  .             |            [42]: 13 x 0x92-0x92.7 (1)
     |                                               |                |    [2]{}: section 0x93-0x5b4.7 (1314)
0x090|         07                                    |   .            |      id: "export section" (7) 0x93-0x93.7 (1)
0x090|            9f 0a                              |    ..          |      size: 1311 0x94-0x95.7 (2)
     |                                               |                |      content{}: 0x96-0x5b4.7 (1311)
     |                                               |                |        ex{}: 0x96-0x5b4.7 (1311)
0x090|                  2b                           |      +         |          n: 43 0x96-0x96.7 (1)
     |                                               |                |          x[0:43]: 0x97-0x5b4.7 (1310)
     |                                               |                |            [0]{}: ex 0x97-0xbe.7 (40)
     |                                               |                |              nm{}: 0x97-0xbc.7 (38)
0x090|                     25                        |       %        |                n: 37 0x97-0x97.7 (1)
0x090|                        61 73 2d 69 38 78 31 36|        as-i8x16|                b: "as-i8x16_extract_lane_s-operand-first" 0x98-0xbc.7 (37)
0x0a0|5f 65 78 74 72 61 63 74 5f 6c 61 6e 65 5f 73 2d|_extract_lane_s-|
0x0b0|6f 70 65 72 61 6e 64 2d 66 69 72 73 74         |operand-first   |
     |                                               |                |              d{}: 0xbd-0xbe.7 (2)
0x0b0|                                       00      |             .  |                tag: "funcidx" (0x0) 0xbd-0xbd.7 (1)
0x0b0|                                          00   |              . |                x: 0 0xbe-0xbe.7 (1)
     |                                               |                |            [1]{}: ex 0xbf-0xe5.7 (39)
     |                                               |                |              nm{}: 0xbf-0xe3.7 (37)
0x0b0|                                             24|               $|                n: 36 0xbf-0xbf.7 (1)
0x0c0|61 73 2d 69 38 78 31 36 5f 65 78 74 72 61 63 74|as-i8x16_extract|                b: "as-i8x16_extract_lane_s-operand-last" 0xc0-0xe3.7 (36)
*    |until 0xe3.7 (36)                              |                |
     |                                               |                |              d{}: 0xe4-0xe5.7 (2)
0x0e0|            00                                 |    .           |                tag: "funcidx" (0x0) 0xe4-0xe4.7 (1)
0x0e0|               01                              |     .          |                x: 1 0xe5-0xe5.7 (1)
     |                                               |                |            [2]{}: ex 0xe6-0x10d.7 (40)
     |                                               |                |              nm{}: 0xe6-0x10b.7 (38)
0x0e0|                  25                           |      %         |                n: 37 0xe6-0xe6.7 (1)
0x0e0|                     61 73 2d 69 31 36 78 38 5f|       as-i16x8_|                b: "as-i16x8_extract_lane_s-operand-first" 0xe7-0x10b.7 (37)
0x0f0|65 78 74 72 61 63 74 5f 6c 61 6e 65 5f 73 2d 6f|extract_lane_s-o|
0x100|70 65 72 61 6e 64 2d 66 69 72 73 74            |perand-first    |
     |                                               |                |              d{}: 0x10c-0x10d.7 (2)
0x100|                                    00         |            .   |                tag: "funcidx" (0x0) 0x10c-0x10c.7 (1)
0x100|                                       02      |             .  |                x: 2 0x10d-0x10d.7 (1)
     |                                               |                |            [3]{}: ex 0x10e-0x134.7 (39)
     |                                               |                |              nm{}: 0x10e-0x132.7 (37)
0x100|                                          24   |              $ |                n: 36 0x10e-0x10e.7 (1)
0x100|                                             61|               a|                b: "as-i16x8_extract_lane_s-operand-last" 0x10f-0x132.7 (36)
0x110|73 2d 69 31 36 78 38 5f 65 78 74 72 61 63 74 5f|s-i16x8_extract_|
*    |until 0x132.7 (36)                             |                |
     |                                               |                |              d{}: 0x133-0x134.7 (2)
0x130|         00                                    |   .            |                tag: "funcidx" (0x0) 0x133-0x133.7 (1)
0x130|            03                                 |    .           |                x: 3 0x134-0x134.7 (1)
     |                                               |                |            [4]{}: ex 0x135-0x15c.7 (40)
     |                                               |                |              nm{}: 0x135-0x15a.7 (38)
0x130|               25                              |     %          |                n: 37 0x135-0x135.7 (1)
0x130|                  61 73 2d 69 33 32 78 34 5f 65|      as-i32x4_e|                b: "as-i32x4_extract_lane_s-operand-first" 0x136-0x15a.7 (37)
0x140|78 74 72 61 63 74 5f 6c 61 6e 65 5f 73 2d 6f 70|xtract_lane_s-op|
0x150|65 72 61 6e 64 2d 66 69 72 73 74               |erand-first     |
     |                                               |                |              d{}: 0x15b-0x15c.7 (2)
0x150|                                 00            |           .    |                tag: "funcidx" (0x0) 0x15b-0x15b.7 (1)
0x150|                                    04         |            .   |                x: 4 0x15c-0x15c.7 (1)
     |                                               |                |            [5]{}: ex 0x15d-0x183.7 (39)
     |                                               |                |              nm{}: 0x15d-0x181.7 (37)
0x150|                                       24      |             $  |                n: 36 0x15d-0x15d.7 (1)
0x150|                                          61 73|              as|                b: "as-i32x4_extract_lane_s-operand-last" 0x15e-0x181.7 (36)
0x160|2d 69 33 32 78 34 5f 65 78 74 72 61 63 74 5f 6c|-i32x4_extract_l|
*    |until 0x181.7 (36)                             |                |
     |                                               |                |              d{}: 0x182-0x183.7 (2)
0x180|      00                                       |  .             |                tag: "funcidx" (0x0) 0x182-0x182.7 (1)
0x180|         05                                    |   .            |                x: 5 0x183-0x183.7 (1)
     |                                               |                |            [6]{}: ex 0x184-0x1ab.7 (40)
     |                                               |                |              nm{}: 0x184-0x1a9.7 (38)
0x180|            25                                 |    %           |                n: 37 0x184-0x184.7 (1)
0x180|               61 73 2d 66 33 32 78 34 5f 65 78|     as-f32x4_ex|                b: "as-f32x4_extract_lane_s-operand-first" 0x185-0x1a9.7 (37)
0x190|74 72 61 63 74 5f 6c 61 6e 65 5f 73 2d 6f 70 65|tract_lane_s-ope|
0x1a0|72 61 6e 64 2d 66 69 72 73 74                  |rand-first      |
     |                                               |                |              d{}: 0x1aa-0x1ab.7 (2)
0x1a0|                              00               |          .     |                tag: "funcidx" (0x0) 0x1aa-0x1aa.7 (1)
0x1a0|                                 06            |           .    |                x: 6 0x1ab-0x1ab.7 (1)
     |                                               |                |            [7]{}: ex 0x1ac-0x1d2.7 (39)
     |                                               |                |              nm{}: 0x1ac-0x1d0.7 (37)
0x1a0|                                    24         |            $   |                n: 36 0x1ac-0x1ac.7 (1)
0x1a0|                                       61 73 2d|             as-|                b: "as-f32x4_extract_lane_s-operand-last" 0x1ad-0x1d0.7 (36)
0x1b0|66 33 32 78 34 5f 65 78 74 72 61 63 74 5f 6c 61|f32x4_extract_la|
*    |until 0x1d0.7 (36)                             |                |
     |                                               |                |              d{}: 0x1d1-0x1d2.7 (2)
0x1d0|   00                                          | .              |                tag: "funcidx" (0x0) 0x1d1-0x1d1.7 (1)
0x1d0|      07                                       |  .             |                x: 7 0x1d2-0x1d2.7 (1)
     |                                               |                |            [8]{}: ex 0x1d3-0x1ee.7 (28)
     |                                               |                |              nm{}: 0x1d3-0x1ec.7 (26)
0x1d0|         19                                    |   .            |                n: 25 0x1d3-0x1d3.7 (1)
0x1d0|            61 73 2d 76 38 78 31 36 5f 73 77 69|    as-v8x16_swi|                b: "as-v8x16_swizzle-operands" 0x1d4-0x1ec.7 (25)
0x1e0|7a 7a 6c 65 2d 6f 70 65 72 61 6e 64 73         |zzle-operands   |
     |                                               |                |              d{}: 0x1ed-0x1ee.7 (2)
0x1e0|                                       00      |             .  |                tag: "funcidx" (0x0) 0x1ed-0x1ed.7 (1)
0x1e0|                                          08   |              . |                x: 8 0x1ee-0x1ee.7 (1)
     |                                               |                |            [9]{}: ex 0x1ef-0x214.7 (38)
     |                                               |                |              nm{}: 0x1ef-0x212.7 (36)
0x1e0|                                             23|               #|                n: 35 0x1ef-0x1ef.7 (1)
0x1f0|61 73 2d 69 36 34 78 32 5f 65 78 74 72 61 63 74|as-i64x2_extract|                b: "as-i64x2_extract_lane-operand-first" 0x1f0-0x212.7 (35)
*    |until 0x212.7 (35)                             |                |
     |                                               |                |              d{}: 0x213-0x214.7 (2)
0x210|         00                                    |   .            |                tag: "funcidx" (0x0) 0x213-0x213.7 (1)
0x210|            09                                 |    .           |                x: 9 0x214-0x214.7 (1)
     |                                               |                |            [10]{}: ex 0x215-0x239.7 (37)
     |                                               |                |              nm{}: 0x215-0x237.7 (35)
0x210|               22                              |     "          |                n: 34 0x215-0x215.7 (1)
0x210|                  61 73 2d 69 36 34 78 32 5f 65|      as-i64x2_e|                b: "as-i64x2_extract_lane-operand-last" 0x216-0x237.7 (34)
0x220|78 74 72 61 63 74 5f 6c 61 6e 65 2d 6f 70 65 72|xtract_lane-oper|
0x230|61 6e 64 2d 6c 61 73 74                        |and-last        |
     |                                               |                |              d{}: 0x238-0x239.7 (2)
0x230|                        00                     |        .       |                tag: "funcidx" (0x0) 0x238-0x238.7 (1)
0x230|                           0a                  |         .      |                x: 10 0x239-0x239.7 (1)
     |                                               |                |            [11]{}: ex 0x23a-0x25f.7 (38)
     |                                               |                |              nm{}: 0x23a-0x25d.7 (36)
0x230|                              23               |          #     |                n: 35 0x23a-0x23a.7 (1)
0x230|                                 61 73 2d 66 36|           as-f6|                b: "as-f64x2_extract_lane-operand-first" 0x23b-0x25d.7 (35)
0x240|34 78 32 5f 65 78 74 72 61 63 74 5f 6c 61 6e 65|4x2_extract_lane|
0x250|2d 6f 70 65 72 61 6e 64 2d 66 69 72 73 74      |-operand-first  |
     |                                               |                |              d{}: 0x25e-0x25f.7 (2)
0x250|                                          00   |              . |                tag: "funcidx" (0x0) 0x25e-0x25e.7 (1)
0x250|                                             0b|               .|                x: 11 0x25f-0x25f.7 (1)
     |                                               |                |            [12]{}: ex 0x260-0x284.7 (37)
     |                                               |                |              nm{}: 0x260-0x282.7 (35)
0x260|22                                             |"               |                n: 34 0x260-0x260.7 (1)
0x260|   61 73 2d 66 36 34 78 32 5f 65 78 74 72 61 63| as-f64x2_extrac|                b: "as-f64x2_extract_lane-operand-last" 0x261-0x282.7 (34)
0x270|74 5f 6c 61 6e 65 2d 6f 70 65 72 61 6e 64 2d 6c|t_lane-operand-l|
0x280|61 73 74                                       |ast             |
     |                                               |                |              d{}: 0x283-0x284.7 (2)
0x280|         00                                    |   .            |                tag: "funcidx" (0x0) 0x283-0x283.7 (1)
0x280|            0c                                 |    .           |                x: 12 0x284-0x284.7 (1)
     |                                               |                |            [13]{}: ex 0x285-0x2a0.7 (28)
     |                                               |                |              nm{}: 0x285-0x29e.7 (26)
0x280|               19                              |     .          |                n: 25 0x285-0x285.7 (1)
0x280|                  61 73 2d 69 38 78 31 36 5f 61|      as-i8x16_a|                b: "as-i8x16_add_sub-operands" 0x286-0x29e.7 (25)
0x290|64 64 5f 73 75 62 2d 6f 70 65 72 61 6e 64 73   |dd_sub-operands |
     |                                               |                |              d{}: 0x29f-0x2a0.7 (2)
0x290|                                             00|               .|                tag: "funcidx" (0x0) 0x29f-0x29f.7 (1)
0x2a0|0d                                             |.               |                x: 13 0x2a0-0x2a0.7 (1)
     |                                               |                |            [14]{}: ex 0x2a1-0x2c0.7 (32)
     |                                               |                |              nm{}: 0x2a1-0x2be.7 (30)
0x2a0|   1d                                          | .              |                n: 29 0x2a1-0x2a1.7 (1)
0x2a0|      61 73 2d 69 31 36 78 38 5f 61 64 64 5f 73|  as-i16x8_add_s|                b: "as-i16x8_add_sub_mul-operands" 0x2a2-0x2be.7 (29)
0x2b0|75 62 5f 6d 75 6c 2d 6f 70 65 72 61 6e 64 73   |ub_mul-operands |
     |                                               |                |              d{}: 0x2bf-0x2c0.7 (2)
0x2b0|                                             00|               .|                tag: "funcidx" (0x0) 0x2bf-0x2bf.7 (1)
0x2c0|0e                                             |.               |                x: 14 0x2c0-0x2c0.7 (1)
     |                                               |                |            [15]{}: ex 0x2c1-0x2e0.7 (32)
     |                                               |                |              nm{}: 0x2c1-0x2de.7 (30)
0x2c0|   1d                                          | .              |                n: 29 0x2c1-0x2c1.7 (1)
0x2c0|      61 73 2d 69 33 32 78 34 5f 61 64 64 5f 73|  as-i32x4_add_s|                b: "as-i32x4_add_sub_mul-operands" 0x2c2-0x2de.7 (29)
0x2d0|75 62 5f 6d 75 6c 2d 6f 70 65 72 61 6e 64 73   |ub_mul-operands |
     |                                               |                |              d{}: 0x2df-0x2e0.7 (2)
0x2d0|                                             00|               .|                tag: "funcidx" (0x0) 0x2df-0x2df.7 (1)
0x2e0|0f                                             |.               |                x: 15 0x2e0-0x2e0.7 (1)
     |                                               |                |            [16]{}: ex 0x2e1-0x300.7 (32)
     |                                               |                |              nm{}: 0x2e1-0x2fe.7 (30)
0x2e0|   1d                                          | .              |                n: 29 0x2e1-0x2e1.7 (1)
0x2e0|      61 73 2d 69 36 34 78 32 5f 61 64 64 5f 73|  as-i64x2_add_s|                b: "as-i64x2_add_sub_mul-operands" 0x2e2-0x2fe.7 (29)
0x2f0|75 62 5f 6d 75 6c 2d 6f 70 65 72 61 6e 64 73   |ub_mul-operands |
     |                                               |                |              d{}: 0x2ff-0x300.7 (2)
0x2f0|                                             00|               .|                tag: "funcidx" (0x0) 0x2ff-0x2ff.7 (1)
0x300|10                                             |.               |                x: 16 0x300-0x300.7 (1)
     |                                               |                |            [17]{}: ex 0x301-0x320.7 (32)
     |                                               |                |              nm{}: 0x301-0x31e.7 (30)
0x300|   1d                                          | .              |                n: 29 0x301-0x301.7 (1)
0x300|      61 73 2d 66 36 34 78 32 5f 61 64 64 5f 73|  as-f64x2_add_s|                b: "as-f64x2_add_sub_mul-operands" 0x302-0x31e.7 (29)
0x310|75 62 5f 6d 75 6c 2d 6f 70 65 72 61 6e 64 73   |ub_mul-operands |
     |                                               |                |              d{}: 0x31f-0x320.7 (2)
0x310|                                             00|               .|                tag: "funcidx" (0x0) 0x31f-0x31f.7 (1)
0x320|11                                             |.               |                x: 17 0x320-0x320.7 (1)
     |                                               |                |            [18]{}: ex 0x321-0x33e.7 (30)
     |                                               |                |              nm{}: 0x321-0x33c.7 (28)
0x320|   1b                                          | .              |                n: 27 0x321-0x321.7 (1)
0x320|      61 73 2d 69 38 78 31 36 5f 61 64 64 5f 73|  as-i8x16_add_s|                b: "as-i8x16_add_sat_s-operands" 0x322-0x33c.7 (27)
0x330|61 74 5f 73 2d 6f 70 65 72 61 6e 64 73         |at_s-operands   |
     |                                               |                |              d{}: 0x33d-0x33e.7 (2)
0x330|                                       00      |             .  |                tag: "funcidx" (0x0) 0x33d-0x33d.7 (1)
0x330|                                          12   |              . |                x: 18 0x33e-0x33e.7 (1)
     |                                               |                |            [19]{}: ex 0x33f-0x35c.7 (30)
     |                                               |                |              nm{}: 0x33f-0x35a.7 (28)
0x330|                                             1b|               .|                n: 27 0x33f-0x33f.7 (1)
0x340|61 73 2d 69 31 36 78 38 5f 61 64 64 5f 73 61 74|as-i16x8_add_sat|                b: "as-i16x8_add_sat_s-operands" 0x340-0x35a.7 (27)
0x350|5f 73 2d 6f 70 65 72 61 6e 64 73               |_s-operands     |
     |                                               |                |              d{}: 0x35b-0x35c.7 (2)
0x350|                                 00            |           .    |                tag: "funcidx" (0x0) 0x35b-0x35b.7 (1)
0x350|                                    13         |            .   |                x: 19 0x35c-0x35c.7 (1)
     |                                               |                |            [20]{}: ex 0x35d-0x37a.7 (30)
     |                                               |                |              nm{}: 0x35d-0x378.7 (28)
0x350|                                       1b      |             .  |                n: 27 0x35d-0x35d.7 (1)
0x350|                                          61 73|              as|                b: "as-i8x16_sub_sat_u-operands" 0x35e-0x378.7 (27)
0x360|2d 69 38 78 31 36 5f 73 75 62 5f 73 61 74 5f 75|-i8x16_sub_sat_u|
0x370|2d 6f 70 65 72 61 6e 64 73                     |-operands       |
     |                                               |                |              d{}: 0x379-0x37a.7 (2)
0x370|                           00                  |         .      |                tag: "funcidx" (0x0) 0x379-0x379.7 (1)
0x370|                              14               |          .     |                x: 20 0x37a-0x37a.7 (1)
     |                                               |                |            [21]{}: ex 0x37b-0x398.7 (30)
     |                                               |                |              nm{}: 0x37b-0x396.7 (28)
0x370|                                 1b            |           .    |                n: 27 0x37b-0x37b.7 (1)
0x370|                                    61 73 2d 69|            as-i|                b: "as-i16x8_sub_sat_u-operands" 0x37c-0x396.7 (27)
0x380|31 36 78 38 5f 73 75 62 5f 73 61 74 5f 75 2d 6f|16x8_sub_sat_u-o|
0x390|70 65 72 61 6e 64 73                           |perands         |
     |                                               |                |              d{}: 0x397-0x398.7 (2)
0x390|                     00                        |       .        |                tag: "funcidx" (0x0) 0x397-0x397.7 (1)
0x390|                        15                     |        .       |                x: 21 0x398-0x398.7 (1)
     |                                               |                |            [22]{}: ex 0x399-0x3b1.7 (25)
     |                                               |                |              nm{}: 0x399-0x3af.7 (23)
0x390|                           16                  |         .      |                n: 22 0x399-0x399.7 (1)
0x390|                              61 73 2d 69 38 78|          as-i8x|                b: "as-i8x16_shr_s-operand" 0x39a-0x3af.7 (22)
0x3a0|31 36 5f 73 68 72 5f 73 2d 6f 70 65 72 61 6e 64|16_shr_s-operand|
     |                                               |                |              d{}: 0x3b0-0x3b1.7 (2)
0x3b0|00                                             |.               |                tag: "funcidx" (0x0) 0x3b0-0x3b0.7 (1)
0x3b0|   16                                          | .              |                x: 22 0x3b1-0x3b1.7 (1)
     |                                               |                |            [23]{}: ex 0x3b2-0x3ca.7 (25)
     |                                               |                |              nm{}: 0x3b2-0x3c8.7 (23)
0x3b0|      16                                       |  .             |                n: 22 0x3b2-0x3b2.7 (1)
0x3b0|         61 73 2d 69 31 36 78 38 5f 73 68 72 5f|   as-i16x8_shr_|                b: "as-i16x8_shr_s-operand" 0x3b3-0x3c8.7 (22)
0x3c0|73 2d 6f 70 65 72 61 6e 64                     |s-operand       |
     |                                               |                |              d{}: 0x3c9-0x3ca.7 (2)
0x3c0|                           00                  |         .      |                tag: "funcidx" (0x0) 0x3c9-0x3c9.7 (1)
0x3c0|                              17               |          .     |                x: 23 0x3ca-0x3ca.7 (1)
     |                                               |                |            [24]{}: ex 0x3cb-0x3e3.7 (25)
     |                                               |                |              nm{}: 0x3cb-0x3e1.7 (23)
0x3c0|                                 16            |           .    |                n: 22 0x3cb-0x3cb.7 (1)
0x3c0|                                    61 73 2d 69|            as-i|                b: "as-i32x4_shr_s-operand" 0x3cc-0x3e1.7 (22)
0x3d0|33 32 78 34 5f 73 68 72 5f 73 2d 6f 70 65 72 61|32x4_shr_s-opera|
0x3e0|6e 64                                          |nd              |
     |                                               |                |              d{}: 0x3e2-0x3e3.7 (2)
0x3e0|      00                                       |  .             |                tag: "funcidx" (0x0) 0x3e2-0x3e2.7 (1)
0x3e0|         18                                    |   .            |                x: 24 0x3e3-0x3e3.7 (1)
     |                                               |                |            [25]{}: ex 0x3e4-0x3fa.7 (23)
     |                                               |                |              nm{}: 0x3e4-0x3f8.7 (21)
0x3e0|            14                                 |    .           |                n: 20 0x3e4-0x3e4.7 (1)
0x3e0|               61 73 2d 76 31 32 38 5f 61 6e 64|     as-v128_and|                b: "as-v128_and-operands" 0x3e5-0x3f8.7 (20)
0x3f0|2d 6f 70 65 72 61 6e 64 73                     |-operands       |
     |                                               |                |              d{}: 0x3f9-0x3fa.7 (2)
0x3f0|                           00                  |         .      |                tag: "funcidx" (0x0) 0x3f9-0x3f9.7 (1)
0x3f0|                              19               |          .     |                x: 25 0x3fa-0x3fa.7 (1)
     |                                               |                |            [26]{}: ex 0x3fb-0x410.7 (22)
     |                                               |                |              nm{}: 0x3fb-0x40e.7 (20)
0x3f0|                                 13            |           .    |                n: 19 0x3fb-0x3fb.7 (1)
0x3f0|                                    61 73 2d 76|            as-v|                b: "as-v128_or-operands" 0x3fc-0x40e.7 (19)
0x400|31 32 38 5f 6f 72 2d 6f 70 65 72 61 6e 64 73   |128_or-operands |
     |                                               |                |              d{}: 0x40f-0x410.7 (2)
0x400|                                             00|               .|                tag: "funcidx" (0x0) 0x40f-0x40f.7 (1)
0x410|1a                                             |.               |                x: 26 0x410-0x410.7 (1)
     |                                               |                |            [27]{}: ex 0x411-0x427.7 (23)
     |                                               |                |              nm{}: 0x411-0x425.7 (21)
0x410|   14                                          | .              |                n: 20 0x411-0x411.7 (1)
0x410|      61 73 2d 76 31 32 38 5f 78 6f 72 2d 6f 70|  as-v128_xor-op|                b: "as-v128_xor-operands" 0x412-0x425.7 (20)
0x420|65 72 61 6e 64 73                              |erands          |
     |                                               |                |              d{}: 0x426-0x427.7 (2)
0x420|                  00                           |      .         |                tag: "funcidx" (0x0) 0x426-0x426.7 (1)
0x420|                     1b                        |       .        |                x: 27 0x427-0x427.7 (1)
     |                                               |                |            [28]{}: ex 0x428-0x443.7 (28)
     |                                               |                |              nm{}: 0x428-0x441.7 (26)
0x420|                        19                     |        .       |                n: 25 0x428-0x428.7 (1)
0x420|                           61 73 2d 69 38 78 31|         as-i8x1|                b: "as-i8x16_all_true-operand" 0x429-0x441.7 (25)
0x430|36 5f 61 6c 6c 5f 74 72 75 65 2d 6f 70 65 72 61|6_all_true-opera|
0x440|6e 64                                          |nd              |
     |                                               |                |              d{}: 0x442-0x443.7 (2)
0x440|      00                                       |  .             |                tag: "funcidx" (0x0) 0x442-0x442.7 (1)
0x440|         1c                                    |   .            |                x: 28 0x443-0x443.7 (1)
     |                                               |                |            [29]{}: ex 0x444-0x45f.7 (28)
     |                                               |                |              nm{}: 0x444-0x45d.7 (26)
0x440|            19                                 |    .           |                n: 25 0x444-0x444.7 (1)
0x440|               61 73 2d 69 31 36 78 38 5f 61 6c|     as-i16x8_al|                b: "as-i16x8_all_true-operand" 0x445-0x45d.7 (25)
0x450|6c 5f 74 72 75 65 2d 6f 70 65 72 61 6e 64      |l_true-operand  |
     |                                               |                |              d{}: 0x45e-0x45f.7 (2)
0x450|                                          00   |              . |                tag: "funcidx" (0x0) 0x45e-0x45e.7 (1)
0x450|                                             1d|               .|                x: 29 0x45f-0x45f.7 (1)
     |                                               |                |            [30]{}: ex 0x460-0x47c.7 (29)
     |                                               |                |              nm{}: 0x460-0x47a.7 (27)
0x460|1a                                             |.               |                n: 26 0x460-0x460.7 (1)
0x460|   61 73 2d 69 33 32 78 34 5f 61 6c 6c 5f 74 72| as-i32x4_all_tr|                b: "as-i32x4_all_true-operand1" 0x461-0x47a.7 (26)
0x470|75 65 2d 6f 70 65 72 61 6e 64 31               |ue-operand1     |
     |                                               |                |              d{}: 0x47b-0x47c.7 (2)
0x470|                                 00            |           .    |                tag: "funcidx" (0x0) 0x47b-0x47b.7 (1)
0x470|                                    1e         |            .   |                x: 30 0x47c-0x47c.7 (1)
     |                                               |                |            [31]{}: ex 0x47d-0x499.7 (29)
     |                                               |                |              nm{}: 0x47d-0x497.7 (27)
0x470|                                       1a      |             .  |                n: 26 0x47d-0x47d.7 (1)
0x470|                                          61 73|              as|                b: "as-i32x4_all_true-operand2" 0x47e-0x497.7 (26)
0x480|2d 69 33 32 78 34 5f 61 6c 6c 5f 74 72 75 65 2d|-i32x4_all_true-|
0x490|6f 70 65 72 61 6e 64 32                        |operand2        |
     |                                               |                |              d{}: 0x498-0x499.7 (2)
0x490|                        00                     |        .       |                tag: "funcidx" (0x0) 0x498-0x498.7 (1)
0x490|                           1f                  |         .      |                x: 31 0x499-0x499.7 (1)
     |                                               |                |            [32]{}: ex 0x49a-0x4b0.7 (23)
     |                                               |                |              nm{}: 0x49a-0x4ae.7 (21)
0x490|                              14               |          .     |                n: 20 0x49a-0x49a.7 (1)
0x490|                                 61 73 2d 69 38|           as-i8|                b: "as-i8x16_eq-operands" 0x49b-0x4ae.7 (20)
0x4a0|78 31 36 5f 65 71 2d 6f 70 65 72 61 6e 64 73   |x16_eq-operands |
     |                                               |                |              d{}: 0x4af-0x4b0.7 (2)
0x4a0|                                             00|               .|                tag: "funcidx" (0x0) 0x4af-0x4af.7 (1)
0x4b0|20                                             |                |                x: 32 0x4b0-0x4b0.7 (1)
     |                                               |                |            [33]{}: ex 0x4b1-0x4c7.7 (23)
     |                                               |                |              nm{}: 0x4b1-0x4c5.7 (21)
0x4b0|   14                                          | .              |                n: 20 0x4b1-0x4b1.7 (1)
0x4b0|      61 73 2d 69 31 36 78 38 5f 65 71 2d 6f 70|  as-i16x8_eq-op|                b: "as-i16x8_eq-operands" 0x4b2-0x4c5.7 (20)
0x4c0|65 72 61 6e 64 73                              |erands          |
     |                                               |                |              d{}: 0x4c6-0x4c7.7 (2)
0x4c0|                  00                           |      .         |                tag: "funcidx" (0x0) 0x4c6-0x4c6.7 (1)
0x4c0|                     21                        |       !        |                x: 33 0x4c7-0x4c7.7 (1)
     |                                               |                |            [34]{}: ex 0x4c8-0x4df.7 (24)
     |                                               |                |              nm{}: 0x4c8-0x4dd.7 (22)
0x4c0|                        15                     |        .       |                n: 21 0x4c8-0x4c8.7 (1)
0x4c0|                           61 73 2d 69 33 32 78|         as-i32x|                b: "as-i32x4_eq-operands1" 0x4c9-0x4dd.7 (21)
0x4d0|34 5f 65 71 2d 6f 70 65 72 61 6e 64 73 31      |4_eq-operands1  |
     |                                               |                |              d{}: 0x4de-0x4df.7 (2)
0x4d0|                                          00   |              . |                tag: "funcidx" (0x0) 0x4de-0x4de.7 (1)
0x4d0|                                             22|               "|                x: 34 0x4df-0x4df.7 (1)
     |                                               |                |            [35]{}: ex 0x4e0-0x4f7.7 (24)
     |                                               |                |              nm{}: 0x4e0-0x4f5.7 (22)
0x4e0|15                                             |.               |                n: 21 0x4e0-0x4e0.7 (1)
0x4e0|   61 73 2d 69 33 32 78 34 5f 65 71 2d 6f 70 65| as-i32x4_eq-ope|                b: "as-i32x4_eq-operands2" 0x4e1-0x4f5.7 (21)
0x4f0|72 61 6e 64 73 32                              |rands2          |
     |                                               |                |              d{}: 0x4f6-0x4f7.7 (2)
0x4f0|                  00                           |      .         |                tag: "funcidx" (0x0) 0x4f6-0x4f6.7 (1)
0x4f0|                     23                        |       #        |                x: 35 0x4f7-0x4f7.7 (1)
     |                                               |                |            [36]{}: ex 0x4f8-0x50e.7 (23)
     |                                               |                |              nm{}: 0x4f8-0x50c.7 (21)
0x4f0|                        14                     |        .       |                n: 20 0x4f8-0x4f8.7 (1)
0x4f0|                           61 73 2d 66 33 32 78|         as-f32x|                b: "as-f32x4_eq-operands" 0x4f9-0x50c.7 (20)
0x500|34 5f 65 71 2d 6f 70 65 72 61 6e 64 73         |4_eq-operands   |
     |                                               |                |              d{}: 0x50d-0x50e.7 (2)
0x500|                                       00      |             .  |                tag: "funcidx" (0x0) 0x50d-0x50d.7 (1)
0x500|                                          24   |              $ |                x: 36 0x50e-0x50e.7 (1)
     |                                               |                |            [37]{}: ex 0x50f-0x525.7 (23)
     |                                               |                |              nm{}: 0x50f-0x523.7 (21)
0x500|                                             14|               .|                n: 20 0x50f-0x50f.7 (1)
0x510|61 73 2d 66 36 34 78 32 5f 65 71 2d 6f 70 65 72|as-f64x2_eq-oper|                b: "as-f64x2_eq-operands" 0x510-0x523.7 (20)
0x520|61 6e 64 73                                    |ands            |
     |                                               |                |              d{}: 0x524-0x525.7 (2)
0x520|            00                                 |    .           |                tag: "funcidx" (0x0) 0x524-0x524.7 (1)
0x520|               25                              |     %          |                x: 37 0x525-0x525.7 (1)
     |                                               |                |            [38]{}: ex 0x526-0x53c.7 (23)
     |                                               |                |              nm{}: 0x526-0x53a.7 (21)
0x520|                  14                           |      .         |                n: 20 0x526-0x526.7 (1)
0x520|                     61 73 2d 66 33 32 78 34 5f|       as-f32x4_|                b: "as-f32x4_abs-operand" 0x527-0x53a.7 (20)
0x530|61 62 73 2d 6f 70 65 72 61 6e 64               |abs-operand     |
     |                                               |                |              d{}: 0x53b-0x53c.7 (2)
0x530|                                 00            |           .    |                tag: "funcidx" (0x0) 0x53b-0x53b.7 (1)
0x530|                                    26         |            &   |                x: 38 0x53c-0x53c.7 (1)
     |                                               |                |            [39]{}: ex 0x53d-0x554.7 (24)
     |                                               |                |              nm{}: 0x53d-0x552.7 (22)
0x530|                                       15      |             .  |                n: 21 0x53d-0x53d.7 (1)
0x530|                                          61 73|              as|                b: "as-f32x4_min-operands" 0x53e-0x552.7 (21)
0x540|2d 66 33 32 78 34 5f 6d 69 6e 2d 6f 70 65 72 61|-f32x4_min-opera|
0x550|6e 64 73                                       |nds             |
     |                                               |                |              d{}: 0x553-0x554.7 (2)
0x550|         00                                    |   .            |                tag: "funcidx" (0x0) 0x553-0x553.7 (1)
0x550|            27                                 |    '           |                x: 39 0x554-0x554.7 (1)
     |                                               |                |            [40]{}: ex 0x555-0x56c.7 (24)
     |                                               |                |              nm{}: 0x555-0x56a.7 (22)
0x550|               15                              |     .          |                n: 21 0x555-0x555.7 (1)
0x550|                  61 73 2d 66 33 32 78 34 5f 64|      as-f32x4_d|                b: "as-f32x4_div-operands" 0x556-0x56a.7 (21)
0x560|69 76 2d 6f 70 65 72 61 6e 64 73               |iv-operands     |
     |                                               |                |              d{}: 0x56b-0x56c.7 (2)
0x560|                                 00            |           .    |                tag: "funcidx" (0x0) 0x56b-0x56b.7 (1)
0x560|                                    28         |            (   |                x: 40 0x56c-0x56c.7 (1)
     |                                               |                |            [41]{}: ex 0x56d-0x58f.7 (35)
     |                                               |                |              nm{}: 0x56d-0x58d.7 (33)
0x560|                                       20      |                |                n: 32 0x56d-0x56d.7 (1)
0x560|                                          61 73|              as|                b: "as-f32x4_convert_s_i32x4-operand" 0x56e-0x58d.7 (32)
0x570|2d 66 33 32 78 34 5f 63 6f 6e 76 65 72 74 5f 73|-f32x4_convert_s|
0x580|5f 69 33 32 78 34 2d 6f 70 65 72 61 6e 64      |_i32x4-operand  |
     |                                               |                |              d{}: 0x58e-0x58f.7 (2)
0x580|                                          00   |              . |                tag: "funcidx" (0x0) 0x58e-0x58e.7 (1)
0x580|                                             29|               )|                x: 41 0x58f-0x58f.7 (1)
     |                                               |                |            [42]{}: ex 0x590-0x5b4.7 (37)
     |                                               |                |              nm{}: 0x590-0x5b2.7 (35)
0x590|22                                             |"               |                n: 34 0x590-0x590.7 (1)
0x590|   61 73 2d 69 33 32 78 34 5f 74 72 75 6e 63 5f| as-i32x4_trunc_|                b: "as-i32x4_trunc_s_f32x4_sat-operand" 0x591-0x5b2.7 (34)
0x5a0|73 5f 66 33 32 78 34 5f 73 61 74 2d 6f 70 65 72|s_f32x4_sat-oper|
0x5b0|61 6e 64                                       |and             |
     |                                               |                |              d{}: 0x5b3-0x5b4.7 (2)
0x5b0|         00                                    |   .            |                tag: "funcidx" (0x0) 0x5b3-0x5b3.7 (1)
0x5b0|            2a                                 |    *           |                x: 42 0x5b4-0x5b4.7 (1)
     |                                               |                |    [3]{}: section 0x5b5-0x7ef.7 (571)
0x5b0|               0a                              |     .          |      id: "code section" (10) 0x5b5-0x5b5.7 (1)
0x5b0|                  b8 04                        |      ..        |      size: 568 0x5b6-0x5b7.7 (2)
     |                                               |                |      content{}: 0x5b8-0x7ef.7 (568)
     |                                               |                |        code{}: 0x5b8-0x7ef.7 (568)
0x5b0|                        2b                     |        +       |          n: 43 0x5b8-0x5b8.7 (1)
     |                                               |                |          x[0:43]: 0x5b9-0x7ef.7 (567)
     |                                               |                |            [0]{}: code 0x5b9-0x5c2.7 (10)
0x5b0|                           09                  |         .      |              size: 9 0x5b9-0x5b9.7 (1)
     |                                               |                |              code{}: 0x5ba-0x5c2.7 (9)
     |                                               |                |                t{}: 0x5ba-0x5ba.7 (1)
0x5b0|                              00               |          .     |                  n: 0 0x5ba-0x5ba.7 (1)
     |                                               |                |                  x[0:0]: 0x5bb-NA (0)
     |                                               |                |                e[0:4]: 0x5bb-0x5c2.7 (8)
     |                                               |                |                  [0]{}: in 0x5bb-0x5bc.7 (2)
0x5b0|                                 20            |                |                    local.get: 0x20 (valid) 0x5bb-0x5bb.7 (1)
0x5b0|                                    00         |            .   |                    x: 0 0x5bc-0x5bc.7 (1)
     |                                               |                |                  [1]{}: in 0x5bd-0x5be.7 (2)
0x5b0|                                       fd      |             .  |                    prefix: 0xfd (valid) 0x5bd-0x5bd.7 (1)
0x5b0|                                          0f   |              . |                    i8x16.splat: 15 (valid) 0x5be-0x5be.7 (1)
     |                                               |                |                  [2]{}: in 0x5bf-0x5c1.7 (3)
0x5b0|                                             fd|               .|                    prefix: 0xfd (valid) 0x5bf-0x5bf.7 (1)
0x5c0|15                                             |.               |                    i8x16.extract_lane_s: 21 (valid) 0x5c0-0x5c0.7 (1)
0x5c0|   00                                          | .              |                    l: 0 0x5c1-0x5c1.7 (1)
     |                                               |                |                  [3]{}: in 0x5c2-0x5c2.7 (1)
0x5c0|      0b                                       |  .             |                    end: 0xb (valid) 0x5c2-0x5c2.7 (1)
     |                                               |                |            [1]{}: code 0x5c3-0x5cc.7 (10)
0x5c0|         09                                    |   .            |              size: 9 0x5c3-0x5c3.7 (1)
     |                                               |                |              code{}: 0x5c4-0x5cc.7 (9)
     |                                               |                |                t{}: 0x5c4-0x5c4.7 (1)
0x5c0|            00                                 |    .           |                  n: 0 0x5c4-0x5c4.7 (1)
     |                                               |                |                  x[0:0]: 0x5c5-NA (0)
     |                                               |                |                e[0:4]: 0x5c5-0x5cc.7 (8)
     |                                               |                |                  [0]{}: in 0x5c5-0x5c6.7 (2)
0x5c0|               20                              |                |                    local.get: 0x20 (valid) 0x5c5-0x5c5.7 (1)
0x5c0|                  00                           |      .         |                    x: 0 0x5c6-0x5c6.7 (1)
     |                                               |                |                  [1]{}: in 0x5c7-0x5c8.7 (2)
0x5c0|                     fd                        |       .        |                    prefix: 0xfd (valid) 0x5c7-0x5c7.7 (1)
0x5c0|                        0f                     |        .       |                    i8x16.splat: 15 (valid) 0x5c8-0x5c8.7 (1)
     |                                               |                |                  [2]{}: in 0x5c9-0x5cb.7 (3)
0x5c0|                           fd                  |         .      |                    prefix: 0xfd (valid) 0x5c9-0x5c9.7 (1)
0x5c0|                              15               |          .     |                    i8x16.extract_lane_s: 21 (valid) 0x5ca-0x5ca.7 (1)
0x5c0|                                 0f            |           .    |                    l: 15 0x5cb-0x5cb.7 (1)
     |                                               |                |                  [3]{}: in 0x5cc-0x5cc.7 (1)
0x5c0|                                    0b         |            .   |                    end: 0xb (valid) 0x5cc-0x5cc.7 (1)
     |                                               |                |            [2]{}: code 0x5cd-0x5d6.7 (10)
0x5c0|                                       09      |             .  |              size: 9 0x5cd-0x5cd.7 (1)
     |                                               |                |              code{}: 0x5ce-0x5d6.7 (9)
     |                                               |                |                t{}: 0x5ce-0x5ce.7 (1)
0x5c0|                                          00   |              . |                  n: 0 0x5ce-0x5ce.7 (1)
     |                                               |                |                  x[0:0]: 0x5cf-NA (0)
     |                                               |                |                e[0:4]: 0x5cf-0x5d6.7 (8)
     |                                               |                |                  [0]{}: in 0x5cf-0x5d0.7 (2)
0x5c0|                                             20|                |                    local.get: 0x20 (valid) 0x5cf-0x5cf.7 (1)
0x5d0|00                                             |.               |                    x: 0 0x5d0-0x5d0.7 (1)
     |                                               |                |                  [1]{}: in 0x5d1-0x5d2.7 (2)
0x5d0|   fd                                          | .              |                    prefix: 0xfd (valid) 0x5d1-0x5d1.7 (1)
0x5d0|      10                                       |  .             |                    i16x8.splat: 16 (valid) 0x5d2-0x5d2.7 (1)
     |                                               |                |                  [2]{}: in 0x5d3-0x5d5.7 (3)
0x5d0|         fd                                    |   .            |                    prefix: 0xfd (valid) 0x5d3-0x5d3.7 (1)
0x5d0|            18                                 |    .           |                    i16x8.extract_lane_s: 24 (valid) 0x5d4-0x5d4.7 (1)
0x5d0|               00                              |     .          |                    l: 0 0x5d5-0x5d5.7 (1)
     |                                               |                |                  [3]{}: in 0x5d6-0x5d6.7 (1)
0x5d0|                  0b                           |      .         |                    end: 0xb (valid) 0x5d6-0x5d6.7 (1)
     |                                               |                |            [3]{}: code 0x5d7-0x5e0.7 (10)
0x5d0|                     09                        |       .        |              size: 9 0x5d7-0x5d7.7 (1)
     |                                               |                |              code{}: 0x5d8-0x5e0.7 (9)
     |                                               |                |                t{}: 0x5d8-0x5d8.7 (1)
0x5d0|                        00                     |        .       |                  n: 0 0x5d8-0x5d8.7 (1)
     |                                               |                |                  x[0:0]: 0x5d9-NA (0)
     |                                               |                |                e[0:4]: 0x5d9-0x5e0.7 (8)
     |                                               |                |                  [0]{}: in 0x5d9-0x5da.7 (2)
0x5d0|                           20                  |                |                    local.get: 0x20 (valid) 0x5d9-0x5d9.7 (1)
0x5d0|                              00               |          .     |                    x: 0 0x5da-0x5da.7 (1)
     |                                               |                |                  [1]{}: in 0x5db-0x5dc.7 (2)
0x5d0|                                 fd            |           .    |                    prefix: 0xfd (valid) 0x5db-0x5db.7 (1)
0x5d0|                                    10         |            .   |                    i16x8.splat: 16 (valid) 0x5dc-0x5dc.7 (1)
     |                                               |                |                  [2]{}: in 0x5dd-0x5df.7 (3)
0x5d0|                                       fd      |             .  |                    prefix: 0xfd (valid) 0x5dd-0x5dd.7 (1)
0x5d0|                                          18   |              . |                    i16x8.extract_lane_s: 24 (valid) 0x5de-0x5de.7 (1)
0x5d0|                                             07|               .|                    l: 7 0x5df-0x5df.7 (1)
     |                                               |                |                  [3]{}: in 0x5e0-0x5e0.7 (1)
0x5e0|0b                                             |.               |                    end: 0xb (valid) 0x5e0-0x5e0.7 (1)
     |                                               |                |            [4]{}: code 0x5e1-0x5ea.7 (10)
0x5e0|   09                                          | .              |              size: 9 0x5e1-0x5e1.7 (1)
     |                                               |                |              code{}: 0x5e2-0x5ea.7 (9)
     |                                               |                |                t{}: 0x5e2-0x5e2.7 (1)
0x5e0|      00                                       |  .             |                  n: 0 0x5e2-0x5e2.7 (1)
     |                                               |                |                  x[0:0]: 0x5e3-NA (0)
     |                                               |                |                e[0:4]: 0x5e3-0x5ea.7 (8)
     |                                               |                |                  [0]{}: in 0x5e3-0x5e4.7 (2)
0x5e0|         20                                    |                |                    local.get: 0x20 (valid) 0x5e3-0x5e3.7 (1)
0x5e0|            00                                 |    .           |                    x: 0 0x5e4-0x5e4.7 (1)
     |                                               |                |                  [1]{}: in 0x5e5-0x5e6.7 (2)
0x5e0|               fd                              |     .          |                    prefix: 0xfd (valid) 0x5e5-0x5e5.7 (1)
0x5e0|                  11                           |      .         |                    i32x4.splat: 17 (valid) 0x5e6-0x5e6.7 (1)
     |                                               |                |                  [2]{}: in 0x5e7-0x5e9.7 (3)
0x5e0|                     fd                        |       .        |                    prefix: 0xfd (valid) 0x5e7-0x5e7.7 (1)
0x5e0|                        1b                     |        .       |                    i32x4.extract_lane_u: 27 (valid) 0x5e8-0x5e8.7 (1)
0x5e0|                           00                  |         .      |                    l: 0 0x5e9-0x5e9.7 (1)
     |                                               |                |                  [3]{}: in 0x5ea-0x5ea.7 (1)
0x5e0|                              0b               |          .     |                    end: 0xb (valid) 0x5ea-0x5ea.7 (1)
     |                                               |                |            [5]{}: code 0x5eb-0x5f4.7 (10)
0x5e0|                                 09            |           .    |              size: 9 0x5eb-0x5eb.7 (1)
     |                                               |                |              code{}: 0x5ec-0x5f4.7 (9)
     |                                               |                |                t{}: 0x5ec-0x5ec.7 (1)
0x5e0|                                    00         |            .   |                  n: 0 0x5ec-0x5ec.7 (1)
     |                                               |                |                  x[0:0]: 0x5ed-NA (0)
     |                                               |                |                e[0:4]: 0x5ed-0x5f4.7 (8)
     |                                               |                |                  [0]{}: in 0x5ed-0x5ee.7 (2)
0x5e0|                                       20      |                |                    local.get: 0x20 (valid) 0x5ed-0x5ed.7 (1)
0x5e0|                                          00   |              . |                    x: 0 0x5ee-0x5ee.7 (1)
     |                                               |                |                  [1]{}: in 0x5ef-0x5f0.7 (2)
0x5e0|                                             fd|               .|                    prefix: 0xfd (valid) 0x5ef-0x5ef.7 (1)
0x5f0|11                                             |.               |                    i32x4.splat: 17 (valid) 0x5f0-0x5f0.7 (1)
     |                                               |                |                  [2]{}: in 0x5f1-0x5f3.7 (3)
0x5f0|   fd                                          | .              |                    prefix: 0xfd (valid) 0x5f1-0x5f1.7 (1)
0x5f0|      1b                                       |  .             |                    i32x4.extract_lane_u: 27 (valid) 0x5f2-0x5f2.7 (1)
0x5f0|         03                                    |   .            |                    l: 3 0x5f3-0x5f3.7 (1)
     |                                               |                |                  [3]{}: in 0x5f4-0x5f4.7 (1)
0x5f0|            0b                                 |    .           |                    end: 0xb (valid) 0x5f4-0x5f4.7 (1)
     |                                               |                |            [6]{}: code 0x5f5-0x5fe.7 (10)
0x5f0|               09                              |     .          |              size: 9 0x5f5-0x5f5.7 (1)
     |                                               |                |              code{}: 0x5f6-0x5fe.7 (9)
     |                                               |                |                t{}: 0x5f6-0x5f6.7 (1)
0x5f0|                  00                           |      .         |                  n: 0 0x5f6-0x5f6.7 (1)
     |                                               |                |                  x[0:0]: 0x5f7-NA (0)
     |                                               |                |                e[0:4]: 0x5f7-0x5fe.7 (8)
     |                                               |                |                  [0]{}: in 0x5f7-0x5f8.7 (2)
0x5f0|                     20                        |                |                    local.get: 0x20 (valid) 0x5f7-0x5f7.7 (1)
0x5f0|                        00                     |        .       |                    x: 0 0x5f8-0x5f8.7 (1)
     |                                               |                |                  [1]{}: in 0x5f9-0x5fa.7 (2)
0x5f0|                           fd                  |         .      |                    prefix: 0xfd (valid) 0x5f9-0x5f9.7 (1)
0x5f0|                              13               |          .     |                    f32x4.splat: 19 (valid) 0x5fa-0x5fa.7 (1)
     |                                               |                |                  [2]{}: in 0x5fb-0x5fd.7 (3)
0x5f0|                                 fd            |           .    |                    prefix: 0xfd (valid) 0x5fb-0x5fb.7 (1)
0x5f0|                                    1f         |            .   |                    f32x4.extract_lane_u: 31 (valid) 0x5fc-0x5fc.7 (1)
0x5f0|                                       00      |             .  |                    l: 0 0x5fd-0x5fd.7 (1)
     |                                               |                |                  [3]{}: in 0x5fe-0x5fe.7 (1)
0x5f0|                                          0b   |              . |                    end: 0xb (valid) 0x5fe-0x5fe.7 (1)
     |                                               |                |            [7]{}: code 0x5ff-0x608.7 (10)
0x5f0|                                             09|               .|              size: 9 0x5ff-0x5ff.7 (1)
     |                                               |                |              code{}: 0x600-0x608.7 (9)
     |                                               |                |                t{}: 0x600-0x600.7 (1)
0x600|00                                             |.               |                  n: 0 0x600-0x600.7 (1)
     |                                               |                |                  x[0:0]: 0x601-NA (0)
     |                                               |                |                e[0:4]: 0x601-0x608.7 (8)
     |                                               |                |                  [0]{}: in 0x601-0x602.7 (2)
0x600|   20                                          |                |                    local.get: 0x20 (valid) 0x601-0x601.7 (1)
0x600|      00                                       |  .             |                    x: 0 0x602-0x602.7 (1)
     |                                               |                |                  [1]{}: in 0x603-0x604.7 (2)
0x600|         fd                                    |   .            |                    prefix: 0xfd (valid) 0x603-0x603.7 (1)
0x600|            13                                 |    .           |                    f32x4.splat: 19 (valid) 0x604-0x604.7 (1)
     |                                               |                |                  [2]{}: in 0x605-0x607.7 (3)
0x600|               fd                              |     .          |                    prefix: 0xfd (valid) 0x605-0x605.7 (1)
0x600|                  1f                           |      .         |                    f32x4.extract_lane_u: 31 (valid) 0x606-0x606.7 (1)
0x600|                     03                        |       .        |                    l: 3 0x607-0x607.7 (1)
     |                                               |                |                  [3]{}: in 0x608-0x608.7 (1)
0x600|                        0b                     |        .       |                    end: 0xb (valid) 0x608-0x608.7 (1)
     |                                               |                |            [8]{}: code 0x609-0x615.7 (13)
0x600|                           0c                  |         .      |              size: 12 0x609-0x609.7 (1)
     |                                               |                |              code{}: 0x60a-0x615.7 (12)
     |                                               |                |                t{}: 0x60a-0x60a.7 (1)
0x600|                              00               |          .     |                  n: 0 0x60a-0x60a.7 (1)
     |                                               |                |                  x[0:0]: 0x60b-NA (0)
     |                                               |                |                e[0:6]: 0x60b-0x615.7 (11)
     |                                               |                |                  [0]{}: in 0x60b-0x60c.7 (2)
0x600|                                 20            |                |                    local.get: 0x20 (valid) 0x60b-0x60b.7 (1)
0x600|                                    00         |            .   |                    x: 0 0x60c-0x60c.7 (1)
     |                                               |                |                  [1]{}: in 0x60d-0x60e.7 (2)
0x600|                                       fd      |             .  |                    prefix: 0xfd (valid) 0x60d-0x60d.7 (1)
0x600|                                          0f   |              . |                    i8x16.splat: 15 (valid) 0x60e-0x60e.7 (1)
     |                                               |                |                  [2]{}: in 0x60f-0x610.7 (2)
0x600|                                             20|                |                    local.get: 0x20 (valid) 0x60f-0x60f.7 (1)
0x610|01                                             |.               |                    x: 1 0x610-0x610.7 (1)
     |                                               |                |                  [3]{}: in 0x611-0x612.7 (2)
0x610|   fd                                          | .              |                    prefix: 0xfd (valid) 0x611-0x611.7 (1)
0x610|      0f                                       |  .             |                    i8x16.splat: 15 (valid) 0x612-0x612.7 (1)
     |                                               |                |                  [4]{}: in 0x613-0x614.7 (2)
0x610|         fd                                    |   .            |                    prefix: 0xfd (valid) 0x613-0x613.7 (1)
0x610|            0e                                 |    .           |                    i8x16.swizzle: 14 (valid) 0x614-0x614.7 (1)
     |                                               |                |                  [5]{}: in 0x615-0x615.7 (1)
0x610|               0b                              |     .          |                    end: 0xb (valid) 0x615-0x615.7 (1)
     |                                               |                |            [9]{}: code 0x616-0x61f.7 (10)
0x610|                  09                           |      .         |              size: 9 0x616-0x616.7 (1)
     |                                               |                |              code{}: 0x617-0x61f.7 (9)
     |                                               |                |                t{}: 0x617-0x617.7 (1)
0x610|                     00                        |       .        |                  n: 0 0x617-0x617.7 (1)
     |                                               |                |                  x[0:0]: 0x618-NA (0)
     |                                               |                |                e[0:4]: 0x618-0x61f.7 (8)
     |                                               |                |                  [0]{}: in 0x618-0x619.7 (2)
0x610|                        20                     |                |                    local.get: 0x20 (valid) 0x618-0x618.7 (1)
0x610|                           00                  |         .      |                    x: 0 0x619-0x619.7 (1)
     |                                               |                |                  [1]{}: in 0x61a-0x61b.7 (2)
0x610|                              fd               |          .     |                    prefix: 0xfd (valid) 0x61a-0x61a.7 (1)
0x610|                                 12            |           .    |                    i64x2.splat: 18 (valid) 0x61b-0x61b.7 (1)
     |                                               |                |                  [2]{}: in 0x61c-0x61e.7 (3)
0x610|                                    fd         |            .   |                    prefix: 0xfd (valid) 0x61c-0x61c.7 (1)
0x610|                                       1d      |             .  |                    i64x2.extract_lane_u: 29 (valid) 0x61d-0x61d.7 (1)
0x610|                                          00   |              . |                    l: 0 0x61e-0x61e.7 (1)
     |                                               |                |                  [3]{}: in 0x61f-0x61f.7 (1)
0x610|                                             0b|               .|                    end: 0xb (valid) 0x61f-0x61f.7 (1)
     |                                               |                |            [10]{}: code 0x620-0x629.7 (10)
0x620|09                                             |.               |              size: 9 0x620-0x620.7 (1)
     |                                               |                |              code{}: 0x621-0x629.7 (9)
     |                                               |                |                t{}: 0x621-0x621.7 (1)
0x620|   00                                          | .              |                  n: 0 0x621-0x621.7 (1)
     |                                               |                |                  x[0:0]: 0x622-NA (0)
     |                                               |                |                e[0:4]: 0x622-0x629.7 (8)
     |                                               |                |                  [0]{}: in 0x622-0x623.7 (2)
0x620|      20                                       |                |                    local.get: 0x20 (valid) 0x622-0x622.7 (1)
0x620|         00                                    |   .            |                    x: 0 0x623-0x623.7 (1)
     |                                               |                |                  [1]{}: in 0x624-0x625.7 (2)
0x620|            fd                                 |    .           |                    prefix: 0xfd (valid) 0x624-0x624.7 (1)
0x620|               12                              |     .          |                    i64x2.splat: 18 (valid) 0x625-0x625.7 (1)
     |                                               |                |                  [2]{}: in 0x626-0x628.7 (3)
0x620|                  fd                           |      .         |                    prefix: 0xfd (valid) 0x626-0x626.7 (1)
0x620|                     1d                        |       .        |                    i64x2.extract_lane_u: 29 (valid) 0x627-0x627.7 (1)
0x620|                        01                     |        .       |                    l: 1 0x628-0x628.7 (1)
     |                                               |                |                  [3]{}: in 0x629-0x629.7 (1)
0x620|                           0b                  |         .      |                    end: 0xb (valid) 0x629-0x629.7 (1)
     |                                               |                |            [11]{}: code 0x62a-0x633.7 (10)
0x620|                              09               |          .     |              size: 9 0x62a-0x62a.7 (1)
     |                                               |                |              code{}: 0x62b-0x633.7 (9)
     |                                               |                |                t{}: 0x62b-0x62b.7 (1)
0x620|                                 00            |           .    |                  n: 0 0x62b-0x62b.7 (1)
     |                                               |                |                  x[0:0]: 0x62c-NA (0)
     |                                               |                |                e[0:4]: 0x62c-0x633.7 (8)
     |                                               |                |                  [0]{}: in 0x62c-0x62d.7 (2)
0x620|                                    20         |                |                    local.get: 0x20 (valid) 0x62c-0x62c.7 (1)
0x620|                                       00      |             .  |                    x: 0 0x62d-0x62d.7 (1)
     |                                               |                |                  [1]{}: in 0x62e-0x62f.7 (2)
0x620|                                          fd   |              . |                    prefix: 0xfd (valid) 0x62e-0x62e.7 (1)
0x620|                                             14|               .|                    f64x2.splat: 20 (valid) 0x62f-0x62f.7 (1)
     |                                               |                |                  [2]{}: in 0x630-0x632.7 (3)
0x630|fd                                             |.               |                    prefix: 0xfd (valid) 0x630-0x630.7 (1)
0x630|   21                                          | !              |                    f64x2.extract_lane_u: 33 (valid) 0x631-0x631.7 (1)
0x630|      00                                       |  .             |                    l: 0 0x632-0x632.7 (1)
     |                                               |                |                  [3]{}: in 0x633-0x633.7 (1)
0x630|         0b                                    |   .            |                    end: 0xb (valid) 0x633-0x633.7 (1)
     |                                               |                |            [12]{}: code 0x634-0x63d.7 (10)
0x630|            09                                 |    .           |              size: 9 0x634-0x634.7 (1)
     |                                               |                |              code{}: 0x635-0x63d.7 (9)
     |                                               |                |                t{}: 0x635-0x635.7 (1)
0x630|               00                              |     .          |                  n: 0 0x635-0x635.7 (1)
     |                                               |                |                  x[0:0]: 0x636-NA (0)
     |                                               |                |                e[0:4]: 0x636-0x63d.7 (8)
     |                                               |                |                  [0]{}: in 0x636-0x637.7 (2)
0x630|                  20                           |                |                    local.get: 0x20 (valid) 0x636-0x636.7 (1)
0x630|                     00                        |       .        |                    x: 0 0x637-0x637.7 (1)
     |                                               |                |                  [1]{}: in 0x638-0x639.7 (2)
0x630|                        fd                     |        .       |                    prefix: 0xfd (valid) 0x638-0x638.7 (1)
0x630|                           14                  |         .      |                    f64x2.splat: 20 (valid) 0x639-0x639.7 (1)
     |                                               |                |                  [2]{}: in 0x63a-0x63c.7 (3)
0x630|                              fd               |          .     |                    prefix: 0xfd (valid) 0x63a-0x63a.7 (1)
0x630|                                 21            |           !    |                    f64x2.extract_lane_u: 33 (valid) 0x63b-0x63b.7 (1)
0x630|                                    01         |            .   |                    l: 1 0x63c-0x63c.7 (1)
     |                                               |                |                  [3]{}: in 0x63d-0x63d.7 (1)
0x630|                                       0b      |             .  |                    end: 0xb (valid) 0x63d-0x63d.7 (1)
     |                                               |                |            [13]{}: code 0x63e-0x650.7 (19)
0x630|                                          12   |              . |              size: 18 0x63e-0x63e.7 (1)
     |                                               |                |              code{}: 0x63f-0x650.7 (18)
     |                                               |                |                t{}: 0x63f-0x63f.7 (1)
0x630|                                             00|               .|                  n: 0 0x63f-0x63f.7 (1)
     |                                               |                |                  x[0:0]: 0x640-NA (0)
     |                                               |                |                e[0:9]: 0x640-0x650.7 (17)
     |                                               |                |                  [0]{}: in 0x640-0x641.7 (2)
0x640|20                                             |                |                    local.get: 0x20 (valid) 0x640-0x640.7 (1)
0x640|   00                                          | .              |                    x: 0 0x641-0x641.7 (1)
     |                                               |                |                  [1]{}: in 0x642-0x643.7 (2)
0x640|      fd                                       |  .             |                    prefix: 0xfd (valid) 0x642-0x642.7 (1)
0x640|         0f                                    |   .            |                    i8x16.splat: 15 (valid) 0x643-0x643.7 (1)
     |                                               |                |                  [2]{}: in 0x644-0x645.7 (2)
0x640|            20                                 |                |                    local.get: 0x20 (valid) 0x644-0x644.7 (1)
0x640|               01                              |     .          |                    x: 1 0x645-0x645.7 (1)
     |                                               |                |                  [3]{}: in 0x646-0x647.7 (2)
0x640|                  fd                           |      .         |                    prefix: 0xfd (valid) 0x646-0x646.7 (1)
0x640|                     0f                        |       .        |                    i8x16.splat: 15 (valid) 0x647-0x647.7 (1)
     |                                               |                |                  [4]{}: in 0x648-0x649.7 (2)
0x640|                        20                     |                |                    local.get: 0x20 (valid) 0x648-0x648.7 (1)
0x640|                           02                  |         .      |                    x: 2 0x649-0x649.7 (1)
     |                                               |                |                  [5]{}: in 0x64a-0x64b.7 (2)
0x640|                              fd               |          .     |                    prefix: 0xfd (valid) 0x64a-0x64a.7 (1)
0x640|                                 0f            |           .    |                    i8x16.splat: 15 (valid) 0x64b-0x64b.7 (1)
     |                                               |                |                  [6]{}: in 0x64c-0x64d.7 (2)
0x640|                                    fd         |            .   |                    prefix: 0xfd (valid) 0x64c-0x64c.7 (1)
0x640|                                       71      |             q  |                    i8x16.sub: 113 (valid) 0x64d-0x64d.7 (1)
     |                                               |                |                  [7]{}: in 0x64e-0x64f.7 (2)
0x640|                                          fd   |              . |                    prefix: 0xfd (valid) 0x64e-0x64e.7 (1)
0x640|                                             6e|               n|                    i8x16.add: 110 (valid) 0x64f-0x64f.7 (1)
     |                                               |                |                  [8]{}: in 0x650-0x650.7 (1)
0x650|0b                                             |.               |                    end: 0xb (valid) 0x650-0x650.7 (1)
     |                                               |                |            [14]{}: code 0x651-0x66c.7 (28)
0x650|   1b                                          | .              |              size: 27 0x651-0x651.7 (1)
     |                                               |                |              code{}: 0x652-0x66c.7 (27)
     |                                               |                |                t{}: 0x652-0x652.7 (1)
0x650|      00                                       |  .             |                  n: 0 0x652-0x652.7 (1)
     |                                               |                |                  x[0:0]: 0x653-NA (0)
     |                                               |                |                e[0:12]: 0x653-0x66c.7 (26)
     |                                               |                |                  [0]{}: in 0x653-0x654.7 (2)
0x650|         20                                    |                |                    local.get: 0x20 (valid) 0x653-0x653.7 (1)
0x650|            00                                 |    .           |                    x: 0 0x654-0x654.7 (1)
     |                                               |                |                  [1]{}: in 0x655-0x656.7 (2)
0x650|               fd                              |     .          |                    prefix: 0xfd (valid) 0x655-0x655.7 (1)
0x650|                  10                           |      .         |                    i16x8.splat: 16 (valid) 0x656-0x656.7 (1)
     |                                               |                |                  [2]{}: in 0x657-0x658.7 (2)
0x650|                     20                        |                |                    local.get: 0x20 (valid) 0x657-0x657.7 (1)
0x650|                        01                     |        .       |                    x: 1 0x658-0x658.7 (1)
     |                                               |                |                  [3]{}: in 0x659-0x65a.7 (2)
0x650|                           fd                  |         .      |                    prefix: 0xfd (valid) 0x659-0x659.7 (1)
0x650|                              10               |          .     |                    i16x8.splat: 16 (valid) 0x65a-0x65a.7 (1)
     |                                               |                |                  [4]{}: in 0x65b-0x65c.7 (2)
0x650|                                 20            |                |                    local.get: 0x20 (valid) 0x65b-0x65b.7 (1)
0x650|                                    02         |            .   |                    x: 2 0x65c-0x65c.7 (1)
     |                                               |                |                  [5]{}: in 0x65d-0x65e.7 (2)
0x650|                                       fd      |             .  |                    prefix: 0xfd (valid) 0x65d-0x65d.7 (1)
0x650|                                          10   |              . |                    i16x8.splat: 16 (valid) 0x65e-0x65e.7 (1)
     |                                               |                |                  [6]{}: in 0x65f-0x660.7 (2)
0x650|                                             20|                |                    local.get: 0x20 (valid) 0x65f-0x65f.7 (1)
0x660|03                                             |.               |                    x: 3 0x660-0x660.7 (1)
     |                                               |                |                  [7]{}: in 0x661-0x662.7 (2)
0x660|   fd                                          | .              |                    prefix: 0xfd (valid) 0x661-0x661.7 (1)
0x660|      10                                       |  .             |                    i16x8.splat: 16 (valid) 0x662-0x662.7 (1)
     |                                               |                |                  [8]{}: in 0x663-0x665.7 (3)
0x660|         fd                                    |   .            |                    prefix: 0xfd (valid) 0x663-0x663.7 (1)
0x660|            95 01                              |    ..          |                    i16x8.mul: 149 (valid) 0x664-0x665.7 (2)
     |                                               |                |                  [9]{}: in 0x666-0x668.7 (3)
0x660|                  fd                           |      .         |                    prefix: 0xfd (valid) 0x666-0x666.7 (1)
0x660|                     91 01                     |       ..       |                    i16x8.sub: 145 (valid) 0x667-0x668.7 (2)
     |                                               |                |                  [10]{}: in 0x669-0x66b.7 (3)
0x660|                           fd                  |         .      |                    prefix: 0xfd (valid) 0x669-0x669.7 (1)
0x660|                              8e 01            |          ..    |                    i16x8.add: 142 (valid) 0x66a-0x66b.7 (2)
     |                                               |                |                  [11]{}: in 0x66c-0x66c.7 (1)
0x660|                                    0b         |            .   |                    end: 0xb (valid) 0x66c-0x66c.7 (1)
     |                                               |                |            [15]{}: code 0x66d-0x688.7 (28)
0x660|                                       1b      |             .  |              size: 27 0x66d-0x66d.7 (1)
     |                                               |                |              code{}: 0x66e-0x688.7 (27)
     |                                               |                |                t{}: 0x66e-0x66e.7 (1)
0x660|                                          00   |              . |                  n: 0 0x66e-0x66e.7 (1)
     |                                               |                |                  x[0:0]: 0x66f-NA (0)
     |                                               |                |                e[0:12]: 0x66f-0x688.7 (26)
     |                                               |                |                  [0]{}: in 0x66f-0x670.7 (2)
0x660|                                             20|                |                    local.get: 0x20 (valid) 0x66f-0x66f.7 (1)
0x670|00                                             |.               |                    x: 0 0x670-0x670.7 (1)
     |                                               |                |                  [1]{}: in 0x671-0x672.7 (2)
0x670|   fd                                          | .              |                    prefix: 0xfd (valid) 0x671-0x671.7 (1)
0x670|      11                                       |  .             |                    i32x4.splat: 17 (valid) 0x672-0x672.7 (1)
     |                                               |                |                  [2]{}: in 0x673-0x674.7 (2)
0x670|         20                                    |                |                    local.get: 0x20 (valid) 0x673-0x673.7 (1)
0x670|            01                                 |    .           |                    x: 1 0x674-0x674.7 (1)
     |                                               |                |                  [3]{}: in 0x675-0x676.7 (2)
0x670|               fd                              |     .          |                    prefix: 0xfd (valid) 0x675-0x675.7 (1)
0x670|                  11                           |      .         |                    i32x4.splat: 17 (valid) 0x676-0x676.7 (1)
     |                                               |                |                  [4]{}: in 0x677-0x678.7 (2)
0x670|                     20                        |                |                    local.get: 0x20 (valid) 0x677-0x677.7 (1)
0x670|                        02                     |        .       |                    x: 2 0x678-0x678.7 (1)
     |                                               |                |                  [5]{}: in 0x679-0x67a.7 (2)
0x670|                           fd                  |         .      |                    prefix: 0xfd (valid) 0x679-0x679.7 (1)
0x670|                              11               |          .     |                    i32x4.splat: 17 (valid) 0x67a-0x67a.7 (1)
     |                                               |                |                  [6]{}: in 0x67b-0x67c.7 (2)
0x670|                                 20            |                |                    local.get: 0x20 (valid) 0x67b-0x67b.7 (1)
0x670|                                    03         |            .   |                    x: 3 0x67c-0x67c.7 (1)
     |                                               |                |                  [7]{}: in 0x67d-0x67e.7 (2)
0x670|                                       fd      |             .  |                    prefix: 0xfd (valid) 0x67d-0x67d.7 (1)
0x670|                                          11   |              . |                    i32x4.splat: 17 (valid) 0x67e-0x67e.7 (1)
     |                                               |                |                  [8]{}: in 0x67f-0x681.7 (3)
0x670|                                             fd|               .|                    prefix: 0xfd (valid) 0x67f-0x67f.7 (1)
0x680|b5 01                                          |..              |                    i32x4.mul: 181 (valid) 0x680-0x681.7 (2)
     |                                               |                |                  [9]{}: in 0x682-0x684.7 (3)
0x680|      fd                                       |  .             |                    prefix: 0xfd (valid) 0x682-0x682.7 (1)
0x680|         b1 01                                 |   ..           |                    i32x4.sub: 177 (valid) 0x683-0x684.7 (2)
     |                                               |                |                  [10]{}: in 0x685-0x687.7 (3)
0x680|               fd                              |     .          |                    prefix: 0xfd (valid) 0x685-0x685.7 (1)
0x680|                  ae 01                        |      ..        |                    i32x4.add: 174 (valid) 0x686-0x687.7 (2)
     |                                               |                |                  [11]{}: in 0x688-0x688.7 (1)
0x680|                        0b                     |        .       |                    end: 0xb (valid) 0x688-0x688.7 (1)
     |                                               |                |            [16]{}: code 0x689-0x6a4.7 (28)
0x680|                           1b                  |         .      |              size: 27 0x689-0x689.7 (1)
     |                                               |                |              code{}: 0x68a-0x6a4.7 (27)
     |                                               |                |                t{}: 0x68a-0x68a.7 (1)
0x680|                              00               |          .     |                  n: 0 0x68a-0x68a.7 (1)
     |                                               |                |                  x[0:0]: 0x68b-NA (0)
     |                                               |                |                e[0:12]: 0x68b-0x6a4.7 (26)
     |                                               |                |                  [0]{}: in 0x68b-0x68c.7 (2)
0x680|                                 20            |                |                    local.get: 0x20 (valid) 0x68b-0x68b.7 (1)
0x680|                                    00         |            .   |                    x: 0 0x68c-0x68c.7 (1)
     |                                               |                |                  [1]{}: in 0x68d-0x68e.7 (2)
0x680|                                       fd      |             .  |                    prefix: 0xfd (valid) 0x68d-0x68d.7 (1)
0x680|                                          12   |              . |                    i64x2.splat: 18 (valid) 0x68e-0x68e.7 (1)
     |                                               |                |                  [2]{}: in 0x68f-0x690.7 (2)
0x680|                                             20|                |                    local.get: 0x20 (valid) 0x68f-0x68f.7 (1)
0x690|01                                             |.               |                    x: 1 0x690-0x690.7 (1)
     |                                               |                |                  [3]{}: in 0x691-0x692.7 (2)
0x690|   fd                                          | .              |                    prefix: 0xfd (valid) 0x691-0x691.7 (1)
0x690|      12                                       |  .             |                    i64x2.splat: 18 (valid) 0x692-0x692.7 (1)
     |                                               |                |                  [4]{}: in 0x693-0x694.7 (2)
0x690|         20                                    |                |                    local.get: 0x20 (valid) 0x693-0x693.7 (1)
0x690|            02                                 |    .           |                    x: 2 0x694-0x694.7 (1)
     |                                               |                |                  [5]{}: in 0x695-0x696.7 (2)
0x690|               fd                              |     .          |                    prefix: 0xfd (valid) 0x695-0x695.7 (1)
0x690|                  12                           |      .         |                    i64x2.splat: 18 (valid) 0x696-0x696.7 (1)
     |                                               |                |                  [6]{}: in 0x697-0x698.7 (2)
0x690|                     20                        |                |                    local.get: 0x20 (valid) 0x697-0x697.7 (1)
0x690|                        03                     |        .       |                    x: 3 0x698-0x698.7 (1)
     |                                               |                |                  [7]{}: in 0x699-0x69a.7 (2)
0x690|                           fd                  |         .      |                    prefix: 0xfd (valid) 0x699-0x699.7 (1)
0x690|                              12               |          .     |                    i64x2.splat: 18 (valid) 0x69a-0x69a.7 (1)
     |                                               |                |                  [8]{}: in 0x69b-0x69d.7 (3)
0x690|                                 fd            |           .    |                    prefix: 0xfd (valid) 0x69b-0x69b.7 (1)
0x690|                                    d5 01      |            ..  |                    i64x2.mul: 213 (valid) 0x69c-0x69d.7 (2)
     |                                               |                |                  [9]{}: in 0x69e-0x6a0.7 (3)
0x690|                                          fd   |              . |                    prefix: 0xfd (valid) 0x69e-0x69e.7 (1)
0x690|                                             d1|               .|                    i64x2.sub: 209 (valid) 0x69f-0x6a0.7 (2)
0x6a0|01                                             |.               |
     |                                               |                |                  [10]{}: in 0x6a1-0x6a3.7 (3)
0x6a0|   fd                                          | .              |                    prefix: 0xfd (valid) 0x6a1-0x6a1.7 (1)
0x6a0|      ce 01                                    |  ..            |                    i64x2.add: 206 (valid) 0x6a2-0x6a3.7 (2)
     |                                               |                |                  [11]{}: in 0x6a4-0x6a4.7 (1)
0x6a0|            0b                                 |    .           |                    end: 0xb (valid) 0x6a4-0x6a4.7 (1)
     |                                               |                |            [17]{}: code 0x6a5-0x6c0.7 (28)
0x6a0|               1b                              |     .          |              size: 27 0x6a5-0x6a5.7 (1)
     |                                               |                |              code{}: 0x6a6-0x6c0.7 (27)
     |                                               |                |                t{}: 0x6a6-0x6a6.7 (1)
0x6a0|                  00                           |      .         |                  n: 0 0x6a6-0x6a6.7 (1)
     |                                               |                |                  x[0:0]: 0x6a7-NA (0)
     |                                               |                |                e[0:12]: 0x6a7-0x6c0.7 (26)
     |                                               |                |                  [0]{}: in 0x6a7-0x6a8.7 (2)
0x6a0|                     20                        |                |                    local.get: 0x20 (valid) 0x6a7-0x6a7.7 (1)
0x6a0|                        00                     |        .       |                    x: 0 0x6a8-0x6a8.7 (1)
     |                                               |                |                  [1]{}: in 0x6a9-0x6aa.7 (2)
0x6a0|                           fd                  |         .      |                    prefix: 0xfd (valid) 0x6a9-0x6a9.7 (1)
0x6a0|                              14               |          .     |                    f64x2.splat: 20 (valid) 0x6aa-0x6aa.7 (1)
     |                                               |                |                  [2]{}: in 0x6ab-0x6ac.7 (2)
0x6a0|                                 20            |                |                    local.get: 0x20 (valid) 0x6ab-0x6ab.7 (1)
0x6a0|                                    01         |            .   |                    x: 1 0x6ac-0x6ac.7 (1)
     |                                               |                |                  [3]{}: in 0x6ad-0x6ae.7 (2)
0x6a0|                                       fd      |             .  |                    prefix: 0xfd (valid) 0x6ad-0x6ad.7 (1)
0x6a0|                                          14   |              . |                    f64x2.splat: 20 (valid) 0x6ae-0x6ae.7 (1)
     |                                               |                |                  [4]{}: in 0x6af-0x6b0.7 (2)
0x6a0|                                             20|                |                    local.get: 0x20 (valid) 0x6af-0x6af.7 (1)
0x6b0|02                                             |.               |                    x: 2 0x6b0-0x6b0.7 (1)
     |                                               |                |                  [5]{}: in 0x6b1-0x6b2.7 (2)
0x6b0|   fd                                          | .              |                    prefix: 0xfd (valid) 0x6b1-0x6b1.7 (1)
0x6b0|      14                                       |  .             |                    f64x2.splat: 20 (valid) 0x6b2-0x6b2.7 (1)
     |                                               |                |                  [6]{}: in 0x6b3-0x6b4.7 (2)
0x6b0|         20                                    |                |                    local.get: 0x20 (valid) 0x6b3-0x6b3.7 (1)
0x6b0|            03                                 |    .           |                    x: 3 0x6b4-0x6b4.7 (1)
     |                                               |                |                  [7]{}: in 0x6b5-0x6b6.7 (2)
0x6b0|               fd                              |     .          |                    prefix: 0xfd (valid) 0x6b5-0x6b5.7 (1)
0x6b0|                  14                           |      .         |                    f64x2.splat: 20 (valid) 0x6b6-0x6b6.7 (1)
     |                                               |                |                  [8]{}: in 0x6b7-0x6b9.7 (3)
0x6b0|                     fd                        |       .        |                    prefix: 0xfd (valid) 0x6b7-0x6b7.7 (1)
0x6b0|                        f2 01                  |        ..      |                    f64x2.mul: 242 (valid) 0x6b8-0x6b9.7 (2)
     |                                               |                |                  [9]{}: in 0x6ba-0x6bc.7 (3)
0x6b0|                              fd               |          .     |                    prefix: 0xfd (valid) 0x6ba-0x6ba.7 (1)
0x6b0|                                 f1 01         |           ..   |                    f64x2.sub: 241 (valid) 0x6bb-0x6bc.7 (2)
     |                                               |                |                  [10]{}: in 0x6bd-0x6bf.7 (3)
0x6b0|                                       fd      |             .  |                    prefix: 0xfd (valid) 0x6bd-0x6bd.7 (1)
0x6b0|                                          f0 01|              ..|                    f64x2.add: 240 (valid) 0x6be-0x6bf.7 (2)
     |                                               |                |                  [11]{}: in 0x6c0-0x6c0.7 (1)
0x6c0|0b                                             |.               |                    end: 0xb (valid) 0x6c0-0x6c0.7 (1)
     |                                               |                |            [18]{}: code 0x6c1-0x6cd.7 (13)
0x6c0|   0c                                          | .              |              size: 12 0x6c1-0x6c1.7 (1)
     |                                               |                |              code{}: 0x6c2-0x6cd.7 (12)
     |                                               |                |                t{}: 0x6c2-0x6c2.7 (1)
0x6c0|      00                                       |  .             |                  n: 0 0x6c2-0x6c2.7 (1)
     |                                               |                |                  x[0:0]: 0x6c3-NA (0)
     |                                               |                |                e[0:6]: 0x6c3-0x6cd.7 (11)
     |                                               |                |                  [0]{}: in 0x6c3-0x6c4.7 (2)
0x6c0|         20                                    |                |                    local.get: 0x20 (valid) 0x6c3-0x6c3.7 (1)
0x6c0|            00                                 |    .           |                    x: 0 0x6c4-0x6c4.7 (1)
     |                                               |                |                  [1]{}: in 0x6c5-0x6c6.7 (2)
0x6c0|               fd                              |     .          |                    prefix: 0xfd (valid) 0x6c5-0x6c5.7 (1)
0x6c0|                  0f                           |      .         |                    i8x16.splat: 15 (valid) 0x6c6-0x6c6.7 (1)
     |                                               |                |                  [2]{}: in 0x6c7-0x6c8.7 (2)
0x6c0|                     20                        |                |                    local.get: 0x20 (valid) 0x6c7-0x6c7.7 (1)
0x6c0|                        01                     |        .       |                    x: 1 0x6c8-0x6c8.7 (1)
     |                                               |                |                  [3]{}: in 0x6c9-0x6ca.7 (2)
0x6c0|                           fd                  |         .      |                    prefix: 0xfd (valid) 0x6c9-0x6c9.7 (1)
0x6c0|                              0f               |          .     |                    i8x16.splat: 15 (valid) 0x6ca-0x6ca.7 (1)
     |                                               |                |                  [4]{}: in 0x6cb-0x6cc.7 (2)
0x6c0|                                 fd            |           .    |                    prefix: 0xfd (valid) 0x6cb-0x6cb.7 (1)
0x6c0|                                    6f         |            o   |                    i8x16.add_sat_s: 111 (valid) 0x6cc-0x6cc.7 (1)
     |                                               |                |                  [5]{}: in 0x6cd-0x6cd.7 (1)
0x6c0|                                       0b      |             .  |                    end: 0xb (valid) 0x6cd-0x6cd.7 (1)
     |                                               |                |            [19]{}: code 0x6ce-0x6db.7 (14)
0x6c0|                                          0d   |              . |              size: 13 0x6ce-0x6ce.7 (1)
     |                                               |                |              code{}: 0x6cf-0x6db.7 (13)
     |                                               |                |                t{}: 0x6cf-0x6cf.7 (1)
0x6c0|                                             00|               .|                  n: 0 0x6cf-0x6cf.7 (1)
     |                                               |                |                  x[0:0]: 0x6d0-NA (0)
     |                                               |                |                e[0:6]: 0x6d0-0x6db.7 (12)
     |                                               |                |                  [0]{}: in 0x6d0-0x6d1.7 (2)
0x6d0|20                                             |                |                    local.get: 0x20 (valid) 0x6d0-0x6d0.7 (1)
0x6d0|   00                                          | .              |                    x: 0 0x6d1-0x6d1.7 (1)
     |                                               |                |                  [1]{}: in 0x6d2-0x6d3.7 (2)
0x6d0|      fd                                       |  .             |                    prefix: 0xfd (valid) 0x6d2-0x6d2.7 (1)
0x6d0|         10                                    |   .            |                    i16x8.splat: 16 (valid) 0x6d3-0x6d3.7 (1)
     |                                               |                |                  [2]{}: in 0x6d4-0x6d5.7 (2)
0x6d0|            20                                 |                |                    local.get: 0x20 (valid) 0x6d4-0x6d4.7 (1)
0x6d0|               01                              |     .          |                    x: 1 0x6d5-0x6d5.7 (1)
     |                                               |                |                  [3]{}: in 0x6d6-0x6d7.7 (2)
0x6d0|                  fd                           |      .         |                    prefix: 0xfd (valid) 0x6d6-0x6d6.7 (1)
0x6d0|                     10                        |       .        |                    i16x8.splat: 16 (valid) 0x6d7-0x6d7.7 (1)
     |                                               |                |                  [4]{}: in 0x6d8-0x6da.7 (3)
0x6d0|                        fd                     |        .       |                    prefix: 0xfd (valid) 0x6d8-0x6d8.7 (1)
0x6d0|                           8f 01               |         ..     |                    i16x8.add_sat_s: 143 (valid) 0x6d9-0x6da.7 (2)
     |                                               |                |                  [5]{}: in 0x6db-0x6db.7 (1)
0x6d0|                                 0b            |           .    |                    end: 0xb (valid) 0x6db-0x6db.7 (1)
     |                                               |                |            [20]{}: code 0x6dc-0x6e8.7 (13)
0x6d0|                                    0c         |            .   |              size: 12 0x6dc-0x6dc.7 (1)
     |                                               |                |              code{}: 0x6dd-0x6e8.7 (12)
     |                                               |                |                t{}: 0x6dd-0x6dd.7 (1)
0x6d0|                                       00      |             .  |                  n: 0 0x6dd-0x6dd.7 (1)
     |                                               |                |                  x[0:0]: 0x6de-NA (0)
     |                                               |                |                e[0:6]: 0x6de-0x6e8.7 (11)
     |                                               |                |                  [0]{}: in 0x6de-0x6df.7 (2)
0x6d0|                                          20   |                |                    local.get: 0x20 (valid) 0x6de-0x6de.7 (1)
0x6d0|                                             00|               .|                    x: 0 0x6df-0x6df.7 (1)
     |                                               |                |                  [1]{}: in 0x6e0-0x6e1.7 (2)
0x6e0|fd                                             |.               |                    prefix: 0xfd (valid) 0x6e0-0x6e0.7 (1)
0x6e0|   0f                                          | .              |                    i8x16.splat: 15 (valid) 0x6e1-0x6e1.7 (1)
     |                                               |                |                  [2]{}: in 0x6e2-0x6e3.7 (2)
0x6e0|      20                                       |                |                    local.get: 0x20 (valid) 0x6e2-0x6e2.7 (1)
0x6e0|         01                                    |   .            |                    x: 1 0x6e3-0x6e3.7 (1)
     |                                               |                |                  [3]{}: in 0x6e4-0x6e5.7 (2)
0x6e0|            fd                                 |    .           |                    prefix: 0xfd (valid) 0x6e4-0x6e4.7 (1)
0x6e0|               0f                              |     .          |                    i8x16.splat: 15 (valid) 0x6e5-0x6e5.7 (1)
     |                                               |                |                  [4]{}: in 0x6e6-0x6e7.7 (2)
0x6e0|                  fd                           |      .         |                    prefix: 0xfd (valid) 0x6e6-0x6e6.7 (1)
0x6e0|                     73                        |       s        |                    i8x16.sub_sat_u: 115 (valid) 0x6e7-0x6e7.7 (1)
     |                                               |                |                  [5]{}: in 0x6e8-0x6e8.7 (1)
0x6e0|                        0b                     |        .       |                    end: 0xb (valid) 0x6e8-0x6e8.7 (1)
     |                                               |                |            [21]{}: code 0x6e9-0x6f6.7 (14)
0x6e0|                           0d                  |         .      |              size: 13 0x6e9-0x6e9.7 (1)
     |                                               |                |              code{}: 0x6ea-0x6f6.7 (13)
     |                                               |                |                t{}: 0x6ea-0x6ea.7 (1)
0x6e0|                              00               |          .     |                  n: 0 0x6ea-0x6ea.7 (1)
     |                                               |                |                  x[0:0]: 0x6eb-NA (0)
     |                                               |                |                e[0:6]: 0x6eb-0x6f6.7 (12)
     |                                               |                |                  [0]{}: in 0x6eb-0x6ec.7 (2)
0x6e0|                                 20            |                |                    local.get: 0x20 (valid) 0x6eb-0x6eb.7 (1)
0x6e0|                                    00         |            .   |                    x: 0 0x6ec-0x6ec.7 (1)
     |                                               |                |                  [1]{}: in 0x6ed-0x6ee.7 (2)
0x6e0|                                       fd      |             .  |                    prefix: 0xfd (valid) 0x6ed-0x6ed.7 (1)
0x6e0|                                          10   |              . |                    i16x8.splat: 16 (valid) 0x6ee-0x6ee.7 (1)
     |                                               |                |                  [2]{}: in 0x6ef-0x6f0.7 (2)
0x6e0|                                             20|                |                    local.get: 0x20 (valid) 0x6ef-0x6ef.7 (1)
0x6f0|01                                             |.               |                    x: 1 0x6f0-0x6f0.7 (1)
     |                                               |                |                  [3]{}: in 0x6f1-0x6f2.7 (2)
0x6f0|   fd                                          | .              |                    prefix: 0xfd (valid) 0x6f1-0x6f1.7 (1)
0x6f0|      10                                       |  .             |                    i16x8.splat: 16 (valid) 0x6f2-0x6f2.7 (1)
     |                                               |                |                  [4]{}: in 0x6f3-0x6f5.7 (3)
0x6f0|         fd                                    |   .            |                    prefix: 0xfd (valid) 0x6f3-0x6f3.7 (1)
0x6f0|            93 01                              |    ..          |                    i16x8.sub_sat_u: 147 (valid) 0x6f4-0x6f5.7 (2)
     |                                               |                |                  [5]{}: in 0x6f6-0x6f6.7 (1)
0x6f0|                  0b                           |      .         |                    end: 0xb (valid) 0x6f6-0x6f6.7 (1)
     |                                               |                |            [22]{}: code 0x6f7-0x701.7 (11)
0x6f0|                     0a                        |       .        |              size: 10 0x6f7-0x6f7.7 (1)
     |                                               |                |              code{}: 0x6f8-0x701.7 (10)
     |                                               |                |                t{}: 0x6f8-0x6f8.7 (1)
0x6f0|                        00                     |        .       |                  n: 0 0x6f8-0x6f8.7 (1)
     |                                               |                |                  x[0:0]: 0x6f9-NA (0)
     |                                               |                |                e[0:5]: 0x6f9-0x701.7 (9)
     |                                               |                |                  [0]{}: in 0x6f9-0x6fa.7 (2)
0x6f0|                           20                  |                |                    local.get: 0x20 (valid) 0x6f9-0x6f9.7 (1)
0x6f0|                              00               |          .     |                    x: 0 0x6fa-0x6fa.7 (1)
     |                                               |                |                  [1]{}: in 0x6fb-0x6fc.7 (2)
0x6f0|                                 fd            |           .    |                    prefix: 0xfd (valid) 0x6fb-0x6fb.7 (1)
0x6f0|                                    0f         |            .   |                    i8x16.splat: 15 (valid) 0x6fc-0x6fc.7 (1)
     |                                               |                |                  [2]{}: in 0x6fd-0x6fe.7 (2)
0x6f0|                                       20      |                |                    local.get: 0x20 (valid) 0x6fd-0x6fd.7 (1)
0x6f0|                                          01   |              . |                    x: 1 0x6fe-0x6fe.7 (1)
     |                                               |                |                  [3]{}: in 0x6ff-0x700.7 (2)
0x6f0|                                             fd|               .|                    prefix: 0xfd (valid) 0x6ff-0x6ff.7 (1)
0x700|6c                                             |l               |                    i8x16.shr_s: 108 (valid) 0x700-0x700.7 (1)
     |                                               |                |                  [4]{}: in 0x701-0x701.7 (1)
0x700|   0b                                          | .              |                    end: 0xb (valid) 0x701-0x701.7 (1)
     |                                               |                |            [23]{}: code 0x702-0x70d.7 (12)
0x700|      0b                                       |  .             |              size: 11 0x702-0x702.7 (1)
     |                                               |                |              code{}: 0x703-0x70d.7 (11)
     |                                               |                |                t{}: 0x703-0x703.7 (1)
0x700|         00                                    |   .            |                  n: 0 0x703-0x703.7 (1)
     |                                               |                |                  x[0:0]: 0x704-NA (0)
     |                                               |                |                e[0:5]: 0x704-0x70d.7 (10)
     |                                               |                |                  [0]{}: in 0x704-0x705.7 (2)
0x700|            20                                 |                |                    local.get: 0x20 (valid) 0x704-0x704.7 (1)
0x700|               00                              |     .          |                    x: 0 0x705-0x705.7 (1)
     |                                               |                |                  [1]{}: in 0x706-0x707.7 (2)
0x700|                  fd                           |      .         |                    prefix: 0xfd (valid) 0x706-0x706.7 (1)
0x700|                     10                        |       .        |                    i16x8.splat: 16 (valid) 0x707-0x707.7 (1)
     |                                               |                |                  [2]{}: in 0x708-0x709.7 (2)
0x700|                        20                     |                |                    local.get: 0x20 (valid) 0x708-0x708.7 (1)
0x700|                           01                  |         .      |                    x: 1 0x709-0x709.7 (1)
     |                                               |                |                  [3]{}: in 0x70a-0x70c.7 (3)
0x700|                              fd               |          .     |                    prefix: 0xfd (valid) 0x70a-0x70a.7 (1)
0x700|                                 8c 01         |           ..   |                    i16x8.shr_s: 140 (valid) 0x70b-0x70c.7 (2)
     |                                               |                |                  [4]{}: in 0x70d-0x70d.7 (1)
0x700|                                       0b      |             .  |                    end: 0xb (valid) 0x70d-0x70d.7 (1)
     |                                               |                |            [24]{}: code 0x70e-0x719.7 (12)
0x700|                                          0b   |              . |              size: 11 0x70e-0x70e.7 (1)
     |                                               |                |              code{}: 0x70f-0x719.7 (11)
     |                                               |                |                t{}: 0x70f-0x70f.7 (1)
0x700|                                             00|               .|                  n: 0 0x70f-0x70f.7 (1)
     |                                               |                |                  x[0:0]: 0x710-NA (0)
     |                                               |                |                e[0:5]: 0x710-0x719.7 (10)
     |                                               |                |                  [0]{}: in 0x710-0x711.7 (2)
0x710|20                                             |                |                    local.get: 0x20 (valid) 0x710-0x710.7 (1)
0x710|   00                                          | .              |                    x: 0 0x711-0x711.7 (1)
     |                                               |                |                  [1]{}: in 0x712-0x713.7 (2)
0x710|      fd                                       |  .             |                    prefix: 0xfd (valid) 0x712-0x712.7 (1)
0x710|         11                                    |   .            |                    i32x4.splat: 17 (valid) 0x713-0x713.7 (1)
     |                                               |                |                  [2]{}: in 0x714-0x715.7 (2)
0x710|            20                                 |                |                    local.get: 0x20 (valid) 0x714-0x714.7 (1)
0x710|               01                              |     .          |                    x: 1 0x715-0x715.7 (1)
     |                                               |                |                  [3]{}: in 0x716-0x718.7 (3)
0x710|                  fd                           |      .         |                    prefix: 0xfd (valid) 0x716-0x716.7 (1)
0x710|                     ac 01                     |       ..       |                    i32x4.shr_s: 172 (valid) 0x717-0x718.7 (2)
     |                                               |                |                  [4]{}: in 0x719-0x719.7 (1)
0x710|                           0b                  |         .      |                    end: 0xb (valid) 0x719-0x719.7 (1)
     |                                               |                |            [25]{}: code 0x71a-0x726.7 (13)
0x710|                              0c               |          .     |              size: 12 0x71a-0x71a.7 (1)
     |                                               |                |              code{}: 0x71b-0x726.7 (12)
     |                                               |                |                t{}: 0x71b-0x71b.7 (1)
0x710|                                 00            |           .    |                  n: 0 0x71b-0x71b.7 (1)
     |                                               |                |                  x[0:0]: 0x71c-NA (0)
     |                                               |                |                e[0:6]: 0x71c-0x726.7 (11)
     |                                               |                |                  [0]{}: in 0x71c-0x71d.7 (2)
0x710|                                    20         |                |                    local.get: 0x20 (valid) 0x71c-0x71c.7 (1)
0x710|                                       00      |             .  |                    x: 0 0x71d-0x71d.7 (1)
     |                                               |                |                  [1]{}: in 0x71e-0x71f.7 (2)
0x710|                                          fd   |              . |                    prefix: 0xfd (valid) 0x71e-0x71e.7 (1)
0x710|                                             0f|               .|                    i8x16.splat: 15 (valid) 0x71f-0x71f.7 (1)
     |                                               |                |                  [2]{}: in 0x720-0x721.7 (2)
0x720|20                                             |                |                    local.get: 0x20 (valid) 0x720-0x720.7 (1)
0x720|   01                                          | .              |                    x: 1 0x721-0x721.7 (1)
     |                                               |                |                  [3]{}: in 0x722-0x723.7 (2)
0x720|      fd                                       |  .             |                    prefix: 0xfd (valid) 0x722-0x722.7 (1)
0x720|         0f                                    |   .            |                    i8x16.splat: 15 (valid) 0x723-0x723.7 (1)
     |                                               |                |                  [4]{}: in 0x724-0x725.7 (2)
0x720|            fd                                 |    .           |                    prefix: 0xfd (valid) 0x724-0x724.7 (1)
0x720|               4e                              |     N          |                    v128.and: 78 (valid) 0x725-0x725.7 (1)
     |                                               |                |                  [5]{}: in 0x726-0x726.7 (1)
0x720|                  0b                           |      .         |                    end: 0xb (valid) 0x726-0x726.7 (1)
     |                                               |                |            [26]{}: code 0x727-0x733.7 (13)
0x720|                     0c                        |       .        |              size: 12 0x727-0x727.7 (1)
     |                                               |                |              code{}: 0x728-0x733.7 (12)
     |                                               |                |                t{}: 0x728-0x728.7 (1)
0x720|                        00                     |        .       |                  n: 0 0x728-0x728.7 (1)
     |                                               |                |                  x[0:0]: 0x729-NA (0)
     |                                               |                |                e[0:6]: 0x729-0x733.7 (11)
     |                                               |                |                  [0]{}: in 0x729-0x72a.7 (2)
0x720|                           20                  |                |                    local.get: 0x20 (valid) 0x729-0x729.7 (1)
0x720|                              00               |          .     |                    x: 0 0x72a-0x72a.7 (1)
     |                                               |                |                  [1]{}: in 0x72b-0x72c.7 (2)
0x720|                                 fd            |           .    |                    prefix: 0xfd (valid) 0x72b-0x72b.7 (1)
0x720|                                    10         |            .   |                    i16x8.splat: 16 (valid) 0x72c-0x72c.7 (1)
     |                                               |                |                  [2]{}: in 0x72d-0x72e.7 (2)
0x720|                                       20      |                |                    local.get: 0x20 (valid) 0x72d-0x72d.7 (1)
0x720|                                          01   |              . |                    x: 1 0x72e-0x72e.7 (1)
     |                                               |                |                  [3]{}: in 0x72f-0x730.7 (2)
0x720|                                             fd|               .|                    prefix: 0xfd (valid) 0x72f-0x72f.7 (1)
0x730|10                                             |.               |                    i16x8.splat: 16 (valid) 0x730-0x730.7 (1)
     |                                               |                |                  [4]{}: in 0x731-0x732.7 (2)
0x730|   fd                                          | .              |                    prefix: 0xfd (valid) 0x731-0x731.7 (1)
0x730|      50                                       |  P             |                    v128.or: 80 (valid) 0x732-0x732.7 (1)
     |                                               |                |                  [5]{}: in 0x733-0x733.7 (1)
0x730|         0b                                    |   .            |                    end: 0xb (valid) 0x733-0x733.7 (1)
     |                                               |                |            [27]{}: code 0x734-0x740.7 (13)
0x730|            0c                                 |    .           |              size: 12 0x734-0x734.7 (1)
     |                                               |                |              code{}: 0x735-0x740.7 (12)
     |                                               |                |                t{}: 0x735-0x735.7 (1)
0x730|               00                              |     .          |                  n: 0 0x735-0x735.7 (1)
     |                                               |                |                  x[0:0]: 0x736-NA (0)
     |                                               |                |                e[0:6]: 0x736-0x740.7 (11)
     |                                               |                |                  [0]{}: in 0x736-0x737.7 (2)
0x730|                  20                           |                |                    local.get: 0x20 (valid) 0x736-0x736.7 (1)
0x730|                     00                        |       .        |                    x: 0 0x737-0x737.7 (1)
     |                                               |                |                  [1]{}: in 0x738-0x739.7 (2)
0x730|                        fd                     |        .       |                    prefix: 0xfd (valid) 0x738-0x738.7 (1)
0x730|                           11                  |         .      |                    i32x4.splat: 17 (valid) 0x739-0x739.7 (1)
     |                                               |                |                  [2]{}: in 0x73a-0x73b.7 (2)
0x730|                              20               |                |                    local.get: 0x20 (valid) 0x73a-0x73a.7 (1)
0x730|                                 01            |           .    |                    x: 1 0x73b-0x73b.7 (1)
     |                                               |                |                  [3]{}: in 0x73c-0x73d.7 (2)
0x730|                                    fd         |            .   |                    prefix: 0xfd (valid) 0x73c-0x73c.7 (1)
0x730|                                       11      |             .  |                    i32x4.splat: 17 (valid) 0x73d-0x73d.7 (1)
     |                                               |                |                  [4]{}: in 0x73e-0x73f.7 (2)
0x730|                                          fd   |              . |                    prefix: 0xfd (valid) 0x73e-0x73e.7 (1)
0x730|                                             51|               Q|                    v128.xor: 81 (valid) 0x73f-0x73f.7 (1)
     |                                               |                |                  [5]{}: in 0x740-0x740.7 (1)
0x740|0b                                             |.               |                    end: 0xb (valid) 0x740-0x740.7 (1)
     |                                               |                |            [28]{}: code 0x741-0x749.7 (9)
0x740|   08                                          | .              |              size: 8 0x741-0x741.7 (1)
     |                                               |                |              code{}: 0x742-0x749.7 (8)
     |                                               |                |                t{}: 0x742-0x742.7 (1)
0x740|      00                                       |  .             |                  n: 0 0x742-0x742.7 (1)
     |                                               |                |                  x[0:0]: 0x743-NA (0)
     |                                               |                |                e[0:4]: 0x743-0x749.7 (7)
     |                                               |                |                  [0]{}: in 0x743-0x744.7 (2)
0x740|         20                                    |                |                    local.get: 0x20 (valid) 0x743-0x743.7 (1)
0x740|            00                                 |    .           |                    x: 0 0x744-0x744.7 (1)
     |                                               |                |                  [1]{}: in 0x745-0x746.7 (2)
0x740|               fd                              |     .          |                    prefix: 0xfd (valid) 0x745-0x745.7 (1)
0x740|                  0f                           |      .         |                    i8x16.splat: 15 (valid) 0x746-0x746.7 (1)
     |                                               |                |                  [2]{}: in 0x747-0x748.7 (2)
0x740|                     fd                        |       .        |                    prefix: 0xfd (valid) 0x747-0x747.7 (1)
0x740|                        63                     |        c       |                    i8x16.all_true: 99 (valid) 0x748-0x748.7 (1)
     |                                               |                |                  [3]{}: in 0x749-0x749.7 (1)
0x740|                           0b                  |         .      |                    end: 0xb (valid) 0x749-0x749.7 (1)
     |                                               |                |            [29]{}: code 0x74a-0x753.7 (10)
0x740|                              09               |          .     |              size: 9 0x74a-0x74a.7 (1)
     |                                               |                |              code{}: 0x74b-0x753.7 (9)
     |                                               |                |                t{}: 0x74b-0x74b.7 (1)
0x740|                                 00            |           .    |                  n: 0 0x74b-0x74b.7 (1)
     |                                               |                |                  x[0:0]: 0x74c-NA (0)
     |                                               |                |                e[0:4]: 0x74c-0x753.7 (8)
     |                                               |                |                  [0]{}: in 0x74c-0x74d.7 (2)
0x740|                                    20         |                |                    local.get: 0x20 (valid) 0x74c-0x74c.7 (1)
0x740|                                       00      |             .  |                    x: 0 0x74d-0x74d.7 (1)
     |                                               |                |                  [1]{}: in 0x74e-0x74f.7 (2)
0x740|                                          fd   |              . |                    prefix: 0xfd (valid) 0x74e-0x74e.7 (1)
0x740|                                             10|               .|                    i16x8.splat: 16 (valid) 0x74f-0x74f.7 (1)
     |                                               |                |                  [2]{}: in 0x750-0x752.7 (3)
0x750|fd                                             |.               |                    prefix: 0xfd (valid) 0x750-0x750.7 (1)
0x750|   83 01                                       | ..             |                    i16x8.all_true: 131 (valid) 0x751-0x752.7 (2)
     |                                               |                |                  [3]{}: in 0x753-0x753.7 (1)
0x750|         0b                                    |   .            |                    end: 0xb (valid) 0x753-0x753.7 (1)
     |                                               |                |            [30]{}: code 0x754-0x75d.7 (10)
0x750|            09                                 |    .           |              size: 9 0x754-0x754.7 (1)
     |                                               |                |              code{}: 0x755-0x75d.7 (9)
     |                                               |                |                t{}: 0x755-0x755.7 (1)
0x750|               00                              |     .          |                  n: 0 0x755-0x755.7 (1)
     |                                               |                |                  x[0:0]: 0x756-NA (0)
     |                                               |                |                e[0:4]: 0x756-0x75d.7 (8)
     |                                               |                |                  [0]{}: in 0x756-0x757.7 (2)
0x750|                  20                           |                |                    local.get: 0x20 (valid) 0x756-0x756.7 (1)
0x750|                     00                        |       .        |                    x: 0 0x757-0x757.7 (1)
     |                                               |                |                  [1]{}: in 0x758-0x759.7 (2)
0x750|                        fd                     |        .       |                    prefix: 0xfd (valid) 0x758-0x758.7 (1)
0x750|                           11                  |         .      |                    i32x4.splat: 17 (valid) 0x759-0x759.7 (1)
     |                                               |                |                  [2]{}: in 0x75a-0x75c.7 (3)
0x750|                              fd               |          .     |                    prefix: 0xfd (valid) 0x75a-0x75a.7 (1)
0x750|                                 a3 01         |           ..   |                    i32x4.all_true: 163 (valid) 0x75b-0x75c.7 (2)
     |                                               |                |                  [3]{}: in 0x75d-0x75d.7 (1)
0x750|                                       0b      |             .  |                    end: 0xb (valid) 0x75d-0x75d.7 (1)
     |                                               |                |            [31]{}: code 0x75e-0x767.7 (10)
0x750|                                          09   |              . |              size: 9 0x75e-0x75e.7 (1)
     |                                               |                |              code{}: 0x75f-0x767.7 (9)
     |                                               |                |                t{}: 0x75f-0x75f.7 (1)
0x750|                                             00|               .|                  n: 0 0x75f-0x75f.7 (1)
     |                                               |                |                  x[0:0]: 0x760-NA (0)
     |                                               |                |                e[0:4]: 0x760-0x767.7 (8)
     |                                               |                |                  [0]{}: in 0x760-0x761.7 (2)
0x760|20                                             |                |                    local.get: 0x20 (valid) 0x760-0x760.7 (1)
0x760|   00                                          | .              |                    x: 0 0x761-0x761.7 (1)
     |                                               |                |                  [1]{}: in 0x762-0x763.7 (2)
0x760|      fd                                       |  .             |                    prefix: 0xfd (valid) 0x762-0x762.7 (1)
0x760|         12                                    |   .            |                    i64x2.splat: 18 (valid) 0x763-0x763.7 (1)
     |                                               |                |                  [2]{}: in 0x764-0x766.7 (3)
0x760|            fd                                 |    .           |                    prefix: 0xfd (valid) 0x764-0x764.7 (1)
0x760|               a3 01                           |     ..         |                    i32x4.all_true: 163 (valid) 0x765-0x766.7 (2)
     |                                               |                |                  [3]{}: in 0x767-0x767.7 (1)
0x760|                     0b                        |       .        |                    end: 0xb (valid) 0x767-0x767.7 (1)
     |                                               |                |            [32]{}: code 0x768-0x774.7 (13)
0x760|                        0c                     |        .       |              size: 12 0x768-0x768.7 (1)
     |                                               |                |              code{}: 0x769-0x774.7 (12)
     |                                               |                |                t{}: 0x769-0x769.7 (1)
0x760|                           00                  |         .      |                  n: 0 0x769-0x769.7 (1)
     |                                               |                |                  x[0:0]: 0x76a-NA (0)
     |                                               |                |                e[0:6]: 0x76a-0x774.7 (11)
     |                                               |                |                  [0]{}: in 0x76a-0x76b.7 (2)
0x760|                              20               |                |                    local.get: 0x20 (valid) 0x76a-0x76a.7 (1)
0x760|                                 00            |           .    |                    x: 0 0x76b-0x76b.7 (1)
     |                                               |                |                  [1]{}: in 0x76c-0x76d.7 (2)
0x760|                                    fd         |            .   |                    prefix: 0xfd (valid) 0x76c-0x76c.7 (1)
0x760|                                       0f      |             .  |                    i8x16.splat: 15 (valid) 0x76d-0x76d.7 (1)
     |                                               |                |                  [2]{}: in 0x76e-0x76f.7 (2)
0x760|                                          20   |                |                    local.get: 0x20 (valid) 0x76e-0x76e.7 (1)
0x760|                                             01|               .|                    x: 1 0x76f-0x76f.7 (1)
     |                                               |                |                  [3]{}: in 0x770-0x771.7 (2)
0x770|fd                                             |.               |                    prefix: 0xfd (valid) 0x770-0x770.7 (1)
0x770|   0f                                          | .              |                    i8x16.splat: 15 (valid) 0x771-0x771.7 (1)
     |                                               |                |                  [4]{}: in 0x772-0x773.7 (2)
0x770|      fd                                       |  .             |                    prefix: 0xfd (valid) 0x772-0x772.7 (1)
0x770|         23                                    |   #            |                    i8x16.eq: 35 (valid) 0x773-0x773.7 (1)
     |                                               |                |                  [5]{}: in 0x774-0x774.7 (1)
0x770|            0b                                 |    .           |                    end: 0xb (valid) 0x774-0x774.7 (1)
     |                                               |                |            [33]{}: code 0x775-0x781.7 (13)
0x770|               0c                              |     .          |              size: 12 0x775-0x775.7 (1)
     |                                               |                |              code{}: 0x776-0x781.7 (12)
     |                                               |                |                t{}: 0x776-0x776.7 (1)
0x770|                  00                           |      .         |                  n: 0 0x776-0x776.7 (1)
     |                                               |                |                  x[0:0]: 0x777-NA (0)
     |                                               |                |                e[0:6]: 0x777-0x781.7 (11)
     |                                               |                |                  [0]{}: in 0x777-0x778.7 (2)
0x770|                     20                        |                |                    local.get: 0x20 (valid) 0x777-0x777.7 (1)
0x770|                        00                     |        .       |                    x: 0 0x778-0x778.7 (1)
     |                                               |                |                  [1]{}: in 0x779-0x77a.7 (2)
0x770|                           fd                  |         .      |                    prefix: 0xfd (valid) 0x779-0x779.7 (1)
0x770|                              10               |          .     |                    i16x8.splat: 16 (valid) 0x77a-0x77a.7 (1)
     |                                               |                |                  [2]{}: in 0x77b-0x77c.7 (2)
0x770|                                 20            |                |                    local.get: 0x20 (valid) 0x77b-0x77b.7 (1)
0x770|                                    01         |            .   |                    x: 1 0x77c-0x77c.7 (1)
     |                                               |                |                  [3]{}: in 0x77d-0x77e.7 (2)
0x770|                                       fd      |             .  |                    prefix: 0xfd (valid) 0x77d-0x77d.7 (1)
0x770|                                          10   |              . |                    i16x8.splat: 16 (valid) 0x77e-0x77e.7 (1)
     |                                               |                |                  [4]{}: in 0x77f-0x780.7 (2)
0x770|                                             fd|               .|                    prefix: 0xfd (valid) 0x77f-0x77f.7 (1)
0x780|2d                                             |-               |                    i16x8.eq: 45 (valid) 0x780-0x780.7 (1)
     |                                               |                |                  [5]{}: in 0x781-0x781.7 (1)
0x780|   0b                                          | .              |                    end: 0xb (valid) 0x781-0x781.7 (1)
     |                                               |                |            [34]{}: code 0x782-0x78e.7 (13)
0x780|      0c                                       |  .             |              size: 12 0x782-0x782.7 (1)
     |                                               |                |              code{}: 0x783-0x78e.7 (12)
     |                                               |                |                t{}: 0x783-0x783.7 (1)
0x780|         00                                    |   .            |                  n: 0 0x783-0x783.7 (1)
     |                                               |                |                  x[0:0]: 0x784-NA (0)
     |                                               |                |                e[0:6]: 0x784-0x78e.7 (11)
     |                                               |                |                  [0]{}: in 0x784-0x785.7 (2)
0x780|            20                                 |                |                    local.get: 0x20 (valid) 0x784-0x784.7 (1)
0x780|               00                              |     .          |                    x: 0 0x785-0x785.7 (1)
     |                                               |                |                  [1]{}: in 0x786-0x787.7 (2)
0x780|                  fd                           |      .         |                    prefix: 0xfd (valid) 0x786-0x786.7 (1)
0x780|                     11                        |       .        |                    i32x4.splat: 17 (valid) 0x787-0x787.7 (1)
     |                                               |                |                  [2]{}: in 0x788-0x789.7 (2)
0x780|                        20                     |                |                    local.get: 0x20 (valid) 0x788-0x788.7 (1)
0x780|                           01                  |         .      |                    x: 1 0x789-0x789.7 (1)
     |                                               |                |                  [3]{}: in 0x78a-0x78b.7 (2)
0x780|                              fd               |          .     |                    prefix: 0xfd (valid) 0x78a-0x78a.7 (1)
0x780|                                 11            |           .    |                    i32x4.splat: 17 (valid) 0x78b-0x78b.7 (1)
     |                                               |                |                  [4]{}: in 0x78c-0x78d.7 (2)
0x780|                                    fd         |            .   |                    prefix: 0xfd (valid) 0x78c-0x78c.7 (1)
0x780|                                       37      |             7  |                    i32x4.eq: 55 (valid) 0x78d-0x78d.7 (1)
     |                                               |                |                  [5]{}: in 0x78e-0x78e.7 (1)
0x780|                                          0b   |              . |                    end: 0xb (valid) 0x78e-0x78e.7 (1)
     |                                               |                |            [35]{}: code 0x78f-0x79b.7 (13)
0x780|                                             0c|               .|              size: 12 0x78f-0x78f.7 (1)
     |                                               |                |              code{}: 0x790-0x79b.7 (12)
     |                                               |                |                t{}: 0x790-0x790.7 (1)
0x790|00                                             |.               |                  n: 0 0x790-0x790.7 (1)
     |                                               |                |                  x[0:0]: 0x791-NA (0)
     |                                               |                |                e[0:6]: 0x791-0x79b.7 (11)
     |                                               |                |                  [0]{}: in 0x791-0x792.7 (2)
0x790|   20                                          |                |                    local.get: 0x20 (valid) 0x791-0x791.7 (1)
0x790|      00                                       |  .             |                    x: 0 0x792-0x792.7 (1)
     |                                               |                |                  [1]{}: in 0x793-0x794.7 (2)
0x790|         fd                                    |   .            |                    prefix: 0xfd (valid) 0x793-0x793.7 (1)
0x790|            12                                 |    .           |                    i64x2.splat: 18 (valid) 0x794-0x794.7 (1)
     |                                               |                |                  [2]{}: in 0x795-0x796.7 (2)
0x790|               20                              |                |                    local.get: 0x20 (valid) 0x795-0x795.7 (1)
0x790|                  01                           |      .         |                    x: 1 0x796-0x796.7 (1)
     |                                               |                |                  [3]{}: in 0x797-0x798.7 (2)
0x790|                     fd                        |       .        |                    prefix: 0xfd (valid) 0x797-0x797.7 (1)
0x790|                        12                     |        .       |                    i64x2.splat: 18 (valid) 0x798-0x798.7 (1)
     |                                               |                |                  [4]{}: in 0x799-0x79a.7 (2)
0x790|                           fd                  |         .      |                    prefix: 0xfd (valid) 0x799-0x799.7 (1)
0x790|                              37               |          7     |                    i32x4.eq: 55 (valid) 0x79a-0x79a.7 (1)
     |                                               |                |                  [5]{}: in 0x79b-0x79b.7 (1)
0x790|                                 0b            |           .    |                    end: 0xb (valid) 0x79b-0x79b.7 (1)
     |                                               |                |            [36]{}: code 0x79c-0x7a8.7 (13)
0x790|                                    0c         |            .   |              size: 12 0x79c-0x79c.7 (1)
     |                                               |                |              code{}: 0x79d-0x7a8.7 (12)
     |                                               |                |                t{}: 0x79d-0x79d.7 (1)
0x790|                                       00      |             .  |                  n: 0 0x79d-0x79d.7 (1)
     |                                               |                |                  x[0:0]: 0x79e-NA (0)
     |                                               |                |                e[0:6]: 0x79e-0x7a8.7 (11)
     |                                               |                |                  [0]{}: in 0x79e-0x79f.7 (2)
0x790|                                          20   |                |                    local.get: 0x20 (valid) 0x79e-0x79e.7 (1)
0x790|                                             00|               .|                    x: 0 0x79f-0x79f.7 (1)
     |                                               |                |                  [1]{}: in 0x7a0-0x7a1.7 (2)
0x7a0|fd                                             |.               |                    prefix: 0xfd (valid) 0x7a0-0x7a0.7 (1)
0x7a0|   13                                          | .              |                    f32x4.splat: 19 (valid) 0x7a1-0x7a1.7 (1)
     |                                               |                |                  [2]{}: in 0x7a2-0x7a3.7 (2)
0x7a0|      20                                       |                |                    local.get: 0x20 (valid) 0x7a2-0x7a2.7 (1)
0x7a0|         01                                    |   .            |                    x: 1 0x7a3-0x7a3.7 (1)
     |                                               |                |                  [3]{}: in 0x7a4-0x7a5.7 (2)
0x7a0|            fd                                 |    .           |                    prefix: 0xfd (valid) 0x7a4-0x7a4.7 (1)
0x7a0|               13                              |     .          |                    f32x4.splat: 19 (valid) 0x7a5-0x7a5.7 (1)
     |                                               |                |                  [4]{}: in 0x7a6-0x7a7.7 (2)
0x7a0|                  fd                           |      .         |                    prefix: 0xfd (valid) 0x7a6-0x7a6.7 (1)
0x7a0|                     41                        |       A        |                    f32x4.eq: 65 (valid) 0x7a7-0x7a7.7 (1)
     |                                               |                |                  [5]{}: in 0x7a8-0x7a8.7 (1)
0x7a0|                        0b                     |        .       |                    end: 0xb (valid) 0x7a8-0x7a8.7 (1)
     |                                               |                |            [37]{}: code 0x7a9-0x7b5.7 (13)
0x7a0|                           0c                  |         .      |              size: 12 0x7a9-0x7a9.7 (1)
     |                                               |                |              code{}: 0x7aa-0x7b5.7 (12)
     |                                               |                |                t{}: 0x7aa-0x7aa.7 (1)
0x7a0|                              00               |          .     |                  n: 0 0x7aa-0x7aa.7 (1)
     |                                               |                |                  x[0:0]: 0x7ab-NA (0)
     |                                               |                |                e[0:6]: 0x7ab-0x7b5.7 (11)
     |                                               |                |                  [0]{}: in 0x7ab-0x7ac.7 (2)
0x7a0|                                 20            |                |                    local.get: 0x20 (valid) 0x7ab-0x7ab.7 (1)
0x7a0|                                    00         |            .   |                    x: 0 0x7ac-0x7ac.7 (1)
     |                                               |                |                  [1]{}: in 0x7ad-0x7ae.7 (2)
0x7a0|                                       fd      |             .  |                    prefix: 0xfd (valid) 0x7ad-0x7ad.7 (1)
0x7a0|                                          14   |              . |                    f64x2.splat: 20 (valid) 0x7ae-0x7ae.7 (1)
     |                                               |                |                  [2]{}: in 0x7af-0x7b0.7 (2)
0x7a0|                                             20|                |                    local.get: 0x20 (valid) 0x7af-0x7af.7 (1)
0x7b0|01                                             |.               |                    x: 1 0x7b0-0x7b0.7 (1)
     |                                               |                |                  [3]{}: in 0x7b1-0x7b2.7 (2)
0x7b0|   fd                                          | .              |                    prefix: 0xfd (valid) 0x7b1-0x7b1.7 (1)
0x7b0|      14                                       |  .             |                    f64x2.splat: 20 (valid) 0x7b2-0x7b2.7 (1)
     |                                               |                |                  [4]{}: in 0x7b3-0x7b4.7 (2)
0x7b0|         fd                                    |   .            |                    prefix: 0xfd (valid) 0x7b3-0x7b3.7 (1)
0x7b0|            47                                 |    G           |                    f64x2.eq: 71 (valid) 0x7b4-0x7b4.7 (1)
     |                                               |                |                  [5]{}: in 0x7b5-0x7b5.7 (1)
0x7b0|               0b                              |     .          |                    end: 0xb (valid) 0x7b5-0x7b5.7 (1)
     |                                               |                |            [38]{}: code 0x7b6-0x7bf.7 (10)
0x7b0|                  09                           |      .         |              size: 9 0x7b6-0x7b6.7 (1)
     |                                               |                |              code{}: 0x7b7-0x7bf.7 (9)
     |                                               |                |                t{}: 0x7b7-0x7b7.7 (1)
0x7b0|                     00                        |       .        |                  n: 0 0x7b7-0x7b7.7 (1)
     |                                               |                |                  x[0:0]: 0x7b8-NA (0)
     |                                               |                |                e[0:4]: 0x7b8-0x7bf.7 (8)
     |                                               |                |                  [0]{}: in 0x7b8-0x7b9.7 (2)
0x7b0|                        20                     |                |                    local.get: 0x20 (valid) 0x7b8-0x7b8.7 (1)
0x7b0|                           00                  |         .      |                    x: 0 0x7b9-0x7b9.7 (1)
     |                                               |                |                  [1]{}: in 0x7ba-0x7bb.7 (2)
0x7b0|                              fd               |          .     |                    prefix: 0xfd (valid) 0x7ba-0x7ba.7 (1)
0x7b0|                                 13            |           .    |                    f32x4.splat: 19 (valid) 0x7bb-0x7bb.7 (1)
     |                                               |                |                  [2]{}: in 0x7bc-0x7be.7 (3)
0x7b0|                                    fd         |            .   |                    prefix: 0xfd (valid) 0x7bc-0x7bc.7 (1)
0x7b0|                                       e0 01   |             .. |                    f32x4.abs: 224 (valid) 0x7bd-0x7be.7 (2)
     |                                               |                |                  [3]{}: in 0x7bf-0x7bf.7 (1)
0x7b0|                                             0b|               .|                    end: 0xb (valid) 0x7bf-0x7bf.7 (1)
     |                                               |                |            [39]{}: code 0x7c0-0x7cd.7 (14)
0x7c0|0d                                             |.               |              size: 13 0x7c0-0x7c0.7 (1)
     |                                               |                |              code{}: 0x7c1-0x7cd.7 (13)
     |                                               |                |                t{}: 0x7c1-0x7c1.7 (1)
0x7c0|   00                                          | .              |                  n: 0 0x7c1-0x7c1.7 (1)
     |                                               |                |                  x[0:0]: 0x7c2-NA (0)
     |                                               |                |                e[0:6]: 0x7c2-0x7cd.7 (12)
     |                                               |                |                  [0]{}: in 0x7c2-0x7c3.7 (2)
0x7c0|      20                                       |                |                    local.get: 0x20 (valid) 0x7c2-0x7c2.7 (1)
0x7c0|         00                                    |   .            |                    x: 0 0x7c3-0x7c3.7 (1)
     |                                               |                |                  [1]{}: in 0x7c4-0x7c5.7 (2)
0x7c0|            fd                                 |    .           |                    prefix: 0xfd (valid) 0x7c4-0x7c4.7 (1)
0x7c0|               13                              |     .          |                    f32x4.splat: 19 (valid) 0x7c5-0x7c5.7 (1)
     |                                               |                |                  [2]{}: in 0x7c6-0x7c7.7 (2)
0x7c0|                  20                           |                |                    local.get: 0x20 (valid) 0x7c6-0x7c6.7 (1)
0x7c0|                     01                        |       .        |                    x: 1 0x7c7-0x7c7.7 (1)
     |                                               |                |                  [3]{}: in 0x7c8-0x7c9.7 (2)
0x7c0|                        fd                     |        .       |                    prefix: 0xfd (valid) 0x7c8-0x7c8.7 (1)
0x7c0|                           13                  |         .      |                    f32x4.splat: 19 (valid) 0x7c9-0x7c9.7 (1)
     |                                               |                |                  [4]{}: in 0x7ca-0x7cc.7 (3)
0x7c0|                              fd               |          .     |                    prefix: 0xfd (valid) 0x7ca-0x7ca.7 (1)
0x7c0|                                 e8 01         |           ..   |                    f32x4.min: 232 (valid) 0x7cb-0x7cc.7 (2)
     |                                               |                |                  [5]{}: in 0x7cd-0x7cd.7 (1)
0x7c0|                                       0b      |             .  |                    end: 0xb (valid) 0x7cd-0x7cd.7 (1)
     |                                               |                |            [40]{}: code 0x7ce-0x7db.7 (14)
0x7c0|                                          0d   |              . |              size: 13 0x7ce-0x7ce.7 (1)
     |                                               |                |              code{}: 0x7cf-0x7db.7 (13)
     |                                               |                |                t{}: 0x7cf-0x7cf.7 (1)
0x7c0|                                             00|               .|                  n: 0 0x7cf-0x7cf.7 (1)
     |                                               |                |                  x[0:0]: 0x7d0-NA (0)
     |                                               |                |                e[0:6]: 0x7d0-0x7db.7 (12)
     |                                               |                |                  [0]{}: in 0x7d0-0x7d1.7 (2)
0x7d0|20                                             |                |                    local.get: 0x20 (valid) 0x7d0-0x7d0.7 (1)
0x7d0|   00                                          | .              |                    x: 0 0x7d1-0x7d1.7 (1)
     |                                               |                |                  [1]{}: in 0x7d2-0x7d3.7 (2)
0x7d0|      fd                                       |  .             |                    prefix: 0xfd (valid) 0x7d2-0x7d2.7 (1)
0x7d0|         13                                    |   .            |                    f32x4.splat: 19 (valid) 0x7d3-0x7d3.7 (1)
     |                                               |                |                  [2]{}: in 0x7d4-0x7d5.7 (2)
0x7d0|            20                                 |                |                    local.get: 0x20 (valid) 0x7d4-0x7d4.7 (1)
0x7d0|               01                              |     .          |                    x: 1 0x7d5-0x7d5.7 (1)
     |                                               |                |                  [3]{}: in 0x7d6-0x7d7.7 (2)
0x7d0|                  fd                           |      .         |                    prefix: 0xfd (valid) 0x7d6-0x7d6.7 (1)
0x7d0|                     13                        |       .        |                    f32x4.splat: 19 (valid) 0x7d7-0x7d7.7 (1)
     |                                               |                |                  [4]{}: in 0x7d8-0x7da.7 (3)
0x7d0|                        fd                     |        .       |                    prefix: 0xfd (valid) 0x7d8-0x7d8.7 (1)
0x7d0|                           e7 01               |         ..     |                    f32x4.div: 231 (valid) 0x7d9-0x7da.7 (2)
     |                                               |                |                  [5]{}: in 0x7db-0x7db.7 (1)
0x7d0|                                 0b            |           .    |                    end: 0xb (valid) 0x7db-0x7db.7 (1)
     |                                               |                |            [41]{}: code 0x7dc-0x7e5.7 (10)
0x7d0|                                    09         |            .   |              size: 9 0x7dc-0x7dc.7 (1)
     |                                               |                |              code{}: 0x7dd-0x7e5.7 (9)
     |                                               |                |                t{}: 0x7dd-0x7dd.7 (1)
0x7d0|                                       00      |             .  |                  n: 0 0x7dd-0x7dd.7 (1)
     |                                               |                |                  x[0:0]: 0x7de-NA (0)
     |                                               |                |                e[0:4]: 0x7de-0x7e5.7 (8)
     |                                               |                |                  [0]{}: in 0x7de-0x7df.7 (2)
0x7d0|                                          20   |                |                    local.get: 0x20 (valid) 0x7de-0x7de.7 (1)
0x7d0|                                             00|               .|                    x: 0 0x7df-0x7df.7 (1)
     |                                               |                |                  [1]{}: in 0x7e0-0x7e1.7 (2)
0x7e0|fd                                             |.               |                    prefix: 0xfd (valid) 0x7e0-0x7e0.7 (1)
0x7e0|   11                                          | .              |                    i32x4.splat: 17 (valid) 0x7e1-0x7e1.7 (1)
     |                                               |                |                  [2]{}: in 0x7e2-0x7e4.7 (3)
0x7e0|      fd                                       |  .             |                    prefix: 0xfd (valid) 0x7e2-0x7e2.7 (1)
0x7e0|         fa 01                                 |   ..           |                    f32x4.convert_i32x4_s: 250 (valid) 0x7e3-0x7e4.7 (2)
     |                                               |                |                  [3]{}: in 0x7e5-0x7e5.7 (1)
0x7e0|               0b                              |     .          |                    end: 0xb (valid) 0x7e5-0x7e5.7 (1)
     |                                               |                |            [42]{}: code 0x7e6-0x7ef.7 (10)
0x7e0|                  09                           |      .         |              size: 9 0x7e6-0x7e6.7 (1)
     |                                               |                |              code{}: 0x7e7-0x7ef.7 (9)
     |                                               |                |                t{}: 0x7e7-0x7e7.7 (1)
0x7e0|                     00                        |       .        |                  n: 0 0x7e7-0x7e7.7 (1)
     |                                               |                |                  x[0:0]: 0x7e8-NA (0)
     |                                               |                |                e[0:4]: 0x7e8-0x7ef.7 (8)
     |                                               |                |                  [0]{}: in 0x7e8-0x7e9.7 (2)
0x7e0|                        20                     |                |                    local.get: 0x20 (valid) 0x7e8-0x7e8.7 (1)
0x7e0|                           00                  |         .      |                    x: 0 0x7e9-0x7e9.7 (1)
     |                                               |                |                  [1]{}: in 0x7ea-0x7eb.7 (2)
0x7e0|                              fd               |          .     |                    prefix: 0xfd (valid) 0x7ea-0x7ea.7 (1)
0x7e0|                                 13            |           .    |                    f32x4.splat: 19 (valid) 0x7eb-0x7eb.7 (1)
     |                                               |                |                  [2]{}: in 0x7ec-0x7ee.7 (3)
0x7e0|                                    fd         |            .   |                    prefix: 0xfd (valid) 0x7ec-0x7ec.7 (1)
0x7e0|                                       f8 01   |             .. |                    i32x4.trunc_sat_f32x4_s: 248 (valid) 0x7ed-0x7ee.7 (2)
     |                                               |                |                  [3]{}: in 0x7ef-0x7ef.7 (1)
0x7e0|                                             0b|               .|                    end: 0xb (valid) 0x7ef-0x7ef.7 (1)
