$ fq -d wasm dv simd_i16x8_arith-1.wasm
    |00 01 02 03 04 05 06 07 08 09 0a 0b 0c 0d 0e 0f|0123456789abcdef|.{}: simd_i16x8_arith-1.wasm (wasm) 0x0-0xd1 (209)
0x00|00 61 73 6d                                    |.asm            |  magic: raw bits (valid) 0x0-0x4 (4)
0x00|            01 00 00 00                        |    ....        |  version: 1 0x4-0x8 (4)
    |                                               |                |  sections[0:4]: 0x8-0xd1 (201)
    |                                               |                |    [0]{}: section 0x8-0x18 (16)
0x00|                        01                     |        .       |      id: "type_section" (1) 0x8-0x9 (1)
0x00|                           0e                  |         .      |      size: 14 (valid) 0x9-0xa (1)
    |                                               |                |      content{}: 0xa-0x18 (14)
    |                                               |                |        ft{}: 0xa-0x18 (14)
0x00|                              02               |          .     |          n: 2 (valid) 0xa-0xb (1)
    |                                               |                |          x[0:2]: 0xb-0x18 (13)
    |                                               |                |            [0]{}: ft 0xb-0x12 (7)
0x00|                                 60            |           `    |              tag: 0x60 (valid) 0xb-0xc (1)
    |                                               |                |              rt1{}: 0xc-0x10 (4)
0x00|                                    03         |            .   |                n: 3 (valid) 0xc-0xd (1)
    |                                               |                |                x[0:3]: 0xd-0x10 (3)
0x00|                                       7b      |             {  |                  [0]: "v128" (0x7b) t 0xd-0xe (1)
0x00|                                          7b   |              { |                  [1]: "v128" (0x7b) t 0xe-0xf (1)
0x00|                                             7b|               {|                  [2]: "v128" (0x7b) t 0xf-0x10 (1)
    |                                               |                |              rt2{}: 0x10-0x12 (2)
0x10|01                                             |.               |                n: 1 (valid) 0x10-0x11 (1)
    |                                               |                |                x[0:1]: 0x11-0x12 (1)
0x10|   7b                                          | {              |                  [0]: "v128" (0x7b) t 0x11-0x12 (1)
    |                                               |                |            [1]{}: ft 0x12-0x18 (6)
0x10|      60                                       |  `             |              tag: 0x60 (valid) 0x12-0x13 (1)
    |                                               |                |              rt1{}: 0x13-0x16 (3)
0x10|         02                                    |   .            |                n: 2 (valid) 0x13-0x14 (1)
    |                                               |                |                x[0:2]: 0x14-0x16 (2)
0x10|            7b                                 |    {           |                  [0]: "v128" (0x7b) t 0x14-0x15 (1)
0x10|               7b                              |     {          |                  [1]: "v128" (0x7b) t 0x15-0x16 (1)
    |                                               |                |              rt2{}: 0x16-0x18 (2)
0x10|                  01                           |      .         |                n: 1 (valid) 0x16-0x17 (1)
    |                                               |                |                x[0:1]: 0x17-0x18 (1)
0x10|                     7b                        |       {        |                  [0]: "v128" (0x7b) t 0x17-0x18 (1)
    |                                               |                |    [1]{}: section 0x18-0x22 (10)
0x10|                        03                     |        .       |      id: "function_section" (3) 0x18-0x19 (1)
0x10|                           08                  |         .      |      size: 8 (valid) 0x19-0x1a (1)
    |                                               |                |      content{}: 0x1a-0x22 (8)
    |                                               |                |        x{}: 0x1a-0x22 (8)
0x10|                              07               |          .     |          n: 7 (valid) 0x1a-0x1b (1)
    |                                               |                |          x[0:7]: 0x1b-0x22 (7)
0x10|                                 00            |           .    |            [0]: 0 x (valid) 0x1b-0x1c (1)
0x10|                                    00         |            .   |            [1]: 0 x (valid) 0x1c-0x1d (1)
0x10|                                       00      |             .  |            [2]: 0 x (valid) 0x1d-0x1e (1)
0x10|                                          00   |              . |            [3]: 0 x (valid) 0x1e-0x1f (1)
0x10|                                             01|               .|            [4]: 1 x (valid) 0x1f-0x20 (1)
0x20|01                                             |.               |            [5]: 1 x (valid) 0x20-0x21 (1)
0x20|   01                                          | .              |            [6]: 1 x (valid) 0x21-0x22 (1)
    |                                               |                |    [2]{}: section 0x22-0x6b (73)
0x20|      07                                       |  .             |      id: "export_section" (7) 0x22-0x23 (1)
0x20|         47                                    |   G            |      size: 71 (valid) 0x23-0x24 (1)
    |                                               |                |      content{}: 0x24-0x6b (71)
    |                                               |                |        ex{}: 0x24-0x6b (71)
0x20|            07                                 |    .           |          n: 7 (valid) 0x24-0x25 (1)
    |                                               |                |          x[0:7]: 0x25-0x6b (70)
    |                                               |                |            [0]{}: ex 0x25-0x2f (10)
    |                                               |                |              nm{}: 0x25-0x2d (8)
0x20|               07                              |     .          |                n: 7 (valid) 0x25-0x26 (1)
0x20|                  61 64 64 2d 73 75 62         |      add-sub   |                b: "add-sub" 0x26-0x2d (7)
    |                                               |                |              d{}: 0x2d-0x2f (2)
0x20|                                       00      |             .  |                tag: "funcidx" (0x0) 0x2d-0x2e (1)
0x20|                                          00   |              . |                x: 0 (valid) 0x2e-0x2f (1)
    |                                               |                |            [1]{}: ex 0x2f-0x39 (10)
    |                                               |                |              nm{}: 0x2f-0x37 (8)
0x20|                                             07|               .|                n: 7 (valid) 0x2f-0x30 (1)
0x30|6d 75 6c 2d 61 64 64                           |mul-add         |                b: "mul-add" 0x30-0x37 (7)
    |                                               |                |              d{}: 0x37-0x39 (2)
0x30|                     00                        |       .        |                tag: "funcidx" (0x0) 0x37-0x38 (1)
0x30|                        01                     |        .       |                x: 1 (valid) 0x38-0x39 (1)
    |                                               |                |            [2]{}: ex 0x39-0x43 (10)
    |                                               |                |              nm{}: 0x39-0x41 (8)
0x30|                           07                  |         .      |                n: 7 (valid) 0x39-0x3a (1)
0x30|                              6d 75 6c 2d 73 75|          mul-su|                b: "mul-sub" 0x3a-0x41 (7)
0x40|62                                             |b               |
    |                                               |                |              d{}: 0x41-0x43 (2)
0x40|   00                                          | .              |                tag: "funcidx" (0x0) 0x41-0x42 (1)
0x40|      02                                       |  .             |                x: 2 (valid) 0x42-0x43 (1)
    |                                               |                |            [3]{}: ex 0x43-0x4d (10)
    |                                               |                |              nm{}: 0x43-0x4b (8)
0x40|         07                                    |   .            |                n: 7 (valid) 0x43-0x44 (1)
0x40|            73 75 62 2d 61 64 64               |    sub-add     |                b: "sub-add" 0x44-0x4b (7)
    |                                               |                |              d{}: 0x4b-0x4d (2)
0x40|                                 00            |           .    |                tag: "funcidx" (0x0) 0x4b-0x4c (1)
0x40|                                    03         |            .   |                x: 3 (valid) 0x4c-0x4d (1)
    |                                               |                |            [4]{}: ex 0x4d-0x57 (10)
    |                                               |                |              nm{}: 0x4d-0x55 (8)
0x40|                                       07      |             .  |                n: 7 (valid) 0x4d-0x4e (1)
0x40|                                          61 64|              ad|                b: "add-neg" 0x4e-0x55 (7)
0x50|64 2d 6e 65 67                                 |d-neg           |
    |                                               |                |              d{}: 0x55-0x57 (2)
0x50|               00                              |     .          |                tag: "funcidx" (0x0) 0x55-0x56 (1)
0x50|                  04                           |      .         |                x: 4 (valid) 0x56-0x57 (1)
    |                                               |                |            [5]{}: ex 0x57-0x61 (10)
    |                                               |                |              nm{}: 0x57-0x5f (8)
0x50|                     07                        |       .        |                n: 7 (valid) 0x57-0x58 (1)
0x50|                        6d 75 6c 2d 6e 65 67   |        mul-neg |                b: "mul-neg" 0x58-0x5f (7)
    |                                               |                |              d{}: 0x5f-0x61 (2)
0x50|                                             00|               .|                tag: "funcidx" (0x0) 0x5f-0x60 (1)
0x60|05                                             |.               |                x: 5 (valid) 0x60-0x61 (1)
    |                                               |                |            [6]{}: ex 0x61-0x6b (10)
    |                                               |                |              nm{}: 0x61-0x69 (8)
0x60|   07                                          | .              |                n: 7 (valid) 0x61-0x62 (1)
0x60|      73 75 62 2d 6e 65 67                     |  sub-neg       |                b: "sub-neg" 0x62-0x69 (7)
    |                                               |                |              d{}: 0x69-0x6b (2)
0x60|                           00                  |         .      |                tag: "funcidx" (0x0) 0x69-0x6a (1)
0x60|                              06               |          .     |                x: 6 (valid) 0x6a-0x6b (1)
    |                                               |                |    [3]{}: section 0x6b-0xd1 (102)
0x60|                                 0a            |           .    |      id: "code_section" (10) 0x6b-0x6c (1)
0x60|                                    64         |            d   |      size: 100 (valid) 0x6c-0x6d (1)
    |                                               |                |      content{}: 0x6d-0xd1 (100)
    |                                               |                |        code{}: 0x6d-0xd1 (100)
0x60|                                       07      |             .  |          n: 7 (valid) 0x6d-0x6e (1)
    |                                               |                |          x[0:7]: 0x6e-0xd1 (99)
    |                                               |                |            [0]{}: code 0x6e-0x7d (15)
0x60|                                          0e   |              . |              size: 14 (valid) 0x6e-0x6f (1)
    |                                               |                |              code{}: 0x6f-0x7d (14)
    |                                               |                |                t{}: 0x6f-0x70 (1)
0x60|                                             00|               .|                  n: 0 (valid) 0x6f-0x70 (1)
    |                                               |                |                  x[0:0]: 0x70-0x70 (0)
    |                                               |                |                e[0:6]: 0x70-0x7d (13)
    |                                               |                |                  [0]{}: in 0x70-0x72 (2)
0x70|20                                             |                |                    opcode: "local.get" (0x20) 0x70-0x71 (1)
0x70|   00                                          | .              |                    x: 0 (valid) 0x71-0x72 (1)
    |                                               |                |                  [1]{}: in 0x72-0x74 (2)
0x70|      20                                       |                |                    opcode: "local.get" (0x20) 0x72-0x73 (1)
0x70|         01                                    |   .            |                    x: 1 (valid) 0x73-0x74 (1)
    |                                               |                |                  [2]{}: in 0x74-0x77 (3)
0x70|            fd                                 |    .           |                    opcode: "vector" (0xfd) 0x74-0x75 (1)
0x70|               91 01                           |     ..         |                    v_opcode: "i16x8.sub" (145) 0x75-0x77 (2)
    |                                               |                |                  [3]{}: in 0x77-0x79 (2)
0x70|                     20                        |                |                    opcode: "local.get" (0x20) 0x77-0x78 (1)
0x70|                        02                     |        .       |                    x: 2 (valid) 0x78-0x79 (1)
    |                                               |                |                  [4]{}: in 0x79-0x7c (3)
0x70|                           fd                  |         .      |                    opcode: "vector" (0xfd) 0x79-0x7a (1)
0x70|                              8e 01            |          ..    |                    v_opcode: "i16x8.add" (142) 0x7a-0x7c (2)
    |                                               |                |                  [5]{}: in 0x7c-0x7d (1)
0x70|                                    0b         |            .   |                    opcode: "end" (0xb) 0x7c-0x7d (1)
    |                                               |                |            [1]{}: code 0x7d-0x8c (15)
0x70|                                       0e      |             .  |              size: 14 (valid) 0x7d-0x7e (1)
    |                                               |                |              code{}: 0x7e-0x8c (14)
    |                                               |                |                t{}: 0x7e-0x7f (1)
0x70|                                          00   |              . |                  n: 0 (valid) 0x7e-0x7f (1)
    |                                               |                |                  x[0:0]: 0x7f-0x7f (0)
    |                                               |                |                e[0:6]: 0x7f-0x8c (13)
    |                                               |                |                  [0]{}: in 0x7f-0x81 (2)
0x70|                                             20|                |                    opcode: "local.get" (0x20) 0x7f-0x80 (1)
0x80|00                                             |.               |                    x: 0 (valid) 0x80-0x81 (1)
    |                                               |                |                  [1]{}: in 0x81-0x83 (2)
0x80|   20                                          |                |                    opcode: "local.get" (0x20) 0x81-0x82 (1)
0x80|      01                                       |  .             |                    x: 1 (valid) 0x82-0x83 (1)
    |                                               |                |                  [2]{}: in 0x83-0x86 (3)
0x80|         fd                                    |   .            |                    opcode: "vector" (0xfd) 0x83-0x84 (1)
0x80|            8e 01                              |    ..          |                    v_opcode: "i16x8.add" (142) 0x84-0x86 (2)
    |                                               |                |                  [3]{}: in 0x86-0x88 (2)
0x80|                  20                           |                |                    opcode: "local.get" (0x20) 0x86-0x87 (1)
0x80|                     02                        |       .        |                    x: 2 (valid) 0x87-0x88 (1)
    |                                               |                |                  [4]{}: in 0x88-0x8b (3)
0x80|                        fd                     |        .       |                    opcode: "vector" (0xfd) 0x88-0x89 (1)
0x80|                           95 01               |         ..     |                    v_opcode: "i16x8.mul" (149) 0x89-0x8b (2)
    |                                               |                |                  [5]{}: in 0x8b-0x8c (1)
0x80|                                 0b            |           .    |                    opcode: "end" (0xb) 0x8b-0x8c (1)
    |                                               |                |            [2]{}: code 0x8c-0x9b (15)
0x80|                                    0e         |            .   |              size: 14 (valid) 0x8c-0x8d (1)
    |                                               |                |              code{}: 0x8d-0x9b (14)
    |                                               |                |                t{}: 0x8d-0x8e (1)
0x80|                                       00      |             .  |                  n: 0 (valid) 0x8d-0x8e (1)
    |                                               |                |                  x[0:0]: 0x8e-0x8e (0)
    |                                               |                |                e[0:6]: 0x8e-0x9b (13)
    |                                               |                |                  [0]{}: in 0x8e-0x90 (2)
0x80|                                          20   |                |                    opcode: "local.get" (0x20) 0x8e-0x8f (1)
0x80|                                             00|               .|                    x: 0 (valid) 0x8f-0x90 (1)
    |                                               |                |                  [1]{}: in 0x90-0x92 (2)
0x90|20                                             |                |                    opcode: "local.get" (0x20) 0x90-0x91 (1)
0x90|   01                                          | .              |                    x: 1 (valid) 0x91-0x92 (1)
    |                                               |                |                  [2]{}: in 0x92-0x95 (3)
0x90|      fd                                       |  .             |                    opcode: "vector" (0xfd) 0x92-0x93 (1)
0x90|         91 01                                 |   ..           |                    v_opcode: "i16x8.sub" (145) 0x93-0x95 (2)
    |                                               |                |                  [3]{}: in 0x95-0x97 (2)
0x90|               20                              |                |                    opcode: "local.get" (0x20) 0x95-0x96 (1)
0x90|                  02                           |      .         |                    x: 2 (valid) 0x96-0x97 (1)
    |                                               |                |                  [4]{}: in 0x97-0x9a (3)
0x90|                     fd                        |       .        |                    opcode: "vector" (0xfd) 0x97-0x98 (1)
0x90|                        95 01                  |        ..      |                    v_opcode: "i16x8.mul" (149) 0x98-0x9a (2)
    |                                               |                |                  [5]{}: in 0x9a-0x9b (1)
0x90|                              0b               |          .     |                    opcode: "end" (0xb) 0x9a-0x9b (1)
    |                                               |                |            [3]{}: code 0x9b-0xaa (15)
0x90|                                 0e            |           .    |              size: 14 (valid) 0x9b-0x9c (1)
    |                                               |                |              code{}: 0x9c-0xaa (14)
    |                                               |                |                t{}: 0x9c-0x9d (1)
0x90|                                    00         |            .   |                  n: 0 (valid) 0x9c-0x9d (1)
    |                                               |                |                  x[0:0]: 0x9d-0x9d (0)
    |                                               |                |                e[0:6]: 0x9d-0xaa (13)
    |                                               |                |                  [0]{}: in 0x9d-0x9f (2)
0x90|                                       20      |                |                    opcode: "local.get" (0x20) 0x9d-0x9e (1)
0x90|                                          00   |              . |                    x: 0 (valid) 0x9e-0x9f (1)
    |                                               |                |                  [1]{}: in 0x9f-0xa1 (2)
0x90|                                             20|                |                    opcode: "local.get" (0x20) 0x9f-0xa0 (1)
0xa0|01                                             |.               |                    x: 1 (valid) 0xa0-0xa1 (1)
    |                                               |                |                  [2]{}: in 0xa1-0xa4 (3)
0xa0|   fd                                          | .              |                    opcode: "vector" (0xfd) 0xa1-0xa2 (1)
0xa0|      8e 01                                    |  ..            |                    v_opcode: "i16x8.add" (142) 0xa2-0xa4 (2)
    |                                               |                |                  [3]{}: in 0xa4-0xa6 (2)
0xa0|            20                                 |                |                    opcode: "local.get" (0x20) 0xa4-0xa5 (1)
0xa0|               02                              |     .          |                    x: 2 (valid) 0xa5-0xa6 (1)
    |                                               |                |                  [4]{}: in 0xa6-0xa9 (3)
0xa0|                  fd                           |      .         |                    opcode: "vector" (0xfd) 0xa6-0xa7 (1)
0xa0|                     91 01                     |       ..       |                    v_opcode: "i16x8.sub" (145) 0xa7-0xa9 (2)
    |                                               |                |                  [5]{}: in 0xa9-0xaa (1)
0xa0|                           0b                  |         .      |                    opcode: "end" (0xb) 0xa9-0xaa (1)
    |                                               |                |            [4]{}: code 0xaa-0xb7 (13)
0xa0|                              0c               |          .     |              size: 12 (valid) 0xaa-0xab (1)
    |                                               |                |              code{}: 0xab-0xb7 (12)
    |                                               |                |                t{}: 0xab-0xac (1)
0xa0|                                 00            |           .    |                  n: 0 (valid) 0xab-0xac (1)
    |                                               |                |                  x[0:0]: 0xac-0xac (0)
    |                                               |                |                e[0:5]: 0xac-0xb7 (11)
    |                                               |                |                  [0]{}: in 0xac-0xae (2)
0xa0|                                    20         |                |                    opcode: "local.get" (0x20) 0xac-0xad (1)
0xa0|                                       00      |             .  |                    x: 0 (valid) 0xad-0xae (1)
    |                                               |                |                  [1]{}: in 0xae-0xb1 (3)
0xa0|                                          fd   |              . |                    opcode: "vector" (0xfd) 0xae-0xaf (1)
0xa0|                                             81|               .|                    v_opcode: "i16x8.neg" (129) 0xaf-0xb1 (2)
0xb0|01                                             |.               |
    |                                               |                |                  [2]{}: in 0xb1-0xb3 (2)
0xb0|   20                                          |                |                    opcode: "local.get" (0x20) 0xb1-0xb2 (1)
0xb0|      01                                       |  .             |                    x: 1 (valid) 0xb2-0xb3 (1)
    |                                               |                |                  [3]{}: in 0xb3-0xb6 (3)
0xb0|         fd                                    |   .            |                    opcode: "vector" (0xfd) 0xb3-0xb4 (1)
0xb0|            8e 01                              |    ..          |                    v_opcode: "i16x8.add" (142) 0xb4-0xb6 (2)
    |                                               |                |                  [4]{}: in 0xb6-0xb7 (1)
0xb0|                  0b                           |      .         |                    opcode: "end" (0xb) 0xb6-0xb7 (1)
    |                                               |                |            [5]{}: code 0xb7-0xc4 (13)
0xb0|                     0c                        |       .        |              size: 12 (valid) 0xb7-0xb8 (1)
    |                                               |                |              code{}: 0xb8-0xc4 (12)
    |                                               |                |                t{}: 0xb8-0xb9 (1)
0xb0|                        00                     |        .       |                  n: 0 (valid) 0xb8-0xb9 (1)
    |                                               |                |                  x[0:0]: 0xb9-0xb9 (0)
    |                                               |                |                e[0:5]: 0xb9-0xc4 (11)
    |                                               |                |                  [0]{}: in 0xb9-0xbb (2)
0xb0|                           20                  |                |                    opcode: "local.get" (0x20) 0xb9-0xba (1)
0xb0|                              00               |          .     |                    x: 0 (valid) 0xba-0xbb (1)
    |                                               |                |                  [1]{}: in 0xbb-0xbe (3)
0xb0|                                 fd            |           .    |                    opcode: "vector" (0xfd) 0xbb-0xbc (1)
0xb0|                                    81 01      |            ..  |                    v_opcode: "i16x8.neg" (129) 0xbc-0xbe (2)
    |                                               |                |                  [2]{}: in 0xbe-0xc0 (2)
0xb0|                                          20   |                |                    opcode: "local.get" (0x20) 0xbe-0xbf (1)
0xb0|                                             01|               .|                    x: 1 (valid) 0xbf-0xc0 (1)
    |                                               |                |                  [3]{}: in 0xc0-0xc3 (3)
0xc0|fd                                             |.               |                    opcode: "vector" (0xfd) 0xc0-0xc1 (1)
0xc0|   95 01                                       | ..             |                    v_opcode: "i16x8.mul" (149) 0xc1-0xc3 (2)
    |                                               |                |                  [4]{}: in 0xc3-0xc4 (1)
0xc0|         0b                                    |   .            |                    opcode: "end" (0xb) 0xc3-0xc4 (1)
    |                                               |                |            [6]{}: code 0xc4-0xd1 (13)
0xc0|            0c                                 |    .           |              size: 12 (valid) 0xc4-0xc5 (1)
    |                                               |                |              code{}: 0xc5-0xd1 (12)
    |                                               |                |                t{}: 0xc5-0xc6 (1)
0xc0|               00                              |     .          |                  n: 0 (valid) 0xc5-0xc6 (1)
    |                                               |                |                  x[0:0]: 0xc6-0xc6 (0)
    |                                               |                |                e[0:5]: 0xc6-0xd1 (11)
    |                                               |                |                  [0]{}: in 0xc6-0xc8 (2)
0xc0|                  20                           |                |                    opcode: "local.get" (0x20) 0xc6-0xc7 (1)
0xc0|                     00                        |       .        |                    x: 0 (valid) 0xc7-0xc8 (1)
    |                                               |                |                  [1]{}: in 0xc8-0xcb (3)
0xc0|                        fd                     |        .       |                    opcode: "vector" (0xfd) 0xc8-0xc9 (1)
0xc0|                           81 01               |         ..     |                    v_opcode: "i16x8.neg" (129) 0xc9-0xcb (2)
    |                                               |                |                  [2]{}: in 0xcb-0xcd (2)
0xc0|                                 20            |                |                    opcode: "local.get" (0x20) 0xcb-0xcc (1)
0xc0|                                    01         |            .   |                    x: 1 (valid) 0xcc-0xcd (1)
    |                                               |                |                  [3]{}: in 0xcd-0xd0 (3)
0xc0|                                       fd      |             .  |                    opcode: "vector" (0xfd) 0xcd-0xce (1)
0xc0|                                          91 01|              ..|                    v_opcode: "i16x8.sub" (145) 0xce-0xd0 (2)
    |                                               |                |                  [4]{}: in 0xd0-0xd1 (1)
0xd0|0b|                                            |.|              |                    opcode: "end" (0xb) 0xd0-0xd1 (1)
