$ fq -d wasm dv simd_i32x4_dot_i16x8-0.wasm
    |00 01 02 03 04 05 06 07 08 09 0a 0b 0c 0d 0e 0f|0123456789abcdef|.{}: simd_i32x4_dot_i16x8-0.wasm (wasm) 0x0-0x39 (57)
0x00|00 61 73 6d                                    |.asm            |  magic: raw bits (valid) 0x0-0x4 (4)
0x00|            01 00 00 00                        |    ....        |  version: 1 0x4-0x8 (4)
    |                                               |                |  sections[0:4]: 0x8-0x39 (49)
    |                                               |                |    [0]{}: section 0x8-0x11 (9)
0x00|                        01                     |        .       |      id: "type_section" (1) 0x8-0x9 (1)
0x00|                           07                  |         .      |      size: 7 (valid) 0x9-0xa (1)
    |                                               |                |      content{}: 0xa-0x11 (7)
    |                                               |                |        ft{}: 0xa-0x11 (7)
0x00|                              01               |          .     |          n: 1 (valid) 0xa-0xb (1)
    |                                               |                |          x[0:1]: 0xb-0x11 (6)
    |                                               |                |            [0]{}: ft 0xb-0x11 (6)
0x00|                                 60            |           `    |              tag: 0x60 (valid) 0xb-0xc (1)
    |                                               |                |              rt1{}: 0xc-0xf (3)
0x00|                                    02         |            .   |                n: 2 (valid) 0xc-0xd (1)
    |                                               |                |                x[0:2]: 0xd-0xf (2)
0x00|                                       7b      |             {  |                  [0]: "v128" (0x7b) t 0xd-0xe (1)
0x00|                                          7b   |              { |                  [1]: "v128" (0x7b) t 0xe-0xf (1)
    |                                               |                |              rt2{}: 0xf-0x11 (2)
0x00|                                             01|               .|                n: 1 (valid) 0xf-0x10 (1)
    |                                               |                |                x[0:1]: 0x10-0x11 (1)
0x10|7b                                             |{               |                  [0]: "v128" (0x7b) t 0x10-0x11 (1)
    |                                               |                |    [1]{}: section 0x11-0x15 (4)
0x10|   03                                          | .              |      id: "function_section" (3) 0x11-0x12 (1)
0x10|      02                                       |  .             |      size: 2 (valid) 0x12-0x13 (1)
    |                                               |                |      content{}: 0x13-0x15 (2)
    |                                               |                |        x{}: 0x13-0x15 (2)
0x10|         01                                    |   .            |          n: 1 (valid) 0x13-0x14 (1)
    |                                               |                |          x[0:1]: 0x14-0x15 (1)
0x10|            00                                 |    .           |            [0]: 0 x (valid) 0x14-0x15 (1)
    |                                               |                |    [2]{}: section 0x15-0x2c (23)
0x10|               07                              |     .          |      id: "export_section" (7) 0x15-0x16 (1)
0x10|                  15                           |      .         |      size: 21 (valid) 0x16-0x17 (1)
    |                                               |                |      content{}: 0x17-0x2c (21)
    |                                               |                |        ex{}: 0x17-0x2c (21)
0x10|                     01                        |       .        |          n: 1 (valid) 0x17-0x18 (1)
    |                                               |                |          x[0:1]: 0x18-0x2c (20)
    |                                               |                |            [0]{}: ex 0x18-0x2c (20)
    |                                               |                |              nm{}: 0x18-0x2a (18)
0x10|                        11                     |        .       |                n: 17 (valid) 0x18-0x19 (1)
0x10|                           69 33 32 78 34 2e 64|         i32x4.d|                b: "i32x4.dot_i16x8_s" 0x19-0x2a (17)
0x20|6f 74 5f 69 31 36 78 38 5f 73                  |ot_i16x8_s      |
    |                                               |                |              d{}: 0x2a-0x2c (2)
0x20|                              00               |          .     |                tag: "funcidx" (0x0) 0x2a-0x2b (1)
0x20|                                 00            |           .    |                x: 0 (valid) 0x2b-0x2c (1)
    |                                               |                |    [3]{}: section 0x2c-0x39 (13)
0x20|                                    0a         |            .   |      id: "code_section" (10) 0x2c-0x2d (1)
0x20|                                       0b      |             .  |      size: 11 (valid) 0x2d-0x2e (1)
    |                                               |                |      content{}: 0x2e-0x39 (11)
    |                                               |                |        code{}: 0x2e-0x39 (11)
0x20|                                          01   |              . |          n: 1 (valid) 0x2e-0x2f (1)
    |                                               |                |          x[0:1]: 0x2f-0x39 (10)
    |                                               |                |            [0]{}: code 0x2f-0x39 (10)
0x20|                                             09|               .|              size: 9 (valid) 0x2f-0x30 (1)
    |                                               |                |              code{}: 0x30-0x39 (9)
    |                                               |                |                t{}: 0x30-0x31 (1)
0x30|00                                             |.               |                  n: 0 (valid) 0x30-0x31 (1)
    |                                               |                |                  x[0:0]: 0x31-0x31 (0)
    |                                               |                |                e[0:4]: 0x31-0x39 (8)
    |                                               |                |                  [0]{}: in 0x31-0x33 (2)
0x30|   20                                          |                |                    opcode: "local.get" (0x20) 0x31-0x32 (1)
0x30|      00                                       |  .             |                    x: 0 (valid) 0x32-0x33 (1)
    |                                               |                |                  [1]{}: in 0x33-0x35 (2)
0x30|         20                                    |                |                    opcode: "local.get" (0x20) 0x33-0x34 (1)
0x30|            01                                 |    .           |                    x: 1 (valid) 0x34-0x35 (1)
    |                                               |                |                  [2]{}: in 0x35-0x38 (3)
0x30|               fd                              |     .          |                    opcode: "vector" (0xfd) 0x35-0x36 (1)
0x30|                  ba 01                        |      ..        |                    v_opcode: "i32x4.dot_i16x8_s" (186) 0x36-0x38 (2)
    |                                               |                |                  [3]{}: in 0x38-0x39 (1)
0x30|                        0b|                    |        .|      |                    opcode: "end" (0xb) 0x38-0x39 (1)
