$ fq -d wasm dv simd_load-2.wasm
    |00 01 02 03 04 05 06 07 08 09 0a 0b 0c 0d 0e 0f|0123456789abcdef|.{}: simd_load-2.wasm (wasm) 0x0-0x61 (97)
0x00|00 61 73 6d                                    |.asm            |  magic: raw bits (valid) 0x0-0x4 (4)
0x00|            01 00 00 00                        |    ....        |  version: 1 0x4-0x8 (4)
    |                                               |                |  sections[0:6]: 0x8-0x61 (89)
    |                                               |                |    [0]{}: section 0x8-0xf (7)
0x00|                        01                     |        .       |      id: "type_section" (1) 0x8-0x9 (1)
0x00|                           05                  |         .      |      size: 5 (valid) 0x9-0xa (1)
    |                                               |                |      content{}: 0xa-0xf (5)
    |                                               |                |        ft{}: 0xa-0xf (5)
0x00|                              01               |          .     |          n: 1 (valid) 0xa-0xb (1)
    |                                               |                |          x[0:1]: 0xb-0xf (4)
    |                                               |                |            [0]{}: ft 0xb-0xf (4)
0x00|                                 60            |           `    |              tag: 0x60 (valid) 0xb-0xc (1)
    |                                               |                |              rt1{}: 0xc-0xd (1)
0x00|                                    00         |            .   |                n: 0 (valid) 0xc-0xd (1)
    |                                               |                |                x[0:0]: 0xd-0xd (0)
    |                                               |                |              rt2{}: 0xd-0xf (2)
0x00|                                       01      |             .  |                n: 1 (valid) 0xd-0xe (1)
    |                                               |                |                x[0:1]: 0xe-0xf (1)
0x00|                                          7b   |              { |                  [0]: "v128" (0x7b) t 0xe-0xf (1)
    |                                               |                |    [1]{}: section 0xf-0x13 (4)
0x00|                                             03|               .|      id: "function_section" (3) 0xf-0x10 (1)
0x10|02                                             |.               |      size: 2 (valid) 0x10-0x11 (1)
    |                                               |                |      content{}: 0x11-0x13 (2)
    |                                               |                |        x{}: 0x11-0x13 (2)
0x10|   01                                          | .              |          n: 1 (valid) 0x11-0x12 (1)
    |                                               |                |          x[0:1]: 0x12-0x13 (1)
0x10|      00                                       |  .             |            [0]: 0 x (valid) 0x12-0x13 (1)
    |                                               |                |    [2]{}: section 0x13-0x18 (5)
0x10|         05                                    |   .            |      id: "memory_section" (5) 0x13-0x14 (1)
0x10|            03                                 |    .           |      size: 3 (valid) 0x14-0x15 (1)
    |                                               |                |      content{}: 0x15-0x18 (3)
    |                                               |                |        mem{}: 0x15-0x18 (3)
0x10|               01                              |     .          |          n: 1 (valid) 0x15-0x16 (1)
    |                                               |                |          x[0:1]: 0x16-0x18 (2)
    |                                               |                |            [0]{}: mem 0x16-0x18 (2)
    |                                               |                |              lim{}: 0x16-0x18 (2)
0x10|                  00                           |      .         |                tag: 0x0 0x16-0x17 (1)
0x10|                     01                        |       .        |                n: 1 (valid) 0x17-0x18 (1)
    |                                               |                |    [3]{}: section 0x18-0x31 (25)
0x10|                        07                     |        .       |      id: "export_section" (7) 0x18-0x19 (1)
0x10|                           17                  |         .      |      size: 23 (valid) 0x19-0x1a (1)
    |                                               |                |      content{}: 0x1a-0x31 (23)
    |                                               |                |        ex{}: 0x1a-0x31 (23)
0x10|                              01               |          .     |          n: 1 (valid) 0x1a-0x1b (1)
    |                                               |                |          x[0:1]: 0x1b-0x31 (22)
    |                                               |                |            [0]{}: ex 0x1b-0x31 (22)
    |                                               |                |              nm{}: 0x1b-0x2f (20)
0x10|                                 13            |           .    |                n: 19 (valid) 0x1b-0x1c (1)
0x10|                                    61 73 2d 69|            as-i|                b: "as-i8x16.eq-operand" 0x1c-0x2f (19)
0x20|38 78 31 36 2e 65 71 2d 6f 70 65 72 61 6e 64   |8x16.eq-operand |
    |                                               |                |              d{}: 0x2f-0x31 (2)
0x20|                                             00|               .|                tag: "funcidx" (0x0) 0x2f-0x30 (1)
0x30|00                                             |.               |                x: 0 (valid) 0x30-0x31 (1)
    |                                               |                |    [4]{}: section 0x31-0x45 (20)
0x30|   0a                                          | .              |      id: "code_section" (10) 0x31-0x32 (1)
0x30|      12                                       |  .             |      size: 18 (valid) 0x32-0x33 (1)
    |                                               |                |      content{}: 0x33-0x45 (18)
    |                                               |                |        code{}: 0x33-0x45 (18)
0x30|         01                                    |   .            |          n: 1 (valid) 0x33-0x34 (1)
    |                                               |                |          x[0:1]: 0x34-0x45 (17)
    |                                               |                |            [0]{}: code 0x34-0x45 (17)
0x30|            10                                 |    .           |              size: 16 (valid) 0x34-0x35 (1)
    |                                               |                |              code{}: 0x35-0x45 (16)
    |                                               |                |                t{}: 0x35-0x36 (1)
0x30|               00                              |     .          |                  n: 0 (valid) 0x35-0x36 (1)
    |                                               |                |                  x[0:0]: 0x36-0x36 (0)
    |                                               |                |                e[0:6]: 0x36-0x45 (15)
    |                                               |                |                  [0]{}: in 0x36-0x38 (2)
0x30|                  41                           |      A         |                    opcode: "i32.const" (0x41) 0x36-0x37 (1)
0x30|                     00                        |       .        |                    n: 0 (valid) 0x37-0x38 (1)
    |                                               |                |                  [1]{}: in 0x38-0x3c (4)
0x30|                        fd                     |        .       |                    opcode: "vector" (0xfd) 0x38-0x39 (1)
0x30|                           00                  |         .      |                    v_opcode: "v128.load" (0) 0x39-0x3a (1)
    |                                               |                |                    m{}: 0x3a-0x3c (2)
0x30|                              04               |          .     |                      a: 4 (valid) 0x3a-0x3b (1)
0x30|                                 00            |           .    |                      o: 0 (valid) 0x3b-0x3c (1)
    |                                               |                |                  [2]{}: in 0x3c-0x3e (2)
0x30|                                    41         |            A   |                    opcode: "i32.const" (0x41) 0x3c-0x3d (1)
0x30|                                       00      |             .  |                    n: 0 (valid) 0x3d-0x3e (1)
    |                                               |                |                  [3]{}: in 0x3e-0x42 (4)
0x30|                                          fd   |              . |                    opcode: "vector" (0xfd) 0x3e-0x3f (1)
0x30|                                             00|               .|                    v_opcode: "v128.load" (0) 0x3f-0x40 (1)
    |                                               |                |                    m{}: 0x40-0x42 (2)
0x40|04                                             |.               |                      a: 4 (valid) 0x40-0x41 (1)
0x40|   10                                          | .              |                      o: 16 (valid) 0x41-0x42 (1)
    |                                               |                |                  [4]{}: in 0x42-0x44 (2)
0x40|      fd                                       |  .             |                    opcode: "vector" (0xfd) 0x42-0x43 (1)
0x40|         23                                    |   #            |                    v_opcode: "i8x16.eq" (35) 0x43-0x44 (1)
    |                                               |                |                  [5]{}: in 0x44-0x45 (1)
0x40|            0b                                 |    .           |                    opcode: "end" (0xb) 0x44-0x45 (1)
    |                                               |                |    [5]{}: section 0x45-0x61 (28)
0x40|               0b                              |     .          |      id: "data_section" (11) 0x45-0x46 (1)
0x40|                  1a                           |      .         |      size: 26 (valid) 0x46-0x47 (1)
    |                                               |                |      content{}: 0x47-0x61 (26)
    |                                               |                |        seg{}: 0x47-0x61 (26)
0x40|                     01                        |       .        |          n: 1 (valid) 0x47-0x48 (1)
    |                                               |                |          x[0:1]: 0x48-0x61 (25)
    |                                               |                |            [0]{}: seg 0x48-0x61 (25)
0x40|                        00                     |        .       |              tag: 0 (valid) 0x48-0x49 (1)
    |                                               |                |              e[0:2]: 0x49-0x4c (3)
    |                                               |                |                [0]{}: in 0x49-0x4b (2)
0x40|                           41                  |         A      |                  opcode: "i32.const" (0x41) 0x49-0x4a (1)
0x40|                              00               |          .     |                  n: 0 (valid) 0x4a-0x4b (1)
    |                                               |                |                [1]{}: in 0x4b-0x4c (1)
0x40|                                 0b            |           .    |                  opcode: "end" (0xb) 0x4b-0x4c (1)
    |                                               |                |              b{}: 0x4c-0x61 (21)
0x40|                                    14         |            .   |                n: 20 (valid) 0x4c-0x4d (1)
0x40|                                       00 01 02|             ...|                x: raw bits 0x4d-0x61 (20)
0x50|03 04 05 06 07 08 09 0a 0b 0c 0d 0e 0f 00 01 02|................|
0x60|03|                                            |.|              |
