$ fq -d wasm dv simd_int_to_int_extend-0.wasm
     |00 01 02 03 04 05 06 07 08 09 0a 0b 0c 0d 0e 0f|0123456789abcdef|.{}: simd_int_to_int_extend-0.wasm (wasm) 0x0-0x1d0 (464)
0x000|00 61 73 6d                                    |.asm            |  magic: raw bits (valid) 0x0-0x4 (4)
0x000|            01 00 00 00                        |    ....        |  version: 1 0x4-0x8 (4)
     |                                               |                |  sections[0:4]: 0x8-0x1d0 (456)
     |                                               |                |    [0]{}: section 0x8-0x10 (8)
0x000|                        01                     |        .       |      id: "type_section" (1) 0x8-0x9 (1)
0x000|                           06                  |         .      |      size: 6 (valid) 0x9-0xa (1)
     |                                               |                |      content{}: 0xa-0x10 (6)
     |                                               |                |        ft{}: 0xa-0x10 (6)
0x000|                              01               |          .     |          n: 1 (valid) 0xa-0xb (1)
     |                                               |                |          x[0:1]: 0xb-0x10 (5)
     |                                               |                |            [0]{}: ft 0xb-0x10 (5)
0x000|                                 60            |           `    |              tag: 0x60 (valid) 0xb-0xc (1)
     |                                               |                |              rt1{}: 0xc-0xe (2)
0x000|                                    01         |            .   |                n: 1 (valid) 0xc-0xd (1)
     |                                               |                |                x[0:1]: 0xd-0xe (1)
0x000|                                       7b      |             {  |                  [0]: "v128" (0x7b) t 0xd-0xe (1)
     |                                               |                |              rt2{}: 0xe-0x10 (2)
0x000|                                          01   |              . |                n: 1 (valid) 0xe-0xf (1)
     |                                               |                |                x[0:1]: 0xf-0x10 (1)
0x000|                                             7b|               {|                  [0]: "v128" (0x7b) t 0xf-0x10 (1)
     |                                               |                |    [1]{}: section 0x10-0x1f (15)
0x010|03                                             |.               |      id: "function_section" (3) 0x10-0x11 (1)
0x010|   0d                                          | .              |      size: 13 (valid) 0x11-0x12 (1)
     |                                               |                |      content{}: 0x12-0x1f (13)
     |                                               |                |        x{}: 0x12-0x1f (13)
0x010|      0c                                       |  .             |          n: 12 (valid) 0x12-0x13 (1)
     |                                               |                |          x[0:12]: 0x13-0x1f (12)
0x010|         00                                    |   .            |            [0]: 0 x (valid) 0x13-0x14 (1)
0x010|            00                                 |    .           |            [1]: 0 x (valid) 0x14-0x15 (1)
0x010|               00                              |     .          |            [2]: 0 x (valid) 0x15-0x16 (1)
0x010|                  00                           |      .         |            [3]: 0 x (valid) 0x16-0x17 (1)
0x010|                     00                        |       .        |            [4]: 0 x (valid) 0x17-0x18 (1)
0x010|                        00                     |        .       |            [5]: 0 x (valid) 0x18-0x19 (1)
0x010|                           00                  |         .      |            [6]: 0 x (valid) 0x19-0x1a (1)
0x010|                              00               |          .     |            [7]: 0 x (valid) 0x1a-0x1b (1)
0x010|                                 00            |           .    |            [8]: 0 x (valid) 0x1b-0x1c (1)
0x010|                                    00         |            .   |            [9]: 0 x (valid) 0x1c-0x1d (1)
0x010|                                       00      |             .  |            [10]: 0 x (valid) 0x1d-0x1e (1)
0x010|                                          00   |              . |            [11]: 0 x (valid) 0x1e-0x1f (1)
     |                                               |                |    [2]{}: section 0x1f-0x16d (334)
0x010|                                             07|               .|      id: "export_section" (7) 0x1f-0x20 (1)
0x020|cb 02                                          |..              |      size: 331 (valid) 0x20-0x22 (2)
     |                                               |                |      content{}: 0x22-0x16d (331)
     |                                               |                |        ex{}: 0x22-0x16d (331)
0x020|      0c                                       |  .             |          n: 12 (valid) 0x22-0x23 (1)
     |                                               |                |          x[0:12]: 0x23-0x16d (330)
     |                                               |                |            [0]{}: ex 0x23-0x3f (28)
     |                                               |                |              nm{}: 0x23-0x3d (26)
0x020|         19                                    |   .            |                n: 25 (valid) 0x23-0x24 (1)
0x020|            69 31 36 78 38 2e 65 78 74 65 6e 64|    i16x8.extend|                b: "i16x8.extend_high_i8x16_s" 0x24-0x3d (25)
0x030|5f 68 69 67 68 5f 69 38 78 31 36 5f 73         |_high_i8x16_s   |
     |                                               |                |              d{}: 0x3d-0x3f (2)
0x030|                                       00      |             .  |                tag: "funcidx" (0x0) 0x3d-0x3e (1)
0x030|                                          00   |              . |                x: 0 (valid) 0x3e-0x3f (1)
     |                                               |                |            [1]{}: ex 0x3f-0x5b (28)
     |                                               |                |              nm{}: 0x3f-0x59 (26)
0x030|                                             19|               .|                n: 25 (valid) 0x3f-0x40 (1)
0x040|69 31 36 78 38 2e 65 78 74 65 6e 64 5f 68 69 67|i16x8.extend_hig|                b: "i16x8.extend_high_i8x16_u" 0x40-0x59 (25)
0x050|68 5f 69 38 78 31 36 5f 75                     |h_i8x16_u       |
     |                                               |                |              d{}: 0x59-0x5b (2)
0x050|                           00                  |         .      |                tag: "funcidx" (0x0) 0x59-0x5a (1)
0x050|                              01               |          .     |                x: 1 (valid) 0x5a-0x5b (1)
     |                                               |                |            [2]{}: ex 0x5b-0x76 (27)
     |                                               |                |              nm{}: 0x5b-0x74 (25)
0x050|                                 18            |           .    |                n: 24 (valid) 0x5b-0x5c (1)
0x050|                                    69 31 36 78|            i16x|                b: "i16x8.extend_low_i8x16_s" 0x5c-0x74 (24)
0x060|38 2e 65 78 74 65 6e 64 5f 6c 6f 77 5f 69 38 78|8.extend_low_i8x|
0x070|31 36 5f 73                                    |16_s            |
     |                                               |                |              d{}: 0x74-0x76 (2)
0x070|            00                                 |    .           |                tag: "funcidx" (0x0) 0x74-0x75 (1)
0x070|               02                              |     .          |                x: 2 (valid) 0x75-0x76 (1)
     |                                               |                |            [3]{}: ex 0x76-0x91 (27)
     |                                               |                |              nm{}: 0x76-0x8f (25)
0x070|                  18                           |      .         |                n: 24 (valid) 0x76-0x77 (1)
0x070|                     69 31 36 78 38 2e 65 78 74|       i16x8.ext|                b: "i16x8.extend_low_i8x16_u" 0x77-0x8f (24)
0x080|65 6e 64 5f 6c 6f 77 5f 69 38 78 31 36 5f 75   |end_low_i8x16_u |
     |                                               |                |              d{}: 0x8f-0x91 (2)
0x080|                                             00|               .|                tag: "funcidx" (0x0) 0x8f-0x90 (1)
0x090|03                                             |.               |                x: 3 (valid) 0x90-0x91 (1)
     |                                               |                |            [4]{}: ex 0x91-0xad (28)
     |                                               |                |              nm{}: 0x91-0xab (26)
0x090|   19                                          | .              |                n: 25 (valid) 0x91-0x92 (1)
0x090|      69 33 32 78 34 2e 65 78 74 65 6e 64 5f 68|  i32x4.extend_h|                b: "i32x4.extend_high_i16x8_s" 0x92-0xab (25)
0x0a0|69 67 68 5f 69 31 36 78 38 5f 73               |igh_i16x8_s     |
     |                                               |                |              d{}: 0xab-0xad (2)
0x0a0|                                 00            |           .    |                tag: "funcidx" (0x0) 0xab-0xac (1)
0x0a0|                                    04         |            .   |                x: 4 (valid) 0xac-0xad (1)
     |                                               |                |            [5]{}: ex 0xad-0xc9 (28)
     |                                               |                |              nm{}: 0xad-0xc7 (26)
0x0a0|                                       19      |             .  |                n: 25 (valid) 0xad-0xae (1)
0x0a0|                                          69 33|              i3|                b: "i32x4.extend_high_i16x8_u" 0xae-0xc7 (25)
0x0b0|32 78 34 2e 65 78 74 65 6e 64 5f 68 69 67 68 5f|2x4.extend_high_|
0x0c0|69 31 36 78 38 5f 75                           |i16x8_u         |
     |                                               |                |              d{}: 0xc7-0xc9 (2)
0x0c0|                     00                        |       .        |                tag: "funcidx" (0x0) 0xc7-0xc8 (1)
0x0c0|                        05                     |        .       |                x: 5 (valid) 0xc8-0xc9 (1)
     |                                               |                |            [6]{}: ex 0xc9-0xe4 (27)
     |                                               |                |              nm{}: 0xc9-0xe2 (25)
0x0c0|                           18                  |         .      |                n: 24 (valid) 0xc9-0xca (1)
0x0c0|                              69 33 32 78 34 2e|          i32x4.|                b: "i32x4.extend_low_i16x8_s" 0xca-0xe2 (24)
0x0d0|65 78 74 65 6e 64 5f 6c 6f 77 5f 69 31 36 78 38|extend_low_i16x8|
0x0e0|5f 73                                          |_s              |
     |                                               |                |              d{}: 0xe2-0xe4 (2)
0x0e0|      00                                       |  .             |                tag: "funcidx" (0x0) 0xe2-0xe3 (1)
0x0e0|         06                                    |   .            |                x: 6 (valid) 0xe3-0xe4 (1)
     |                                               |                |            [7]{}: ex 0xe4-0xff (27)
     |                                               |                |              nm{}: 0xe4-0xfd (25)
0x0e0|            18                                 |    .           |                n: 24 (valid) 0xe4-0xe5 (1)
0x0e0|               69 33 32 78 34 2e 65 78 74 65 6e|     i32x4.exten|                b: "i32x4.extend_low_i16x8_u" 0xe5-0xfd (24)
0x0f0|64 5f 6c 6f 77 5f 69 31 36 78 38 5f 75         |d_low_i16x8_u   |
     |                                               |                |              d{}: 0xfd-0xff (2)
0x0f0|                                       00      |             .  |                tag: "funcidx" (0x0) 0xfd-0xfe (1)
0x0f0|                                          07   |              . |                x: 7 (valid) 0xfe-0xff (1)
     |                                               |                |            [8]{}: ex 0xff-0x11b (28)
     |                                               |                |              nm{}: 0xff-0x119 (26)
0x0f0|                                             19|               .|                n: 25 (valid) 0xff-0x100 (1)
0x100|69 36 34 78 32 2e 65 78 74 65 6e 64 5f 68 69 67|i64x2.extend_hig|                b: "i64x2.extend_high_i32x4_s" 0x100-0x119 (25)
0x110|68 5f 69 33 32 78 34 5f 73                     |h_i32x4_s       |
     |                                               |                |              d{}: 0x119-0x11b (2)
0x110|                           00                  |         .      |                tag: "funcidx" (0x0) 0x119-0x11a (1)
0x110|                              08               |          .     |                x: 8 (valid) 0x11a-0x11b (1)
     |                                               |                |            [9]{}: ex 0x11b-0x137 (28)
     |                                               |                |              nm{}: 0x11b-0x135 (26)
0x110|                                 19            |           .    |                n: 25 (valid) 0x11b-0x11c (1)
0x110|                                    69 36 34 78|            i64x|                b: "i64x2.extend_high_i32x4_u" 0x11c-0x135 (25)
0x120|32 2e 65 78 74 65 6e 64 5f 68 69 67 68 5f 69 33|2.extend_high_i3|
0x130|32 78 34 5f 75                                 |2x4_u           |
     |                                               |                |              d{}: 0x135-0x137 (2)
0x130|               00                              |     .          |                tag: "funcidx" (0x0) 0x135-0x136 (1)
0x130|                  09                           |      .         |                x: 9 (valid) 0x136-0x137 (1)
     |                                               |                |            [10]{}: ex 0x137-0x152 (27)
     |                                               |                |              nm{}: 0x137-0x150 (25)
0x130|                     18                        |       .        |                n: 24 (valid) 0x137-0x138 (1)
0x130|                        69 36 34 78 32 2e 65 78|        i64x2.ex|                b: "i64x2.extend_low_i32x4_s" 0x138-0x150 (24)
0x140|74 65 6e 64 5f 6c 6f 77 5f 69 33 32 78 34 5f 73|tend_low_i32x4_s|
     |                                               |                |              d{}: 0x150-0x152 (2)
0x150|00                                             |.               |                tag: "funcidx" (0x0) 0x150-0x151 (1)
0x150|   0a                                          | .              |                x: 10 (valid) 0x151-0x152 (1)
     |                                               |                |            [11]{}: ex 0x152-0x16d (27)
     |                                               |                |              nm{}: 0x152-0x16b (25)
0x150|      18                                       |  .             |                n: 24 (valid) 0x152-0x153 (1)
0x150|         69 36 34 78 32 2e 65 78 74 65 6e 64 5f|   i64x2.extend_|                b: "i64x2.extend_low_i32x4_u" 0x153-0x16b (24)
0x160|6c 6f 77 5f 69 33 32 78 34 5f 75               |low_i32x4_u     |
     |                                               |                |              d{}: 0x16b-0x16d (2)
0x160|                                 00            |           .    |                tag: "funcidx" (0x0) 0x16b-0x16c (1)
0x160|                                    0b         |            .   |                x: 11 (valid) 0x16c-0x16d (1)
     |                                               |                |    [3]{}: section 0x16d-0x1d0 (99)
0x160|                                       0a      |             .  |      id: "code_section" (10) 0x16d-0x16e (1)
0x160|                                          61   |              a |      size: 97 (valid) 0x16e-0x16f (1)
     |                                               |                |      content{}: 0x16f-0x1d0 (97)
     |                                               |                |        code{}: 0x16f-0x1d0 (97)
0x160|                                             0c|               .|          n: 12 (valid) 0x16f-0x170 (1)
     |                                               |                |          x[0:12]: 0x170-0x1d0 (96)
     |                                               |                |            [0]{}: code 0x170-0x178 (8)
0x170|07                                             |.               |              size: 7 (valid) 0x170-0x171 (1)
     |                                               |                |              code{}: 0x171-0x178 (7)
     |                                               |                |                t{}: 0x171-0x172 (1)
0x170|   00                                          | .              |                  n: 0 (valid) 0x171-0x172 (1)
     |                                               |                |                  x[0:0]: 0x172-0x172 (0)
     |                                               |                |                e[0:3]: 0x172-0x178 (6)
     |                                               |                |                  [0]{}: in 0x172-0x174 (2)
0x170|      20                                       |                |                    opcode: "local.get" (0x20) 0x172-0x173 (1)
0x170|         00                                    |   .            |                    x: 0 (valid) 0x173-0x174 (1)
     |                                               |                |                  [1]{}: in 0x174-0x177 (3)
0x170|            fd                                 |    .           |                    opcode: "vector" (0xfd) 0x174-0x175 (1)
0x170|               88 01                           |     ..         |                    v_opcode: "i16x8.extend_high_i8x16_s" (136) 0x175-0x177 (2)
     |                                               |                |                  [2]{}: in 0x177-0x178 (1)
0x170|                     0b                        |       .        |                    opcode: "end" (0xb) 0x177-0x178 (1)
     |                                               |                |            [1]{}: code 0x178-0x180 (8)
0x170|                        07                     |        .       |              size: 7 (valid) 0x178-0x179 (1)
     |                                               |                |              code{}: 0x179-0x180 (7)
     |                                               |                |                t{}: 0x179-0x17a (1)
0x170|                           00                  |         .      |                  n: 0 (valid) 0x179-0x17a (1)
     |                                               |                |                  x[0:0]: 0x17a-0x17a (0)
     |                                               |                |                e[0:3]: 0x17a-0x180 (6)
     |                                               |                |                  [0]{}: in 0x17a-0x17c (2)
0x170|                              20               |                |                    opcode: "local.get" (0x20) 0x17a-0x17b (1)
0x170|                                 00            |           .    |                    x: 0 (valid) 0x17b-0x17c (1)
     |                                               |                |                  [1]{}: in 0x17c-0x17f (3)
0x170|                                    fd         |            .   |                    opcode: "vector" (0xfd) 0x17c-0x17d (1)
0x170|                                       8a 01   |             .. |                    v_opcode: "i16x8.extend_high_i8x16_u" (138) 0x17d-0x17f (2)
     |                                               |                |                  [2]{}: in 0x17f-0x180 (1)
0x170|                                             0b|               .|                    opcode: "end" (0xb) 0x17f-0x180 (1)
     |                                               |                |            [2]{}: code 0x180-0x188 (8)
0x180|07                                             |.               |              size: 7 (valid) 0x180-0x181 (1)
     |                                               |                |              code{}: 0x181-0x188 (7)
     |                                               |                |                t{}: 0x181-0x182 (1)
0x180|   00                                          | .              |                  n: 0 (valid) 0x181-0x182 (1)
     |                                               |                |                  x[0:0]: 0x182-0x182 (0)
     |                                               |                |                e[0:3]: 0x182-0x188 (6)
     |                                               |                |                  [0]{}: in 0x182-0x184 (2)
0x180|      20                                       |                |                    opcode: "local.get" (0x20) 0x182-0x183 (1)
0x180|         00                                    |   .            |                    x: 0 (valid) 0x183-0x184 (1)
     |                                               |                |                  [1]{}: in 0x184-0x187 (3)
0x180|            fd                                 |    .           |                    opcode: "vector" (0xfd) 0x184-0x185 (1)
0x180|               87 01                           |     ..         |                    v_opcode: "i16x8.extend_low_i8x16_s" (135) 0x185-0x187 (2)
     |                                               |                |                  [2]{}: in 0x187-0x188 (1)
0x180|                     0b                        |       .        |                    opcode: "end" (0xb) 0x187-0x188 (1)
     |                                               |                |            [3]{}: code 0x188-0x190 (8)
0x180|                        07                     |        .       |              size: 7 (valid) 0x188-0x189 (1)
     |                                               |                |              code{}: 0x189-0x190 (7)
     |                                               |                |                t{}: 0x189-0x18a (1)
0x180|                           00                  |         .      |                  n: 0 (valid) 0x189-0x18a (1)
     |                                               |                |                  x[0:0]: 0x18a-0x18a (0)
     |                                               |                |                e[0:3]: 0x18a-0x190 (6)
     |                                               |                |                  [0]{}: in 0x18a-0x18c (2)
0x180|                              20               |                |                    opcode: "local.get" (0x20) 0x18a-0x18b (1)
0x180|                                 00            |           .    |                    x: 0 (valid) 0x18b-0x18c (1)
     |                                               |                |                  [1]{}: in 0x18c-0x18f (3)
0x180|                                    fd         |            .   |                    opcode: "vector" (0xfd) 0x18c-0x18d (1)
0x180|                                       89 01   |             .. |                    v_opcode: "i16x8.extend_low_i8x16_u" (137) 0x18d-0x18f (2)
     |                                               |                |                  [2]{}: in 0x18f-0x190 (1)
0x180|                                             0b|               .|                    opcode: "end" (0xb) 0x18f-0x190 (1)
     |                                               |                |            [4]{}: code 0x190-0x198 (8)
0x190|07                                             |.               |              size: 7 (valid) 0x190-0x191 (1)
     |                                               |                |              code{}: 0x191-0x198 (7)
     |                                               |                |                t{}: 0x191-0x192 (1)
0x190|   00                                          | .              |                  n: 0 (valid) 0x191-0x192 (1)
     |                                               |                |                  x[0:0]: 0x192-0x192 (0)
     |                                               |                |                e[0:3]: 0x192-0x198 (6)
     |                                               |                |                  [0]{}: in 0x192-0x194 (2)
0x190|      20                                       |                |                    opcode: "local.get" (0x20) 0x192-0x193 (1)
0x190|         00                                    |   .            |                    x: 0 (valid) 0x193-0x194 (1)
     |                                               |                |                  [1]{}: in 0x194-0x197 (3)
0x190|            fd                                 |    .           |                    opcode: "vector" (0xfd) 0x194-0x195 (1)
0x190|               a8 01                           |     ..         |                    v_opcode: "i32x4.extend_high_i16x8_s" (168) 0x195-0x197 (2)
     |                                               |                |                  [2]{}: in 0x197-0x198 (1)
0x190|                     0b                        |       .        |                    opcode: "end" (0xb) 0x197-0x198 (1)
     |                                               |                |            [5]{}: code 0x198-0x1a0 (8)
0x190|                        07                     |        .       |              size: 7 (valid) 0x198-0x199 (1)
     |                                               |                |              code{}: 0x199-0x1a0 (7)
     |                                               |                |                t{}: 0x199-0x19a (1)
0x190|                           00                  |         .      |                  n: 0 (valid) 0x199-0x19a (1)
     |                                               |                |                  x[0:0]: 0x19a-0x19a (0)
     |                                               |                |                e[0:3]: 0x19a-0x1a0 (6)
     |                                               |                |                  [0]{}: in 0x19a-0x19c (2)
0x190|                              20               |                |                    opcode: "local.get" (0x20) 0x19a-0x19b (1)
0x190|                                 00            |           .    |                    x: 0 (valid) 0x19b-0x19c (1)
     |                                               |                |                  [1]{}: in 0x19c-0x19f (3)
0x190|                                    fd         |            .   |                    opcode: "vector" (0xfd) 0x19c-0x19d (1)
0x190|                                       aa 01   |             .. |                    v_opcode: "i32x4.extend_high_i16x8_u" (170) 0x19d-0x19f (2)
     |                                               |                |                  [2]{}: in 0x19f-0x1a0 (1)
0x190|                                             0b|               .|                    opcode: "end" (0xb) 0x19f-0x1a0 (1)
     |                                               |                |            [6]{}: code 0x1a0-0x1a8 (8)
0x1a0|07                                             |.               |              size: 7 (valid) 0x1a0-0x1a1 (1)
     |                                               |                |              code{}: 0x1a1-0x1a8 (7)
     |                                               |                |                t{}: 0x1a1-0x1a2 (1)
0x1a0|   00                                          | .              |                  n: 0 (valid) 0x1a1-0x1a2 (1)
     |                                               |                |                  x[0:0]: 0x1a2-0x1a2 (0)
     |                                               |                |                e[0:3]: 0x1a2-0x1a8 (6)
     |                                               |                |                  [0]{}: in 0x1a2-0x1a4 (2)
0x1a0|      20                                       |                |                    opcode: "local.get" (0x20) 0x1a2-0x1a3 (1)
0x1a0|         00                                    |   .            |                    x: 0 (valid) 0x1a3-0x1a4 (1)
     |                                               |                |                  [1]{}: in 0x1a4-0x1a7 (3)
0x1a0|            fd                                 |    .           |                    opcode: "vector" (0xfd) 0x1a4-0x1a5 (1)
0x1a0|               a7 01                           |     ..         |                    v_opcode: "i32x4.extend_low_i16x8_s" (167) 0x1a5-0x1a7 (2)
     |                                               |                |                  [2]{}: in 0x1a7-0x1a8 (1)
0x1a0|                     0b                        |       .        |                    opcode: "end" (0xb) 0x1a7-0x1a8 (1)
     |                                               |                |            [7]{}: code 0x1a8-0x1b0 (8)
0x1a0|                        07                     |        .       |              size: 7 (valid) 0x1a8-0x1a9 (1)
     |                                               |                |              code{}: 0x1a9-0x1b0 (7)
     |                                               |                |                t{}: 0x1a9-0x1aa (1)
0x1a0|                           00                  |         .      |                  n: 0 (valid) 0x1a9-0x1aa (1)
     |                                               |                |                  x[0:0]: 0x1aa-0x1aa (0)
     |                                               |                |                e[0:3]: 0x1aa-0x1b0 (6)
     |                                               |                |                  [0]{}: in 0x1aa-0x1ac (2)
0x1a0|                              20               |                |                    opcode: "local.get" (0x20) 0x1aa-0x1ab (1)
0x1a0|                                 00            |           .    |                    x: 0 (valid) 0x1ab-0x1ac (1)
     |                                               |                |                  [1]{}: in 0x1ac-0x1af (3)
0x1a0|                                    fd         |            .   |                    opcode: "vector" (0xfd) 0x1ac-0x1ad (1)
0x1a0|                                       a9 01   |             .. |                    v_opcode: "i32x4.extend_low_i16x8_u" (169) 0x1ad-0x1af (2)
     |                                               |                |                  [2]{}: in 0x1af-0x1b0 (1)
0x1a0|                                             0b|               .|                    opcode: "end" (0xb) 0x1af-0x1b0 (1)
     |                                               |                |            [8]{}: code 0x1b0-0x1b8 (8)
0x1b0|07                                             |.               |              size: 7 (valid) 0x1b0-0x1b1 (1)
     |                                               |                |              code{}: 0x1b1-0x1b8 (7)
     |                                               |                |                t{}: 0x1b1-0x1b2 (1)
0x1b0|   00                                          | .              |                  n: 0 (valid) 0x1b1-0x1b2 (1)
     |                                               |                |                  x[0:0]: 0x1b2-0x1b2 (0)
     |                                               |                |                e[0:3]: 0x1b2-0x1b8 (6)
     |                                               |                |                  [0]{}: in 0x1b2-0x1b4 (2)
0x1b0|      20                                       |                |                    opcode: "local.get" (0x20) 0x1b2-0x1b3 (1)
0x1b0|         00                                    |   .            |                    x: 0 (valid) 0x1b3-0x1b4 (1)
     |                                               |                |                  [1]{}: in 0x1b4-0x1b7 (3)
0x1b0|            fd                                 |    .           |                    opcode: "vector" (0xfd) 0x1b4-0x1b5 (1)
0x1b0|               c8 01                           |     ..         |                    v_opcode: "i64x2.extend_high_i32x4_s" (200) 0x1b5-0x1b7 (2)
     |                                               |                |                  [2]{}: in 0x1b7-0x1b8 (1)
0x1b0|                     0b                        |       .        |                    opcode: "end" (0xb) 0x1b7-0x1b8 (1)
     |                                               |                |            [9]{}: code 0x1b8-0x1c0 (8)
0x1b0|                        07                     |        .       |              size: 7 (valid) 0x1b8-0x1b9 (1)
     |                                               |                |              code{}: 0x1b9-0x1c0 (7)
     |                                               |                |                t{}: 0x1b9-0x1ba (1)
0x1b0|                           00                  |         .      |                  n: 0 (valid) 0x1b9-0x1ba (1)
     |                                               |                |                  x[0:0]: 0x1ba-0x1ba (0)
     |                                               |                |                e[0:3]: 0x1ba-0x1c0 (6)
     |                                               |                |                  [0]{}: in 0x1ba-0x1bc (2)
0x1b0|                              20               |                |                    opcode: "local.get" (0x20) 0x1ba-0x1bb (1)
0x1b0|                                 00            |           .    |                    x: 0 (valid) 0x1bb-0x1bc (1)
     |                                               |                |                  [1]{}: in 0x1bc-0x1bf (3)
0x1b0|                                    fd         |            .   |                    opcode: "vector" (0xfd) 0x1bc-0x1bd (1)
0x1b0|                                       ca 01   |             .. |                    v_opcode: "i64x2.extend_high_i32x4_u" (202) 0x1bd-0x1bf (2)
     |                                               |                |                  [2]{}: in 0x1bf-0x1c0 (1)
0x1b0|                                             0b|               .|                    opcode: "end" (0xb) 0x1bf-0x1c0 (1)
     |                                               |                |            [10]{}: code 0x1c0-0x1c8 (8)
0x1c0|07                                             |.               |              size: 7 (valid) 0x1c0-0x1c1 (1)
     |                                               |                |              code{}: 0x1c1-0x1c8 (7)
     |                                               |                |                t{}: 0x1c1-0x1c2 (1)
0x1c0|   00                                          | .              |                  n: 0 (valid) 0x1c1-0x1c2 (1)
     |                                               |                |                  x[0:0]: 0x1c2-0x1c2 (0)
     |                                               |                |                e[0:3]: 0x1c2-0x1c8 (6)
     |                                               |                |                  [0]{}: in 0x1c2-0x1c4 (2)
0x1c0|      20                                       |                |                    opcode: "local.get" (0x20) 0x1c2-0x1c3 (1)
0x1c0|         00                                    |   .            |                    x: 0 (valid) 0x1c3-0x1c4 (1)
     |                                               |                |                  [1]{}: in 0x1c4-0x1c7 (3)
0x1c0|            fd                                 |    .           |                    opcode: "vector" (0xfd) 0x1c4-0x1c5 (1)
0x1c0|               c7 01                           |     ..         |                    v_opcode: "i64x2.extend_low_i32x4_s" (199) 0x1c5-0x1c7 (2)
     |                                               |                |                  [2]{}: in 0x1c7-0x1c8 (1)
0x1c0|                     0b                        |       .        |                    opcode: "end" (0xb) 0x1c7-0x1c8 (1)
     |                                               |                |            [11]{}: code 0x1c8-0x1d0 (8)
0x1c0|                        07                     |        .       |              size: 7 (valid) 0x1c8-0x1c9 (1)
     |                                               |                |              code{}: 0x1c9-0x1d0 (7)
     |                                               |                |                t{}: 0x1c9-0x1ca (1)
0x1c0|                           00                  |         .      |                  n: 0 (valid) 0x1c9-0x1ca (1)
     |                                               |                |                  x[0:0]: 0x1ca-0x1ca (0)
     |                                               |                |                e[0:3]: 0x1ca-0x1d0 (6)
     |                                               |                |                  [0]{}: in 0x1ca-0x1cc (2)
0x1c0|                              20               |                |                    opcode: "local.get" (0x20) 0x1ca-0x1cb (1)
0x1c0|                                 00            |           .    |                    x: 0 (valid) 0x1cb-0x1cc (1)
     |                                               |                |                  [1]{}: in 0x1cc-0x1cf (3)
0x1c0|                                    fd         |            .   |                    opcode: "vector" (0xfd) 0x1cc-0x1cd (1)
0x1c0|                                       c9 01   |             .. |                    v_opcode: "i64x2.extend_low_i32x4_u" (201) 0x1cd-0x1cf (2)
     |                                               |                |                  [2]{}: in 0x1cf-0x1d0 (1)
0x1c0|                                             0b|               .|                    opcode: "end" (0xb) 0x1cf-0x1d0 (1)
