$ fq -d wasm dv simd_i32x4_cmp-0.wasm
    |00 01 02 03 04 05 06 07 08 09 0a 0b 0c 0d 0e 0f|0123456789abcdef|.{}: simd_i32x4_cmp-0.wasm (wasm) 0x0-0xbf.7 (192)
0x00|00 61 73 6d                                    |.asm            |  magic: raw bits (valid) 0x0-0x3.7 (4)
0x00|            01 00 00 00                        |    ....        |  version: 1 0x4-0x7.7 (4)
    |                                               |                |  sections[0:4]: 0x8-0xbf.7 (184)
    |                                               |                |    [0]{}: section 0x8-0x10.7 (9)
0x00|                        01                     |        .       |      id: "type section" (1) 0x8-0x8.7 (1)
0x00|                           07                  |         .      |      size: 7 0x9-0x9.7 (1)
    |                                               |                |      content{}: 0xa-0x10.7 (7)
    |                                               |                |        ft{}: 0xa-0x10.7 (7)
0x00|                              01               |          .     |          n: 1 0xa-0xa.7 (1)
    |                                               |                |          x[0:1]: 0xb-0x10.7 (6)
    |                                               |                |            [0]{}: ft 0xb-0x10.7 (6)
0x00|                                 60            |           `    |              tag: 0x60 (valid) 0xb-0xb.7 (1)
    |                                               |                |              rt1{}: 0xc-0xe.7 (3)
0x00|                                    02         |            .   |                n: 2 0xc-0xc.7 (1)
    |                                               |                |                x[0:2]: 0xd-0xe.7 (2)
0x00|                                       7b      |             {  |                  [0]: "v128" (0x7b) t 0xd-0xd.7 (1)
0x00|                                          7b   |              { |                  [1]: "v128" (0x7b) t 0xe-0xe.7 (1)
    |                                               |                |              rt2{}: 0xf-0x10.7 (2)
0x00|                                             01|               .|                n: 1 0xf-0xf.7 (1)
    |                                               |                |                x[0:1]: 0x10-0x10.7 (1)
0x10|7b                                             |{               |                  [0]: "v128" (0x7b) t 0x10-0x10.7 (1)
    |                                               |                |    [1]{}: section 0x11-0x1d.7 (13)
0x10|   03                                          | .              |      id: "function section" (3) 0x11-0x11.7 (1)
0x10|      0b                                       |  .             |      size: 11 0x12-0x12.7 (1)
    |                                               |                |      content{}: 0x13-0x1d.7 (11)
    |                                               |                |        x{}: 0x13-0x1d.7 (11)
0x10|         0a                                    |   .            |          n: 10 0x13-0x13.7 (1)
    |                                               |                |          x[0:10]: 0x14-0x1d.7 (10)
0x10|            00                                 |    .           |            [0]: 0 x 0x14-0x14.7 (1)
0x10|               00                              |     .          |            [1]: 0 x 0x15-0x15.7 (1)
0x10|                  00                           |      .         |            [2]: 0 x 0x16-0x16.7 (1)
0x10|                     00                        |       .        |            [3]: 0 x 0x17-0x17.7 (1)
0x10|                        00                     |        .       |            [4]: 0 x 0x18-0x18.7 (1)
0x10|                           00                  |         .      |            [5]: 0 x 0x19-0x19.7 (1)
0x10|                              00               |          .     |            [6]: 0 x 0x1a-0x1a.7 (1)
0x10|                                 00            |           .    |            [7]: 0 x 0x1b-0x1b.7 (1)
0x10|                                    00         |            .   |            [8]: 0 x 0x1c-0x1c.7 (1)
0x10|                                       00      |             .  |            [9]: 0 x 0x1d-0x1d.7 (1)
    |                                               |                |    [2]{}: section 0x1e-0x62.7 (69)
0x10|                                          07   |              . |      id: "export section" (7) 0x1e-0x1e.7 (1)
0x10|                                             43|               C|      size: 67 0x1f-0x1f.7 (1)
    |                                               |                |      content{}: 0x20-0x62.7 (67)
    |                                               |                |        ex{}: 0x20-0x62.7 (67)
0x20|0a                                             |.               |          n: 10 0x20-0x20.7 (1)
    |                                               |                |          x[0:10]: 0x21-0x62.7 (66)
    |                                               |                |            [0]{}: ex 0x21-0x25.7 (5)
    |                                               |                |              nm{}: 0x21-0x23.7 (3)
0x20|   02                                          | .              |                n: 2 0x21-0x21.7 (1)
0x20|      65 71                                    |  eq            |                b: "eq" 0x22-0x23.7 (2)
    |                                               |                |              d{}: 0x24-0x25.7 (2)
0x20|            00                                 |    .           |                tag: "funcidx" (0x0) 0x24-0x24.7 (1)
0x20|               00                              |     .          |                x: 0 0x25-0x25.7 (1)
    |                                               |                |            [1]{}: ex 0x26-0x2a.7 (5)
    |                                               |                |              nm{}: 0x26-0x28.7 (3)
0x20|                  02                           |      .         |                n: 2 0x26-0x26.7 (1)
0x20|                     6e 65                     |       ne       |                b: "ne" 0x27-0x28.7 (2)
    |                                               |                |              d{}: 0x29-0x2a.7 (2)
0x20|                           00                  |         .      |                tag: "funcidx" (0x0) 0x29-0x29.7 (1)
0x20|                              01               |          .     |                x: 1 0x2a-0x2a.7 (1)
    |                                               |                |            [2]{}: ex 0x2b-0x31.7 (7)
    |                                               |                |              nm{}: 0x2b-0x2f.7 (5)
0x20|                                 04            |           .    |                n: 4 0x2b-0x2b.7 (1)
0x20|                                    6c 74 5f 73|            lt_s|                b: "lt_s" 0x2c-0x2f.7 (4)
    |                                               |                |              d{}: 0x30-0x31.7 (2)
0x30|00                                             |.               |                tag: "funcidx" (0x0) 0x30-0x30.7 (1)
0x30|   02                                          | .              |                x: 2 0x31-0x31.7 (1)
    |                                               |                |            [3]{}: ex 0x32-0x38.7 (7)
    |                                               |                |              nm{}: 0x32-0x36.7 (5)
0x30|      04                                       |  .             |                n: 4 0x32-0x32.7 (1)
0x30|         6c 74 5f 75                           |   lt_u         |                b: "lt_u" 0x33-0x36.7 (4)
    |                                               |                |              d{}: 0x37-0x38.7 (2)
0x30|                     00                        |       .        |                tag: "funcidx" (0x0) 0x37-0x37.7 (1)
0x30|                        03                     |        .       |                x: 3 0x38-0x38.7 (1)
    |                                               |                |            [4]{}: ex 0x39-0x3f.7 (7)
    |                                               |                |              nm{}: 0x39-0x3d.7 (5)
0x30|                           04                  |         .      |                n: 4 0x39-0x39.7 (1)
0x30|                              6c 65 5f 73      |          le_s  |                b: "le_s" 0x3a-0x3d.7 (4)
    |                                               |                |              d{}: 0x3e-0x3f.7 (2)
0x30|                                          00   |              . |                tag: "funcidx" (0x0) 0x3e-0x3e.7 (1)
0x30|                                             04|               .|                x: 4 0x3f-0x3f.7 (1)
    |                                               |                |            [5]{}: ex 0x40-0x46.7 (7)
    |                                               |                |              nm{}: 0x40-0x44.7 (5)
0x40|04                                             |.               |                n: 4 0x40-0x40.7 (1)
0x40|   6c 65 5f 75                                 | le_u           |                b: "le_u" 0x41-0x44.7 (4)
    |                                               |                |              d{}: 0x45-0x46.7 (2)
0x40|               00                              |     .          |                tag: "funcidx" (0x0) 0x45-0x45.7 (1)
0x40|                  05                           |      .         |                x: 5 0x46-0x46.7 (1)
    |                                               |                |            [6]{}: ex 0x47-0x4d.7 (7)
    |                                               |                |              nm{}: 0x47-0x4b.7 (5)
0x40|                     04                        |       .        |                n: 4 0x47-0x47.7 (1)
0x40|                        67 74 5f 73            |        gt_s    |                b: "gt_s" 0x48-0x4b.7 (4)
    |                                               |                |              d{}: 0x4c-0x4d.7 (2)
0x40|                                    00         |            .   |                tag: "funcidx" (0x0) 0x4c-0x4c.7 (1)
0x40|                                       06      |             .  |                x: 6 0x4d-0x4d.7 (1)
    |                                               |                |            [7]{}: ex 0x4e-0x54.7 (7)
    |                                               |                |              nm{}: 0x4e-0x52.7 (5)
0x40|                                          04   |              . |                n: 4 0x4e-0x4e.7 (1)
0x40|                                             67|               g|                b: "gt_u" 0x4f-0x52.7 (4)
0x50|74 5f 75                                       |t_u             |
    |                                               |                |              d{}: 0x53-0x54.7 (2)
0x50|         00                                    |   .            |                tag: "funcidx" (0x0) 0x53-0x53.7 (1)
0x50|            07                                 |    .           |                x: 7 0x54-0x54.7 (1)
    |                                               |                |            [8]{}: ex 0x55-0x5b.7 (7)
    |                                               |                |              nm{}: 0x55-0x59.7 (5)
0x50|               04                              |     .          |                n: 4 0x55-0x55.7 (1)
0x50|                  67 65 5f 73                  |      ge_s      |                b: "ge_s" 0x56-0x59.7 (4)
    |                                               |                |              d{}: 0x5a-0x5b.7 (2)
0x50|                              00               |          .     |                tag: "funcidx" (0x0) 0x5a-0x5a.7 (1)
0x50|                                 08            |           .    |                x: 8 0x5b-0x5b.7 (1)
    |                                               |                |            [9]{}: ex 0x5c-0x62.7 (7)
    |                                               |                |              nm{}: 0x5c-0x60.7 (5)
0x50|                                    04         |            .   |                n: 4 0x5c-0x5c.7 (1)
0x50|                                       67 65 5f|             ge_|                b: "ge_u" 0x5d-0x60.7 (4)
0x60|75                                             |u               |
    |                                               |                |              d{}: 0x61-0x62.7 (2)
0x60|   00                                          | .              |                tag: "funcidx" (0x0) 0x61-0x61.7 (1)
0x60|      09                                       |  .             |                x: 9 0x62-0x62.7 (1)
    |                                               |                |    [3]{}: section 0x63-0xbf.7 (93)
0x60|         0a                                    |   .            |      id: "code section" (10) 0x63-0x63.7 (1)
0x60|            5b                                 |    [           |      size: 91 0x64-0x64.7 (1)
    |                                               |                |      content{}: 0x65-0xbf.7 (91)
    |                                               |                |        code{}: 0x65-0xbf.7 (91)
0x60|               0a                              |     .          |          n: 10 0x65-0x65.7 (1)
    |                                               |                |          x[0:10]: 0x66-0xbf.7 (90)
    |                                               |                |            [0]{}: code 0x66-0x6e.7 (9)
0x60|                  08                           |      .         |              size: 8 0x66-0x66.7 (1)
    |                                               |                |              code{}: 0x67-0x6e.7 (8)
    |                                               |                |                t{}: 0x67-0x67.7 (1)
0x60|                     00                        |       .        |                  n: 0 0x67-0x67.7 (1)
    |                                               |                |                  x[0:0]: 0x68-NA (0)
    |                                               |                |                e[0:4]: 0x68-0x6e.7 (7)
    |                                               |                |                  [0]{}: in 0x68-0x69.7 (2)
0x60|                        20                     |                |                    local.get: 0x20 (valid) 0x68-0x68.7 (1)
0x60|                           00                  |         .      |                    x: 0 0x69-0x69.7 (1)
    |                                               |                |                  [1]{}: in 0x6a-0x6b.7 (2)
0x60|                              20               |                |                    local.get: 0x20 (valid) 0x6a-0x6a.7 (1)
0x60|                                 01            |           .    |                    x: 1 0x6b-0x6b.7 (1)
    |                                               |                |                  [2]{}: in 0x6c-0x6d.7 (2)
0x60|                                    fd         |            .   |                    prefix: 0xfd (valid) 0x6c-0x6c.7 (1)
0x60|                                       37      |             7  |                    i32x4.eq: 55 (valid) 0x6d-0x6d.7 (1)
    |                                               |                |                  [3]{}: in 0x6e-0x6e.7 (1)
0x60|                                          0b   |              . |                    end: 0xb (valid) 0x6e-0x6e.7 (1)
    |                                               |                |            [1]{}: code 0x6f-0x77.7 (9)
0x60|                                             08|               .|              size: 8 0x6f-0x6f.7 (1)
    |                                               |                |              code{}: 0x70-0x77.7 (8)
    |                                               |                |                t{}: 0x70-0x70.7 (1)
0x70|00                                             |.               |                  n: 0 0x70-0x70.7 (1)
    |                                               |                |                  x[0:0]: 0x71-NA (0)
    |                                               |                |                e[0:4]: 0x71-0x77.7 (7)
    |                                               |                |                  [0]{}: in 0x71-0x72.7 (2)
0x70|   20                                          |                |                    local.get: 0x20 (valid) 0x71-0x71.7 (1)
0x70|      00                                       |  .             |                    x: 0 0x72-0x72.7 (1)
    |                                               |                |                  [1]{}: in 0x73-0x74.7 (2)
0x70|         20                                    |                |                    local.get: 0x20 (valid) 0x73-0x73.7 (1)
0x70|            01                                 |    .           |                    x: 1 0x74-0x74.7 (1)
    |                                               |                |                  [2]{}: in 0x75-0x76.7 (2)
0x70|               fd                              |     .          |                    prefix: 0xfd (valid) 0x75-0x75.7 (1)
0x70|                  38                           |      8         |                    i32x4.ne: 56 (valid) 0x76-0x76.7 (1)
    |                                               |                |                  [3]{}: in 0x77-0x77.7 (1)
0x70|                     0b                        |       .        |                    end: 0xb (valid) 0x77-0x77.7 (1)
    |                                               |                |            [2]{}: code 0x78-0x80.7 (9)
0x70|                        08                     |        .       |              size: 8 0x78-0x78.7 (1)
    |                                               |                |              code{}: 0x79-0x80.7 (8)
    |                                               |                |                t{}: 0x79-0x79.7 (1)
0x70|                           00                  |         .      |                  n: 0 0x79-0x79.7 (1)
    |                                               |                |                  x[0:0]: 0x7a-NA (0)
    |                                               |                |                e[0:4]: 0x7a-0x80.7 (7)
    |                                               |                |                  [0]{}: in 0x7a-0x7b.7 (2)
0x70|                              20               |                |                    local.get: 0x20 (valid) 0x7a-0x7a.7 (1)
0x70|                                 00            |           .    |                    x: 0 0x7b-0x7b.7 (1)
    |                                               |                |                  [1]{}: in 0x7c-0x7d.7 (2)
0x70|                                    20         |                |                    local.get: 0x20 (valid) 0x7c-0x7c.7 (1)
0x70|                                       01      |             .  |                    x: 1 0x7d-0x7d.7 (1)
    |                                               |                |                  [2]{}: in 0x7e-0x7f.7 (2)
0x70|                                          fd   |              . |                    prefix: 0xfd (valid) 0x7e-0x7e.7 (1)
0x70|                                             39|               9|                    i32x4.lt_s: 57 (valid) 0x7f-0x7f.7 (1)
    |                                               |                |                  [3]{}: in 0x80-0x80.7 (1)
0x80|0b                                             |.               |                    end: 0xb (valid) 0x80-0x80.7 (1)
    |                                               |                |            [3]{}: code 0x81-0x89.7 (9)
0x80|   08                                          | .              |              size: 8 0x81-0x81.7 (1)
    |                                               |                |              code{}: 0x82-0x89.7 (8)
    |                                               |                |                t{}: 0x82-0x82.7 (1)
0x80|      00                                       |  .             |                  n: 0 0x82-0x82.7 (1)
    |                                               |                |                  x[0:0]: 0x83-NA (0)
    |                                               |                |                e[0:4]: 0x83-0x89.7 (7)
    |                                               |                |                  [0]{}: in 0x83-0x84.7 (2)
0x80|         20                                    |                |                    local.get: 0x20 (valid) 0x83-0x83.7 (1)
0x80|            00                                 |    .           |                    x: 0 0x84-0x84.7 (1)
    |                                               |                |                  [1]{}: in 0x85-0x86.7 (2)
0x80|               20                              |                |                    local.get: 0x20 (valid) 0x85-0x85.7 (1)
0x80|                  01                           |      .         |                    x: 1 0x86-0x86.7 (1)
    |                                               |                |                  [2]{}: in 0x87-0x88.7 (2)
0x80|                     fd                        |       .        |                    prefix: 0xfd (valid) 0x87-0x87.7 (1)
0x80|                        3a                     |        :       |                    i32x4.lt_u: 58 (valid) 0x88-0x88.7 (1)
    |                                               |                |                  [3]{}: in 0x89-0x89.7 (1)
0x80|                           0b                  |         .      |                    end: 0xb (valid) 0x89-0x89.7 (1)
    |                                               |                |            [4]{}: code 0x8a-0x92.7 (9)
0x80|                              08               |          .     |              size: 8 0x8a-0x8a.7 (1)
    |                                               |                |              code{}: 0x8b-0x92.7 (8)
    |                                               |                |                t{}: 0x8b-0x8b.7 (1)
0x80|                                 00            |           .    |                  n: 0 0x8b-0x8b.7 (1)
    |                                               |                |                  x[0:0]: 0x8c-NA (0)
    |                                               |                |                e[0:4]: 0x8c-0x92.7 (7)
    |                                               |                |                  [0]{}: in 0x8c-0x8d.7 (2)
0x80|                                    20         |                |                    local.get: 0x20 (valid) 0x8c-0x8c.7 (1)
0x80|                                       00      |             .  |                    x: 0 0x8d-0x8d.7 (1)
    |                                               |                |                  [1]{}: in 0x8e-0x8f.7 (2)
0x80|                                          20   |                |                    local.get: 0x20 (valid) 0x8e-0x8e.7 (1)
0x80|                                             01|               .|                    x: 1 0x8f-0x8f.7 (1)
    |                                               |                |                  [2]{}: in 0x90-0x91.7 (2)
0x90|fd                                             |.               |                    prefix: 0xfd (valid) 0x90-0x90.7 (1)
0x90|   3d                                          | =              |                    i32x4.le_s: 61 (valid) 0x91-0x91.7 (1)
    |                                               |                |                  [3]{}: in 0x92-0x92.7 (1)
0x90|      0b                                       |  .             |                    end: 0xb (valid) 0x92-0x92.7 (1)
    |                                               |                |            [5]{}: code 0x93-0x9b.7 (9)
0x90|         08                                    |   .            |              size: 8 0x93-0x93.7 (1)
    |                                               |                |              code{}: 0x94-0x9b.7 (8)
    |                                               |                |                t{}: 0x94-0x94.7 (1)
0x90|            00                                 |    .           |                  n: 0 0x94-0x94.7 (1)
    |                                               |                |                  x[0:0]: 0x95-NA (0)
    |                                               |                |                e[0:4]: 0x95-0x9b.7 (7)
    |                                               |                |                  [0]{}: in 0x95-0x96.7 (2)
0x90|               20                              |                |                    local.get: 0x20 (valid) 0x95-0x95.7 (1)
0x90|                  00                           |      .         |                    x: 0 0x96-0x96.7 (1)
    |                                               |                |                  [1]{}: in 0x97-0x98.7 (2)
0x90|                     20                        |                |                    local.get: 0x20 (valid) 0x97-0x97.7 (1)
0x90|                        01                     |        .       |                    x: 1 0x98-0x98.7 (1)
    |                                               |                |                  [2]{}: in 0x99-0x9a.7 (2)
0x90|                           fd                  |         .      |                    prefix: 0xfd (valid) 0x99-0x99.7 (1)
0x90|                              3e               |          >     |                    i32x4.le_u: 62 (valid) 0x9a-0x9a.7 (1)
    |                                               |                |                  [3]{}: in 0x9b-0x9b.7 (1)
0x90|                                 0b            |           .    |                    end: 0xb (valid) 0x9b-0x9b.7 (1)
    |                                               |                |            [6]{}: code 0x9c-0xa4.7 (9)
0x90|                                    08         |            .   |              size: 8 0x9c-0x9c.7 (1)
    |                                               |                |              code{}: 0x9d-0xa4.7 (8)
    |                                               |                |                t{}: 0x9d-0x9d.7 (1)
0x90|                                       00      |             .  |                  n: 0 0x9d-0x9d.7 (1)
    |                                               |                |                  x[0:0]: 0x9e-NA (0)
    |                                               |                |                e[0:4]: 0x9e-0xa4.7 (7)
    |                                               |                |                  [0]{}: in 0x9e-0x9f.7 (2)
0x90|                                          20   |                |                    local.get: 0x20 (valid) 0x9e-0x9e.7 (1)
0x90|                                             00|               .|                    x: 0 0x9f-0x9f.7 (1)
    |                                               |                |                  [1]{}: in 0xa0-0xa1.7 (2)
0xa0|20                                             |                |                    local.get: 0x20 (valid) 0xa0-0xa0.7 (1)
0xa0|   01                                          | .              |                    x: 1 0xa1-0xa1.7 (1)
    |                                               |                |                  [2]{}: in 0xa2-0xa3.7 (2)
0xa0|      fd                                       |  .             |                    prefix: 0xfd (valid) 0xa2-0xa2.7 (1)
0xa0|         3b                                    |   ;            |                    i32x4.gt_s: 59 (valid) 0xa3-0xa3.7 (1)
    |                                               |                |                  [3]{}: in 0xa4-0xa4.7 (1)
0xa0|            0b                                 |    .           |                    end: 0xb (valid) 0xa4-0xa4.7 (1)
    |                                               |                |            [7]{}: code 0xa5-0xad.7 (9)
0xa0|               08                              |     .          |              size: 8 0xa5-0xa5.7 (1)
    |                                               |                |              code{}: 0xa6-0xad.7 (8)
    |                                               |                |                t{}: 0xa6-0xa6.7 (1)
0xa0|                  00                           |      .         |                  n: 0 0xa6-0xa6.7 (1)
    |                                               |                |                  x[0:0]: 0xa7-NA (0)
    |                                               |                |                e[0:4]: 0xa7-0xad.7 (7)
    |                                               |                |                  [0]{}: in 0xa7-0xa8.7 (2)
0xa0|                     20                        |                |                    local.get: 0x20 (valid) 0xa7-0xa7.7 (1)
0xa0|                        00                     |        .       |                    x: 0 0xa8-0xa8.7 (1)
    |                                               |                |                  [1]{}: in 0xa9-0xaa.7 (2)
0xa0|                           20                  |                |                    local.get: 0x20 (valid) 0xa9-0xa9.7 (1)
0xa0|                              01               |          .     |                    x: 1 0xaa-0xaa.7 (1)
    |                                               |                |                  [2]{}: in 0xab-0xac.7 (2)
0xa0|                                 fd            |           .    |                    prefix: 0xfd (valid) 0xab-0xab.7 (1)
0xa0|                                    3c         |            <   |                    i32x4.gt_u: 60 (valid) 0xac-0xac.7 (1)
    |                                               |                |                  [3]{}: in 0xad-0xad.7 (1)
0xa0|                                       0b      |             .  |                    end: 0xb (valid) 0xad-0xad.7 (1)
    |                                               |                |            [8]{}: code 0xae-0xb6.7 (9)
0xa0|                                          08   |              . |              size: 8 0xae-0xae.7 (1)
    |                                               |                |              code{}: 0xaf-0xb6.7 (8)
    |                                               |                |                t{}: 0xaf-0xaf.7 (1)
0xa0|                                             00|               .|                  n: 0 0xaf-0xaf.7 (1)
    |                                               |                |                  x[0:0]: 0xb0-NA (0)
    |                                               |                |                e[0:4]: 0xb0-0xb6.7 (7)
    |                                               |                |                  [0]{}: in 0xb0-0xb1.7 (2)
0xb0|20                                             |                |                    local.get: 0x20 (valid) 0xb0-0xb0.7 (1)
0xb0|   00                                          | .              |                    x: 0 0xb1-0xb1.7 (1)
    |                                               |                |                  [1]{}: in 0xb2-0xb3.7 (2)
0xb0|      20                                       |                |                    local.get: 0x20 (valid) 0xb2-0xb2.7 (1)
0xb0|         01                                    |   .            |                    x: 1 0xb3-0xb3.7 (1)
    |                                               |                |                  [2]{}: in 0xb4-0xb5.7 (2)
0xb0|            fd                                 |    .           |                    prefix: 0xfd (valid) 0xb4-0xb4.7 (1)
0xb0|               3f                              |     ?          |                    i32x4.ge_s: 63 (valid) 0xb5-0xb5.7 (1)
    |                                               |                |                  [3]{}: in 0xb6-0xb6.7 (1)
0xb0|                  0b                           |      .         |                    end: 0xb (valid) 0xb6-0xb6.7 (1)
    |                                               |                |            [9]{}: code 0xb7-0xbf.7 (9)
0xb0|                     08                        |       .        |              size: 8 0xb7-0xb7.7 (1)
    |                                               |                |              code{}: 0xb8-0xbf.7 (8)
    |                                               |                |                t{}: 0xb8-0xb8.7 (1)
0xb0|                        00                     |        .       |                  n: 0 0xb8-0xb8.7 (1)
    |                                               |                |                  x[0:0]: 0xb9-NA (0)
    |                                               |                |                e[0:4]: 0xb9-0xbf.7 (7)
    |                                               |                |                  [0]{}: in 0xb9-0xba.7 (2)
0xb0|                           20                  |                |                    local.get: 0x20 (valid) 0xb9-0xb9.7 (1)
0xb0|                              00               |          .     |                    x: 0 0xba-0xba.7 (1)
    |                                               |                |                  [1]{}: in 0xbb-0xbc.7 (2)
0xb0|                                 20            |                |                    local.get: 0x20 (valid) 0xbb-0xbb.7 (1)
0xb0|                                    01         |            .   |                    x: 1 0xbc-0xbc.7 (1)
    |                                               |                |                  [2]{}: in 0xbd-0xbe.7 (2)
0xb0|                                       fd      |             .  |                    prefix: 0xfd (valid) 0xbd-0xbd.7 (1)
0xb0|                                          40   |              @ |                    i32x4.ge_u: 64 (valid) 0xbe-0xbe.7 (1)
    |                                               |                |                  [3]{}: in 0xbf-0xbf.7 (1)
0xb0|                                             0b|               .|                    end: 0xb (valid) 0xbf-0xbf.7 (1)
