$ fq -d wasm dv simd_f64x2_arith-0.wasm
    |00 01 02 03 04 05 06 07 08 09 0a 0b 0c 0d 0e 0f|0123456789abcdef|.{}: simd_f64x2_arith-0.wasm (wasm) 0x0-0xa6 (166)
0x00|00 61 73 6d                                    |.asm            |  magic: raw bits (valid) 0x0-0x4 (4)
0x00|            01 00 00 00                        |    ....        |  version: 1 0x4-0x8 (4)
    |                                               |                |  sections[0:4]: 0x8-0xa6 (158)
    |                                               |                |    [0]{}: section 0x8-0x16 (14)
0x00|                        01                     |        .       |      id: "type_section" (1) 0x8-0x9 (1)
0x00|                           0c                  |         .      |      size: 12 (valid) 0x9-0xa (1)
    |                                               |                |      content{}: 0xa-0x16 (12)
    |                                               |                |        ft{}: 0xa-0x16 (12)
0x00|                              02               |          .     |          n: 2 (valid) 0xa-0xb (1)
    |                                               |                |          x[0:2]: 0xb-0x16 (11)
    |                                               |                |            [0]{}: ft 0xb-0x11 (6)
0x00|                                 60            |           `    |              tag: 0x60 (valid) 0xb-0xc (1)
    |                                               |                |              rt1{}: 0xc-0xf (3)
0x00|                                    02         |            .   |                n: 2 (valid) 0xc-0xd (1)
    |                                               |                |                x[0:2]: 0xd-0xf (2)
0x00|                                       7b      |             {  |                  [0]: "v128" (0x7b) t 0xd-0xe (1)
0x00|                                          7b   |              { |                  [1]: "v128" (0x7b) t 0xe-0xf (1)
    |                                               |                |              rt2{}: 0xf-0x11 (2)
0x00|                                             01|               .|                n: 1 (valid) 0xf-0x10 (1)
    |                                               |                |                x[0:1]: 0x10-0x11 (1)
0x10|7b                                             |{               |                  [0]: "v128" (0x7b) t 0x10-0x11 (1)
    |                                               |                |            [1]{}: ft 0x11-0x16 (5)
0x10|   60                                          | `              |              tag: 0x60 (valid) 0x11-0x12 (1)
    |                                               |                |              rt1{}: 0x12-0x14 (2)
0x10|      01                                       |  .             |                n: 1 (valid) 0x12-0x13 (1)
    |                                               |                |                x[0:1]: 0x13-0x14 (1)
0x10|         7b                                    |   {            |                  [0]: "v128" (0x7b) t 0x13-0x14 (1)
    |                                               |                |              rt2{}: 0x14-0x16 (2)
0x10|            01                                 |    .           |                n: 1 (valid) 0x14-0x15 (1)
    |                                               |                |                x[0:1]: 0x15-0x16 (1)
0x10|               7b                              |     {          |                  [0]: "v128" (0x7b) t 0x15-0x16 (1)
    |                                               |                |    [1]{}: section 0x16-0x1f (9)
0x10|                  03                           |      .         |      id: "function_section" (3) 0x16-0x17 (1)
0x10|                     07                        |       .        |      size: 7 (valid) 0x17-0x18 (1)
    |                                               |                |      content{}: 0x18-0x1f (7)
    |                                               |                |        x{}: 0x18-0x1f (7)
0x10|                        06                     |        .       |          n: 6 (valid) 0x18-0x19 (1)
    |                                               |                |          x[0:6]: 0x19-0x1f (6)
0x10|                           00                  |         .      |            [0]: 0 x (valid) 0x19-0x1a (1)
0x10|                              00               |          .     |            [1]: 0 x (valid) 0x1a-0x1b (1)
0x10|                                 00            |           .    |            [2]: 0 x (valid) 0x1b-0x1c (1)
0x10|                                    00         |            .   |            [3]: 0 x (valid) 0x1c-0x1d (1)
0x10|                                       01      |             .  |            [4]: 1 x (valid) 0x1d-0x1e (1)
0x10|                                          01   |              . |            [5]: 1 x (valid) 0x1e-0x1f (1)
    |                                               |                |    [2]{}: section 0x1f-0x6b (76)
0x10|                                             07|               .|      id: "export_section" (7) 0x1f-0x20 (1)
0x20|4a                                             |J               |      size: 74 (valid) 0x20-0x21 (1)
    |                                               |                |      content{}: 0x21-0x6b (74)
    |                                               |                |        ex{}: 0x21-0x6b (74)
0x20|   06                                          | .              |          n: 6 (valid) 0x21-0x22 (1)
    |                                               |                |          x[0:6]: 0x22-0x6b (73)
    |                                               |                |            [0]{}: ex 0x22-0x2e (12)
    |                                               |                |              nm{}: 0x22-0x2c (10)
0x20|      09                                       |  .             |                n: 9 (valid) 0x22-0x23 (1)
0x20|         66 36 34 78 32 2e 61 64 64            |   f64x2.add    |                b: "f64x2.add" 0x23-0x2c (9)
    |                                               |                |              d{}: 0x2c-0x2e (2)
0x20|                                    00         |            .   |                tag: "funcidx" (0x0) 0x2c-0x2d (1)
0x20|                                       00      |             .  |                x: 0 (valid) 0x2d-0x2e (1)
    |                                               |                |            [1]{}: ex 0x2e-0x3a (12)
    |                                               |                |              nm{}: 0x2e-0x38 (10)
0x20|                                          09   |              . |                n: 9 (valid) 0x2e-0x2f (1)
0x20|                                             66|               f|                b: "f64x2.sub" 0x2f-0x38 (9)
0x30|36 34 78 32 2e 73 75 62                        |64x2.sub        |
    |                                               |                |              d{}: 0x38-0x3a (2)
0x30|                        00                     |        .       |                tag: "funcidx" (0x0) 0x38-0x39 (1)
0x30|                           01                  |         .      |                x: 1 (valid) 0x39-0x3a (1)
    |                                               |                |            [2]{}: ex 0x3a-0x46 (12)
    |                                               |                |              nm{}: 0x3a-0x44 (10)
0x30|                              09               |          .     |                n: 9 (valid) 0x3a-0x3b (1)
0x30|                                 66 36 34 78 32|           f64x2|                b: "f64x2.mul" 0x3b-0x44 (9)
0x40|2e 6d 75 6c                                    |.mul            |
    |                                               |                |              d{}: 0x44-0x46 (2)
0x40|            00                                 |    .           |                tag: "funcidx" (0x0) 0x44-0x45 (1)
0x40|               02                              |     .          |                x: 2 (valid) 0x45-0x46 (1)
    |                                               |                |            [3]{}: ex 0x46-0x52 (12)
    |                                               |                |              nm{}: 0x46-0x50 (10)
0x40|                  09                           |      .         |                n: 9 (valid) 0x46-0x47 (1)
0x40|                     66 36 34 78 32 2e 64 69 76|       f64x2.div|                b: "f64x2.div" 0x47-0x50 (9)
    |                                               |                |              d{}: 0x50-0x52 (2)
0x50|00                                             |.               |                tag: "funcidx" (0x0) 0x50-0x51 (1)
0x50|   03                                          | .              |                x: 3 (valid) 0x51-0x52 (1)
    |                                               |                |            [4]{}: ex 0x52-0x5e (12)
    |                                               |                |              nm{}: 0x52-0x5c (10)
0x50|      09                                       |  .             |                n: 9 (valid) 0x52-0x53 (1)
0x50|         66 36 34 78 32 2e 6e 65 67            |   f64x2.neg    |                b: "f64x2.neg" 0x53-0x5c (9)
    |                                               |                |              d{}: 0x5c-0x5e (2)
0x50|                                    00         |            .   |                tag: "funcidx" (0x0) 0x5c-0x5d (1)
0x50|                                       04      |             .  |                x: 4 (valid) 0x5d-0x5e (1)
    |                                               |                |            [5]{}: ex 0x5e-0x6b (13)
    |                                               |                |              nm{}: 0x5e-0x69 (11)
0x50|                                          0a   |              . |                n: 10 (valid) 0x5e-0x5f (1)
0x50|                                             66|               f|                b: "f64x2.sqrt" 0x5f-0x69 (10)
0x60|36 34 78 32 2e 73 71 72 74                     |64x2.sqrt       |
    |                                               |                |              d{}: 0x69-0x6b (2)
0x60|                           00                  |         .      |                tag: "funcidx" (0x0) 0x69-0x6a (1)
0x60|                              05               |          .     |                x: 5 (valid) 0x6a-0x6b (1)
    |                                               |                |    [3]{}: section 0x6b-0xa6 (59)
0x60|                                 0a            |           .    |      id: "code_section" (10) 0x6b-0x6c (1)
0x60|                                    39         |            9   |      size: 57 (valid) 0x6c-0x6d (1)
    |                                               |                |      content{}: 0x6d-0xa6 (57)
    |                                               |                |        code{}: 0x6d-0xa6 (57)
0x60|                                       06      |             .  |          n: 6 (valid) 0x6d-0x6e (1)
    |                                               |                |          x[0:6]: 0x6e-0xa6 (56)
    |                                               |                |            [0]{}: code 0x6e-0x78 (10)
0x60|                                          09   |              . |              size: 9 (valid) 0x6e-0x6f (1)
    |                                               |                |              code{}: 0x6f-0x78 (9)
    |                                               |                |                t{}: 0x6f-0x70 (1)
0x60|                                             00|               .|                  n: 0 (valid) 0x6f-0x70 (1)
    |                                               |                |                  x[0:0]: 0x70-0x70 (0)
    |                                               |                |                e[0:4]: 0x70-0x78 (8)
    |                                               |                |                  [0]{}: in 0x70-0x72 (2)
0x70|20                                             |                |                    opcode: "local.get" (0x20) 0x70-0x71 (1)
0x70|   00                                          | .              |                    x: 0 (valid) 0x71-0x72 (1)
    |                                               |                |                  [1]{}: in 0x72-0x74 (2)
0x70|      20                                       |                |                    opcode: "local.get" (0x20) 0x72-0x73 (1)
0x70|         01                                    |   .            |                    x: 1 (valid) 0x73-0x74 (1)
    |                                               |                |                  [2]{}: in 0x74-0x77 (3)
0x70|            fd                                 |    .           |                    opcode: "vector" (0xfd) 0x74-0x75 (1)
0x70|               f0 01                           |     ..         |                    v_opcode: "f64x2.add" (240) 0x75-0x77 (2)
    |                                               |                |                  [3]{}: in 0x77-0x78 (1)
0x70|                     0b                        |       .        |                    opcode: "end" (0xb) 0x77-0x78 (1)
    |                                               |                |            [1]{}: code 0x78-0x82 (10)
0x70|                        09                     |        .       |              size: 9 (valid) 0x78-0x79 (1)
    |                                               |                |              code{}: 0x79-0x82 (9)
    |                                               |                |                t{}: 0x79-0x7a (1)
0x70|                           00                  |         .      |                  n: 0 (valid) 0x79-0x7a (1)
    |                                               |                |                  x[0:0]: 0x7a-0x7a (0)
    |                                               |                |                e[0:4]: 0x7a-0x82 (8)
    |                                               |                |                  [0]{}: in 0x7a-0x7c (2)
0x70|                              20               |                |                    opcode: "local.get" (0x20) 0x7a-0x7b (1)
0x70|                                 00            |           .    |                    x: 0 (valid) 0x7b-0x7c (1)
    |                                               |                |                  [1]{}: in 0x7c-0x7e (2)
0x70|                                    20         |                |                    opcode: "local.get" (0x20) 0x7c-0x7d (1)
0x70|                                       01      |             .  |                    x: 1 (valid) 0x7d-0x7e (1)
    |                                               |                |                  [2]{}: in 0x7e-0x81 (3)
0x70|                                          fd   |              . |                    opcode: "vector" (0xfd) 0x7e-0x7f (1)
0x70|                                             f1|               .|                    v_opcode: "f64x2.sub" (241) 0x7f-0x81 (2)
0x80|01                                             |.               |
    |                                               |                |                  [3]{}: in 0x81-0x82 (1)
0x80|   0b                                          | .              |                    opcode: "end" (0xb) 0x81-0x82 (1)
    |                                               |                |            [2]{}: code 0x82-0x8c (10)
0x80|      09                                       |  .             |              size: 9 (valid) 0x82-0x83 (1)
    |                                               |                |              code{}: 0x83-0x8c (9)
    |                                               |                |                t{}: 0x83-0x84 (1)
0x80|         00                                    |   .            |                  n: 0 (valid) 0x83-0x84 (1)
    |                                               |                |                  x[0:0]: 0x84-0x84 (0)
    |                                               |                |                e[0:4]: 0x84-0x8c (8)
    |                                               |                |                  [0]{}: in 0x84-0x86 (2)
0x80|            20                                 |                |                    opcode: "local.get" (0x20) 0x84-0x85 (1)
0x80|               00                              |     .          |                    x: 0 (valid) 0x85-0x86 (1)
    |                                               |                |                  [1]{}: in 0x86-0x88 (2)
0x80|                  20                           |                |                    opcode: "local.get" (0x20) 0x86-0x87 (1)
0x80|                     01                        |       .        |                    x: 1 (valid) 0x87-0x88 (1)
    |                                               |                |                  [2]{}: in 0x88-0x8b (3)
0x80|                        fd                     |        .       |                    opcode: "vector" (0xfd) 0x88-0x89 (1)
0x80|                           f2 01               |         ..     |                    v_opcode: "f64x2.mul" (242) 0x89-0x8b (2)
    |                                               |                |                  [3]{}: in 0x8b-0x8c (1)
0x80|                                 0b            |           .    |                    opcode: "end" (0xb) 0x8b-0x8c (1)
    |                                               |                |            [3]{}: code 0x8c-0x96 (10)
0x80|                                    09         |            .   |              size: 9 (valid) 0x8c-0x8d (1)
    |                                               |                |              code{}: 0x8d-0x96 (9)
    |                                               |                |                t{}: 0x8d-0x8e (1)
0x80|                                       00      |             .  |                  n: 0 (valid) 0x8d-0x8e (1)
    |                                               |                |                  x[0:0]: 0x8e-0x8e (0)
    |                                               |                |                e[0:4]: 0x8e-0x96 (8)
    |                                               |                |                  [0]{}: in 0x8e-0x90 (2)
0x80|                                          20   |                |                    opcode: "local.get" (0x20) 0x8e-0x8f (1)
0x80|                                             00|               .|                    x: 0 (valid) 0x8f-0x90 (1)
    |                                               |                |                  [1]{}: in 0x90-0x92 (2)
0x90|20                                             |                |                    opcode: "local.get" (0x20) 0x90-0x91 (1)
0x90|   01                                          | .              |                    x: 1 (valid) 0x91-0x92 (1)
    |                                               |                |                  [2]{}: in 0x92-0x95 (3)
0x90|      fd                                       |  .             |                    opcode: "vector" (0xfd) 0x92-0x93 (1)
0x90|         f3 01                                 |   ..           |                    v_opcode: "f64x2.div" (243) 0x93-0x95 (2)
    |                                               |                |                  [3]{}: in 0x95-0x96 (1)
0x90|               0b                              |     .          |                    opcode: "end" (0xb) 0x95-0x96 (1)
    |                                               |                |            [4]{}: code 0x96-0x9e (8)
0x90|                  07                           |      .         |              size: 7 (valid) 0x96-0x97 (1)
    |                                               |                |              code{}: 0x97-0x9e (7)
    |                                               |                |                t{}: 0x97-0x98 (1)
0x90|                     00                        |       .        |                  n: 0 (valid) 0x97-0x98 (1)
    |                                               |                |                  x[0:0]: 0x98-0x98 (0)
    |                                               |                |                e[0:3]: 0x98-0x9e (6)
    |                                               |                |                  [0]{}: in 0x98-0x9a (2)
0x90|                        20                     |                |                    opcode: "local.get" (0x20) 0x98-0x99 (1)
0x90|                           00                  |         .      |                    x: 0 (valid) 0x99-0x9a (1)
    |                                               |                |                  [1]{}: in 0x9a-0x9d (3)
0x90|                              fd               |          .     |                    opcode: "vector" (0xfd) 0x9a-0x9b (1)
0x90|                                 ed 01         |           ..   |                    v_opcode: "f64x2.neg" (237) 0x9b-0x9d (2)
    |                                               |                |                  [2]{}: in 0x9d-0x9e (1)
0x90|                                       0b      |             .  |                    opcode: "end" (0xb) 0x9d-0x9e (1)
    |                                               |                |            [5]{}: code 0x9e-0xa6 (8)
0x90|                                          07   |              . |              size: 7 (valid) 0x9e-0x9f (1)
    |                                               |                |              code{}: 0x9f-0xa6 (7)
    |                                               |                |                t{}: 0x9f-0xa0 (1)
0x90|                                             00|               .|                  n: 0 (valid) 0x9f-0xa0 (1)
    |                                               |                |                  x[0:0]: 0xa0-0xa0 (0)
    |                                               |                |                e[0:3]: 0xa0-0xa6 (6)
    |                                               |                |                  [0]{}: in 0xa0-0xa2 (2)
0xa0|20                                             |                |                    opcode: "local.get" (0x20) 0xa0-0xa1 (1)
0xa0|   00                                          | .              |                    x: 0 (valid) 0xa1-0xa2 (1)
    |                                               |                |                  [1]{}: in 0xa2-0xa5 (3)
0xa0|      fd                                       |  .             |                    opcode: "vector" (0xfd) 0xa2-0xa3 (1)
0xa0|         ef 01                                 |   ..           |                    v_opcode: "f64x2.sqrt" (239) 0xa3-0xa5 (2)
    |                                               |                |                  [2]{}: in 0xa5-0xa6 (1)
0xa0|               0b|                             |     .|         |                    opcode: "end" (0xb) 0xa5-0xa6 (1)
