$ fq -d wasm dv simd_i8x16_sat_arith-1.wasm
     |00 01 02 03 04 05 06 07 08 09 0a 0b 0c 0d 0e 0f|0123456789abcdef|.{}: simd_i8x16_sat_arith-1.wasm (wasm) 0x0-0x111.7 (274)
0x000|00 61 73 6d                                    |.asm            |  magic: raw bits (valid) 0x0-0x3.7 (4)
0x000|            01 00 00 00                        |    ....        |  version: 1 0x4-0x7.7 (4)
     |                                               |                |  sections[0:4]: 0x8-0x111.7 (266)
     |                                               |                |    [0]{}: section 0x8-0x17.7 (16)
0x000|                        01                     |        .       |      id: "type section" (1) 0x8-0x8.7 (1)
0x000|                           0e                  |         .      |      size: 14 0x9-0x9.7 (1)
     |                                               |                |      content{}: 0xa-0x17.7 (14)
     |                                               |                |        ft{}: 0xa-0x17.7 (14)
0x000|                              02               |          .     |          n: 2 0xa-0xa.7 (1)
     |                                               |                |          x[0:2]: 0xb-0x17.7 (13)
     |                                               |                |            [0]{}: ft 0xb-0x11.7 (7)
0x000|                                 60            |           `    |              tag: 0x60 (valid) 0xb-0xb.7 (1)
     |                                               |                |              rt1{}: 0xc-0xf.7 (4)
0x000|                                    03         |            .   |                n: 3 0xc-0xc.7 (1)
     |                                               |                |                x[0:3]: 0xd-0xf.7 (3)
0x000|                                       7b      |             {  |                  [0]: "v128" (0x7b) t 0xd-0xd.7 (1)
0x000|                                          7b   |              { |                  [1]: "v128" (0x7b) t 0xe-0xe.7 (1)
0x000|                                             7b|               {|                  [2]: "v128" (0x7b) t 0xf-0xf.7 (1)
     |                                               |                |              rt2{}: 0x10-0x11.7 (2)
0x010|01                                             |.               |                n: 1 0x10-0x10.7 (1)
     |                                               |                |                x[0:1]: 0x11-0x11.7 (1)
0x010|   7b                                          | {              |                  [0]: "v128" (0x7b) t 0x11-0x11.7 (1)
     |                                               |                |            [1]{}: ft 0x12-0x17.7 (6)
0x010|      60                                       |  `             |              tag: 0x60 (valid) 0x12-0x12.7 (1)
     |                                               |                |              rt1{}: 0x13-0x15.7 (3)
0x010|         02                                    |   .            |                n: 2 0x13-0x13.7 (1)
     |                                               |                |                x[0:2]: 0x14-0x15.7 (2)
0x010|            7b                                 |    {           |                  [0]: "v128" (0x7b) t 0x14-0x14.7 (1)
0x010|               7b                              |     {          |                  [1]: "v128" (0x7b) t 0x15-0x15.7 (1)
     |                                               |                |              rt2{}: 0x16-0x17.7 (2)
0x010|                  01                           |      .         |                n: 1 0x16-0x16.7 (1)
     |                                               |                |                x[0:1]: 0x17-0x17.7 (1)
0x010|                     7b                        |       {        |                  [0]: "v128" (0x7b) t 0x17-0x17.7 (1)
     |                                               |                |    [1]{}: section 0x18-0x22.7 (11)
0x010|                        03                     |        .       |      id: "function section" (3) 0x18-0x18.7 (1)
0x010|                           09                  |         .      |      size: 9 0x19-0x19.7 (1)
     |                                               |                |      content{}: 0x1a-0x22.7 (9)
     |                                               |                |        x{}: 0x1a-0x22.7 (9)
0x010|                              08               |          .     |          n: 8 0x1a-0x1a.7 (1)
     |                                               |                |          x[0:8]: 0x1b-0x22.7 (8)
0x010|                                 00            |           .    |            [0]: 0 x 0x1b-0x1b.7 (1)
0x010|                                    00         |            .   |            [1]: 0 x 0x1c-0x1c.7 (1)
0x010|                                       00      |             .  |            [2]: 0 x 0x1d-0x1d.7 (1)
0x010|                                          00   |              . |            [3]: 0 x 0x1e-0x1e.7 (1)
0x010|                                             01|               .|            [4]: 1 x 0x1f-0x1f.7 (1)
0x020|01                                             |.               |            [5]: 1 x 0x20-0x20.7 (1)
0x020|   01                                          | .              |            [6]: 1 x 0x21-0x21.7 (1)
0x020|      01                                       |  .             |            [7]: 1 x 0x22-0x22.7 (1)
     |                                               |                |    [2]{}: section 0x23-0xae.7 (140)
0x020|         07                                    |   .            |      id: "export section" (7) 0x23-0x23.7 (1)
0x020|            89 01                              |    ..          |      size: 137 0x24-0x25.7 (2)
     |                                               |                |      content{}: 0x26-0xae.7 (137)
     |                                               |                |        ex{}: 0x26-0xae.7 (137)
0x020|                  08                           |      .         |          n: 8 0x26-0x26.7 (1)
     |                                               |                |          x[0:8]: 0x27-0xae.7 (136)
     |                                               |                |            [0]{}: ex 0x27-0x38.7 (18)
     |                                               |                |              nm{}: 0x27-0x36.7 (16)
0x020|                     0f                        |       .        |                n: 15 0x27-0x27.7 (1)
0x020|                        73 61 74 2d 61 64 64 5f|        sat-add_|                b: "sat-add_s-sub_s" 0x28-0x36.7 (15)
0x030|73 2d 73 75 62 5f 73                           |s-sub_s         |
     |                                               |                |              d{}: 0x37-0x38.7 (2)
0x030|                     00                        |       .        |                tag: "funcidx" (0x0) 0x37-0x37.7 (1)
0x030|                        00                     |        .       |                x: 0 0x38-0x38.7 (1)
     |                                               |                |            [1]{}: ex 0x39-0x4a.7 (18)
     |                                               |                |              nm{}: 0x39-0x48.7 (16)
0x030|                           0f                  |         .      |                n: 15 0x39-0x39.7 (1)
0x030|                              73 61 74 2d 61 64|          sat-ad|                b: "sat-add_s-sub_u" 0x3a-0x48.7 (15)
0x040|64 5f 73 2d 73 75 62 5f 75                     |d_s-sub_u       |
     |                                               |                |              d{}: 0x49-0x4a.7 (2)
0x040|                           00                  |         .      |                tag: "funcidx" (0x0) 0x49-0x49.7 (1)
0x040|                              01               |          .     |                x: 1 0x4a-0x4a.7 (1)
     |                                               |                |            [2]{}: ex 0x4b-0x5c.7 (18)
     |                                               |                |              nm{}: 0x4b-0x5a.7 (16)
0x040|                                 0f            |           .    |                n: 15 0x4b-0x4b.7 (1)
0x040|                                    73 61 74 2d|            sat-|                b: "sat-add_u-sub_s" 0x4c-0x5a.7 (15)
0x050|61 64 64 5f 75 2d 73 75 62 5f 73               |add_u-sub_s     |
     |                                               |                |              d{}: 0x5b-0x5c.7 (2)
0x050|                                 00            |           .    |                tag: "funcidx" (0x0) 0x5b-0x5b.7 (1)
0x050|                                    02         |            .   |                x: 2 0x5c-0x5c.7 (1)
     |                                               |                |            [3]{}: ex 0x5d-0x6e.7 (18)
     |                                               |                |              nm{}: 0x5d-0x6c.7 (16)
0x050|                                       0f      |             .  |                n: 15 0x5d-0x5d.7 (1)
0x050|                                          73 61|              sa|                b: "sat-add_u-sub_u" 0x5e-0x6c.7 (15)
0x060|74 2d 61 64 64 5f 75 2d 73 75 62 5f 75         |t-add_u-sub_u   |
     |                                               |                |              d{}: 0x6d-0x6e.7 (2)
0x060|                                       00      |             .  |                tag: "funcidx" (0x0) 0x6d-0x6d.7 (1)
0x060|                                          03   |              . |                x: 3 0x6e-0x6e.7 (1)
     |                                               |                |            [4]{}: ex 0x6f-0x7e.7 (16)
     |                                               |                |              nm{}: 0x6f-0x7c.7 (14)
0x060|                                             0d|               .|                n: 13 0x6f-0x6f.7 (1)
0x070|73 61 74 2d 61 64 64 5f 73 2d 6e 65 67         |sat-add_s-neg   |                b: "sat-add_s-neg" 0x70-0x7c.7 (13)
     |                                               |                |              d{}: 0x7d-0x7e.7 (2)
0x070|                                       00      |             .  |                tag: "funcidx" (0x0) 0x7d-0x7d.7 (1)
0x070|                                          04   |              . |                x: 4 0x7e-0x7e.7 (1)
     |                                               |                |            [5]{}: ex 0x7f-0x8e.7 (16)
     |                                               |                |              nm{}: 0x7f-0x8c.7 (14)
0x070|                                             0d|               .|                n: 13 0x7f-0x7f.7 (1)
0x080|73 61 74 2d 61 64 64 5f 75 2d 6e 65 67         |sat-add_u-neg   |                b: "sat-add_u-neg" 0x80-0x8c.7 (13)
     |                                               |                |              d{}: 0x8d-0x8e.7 (2)
0x080|                                       00      |             .  |                tag: "funcidx" (0x0) 0x8d-0x8d.7 (1)
0x080|                                          05   |              . |                x: 5 0x8e-0x8e.7 (1)
     |                                               |                |            [6]{}: ex 0x8f-0x9e.7 (16)
     |                                               |                |              nm{}: 0x8f-0x9c.7 (14)
0x080|                                             0d|               .|                n: 13 0x8f-0x8f.7 (1)
0x090|73 61 74 2d 73 75 62 5f 73 2d 6e 65 67         |sat-sub_s-neg   |                b: "sat-sub_s-neg" 0x90-0x9c.7 (13)
     |                                               |                |              d{}: 0x9d-0x9e.7 (2)
0x090|                                       00      |             .  |                tag: "funcidx" (0x0) 0x9d-0x9d.7 (1)
0x090|                                          06   |              . |                x: 6 0x9e-0x9e.7 (1)
     |                                               |                |            [7]{}: ex 0x9f-0xae.7 (16)
     |                                               |                |              nm{}: 0x9f-0xac.7 (14)
0x090|                                             0d|               .|                n: 13 0x9f-0x9f.7 (1)
0x0a0|73 61 74 2d 73 75 62 5f 75 2d 6e 65 67         |sat-sub_u-neg   |                b: "sat-sub_u-neg" 0xa0-0xac.7 (13)
     |                                               |                |              d{}: 0xad-0xae.7 (2)
0x0a0|                                       00      |             .  |                tag: "funcidx" (0x0) 0xad-0xad.7 (1)
0x0a0|                                          07   |              . |                x: 7 0xae-0xae.7 (1)
     |                                               |                |    [3]{}: section 0xaf-0x111.7 (99)
0x0a0|                                             0a|               .|      id: "code section" (10) 0xaf-0xaf.7 (1)
0x0b0|61                                             |a               |      size: 97 0xb0-0xb0.7 (1)
     |                                               |                |      content{}: 0xb1-0x111.7 (97)
     |                                               |                |        code{}: 0xb1-0x111.7 (97)
0x0b0|   08                                          | .              |          n: 8 0xb1-0xb1.7 (1)
     |                                               |                |          x[0:8]: 0xb2-0x111.7 (96)
     |                                               |                |            [0]{}: code 0xb2-0xbe.7 (13)
0x0b0|      0c                                       |  .             |              size: 12 0xb2-0xb2.7 (1)
     |                                               |                |              code{}: 0xb3-0xbe.7 (12)
     |                                               |                |                t{}: 0xb3-0xb3.7 (1)
0x0b0|         00                                    |   .            |                  n: 0 0xb3-0xb3.7 (1)
     |                                               |                |                  x[0:0]: 0xb4-NA (0)
     |                                               |                |                e[0:6]: 0xb4-0xbe.7 (11)
     |                                               |                |                  [0]{}: in 0xb4-0xb5.7 (2)
0x0b0|            20                                 |                |                    local.get: 0x20 (valid) 0xb4-0xb4.7 (1)
0x0b0|               00                              |     .          |                    x: 0 0xb5-0xb5.7 (1)
     |                                               |                |                  [1]{}: in 0xb6-0xb7.7 (2)
0x0b0|                  20                           |                |                    local.get: 0x20 (valid) 0xb6-0xb6.7 (1)
0x0b0|                     01                        |       .        |                    x: 1 0xb7-0xb7.7 (1)
     |                                               |                |                  [2]{}: in 0xb8-0xb9.7 (2)
0x0b0|                        fd                     |        .       |                    prefix: 0xfd (valid) 0xb8-0xb8.7 (1)
0x0b0|                           72                  |         r      |                    i8x16.sub_sat_s: 114 (valid) 0xb9-0xb9.7 (1)
     |                                               |                |                  [3]{}: in 0xba-0xbb.7 (2)
0x0b0|                              20               |                |                    local.get: 0x20 (valid) 0xba-0xba.7 (1)
0x0b0|                                 02            |           .    |                    x: 2 0xbb-0xbb.7 (1)
     |                                               |                |                  [4]{}: in 0xbc-0xbd.7 (2)
0x0b0|                                    fd         |            .   |                    prefix: 0xfd (valid) 0xbc-0xbc.7 (1)
0x0b0|                                       6f      |             o  |                    i8x16.add_sat_s: 111 (valid) 0xbd-0xbd.7 (1)
     |                                               |                |                  [5]{}: in 0xbe-0xbe.7 (1)
0x0b0|                                          0b   |              . |                    end: 0xb (valid) 0xbe-0xbe.7 (1)
     |                                               |                |            [1]{}: code 0xbf-0xcb.7 (13)
0x0b0|                                             0c|               .|              size: 12 0xbf-0xbf.7 (1)
     |                                               |                |              code{}: 0xc0-0xcb.7 (12)
     |                                               |                |                t{}: 0xc0-0xc0.7 (1)
0x0c0|00                                             |.               |                  n: 0 0xc0-0xc0.7 (1)
     |                                               |                |                  x[0:0]: 0xc1-NA (0)
     |                                               |                |                e[0:6]: 0xc1-0xcb.7 (11)
     |                                               |                |                  [0]{}: in 0xc1-0xc2.7 (2)
0x0c0|   20                                          |                |                    local.get: 0x20 (valid) 0xc1-0xc1.7 (1)
0x0c0|      00                                       |  .             |                    x: 0 0xc2-0xc2.7 (1)
     |                                               |                |                  [1]{}: in 0xc3-0xc4.7 (2)
0x0c0|         20                                    |                |                    local.get: 0x20 (valid) 0xc3-0xc3.7 (1)
0x0c0|            01                                 |    .           |                    x: 1 0xc4-0xc4.7 (1)
     |                                               |                |                  [2]{}: in 0xc5-0xc6.7 (2)
0x0c0|               fd                              |     .          |                    prefix: 0xfd (valid) 0xc5-0xc5.7 (1)
0x0c0|                  73                           |      s         |                    i8x16.sub_sat_u: 115 (valid) 0xc6-0xc6.7 (1)
     |                                               |                |                  [3]{}: in 0xc7-0xc8.7 (2)
0x0c0|                     20                        |                |                    local.get: 0x20 (valid) 0xc7-0xc7.7 (1)
0x0c0|                        02                     |        .       |                    x: 2 0xc8-0xc8.7 (1)
     |                                               |                |                  [4]{}: in 0xc9-0xca.7 (2)
0x0c0|                           fd                  |         .      |                    prefix: 0xfd (valid) 0xc9-0xc9.7 (1)
0x0c0|                              6f               |          o     |                    i8x16.add_sat_s: 111 (valid) 0xca-0xca.7 (1)
     |                                               |                |                  [5]{}: in 0xcb-0xcb.7 (1)
0x0c0|                                 0b            |           .    |                    end: 0xb (valid) 0xcb-0xcb.7 (1)
     |                                               |                |            [2]{}: code 0xcc-0xd8.7 (13)
0x0c0|                                    0c         |            .   |              size: 12 0xcc-0xcc.7 (1)
     |                                               |                |              code{}: 0xcd-0xd8.7 (12)
     |                                               |                |                t{}: 0xcd-0xcd.7 (1)
0x0c0|                                       00      |             .  |                  n: 0 0xcd-0xcd.7 (1)
     |                                               |                |                  x[0:0]: 0xce-NA (0)
     |                                               |                |                e[0:6]: 0xce-0xd8.7 (11)
     |                                               |                |                  [0]{}: in 0xce-0xcf.7 (2)
0x0c0|                                          20   |                |                    local.get: 0x20 (valid) 0xce-0xce.7 (1)
0x0c0|                                             00|               .|                    x: 0 0xcf-0xcf.7 (1)
     |                                               |                |                  [1]{}: in 0xd0-0xd1.7 (2)
0x0d0|20                                             |                |                    local.get: 0x20 (valid) 0xd0-0xd0.7 (1)
0x0d0|   01                                          | .              |                    x: 1 0xd1-0xd1.7 (1)
     |                                               |                |                  [2]{}: in 0xd2-0xd3.7 (2)
0x0d0|      fd                                       |  .             |                    prefix: 0xfd (valid) 0xd2-0xd2.7 (1)
0x0d0|         72                                    |   r            |                    i8x16.sub_sat_s: 114 (valid) 0xd3-0xd3.7 (1)
     |                                               |                |                  [3]{}: in 0xd4-0xd5.7 (2)
0x0d0|            20                                 |                |                    local.get: 0x20 (valid) 0xd4-0xd4.7 (1)
0x0d0|               02                              |     .          |                    x: 2 0xd5-0xd5.7 (1)
     |                                               |                |                  [4]{}: in 0xd6-0xd7.7 (2)
0x0d0|                  fd                           |      .         |                    prefix: 0xfd (valid) 0xd6-0xd6.7 (1)
0x0d0|                     70                        |       p        |                    i8x16.add_sat_u: 112 (valid) 0xd7-0xd7.7 (1)
     |                                               |                |                  [5]{}: in 0xd8-0xd8.7 (1)
0x0d0|                        0b                     |        .       |                    end: 0xb (valid) 0xd8-0xd8.7 (1)
     |                                               |                |            [3]{}: code 0xd9-0xe5.7 (13)
0x0d0|                           0c                  |         .      |              size: 12 0xd9-0xd9.7 (1)
     |                                               |                |              code{}: 0xda-0xe5.7 (12)
     |                                               |                |                t{}: 0xda-0xda.7 (1)
0x0d0|                              00               |          .     |                  n: 0 0xda-0xda.7 (1)
     |                                               |                |                  x[0:0]: 0xdb-NA (0)
     |                                               |                |                e[0:6]: 0xdb-0xe5.7 (11)
     |                                               |                |                  [0]{}: in 0xdb-0xdc.7 (2)
0x0d0|                                 20            |                |                    local.get: 0x20 (valid) 0xdb-0xdb.7 (1)
0x0d0|                                    00         |            .   |                    x: 0 0xdc-0xdc.7 (1)
     |                                               |                |                  [1]{}: in 0xdd-0xde.7 (2)
0x0d0|                                       20      |                |                    local.get: 0x20 (valid) 0xdd-0xdd.7 (1)
0x0d0|                                          01   |              . |                    x: 1 0xde-0xde.7 (1)
     |                                               |                |                  [2]{}: in 0xdf-0xe0.7 (2)
0x0d0|                                             fd|               .|                    prefix: 0xfd (valid) 0xdf-0xdf.7 (1)
0x0e0|73                                             |s               |                    i8x16.sub_sat_u: 115 (valid) 0xe0-0xe0.7 (1)
     |                                               |                |                  [3]{}: in 0xe1-0xe2.7 (2)
0x0e0|   20                                          |                |                    local.get: 0x20 (valid) 0xe1-0xe1.7 (1)
0x0e0|      02                                       |  .             |                    x: 2 0xe2-0xe2.7 (1)
     |                                               |                |                  [4]{}: in 0xe3-0xe4.7 (2)
0x0e0|         fd                                    |   .            |                    prefix: 0xfd (valid) 0xe3-0xe3.7 (1)
0x0e0|            70                                 |    p           |                    i8x16.add_sat_u: 112 (valid) 0xe4-0xe4.7 (1)
     |                                               |                |                  [5]{}: in 0xe5-0xe5.7 (1)
0x0e0|               0b                              |     .          |                    end: 0xb (valid) 0xe5-0xe5.7 (1)
     |                                               |                |            [4]{}: code 0xe6-0xf0.7 (11)
0x0e0|                  0a                           |      .         |              size: 10 0xe6-0xe6.7 (1)
     |                                               |                |              code{}: 0xe7-0xf0.7 (10)
     |                                               |                |                t{}: 0xe7-0xe7.7 (1)
0x0e0|                     00                        |       .        |                  n: 0 0xe7-0xe7.7 (1)
     |                                               |                |                  x[0:0]: 0xe8-NA (0)
     |                                               |                |                e[0:5]: 0xe8-0xf0.7 (9)
     |                                               |                |                  [0]{}: in 0xe8-0xe9.7 (2)
0x0e0|                        20                     |                |                    local.get: 0x20 (valid) 0xe8-0xe8.7 (1)
0x0e0|                           00                  |         .      |                    x: 0 0xe9-0xe9.7 (1)
     |                                               |                |                  [1]{}: in 0xea-0xeb.7 (2)
0x0e0|                              fd               |          .     |                    prefix: 0xfd (valid) 0xea-0xea.7 (1)
0x0e0|                                 61            |           a    |                    i8x16.neg: 97 (valid) 0xeb-0xeb.7 (1)
     |                                               |                |                  [2]{}: in 0xec-0xed.7 (2)
0x0e0|                                    20         |                |                    local.get: 0x20 (valid) 0xec-0xec.7 (1)
0x0e0|                                       01      |             .  |                    x: 1 0xed-0xed.7 (1)
     |                                               |                |                  [3]{}: in 0xee-0xef.7 (2)
0x0e0|                                          fd   |              . |                    prefix: 0xfd (valid) 0xee-0xee.7 (1)
0x0e0|                                             6f|               o|                    i8x16.add_sat_s: 111 (valid) 0xef-0xef.7 (1)
     |                                               |                |                  [4]{}: in 0xf0-0xf0.7 (1)
0x0f0|0b                                             |.               |                    end: 0xb (valid) 0xf0-0xf0.7 (1)
     |                                               |                |            [5]{}: code 0xf1-0xfb.7 (11)
0x0f0|   0a                                          | .              |              size: 10 0xf1-0xf1.7 (1)
     |                                               |                |              code{}: 0xf2-0xfb.7 (10)
     |                                               |                |                t{}: 0xf2-0xf2.7 (1)
0x0f0|      00                                       |  .             |                  n: 0 0xf2-0xf2.7 (1)
     |                                               |                |                  x[0:0]: 0xf3-NA (0)
     |                                               |                |                e[0:5]: 0xf3-0xfb.7 (9)
     |                                               |                |                  [0]{}: in 0xf3-0xf4.7 (2)
0x0f0|         20                                    |                |                    local.get: 0x20 (valid) 0xf3-0xf3.7 (1)
0x0f0|            00                                 |    .           |                    x: 0 0xf4-0xf4.7 (1)
     |                                               |                |                  [1]{}: in 0xf5-0xf6.7 (2)
0x0f0|               fd                              |     .          |                    prefix: 0xfd (valid) 0xf5-0xf5.7 (1)
0x0f0|                  61                           |      a         |                    i8x16.neg: 97 (valid) 0xf6-0xf6.7 (1)
     |                                               |                |                  [2]{}: in 0xf7-0xf8.7 (2)
0x0f0|                     20                        |                |                    local.get: 0x20 (valid) 0xf7-0xf7.7 (1)
0x0f0|                        01                     |        .       |                    x: 1 0xf8-0xf8.7 (1)
     |                                               |                |                  [3]{}: in 0xf9-0xfa.7 (2)
0x0f0|                           fd                  |         .      |                    prefix: 0xfd (valid) 0xf9-0xf9.7 (1)
0x0f0|                              70               |          p     |                    i8x16.add_sat_u: 112 (valid) 0xfa-0xfa.7 (1)
     |                                               |                |                  [4]{}: in 0xfb-0xfb.7 (1)
0x0f0|                                 0b            |           .    |                    end: 0xb (valid) 0xfb-0xfb.7 (1)
     |                                               |                |            [6]{}: code 0xfc-0x106.7 (11)
0x0f0|                                    0a         |            .   |              size: 10 0xfc-0xfc.7 (1)
     |                                               |                |              code{}: 0xfd-0x106.7 (10)
     |                                               |                |                t{}: 0xfd-0xfd.7 (1)
0x0f0|                                       00      |             .  |                  n: 0 0xfd-0xfd.7 (1)
     |                                               |                |                  x[0:0]: 0xfe-NA (0)
     |                                               |                |                e[0:5]: 0xfe-0x106.7 (9)
     |                                               |                |                  [0]{}: in 0xfe-0xff.7 (2)
0x0f0|                                          20   |                |                    local.get: 0x20 (valid) 0xfe-0xfe.7 (1)
0x0f0|                                             00|               .|                    x: 0 0xff-0xff.7 (1)
     |                                               |                |                  [1]{}: in 0x100-0x101.7 (2)
0x100|fd                                             |.               |                    prefix: 0xfd (valid) 0x100-0x100.7 (1)
0x100|   61                                          | a              |                    i8x16.neg: 97 (valid) 0x101-0x101.7 (1)
     |                                               |                |                  [2]{}: in 0x102-0x103.7 (2)
0x100|      20                                       |                |                    local.get: 0x20 (valid) 0x102-0x102.7 (1)
0x100|         01                                    |   .            |                    x: 1 0x103-0x103.7 (1)
     |                                               |                |                  [3]{}: in 0x104-0x105.7 (2)
0x100|            fd                                 |    .           |                    prefix: 0xfd (valid) 0x104-0x104.7 (1)
0x100|               72                              |     r          |                    i8x16.sub_sat_s: 114 (valid) 0x105-0x105.7 (1)
     |                                               |                |                  [4]{}: in 0x106-0x106.7 (1)
0x100|                  0b                           |      .         |                    end: 0xb (valid) 0x106-0x106.7 (1)
     |                                               |                |            [7]{}: code 0x107-0x111.7 (11)
0x100|                     0a                        |       .        |              size: 10 0x107-0x107.7 (1)
     |                                               |                |              code{}: 0x108-0x111.7 (10)
     |                                               |                |                t{}: 0x108-0x108.7 (1)
0x100|                        00                     |        .       |                  n: 0 0x108-0x108.7 (1)
     |                                               |                |                  x[0:0]: 0x109-NA (0)
     |                                               |                |                e[0:5]: 0x109-0x111.7 (9)
     |                                               |                |                  [0]{}: in 0x109-0x10a.7 (2)
0x100|                           20                  |                |                    local.get: 0x20 (valid) 0x109-0x109.7 (1)
0x100|                              00               |          .     |                    x: 0 0x10a-0x10a.7 (1)
     |                                               |                |                  [1]{}: in 0x10b-0x10c.7 (2)
0x100|                                 fd            |           .    |                    prefix: 0xfd (valid) 0x10b-0x10b.7 (1)
0x100|                                    61         |            a   |                    i8x16.neg: 97 (valid) 0x10c-0x10c.7 (1)
     |                                               |                |                  [2]{}: in 0x10d-0x10e.7 (2)
0x100|                                       20      |                |                    local.get: 0x20 (valid) 0x10d-0x10d.7 (1)
0x100|                                          01   |              . |                    x: 1 0x10e-0x10e.7 (1)
     |                                               |                |                  [3]{}: in 0x10f-0x110.7 (2)
0x100|                                             fd|               .|                    prefix: 0xfd (valid) 0x10f-0x10f.7 (1)
0x110|73                                             |s               |                    i8x16.sub_sat_u: 115 (valid) 0x110-0x110.7 (1)
     |                                               |                |                  [4]{}: in 0x111-0x111.7 (1)
0x110|   0b|                                         | .|             |                    end: 0xb (valid) 0x111-0x111.7 (1)
