$ fq -d wasm dv simd_i8x16_arith-1.wasm
    |00 01 02 03 04 05 06 07 08 09 0a 0b 0c 0d 0e 0f|0123456789abcdef|.{}: simd_i8x16_arith-1.wasm (wasm) 0x0-0x7c.7 (125)
0x00|00 61 73 6d                                    |.asm            |  magic: raw bits (valid) 0x0-0x3.7 (4)
0x00|            01 00 00 00                        |    ....        |  version: 1 0x4-0x7.7 (4)
    |                                               |                |  sections[0:4]: 0x8-0x7c.7 (117)
    |                                               |                |    [0]{}: section 0x8-0x17.7 (16)
0x00|                        01                     |        .       |      id: "type_section" (1) 0x8-0x8.7 (1)
0x00|                           0e                  |         .      |      size: 14 (valid) 0x9-0x9.7 (1)
    |                                               |                |      content{}: 0xa-0x17.7 (14)
    |                                               |                |        ft{}: 0xa-0x17.7 (14)
0x00|                              02               |          .     |          n: 2 (valid) 0xa-0xa.7 (1)
    |                                               |                |          x[0:2]: 0xb-0x17.7 (13)
    |                                               |                |            [0]{}: ft 0xb-0x11.7 (7)
0x00|                                 60            |           `    |              tag: 0x60 (valid) 0xb-0xb.7 (1)
    |                                               |                |              rt1{}: 0xc-0xf.7 (4)
0x00|                                    03         |            .   |                n: 3 (valid) 0xc-0xc.7 (1)
    |                                               |                |                x[0:3]: 0xd-0xf.7 (3)
0x00|                                       7b      |             {  |                  [0]: "v128" (0x7b) t 0xd-0xd.7 (1)
0x00|                                          7b   |              { |                  [1]: "v128" (0x7b) t 0xe-0xe.7 (1)
0x00|                                             7b|               {|                  [2]: "v128" (0x7b) t 0xf-0xf.7 (1)
    |                                               |                |              rt2{}: 0x10-0x11.7 (2)
0x10|01                                             |.               |                n: 1 (valid) 0x10-0x10.7 (1)
    |                                               |                |                x[0:1]: 0x11-0x11.7 (1)
0x10|   7b                                          | {              |                  [0]: "v128" (0x7b) t 0x11-0x11.7 (1)
    |                                               |                |            [1]{}: ft 0x12-0x17.7 (6)
0x10|      60                                       |  `             |              tag: 0x60 (valid) 0x12-0x12.7 (1)
    |                                               |                |              rt1{}: 0x13-0x15.7 (3)
0x10|         02                                    |   .            |                n: 2 (valid) 0x13-0x13.7 (1)
    |                                               |                |                x[0:2]: 0x14-0x15.7 (2)
0x10|            7b                                 |    {           |                  [0]: "v128" (0x7b) t 0x14-0x14.7 (1)
0x10|               7b                              |     {          |                  [1]: "v128" (0x7b) t 0x15-0x15.7 (1)
    |                                               |                |              rt2{}: 0x16-0x17.7 (2)
0x10|                  01                           |      .         |                n: 1 (valid) 0x16-0x16.7 (1)
    |                                               |                |                x[0:1]: 0x17-0x17.7 (1)
0x10|                     7b                        |       {        |                  [0]: "v128" (0x7b) t 0x17-0x17.7 (1)
    |                                               |                |    [1]{}: section 0x18-0x1e.7 (7)
0x10|                        03                     |        .       |      id: "function_section" (3) 0x18-0x18.7 (1)
0x10|                           05                  |         .      |      size: 5 (valid) 0x19-0x19.7 (1)
    |                                               |                |      content{}: 0x1a-0x1e.7 (5)
    |                                               |                |        x{}: 0x1a-0x1e.7 (5)
0x10|                              04               |          .     |          n: 4 (valid) 0x1a-0x1a.7 (1)
    |                                               |                |          x[0:4]: 0x1b-0x1e.7 (4)
0x10|                                 00            |           .    |            [0]: 0 x (valid) 0x1b-0x1b.7 (1)
0x10|                                    00         |            .   |            [1]: 0 x (valid) 0x1c-0x1c.7 (1)
0x10|                                       01      |             .  |            [2]: 1 x (valid) 0x1d-0x1d.7 (1)
0x10|                                          01   |              . |            [3]: 1 x (valid) 0x1e-0x1e.7 (1)
    |                                               |                |    [2]{}: section 0x1f-0x49.7 (43)
0x10|                                             07|               .|      id: "export_section" (7) 0x1f-0x1f.7 (1)
0x20|29                                             |)               |      size: 41 (valid) 0x20-0x20.7 (1)
    |                                               |                |      content{}: 0x21-0x49.7 (41)
    |                                               |                |        ex{}: 0x21-0x49.7 (41)
0x20|   04                                          | .              |          n: 4 (valid) 0x21-0x21.7 (1)
    |                                               |                |          x[0:4]: 0x22-0x49.7 (40)
    |                                               |                |            [0]{}: ex 0x22-0x2b.7 (10)
    |                                               |                |              nm{}: 0x22-0x29.7 (8)
0x20|      07                                       |  .             |                n: 7 (valid) 0x22-0x22.7 (1)
0x20|         61 64 64 2d 73 75 62                  |   add-sub      |                b: "add-sub" 0x23-0x29.7 (7)
    |                                               |                |              d{}: 0x2a-0x2b.7 (2)
0x20|                              00               |          .     |                tag: "funcidx" (0x0) 0x2a-0x2a.7 (1)
0x20|                                 00            |           .    |                x: 0 (valid) 0x2b-0x2b.7 (1)
    |                                               |                |            [1]{}: ex 0x2c-0x35.7 (10)
    |                                               |                |              nm{}: 0x2c-0x33.7 (8)
0x20|                                    07         |            .   |                n: 7 (valid) 0x2c-0x2c.7 (1)
0x20|                                       73 75 62|             sub|                b: "sub-add" 0x2d-0x33.7 (7)
0x30|2d 61 64 64                                    |-add            |
    |                                               |                |              d{}: 0x34-0x35.7 (2)
0x30|            00                                 |    .           |                tag: "funcidx" (0x0) 0x34-0x34.7 (1)
0x30|               01                              |     .          |                x: 1 (valid) 0x35-0x35.7 (1)
    |                                               |                |            [2]{}: ex 0x36-0x3f.7 (10)
    |                                               |                |              nm{}: 0x36-0x3d.7 (8)
0x30|                  07                           |      .         |                n: 7 (valid) 0x36-0x36.7 (1)
0x30|                     61 64 64 2d 6e 65 67      |       add-neg  |                b: "add-neg" 0x37-0x3d.7 (7)
    |                                               |                |              d{}: 0x3e-0x3f.7 (2)
0x30|                                          00   |              . |                tag: "funcidx" (0x0) 0x3e-0x3e.7 (1)
0x30|                                             02|               .|                x: 2 (valid) 0x3f-0x3f.7 (1)
    |                                               |                |            [3]{}: ex 0x40-0x49.7 (10)
    |                                               |                |              nm{}: 0x40-0x47.7 (8)
0x40|07                                             |.               |                n: 7 (valid) 0x40-0x40.7 (1)
0x40|   73 75 62 2d 6e 65 67                        | sub-neg        |                b: "sub-neg" 0x41-0x47.7 (7)
    |                                               |                |              d{}: 0x48-0x49.7 (2)
0x40|                        00                     |        .       |                tag: "funcidx" (0x0) 0x48-0x48.7 (1)
0x40|                           03                  |         .      |                x: 3 (valid) 0x49-0x49.7 (1)
    |                                               |                |    [3]{}: section 0x4a-0x7c.7 (51)
0x40|                              0a               |          .     |      id: "code_section" (10) 0x4a-0x4a.7 (1)
0x40|                                 31            |           1    |      size: 49 (valid) 0x4b-0x4b.7 (1)
    |                                               |                |      content{}: 0x4c-0x7c.7 (49)
    |                                               |                |        code{}: 0x4c-0x7c.7 (49)
0x40|                                    04         |            .   |          n: 4 (valid) 0x4c-0x4c.7 (1)
    |                                               |                |          x[0:4]: 0x4d-0x7c.7 (48)
    |                                               |                |            [0]{}: code 0x4d-0x59.7 (13)
0x40|                                       0c      |             .  |              size: 12 (valid) 0x4d-0x4d.7 (1)
    |                                               |                |              code{}: 0x4e-0x59.7 (12)
    |                                               |                |                t{}: 0x4e-0x4e.7 (1)
0x40|                                          00   |              . |                  n: 0 (valid) 0x4e-0x4e.7 (1)
    |                                               |                |                  x[0:0]: 0x4f-NA (0)
    |                                               |                |                e[0:6]: 0x4f-0x59.7 (11)
    |                                               |                |                  [0]{}: in 0x4f-0x50.7 (2)
0x40|                                             20|                |                    opcode: "local.get" (0x20) 0x4f-0x4f.7 (1)
0x50|00                                             |.               |                    x: 0 (valid) 0x50-0x50.7 (1)
    |                                               |                |                  [1]{}: in 0x51-0x52.7 (2)
0x50|   20                                          |                |                    opcode: "local.get" (0x20) 0x51-0x51.7 (1)
0x50|      01                                       |  .             |                    x: 1 (valid) 0x52-0x52.7 (1)
    |                                               |                |                  [2]{}: in 0x53-0x54.7 (2)
0x50|         fd                                    |   .            |                    opcode: "vector" (0xfd) 0x53-0x53.7 (1)
0x50|            71                                 |    q           |                    v_opcode: "i8x16.sub" (113) 0x54-0x54.7 (1)
    |                                               |                |                  [3]{}: in 0x55-0x56.7 (2)
0x50|               20                              |                |                    opcode: "local.get" (0x20) 0x55-0x55.7 (1)
0x50|                  02                           |      .         |                    x: 2 (valid) 0x56-0x56.7 (1)
    |                                               |                |                  [4]{}: in 0x57-0x58.7 (2)
0x50|                     fd                        |       .        |                    opcode: "vector" (0xfd) 0x57-0x57.7 (1)
0x50|                        6e                     |        n       |                    v_opcode: "i8x16.add" (110) 0x58-0x58.7 (1)
    |                                               |                |                  [5]{}: in 0x59-0x59.7 (1)
0x50|                           0b                  |         .      |                    opcode: "end" (0xb) 0x59-0x59.7 (1)
    |                                               |                |            [1]{}: code 0x5a-0x66.7 (13)
0x50|                              0c               |          .     |              size: 12 (valid) 0x5a-0x5a.7 (1)
    |                                               |                |              code{}: 0x5b-0x66.7 (12)
    |                                               |                |                t{}: 0x5b-0x5b.7 (1)
0x50|                                 00            |           .    |                  n: 0 (valid) 0x5b-0x5b.7 (1)
    |                                               |                |                  x[0:0]: 0x5c-NA (0)
    |                                               |                |                e[0:6]: 0x5c-0x66.7 (11)
    |                                               |                |                  [0]{}: in 0x5c-0x5d.7 (2)
0x50|                                    20         |                |                    opcode: "local.get" (0x20) 0x5c-0x5c.7 (1)
0x50|                                       00      |             .  |                    x: 0 (valid) 0x5d-0x5d.7 (1)
    |                                               |                |                  [1]{}: in 0x5e-0x5f.7 (2)
0x50|                                          20   |                |                    opcode: "local.get" (0x20) 0x5e-0x5e.7 (1)
0x50|                                             01|               .|                    x: 1 (valid) 0x5f-0x5f.7 (1)
    |                                               |                |                  [2]{}: in 0x60-0x61.7 (2)
0x60|fd                                             |.               |                    opcode: "vector" (0xfd) 0x60-0x60.7 (1)
0x60|   6e                                          | n              |                    v_opcode: "i8x16.add" (110) 0x61-0x61.7 (1)
    |                                               |                |                  [3]{}: in 0x62-0x63.7 (2)
0x60|      20                                       |                |                    opcode: "local.get" (0x20) 0x62-0x62.7 (1)
0x60|         02                                    |   .            |                    x: 2 (valid) 0x63-0x63.7 (1)
    |                                               |                |                  [4]{}: in 0x64-0x65.7 (2)
0x60|            fd                                 |    .           |                    opcode: "vector" (0xfd) 0x64-0x64.7 (1)
0x60|               71                              |     q          |                    v_opcode: "i8x16.sub" (113) 0x65-0x65.7 (1)
    |                                               |                |                  [5]{}: in 0x66-0x66.7 (1)
0x60|                  0b                           |      .         |                    opcode: "end" (0xb) 0x66-0x66.7 (1)
    |                                               |                |            [2]{}: code 0x67-0x71.7 (11)
0x60|                     0a                        |       .        |              size: 10 (valid) 0x67-0x67.7 (1)
    |                                               |                |              code{}: 0x68-0x71.7 (10)
    |                                               |                |                t{}: 0x68-0x68.7 (1)
0x60|                        00                     |        .       |                  n: 0 (valid) 0x68-0x68.7 (1)
    |                                               |                |                  x[0:0]: 0x69-NA (0)
    |                                               |                |                e[0:5]: 0x69-0x71.7 (9)
    |                                               |                |                  [0]{}: in 0x69-0x6a.7 (2)
0x60|                           20                  |                |                    opcode: "local.get" (0x20) 0x69-0x69.7 (1)
0x60|                              00               |          .     |                    x: 0 (valid) 0x6a-0x6a.7 (1)
    |                                               |                |                  [1]{}: in 0x6b-0x6c.7 (2)
0x60|                                 fd            |           .    |                    opcode: "vector" (0xfd) 0x6b-0x6b.7 (1)
0x60|                                    61         |            a   |                    v_opcode: "i8x16.neg" (97) 0x6c-0x6c.7 (1)
    |                                               |                |                  [2]{}: in 0x6d-0x6e.7 (2)
0x60|                                       20      |                |                    opcode: "local.get" (0x20) 0x6d-0x6d.7 (1)
0x60|                                          01   |              . |                    x: 1 (valid) 0x6e-0x6e.7 (1)
    |                                               |                |                  [3]{}: in 0x6f-0x70.7 (2)
0x60|                                             fd|               .|                    opcode: "vector" (0xfd) 0x6f-0x6f.7 (1)
0x70|6e                                             |n               |                    v_opcode: "i8x16.add" (110) 0x70-0x70.7 (1)
    |                                               |                |                  [4]{}: in 0x71-0x71.7 (1)
0x70|   0b                                          | .              |                    opcode: "end" (0xb) 0x71-0x71.7 (1)
    |                                               |                |            [3]{}: code 0x72-0x7c.7 (11)
0x70|      0a                                       |  .             |              size: 10 (valid) 0x72-0x72.7 (1)
    |                                               |                |              code{}: 0x73-0x7c.7 (10)
    |                                               |                |                t{}: 0x73-0x73.7 (1)
0x70|         00                                    |   .            |                  n: 0 (valid) 0x73-0x73.7 (1)
    |                                               |                |                  x[0:0]: 0x74-NA (0)
    |                                               |                |                e[0:5]: 0x74-0x7c.7 (9)
    |                                               |                |                  [0]{}: in 0x74-0x75.7 (2)
0x70|            20                                 |                |                    opcode: "local.get" (0x20) 0x74-0x74.7 (1)
0x70|               00                              |     .          |                    x: 0 (valid) 0x75-0x75.7 (1)
    |                                               |                |                  [1]{}: in 0x76-0x77.7 (2)
0x70|                  fd                           |      .         |                    opcode: "vector" (0xfd) 0x76-0x76.7 (1)
0x70|                     61                        |       a        |                    v_opcode: "i8x16.neg" (97) 0x77-0x77.7 (1)
    |                                               |                |                  [2]{}: in 0x78-0x79.7 (2)
0x70|                        20                     |                |                    opcode: "local.get" (0x20) 0x78-0x78.7 (1)
0x70|                           01                  |         .      |                    x: 1 (valid) 0x79-0x79.7 (1)
    |                                               |                |                  [3]{}: in 0x7a-0x7b.7 (2)
0x70|                              fd               |          .     |                    opcode: "vector" (0xfd) 0x7a-0x7a.7 (1)
0x70|                                 71            |           q    |                    v_opcode: "i8x16.sub" (113) 0x7b-0x7b.7 (1)
    |                                               |                |                  [4]{}: in 0x7c-0x7c.7 (1)
0x70|                                    0b|        |            .|  |                    opcode: "end" (0xb) 0x7c-0x7c.7 (1)
