$ fq -d wasm dv simd_f32x4_cmp-1.wasm
     |00 01 02 03 04 05 06 07 08 09 0a 0b 0c 0d 0e 0f|0123456789abcdef|.{}: simd_f32x4_cmp-1.wasm (wasm) 0x0-0x354 (852)
0x000|00 61 73 6d                                    |.asm            |  magic: raw bits (valid) 0x0-0x4 (4)
0x000|            01 00 00 00                        |    ....        |  version: 1 0x4-0x8 (4)
     |                                               |                |  sections[0:5]: 0x8-0x354 (844)
     |                                               |                |    [0]{}: section 0x8-0xe (6)
0x000|                        01                     |        .       |      id: "type_section" (1) 0x8-0x9 (1)
0x000|                           04                  |         .      |      size: 4 (valid) 0x9-0xa (1)
     |                                               |                |      content{}: 0xa-0xe (4)
     |                                               |                |        ft{}: 0xa-0xe (4)
0x000|                              01               |          .     |          n: 1 (valid) 0xa-0xb (1)
     |                                               |                |          x[0:1]: 0xb-0xe (3)
     |                                               |                |            [0]{}: ft 0xb-0xe (3)
0x000|                                 60            |           `    |              tag: 0x60 (valid) 0xb-0xc (1)
     |                                               |                |              rt1{}: 0xc-0xd (1)
0x000|                                    00         |            .   |                n: 0 (valid) 0xc-0xd (1)
     |                                               |                |                x[0:0]: 0xd-0xd (0)
     |                                               |                |              rt2{}: 0xd-0xe (1)
0x000|                                       00      |             .  |                n: 0 (valid) 0xd-0xe (1)
     |                                               |                |                x[0:0]: 0xe-0xe (0)
     |                                               |                |    [1]{}: section 0xe-0x1e (16)
0x000|                                          03   |              . |      id: "function_section" (3) 0xe-0xf (1)
0x000|                                             0e|               .|      size: 14 (valid) 0xf-0x10 (1)
     |                                               |                |      content{}: 0x10-0x1e (14)
     |                                               |                |        x{}: 0x10-0x1e (14)
0x010|0d                                             |.               |          n: 13 (valid) 0x10-0x11 (1)
     |                                               |                |          x[0:13]: 0x11-0x1e (13)
0x010|   00                                          | .              |            [0]: 0 x (valid) 0x11-0x12 (1)
0x010|      00                                       |  .             |            [1]: 0 x (valid) 0x12-0x13 (1)
0x010|         00                                    |   .            |            [2]: 0 x (valid) 0x13-0x14 (1)
0x010|            00                                 |    .           |            [3]: 0 x (valid) 0x14-0x15 (1)
0x010|               00                              |     .          |            [4]: 0 x (valid) 0x15-0x16 (1)
0x010|                  00                           |      .         |            [5]: 0 x (valid) 0x16-0x17 (1)
0x010|                     00                        |       .        |            [6]: 0 x (valid) 0x17-0x18 (1)
0x010|                        00                     |        .       |            [7]: 0 x (valid) 0x18-0x19 (1)
0x010|                           00                  |         .      |            [8]: 0 x (valid) 0x19-0x1a (1)
0x010|                              00               |          .     |            [9]: 0 x (valid) 0x1a-0x1b (1)
0x010|                                 00            |           .    |            [10]: 0 x (valid) 0x1b-0x1c (1)
0x010|                                    00         |            .   |            [11]: 0 x (valid) 0x1c-0x1d (1)
0x010|                                       00      |             .  |            [12]: 0 x (valid) 0x1d-0x1e (1)
     |                                               |                |    [2]{}: section 0x1e-0x23 (5)
0x010|                                          05   |              . |      id: "memory_section" (5) 0x1e-0x1f (1)
0x010|                                             03|               .|      size: 3 (valid) 0x1f-0x20 (1)
     |                                               |                |      content{}: 0x20-0x23 (3)
     |                                               |                |        mem{}: 0x20-0x23 (3)
0x020|01                                             |.               |          n: 1 (valid) 0x20-0x21 (1)
     |                                               |                |          x[0:1]: 0x21-0x23 (2)
     |                                               |                |            [0]{}: mem 0x21-0x23 (2)
     |                                               |                |              lim{}: 0x21-0x23 (2)
0x020|   00                                          | .              |                tag: 0x0 0x21-0x22 (1)
0x020|      01                                       |  .             |                n: 1 (valid) 0x22-0x23 (1)
     |                                               |                |    [3]{}: section 0x23-0xce (171)
0x020|         07                                    |   .            |      id: "export_section" (7) 0x23-0x24 (1)
0x020|            a8 01                              |    ..          |      size: 168 (valid) 0x24-0x26 (2)
     |                                               |                |      content{}: 0x26-0xce (168)
     |                                               |                |        ex{}: 0x26-0xce (168)
0x020|                  0d                           |      .         |          n: 13 (valid) 0x26-0x27 (1)
     |                                               |                |          x[0:13]: 0x27-0xce (167)
     |                                               |                |            [0]{}: ex 0x27-0x35 (14)
     |                                               |                |              nm{}: 0x27-0x33 (12)
0x020|                     0b                        |       .        |                n: 11 (valid) 0x27-0x28 (1)
0x020|                        65 71 2d 69 6e 2d 62 6c|        eq-in-bl|                b: "eq-in-block" 0x28-0x33 (11)
0x030|6f 63 6b                                       |ock             |
     |                                               |                |              d{}: 0x33-0x35 (2)
0x030|         00                                    |   .            |                tag: "funcidx" (0x0) 0x33-0x34 (1)
0x030|            00                                 |    .           |                x: 0 (valid) 0x34-0x35 (1)
     |                                               |                |            [1]{}: ex 0x35-0x43 (14)
     |                                               |                |              nm{}: 0x35-0x41 (12)
0x030|               0b                              |     .          |                n: 11 (valid) 0x35-0x36 (1)
0x030|                  6e 65 2d 69 6e 2d 62 6c 6f 63|      ne-in-bloc|                b: "ne-in-block" 0x36-0x41 (11)
0x040|6b                                             |k               |
     |                                               |                |              d{}: 0x41-0x43 (2)
0x040|   00                                          | .              |                tag: "funcidx" (0x0) 0x41-0x42 (1)
0x040|      01                                       |  .             |                x: 1 (valid) 0x42-0x43 (1)
     |                                               |                |            [2]{}: ex 0x43-0x51 (14)
     |                                               |                |              nm{}: 0x43-0x4f (12)
0x040|         0b                                    |   .            |                n: 11 (valid) 0x43-0x44 (1)
0x040|            6c 74 2d 69 6e 2d 62 6c 6f 63 6b   |    lt-in-block |                b: "lt-in-block" 0x44-0x4f (11)
     |                                               |                |              d{}: 0x4f-0x51 (2)
0x040|                                             00|               .|                tag: "funcidx" (0x0) 0x4f-0x50 (1)
0x050|02                                             |.               |                x: 2 (valid) 0x50-0x51 (1)
     |                                               |                |            [3]{}: ex 0x51-0x5f (14)
     |                                               |                |              nm{}: 0x51-0x5d (12)
0x050|   0b                                          | .              |                n: 11 (valid) 0x51-0x52 (1)
0x050|      6c 65 2d 69 6e 2d 62 6c 6f 63 6b         |  le-in-block   |                b: "le-in-block" 0x52-0x5d (11)
     |                                               |                |              d{}: 0x5d-0x5f (2)
0x050|                                       00      |             .  |                tag: "funcidx" (0x0) 0x5d-0x5e (1)
0x050|                                          03   |              . |                x: 3 (valid) 0x5e-0x5f (1)
     |                                               |                |            [4]{}: ex 0x5f-0x6d (14)
     |                                               |                |              nm{}: 0x5f-0x6b (12)
0x050|                                             0b|               .|                n: 11 (valid) 0x5f-0x60 (1)
0x060|67 74 2d 69 6e 2d 62 6c 6f 63 6b               |gt-in-block     |                b: "gt-in-block" 0x60-0x6b (11)
     |                                               |                |              d{}: 0x6b-0x6d (2)
0x060|                                 00            |           .    |                tag: "funcidx" (0x0) 0x6b-0x6c (1)
0x060|                                    04         |            .   |                x: 4 (valid) 0x6c-0x6d (1)
     |                                               |                |            [5]{}: ex 0x6d-0x7b (14)
     |                                               |                |              nm{}: 0x6d-0x79 (12)
0x060|                                       0b      |             .  |                n: 11 (valid) 0x6d-0x6e (1)
0x060|                                          67 65|              ge|                b: "ge-in-block" 0x6e-0x79 (11)
0x070|2d 69 6e 2d 62 6c 6f 63 6b                     |-in-block       |
     |                                               |                |              d{}: 0x79-0x7b (2)
0x070|                           00                  |         .      |                tag: "funcidx" (0x0) 0x79-0x7a (1)
0x070|                              05               |          .     |                x: 5 (valid) 0x7a-0x7b (1)
     |                                               |                |            [6]{}: ex 0x7b-0x87 (12)
     |                                               |                |              nm{}: 0x7b-0x85 (10)
0x070|                                 09            |           .    |                n: 9 (valid) 0x7b-0x7c (1)
0x070|                                    6e 65 73 74|            nest|                b: "nested-eq" 0x7c-0x85 (9)
0x080|65 64 2d 65 71                                 |ed-eq           |
     |                                               |                |              d{}: 0x85-0x87 (2)
0x080|               00                              |     .          |                tag: "funcidx" (0x0) 0x85-0x86 (1)
0x080|                  06                           |      .         |                x: 6 (valid) 0x86-0x87 (1)
     |                                               |                |            [7]{}: ex 0x87-0x93 (12)
     |                                               |                |              nm{}: 0x87-0x91 (10)
0x080|                     09                        |       .        |                n: 9 (valid) 0x87-0x88 (1)
0x080|                        6e 65 73 74 65 64 2d 6e|        nested-n|                b: "nested-ne" 0x88-0x91 (9)
0x090|65                                             |e               |
     |                                               |                |              d{}: 0x91-0x93 (2)
0x090|   00                                          | .              |                tag: "funcidx" (0x0) 0x91-0x92 (1)
0x090|      07                                       |  .             |                x: 7 (valid) 0x92-0x93 (1)
     |                                               |                |            [8]{}: ex 0x93-0x9f (12)
     |                                               |                |              nm{}: 0x93-0x9d (10)
0x090|         09                                    |   .            |                n: 9 (valid) 0x93-0x94 (1)
0x090|            6e 65 73 74 65 64 2d 6c 74         |    nested-lt   |                b: "nested-lt" 0x94-0x9d (9)
     |                                               |                |              d{}: 0x9d-0x9f (2)
0x090|                                       00      |             .  |                tag: "funcidx" (0x0) 0x9d-0x9e (1)
0x090|                                          08   |              . |                x: 8 (valid) 0x9e-0x9f (1)
     |                                               |                |            [9]{}: ex 0x9f-0xab (12)
     |                                               |                |              nm{}: 0x9f-0xa9 (10)
0x090|                                             09|               .|                n: 9 (valid) 0x9f-0xa0 (1)
0x0a0|6e 65 73 74 65 64 2d 6c 65                     |nested-le       |                b: "nested-le" 0xa0-0xa9 (9)
     |                                               |                |              d{}: 0xa9-0xab (2)
0x0a0|                           00                  |         .      |                tag: "funcidx" (0x0) 0xa9-0xaa (1)
0x0a0|                              09               |          .     |                x: 9 (valid) 0xaa-0xab (1)
     |                                               |                |            [10]{}: ex 0xab-0xb7 (12)
     |                                               |                |              nm{}: 0xab-0xb5 (10)
0x0a0|                                 09            |           .    |                n: 9 (valid) 0xab-0xac (1)
0x0a0|                                    6e 65 73 74|            nest|                b: "nested-gt" 0xac-0xb5 (9)
0x0b0|65 64 2d 67 74                                 |ed-gt           |
     |                                               |                |              d{}: 0xb5-0xb7 (2)
0x0b0|               00                              |     .          |                tag: "funcidx" (0x0) 0xb5-0xb6 (1)
0x0b0|                  0a                           |      .         |                x: 10 (valid) 0xb6-0xb7 (1)
     |                                               |                |            [11]{}: ex 0xb7-0xc3 (12)
     |                                               |                |              nm{}: 0xb7-0xc1 (10)
0x0b0|                     09                        |       .        |                n: 9 (valid) 0xb7-0xb8 (1)
0x0b0|                        6e 65 73 74 65 64 2d 67|        nested-g|                b: "nested-ge" 0xb8-0xc1 (9)
0x0c0|65                                             |e               |
     |                                               |                |              d{}: 0xc1-0xc3 (2)
0x0c0|   00                                          | .              |                tag: "funcidx" (0x0) 0xc1-0xc2 (1)
0x0c0|      0b                                       |  .             |                x: 11 (valid) 0xc2-0xc3 (1)
     |                                               |                |            [12]{}: ex 0xc3-0xce (11)
     |                                               |                |              nm{}: 0xc3-0xcc (9)
0x0c0|         08                                    |   .            |                n: 8 (valid) 0xc3-0xc4 (1)
0x0c0|            61 73 2d 70 61 72 61 6d            |    as-param    |                b: "as-param" 0xc4-0xcc (8)
     |                                               |                |              d{}: 0xcc-0xce (2)
0x0c0|                                    00         |            .   |                tag: "funcidx" (0x0) 0xcc-0xcd (1)
0x0c0|                                       0c      |             .  |                x: 12 (valid) 0xcd-0xce (1)
     |                                               |                |    [4]{}: section 0xce-0x354 (646)
0x0c0|                                          0a   |              . |      id: "code_section" (10) 0xce-0xcf (1)
0x0c0|                                             83|               .|      size: 643 (valid) 0xcf-0xd1 (2)
0x0d0|05                                             |.               |
     |                                               |                |      content{}: 0xd1-0x354 (643)
     |                                               |                |        code{}: 0xd1-0x354 (643)
0x0d0|   0d                                          | .              |          n: 13 (valid) 0xd1-0xd2 (1)
     |                                               |                |          x[0:13]: 0xd2-0x354 (642)
     |                                               |                |            [0]{}: code 0xd2-0xf0 (30)
0x0d0|      1d                                       |  .             |              size: 29 (valid) 0xd2-0xd3 (1)
     |                                               |                |              code{}: 0xd3-0xf0 (29)
     |                                               |                |                t{}: 0xd3-0xd4 (1)
0x0d0|         00                                    |   .            |                  n: 0 (valid) 0xd3-0xd4 (1)
     |                                               |                |                  x[0:0]: 0xd4-0xd4 (0)
     |                                               |                |                e[0:2]: 0xd4-0xf0 (28)
     |                                               |                |                  [0]{}: in 0xd4-0xef (27)
0x0d0|            02                                 |    .           |                    opcode: "block" (0x2) 0xd4-0xd5 (1)
0x0d0|               40                              |     @          |                    bt: "ε" (64) 0xd5-0xd6 (1)
     |                                               |                |                    instructions[0:2]: 0xd6-0xee (24)
     |                                               |                |                      [0]{}: instr 0xd6-0xed (23)
0x0d0|                  02                           |      .         |                        opcode: "block" (0x2) 0xd6-0xd7 (1)
0x0d0|                     7b                        |       {        |                        bt: "v128" (123) 0xd7-0xd8 (1)
     |                                               |                |                        instructions[0:3]: 0xd8-0xec (20)
     |                                               |                |                          [0]{}: instr 0xd8-0xe1 (9)
0x0d0|                        02                     |        .       |                            opcode: "block" (0x2) 0xd8-0xd9 (1)
0x0d0|                           7b                  |         {      |                            bt: "v128" (123) 0xd9-0xda (1)
     |                                               |                |                            instructions[0:2]: 0xda-0xe0 (6)
     |                                               |                |                              [0]{}: instr 0xda-0xdc (2)
0x0d0|                              41               |          A     |                                opcode: "i32.const" (0x41) 0xda-0xdb (1)
0x0d0|                                 00            |           .    |                                n: 0 (valid) 0xdb-0xdc (1)
     |                                               |                |                              [1]{}: instr 0xdc-0xe0 (4)
0x0d0|                                    fd         |            .   |                                opcode: "vector" (0xfd) 0xdc-0xdd (1)
0x0d0|                                       00      |             .  |                                v_opcode: "v128.load" (0) 0xdd-0xde (1)
     |                                               |                |                                m{}: 0xde-0xe0 (2)
0x0d0|                                          04   |              . |                                  a: 4 (valid) 0xde-0xdf (1)
0x0d0|                                             00|               .|                                  o: 0 (valid) 0xdf-0xe0 (1)
0x0e0|0b                                             |.               |                            end: 0xb (valid) 0xe0-0xe1 (1)
     |                                               |                |                          [1]{}: instr 0xe1-0xea (9)
0x0e0|   02                                          | .              |                            opcode: "block" (0x2) 0xe1-0xe2 (1)
0x0e0|      7b                                       |  {             |                            bt: "v128" (123) 0xe2-0xe3 (1)
     |                                               |                |                            instructions[0:2]: 0xe3-0xe9 (6)
     |                                               |                |                              [0]{}: instr 0xe3-0xe5 (2)
0x0e0|         41                                    |   A            |                                opcode: "i32.const" (0x41) 0xe3-0xe4 (1)
0x0e0|            01                                 |    .           |                                n: 1 (valid) 0xe4-0xe5 (1)
     |                                               |                |                              [1]{}: instr 0xe5-0xe9 (4)
0x0e0|               fd                              |     .          |                                opcode: "vector" (0xfd) 0xe5-0xe6 (1)
0x0e0|                  00                           |      .         |                                v_opcode: "v128.load" (0) 0xe6-0xe7 (1)
     |                                               |                |                                m{}: 0xe7-0xe9 (2)
0x0e0|                     04                        |       .        |                                  a: 4 (valid) 0xe7-0xe8 (1)
0x0e0|                        00                     |        .       |                                  o: 0 (valid) 0xe8-0xe9 (1)
0x0e0|                           0b                  |         .      |                            end: 0xb (valid) 0xe9-0xea (1)
     |                                               |                |                          [2]{}: instr 0xea-0xec (2)
0x0e0|                              fd               |          .     |                            opcode: "vector" (0xfd) 0xea-0xeb (1)
0x0e0|                                 41            |           A    |                            v_opcode: "f32x4.eq" (65) 0xeb-0xec (1)
0x0e0|                                    0b         |            .   |                        end: 0xb (valid) 0xec-0xed (1)
     |                                               |                |                      [1]{}: instr 0xed-0xee (1)
0x0e0|                                       1a      |             .  |                        opcode: "drop" (0x1a) 0xed-0xee (1)
0x0e0|                                          0b   |              . |                    end: 0xb (valid) 0xee-0xef (1)
     |                                               |                |                  [1]{}: in 0xef-0xf0 (1)
0x0e0|                                             0b|               .|                    opcode: "end" (0xb) 0xef-0xf0 (1)
     |                                               |                |            [1]{}: code 0xf0-0x10e (30)
0x0f0|1d                                             |.               |              size: 29 (valid) 0xf0-0xf1 (1)
     |                                               |                |              code{}: 0xf1-0x10e (29)
     |                                               |                |                t{}: 0xf1-0xf2 (1)
0x0f0|   00                                          | .              |                  n: 0 (valid) 0xf1-0xf2 (1)
     |                                               |                |                  x[0:0]: 0xf2-0xf2 (0)
     |                                               |                |                e[0:2]: 0xf2-0x10e (28)
     |                                               |                |                  [0]{}: in 0xf2-0x10d (27)
0x0f0|      02                                       |  .             |                    opcode: "block" (0x2) 0xf2-0xf3 (1)
0x0f0|         40                                    |   @            |                    bt: "ε" (64) 0xf3-0xf4 (1)
     |                                               |                |                    instructions[0:2]: 0xf4-0x10c (24)
     |                                               |                |                      [0]{}: instr 0xf4-0x10b (23)
0x0f0|            02                                 |    .           |                        opcode: "block" (0x2) 0xf4-0xf5 (1)
0x0f0|               7b                              |     {          |                        bt: "v128" (123) 0xf5-0xf6 (1)
     |                                               |                |                        instructions[0:3]: 0xf6-0x10a (20)
     |                                               |                |                          [0]{}: instr 0xf6-0xff (9)
0x0f0|                  02                           |      .         |                            opcode: "block" (0x2) 0xf6-0xf7 (1)
0x0f0|                     7b                        |       {        |                            bt: "v128" (123) 0xf7-0xf8 (1)
     |                                               |                |                            instructions[0:2]: 0xf8-0xfe (6)
     |                                               |                |                              [0]{}: instr 0xf8-0xfa (2)
0x0f0|                        41                     |        A       |                                opcode: "i32.const" (0x41) 0xf8-0xf9 (1)
0x0f0|                           00                  |         .      |                                n: 0 (valid) 0xf9-0xfa (1)
     |                                               |                |                              [1]{}: instr 0xfa-0xfe (4)
0x0f0|                              fd               |          .     |                                opcode: "vector" (0xfd) 0xfa-0xfb (1)
0x0f0|                                 00            |           .    |                                v_opcode: "v128.load" (0) 0xfb-0xfc (1)
     |                                               |                |                                m{}: 0xfc-0xfe (2)
0x0f0|                                    04         |            .   |                                  a: 4 (valid) 0xfc-0xfd (1)
0x0f0|                                       00      |             .  |                                  o: 0 (valid) 0xfd-0xfe (1)
0x0f0|                                          0b   |              . |                            end: 0xb (valid) 0xfe-0xff (1)
     |                                               |                |                          [1]{}: instr 0xff-0x108 (9)
0x0f0|                                             02|               .|                            opcode: "block" (0x2) 0xff-0x100 (1)
0x100|7b                                             |{               |                            bt: "v128" (123) 0x100-0x101 (1)
     |                                               |                |                            instructions[0:2]: 0x101-0x107 (6)
     |                                               |                |                              [0]{}: instr 0x101-0x103 (2)
0x100|   41                                          | A              |                                opcode: "i32.const" (0x41) 0x101-0x102 (1)
0x100|      01                                       |  .             |                                n: 1 (valid) 0x102-0x103 (1)
     |                                               |                |                              [1]{}: instr 0x103-0x107 (4)
0x100|         fd                                    |   .            |                                opcode: "vector" (0xfd) 0x103-0x104 (1)
0x100|            00                                 |    .           |                                v_opcode: "v128.load" (0) 0x104-0x105 (1)
     |                                               |                |                                m{}: 0x105-0x107 (2)
0x100|               04                              |     .          |                                  a: 4 (valid) 0x105-0x106 (1)
0x100|                  00                           |      .         |                                  o: 0 (valid) 0x106-0x107 (1)
0x100|                     0b                        |       .        |                            end: 0xb (valid) 0x107-0x108 (1)
     |                                               |                |                          [2]{}: instr 0x108-0x10a (2)
0x100|                        fd                     |        .       |                            opcode: "vector" (0xfd) 0x108-0x109 (1)
0x100|                           42                  |         B      |                            v_opcode: "f32x4.ne" (66) 0x109-0x10a (1)
0x100|                              0b               |          .     |                        end: 0xb (valid) 0x10a-0x10b (1)
     |                                               |                |                      [1]{}: instr 0x10b-0x10c (1)
0x100|                                 1a            |           .    |                        opcode: "drop" (0x1a) 0x10b-0x10c (1)
0x100|                                    0b         |            .   |                    end: 0xb (valid) 0x10c-0x10d (1)
     |                                               |                |                  [1]{}: in 0x10d-0x10e (1)
0x100|                                       0b      |             .  |                    opcode: "end" (0xb) 0x10d-0x10e (1)
     |                                               |                |            [2]{}: code 0x10e-0x12c (30)
0x100|                                          1d   |              . |              size: 29 (valid) 0x10e-0x10f (1)
     |                                               |                |              code{}: 0x10f-0x12c (29)
     |                                               |                |                t{}: 0x10f-0x110 (1)
0x100|                                             00|               .|                  n: 0 (valid) 0x10f-0x110 (1)
     |                                               |                |                  x[0:0]: 0x110-0x110 (0)
     |                                               |                |                e[0:2]: 0x110-0x12c (28)
     |                                               |                |                  [0]{}: in 0x110-0x12b (27)
0x110|02                                             |.               |                    opcode: "block" (0x2) 0x110-0x111 (1)
0x110|   40                                          | @              |                    bt: "ε" (64) 0x111-0x112 (1)
     |                                               |                |                    instructions[0:2]: 0x112-0x12a (24)
     |                                               |                |                      [0]{}: instr 0x112-0x129 (23)
0x110|      02                                       |  .             |                        opcode: "block" (0x2) 0x112-0x113 (1)
0x110|         7b                                    |   {            |                        bt: "v128" (123) 0x113-0x114 (1)
     |                                               |                |                        instructions[0:3]: 0x114-0x128 (20)
     |                                               |                |                          [0]{}: instr 0x114-0x11d (9)
0x110|            02                                 |    .           |                            opcode: "block" (0x2) 0x114-0x115 (1)
0x110|               7b                              |     {          |                            bt: "v128" (123) 0x115-0x116 (1)
     |                                               |                |                            instructions[0:2]: 0x116-0x11c (6)
     |                                               |                |                              [0]{}: instr 0x116-0x118 (2)
0x110|                  41                           |      A         |                                opcode: "i32.const" (0x41) 0x116-0x117 (1)
0x110|                     00                        |       .        |                                n: 0 (valid) 0x117-0x118 (1)
     |                                               |                |                              [1]{}: instr 0x118-0x11c (4)
0x110|                        fd                     |        .       |                                opcode: "vector" (0xfd) 0x118-0x119 (1)
0x110|                           00                  |         .      |                                v_opcode: "v128.load" (0) 0x119-0x11a (1)
     |                                               |                |                                m{}: 0x11a-0x11c (2)
0x110|                              04               |          .     |                                  a: 4 (valid) 0x11a-0x11b (1)
0x110|                                 00            |           .    |                                  o: 0 (valid) 0x11b-0x11c (1)
0x110|                                    0b         |            .   |                            end: 0xb (valid) 0x11c-0x11d (1)
     |                                               |                |                          [1]{}: instr 0x11d-0x126 (9)
0x110|                                       02      |             .  |                            opcode: "block" (0x2) 0x11d-0x11e (1)
0x110|                                          7b   |              { |                            bt: "v128" (123) 0x11e-0x11f (1)
     |                                               |                |                            instructions[0:2]: 0x11f-0x125 (6)
     |                                               |                |                              [0]{}: instr 0x11f-0x121 (2)
0x110|                                             41|               A|                                opcode: "i32.const" (0x41) 0x11f-0x120 (1)
0x120|01                                             |.               |                                n: 1 (valid) 0x120-0x121 (1)
     |                                               |                |                              [1]{}: instr 0x121-0x125 (4)
0x120|   fd                                          | .              |                                opcode: "vector" (0xfd) 0x121-0x122 (1)
0x120|      00                                       |  .             |                                v_opcode: "v128.load" (0) 0x122-0x123 (1)
     |                                               |                |                                m{}: 0x123-0x125 (2)
0x120|         04                                    |   .            |                                  a: 4 (valid) 0x123-0x124 (1)
0x120|            00                                 |    .           |                                  o: 0 (valid) 0x124-0x125 (1)
0x120|               0b                              |     .          |                            end: 0xb (valid) 0x125-0x126 (1)
     |                                               |                |                          [2]{}: instr 0x126-0x128 (2)
0x120|                  fd                           |      .         |                            opcode: "vector" (0xfd) 0x126-0x127 (1)
0x120|                     43                        |       C        |                            v_opcode: "f32x4.lt" (67) 0x127-0x128 (1)
0x120|                        0b                     |        .       |                        end: 0xb (valid) 0x128-0x129 (1)
     |                                               |                |                      [1]{}: instr 0x129-0x12a (1)
0x120|                           1a                  |         .      |                        opcode: "drop" (0x1a) 0x129-0x12a (1)
0x120|                              0b               |          .     |                    end: 0xb (valid) 0x12a-0x12b (1)
     |                                               |                |                  [1]{}: in 0x12b-0x12c (1)
0x120|                                 0b            |           .    |                    opcode: "end" (0xb) 0x12b-0x12c (1)
     |                                               |                |            [3]{}: code 0x12c-0x14a (30)
0x120|                                    1d         |            .   |              size: 29 (valid) 0x12c-0x12d (1)
     |                                               |                |              code{}: 0x12d-0x14a (29)
     |                                               |                |                t{}: 0x12d-0x12e (1)
0x120|                                       00      |             .  |                  n: 0 (valid) 0x12d-0x12e (1)
     |                                               |                |                  x[0:0]: 0x12e-0x12e (0)
     |                                               |                |                e[0:2]: 0x12e-0x14a (28)
     |                                               |                |                  [0]{}: in 0x12e-0x149 (27)
0x120|                                          02   |              . |                    opcode: "block" (0x2) 0x12e-0x12f (1)
0x120|                                             40|               @|                    bt: "ε" (64) 0x12f-0x130 (1)
     |                                               |                |                    instructions[0:2]: 0x130-0x148 (24)
     |                                               |                |                      [0]{}: instr 0x130-0x147 (23)
0x130|02                                             |.               |                        opcode: "block" (0x2) 0x130-0x131 (1)
0x130|   7b                                          | {              |                        bt: "v128" (123) 0x131-0x132 (1)
     |                                               |                |                        instructions[0:3]: 0x132-0x146 (20)
     |                                               |                |                          [0]{}: instr 0x132-0x13b (9)
0x130|      02                                       |  .             |                            opcode: "block" (0x2) 0x132-0x133 (1)
0x130|         7b                                    |   {            |                            bt: "v128" (123) 0x133-0x134 (1)
     |                                               |                |                            instructions[0:2]: 0x134-0x13a (6)
     |                                               |                |                              [0]{}: instr 0x134-0x136 (2)
0x130|            41                                 |    A           |                                opcode: "i32.const" (0x41) 0x134-0x135 (1)
0x130|               00                              |     .          |                                n: 0 (valid) 0x135-0x136 (1)
     |                                               |                |                              [1]{}: instr 0x136-0x13a (4)
0x130|                  fd                           |      .         |                                opcode: "vector" (0xfd) 0x136-0x137 (1)
0x130|                     00                        |       .        |                                v_opcode: "v128.load" (0) 0x137-0x138 (1)
     |                                               |                |                                m{}: 0x138-0x13a (2)
0x130|                        04                     |        .       |                                  a: 4 (valid) 0x138-0x139 (1)
0x130|                           00                  |         .      |                                  o: 0 (valid) 0x139-0x13a (1)
0x130|                              0b               |          .     |                            end: 0xb (valid) 0x13a-0x13b (1)
     |                                               |                |                          [1]{}: instr 0x13b-0x144 (9)
0x130|                                 02            |           .    |                            opcode: "block" (0x2) 0x13b-0x13c (1)
0x130|                                    7b         |            {   |                            bt: "v128" (123) 0x13c-0x13d (1)
     |                                               |                |                            instructions[0:2]: 0x13d-0x143 (6)
     |                                               |                |                              [0]{}: instr 0x13d-0x13f (2)
0x130|                                       41      |             A  |                                opcode: "i32.const" (0x41) 0x13d-0x13e (1)
0x130|                                          01   |              . |                                n: 1 (valid) 0x13e-0x13f (1)
     |                                               |                |                              [1]{}: instr 0x13f-0x143 (4)
0x130|                                             fd|               .|                                opcode: "vector" (0xfd) 0x13f-0x140 (1)
0x140|00                                             |.               |                                v_opcode: "v128.load" (0) 0x140-0x141 (1)
     |                                               |                |                                m{}: 0x141-0x143 (2)
0x140|   04                                          | .              |                                  a: 4 (valid) 0x141-0x142 (1)
0x140|      00                                       |  .             |                                  o: 0 (valid) 0x142-0x143 (1)
0x140|         0b                                    |   .            |                            end: 0xb (valid) 0x143-0x144 (1)
     |                                               |                |                          [2]{}: instr 0x144-0x146 (2)
0x140|            fd                                 |    .           |                            opcode: "vector" (0xfd) 0x144-0x145 (1)
0x140|               45                              |     E          |                            v_opcode: "f32x4.le" (69) 0x145-0x146 (1)
0x140|                  0b                           |      .         |                        end: 0xb (valid) 0x146-0x147 (1)
     |                                               |                |                      [1]{}: instr 0x147-0x148 (1)
0x140|                     1a                        |       .        |                        opcode: "drop" (0x1a) 0x147-0x148 (1)
0x140|                        0b                     |        .       |                    end: 0xb (valid) 0x148-0x149 (1)
     |                                               |                |                  [1]{}: in 0x149-0x14a (1)
0x140|                           0b                  |         .      |                    opcode: "end" (0xb) 0x149-0x14a (1)
     |                                               |                |            [4]{}: code 0x14a-0x168 (30)
0x140|                              1d               |          .     |              size: 29 (valid) 0x14a-0x14b (1)
     |                                               |                |              code{}: 0x14b-0x168 (29)
     |                                               |                |                t{}: 0x14b-0x14c (1)
0x140|                                 00            |           .    |                  n: 0 (valid) 0x14b-0x14c (1)
     |                                               |                |                  x[0:0]: 0x14c-0x14c (0)
     |                                               |                |                e[0:2]: 0x14c-0x168 (28)
     |                                               |                |                  [0]{}: in 0x14c-0x167 (27)
0x140|                                    02         |            .   |                    opcode: "block" (0x2) 0x14c-0x14d (1)
0x140|                                       40      |             @  |                    bt: "ε" (64) 0x14d-0x14e (1)
     |                                               |                |                    instructions[0:2]: 0x14e-0x166 (24)
     |                                               |                |                      [0]{}: instr 0x14e-0x165 (23)
0x140|                                          02   |              . |                        opcode: "block" (0x2) 0x14e-0x14f (1)
0x140|                                             7b|               {|                        bt: "v128" (123) 0x14f-0x150 (1)
     |                                               |                |                        instructions[0:3]: 0x150-0x164 (20)
     |                                               |                |                          [0]{}: instr 0x150-0x159 (9)
0x150|02                                             |.               |                            opcode: "block" (0x2) 0x150-0x151 (1)
0x150|   7b                                          | {              |                            bt: "v128" (123) 0x151-0x152 (1)
     |                                               |                |                            instructions[0:2]: 0x152-0x158 (6)
     |                                               |                |                              [0]{}: instr 0x152-0x154 (2)
0x150|      41                                       |  A             |                                opcode: "i32.const" (0x41) 0x152-0x153 (1)
0x150|         00                                    |   .            |                                n: 0 (valid) 0x153-0x154 (1)
     |                                               |                |                              [1]{}: instr 0x154-0x158 (4)
0x150|            fd                                 |    .           |                                opcode: "vector" (0xfd) 0x154-0x155 (1)
0x150|               00                              |     .          |                                v_opcode: "v128.load" (0) 0x155-0x156 (1)
     |                                               |                |                                m{}: 0x156-0x158 (2)
0x150|                  04                           |      .         |                                  a: 4 (valid) 0x156-0x157 (1)
0x150|                     00                        |       .        |                                  o: 0 (valid) 0x157-0x158 (1)
0x150|                        0b                     |        .       |                            end: 0xb (valid) 0x158-0x159 (1)
     |                                               |                |                          [1]{}: instr 0x159-0x162 (9)
0x150|                           02                  |         .      |                            opcode: "block" (0x2) 0x159-0x15a (1)
0x150|                              7b               |          {     |                            bt: "v128" (123) 0x15a-0x15b (1)
     |                                               |                |                            instructions[0:2]: 0x15b-0x161 (6)
     |                                               |                |                              [0]{}: instr 0x15b-0x15d (2)
0x150|                                 41            |           A    |                                opcode: "i32.const" (0x41) 0x15b-0x15c (1)
0x150|                                    01         |            .   |                                n: 1 (valid) 0x15c-0x15d (1)
     |                                               |                |                              [1]{}: instr 0x15d-0x161 (4)
0x150|                                       fd      |             .  |                                opcode: "vector" (0xfd) 0x15d-0x15e (1)
0x150|                                          00   |              . |                                v_opcode: "v128.load" (0) 0x15e-0x15f (1)
     |                                               |                |                                m{}: 0x15f-0x161 (2)
0x150|                                             04|               .|                                  a: 4 (valid) 0x15f-0x160 (1)
0x160|00                                             |.               |                                  o: 0 (valid) 0x160-0x161 (1)
0x160|   0b                                          | .              |                            end: 0xb (valid) 0x161-0x162 (1)
     |                                               |                |                          [2]{}: instr 0x162-0x164 (2)
0x160|      fd                                       |  .             |                            opcode: "vector" (0xfd) 0x162-0x163 (1)
0x160|         44                                    |   D            |                            v_opcode: "f32x4.gt" (68) 0x163-0x164 (1)
0x160|            0b                                 |    .           |                        end: 0xb (valid) 0x164-0x165 (1)
     |                                               |                |                      [1]{}: instr 0x165-0x166 (1)
0x160|               1a                              |     .          |                        opcode: "drop" (0x1a) 0x165-0x166 (1)
0x160|                  0b                           |      .         |                    end: 0xb (valid) 0x166-0x167 (1)
     |                                               |                |                  [1]{}: in 0x167-0x168 (1)
0x160|                     0b                        |       .        |                    opcode: "end" (0xb) 0x167-0x168 (1)
     |                                               |                |            [5]{}: code 0x168-0x186 (30)
0x160|                        1d                     |        .       |              size: 29 (valid) 0x168-0x169 (1)
     |                                               |                |              code{}: 0x169-0x186 (29)
     |                                               |                |                t{}: 0x169-0x16a (1)
0x160|                           00                  |         .      |                  n: 0 (valid) 0x169-0x16a (1)
     |                                               |                |                  x[0:0]: 0x16a-0x16a (0)
     |                                               |                |                e[0:2]: 0x16a-0x186 (28)
     |                                               |                |                  [0]{}: in 0x16a-0x185 (27)
0x160|                              02               |          .     |                    opcode: "block" (0x2) 0x16a-0x16b (1)
0x160|                                 40            |           @    |                    bt: "ε" (64) 0x16b-0x16c (1)
     |                                               |                |                    instructions[0:2]: 0x16c-0x184 (24)
     |                                               |                |                      [0]{}: instr 0x16c-0x183 (23)
0x160|                                    02         |            .   |                        opcode: "block" (0x2) 0x16c-0x16d (1)
0x160|                                       7b      |             {  |                        bt: "v128" (123) 0x16d-0x16e (1)
     |                                               |                |                        instructions[0:3]: 0x16e-0x182 (20)
     |                                               |                |                          [0]{}: instr 0x16e-0x177 (9)
0x160|                                          02   |              . |                            opcode: "block" (0x2) 0x16e-0x16f (1)
0x160|                                             7b|               {|                            bt: "v128" (123) 0x16f-0x170 (1)
     |                                               |                |                            instructions[0:2]: 0x170-0x176 (6)
     |                                               |                |                              [0]{}: instr 0x170-0x172 (2)
0x170|41                                             |A               |                                opcode: "i32.const" (0x41) 0x170-0x171 (1)
0x170|   00                                          | .              |                                n: 0 (valid) 0x171-0x172 (1)
     |                                               |                |                              [1]{}: instr 0x172-0x176 (4)
0x170|      fd                                       |  .             |                                opcode: "vector" (0xfd) 0x172-0x173 (1)
0x170|         00                                    |   .            |                                v_opcode: "v128.load" (0) 0x173-0x174 (1)
     |                                               |                |                                m{}: 0x174-0x176 (2)
0x170|            04                                 |    .           |                                  a: 4 (valid) 0x174-0x175 (1)
0x170|               00                              |     .          |                                  o: 0 (valid) 0x175-0x176 (1)
0x170|                  0b                           |      .         |                            end: 0xb (valid) 0x176-0x177 (1)
     |                                               |                |                          [1]{}: instr 0x177-0x180 (9)
0x170|                     02                        |       .        |                            opcode: "block" (0x2) 0x177-0x178 (1)
0x170|                        7b                     |        {       |                            bt: "v128" (123) 0x178-0x179 (1)
     |                                               |                |                            instructions[0:2]: 0x179-0x17f (6)
     |                                               |                |                              [0]{}: instr 0x179-0x17b (2)
0x170|                           41                  |         A      |                                opcode: "i32.const" (0x41) 0x179-0x17a (1)
0x170|                              01               |          .     |                                n: 1 (valid) 0x17a-0x17b (1)
     |                                               |                |                              [1]{}: instr 0x17b-0x17f (4)
0x170|                                 fd            |           .    |                                opcode: "vector" (0xfd) 0x17b-0x17c (1)
0x170|                                    00         |            .   |                                v_opcode: "v128.load" (0) 0x17c-0x17d (1)
     |                                               |                |                                m{}: 0x17d-0x17f (2)
0x170|                                       04      |             .  |                                  a: 4 (valid) 0x17d-0x17e (1)
0x170|                                          00   |              . |                                  o: 0 (valid) 0x17e-0x17f (1)
0x170|                                             0b|               .|                            end: 0xb (valid) 0x17f-0x180 (1)
     |                                               |                |                          [2]{}: instr 0x180-0x182 (2)
0x180|fd                                             |.               |                            opcode: "vector" (0xfd) 0x180-0x181 (1)
0x180|   46                                          | F              |                            v_opcode: "f32x4.ge" (70) 0x181-0x182 (1)
0x180|      0b                                       |  .             |                        end: 0xb (valid) 0x182-0x183 (1)
     |                                               |                |                      [1]{}: instr 0x183-0x184 (1)
0x180|         1a                                    |   .            |                        opcode: "drop" (0x1a) 0x183-0x184 (1)
0x180|            0b                                 |    .           |                    end: 0xb (valid) 0x184-0x185 (1)
     |                                               |                |                  [1]{}: in 0x185-0x186 (1)
0x180|               0b                              |     .          |                    opcode: "end" (0xb) 0x185-0x186 (1)
     |                                               |                |            [6]{}: code 0x186-0x1c8 (66)
0x180|                  41                           |      A         |              size: 65 (valid) 0x186-0x187 (1)
     |                                               |                |              code{}: 0x187-0x1c8 (65)
     |                                               |                |                t{}: 0x187-0x188 (1)
0x180|                     00                        |       .        |                  n: 0 (valid) 0x187-0x188 (1)
     |                                               |                |                  x[0:0]: 0x188-0x188 (0)
     |                                               |                |                e[0:25]: 0x188-0x1c8 (64)
     |                                               |                |                  [0]{}: in 0x188-0x18a (2)
0x180|                        41                     |        A       |                    opcode: "i32.const" (0x41) 0x188-0x189 (1)
0x180|                           00                  |         .      |                    n: 0 (valid) 0x189-0x18a (1)
     |                                               |                |                  [1]{}: in 0x18a-0x18e (4)
0x180|                              fd               |          .     |                    opcode: "vector" (0xfd) 0x18a-0x18b (1)
0x180|                                 00            |           .    |                    v_opcode: "v128.load" (0) 0x18b-0x18c (1)
     |                                               |                |                    m{}: 0x18c-0x18e (2)
0x180|                                    04         |            .   |                      a: 4 (valid) 0x18c-0x18d (1)
0x180|                                       00      |             .  |                      o: 0 (valid) 0x18d-0x18e (1)
     |                                               |                |                  [2]{}: in 0x18e-0x190 (2)
0x180|                                          41   |              A |                    opcode: "i32.const" (0x41) 0x18e-0x18f (1)
0x180|                                             01|               .|                    n: 1 (valid) 0x18f-0x190 (1)
     |                                               |                |                  [3]{}: in 0x190-0x194 (4)
0x190|fd                                             |.               |                    opcode: "vector" (0xfd) 0x190-0x191 (1)
0x190|   00                                          | .              |                    v_opcode: "v128.load" (0) 0x191-0x192 (1)
     |                                               |                |                    m{}: 0x192-0x194 (2)
0x190|      04                                       |  .             |                      a: 4 (valid) 0x192-0x193 (1)
0x190|         00                                    |   .            |                      o: 0 (valid) 0x193-0x194 (1)
     |                                               |                |                  [4]{}: in 0x194-0x196 (2)
0x190|            fd                                 |    .           |                    opcode: "vector" (0xfd) 0x194-0x195 (1)
0x190|               41                              |     A          |                    v_opcode: "f32x4.eq" (65) 0x195-0x196 (1)
     |                                               |                |                  [5]{}: in 0x196-0x198 (2)
0x190|                  41                           |      A         |                    opcode: "i32.const" (0x41) 0x196-0x197 (1)
0x190|                     02                        |       .        |                    n: 2 (valid) 0x197-0x198 (1)
     |                                               |                |                  [6]{}: in 0x198-0x19c (4)
0x190|                        fd                     |        .       |                    opcode: "vector" (0xfd) 0x198-0x199 (1)
0x190|                           00                  |         .      |                    v_opcode: "v128.load" (0) 0x199-0x19a (1)
     |                                               |                |                    m{}: 0x19a-0x19c (2)
0x190|                              04               |          .     |                      a: 4 (valid) 0x19a-0x19b (1)
0x190|                                 00            |           .    |                      o: 0 (valid) 0x19b-0x19c (1)
     |                                               |                |                  [7]{}: in 0x19c-0x19e (2)
0x190|                                    41         |            A   |                    opcode: "i32.const" (0x41) 0x19c-0x19d (1)
0x190|                                       03      |             .  |                    n: 3 (valid) 0x19d-0x19e (1)
     |                                               |                |                  [8]{}: in 0x19e-0x1a2 (4)
0x190|                                          fd   |              . |                    opcode: "vector" (0xfd) 0x19e-0x19f (1)
0x190|                                             00|               .|                    v_opcode: "v128.load" (0) 0x19f-0x1a0 (1)
     |                                               |                |                    m{}: 0x1a0-0x1a2 (2)
0x1a0|04                                             |.               |                      a: 4 (valid) 0x1a0-0x1a1 (1)
0x1a0|   00                                          | .              |                      o: 0 (valid) 0x1a1-0x1a2 (1)
     |                                               |                |                  [9]{}: in 0x1a2-0x1a4 (2)
0x1a0|      fd                                       |  .             |                    opcode: "vector" (0xfd) 0x1a2-0x1a3 (1)
0x1a0|         41                                    |   A            |                    v_opcode: "f32x4.eq" (65) 0x1a3-0x1a4 (1)
     |                                               |                |                  [10]{}: in 0x1a4-0x1a6 (2)
0x1a0|            fd                                 |    .           |                    opcode: "vector" (0xfd) 0x1a4-0x1a5 (1)
0x1a0|               41                              |     A          |                    v_opcode: "f32x4.eq" (65) 0x1a5-0x1a6 (1)
     |                                               |                |                  [11]{}: in 0x1a6-0x1a8 (2)
0x1a0|                  41                           |      A         |                    opcode: "i32.const" (0x41) 0x1a6-0x1a7 (1)
0x1a0|                     00                        |       .        |                    n: 0 (valid) 0x1a7-0x1a8 (1)
     |                                               |                |                  [12]{}: in 0x1a8-0x1ac (4)
0x1a0|                        fd                     |        .       |                    opcode: "vector" (0xfd) 0x1a8-0x1a9 (1)
0x1a0|                           00                  |         .      |                    v_opcode: "v128.load" (0) 0x1a9-0x1aa (1)
     |                                               |                |                    m{}: 0x1aa-0x1ac (2)
0x1a0|                              04               |          .     |                      a: 4 (valid) 0x1aa-0x1ab (1)
0x1a0|                                 00            |           .    |                      o: 0 (valid) 0x1ab-0x1ac (1)
     |                                               |                |                  [13]{}: in 0x1ac-0x1ae (2)
0x1a0|                                    41         |            A   |                    opcode: "i32.const" (0x41) 0x1ac-0x1ad (1)
0x1a0|                                       01      |             .  |                    n: 1 (valid) 0x1ad-0x1ae (1)
     |                                               |                |                  [14]{}: in 0x1ae-0x1b2 (4)
0x1a0|                                          fd   |              . |                    opcode: "vector" (0xfd) 0x1ae-0x1af (1)
0x1a0|                                             00|               .|                    v_opcode: "v128.load" (0) 0x1af-0x1b0 (1)
     |                                               |                |                    m{}: 0x1b0-0x1b2 (2)
0x1b0|04                                             |.               |                      a: 4 (valid) 0x1b0-0x1b1 (1)
0x1b0|   00                                          | .              |                      o: 0 (valid) 0x1b1-0x1b2 (1)
     |                                               |                |                  [15]{}: in 0x1b2-0x1b4 (2)
0x1b0|      fd                                       |  .             |                    opcode: "vector" (0xfd) 0x1b2-0x1b3 (1)
0x1b0|         41                                    |   A            |                    v_opcode: "f32x4.eq" (65) 0x1b3-0x1b4 (1)
     |                                               |                |                  [16]{}: in 0x1b4-0x1b6 (2)
0x1b0|            41                                 |    A           |                    opcode: "i32.const" (0x41) 0x1b4-0x1b5 (1)
0x1b0|               02                              |     .          |                    n: 2 (valid) 0x1b5-0x1b6 (1)
     |                                               |                |                  [17]{}: in 0x1b6-0x1ba (4)
0x1b0|                  fd                           |      .         |                    opcode: "vector" (0xfd) 0x1b6-0x1b7 (1)
0x1b0|                     00                        |       .        |                    v_opcode: "v128.load" (0) 0x1b7-0x1b8 (1)
     |                                               |                |                    m{}: 0x1b8-0x1ba (2)
0x1b0|                        04                     |        .       |                      a: 4 (valid) 0x1b8-0x1b9 (1)
0x1b0|                           00                  |         .      |                      o: 0 (valid) 0x1b9-0x1ba (1)
     |                                               |                |                  [18]{}: in 0x1ba-0x1bc (2)
0x1b0|                              41               |          A     |                    opcode: "i32.const" (0x41) 0x1ba-0x1bb (1)
0x1b0|                                 03            |           .    |                    n: 3 (valid) 0x1bb-0x1bc (1)
     |                                               |                |                  [19]{}: in 0x1bc-0x1c0 (4)
0x1b0|                                    fd         |            .   |                    opcode: "vector" (0xfd) 0x1bc-0x1bd (1)
0x1b0|                                       00      |             .  |                    v_opcode: "v128.load" (0) 0x1bd-0x1be (1)
     |                                               |                |                    m{}: 0x1be-0x1c0 (2)
0x1b0|                                          04   |              . |                      a: 4 (valid) 0x1be-0x1bf (1)
0x1b0|                                             00|               .|                      o: 0 (valid) 0x1bf-0x1c0 (1)
     |                                               |                |                  [20]{}: in 0x1c0-0x1c2 (2)
0x1c0|fd                                             |.               |                    opcode: "vector" (0xfd) 0x1c0-0x1c1 (1)
0x1c0|   41                                          | A              |                    v_opcode: "f32x4.eq" (65) 0x1c1-0x1c2 (1)
     |                                               |                |                  [21]{}: in 0x1c2-0x1c4 (2)
0x1c0|      fd                                       |  .             |                    opcode: "vector" (0xfd) 0x1c2-0x1c3 (1)
0x1c0|         41                                    |   A            |                    v_opcode: "f32x4.eq" (65) 0x1c3-0x1c4 (1)
     |                                               |                |                  [22]{}: in 0x1c4-0x1c6 (2)
0x1c0|            fd                                 |    .           |                    opcode: "vector" (0xfd) 0x1c4-0x1c5 (1)
0x1c0|               41                              |     A          |                    v_opcode: "f32x4.eq" (65) 0x1c5-0x1c6 (1)
     |                                               |                |                  [23]{}: in 0x1c6-0x1c7 (1)
0x1c0|                  1a                           |      .         |                    opcode: "drop" (0x1a) 0x1c6-0x1c7 (1)
     |                                               |                |                  [24]{}: in 0x1c7-0x1c8 (1)
0x1c0|                     0b                        |       .        |                    opcode: "end" (0xb) 0x1c7-0x1c8 (1)
     |                                               |                |            [7]{}: code 0x1c8-0x20a (66)
0x1c0|                        41                     |        A       |              size: 65 (valid) 0x1c8-0x1c9 (1)
     |                                               |                |              code{}: 0x1c9-0x20a (65)
     |                                               |                |                t{}: 0x1c9-0x1ca (1)
0x1c0|                           00                  |         .      |                  n: 0 (valid) 0x1c9-0x1ca (1)
     |                                               |                |                  x[0:0]: 0x1ca-0x1ca (0)
     |                                               |                |                e[0:25]: 0x1ca-0x20a (64)
     |                                               |                |                  [0]{}: in 0x1ca-0x1cc (2)
0x1c0|                              41               |          A     |                    opcode: "i32.const" (0x41) 0x1ca-0x1cb (1)
0x1c0|                                 00            |           .    |                    n: 0 (valid) 0x1cb-0x1cc (1)
     |                                               |                |                  [1]{}: in 0x1cc-0x1d0 (4)
0x1c0|                                    fd         |            .   |                    opcode: "vector" (0xfd) 0x1cc-0x1cd (1)
0x1c0|                                       00      |             .  |                    v_opcode: "v128.load" (0) 0x1cd-0x1ce (1)
     |                                               |                |                    m{}: 0x1ce-0x1d0 (2)
0x1c0|                                          04   |              . |                      a: 4 (valid) 0x1ce-0x1cf (1)
0x1c0|                                             00|               .|                      o: 0 (valid) 0x1cf-0x1d0 (1)
     |                                               |                |                  [2]{}: in 0x1d0-0x1d2 (2)
0x1d0|41                                             |A               |                    opcode: "i32.const" (0x41) 0x1d0-0x1d1 (1)
0x1d0|   01                                          | .              |                    n: 1 (valid) 0x1d1-0x1d2 (1)
     |                                               |                |                  [3]{}: in 0x1d2-0x1d6 (4)
0x1d0|      fd                                       |  .             |                    opcode: "vector" (0xfd) 0x1d2-0x1d3 (1)
0x1d0|         00                                    |   .            |                    v_opcode: "v128.load" (0) 0x1d3-0x1d4 (1)
     |                                               |                |                    m{}: 0x1d4-0x1d6 (2)
0x1d0|            04                                 |    .           |                      a: 4 (valid) 0x1d4-0x1d5 (1)
0x1d0|               00                              |     .          |                      o: 0 (valid) 0x1d5-0x1d6 (1)
     |                                               |                |                  [4]{}: in 0x1d6-0x1d8 (2)
0x1d0|                  fd                           |      .         |                    opcode: "vector" (0xfd) 0x1d6-0x1d7 (1)
0x1d0|                     42                        |       B        |                    v_opcode: "f32x4.ne" (66) 0x1d7-0x1d8 (1)
     |                                               |                |                  [5]{}: in 0x1d8-0x1da (2)
0x1d0|                        41                     |        A       |                    opcode: "i32.const" (0x41) 0x1d8-0x1d9 (1)
0x1d0|                           02                  |         .      |                    n: 2 (valid) 0x1d9-0x1da (1)
     |                                               |                |                  [6]{}: in 0x1da-0x1de (4)
0x1d0|                              fd               |          .     |                    opcode: "vector" (0xfd) 0x1da-0x1db (1)
0x1d0|                                 00            |           .    |                    v_opcode: "v128.load" (0) 0x1db-0x1dc (1)
     |                                               |                |                    m{}: 0x1dc-0x1de (2)
0x1d0|                                    04         |            .   |                      a: 4 (valid) 0x1dc-0x1dd (1)
0x1d0|                                       00      |             .  |                      o: 0 (valid) 0x1dd-0x1de (1)
     |                                               |                |                  [7]{}: in 0x1de-0x1e0 (2)
0x1d0|                                          41   |              A |                    opcode: "i32.const" (0x41) 0x1de-0x1df (1)
0x1d0|                                             03|               .|                    n: 3 (valid) 0x1df-0x1e0 (1)
     |                                               |                |                  [8]{}: in 0x1e0-0x1e4 (4)
0x1e0|fd                                             |.               |                    opcode: "vector" (0xfd) 0x1e0-0x1e1 (1)
0x1e0|   00                                          | .              |                    v_opcode: "v128.load" (0) 0x1e1-0x1e2 (1)
     |                                               |                |                    m{}: 0x1e2-0x1e4 (2)
0x1e0|      04                                       |  .             |                      a: 4 (valid) 0x1e2-0x1e3 (1)
0x1e0|         00                                    |   .            |                      o: 0 (valid) 0x1e3-0x1e4 (1)
     |                                               |                |                  [9]{}: in 0x1e4-0x1e6 (2)
0x1e0|            fd                                 |    .           |                    opcode: "vector" (0xfd) 0x1e4-0x1e5 (1)
0x1e0|               42                              |     B          |                    v_opcode: "f32x4.ne" (66) 0x1e5-0x1e6 (1)
     |                                               |                |                  [10]{}: in 0x1e6-0x1e8 (2)
0x1e0|                  fd                           |      .         |                    opcode: "vector" (0xfd) 0x1e6-0x1e7 (1)
0x1e0|                     42                        |       B        |                    v_opcode: "f32x4.ne" (66) 0x1e7-0x1e8 (1)
     |                                               |                |                  [11]{}: in 0x1e8-0x1ea (2)
0x1e0|                        41                     |        A       |                    opcode: "i32.const" (0x41) 0x1e8-0x1e9 (1)
0x1e0|                           00                  |         .      |                    n: 0 (valid) 0x1e9-0x1ea (1)
     |                                               |                |                  [12]{}: in 0x1ea-0x1ee (4)
0x1e0|                              fd               |          .     |                    opcode: "vector" (0xfd) 0x1ea-0x1eb (1)
0x1e0|                                 00            |           .    |                    v_opcode: "v128.load" (0) 0x1eb-0x1ec (1)
     |                                               |                |                    m{}: 0x1ec-0x1ee (2)
0x1e0|                                    04         |            .   |                      a: 4 (valid) 0x1ec-0x1ed (1)
0x1e0|                                       00      |             .  |                      o: 0 (valid) 0x1ed-0x1ee (1)
     |                                               |                |                  [13]{}: in 0x1ee-0x1f0 (2)
0x1e0|                                          41   |              A |                    opcode: "i32.const" (0x41) 0x1ee-0x1ef (1)
0x1e0|                                             01|               .|                    n: 1 (valid) 0x1ef-0x1f0 (1)
     |                                               |                |                  [14]{}: in 0x1f0-0x1f4 (4)
0x1f0|fd                                             |.               |                    opcode: "vector" (0xfd) 0x1f0-0x1f1 (1)
0x1f0|   00                                          | .              |                    v_opcode: "v128.load" (0) 0x1f1-0x1f2 (1)
     |                                               |                |                    m{}: 0x1f2-0x1f4 (2)
0x1f0|      04                                       |  .             |                      a: 4 (valid) 0x1f2-0x1f3 (1)
0x1f0|         00                                    |   .            |                      o: 0 (valid) 0x1f3-0x1f4 (1)
     |                                               |                |                  [15]{}: in 0x1f4-0x1f6 (2)
0x1f0|            fd                                 |    .           |                    opcode: "vector" (0xfd) 0x1f4-0x1f5 (1)
0x1f0|               42                              |     B          |                    v_opcode: "f32x4.ne" (66) 0x1f5-0x1f6 (1)
     |                                               |                |                  [16]{}: in 0x1f6-0x1f8 (2)
0x1f0|                  41                           |      A         |                    opcode: "i32.const" (0x41) 0x1f6-0x1f7 (1)
0x1f0|                     02                        |       .        |                    n: 2 (valid) 0x1f7-0x1f8 (1)
     |                                               |                |                  [17]{}: in 0x1f8-0x1fc (4)
0x1f0|                        fd                     |        .       |                    opcode: "vector" (0xfd) 0x1f8-0x1f9 (1)
0x1f0|                           00                  |         .      |                    v_opcode: "v128.load" (0) 0x1f9-0x1fa (1)
     |                                               |                |                    m{}: 0x1fa-0x1fc (2)
0x1f0|                              04               |          .     |                      a: 4 (valid) 0x1fa-0x1fb (1)
0x1f0|                                 00            |           .    |                      o: 0 (valid) 0x1fb-0x1fc (1)
     |                                               |                |                  [18]{}: in 0x1fc-0x1fe (2)
0x1f0|                                    41         |            A   |                    opcode: "i32.const" (0x41) 0x1fc-0x1fd (1)
0x1f0|                                       03      |             .  |                    n: 3 (valid) 0x1fd-0x1fe (1)
     |                                               |                |                  [19]{}: in 0x1fe-0x202 (4)
0x1f0|                                          fd   |              . |                    opcode: "vector" (0xfd) 0x1fe-0x1ff (1)
0x1f0|                                             00|               .|                    v_opcode: "v128.load" (0) 0x1ff-0x200 (1)
     |                                               |                |                    m{}: 0x200-0x202 (2)
0x200|04                                             |.               |                      a: 4 (valid) 0x200-0x201 (1)
0x200|   00                                          | .              |                      o: 0 (valid) 0x201-0x202 (1)
     |                                               |                |                  [20]{}: in 0x202-0x204 (2)
0x200|      fd                                       |  .             |                    opcode: "vector" (0xfd) 0x202-0x203 (1)
0x200|         42                                    |   B            |                    v_opcode: "f32x4.ne" (66) 0x203-0x204 (1)
     |                                               |                |                  [21]{}: in 0x204-0x206 (2)
0x200|            fd                                 |    .           |                    opcode: "vector" (0xfd) 0x204-0x205 (1)
0x200|               42                              |     B          |                    v_opcode: "f32x4.ne" (66) 0x205-0x206 (1)
     |                                               |                |                  [22]{}: in 0x206-0x208 (2)
0x200|                  fd                           |      .         |                    opcode: "vector" (0xfd) 0x206-0x207 (1)
0x200|                     42                        |       B        |                    v_opcode: "f32x4.ne" (66) 0x207-0x208 (1)
     |                                               |                |                  [23]{}: in 0x208-0x209 (1)
0x200|                        1a                     |        .       |                    opcode: "drop" (0x1a) 0x208-0x209 (1)
     |                                               |                |                  [24]{}: in 0x209-0x20a (1)
0x200|                           0b                  |         .      |                    opcode: "end" (0xb) 0x209-0x20a (1)
     |                                               |                |            [8]{}: code 0x20a-0x24c (66)
0x200|                              41               |          A     |              size: 65 (valid) 0x20a-0x20b (1)
     |                                               |                |              code{}: 0x20b-0x24c (65)
     |                                               |                |                t{}: 0x20b-0x20c (1)
0x200|                                 00            |           .    |                  n: 0 (valid) 0x20b-0x20c (1)
     |                                               |                |                  x[0:0]: 0x20c-0x20c (0)
     |                                               |                |                e[0:25]: 0x20c-0x24c (64)
     |                                               |                |                  [0]{}: in 0x20c-0x20e (2)
0x200|                                    41         |            A   |                    opcode: "i32.const" (0x41) 0x20c-0x20d (1)
0x200|                                       00      |             .  |                    n: 0 (valid) 0x20d-0x20e (1)
     |                                               |                |                  [1]{}: in 0x20e-0x212 (4)
0x200|                                          fd   |              . |                    opcode: "vector" (0xfd) 0x20e-0x20f (1)
0x200|                                             00|               .|                    v_opcode: "v128.load" (0) 0x20f-0x210 (1)
     |                                               |                |                    m{}: 0x210-0x212 (2)
0x210|04                                             |.               |                      a: 4 (valid) 0x210-0x211 (1)
0x210|   00                                          | .              |                      o: 0 (valid) 0x211-0x212 (1)
     |                                               |                |                  [2]{}: in 0x212-0x214 (2)
0x210|      41                                       |  A             |                    opcode: "i32.const" (0x41) 0x212-0x213 (1)
0x210|         01                                    |   .            |                    n: 1 (valid) 0x213-0x214 (1)
     |                                               |                |                  [3]{}: in 0x214-0x218 (4)
0x210|            fd                                 |    .           |                    opcode: "vector" (0xfd) 0x214-0x215 (1)
0x210|               00                              |     .          |                    v_opcode: "v128.load" (0) 0x215-0x216 (1)
     |                                               |                |                    m{}: 0x216-0x218 (2)
0x210|                  04                           |      .         |                      a: 4 (valid) 0x216-0x217 (1)
0x210|                     00                        |       .        |                      o: 0 (valid) 0x217-0x218 (1)
     |                                               |                |                  [4]{}: in 0x218-0x21a (2)
0x210|                        fd                     |        .       |                    opcode: "vector" (0xfd) 0x218-0x219 (1)
0x210|                           43                  |         C      |                    v_opcode: "f32x4.lt" (67) 0x219-0x21a (1)
     |                                               |                |                  [5]{}: in 0x21a-0x21c (2)
0x210|                              41               |          A     |                    opcode: "i32.const" (0x41) 0x21a-0x21b (1)
0x210|                                 02            |           .    |                    n: 2 (valid) 0x21b-0x21c (1)
     |                                               |                |                  [6]{}: in 0x21c-0x220 (4)
0x210|                                    fd         |            .   |                    opcode: "vector" (0xfd) 0x21c-0x21d (1)
0x210|                                       00      |             .  |                    v_opcode: "v128.load" (0) 0x21d-0x21e (1)
     |                                               |                |                    m{}: 0x21e-0x220 (2)
0x210|                                          04   |              . |                      a: 4 (valid) 0x21e-0x21f (1)
0x210|                                             00|               .|                      o: 0 (valid) 0x21f-0x220 (1)
     |                                               |                |                  [7]{}: in 0x220-0x222 (2)
0x220|41                                             |A               |                    opcode: "i32.const" (0x41) 0x220-0x221 (1)
0x220|   03                                          | .              |                    n: 3 (valid) 0x221-0x222 (1)
     |                                               |                |                  [8]{}: in 0x222-0x226 (4)
0x220|      fd                                       |  .             |                    opcode: "vector" (0xfd) 0x222-0x223 (1)
0x220|         00                                    |   .            |                    v_opcode: "v128.load" (0) 0x223-0x224 (1)
     |                                               |                |                    m{}: 0x224-0x226 (2)
0x220|            04                                 |    .           |                      a: 4 (valid) 0x224-0x225 (1)
0x220|               00                              |     .          |                      o: 0 (valid) 0x225-0x226 (1)
     |                                               |                |                  [9]{}: in 0x226-0x228 (2)
0x220|                  fd                           |      .         |                    opcode: "vector" (0xfd) 0x226-0x227 (1)
0x220|                     43                        |       C        |                    v_opcode: "f32x4.lt" (67) 0x227-0x228 (1)
     |                                               |                |                  [10]{}: in 0x228-0x22a (2)
0x220|                        fd                     |        .       |                    opcode: "vector" (0xfd) 0x228-0x229 (1)
0x220|                           43                  |         C      |                    v_opcode: "f32x4.lt" (67) 0x229-0x22a (1)
     |                                               |                |                  [11]{}: in 0x22a-0x22c (2)
0x220|                              41               |          A     |                    opcode: "i32.const" (0x41) 0x22a-0x22b (1)
0x220|                                 00            |           .    |                    n: 0 (valid) 0x22b-0x22c (1)
     |                                               |                |                  [12]{}: in 0x22c-0x230 (4)
0x220|                                    fd         |            .   |                    opcode: "vector" (0xfd) 0x22c-0x22d (1)
0x220|                                       00      |             .  |                    v_opcode: "v128.load" (0) 0x22d-0x22e (1)
     |                                               |                |                    m{}: 0x22e-0x230 (2)
0x220|                                          04   |              . |                      a: 4 (valid) 0x22e-0x22f (1)
0x220|                                             00|               .|                      o: 0 (valid) 0x22f-0x230 (1)
     |                                               |                |                  [13]{}: in 0x230-0x232 (2)
0x230|41                                             |A               |                    opcode: "i32.const" (0x41) 0x230-0x231 (1)
0x230|   01                                          | .              |                    n: 1 (valid) 0x231-0x232 (1)
     |                                               |                |                  [14]{}: in 0x232-0x236 (4)
0x230|      fd                                       |  .             |                    opcode: "vector" (0xfd) 0x232-0x233 (1)
0x230|         00                                    |   .            |                    v_opcode: "v128.load" (0) 0x233-0x234 (1)
     |                                               |                |                    m{}: 0x234-0x236 (2)
0x230|            04                                 |    .           |                      a: 4 (valid) 0x234-0x235 (1)
0x230|               00                              |     .          |                      o: 0 (valid) 0x235-0x236 (1)
     |                                               |                |                  [15]{}: in 0x236-0x238 (2)
0x230|                  fd                           |      .         |                    opcode: "vector" (0xfd) 0x236-0x237 (1)
0x230|                     43                        |       C        |                    v_opcode: "f32x4.lt" (67) 0x237-0x238 (1)
     |                                               |                |                  [16]{}: in 0x238-0x23a (2)
0x230|                        41                     |        A       |                    opcode: "i32.const" (0x41) 0x238-0x239 (1)
0x230|                           02                  |         .      |                    n: 2 (valid) 0x239-0x23a (1)
     |                                               |                |                  [17]{}: in 0x23a-0x23e (4)
0x230|                              fd               |          .     |                    opcode: "vector" (0xfd) 0x23a-0x23b (1)
0x230|                                 00            |           .    |                    v_opcode: "v128.load" (0) 0x23b-0x23c (1)
     |                                               |                |                    m{}: 0x23c-0x23e (2)
0x230|                                    04         |            .   |                      a: 4 (valid) 0x23c-0x23d (1)
0x230|                                       00      |             .  |                      o: 0 (valid) 0x23d-0x23e (1)
     |                                               |                |                  [18]{}: in 0x23e-0x240 (2)
0x230|                                          41   |              A |                    opcode: "i32.const" (0x41) 0x23e-0x23f (1)
0x230|                                             03|               .|                    n: 3 (valid) 0x23f-0x240 (1)
     |                                               |                |                  [19]{}: in 0x240-0x244 (4)
0x240|fd                                             |.               |                    opcode: "vector" (0xfd) 0x240-0x241 (1)
0x240|   00                                          | .              |                    v_opcode: "v128.load" (0) 0x241-0x242 (1)
     |                                               |                |                    m{}: 0x242-0x244 (2)
0x240|      04                                       |  .             |                      a: 4 (valid) 0x242-0x243 (1)
0x240|         00                                    |   .            |                      o: 0 (valid) 0x243-0x244 (1)
     |                                               |                |                  [20]{}: in 0x244-0x246 (2)
0x240|            fd                                 |    .           |                    opcode: "vector" (0xfd) 0x244-0x245 (1)
0x240|               43                              |     C          |                    v_opcode: "f32x4.lt" (67) 0x245-0x246 (1)
     |                                               |                |                  [21]{}: in 0x246-0x248 (2)
0x240|                  fd                           |      .         |                    opcode: "vector" (0xfd) 0x246-0x247 (1)
0x240|                     43                        |       C        |                    v_opcode: "f32x4.lt" (67) 0x247-0x248 (1)
     |                                               |                |                  [22]{}: in 0x248-0x24a (2)
0x240|                        fd                     |        .       |                    opcode: "vector" (0xfd) 0x248-0x249 (1)
0x240|                           43                  |         C      |                    v_opcode: "f32x4.lt" (67) 0x249-0x24a (1)
     |                                               |                |                  [23]{}: in 0x24a-0x24b (1)
0x240|                              1a               |          .     |                    opcode: "drop" (0x1a) 0x24a-0x24b (1)
     |                                               |                |                  [24]{}: in 0x24b-0x24c (1)
0x240|                                 0b            |           .    |                    opcode: "end" (0xb) 0x24b-0x24c (1)
     |                                               |                |            [9]{}: code 0x24c-0x28e (66)
0x240|                                    41         |            A   |              size: 65 (valid) 0x24c-0x24d (1)
     |                                               |                |              code{}: 0x24d-0x28e (65)
     |                                               |                |                t{}: 0x24d-0x24e (1)
0x240|                                       00      |             .  |                  n: 0 (valid) 0x24d-0x24e (1)
     |                                               |                |                  x[0:0]: 0x24e-0x24e (0)
     |                                               |                |                e[0:25]: 0x24e-0x28e (64)
     |                                               |                |                  [0]{}: in 0x24e-0x250 (2)
0x240|                                          41   |              A |                    opcode: "i32.const" (0x41) 0x24e-0x24f (1)
0x240|                                             00|               .|                    n: 0 (valid) 0x24f-0x250 (1)
     |                                               |                |                  [1]{}: in 0x250-0x254 (4)
0x250|fd                                             |.               |                    opcode: "vector" (0xfd) 0x250-0x251 (1)
0x250|   00                                          | .              |                    v_opcode: "v128.load" (0) 0x251-0x252 (1)
     |                                               |                |                    m{}: 0x252-0x254 (2)
0x250|      04                                       |  .             |                      a: 4 (valid) 0x252-0x253 (1)
0x250|         00                                    |   .            |                      o: 0 (valid) 0x253-0x254 (1)
     |                                               |                |                  [2]{}: in 0x254-0x256 (2)
0x250|            41                                 |    A           |                    opcode: "i32.const" (0x41) 0x254-0x255 (1)
0x250|               01                              |     .          |                    n: 1 (valid) 0x255-0x256 (1)
     |                                               |                |                  [3]{}: in 0x256-0x25a (4)
0x250|                  fd                           |      .         |                    opcode: "vector" (0xfd) 0x256-0x257 (1)
0x250|                     00                        |       .        |                    v_opcode: "v128.load" (0) 0x257-0x258 (1)
     |                                               |                |                    m{}: 0x258-0x25a (2)
0x250|                        04                     |        .       |                      a: 4 (valid) 0x258-0x259 (1)
0x250|                           00                  |         .      |                      o: 0 (valid) 0x259-0x25a (1)
     |                                               |                |                  [4]{}: in 0x25a-0x25c (2)
0x250|                              fd               |          .     |                    opcode: "vector" (0xfd) 0x25a-0x25b (1)
0x250|                                 45            |           E    |                    v_opcode: "f32x4.le" (69) 0x25b-0x25c (1)
     |                                               |                |                  [5]{}: in 0x25c-0x25e (2)
0x250|                                    41         |            A   |                    opcode: "i32.const" (0x41) 0x25c-0x25d (1)
0x250|                                       02      |             .  |                    n: 2 (valid) 0x25d-0x25e (1)
     |                                               |                |                  [6]{}: in 0x25e-0x262 (4)
0x250|                                          fd   |              . |                    opcode: "vector" (0xfd) 0x25e-0x25f (1)
0x250|                                             00|               .|                    v_opcode: "v128.load" (0) 0x25f-0x260 (1)
     |                                               |                |                    m{}: 0x260-0x262 (2)
0x260|04                                             |.               |                      a: 4 (valid) 0x260-0x261 (1)
0x260|   00                                          | .              |                      o: 0 (valid) 0x261-0x262 (1)
     |                                               |                |                  [7]{}: in 0x262-0x264 (2)
0x260|      41                                       |  A             |                    opcode: "i32.const" (0x41) 0x262-0x263 (1)
0x260|         03                                    |   .            |                    n: 3 (valid) 0x263-0x264 (1)
     |                                               |                |                  [8]{}: in 0x264-0x268 (4)
0x260|            fd                                 |    .           |                    opcode: "vector" (0xfd) 0x264-0x265 (1)
0x260|               00                              |     .          |                    v_opcode: "v128.load" (0) 0x265-0x266 (1)
     |                                               |                |                    m{}: 0x266-0x268 (2)
0x260|                  04                           |      .         |                      a: 4 (valid) 0x266-0x267 (1)
0x260|                     00                        |       .        |                      o: 0 (valid) 0x267-0x268 (1)
     |                                               |                |                  [9]{}: in 0x268-0x26a (2)
0x260|                        fd                     |        .       |                    opcode: "vector" (0xfd) 0x268-0x269 (1)
0x260|                           45                  |         E      |                    v_opcode: "f32x4.le" (69) 0x269-0x26a (1)
     |                                               |                |                  [10]{}: in 0x26a-0x26c (2)
0x260|                              fd               |          .     |                    opcode: "vector" (0xfd) 0x26a-0x26b (1)
0x260|                                 45            |           E    |                    v_opcode: "f32x4.le" (69) 0x26b-0x26c (1)
     |                                               |                |                  [11]{}: in 0x26c-0x26e (2)
0x260|                                    41         |            A   |                    opcode: "i32.const" (0x41) 0x26c-0x26d (1)
0x260|                                       00      |             .  |                    n: 0 (valid) 0x26d-0x26e (1)
     |                                               |                |                  [12]{}: in 0x26e-0x272 (4)
0x260|                                          fd   |              . |                    opcode: "vector" (0xfd) 0x26e-0x26f (1)
0x260|                                             00|               .|                    v_opcode: "v128.load" (0) 0x26f-0x270 (1)
     |                                               |                |                    m{}: 0x270-0x272 (2)
0x270|04                                             |.               |                      a: 4 (valid) 0x270-0x271 (1)
0x270|   00                                          | .              |                      o: 0 (valid) 0x271-0x272 (1)
     |                                               |                |                  [13]{}: in 0x272-0x274 (2)
0x270|      41                                       |  A             |                    opcode: "i32.const" (0x41) 0x272-0x273 (1)
0x270|         01                                    |   .            |                    n: 1 (valid) 0x273-0x274 (1)
     |                                               |                |                  [14]{}: in 0x274-0x278 (4)
0x270|            fd                                 |    .           |                    opcode: "vector" (0xfd) 0x274-0x275 (1)
0x270|               00                              |     .          |                    v_opcode: "v128.load" (0) 0x275-0x276 (1)
     |                                               |                |                    m{}: 0x276-0x278 (2)
0x270|                  04                           |      .         |                      a: 4 (valid) 0x276-0x277 (1)
0x270|                     00                        |       .        |                      o: 0 (valid) 0x277-0x278 (1)
     |                                               |                |                  [15]{}: in 0x278-0x27a (2)
0x270|                        fd                     |        .       |                    opcode: "vector" (0xfd) 0x278-0x279 (1)
0x270|                           45                  |         E      |                    v_opcode: "f32x4.le" (69) 0x279-0x27a (1)
     |                                               |                |                  [16]{}: in 0x27a-0x27c (2)
0x270|                              41               |          A     |                    opcode: "i32.const" (0x41) 0x27a-0x27b (1)
0x270|                                 02            |           .    |                    n: 2 (valid) 0x27b-0x27c (1)
     |                                               |                |                  [17]{}: in 0x27c-0x280 (4)
0x270|                                    fd         |            .   |                    opcode: "vector" (0xfd) 0x27c-0x27d (1)
0x270|                                       00      |             .  |                    v_opcode: "v128.load" (0) 0x27d-0x27e (1)
     |                                               |                |                    m{}: 0x27e-0x280 (2)
0x270|                                          04   |              . |                      a: 4 (valid) 0x27e-0x27f (1)
0x270|                                             00|               .|                      o: 0 (valid) 0x27f-0x280 (1)
     |                                               |                |                  [18]{}: in 0x280-0x282 (2)
0x280|41                                             |A               |                    opcode: "i32.const" (0x41) 0x280-0x281 (1)
0x280|   03                                          | .              |                    n: 3 (valid) 0x281-0x282 (1)
     |                                               |                |                  [19]{}: in 0x282-0x286 (4)
0x280|      fd                                       |  .             |                    opcode: "vector" (0xfd) 0x282-0x283 (1)
0x280|         00                                    |   .            |                    v_opcode: "v128.load" (0) 0x283-0x284 (1)
     |                                               |                |                    m{}: 0x284-0x286 (2)
0x280|            04                                 |    .           |                      a: 4 (valid) 0x284-0x285 (1)
0x280|               00                              |     .          |                      o: 0 (valid) 0x285-0x286 (1)
     |                                               |                |                  [20]{}: in 0x286-0x288 (2)
0x280|                  fd                           |      .         |                    opcode: "vector" (0xfd) 0x286-0x287 (1)
0x280|                     45                        |       E        |                    v_opcode: "f32x4.le" (69) 0x287-0x288 (1)
     |                                               |                |                  [21]{}: in 0x288-0x28a (2)
0x280|                        fd                     |        .       |                    opcode: "vector" (0xfd) 0x288-0x289 (1)
0x280|                           45                  |         E      |                    v_opcode: "f32x4.le" (69) 0x289-0x28a (1)
     |                                               |                |                  [22]{}: in 0x28a-0x28c (2)
0x280|                              fd               |          .     |                    opcode: "vector" (0xfd) 0x28a-0x28b (1)
0x280|                                 45            |           E    |                    v_opcode: "f32x4.le" (69) 0x28b-0x28c (1)
     |                                               |                |                  [23]{}: in 0x28c-0x28d (1)
0x280|                                    1a         |            .   |                    opcode: "drop" (0x1a) 0x28c-0x28d (1)
     |                                               |                |                  [24]{}: in 0x28d-0x28e (1)
0x280|                                       0b      |             .  |                    opcode: "end" (0xb) 0x28d-0x28e (1)
     |                                               |                |            [10]{}: code 0x28e-0x2d0 (66)
0x280|                                          41   |              A |              size: 65 (valid) 0x28e-0x28f (1)
     |                                               |                |              code{}: 0x28f-0x2d0 (65)
     |                                               |                |                t{}: 0x28f-0x290 (1)
0x280|                                             00|               .|                  n: 0 (valid) 0x28f-0x290 (1)
     |                                               |                |                  x[0:0]: 0x290-0x290 (0)
     |                                               |                |                e[0:25]: 0x290-0x2d0 (64)
     |                                               |                |                  [0]{}: in 0x290-0x292 (2)
0x290|41                                             |A               |                    opcode: "i32.const" (0x41) 0x290-0x291 (1)
0x290|   00                                          | .              |                    n: 0 (valid) 0x291-0x292 (1)
     |                                               |                |                  [1]{}: in 0x292-0x296 (4)
0x290|      fd                                       |  .             |                    opcode: "vector" (0xfd) 0x292-0x293 (1)
0x290|         00                                    |   .            |                    v_opcode: "v128.load" (0) 0x293-0x294 (1)
     |                                               |                |                    m{}: 0x294-0x296 (2)
0x290|            04                                 |    .           |                      a: 4 (valid) 0x294-0x295 (1)
0x290|               00                              |     .          |                      o: 0 (valid) 0x295-0x296 (1)
     |                                               |                |                  [2]{}: in 0x296-0x298 (2)
0x290|                  41                           |      A         |                    opcode: "i32.const" (0x41) 0x296-0x297 (1)
0x290|                     01                        |       .        |                    n: 1 (valid) 0x297-0x298 (1)
     |                                               |                |                  [3]{}: in 0x298-0x29c (4)
0x290|                        fd                     |        .       |                    opcode: "vector" (0xfd) 0x298-0x299 (1)
0x290|                           00                  |         .      |                    v_opcode: "v128.load" (0) 0x299-0x29a (1)
     |                                               |                |                    m{}: 0x29a-0x29c (2)
0x290|                              04               |          .     |                      a: 4 (valid) 0x29a-0x29b (1)
0x290|                                 00            |           .    |                      o: 0 (valid) 0x29b-0x29c (1)
     |                                               |                |                  [4]{}: in 0x29c-0x29e (2)
0x290|                                    fd         |            .   |                    opcode: "vector" (0xfd) 0x29c-0x29d (1)
0x290|                                       44      |             D  |                    v_opcode: "f32x4.gt" (68) 0x29d-0x29e (1)
     |                                               |                |                  [5]{}: in 0x29e-0x2a0 (2)
0x290|                                          41   |              A |                    opcode: "i32.const" (0x41) 0x29e-0x29f (1)
0x290|                                             02|               .|                    n: 2 (valid) 0x29f-0x2a0 (1)
     |                                               |                |                  [6]{}: in 0x2a0-0x2a4 (4)
0x2a0|fd                                             |.               |                    opcode: "vector" (0xfd) 0x2a0-0x2a1 (1)
0x2a0|   00                                          | .              |                    v_opcode: "v128.load" (0) 0x2a1-0x2a2 (1)
     |                                               |                |                    m{}: 0x2a2-0x2a4 (2)
0x2a0|      04                                       |  .             |                      a: 4 (valid) 0x2a2-0x2a3 (1)
0x2a0|         00                                    |   .            |                      o: 0 (valid) 0x2a3-0x2a4 (1)
     |                                               |                |                  [7]{}: in 0x2a4-0x2a6 (2)
0x2a0|            41                                 |    A           |                    opcode: "i32.const" (0x41) 0x2a4-0x2a5 (1)
0x2a0|               03                              |     .          |                    n: 3 (valid) 0x2a5-0x2a6 (1)
     |                                               |                |                  [8]{}: in 0x2a6-0x2aa (4)
0x2a0|                  fd                           |      .         |                    opcode: "vector" (0xfd) 0x2a6-0x2a7 (1)
0x2a0|                     00                        |       .        |                    v_opcode: "v128.load" (0) 0x2a7-0x2a8 (1)
     |                                               |                |                    m{}: 0x2a8-0x2aa (2)
0x2a0|                        04                     |        .       |                      a: 4 (valid) 0x2a8-0x2a9 (1)
0x2a0|                           00                  |         .      |                      o: 0 (valid) 0x2a9-0x2aa (1)
     |                                               |                |                  [9]{}: in 0x2aa-0x2ac (2)
0x2a0|                              fd               |          .     |                    opcode: "vector" (0xfd) 0x2aa-0x2ab (1)
0x2a0|                                 44            |           D    |                    v_opcode: "f32x4.gt" (68) 0x2ab-0x2ac (1)
     |                                               |                |                  [10]{}: in 0x2ac-0x2ae (2)
0x2a0|                                    fd         |            .   |                    opcode: "vector" (0xfd) 0x2ac-0x2ad (1)
0x2a0|                                       44      |             D  |                    v_opcode: "f32x4.gt" (68) 0x2ad-0x2ae (1)
     |                                               |                |                  [11]{}: in 0x2ae-0x2b0 (2)
0x2a0|                                          41   |              A |                    opcode: "i32.const" (0x41) 0x2ae-0x2af (1)
0x2a0|                                             00|               .|                    n: 0 (valid) 0x2af-0x2b0 (1)
     |                                               |                |                  [12]{}: in 0x2b0-0x2b4 (4)
0x2b0|fd                                             |.               |                    opcode: "vector" (0xfd) 0x2b0-0x2b1 (1)
0x2b0|   00                                          | .              |                    v_opcode: "v128.load" (0) 0x2b1-0x2b2 (1)
     |                                               |                |                    m{}: 0x2b2-0x2b4 (2)
0x2b0|      04                                       |  .             |                      a: 4 (valid) 0x2b2-0x2b3 (1)
0x2b0|         00                                    |   .            |                      o: 0 (valid) 0x2b3-0x2b4 (1)
     |                                               |                |                  [13]{}: in 0x2b4-0x2b6 (2)
0x2b0|            41                                 |    A           |                    opcode: "i32.const" (0x41) 0x2b4-0x2b5 (1)
0x2b0|               01                              |     .          |                    n: 1 (valid) 0x2b5-0x2b6 (1)
     |                                               |                |                  [14]{}: in 0x2b6-0x2ba (4)
0x2b0|                  fd                           |      .         |                    opcode: "vector" (0xfd) 0x2b6-0x2b7 (1)
0x2b0|                     00                        |       .        |                    v_opcode: "v128.load" (0) 0x2b7-0x2b8 (1)
     |                                               |                |                    m{}: 0x2b8-0x2ba (2)
0x2b0|                        04                     |        .       |                      a: 4 (valid) 0x2b8-0x2b9 (1)
0x2b0|                           00                  |         .      |                      o: 0 (valid) 0x2b9-0x2ba (1)
     |                                               |                |                  [15]{}: in 0x2ba-0x2bc (2)
0x2b0|                              fd               |          .     |                    opcode: "vector" (0xfd) 0x2ba-0x2bb (1)
0x2b0|                                 44            |           D    |                    v_opcode: "f32x4.gt" (68) 0x2bb-0x2bc (1)
     |                                               |                |                  [16]{}: in 0x2bc-0x2be (2)
0x2b0|                                    41         |            A   |                    opcode: "i32.const" (0x41) 0x2bc-0x2bd (1)
0x2b0|                                       02      |             .  |                    n: 2 (valid) 0x2bd-0x2be (1)
     |                                               |                |                  [17]{}: in 0x2be-0x2c2 (4)
0x2b0|                                          fd   |              . |                    opcode: "vector" (0xfd) 0x2be-0x2bf (1)
0x2b0|                                             00|               .|                    v_opcode: "v128.load" (0) 0x2bf-0x2c0 (1)
     |                                               |                |                    m{}: 0x2c0-0x2c2 (2)
0x2c0|04                                             |.               |                      a: 4 (valid) 0x2c0-0x2c1 (1)
0x2c0|   00                                          | .              |                      o: 0 (valid) 0x2c1-0x2c2 (1)
     |                                               |                |                  [18]{}: in 0x2c2-0x2c4 (2)
0x2c0|      41                                       |  A             |                    opcode: "i32.const" (0x41) 0x2c2-0x2c3 (1)
0x2c0|         03                                    |   .            |                    n: 3 (valid) 0x2c3-0x2c4 (1)
     |                                               |                |                  [19]{}: in 0x2c4-0x2c8 (4)
0x2c0|            fd                                 |    .           |                    opcode: "vector" (0xfd) 0x2c4-0x2c5 (1)
0x2c0|               00                              |     .          |                    v_opcode: "v128.load" (0) 0x2c5-0x2c6 (1)
     |                                               |                |                    m{}: 0x2c6-0x2c8 (2)
0x2c0|                  04                           |      .         |                      a: 4 (valid) 0x2c6-0x2c7 (1)
0x2c0|                     00                        |       .        |                      o: 0 (valid) 0x2c7-0x2c8 (1)
     |                                               |                |                  [20]{}: in 0x2c8-0x2ca (2)
0x2c0|                        fd                     |        .       |                    opcode: "vector" (0xfd) 0x2c8-0x2c9 (1)
0x2c0|                           44                  |         D      |                    v_opcode: "f32x4.gt" (68) 0x2c9-0x2ca (1)
     |                                               |                |                  [21]{}: in 0x2ca-0x2cc (2)
0x2c0|                              fd               |          .     |                    opcode: "vector" (0xfd) 0x2ca-0x2cb (1)
0x2c0|                                 44            |           D    |                    v_opcode: "f32x4.gt" (68) 0x2cb-0x2cc (1)
     |                                               |                |                  [22]{}: in 0x2cc-0x2ce (2)
0x2c0|                                    fd         |            .   |                    opcode: "vector" (0xfd) 0x2cc-0x2cd (1)
0x2c0|                                       44      |             D  |                    v_opcode: "f32x4.gt" (68) 0x2cd-0x2ce (1)
     |                                               |                |                  [23]{}: in 0x2ce-0x2cf (1)
0x2c0|                                          1a   |              . |                    opcode: "drop" (0x1a) 0x2ce-0x2cf (1)
     |                                               |                |                  [24]{}: in 0x2cf-0x2d0 (1)
0x2c0|                                             0b|               .|                    opcode: "end" (0xb) 0x2cf-0x2d0 (1)
     |                                               |                |            [11]{}: code 0x2d0-0x312 (66)
0x2d0|41                                             |A               |              size: 65 (valid) 0x2d0-0x2d1 (1)
     |                                               |                |              code{}: 0x2d1-0x312 (65)
     |                                               |                |                t{}: 0x2d1-0x2d2 (1)
0x2d0|   00                                          | .              |                  n: 0 (valid) 0x2d1-0x2d2 (1)
     |                                               |                |                  x[0:0]: 0x2d2-0x2d2 (0)
     |                                               |                |                e[0:25]: 0x2d2-0x312 (64)
     |                                               |                |                  [0]{}: in 0x2d2-0x2d4 (2)
0x2d0|      41                                       |  A             |                    opcode: "i32.const" (0x41) 0x2d2-0x2d3 (1)
0x2d0|         00                                    |   .            |                    n: 0 (valid) 0x2d3-0x2d4 (1)
     |                                               |                |                  [1]{}: in 0x2d4-0x2d8 (4)
0x2d0|            fd                                 |    .           |                    opcode: "vector" (0xfd) 0x2d4-0x2d5 (1)
0x2d0|               00                              |     .          |                    v_opcode: "v128.load" (0) 0x2d5-0x2d6 (1)
     |                                               |                |                    m{}: 0x2d6-0x2d8 (2)
0x2d0|                  04                           |      .         |                      a: 4 (valid) 0x2d6-0x2d7 (1)
0x2d0|                     00                        |       .        |                      o: 0 (valid) 0x2d7-0x2d8 (1)
     |                                               |                |                  [2]{}: in 0x2d8-0x2da (2)
0x2d0|                        41                     |        A       |                    opcode: "i32.const" (0x41) 0x2d8-0x2d9 (1)
0x2d0|                           01                  |         .      |                    n: 1 (valid) 0x2d9-0x2da (1)
     |                                               |                |                  [3]{}: in 0x2da-0x2de (4)
0x2d0|                              fd               |          .     |                    opcode: "vector" (0xfd) 0x2da-0x2db (1)
0x2d0|                                 00            |           .    |                    v_opcode: "v128.load" (0) 0x2db-0x2dc (1)
     |                                               |                |                    m{}: 0x2dc-0x2de (2)
0x2d0|                                    04         |            .   |                      a: 4 (valid) 0x2dc-0x2dd (1)
0x2d0|                                       00      |             .  |                      o: 0 (valid) 0x2dd-0x2de (1)
     |                                               |                |                  [4]{}: in 0x2de-0x2e0 (2)
0x2d0|                                          fd   |              . |                    opcode: "vector" (0xfd) 0x2de-0x2df (1)
0x2d0|                                             46|               F|                    v_opcode: "f32x4.ge" (70) 0x2df-0x2e0 (1)
     |                                               |                |                  [5]{}: in 0x2e0-0x2e2 (2)
0x2e0|41                                             |A               |                    opcode: "i32.const" (0x41) 0x2e0-0x2e1 (1)
0x2e0|   02                                          | .              |                    n: 2 (valid) 0x2e1-0x2e2 (1)
     |                                               |                |                  [6]{}: in 0x2e2-0x2e6 (4)
0x2e0|      fd                                       |  .             |                    opcode: "vector" (0xfd) 0x2e2-0x2e3 (1)
0x2e0|         00                                    |   .            |                    v_opcode: "v128.load" (0) 0x2e3-0x2e4 (1)
     |                                               |                |                    m{}: 0x2e4-0x2e6 (2)
0x2e0|            04                                 |    .           |                      a: 4 (valid) 0x2e4-0x2e5 (1)
0x2e0|               00                              |     .          |                      o: 0 (valid) 0x2e5-0x2e6 (1)
     |                                               |                |                  [7]{}: in 0x2e6-0x2e8 (2)
0x2e0|                  41                           |      A         |                    opcode: "i32.const" (0x41) 0x2e6-0x2e7 (1)
0x2e0|                     03                        |       .        |                    n: 3 (valid) 0x2e7-0x2e8 (1)
     |                                               |                |                  [8]{}: in 0x2e8-0x2ec (4)
0x2e0|                        fd                     |        .       |                    opcode: "vector" (0xfd) 0x2e8-0x2e9 (1)
0x2e0|                           00                  |         .      |                    v_opcode: "v128.load" (0) 0x2e9-0x2ea (1)
     |                                               |                |                    m{}: 0x2ea-0x2ec (2)
0x2e0|                              04               |          .     |                      a: 4 (valid) 0x2ea-0x2eb (1)
0x2e0|                                 00            |           .    |                      o: 0 (valid) 0x2eb-0x2ec (1)
     |                                               |                |                  [9]{}: in 0x2ec-0x2ee (2)
0x2e0|                                    fd         |            .   |                    opcode: "vector" (0xfd) 0x2ec-0x2ed (1)
0x2e0|                                       46      |             F  |                    v_opcode: "f32x4.ge" (70) 0x2ed-0x2ee (1)
     |                                               |                |                  [10]{}: in 0x2ee-0x2f0 (2)
0x2e0|                                          fd   |              . |                    opcode: "vector" (0xfd) 0x2ee-0x2ef (1)
0x2e0|                                             46|               F|                    v_opcode: "f32x4.ge" (70) 0x2ef-0x2f0 (1)
     |                                               |                |                  [11]{}: in 0x2f0-0x2f2 (2)
0x2f0|41                                             |A               |                    opcode: "i32.const" (0x41) 0x2f0-0x2f1 (1)
0x2f0|   00                                          | .              |                    n: 0 (valid) 0x2f1-0x2f2 (1)
     |                                               |                |                  [12]{}: in 0x2f2-0x2f6 (4)
0x2f0|      fd                                       |  .             |                    opcode: "vector" (0xfd) 0x2f2-0x2f3 (1)
0x2f0|         00                                    |   .            |                    v_opcode: "v128.load" (0) 0x2f3-0x2f4 (1)
     |                                               |                |                    m{}: 0x2f4-0x2f6 (2)
0x2f0|            04                                 |    .           |                      a: 4 (valid) 0x2f4-0x2f5 (1)
0x2f0|               00                              |     .          |                      o: 0 (valid) 0x2f5-0x2f6 (1)
     |                                               |                |                  [13]{}: in 0x2f6-0x2f8 (2)
0x2f0|                  41                           |      A         |                    opcode: "i32.const" (0x41) 0x2f6-0x2f7 (1)
0x2f0|                     01                        |       .        |                    n: 1 (valid) 0x2f7-0x2f8 (1)
     |                                               |                |                  [14]{}: in 0x2f8-0x2fc (4)
0x2f0|                        fd                     |        .       |                    opcode: "vector" (0xfd) 0x2f8-0x2f9 (1)
0x2f0|                           00                  |         .      |                    v_opcode: "v128.load" (0) 0x2f9-0x2fa (1)
     |                                               |                |                    m{}: 0x2fa-0x2fc (2)
0x2f0|                              04               |          .     |                      a: 4 (valid) 0x2fa-0x2fb (1)
0x2f0|                                 00            |           .    |                      o: 0 (valid) 0x2fb-0x2fc (1)
     |                                               |                |                  [15]{}: in 0x2fc-0x2fe (2)
0x2f0|                                    fd         |            .   |                    opcode: "vector" (0xfd) 0x2fc-0x2fd (1)
0x2f0|                                       46      |             F  |                    v_opcode: "f32x4.ge" (70) 0x2fd-0x2fe (1)
     |                                               |                |                  [16]{}: in 0x2fe-0x300 (2)
0x2f0|                                          41   |              A |                    opcode: "i32.const" (0x41) 0x2fe-0x2ff (1)
0x2f0|                                             02|               .|                    n: 2 (valid) 0x2ff-0x300 (1)
     |                                               |                |                  [17]{}: in 0x300-0x304 (4)
0x300|fd                                             |.               |                    opcode: "vector" (0xfd) 0x300-0x301 (1)
0x300|   00                                          | .              |                    v_opcode: "v128.load" (0) 0x301-0x302 (1)
     |                                               |                |                    m{}: 0x302-0x304 (2)
0x300|      04                                       |  .             |                      a: 4 (valid) 0x302-0x303 (1)
0x300|         00                                    |   .            |                      o: 0 (valid) 0x303-0x304 (1)
     |                                               |                |                  [18]{}: in 0x304-0x306 (2)
0x300|            41                                 |    A           |                    opcode: "i32.const" (0x41) 0x304-0x305 (1)
0x300|               03                              |     .          |                    n: 3 (valid) 0x305-0x306 (1)
     |                                               |                |                  [19]{}: in 0x306-0x30a (4)
0x300|                  fd                           |      .         |                    opcode: "vector" (0xfd) 0x306-0x307 (1)
0x300|                     00                        |       .        |                    v_opcode: "v128.load" (0) 0x307-0x308 (1)
     |                                               |                |                    m{}: 0x308-0x30a (2)
0x300|                        04                     |        .       |                      a: 4 (valid) 0x308-0x309 (1)
0x300|                           00                  |         .      |                      o: 0 (valid) 0x309-0x30a (1)
     |                                               |                |                  [20]{}: in 0x30a-0x30c (2)
0x300|                              fd               |          .     |                    opcode: "vector" (0xfd) 0x30a-0x30b (1)
0x300|                                 46            |           F    |                    v_opcode: "f32x4.ge" (70) 0x30b-0x30c (1)
     |                                               |                |                  [21]{}: in 0x30c-0x30e (2)
0x300|                                    fd         |            .   |                    opcode: "vector" (0xfd) 0x30c-0x30d (1)
0x300|                                       46      |             F  |                    v_opcode: "f32x4.ge" (70) 0x30d-0x30e (1)
     |                                               |                |                  [22]{}: in 0x30e-0x310 (2)
0x300|                                          fd   |              . |                    opcode: "vector" (0xfd) 0x30e-0x30f (1)
0x300|                                             46|               F|                    v_opcode: "f32x4.ge" (70) 0x30f-0x310 (1)
     |                                               |                |                  [23]{}: in 0x310-0x311 (1)
0x310|1a                                             |.               |                    opcode: "drop" (0x1a) 0x310-0x311 (1)
     |                                               |                |                  [24]{}: in 0x311-0x312 (1)
0x310|   0b                                          | .              |                    opcode: "end" (0xb) 0x311-0x312 (1)
     |                                               |                |            [12]{}: code 0x312-0x354 (66)
0x310|      41                                       |  A             |              size: 65 (valid) 0x312-0x313 (1)
     |                                               |                |              code{}: 0x313-0x354 (65)
     |                                               |                |                t{}: 0x313-0x314 (1)
0x310|         00                                    |   .            |                  n: 0 (valid) 0x313-0x314 (1)
     |                                               |                |                  x[0:0]: 0x314-0x314 (0)
     |                                               |                |                e[0:25]: 0x314-0x354 (64)
     |                                               |                |                  [0]{}: in 0x314-0x316 (2)
0x310|            41                                 |    A           |                    opcode: "i32.const" (0x41) 0x314-0x315 (1)
0x310|               00                              |     .          |                    n: 0 (valid) 0x315-0x316 (1)
     |                                               |                |                  [1]{}: in 0x316-0x31a (4)
0x310|                  fd                           |      .         |                    opcode: "vector" (0xfd) 0x316-0x317 (1)
0x310|                     00                        |       .        |                    v_opcode: "v128.load" (0) 0x317-0x318 (1)
     |                                               |                |                    m{}: 0x318-0x31a (2)
0x310|                        04                     |        .       |                      a: 4 (valid) 0x318-0x319 (1)
0x310|                           00                  |         .      |                      o: 0 (valid) 0x319-0x31a (1)
     |                                               |                |                  [2]{}: in 0x31a-0x31c (2)
0x310|                              41               |          A     |                    opcode: "i32.const" (0x41) 0x31a-0x31b (1)
0x310|                                 01            |           .    |                    n: 1 (valid) 0x31b-0x31c (1)
     |                                               |                |                  [3]{}: in 0x31c-0x320 (4)
0x310|                                    fd         |            .   |                    opcode: "vector" (0xfd) 0x31c-0x31d (1)
0x310|                                       00      |             .  |                    v_opcode: "v128.load" (0) 0x31d-0x31e (1)
     |                                               |                |                    m{}: 0x31e-0x320 (2)
0x310|                                          04   |              . |                      a: 4 (valid) 0x31e-0x31f (1)
0x310|                                             00|               .|                      o: 0 (valid) 0x31f-0x320 (1)
     |                                               |                |                  [4]{}: in 0x320-0x322 (2)
0x320|fd                                             |.               |                    opcode: "vector" (0xfd) 0x320-0x321 (1)
0x320|   43                                          | C              |                    v_opcode: "f32x4.lt" (67) 0x321-0x322 (1)
     |                                               |                |                  [5]{}: in 0x322-0x324 (2)
0x320|      41                                       |  A             |                    opcode: "i32.const" (0x41) 0x322-0x323 (1)
0x320|         02                                    |   .            |                    n: 2 (valid) 0x323-0x324 (1)
     |                                               |                |                  [6]{}: in 0x324-0x328 (4)
0x320|            fd                                 |    .           |                    opcode: "vector" (0xfd) 0x324-0x325 (1)
0x320|               00                              |     .          |                    v_opcode: "v128.load" (0) 0x325-0x326 (1)
     |                                               |                |                    m{}: 0x326-0x328 (2)
0x320|                  04                           |      .         |                      a: 4 (valid) 0x326-0x327 (1)
0x320|                     00                        |       .        |                      o: 0 (valid) 0x327-0x328 (1)
     |                                               |                |                  [7]{}: in 0x328-0x32a (2)
0x320|                        41                     |        A       |                    opcode: "i32.const" (0x41) 0x328-0x329 (1)
0x320|                           03                  |         .      |                    n: 3 (valid) 0x329-0x32a (1)
     |                                               |                |                  [8]{}: in 0x32a-0x32e (4)
0x320|                              fd               |          .     |                    opcode: "vector" (0xfd) 0x32a-0x32b (1)
0x320|                                 00            |           .    |                    v_opcode: "v128.load" (0) 0x32b-0x32c (1)
     |                                               |                |                    m{}: 0x32c-0x32e (2)
0x320|                                    04         |            .   |                      a: 4 (valid) 0x32c-0x32d (1)
0x320|                                       00      |             .  |                      o: 0 (valid) 0x32d-0x32e (1)
     |                                               |                |                  [9]{}: in 0x32e-0x330 (2)
0x320|                                          fd   |              . |                    opcode: "vector" (0xfd) 0x32e-0x32f (1)
0x320|                                             45|               E|                    v_opcode: "f32x4.le" (69) 0x32f-0x330 (1)
     |                                               |                |                  [10]{}: in 0x330-0x332 (2)
0x330|fd                                             |.               |                    opcode: "vector" (0xfd) 0x330-0x331 (1)
0x330|   41                                          | A              |                    v_opcode: "f32x4.eq" (65) 0x331-0x332 (1)
     |                                               |                |                  [11]{}: in 0x332-0x334 (2)
0x330|      41                                       |  A             |                    opcode: "i32.const" (0x41) 0x332-0x333 (1)
0x330|         00                                    |   .            |                    n: 0 (valid) 0x333-0x334 (1)
     |                                               |                |                  [12]{}: in 0x334-0x338 (4)
0x330|            fd                                 |    .           |                    opcode: "vector" (0xfd) 0x334-0x335 (1)
0x330|               00                              |     .          |                    v_opcode: "v128.load" (0) 0x335-0x336 (1)
     |                                               |                |                    m{}: 0x336-0x338 (2)
0x330|                  04                           |      .         |                      a: 4 (valid) 0x336-0x337 (1)
0x330|                     00                        |       .        |                      o: 0 (valid) 0x337-0x338 (1)
     |                                               |                |                  [13]{}: in 0x338-0x33a (2)
0x330|                        41                     |        A       |                    opcode: "i32.const" (0x41) 0x338-0x339 (1)
0x330|                           01                  |         .      |                    n: 1 (valid) 0x339-0x33a (1)
     |                                               |                |                  [14]{}: in 0x33a-0x33e (4)
0x330|                              fd               |          .     |                    opcode: "vector" (0xfd) 0x33a-0x33b (1)
0x330|                                 00            |           .    |                    v_opcode: "v128.load" (0) 0x33b-0x33c (1)
     |                                               |                |                    m{}: 0x33c-0x33e (2)
0x330|                                    04         |            .   |                      a: 4 (valid) 0x33c-0x33d (1)
0x330|                                       00      |             .  |                      o: 0 (valid) 0x33d-0x33e (1)
     |                                               |                |                  [15]{}: in 0x33e-0x340 (2)
0x330|                                          fd   |              . |                    opcode: "vector" (0xfd) 0x33e-0x33f (1)
0x330|                                             44|               D|                    v_opcode: "f32x4.gt" (68) 0x33f-0x340 (1)
     |                                               |                |                  [16]{}: in 0x340-0x342 (2)
0x340|41                                             |A               |                    opcode: "i32.const" (0x41) 0x340-0x341 (1)
0x340|   02                                          | .              |                    n: 2 (valid) 0x341-0x342 (1)
     |                                               |                |                  [17]{}: in 0x342-0x346 (4)
0x340|      fd                                       |  .             |                    opcode: "vector" (0xfd) 0x342-0x343 (1)
0x340|         00                                    |   .            |                    v_opcode: "v128.load" (0) 0x343-0x344 (1)
     |                                               |                |                    m{}: 0x344-0x346 (2)
0x340|            04                                 |    .           |                      a: 4 (valid) 0x344-0x345 (1)
0x340|               00                              |     .          |                      o: 0 (valid) 0x345-0x346 (1)
     |                                               |                |                  [18]{}: in 0x346-0x348 (2)
0x340|                  41                           |      A         |                    opcode: "i32.const" (0x41) 0x346-0x347 (1)
0x340|                     03                        |       .        |                    n: 3 (valid) 0x347-0x348 (1)
     |                                               |                |                  [19]{}: in 0x348-0x34c (4)
0x340|                        fd                     |        .       |                    opcode: "vector" (0xfd) 0x348-0x349 (1)
0x340|                           00                  |         .      |                    v_opcode: "v128.load" (0) 0x349-0x34a (1)
     |                                               |                |                    m{}: 0x34a-0x34c (2)
0x340|                              04               |          .     |                      a: 4 (valid) 0x34a-0x34b (1)
0x340|                                 00            |           .    |                      o: 0 (valid) 0x34b-0x34c (1)
     |                                               |                |                  [20]{}: in 0x34c-0x34e (2)
0x340|                                    fd         |            .   |                    opcode: "vector" (0xfd) 0x34c-0x34d (1)
0x340|                                       43      |             C  |                    v_opcode: "f32x4.lt" (67) 0x34d-0x34e (1)
     |                                               |                |                  [21]{}: in 0x34e-0x350 (2)
0x340|                                          fd   |              . |                    opcode: "vector" (0xfd) 0x34e-0x34f (1)
0x340|                                             42|               B|                    v_opcode: "f32x4.ne" (66) 0x34f-0x350 (1)
     |                                               |                |                  [22]{}: in 0x350-0x352 (2)
0x350|fd                                             |.               |                    opcode: "vector" (0xfd) 0x350-0x351 (1)
0x350|   46                                          | F              |                    v_opcode: "f32x4.ge" (70) 0x351-0x352 (1)
     |                                               |                |                  [23]{}: in 0x352-0x353 (1)
0x350|      1a                                       |  .             |                    opcode: "drop" (0x1a) 0x352-0x353 (1)
     |                                               |                |                  [24]{}: in 0x353-0x354 (1)
0x350|         0b|                                   |   .|           |                    opcode: "end" (0xb) 0x353-0x354 (1)
