$ fq -d wasm dv simd_load16_lane-0.wasm
     |00 01 02 03 04 05 06 07 08 09 0a 0b 0c 0d 0e 0f|0123456789abcdef|.{}: simd_load16_lane-0.wasm (wasm) 0x0-0x546 (1350)
0x000|00 61 73 6d                                    |.asm            |  magic: raw bits (valid) 0x0-0x4 (4)
0x000|            01 00 00 00                        |    ....        |  version: 1 0x4-0x8 (4)
     |                                               |                |  sections[0:6]: 0x8-0x546 (1342)
     |                                               |                |    [0]{}: section 0x8-0x16 (14)
0x000|                        01                     |        .       |      id: "type_section" (1) 0x8-0x9 (1)
0x000|                           0c                  |         .      |      size: 12 (valid) 0x9-0xa (1)
     |                                               |                |      content{}: 0xa-0x16 (12)
     |                                               |                |        ft{}: 0xa-0x16 (12)
0x000|                              02               |          .     |          n: 2 (valid) 0xa-0xb (1)
     |                                               |                |          x[0:2]: 0xb-0x16 (11)
     |                                               |                |            [0]{}: ft 0xb-0x11 (6)
0x000|                                 60            |           `    |              tag: 0x60 (valid) 0xb-0xc (1)
     |                                               |                |              rt1{}: 0xc-0xf (3)
0x000|                                    02         |            .   |                n: 2 (valid) 0xc-0xd (1)
     |                                               |                |                x[0:2]: 0xd-0xf (2)
0x000|                                       7f      |             .  |                  [0]: "i32" (0x7f) t 0xd-0xe (1)
0x000|                                          7b   |              { |                  [1]: "v128" (0x7b) t 0xe-0xf (1)
     |                                               |                |              rt2{}: 0xf-0x11 (2)
0x000|                                             01|               .|                n: 1 (valid) 0xf-0x10 (1)
     |                                               |                |                x[0:1]: 0x10-0x11 (1)
0x010|7b                                             |{               |                  [0]: "v128" (0x7b) t 0x10-0x11 (1)
     |                                               |                |            [1]{}: ft 0x11-0x16 (5)
0x010|   60                                          | `              |              tag: 0x60 (valid) 0x11-0x12 (1)
     |                                               |                |              rt1{}: 0x12-0x14 (2)
0x010|      01                                       |  .             |                n: 1 (valid) 0x12-0x13 (1)
     |                                               |                |                x[0:1]: 0x13-0x14 (1)
0x010|         7b                                    |   {            |                  [0]: "v128" (0x7b) t 0x13-0x14 (1)
     |                                               |                |              rt2{}: 0x14-0x16 (2)
0x010|            01                                 |    .           |                n: 1 (valid) 0x14-0x15 (1)
     |                                               |                |                x[0:1]: 0x15-0x16 (1)
0x010|               7b                              |     {          |                  [0]: "v128" (0x7b) t 0x15-0x16 (1)
     |                                               |                |    [1]{}: section 0x16-0x39 (35)
0x010|                  03                           |      .         |      id: "function_section" (3) 0x16-0x17 (1)
0x010|                     21                        |       !        |      size: 33 (valid) 0x17-0x18 (1)
     |                                               |                |      content{}: 0x18-0x39 (33)
     |                                               |                |        x{}: 0x18-0x39 (33)
0x010|                        20                     |                |          n: 32 (valid) 0x18-0x19 (1)
     |                                               |                |          x[0:32]: 0x19-0x39 (32)
0x010|                           00                  |         .      |            [0]: 0 x (valid) 0x19-0x1a (1)
0x010|                              00               |          .     |            [1]: 0 x (valid) 0x1a-0x1b (1)
0x010|                                 00            |           .    |            [2]: 0 x (valid) 0x1b-0x1c (1)
0x010|                                    00         |            .   |            [3]: 0 x (valid) 0x1c-0x1d (1)
0x010|                                       00      |             .  |            [4]: 0 x (valid) 0x1d-0x1e (1)
0x010|                                          00   |              . |            [5]: 0 x (valid) 0x1e-0x1f (1)
0x010|                                             00|               .|            [6]: 0 x (valid) 0x1f-0x20 (1)
0x020|00                                             |.               |            [7]: 0 x (valid) 0x20-0x21 (1)
0x020|   01                                          | .              |            [8]: 1 x (valid) 0x21-0x22 (1)
0x020|      01                                       |  .             |            [9]: 1 x (valid) 0x22-0x23 (1)
0x020|         01                                    |   .            |            [10]: 1 x (valid) 0x23-0x24 (1)
0x020|            01                                 |    .           |            [11]: 1 x (valid) 0x24-0x25 (1)
0x020|               01                              |     .          |            [12]: 1 x (valid) 0x25-0x26 (1)
0x020|                  01                           |      .         |            [13]: 1 x (valid) 0x26-0x27 (1)
0x020|                     01                        |       .        |            [14]: 1 x (valid) 0x27-0x28 (1)
0x020|                        01                     |        .       |            [15]: 1 x (valid) 0x28-0x29 (1)
0x020|                           00                  |         .      |            [16]: 0 x (valid) 0x29-0x2a (1)
0x020|                              00               |          .     |            [17]: 0 x (valid) 0x2a-0x2b (1)
0x020|                                 00            |           .    |            [18]: 0 x (valid) 0x2b-0x2c (1)
0x020|                                    00         |            .   |            [19]: 0 x (valid) 0x2c-0x2d (1)
0x020|                                       00      |             .  |            [20]: 0 x (valid) 0x2d-0x2e (1)
0x020|                                          00   |              . |            [21]: 0 x (valid) 0x2e-0x2f (1)
0x020|                                             00|               .|            [22]: 0 x (valid) 0x2f-0x30 (1)
0x030|00                                             |.               |            [23]: 0 x (valid) 0x30-0x31 (1)
0x030|   00                                          | .              |            [24]: 0 x (valid) 0x31-0x32 (1)
0x030|      00                                       |  .             |            [25]: 0 x (valid) 0x32-0x33 (1)
0x030|         00                                    |   .            |            [26]: 0 x (valid) 0x33-0x34 (1)
0x030|            00                                 |    .           |            [27]: 0 x (valid) 0x34-0x35 (1)
0x030|               00                              |     .          |            [28]: 0 x (valid) 0x35-0x36 (1)
0x030|                  00                           |      .         |            [29]: 0 x (valid) 0x36-0x37 (1)
0x030|                     00                        |       .        |            [30]: 0 x (valid) 0x37-0x38 (1)
0x030|                        00                     |        .       |            [31]: 0 x (valid) 0x38-0x39 (1)
     |                                               |                |    [2]{}: section 0x39-0x3e (5)
0x030|                           05                  |         .      |      id: "memory_section" (5) 0x39-0x3a (1)
0x030|                              03               |          .     |      size: 3 (valid) 0x3a-0x3b (1)
     |                                               |                |      content{}: 0x3b-0x3e (3)
     |                                               |                |        mem{}: 0x3b-0x3e (3)
0x030|                                 01            |           .    |          n: 1 (valid) 0x3b-0x3c (1)
     |                                               |                |          x[0:1]: 0x3c-0x3e (2)
     |                                               |                |            [0]{}: mem 0x3c-0x3e (2)
     |                                               |                |              lim{}: 0x3c-0x3e (2)
0x030|                                    00         |            .   |                tag: 0x0 0x3c-0x3d (1)
0x030|                                       01      |             .  |                n: 1 (valid) 0x3d-0x3e (1)
     |                                               |                |    [3]{}: section 0x3e-0x3aa (876)
0x030|                                          07   |              . |      id: "export_section" (7) 0x3e-0x3f (1)
0x030|                                             e9|               .|      size: 873 (valid) 0x3f-0x41 (2)
0x040|06                                             |.               |
     |                                               |                |      content{}: 0x41-0x3aa (873)
     |                                               |                |        ex{}: 0x41-0x3aa (873)
0x040|   20                                          |                |          n: 32 (valid) 0x41-0x42 (1)
     |                                               |                |          x[0:32]: 0x42-0x3aa (872)
     |                                               |                |            [0]{}: ex 0x42-0x57 (21)
     |                                               |                |              nm{}: 0x42-0x55 (19)
0x040|      12                                       |  .             |                n: 18 (valid) 0x42-0x43 (1)
0x040|         76 31 32 38 2e 6c 6f 61 64 31 36 5f 6c|   v128.load16_l|                b: "v128.load16_lane_0" 0x43-0x55 (18)
0x050|61 6e 65 5f 30                                 |ane_0           |
     |                                               |                |              d{}: 0x55-0x57 (2)
0x050|               00                              |     .          |                tag: "funcidx" (0x0) 0x55-0x56 (1)
0x050|                  00                           |      .         |                x: 0 (valid) 0x56-0x57 (1)
     |                                               |                |            [1]{}: ex 0x57-0x6c (21)
     |                                               |                |              nm{}: 0x57-0x6a (19)
0x050|                     12                        |       .        |                n: 18 (valid) 0x57-0x58 (1)
0x050|                        76 31 32 38 2e 6c 6f 61|        v128.loa|                b: "v128.load16_lane_1" 0x58-0x6a (18)
0x060|64 31 36 5f 6c 61 6e 65 5f 31                  |d16_lane_1      |
     |                                               |                |              d{}: 0x6a-0x6c (2)
0x060|                              00               |          .     |                tag: "funcidx" (0x0) 0x6a-0x6b (1)
0x060|                                 01            |           .    |                x: 1 (valid) 0x6b-0x6c (1)
     |                                               |                |            [2]{}: ex 0x6c-0x81 (21)
     |                                               |                |              nm{}: 0x6c-0x7f (19)
0x060|                                    12         |            .   |                n: 18 (valid) 0x6c-0x6d (1)
0x060|                                       76 31 32|             v12|                b: "v128.load16_lane_2" 0x6d-0x7f (18)
0x070|38 2e 6c 6f 61 64 31 36 5f 6c 61 6e 65 5f 32   |8.load16_lane_2 |
     |                                               |                |              d{}: 0x7f-0x81 (2)
0x070|                                             00|               .|                tag: "funcidx" (0x0) 0x7f-0x80 (1)
0x080|02                                             |.               |                x: 2 (valid) 0x80-0x81 (1)
     |                                               |                |            [3]{}: ex 0x81-0x96 (21)
     |                                               |                |              nm{}: 0x81-0x94 (19)
0x080|   12                                          | .              |                n: 18 (valid) 0x81-0x82 (1)
0x080|      76 31 32 38 2e 6c 6f 61 64 31 36 5f 6c 61|  v128.load16_la|                b: "v128.load16_lane_3" 0x82-0x94 (18)
0x090|6e 65 5f 33                                    |ne_3            |
     |                                               |                |              d{}: 0x94-0x96 (2)
0x090|            00                                 |    .           |                tag: "funcidx" (0x0) 0x94-0x95 (1)
0x090|               03                              |     .          |                x: 3 (valid) 0x95-0x96 (1)
     |                                               |                |            [4]{}: ex 0x96-0xab (21)
     |                                               |                |              nm{}: 0x96-0xa9 (19)
0x090|                  12                           |      .         |                n: 18 (valid) 0x96-0x97 (1)
0x090|                     76 31 32 38 2e 6c 6f 61 64|       v128.load|                b: "v128.load16_lane_4" 0x97-0xa9 (18)
0x0a0|31 36 5f 6c 61 6e 65 5f 34                     |16_lane_4       |
     |                                               |                |              d{}: 0xa9-0xab (2)
0x0a0|                           00                  |         .      |                tag: "funcidx" (0x0) 0xa9-0xaa (1)
0x0a0|                              04               |          .     |                x: 4 (valid) 0xaa-0xab (1)
     |                                               |                |            [5]{}: ex 0xab-0xc0 (21)
     |                                               |                |              nm{}: 0xab-0xbe (19)
0x0a0|                                 12            |           .    |                n: 18 (valid) 0xab-0xac (1)
0x0a0|                                    76 31 32 38|            v128|                b: "v128.load16_lane_5" 0xac-0xbe (18)
0x0b0|2e 6c 6f 61 64 31 36 5f 6c 61 6e 65 5f 35      |.load16_lane_5  |
     |                                               |                |              d{}: 0xbe-0xc0 (2)
0x0b0|                                          00   |              . |                tag: "funcidx" (0x0) 0xbe-0xbf (1)
0x0b0|                                             05|               .|                x: 5 (valid) 0xbf-0xc0 (1)
     |                                               |                |            [6]{}: ex 0xc0-0xd5 (21)
     |                                               |                |              nm{}: 0xc0-0xd3 (19)
0x0c0|12                                             |.               |                n: 18 (valid) 0xc0-0xc1 (1)
0x0c0|   76 31 32 38 2e 6c 6f 61 64 31 36 5f 6c 61 6e| v128.load16_lan|                b: "v128.load16_lane_6" 0xc1-0xd3 (18)
0x0d0|65 5f 36                                       |e_6             |
     |                                               |                |              d{}: 0xd3-0xd5 (2)
0x0d0|         00                                    |   .            |                tag: "funcidx" (0x0) 0xd3-0xd4 (1)
0x0d0|            06                                 |    .           |                x: 6 (valid) 0xd4-0xd5 (1)
     |                                               |                |            [7]{}: ex 0xd5-0xea (21)
     |                                               |                |              nm{}: 0xd5-0xe8 (19)
0x0d0|               12                              |     .          |                n: 18 (valid) 0xd5-0xd6 (1)
0x0d0|                  76 31 32 38 2e 6c 6f 61 64 31|      v128.load1|                b: "v128.load16_lane_7" 0xd6-0xe8 (18)
0x0e0|36 5f 6c 61 6e 65 5f 37                        |6_lane_7        |
     |                                               |                |              d{}: 0xe8-0xea (2)
0x0e0|                        00                     |        .       |                tag: "funcidx" (0x0) 0xe8-0xe9 (1)
0x0e0|                           07                  |         .      |                x: 7 (valid) 0xe9-0xea (1)
     |                                               |                |            [8]{}: ex 0xea-0x108 (30)
     |                                               |                |              nm{}: 0xea-0x106 (28)
0x0e0|                              1b               |          .     |                n: 27 (valid) 0xea-0xeb (1)
0x0e0|                                 76 31 32 38 2e|           v128.|                b: "v128.load16_lane_0_offset_0" 0xeb-0x106 (27)
0x0f0|6c 6f 61 64 31 36 5f 6c 61 6e 65 5f 30 5f 6f 66|load16_lane_0_of|
0x100|66 73 65 74 5f 30                              |fset_0          |
     |                                               |                |              d{}: 0x106-0x108 (2)
0x100|                  00                           |      .         |                tag: "funcidx" (0x0) 0x106-0x107 (1)
0x100|                     08                        |       .        |                x: 8 (valid) 0x107-0x108 (1)
     |                                               |                |            [9]{}: ex 0x108-0x126 (30)
     |                                               |                |              nm{}: 0x108-0x124 (28)
0x100|                        1b                     |        .       |                n: 27 (valid) 0x108-0x109 (1)
0x100|                           76 31 32 38 2e 6c 6f|         v128.lo|                b: "v128.load16_lane_1_offset_1" 0x109-0x124 (27)
0x110|61 64 31 36 5f 6c 61 6e 65 5f 31 5f 6f 66 66 73|ad16_lane_1_offs|
0x120|65 74 5f 31                                    |et_1            |
     |                                               |                |              d{}: 0x124-0x126 (2)
0x120|            00                                 |    .           |                tag: "funcidx" (0x0) 0x124-0x125 (1)
0x120|               09                              |     .          |                x: 9 (valid) 0x125-0x126 (1)
     |                                               |                |            [10]{}: ex 0x126-0x144 (30)
     |                                               |                |              nm{}: 0x126-0x142 (28)
0x120|                  1b                           |      .         |                n: 27 (valid) 0x126-0x127 (1)
0x120|                     76 31 32 38 2e 6c 6f 61 64|       v128.load|                b: "v128.load16_lane_2_offset_2" 0x127-0x142 (27)
0x130|31 36 5f 6c 61 6e 65 5f 32 5f 6f 66 66 73 65 74|16_lane_2_offset|
0x140|5f 32                                          |_2              |
     |                                               |                |              d{}: 0x142-0x144 (2)
0x140|      00                                       |  .             |                tag: "funcidx" (0x0) 0x142-0x143 (1)
0x140|         0a                                    |   .            |                x: 10 (valid) 0x143-0x144 (1)
     |                                               |                |            [11]{}: ex 0x144-0x162 (30)
     |                                               |                |              nm{}: 0x144-0x160 (28)
0x140|            1b                                 |    .           |                n: 27 (valid) 0x144-0x145 (1)
0x140|               76 31 32 38 2e 6c 6f 61 64 31 36|     v128.load16|                b: "v128.load16_lane_3_offset_3" 0x145-0x160 (27)
0x150|5f 6c 61 6e 65 5f 33 5f 6f 66 66 73 65 74 5f 33|_lane_3_offset_3|
     |                                               |                |              d{}: 0x160-0x162 (2)
0x160|00                                             |.               |                tag: "funcidx" (0x0) 0x160-0x161 (1)
0x160|   0b                                          | .              |                x: 11 (valid) 0x161-0x162 (1)
     |                                               |                |            [12]{}: ex 0x162-0x180 (30)
     |                                               |                |              nm{}: 0x162-0x17e (28)
0x160|      1b                                       |  .             |                n: 27 (valid) 0x162-0x163 (1)
0x160|         76 31 32 38 2e 6c 6f 61 64 31 36 5f 6c|   v128.load16_l|                b: "v128.load16_lane_4_offset_4" 0x163-0x17e (27)
0x170|61 6e 65 5f 34 5f 6f 66 66 73 65 74 5f 34      |ane_4_offset_4  |
     |                                               |                |              d{}: 0x17e-0x180 (2)
0x170|                                          00   |              . |                tag: "funcidx" (0x0) 0x17e-0x17f (1)
0x170|                                             0c|               .|                x: 12 (valid) 0x17f-0x180 (1)
     |                                               |                |            [13]{}: ex 0x180-0x19e (30)
     |                                               |                |              nm{}: 0x180-0x19c (28)
0x180|1b                                             |.               |                n: 27 (valid) 0x180-0x181 (1)
0x180|   76 31 32 38 2e 6c 6f 61 64 31 36 5f 6c 61 6e| v128.load16_lan|                b: "v128.load16_lane_5_offset_5" 0x181-0x19c (27)
0x190|65 5f 35 5f 6f 66 66 73 65 74 5f 35            |e_5_offset_5    |
     |                                               |                |              d{}: 0x19c-0x19e (2)
0x190|                                    00         |            .   |                tag: "funcidx" (0x0) 0x19c-0x19d (1)
0x190|                                       0d      |             .  |                x: 13 (valid) 0x19d-0x19e (1)
     |                                               |                |            [14]{}: ex 0x19e-0x1bc (30)
     |                                               |                |              nm{}: 0x19e-0x1ba (28)
0x190|                                          1b   |              . |                n: 27 (valid) 0x19e-0x19f (1)
0x190|                                             76|               v|                b: "v128.load16_lane_6_offset_6" 0x19f-0x1ba (27)
0x1a0|31 32 38 2e 6c 6f 61 64 31 36 5f 6c 61 6e 65 5f|128.load16_lane_|
0x1b0|36 5f 6f 66 66 73 65 74 5f 36                  |6_offset_6      |
     |                                               |                |              d{}: 0x1ba-0x1bc (2)
0x1b0|                              00               |          .     |                tag: "funcidx" (0x0) 0x1ba-0x1bb (1)
0x1b0|                                 0e            |           .    |                x: 14 (valid) 0x1bb-0x1bc (1)
     |                                               |                |            [15]{}: ex 0x1bc-0x1da (30)
     |                                               |                |              nm{}: 0x1bc-0x1d8 (28)
0x1b0|                                    1b         |            .   |                n: 27 (valid) 0x1bc-0x1bd (1)
0x1b0|                                       76 31 32|             v12|                b: "v128.load16_lane_7_offset_7" 0x1bd-0x1d8 (27)
0x1c0|38 2e 6c 6f 61 64 31 36 5f 6c 61 6e 65 5f 37 5f|8.load16_lane_7_|
0x1d0|6f 66 66 73 65 74 5f 37                        |offset_7        |
     |                                               |                |              d{}: 0x1d8-0x1da (2)
0x1d0|                        00                     |        .       |                tag: "funcidx" (0x0) 0x1d8-0x1d9 (1)
0x1d0|                           0f                  |         .      |                x: 15 (valid) 0x1d9-0x1da (1)
     |                                               |                |            [16]{}: ex 0x1da-0x1f7 (29)
     |                                               |                |              nm{}: 0x1da-0x1f5 (27)
0x1d0|                              1a               |          .     |                n: 26 (valid) 0x1da-0x1db (1)
0x1d0|                                 76 31 32 38 2e|           v128.|                b: "v128.load16_lane_0_align_1" 0x1db-0x1f5 (26)
0x1e0|6c 6f 61 64 31 36 5f 6c 61 6e 65 5f 30 5f 61 6c|load16_lane_0_al|
0x1f0|69 67 6e 5f 31                                 |ign_1           |
     |                                               |                |              d{}: 0x1f5-0x1f7 (2)
0x1f0|               00                              |     .          |                tag: "funcidx" (0x0) 0x1f5-0x1f6 (1)
0x1f0|                  10                           |      .         |                x: 16 (valid) 0x1f6-0x1f7 (1)
     |                                               |                |            [17]{}: ex 0x1f7-0x214 (29)
     |                                               |                |              nm{}: 0x1f7-0x212 (27)
0x1f0|                     1a                        |       .        |                n: 26 (valid) 0x1f7-0x1f8 (1)
0x1f0|                        76 31 32 38 2e 6c 6f 61|        v128.loa|                b: "v128.load16_lane_0_align_2" 0x1f8-0x212 (26)
0x200|64 31 36 5f 6c 61 6e 65 5f 30 5f 61 6c 69 67 6e|d16_lane_0_align|
0x210|5f 32                                          |_2              |
     |                                               |                |              d{}: 0x212-0x214 (2)
0x210|      00                                       |  .             |                tag: "funcidx" (0x0) 0x212-0x213 (1)
0x210|         11                                    |   .            |                x: 17 (valid) 0x213-0x214 (1)
     |                                               |                |            [18]{}: ex 0x214-0x231 (29)
     |                                               |                |              nm{}: 0x214-0x22f (27)
0x210|            1a                                 |    .           |                n: 26 (valid) 0x214-0x215 (1)
0x210|               76 31 32 38 2e 6c 6f 61 64 31 36|     v128.load16|                b: "v128.load16_lane_1_align_1" 0x215-0x22f (26)
0x220|5f 6c 61 6e 65 5f 31 5f 61 6c 69 67 6e 5f 31   |_lane_1_align_1 |
     |                                               |                |              d{}: 0x22f-0x231 (2)
0x220|                                             00|               .|                tag: "funcidx" (0x0) 0x22f-0x230 (1)
0x230|12                                             |.               |                x: 18 (valid) 0x230-0x231 (1)
     |                                               |                |            [19]{}: ex 0x231-0x24e (29)
     |                                               |                |              nm{}: 0x231-0x24c (27)
0x230|   1a                                          | .              |                n: 26 (valid) 0x231-0x232 (1)
0x230|      76 31 32 38 2e 6c 6f 61 64 31 36 5f 6c 61|  v128.load16_la|                b: "v128.load16_lane_1_align_2" 0x232-0x24c (26)
0x240|6e 65 5f 31 5f 61 6c 69 67 6e 5f 32            |ne_1_align_2    |
     |                                               |                |              d{}: 0x24c-0x24e (2)
0x240|                                    00         |            .   |                tag: "funcidx" (0x0) 0x24c-0x24d (1)
0x240|                                       13      |             .  |                x: 19 (valid) 0x24d-0x24e (1)
     |                                               |                |            [20]{}: ex 0x24e-0x26b (29)
     |                                               |                |              nm{}: 0x24e-0x269 (27)
0x240|                                          1a   |              . |                n: 26 (valid) 0x24e-0x24f (1)
0x240|                                             76|               v|                b: "v128.load16_lane_2_align_1" 0x24f-0x269 (26)
0x250|31 32 38 2e 6c 6f 61 64 31 36 5f 6c 61 6e 65 5f|128.load16_lane_|
0x260|32 5f 61 6c 69 67 6e 5f 31                     |2_align_1       |
     |                                               |                |              d{}: 0x269-0x26b (2)
0x260|                           00                  |         .      |                tag: "funcidx" (0x0) 0x269-0x26a (1)
0x260|                              14               |          .     |                x: 20 (valid) 0x26a-0x26b (1)
     |                                               |                |            [21]{}: ex 0x26b-0x288 (29)
     |                                               |                |              nm{}: 0x26b-0x286 (27)
0x260|                                 1a            |           .    |                n: 26 (valid) 0x26b-0x26c (1)
0x260|                                    76 31 32 38|            v128|                b: "v128.load16_lane_2_align_2" 0x26c-0x286 (26)
0x270|2e 6c 6f 61 64 31 36 5f 6c 61 6e 65 5f 32 5f 61|.load16_lane_2_a|
0x280|6c 69 67 6e 5f 32                              |lign_2          |
     |                                               |                |              d{}: 0x286-0x288 (2)
0x280|                  00                           |      .         |                tag: "funcidx" (0x0) 0x286-0x287 (1)
0x280|                     15                        |       .        |                x: 21 (valid) 0x287-0x288 (1)
     |                                               |                |            [22]{}: ex 0x288-0x2a5 (29)
     |                                               |                |              nm{}: 0x288-0x2a3 (27)
0x280|                        1a                     |        .       |                n: 26 (valid) 0x288-0x289 (1)
0x280|                           76 31 32 38 2e 6c 6f|         v128.lo|                b: "v128.load16_lane_3_align_1" 0x289-0x2a3 (26)
0x290|61 64 31 36 5f 6c 61 6e 65 5f 33 5f 61 6c 69 67|ad16_lane_3_alig|
0x2a0|6e 5f 31                                       |n_1             |
     |                                               |                |              d{}: 0x2a3-0x2a5 (2)
0x2a0|         00                                    |   .            |                tag: "funcidx" (0x0) 0x2a3-0x2a4 (1)
0x2a0|            16                                 |    .           |                x: 22 (valid) 0x2a4-0x2a5 (1)
     |                                               |                |            [23]{}: ex 0x2a5-0x2c2 (29)
     |                                               |                |              nm{}: 0x2a5-0x2c0 (27)
0x2a0|               1a                              |     .          |                n: 26 (valid) 0x2a5-0x2a6 (1)
0x2a0|                  76 31 32 38 2e 6c 6f 61 64 31|      v128.load1|                b: "v128.load16_lane_3_align_2" 0x2a6-0x2c0 (26)
0x2b0|36 5f 6c 61 6e 65 5f 33 5f 61 6c 69 67 6e 5f 32|6_lane_3_align_2|
     |                                               |                |              d{}: 0x2c0-0x2c2 (2)
0x2c0|00                                             |.               |                tag: "funcidx" (0x0) 0x2c0-0x2c1 (1)
0x2c0|   17                                          | .              |                x: 23 (valid) 0x2c1-0x2c2 (1)
     |                                               |                |            [24]{}: ex 0x2c2-0x2df (29)
     |                                               |                |              nm{}: 0x2c2-0x2dd (27)
0x2c0|      1a                                       |  .             |                n: 26 (valid) 0x2c2-0x2c3 (1)
0x2c0|         76 31 32 38 2e 6c 6f 61 64 31 36 5f 6c|   v128.load16_l|                b: "v128.load16_lane_4_align_1" 0x2c3-0x2dd (26)
0x2d0|61 6e 65 5f 34 5f 61 6c 69 67 6e 5f 31         |ane_4_align_1   |
     |                                               |                |              d{}: 0x2dd-0x2df (2)
0x2d0|                                       00      |             .  |                tag: "funcidx" (0x0) 0x2dd-0x2de (1)
0x2d0|                                          18   |              . |                x: 24 (valid) 0x2de-0x2df (1)
     |                                               |                |            [25]{}: ex 0x2df-0x2fc (29)
     |                                               |                |              nm{}: 0x2df-0x2fa (27)
0x2d0|                                             1a|               .|                n: 26 (valid) 0x2df-0x2e0 (1)
0x2e0|76 31 32 38 2e 6c 6f 61 64 31 36 5f 6c 61 6e 65|v128.load16_lane|                b: "v128.load16_lane_4_align_2" 0x2e0-0x2fa (26)
0x2f0|5f 34 5f 61 6c 69 67 6e 5f 32                  |_4_align_2      |
     |                                               |                |              d{}: 0x2fa-0x2fc (2)
0x2f0|                              00               |          .     |                tag: "funcidx" (0x0) 0x2fa-0x2fb (1)
0x2f0|                                 19            |           .    |                x: 25 (valid) 0x2fb-0x2fc (1)
     |                                               |                |            [26]{}: ex 0x2fc-0x319 (29)
     |                                               |                |              nm{}: 0x2fc-0x317 (27)
0x2f0|                                    1a         |            .   |                n: 26 (valid) 0x2fc-0x2fd (1)
0x2f0|                                       76 31 32|             v12|                b: "v128.load16_lane_5_align_1" 0x2fd-0x317 (26)
0x300|38 2e 6c 6f 61 64 31 36 5f 6c 61 6e 65 5f 35 5f|8.load16_lane_5_|
0x310|61 6c 69 67 6e 5f 31                           |align_1         |
     |                                               |                |              d{}: 0x317-0x319 (2)
0x310|                     00                        |       .        |                tag: "funcidx" (0x0) 0x317-0x318 (1)
0x310|                        1a                     |        .       |                x: 26 (valid) 0x318-0x319 (1)
     |                                               |                |            [27]{}: ex 0x319-0x336 (29)
     |                                               |                |              nm{}: 0x319-0x334 (27)
0x310|                           1a                  |         .      |                n: 26 (valid) 0x319-0x31a (1)
0x310|                              76 31 32 38 2e 6c|          v128.l|                b: "v128.load16_lane_5_align_2" 0x31a-0x334 (26)
0x320|6f 61 64 31 36 5f 6c 61 6e 65 5f 35 5f 61 6c 69|oad16_lane_5_ali|
0x330|67 6e 5f 32                                    |gn_2            |
     |                                               |                |              d{}: 0x334-0x336 (2)
0x330|            00                                 |    .           |                tag: "funcidx" (0x0) 0x334-0x335 (1)
0x330|               1b                              |     .          |                x: 27 (valid) 0x335-0x336 (1)
     |                                               |                |            [28]{}: ex 0x336-0x353 (29)
     |                                               |                |              nm{}: 0x336-0x351 (27)
0x330|                  1a                           |      .         |                n: 26 (valid) 0x336-0x337 (1)
0x330|                     76 31 32 38 2e 6c 6f 61 64|       v128.load|                b: "v128.load16_lane_6_align_1" 0x337-0x351 (26)
0x340|31 36 5f 6c 61 6e 65 5f 36 5f 61 6c 69 67 6e 5f|16_lane_6_align_|
0x350|31                                             |1               |
     |                                               |                |              d{}: 0x351-0x353 (2)
0x350|   00                                          | .              |                tag: "funcidx" (0x0) 0x351-0x352 (1)
0x350|      1c                                       |  .             |                x: 28 (valid) 0x352-0x353 (1)
     |                                               |                |            [29]{}: ex 0x353-0x370 (29)
     |                                               |                |              nm{}: 0x353-0x36e (27)
0x350|         1a                                    |   .            |                n: 26 (valid) 0x353-0x354 (1)
0x350|            76 31 32 38 2e 6c 6f 61 64 31 36 5f|    v128.load16_|                b: "v128.load16_lane_6_align_2" 0x354-0x36e (26)
0x360|6c 61 6e 65 5f 36 5f 61 6c 69 67 6e 5f 32      |lane_6_align_2  |
     |                                               |                |              d{}: 0x36e-0x370 (2)
0x360|                                          00   |              . |                tag: "funcidx" (0x0) 0x36e-0x36f (1)
0x360|                                             1d|               .|                x: 29 (valid) 0x36f-0x370 (1)
     |                                               |                |            [30]{}: ex 0x370-0x38d (29)
     |                                               |                |              nm{}: 0x370-0x38b (27)
0x370|1a                                             |.               |                n: 26 (valid) 0x370-0x371 (1)
0x370|   76 31 32 38 2e 6c 6f 61 64 31 36 5f 6c 61 6e| v128.load16_lan|                b: "v128.load16_lane_7_align_1" 0x371-0x38b (26)
0x380|65 5f 37 5f 61 6c 69 67 6e 5f 31               |e_7_align_1     |
     |                                               |                |              d{}: 0x38b-0x38d (2)
0x380|                                 00            |           .    |                tag: "funcidx" (0x0) 0x38b-0x38c (1)
0x380|                                    1e         |            .   |                x: 30 (valid) 0x38c-0x38d (1)
     |                                               |                |            [31]{}: ex 0x38d-0x3aa (29)
     |                                               |                |              nm{}: 0x38d-0x3a8 (27)
0x380|                                       1a      |             .  |                n: 26 (valid) 0x38d-0x38e (1)
0x380|                                          76 31|              v1|                b: "v128.load16_lane_7_align_2" 0x38e-0x3a8 (26)
0x390|32 38 2e 6c 6f 61 64 31 36 5f 6c 61 6e 65 5f 37|28.load16_lane_7|
0x3a0|5f 61 6c 69 67 6e 5f 32                        |_align_2        |
     |                                               |                |              d{}: 0x3a8-0x3aa (2)
0x3a0|                        00                     |        .       |                tag: "funcidx" (0x0) 0x3a8-0x3a9 (1)
0x3a0|                           1f                  |         .      |                x: 31 (valid) 0x3a9-0x3aa (1)
     |                                               |                |    [4]{}: section 0x3aa-0x52e (388)
0x3a0|                              0a               |          .     |      id: "code_section" (10) 0x3aa-0x3ab (1)
0x3a0|                                 81 03         |           ..   |      size: 385 (valid) 0x3ab-0x3ad (2)
     |                                               |                |      content{}: 0x3ad-0x52e (385)
     |                                               |                |        code{}: 0x3ad-0x52e (385)
0x3a0|                                       20      |                |          n: 32 (valid) 0x3ad-0x3ae (1)
     |                                               |                |          x[0:32]: 0x3ae-0x52e (384)
     |                                               |                |            [0]{}: code 0x3ae-0x3ba (12)
0x3a0|                                          0b   |              . |              size: 11 (valid) 0x3ae-0x3af (1)
     |                                               |                |              code{}: 0x3af-0x3ba (11)
     |                                               |                |                t{}: 0x3af-0x3b0 (1)
0x3a0|                                             00|               .|                  n: 0 (valid) 0x3af-0x3b0 (1)
     |                                               |                |                  x[0:0]: 0x3b0-0x3b0 (0)
     |                                               |                |                e[0:4]: 0x3b0-0x3ba (10)
     |                                               |                |                  [0]{}: in 0x3b0-0x3b2 (2)
0x3b0|20                                             |                |                    opcode: "local.get" (0x20) 0x3b0-0x3b1 (1)
0x3b0|   00                                          | .              |                    x: 0 (valid) 0x3b1-0x3b2 (1)
     |                                               |                |                  [1]{}: in 0x3b2-0x3b4 (2)
0x3b0|      20                                       |                |                    opcode: "local.get" (0x20) 0x3b2-0x3b3 (1)
0x3b0|         01                                    |   .            |                    x: 1 (valid) 0x3b3-0x3b4 (1)
     |                                               |                |                  [2]{}: in 0x3b4-0x3b9 (5)
0x3b0|            fd                                 |    .           |                    opcode: "vector" (0xfd) 0x3b4-0x3b5 (1)
0x3b0|               55                              |     U          |                    v_opcode: "v128.load16_lane" (85) 0x3b5-0x3b6 (1)
     |                                               |                |                    m{}: 0x3b6-0x3b8 (2)
0x3b0|                  01                           |      .         |                      a: 1 (valid) 0x3b6-0x3b7 (1)
0x3b0|                     00                        |       .        |                      o: 0 (valid) 0x3b7-0x3b8 (1)
0x3b0|                        00                     |        .       |                    l: 0 0x3b8-0x3b9 (1)
     |                                               |                |                  [3]{}: in 0x3b9-0x3ba (1)
0x3b0|                           0b                  |         .      |                    opcode: "end" (0xb) 0x3b9-0x3ba (1)
     |                                               |                |            [1]{}: code 0x3ba-0x3c6 (12)
0x3b0|                              0b               |          .     |              size: 11 (valid) 0x3ba-0x3bb (1)
     |                                               |                |              code{}: 0x3bb-0x3c6 (11)
     |                                               |                |                t{}: 0x3bb-0x3bc (1)
0x3b0|                                 00            |           .    |                  n: 0 (valid) 0x3bb-0x3bc (1)
     |                                               |                |                  x[0:0]: 0x3bc-0x3bc (0)
     |                                               |                |                e[0:4]: 0x3bc-0x3c6 (10)
     |                                               |                |                  [0]{}: in 0x3bc-0x3be (2)
0x3b0|                                    20         |                |                    opcode: "local.get" (0x20) 0x3bc-0x3bd (1)
0x3b0|                                       00      |             .  |                    x: 0 (valid) 0x3bd-0x3be (1)
     |                                               |                |                  [1]{}: in 0x3be-0x3c0 (2)
0x3b0|                                          20   |                |                    opcode: "local.get" (0x20) 0x3be-0x3bf (1)
0x3b0|                                             01|               .|                    x: 1 (valid) 0x3bf-0x3c0 (1)
     |                                               |                |                  [2]{}: in 0x3c0-0x3c5 (5)
0x3c0|fd                                             |.               |                    opcode: "vector" (0xfd) 0x3c0-0x3c1 (1)
0x3c0|   55                                          | U              |                    v_opcode: "v128.load16_lane" (85) 0x3c1-0x3c2 (1)
     |                                               |                |                    m{}: 0x3c2-0x3c4 (2)
0x3c0|      01                                       |  .             |                      a: 1 (valid) 0x3c2-0x3c3 (1)
0x3c0|         00                                    |   .            |                      o: 0 (valid) 0x3c3-0x3c4 (1)
0x3c0|            01                                 |    .           |                    l: 1 0x3c4-0x3c5 (1)
     |                                               |                |                  [3]{}: in 0x3c5-0x3c6 (1)
0x3c0|               0b                              |     .          |                    opcode: "end" (0xb) 0x3c5-0x3c6 (1)
     |                                               |                |            [2]{}: code 0x3c6-0x3d2 (12)
0x3c0|                  0b                           |      .         |              size: 11 (valid) 0x3c6-0x3c7 (1)
     |                                               |                |              code{}: 0x3c7-0x3d2 (11)
     |                                               |                |                t{}: 0x3c7-0x3c8 (1)
0x3c0|                     00                        |       .        |                  n: 0 (valid) 0x3c7-0x3c8 (1)
     |                                               |                |                  x[0:0]: 0x3c8-0x3c8 (0)
     |                                               |                |                e[0:4]: 0x3c8-0x3d2 (10)
     |                                               |                |                  [0]{}: in 0x3c8-0x3ca (2)
0x3c0|                        20                     |                |                    opcode: "local.get" (0x20) 0x3c8-0x3c9 (1)
0x3c0|                           00                  |         .      |                    x: 0 (valid) 0x3c9-0x3ca (1)
     |                                               |                |                  [1]{}: in 0x3ca-0x3cc (2)
0x3c0|                              20               |                |                    opcode: "local.get" (0x20) 0x3ca-0x3cb (1)
0x3c0|                                 01            |           .    |                    x: 1 (valid) 0x3cb-0x3cc (1)
     |                                               |                |                  [2]{}: in 0x3cc-0x3d1 (5)
0x3c0|                                    fd         |            .   |                    opcode: "vector" (0xfd) 0x3cc-0x3cd (1)
0x3c0|                                       55      |             U  |                    v_opcode: "v128.load16_lane" (85) 0x3cd-0x3ce (1)
     |                                               |                |                    m{}: 0x3ce-0x3d0 (2)
0x3c0|                                          01   |              . |                      a: 1 (valid) 0x3ce-0x3cf (1)
0x3c0|                                             00|               .|                      o: 0 (valid) 0x3cf-0x3d0 (1)
0x3d0|02                                             |.               |                    l: 2 0x3d0-0x3d1 (1)
     |                                               |                |                  [3]{}: in 0x3d1-0x3d2 (1)
0x3d0|   0b                                          | .              |                    opcode: "end" (0xb) 0x3d1-0x3d2 (1)
     |                                               |                |            [3]{}: code 0x3d2-0x3de (12)
0x3d0|      0b                                       |  .             |              size: 11 (valid) 0x3d2-0x3d3 (1)
     |                                               |                |              code{}: 0x3d3-0x3de (11)
     |                                               |                |                t{}: 0x3d3-0x3d4 (1)
0x3d0|         00                                    |   .            |                  n: 0 (valid) 0x3d3-0x3d4 (1)
     |                                               |                |                  x[0:0]: 0x3d4-0x3d4 (0)
     |                                               |                |                e[0:4]: 0x3d4-0x3de (10)
     |                                               |                |                  [0]{}: in 0x3d4-0x3d6 (2)
0x3d0|            20                                 |                |                    opcode: "local.get" (0x20) 0x3d4-0x3d5 (1)
0x3d0|               00                              |     .          |                    x: 0 (valid) 0x3d5-0x3d6 (1)
     |                                               |                |                  [1]{}: in 0x3d6-0x3d8 (2)
0x3d0|                  20                           |                |                    opcode: "local.get" (0x20) 0x3d6-0x3d7 (1)
0x3d0|                     01                        |       .        |                    x: 1 (valid) 0x3d7-0x3d8 (1)
     |                                               |                |                  [2]{}: in 0x3d8-0x3dd (5)
0x3d0|                        fd                     |        .       |                    opcode: "vector" (0xfd) 0x3d8-0x3d9 (1)
0x3d0|                           55                  |         U      |                    v_opcode: "v128.load16_lane" (85) 0x3d9-0x3da (1)
     |                                               |                |                    m{}: 0x3da-0x3dc (2)
0x3d0|                              01               |          .     |                      a: 1 (valid) 0x3da-0x3db (1)
0x3d0|                                 00            |           .    |                      o: 0 (valid) 0x3db-0x3dc (1)
0x3d0|                                    03         |            .   |                    l: 3 0x3dc-0x3dd (1)
     |                                               |                |                  [3]{}: in 0x3dd-0x3de (1)
0x3d0|                                       0b      |             .  |                    opcode: "end" (0xb) 0x3dd-0x3de (1)
     |                                               |                |            [4]{}: code 0x3de-0x3ea (12)
0x3d0|                                          0b   |              . |              size: 11 (valid) 0x3de-0x3df (1)
     |                                               |                |              code{}: 0x3df-0x3ea (11)
     |                                               |                |                t{}: 0x3df-0x3e0 (1)
0x3d0|                                             00|               .|                  n: 0 (valid) 0x3df-0x3e0 (1)
     |                                               |                |                  x[0:0]: 0x3e0-0x3e0 (0)
     |                                               |                |                e[0:4]: 0x3e0-0x3ea (10)
     |                                               |                |                  [0]{}: in 0x3e0-0x3e2 (2)
0x3e0|20                                             |                |                    opcode: "local.get" (0x20) 0x3e0-0x3e1 (1)
0x3e0|   00                                          | .              |                    x: 0 (valid) 0x3e1-0x3e2 (1)
     |                                               |                |                  [1]{}: in 0x3e2-0x3e4 (2)
0x3e0|      20                                       |                |                    opcode: "local.get" (0x20) 0x3e2-0x3e3 (1)
0x3e0|         01                                    |   .            |                    x: 1 (valid) 0x3e3-0x3e4 (1)
     |                                               |                |                  [2]{}: in 0x3e4-0x3e9 (5)
0x3e0|            fd                                 |    .           |                    opcode: "vector" (0xfd) 0x3e4-0x3e5 (1)
0x3e0|               55                              |     U          |                    v_opcode: "v128.load16_lane" (85) 0x3e5-0x3e6 (1)
     |                                               |                |                    m{}: 0x3e6-0x3e8 (2)
0x3e0|                  01                           |      .         |                      a: 1 (valid) 0x3e6-0x3e7 (1)
0x3e0|                     00                        |       .        |                      o: 0 (valid) 0x3e7-0x3e8 (1)
0x3e0|                        04                     |        .       |                    l: 4 0x3e8-0x3e9 (1)
     |                                               |                |                  [3]{}: in 0x3e9-0x3ea (1)
0x3e0|                           0b                  |         .      |                    opcode: "end" (0xb) 0x3e9-0x3ea (1)
     |                                               |                |            [5]{}: code 0x3ea-0x3f6 (12)
0x3e0|                              0b               |          .     |              size: 11 (valid) 0x3ea-0x3eb (1)
     |                                               |                |              code{}: 0x3eb-0x3f6 (11)
     |                                               |                |                t{}: 0x3eb-0x3ec (1)
0x3e0|                                 00            |           .    |                  n: 0 (valid) 0x3eb-0x3ec (1)
     |                                               |                |                  x[0:0]: 0x3ec-0x3ec (0)
     |                                               |                |                e[0:4]: 0x3ec-0x3f6 (10)
     |                                               |                |                  [0]{}: in 0x3ec-0x3ee (2)
0x3e0|                                    20         |                |                    opcode: "local.get" (0x20) 0x3ec-0x3ed (1)
0x3e0|                                       00      |             .  |                    x: 0 (valid) 0x3ed-0x3ee (1)
     |                                               |                |                  [1]{}: in 0x3ee-0x3f0 (2)
0x3e0|                                          20   |                |                    opcode: "local.get" (0x20) 0x3ee-0x3ef (1)
0x3e0|                                             01|               .|                    x: 1 (valid) 0x3ef-0x3f0 (1)
     |                                               |                |                  [2]{}: in 0x3f0-0x3f5 (5)
0x3f0|fd                                             |.               |                    opcode: "vector" (0xfd) 0x3f0-0x3f1 (1)
0x3f0|   55                                          | U              |                    v_opcode: "v128.load16_lane" (85) 0x3f1-0x3f2 (1)
     |                                               |                |                    m{}: 0x3f2-0x3f4 (2)
0x3f0|      01                                       |  .             |                      a: 1 (valid) 0x3f2-0x3f3 (1)
0x3f0|         00                                    |   .            |                      o: 0 (valid) 0x3f3-0x3f4 (1)
0x3f0|            05                                 |    .           |                    l: 5 0x3f4-0x3f5 (1)
     |                                               |                |                  [3]{}: in 0x3f5-0x3f6 (1)
0x3f0|               0b                              |     .          |                    opcode: "end" (0xb) 0x3f5-0x3f6 (1)
     |                                               |                |            [6]{}: code 0x3f6-0x402 (12)
0x3f0|                  0b                           |      .         |              size: 11 (valid) 0x3f6-0x3f7 (1)
     |                                               |                |              code{}: 0x3f7-0x402 (11)
     |                                               |                |                t{}: 0x3f7-0x3f8 (1)
0x3f0|                     00                        |       .        |                  n: 0 (valid) 0x3f7-0x3f8 (1)
     |                                               |                |                  x[0:0]: 0x3f8-0x3f8 (0)
     |                                               |                |                e[0:4]: 0x3f8-0x402 (10)
     |                                               |                |                  [0]{}: in 0x3f8-0x3fa (2)
0x3f0|                        20                     |                |                    opcode: "local.get" (0x20) 0x3f8-0x3f9 (1)
0x3f0|                           00                  |         .      |                    x: 0 (valid) 0x3f9-0x3fa (1)
     |                                               |                |                  [1]{}: in 0x3fa-0x3fc (2)
0x3f0|                              20               |                |                    opcode: "local.get" (0x20) 0x3fa-0x3fb (1)
0x3f0|                                 01            |           .    |                    x: 1 (valid) 0x3fb-0x3fc (1)
     |                                               |                |                  [2]{}: in 0x3fc-0x401 (5)
0x3f0|                                    fd         |            .   |                    opcode: "vector" (0xfd) 0x3fc-0x3fd (1)
0x3f0|                                       55      |             U  |                    v_opcode: "v128.load16_lane" (85) 0x3fd-0x3fe (1)
     |                                               |                |                    m{}: 0x3fe-0x400 (2)
0x3f0|                                          01   |              . |                      a: 1 (valid) 0x3fe-0x3ff (1)
0x3f0|                                             00|               .|                      o: 0 (valid) 0x3ff-0x400 (1)
0x400|06                                             |.               |                    l: 6 0x400-0x401 (1)
     |                                               |                |                  [3]{}: in 0x401-0x402 (1)
0x400|   0b                                          | .              |                    opcode: "end" (0xb) 0x401-0x402 (1)
     |                                               |                |            [7]{}: code 0x402-0x40e (12)
0x400|      0b                                       |  .             |              size: 11 (valid) 0x402-0x403 (1)
     |                                               |                |              code{}: 0x403-0x40e (11)
     |                                               |                |                t{}: 0x403-0x404 (1)
0x400|         00                                    |   .            |                  n: 0 (valid) 0x403-0x404 (1)
     |                                               |                |                  x[0:0]: 0x404-0x404 (0)
     |                                               |                |                e[0:4]: 0x404-0x40e (10)
     |                                               |                |                  [0]{}: in 0x404-0x406 (2)
0x400|            20                                 |                |                    opcode: "local.get" (0x20) 0x404-0x405 (1)
0x400|               00                              |     .          |                    x: 0 (valid) 0x405-0x406 (1)
     |                                               |                |                  [1]{}: in 0x406-0x408 (2)
0x400|                  20                           |                |                    opcode: "local.get" (0x20) 0x406-0x407 (1)
0x400|                     01                        |       .        |                    x: 1 (valid) 0x407-0x408 (1)
     |                                               |                |                  [2]{}: in 0x408-0x40d (5)
0x400|                        fd                     |        .       |                    opcode: "vector" (0xfd) 0x408-0x409 (1)
0x400|                           55                  |         U      |                    v_opcode: "v128.load16_lane" (85) 0x409-0x40a (1)
     |                                               |                |                    m{}: 0x40a-0x40c (2)
0x400|                              01               |          .     |                      a: 1 (valid) 0x40a-0x40b (1)
0x400|                                 00            |           .    |                      o: 0 (valid) 0x40b-0x40c (1)
0x400|                                    07         |            .   |                    l: 7 0x40c-0x40d (1)
     |                                               |                |                  [3]{}: in 0x40d-0x40e (1)
0x400|                                       0b      |             .  |                    opcode: "end" (0xb) 0x40d-0x40e (1)
     |                                               |                |            [8]{}: code 0x40e-0x41a (12)
0x400|                                          0b   |              . |              size: 11 (valid) 0x40e-0x40f (1)
     |                                               |                |              code{}: 0x40f-0x41a (11)
     |                                               |                |                t{}: 0x40f-0x410 (1)
0x400|                                             00|               .|                  n: 0 (valid) 0x40f-0x410 (1)
     |                                               |                |                  x[0:0]: 0x410-0x410 (0)
     |                                               |                |                e[0:4]: 0x410-0x41a (10)
     |                                               |                |                  [0]{}: in 0x410-0x412 (2)
0x410|41                                             |A               |                    opcode: "i32.const" (0x41) 0x410-0x411 (1)
0x410|   00                                          | .              |                    n: 0 (valid) 0x411-0x412 (1)
     |                                               |                |                  [1]{}: in 0x412-0x414 (2)
0x410|      20                                       |                |                    opcode: "local.get" (0x20) 0x412-0x413 (1)
0x410|         00                                    |   .            |                    x: 0 (valid) 0x413-0x414 (1)
     |                                               |                |                  [2]{}: in 0x414-0x419 (5)
0x410|            fd                                 |    .           |                    opcode: "vector" (0xfd) 0x414-0x415 (1)
0x410|               55                              |     U          |                    v_opcode: "v128.load16_lane" (85) 0x415-0x416 (1)
     |                                               |                |                    m{}: 0x416-0x418 (2)
0x410|                  01                           |      .         |                      a: 1 (valid) 0x416-0x417 (1)
0x410|                     00                        |       .        |                      o: 0 (valid) 0x417-0x418 (1)
0x410|                        00                     |        .       |                    l: 0 0x418-0x419 (1)
     |                                               |                |                  [3]{}: in 0x419-0x41a (1)
0x410|                           0b                  |         .      |                    opcode: "end" (0xb) 0x419-0x41a (1)
     |                                               |                |            [9]{}: code 0x41a-0x426 (12)
0x410|                              0b               |          .     |              size: 11 (valid) 0x41a-0x41b (1)
     |                                               |                |              code{}: 0x41b-0x426 (11)
     |                                               |                |                t{}: 0x41b-0x41c (1)
0x410|                                 00            |           .    |                  n: 0 (valid) 0x41b-0x41c (1)
     |                                               |                |                  x[0:0]: 0x41c-0x41c (0)
     |                                               |                |                e[0:4]: 0x41c-0x426 (10)
     |                                               |                |                  [0]{}: in 0x41c-0x41e (2)
0x410|                                    41         |            A   |                    opcode: "i32.const" (0x41) 0x41c-0x41d (1)
0x410|                                       00      |             .  |                    n: 0 (valid) 0x41d-0x41e (1)
     |                                               |                |                  [1]{}: in 0x41e-0x420 (2)
0x410|                                          20   |                |                    opcode: "local.get" (0x20) 0x41e-0x41f (1)
0x410|                                             00|               .|                    x: 0 (valid) 0x41f-0x420 (1)
     |                                               |                |                  [2]{}: in 0x420-0x425 (5)
0x420|fd                                             |.               |                    opcode: "vector" (0xfd) 0x420-0x421 (1)
0x420|   55                                          | U              |                    v_opcode: "v128.load16_lane" (85) 0x421-0x422 (1)
     |                                               |                |                    m{}: 0x422-0x424 (2)
0x420|      01                                       |  .             |                      a: 1 (valid) 0x422-0x423 (1)
0x420|         01                                    |   .            |                      o: 1 (valid) 0x423-0x424 (1)
0x420|            01                                 |    .           |                    l: 1 0x424-0x425 (1)
     |                                               |                |                  [3]{}: in 0x425-0x426 (1)
0x420|               0b                              |     .          |                    opcode: "end" (0xb) 0x425-0x426 (1)
     |                                               |                |            [10]{}: code 0x426-0x432 (12)
0x420|                  0b                           |      .         |              size: 11 (valid) 0x426-0x427 (1)
     |                                               |                |              code{}: 0x427-0x432 (11)
     |                                               |                |                t{}: 0x427-0x428 (1)
0x420|                     00                        |       .        |                  n: 0 (valid) 0x427-0x428 (1)
     |                                               |                |                  x[0:0]: 0x428-0x428 (0)
     |                                               |                |                e[0:4]: 0x428-0x432 (10)
     |                                               |                |                  [0]{}: in 0x428-0x42a (2)
0x420|                        41                     |        A       |                    opcode: "i32.const" (0x41) 0x428-0x429 (1)
0x420|                           00                  |         .      |                    n: 0 (valid) 0x429-0x42a (1)
     |                                               |                |                  [1]{}: in 0x42a-0x42c (2)
0x420|                              20               |                |                    opcode: "local.get" (0x20) 0x42a-0x42b (1)
0x420|                                 00            |           .    |                    x: 0 (valid) 0x42b-0x42c (1)
     |                                               |                |                  [2]{}: in 0x42c-0x431 (5)
0x420|                                    fd         |            .   |                    opcode: "vector" (0xfd) 0x42c-0x42d (1)
0x420|                                       55      |             U  |                    v_opcode: "v128.load16_lane" (85) 0x42d-0x42e (1)
     |                                               |                |                    m{}: 0x42e-0x430 (2)
0x420|                                          01   |              . |                      a: 1 (valid) 0x42e-0x42f (1)
0x420|                                             02|               .|                      o: 2 (valid) 0x42f-0x430 (1)
0x430|02                                             |.               |                    l: 2 0x430-0x431 (1)
     |                                               |                |                  [3]{}: in 0x431-0x432 (1)
0x430|   0b                                          | .              |                    opcode: "end" (0xb) 0x431-0x432 (1)
     |                                               |                |            [11]{}: code 0x432-0x43e (12)
0x430|      0b                                       |  .             |              size: 11 (valid) 0x432-0x433 (1)
     |                                               |                |              code{}: 0x433-0x43e (11)
     |                                               |                |                t{}: 0x433-0x434 (1)
0x430|         00                                    |   .            |                  n: 0 (valid) 0x433-0x434 (1)
     |                                               |                |                  x[0:0]: 0x434-0x434 (0)
     |                                               |                |                e[0:4]: 0x434-0x43e (10)
     |                                               |                |                  [0]{}: in 0x434-0x436 (2)
0x430|            41                                 |    A           |                    opcode: "i32.const" (0x41) 0x434-0x435 (1)
0x430|               00                              |     .          |                    n: 0 (valid) 0x435-0x436 (1)
     |                                               |                |                  [1]{}: in 0x436-0x438 (2)
0x430|                  20                           |                |                    opcode: "local.get" (0x20) 0x436-0x437 (1)
0x430|                     00                        |       .        |                    x: 0 (valid) 0x437-0x438 (1)
     |                                               |                |                  [2]{}: in 0x438-0x43d (5)
0x430|                        fd                     |        .       |                    opcode: "vector" (0xfd) 0x438-0x439 (1)
0x430|                           55                  |         U      |                    v_opcode: "v128.load16_lane" (85) 0x439-0x43a (1)
     |                                               |                |                    m{}: 0x43a-0x43c (2)
0x430|                              01               |          .     |                      a: 1 (valid) 0x43a-0x43b (1)
0x430|                                 03            |           .    |                      o: 3 (valid) 0x43b-0x43c (1)
0x430|                                    03         |            .   |                    l: 3 0x43c-0x43d (1)
     |                                               |                |                  [3]{}: in 0x43d-0x43e (1)
0x430|                                       0b      |             .  |                    opcode: "end" (0xb) 0x43d-0x43e (1)
     |                                               |                |            [12]{}: code 0x43e-0x44a (12)
0x430|                                          0b   |              . |              size: 11 (valid) 0x43e-0x43f (1)
     |                                               |                |              code{}: 0x43f-0x44a (11)
     |                                               |                |                t{}: 0x43f-0x440 (1)
0x430|                                             00|               .|                  n: 0 (valid) 0x43f-0x440 (1)
     |                                               |                |                  x[0:0]: 0x440-0x440 (0)
     |                                               |                |                e[0:4]: 0x440-0x44a (10)
     |                                               |                |                  [0]{}: in 0x440-0x442 (2)
0x440|41                                             |A               |                    opcode: "i32.const" (0x41) 0x440-0x441 (1)
0x440|   00                                          | .              |                    n: 0 (valid) 0x441-0x442 (1)
     |                                               |                |                  [1]{}: in 0x442-0x444 (2)
0x440|      20                                       |                |                    opcode: "local.get" (0x20) 0x442-0x443 (1)
0x440|         00                                    |   .            |                    x: 0 (valid) 0x443-0x444 (1)
     |                                               |                |                  [2]{}: in 0x444-0x449 (5)
0x440|            fd                                 |    .           |                    opcode: "vector" (0xfd) 0x444-0x445 (1)
0x440|               55                              |     U          |                    v_opcode: "v128.load16_lane" (85) 0x445-0x446 (1)
     |                                               |                |                    m{}: 0x446-0x448 (2)
0x440|                  01                           |      .         |                      a: 1 (valid) 0x446-0x447 (1)
0x440|                     04                        |       .        |                      o: 4 (valid) 0x447-0x448 (1)
0x440|                        04                     |        .       |                    l: 4 0x448-0x449 (1)
     |                                               |                |                  [3]{}: in 0x449-0x44a (1)
0x440|                           0b                  |         .      |                    opcode: "end" (0xb) 0x449-0x44a (1)
     |                                               |                |            [13]{}: code 0x44a-0x456 (12)
0x440|                              0b               |          .     |              size: 11 (valid) 0x44a-0x44b (1)
     |                                               |                |              code{}: 0x44b-0x456 (11)
     |                                               |                |                t{}: 0x44b-0x44c (1)
0x440|                                 00            |           .    |                  n: 0 (valid) 0x44b-0x44c (1)
     |                                               |                |                  x[0:0]: 0x44c-0x44c (0)
     |                                               |                |                e[0:4]: 0x44c-0x456 (10)
     |                                               |                |                  [0]{}: in 0x44c-0x44e (2)
0x440|                                    41         |            A   |                    opcode: "i32.const" (0x41) 0x44c-0x44d (1)
0x440|                                       00      |             .  |                    n: 0 (valid) 0x44d-0x44e (1)
     |                                               |                |                  [1]{}: in 0x44e-0x450 (2)
0x440|                                          20   |                |                    opcode: "local.get" (0x20) 0x44e-0x44f (1)
0x440|                                             00|               .|                    x: 0 (valid) 0x44f-0x450 (1)
     |                                               |                |                  [2]{}: in 0x450-0x455 (5)
0x450|fd                                             |.               |                    opcode: "vector" (0xfd) 0x450-0x451 (1)
0x450|   55                                          | U              |                    v_opcode: "v128.load16_lane" (85) 0x451-0x452 (1)
     |                                               |                |                    m{}: 0x452-0x454 (2)
0x450|      01                                       |  .             |                      a: 1 (valid) 0x452-0x453 (1)
0x450|         05                                    |   .            |                      o: 5 (valid) 0x453-0x454 (1)
0x450|            05                                 |    .           |                    l: 5 0x454-0x455 (1)
     |                                               |                |                  [3]{}: in 0x455-0x456 (1)
0x450|               0b                              |     .          |                    opcode: "end" (0xb) 0x455-0x456 (1)
     |                                               |                |            [14]{}: code 0x456-0x462 (12)
0x450|                  0b                           |      .         |              size: 11 (valid) 0x456-0x457 (1)
     |                                               |                |              code{}: 0x457-0x462 (11)
     |                                               |                |                t{}: 0x457-0x458 (1)
0x450|                     00                        |       .        |                  n: 0 (valid) 0x457-0x458 (1)
     |                                               |                |                  x[0:0]: 0x458-0x458 (0)
     |                                               |                |                e[0:4]: 0x458-0x462 (10)
     |                                               |                |                  [0]{}: in 0x458-0x45a (2)
0x450|                        41                     |        A       |                    opcode: "i32.const" (0x41) 0x458-0x459 (1)
0x450|                           00                  |         .      |                    n: 0 (valid) 0x459-0x45a (1)
     |                                               |                |                  [1]{}: in 0x45a-0x45c (2)
0x450|                              20               |                |                    opcode: "local.get" (0x20) 0x45a-0x45b (1)
0x450|                                 00            |           .    |                    x: 0 (valid) 0x45b-0x45c (1)
     |                                               |                |                  [2]{}: in 0x45c-0x461 (5)
0x450|                                    fd         |            .   |                    opcode: "vector" (0xfd) 0x45c-0x45d (1)
0x450|                                       55      |             U  |                    v_opcode: "v128.load16_lane" (85) 0x45d-0x45e (1)
     |                                               |                |                    m{}: 0x45e-0x460 (2)
0x450|                                          01   |              . |                      a: 1 (valid) 0x45e-0x45f (1)
0x450|                                             06|               .|                      o: 6 (valid) 0x45f-0x460 (1)
0x460|06                                             |.               |                    l: 6 0x460-0x461 (1)
     |                                               |                |                  [3]{}: in 0x461-0x462 (1)
0x460|   0b                                          | .              |                    opcode: "end" (0xb) 0x461-0x462 (1)
     |                                               |                |            [15]{}: code 0x462-0x46e (12)
0x460|      0b                                       |  .             |              size: 11 (valid) 0x462-0x463 (1)
     |                                               |                |              code{}: 0x463-0x46e (11)
     |                                               |                |                t{}: 0x463-0x464 (1)
0x460|         00                                    |   .            |                  n: 0 (valid) 0x463-0x464 (1)
     |                                               |                |                  x[0:0]: 0x464-0x464 (0)
     |                                               |                |                e[0:4]: 0x464-0x46e (10)
     |                                               |                |                  [0]{}: in 0x464-0x466 (2)
0x460|            41                                 |    A           |                    opcode: "i32.const" (0x41) 0x464-0x465 (1)
0x460|               00                              |     .          |                    n: 0 (valid) 0x465-0x466 (1)
     |                                               |                |                  [1]{}: in 0x466-0x468 (2)
0x460|                  20                           |                |                    opcode: "local.get" (0x20) 0x466-0x467 (1)
0x460|                     00                        |       .        |                    x: 0 (valid) 0x467-0x468 (1)
     |                                               |                |                  [2]{}: in 0x468-0x46d (5)
0x460|                        fd                     |        .       |                    opcode: "vector" (0xfd) 0x468-0x469 (1)
0x460|                           55                  |         U      |                    v_opcode: "v128.load16_lane" (85) 0x469-0x46a (1)
     |                                               |                |                    m{}: 0x46a-0x46c (2)
0x460|                              01               |          .     |                      a: 1 (valid) 0x46a-0x46b (1)
0x460|                                 07            |           .    |                      o: 7 (valid) 0x46b-0x46c (1)
0x460|                                    07         |            .   |                    l: 7 0x46c-0x46d (1)
     |                                               |                |                  [3]{}: in 0x46d-0x46e (1)
0x460|                                       0b      |             .  |                    opcode: "end" (0xb) 0x46d-0x46e (1)
     |                                               |                |            [16]{}: code 0x46e-0x47a (12)
0x460|                                          0b   |              . |              size: 11 (valid) 0x46e-0x46f (1)
     |                                               |                |              code{}: 0x46f-0x47a (11)
     |                                               |                |                t{}: 0x46f-0x470 (1)
0x460|                                             00|               .|                  n: 0 (valid) 0x46f-0x470 (1)
     |                                               |                |                  x[0:0]: 0x470-0x470 (0)
     |                                               |                |                e[0:4]: 0x470-0x47a (10)
     |                                               |                |                  [0]{}: in 0x470-0x472 (2)
0x470|20                                             |                |                    opcode: "local.get" (0x20) 0x470-0x471 (1)
0x470|   00                                          | .              |                    x: 0 (valid) 0x471-0x472 (1)
     |                                               |                |                  [1]{}: in 0x472-0x474 (2)
0x470|      20                                       |                |                    opcode: "local.get" (0x20) 0x472-0x473 (1)
0x470|         01                                    |   .            |                    x: 1 (valid) 0x473-0x474 (1)
     |                                               |                |                  [2]{}: in 0x474-0x479 (5)
0x470|            fd                                 |    .           |                    opcode: "vector" (0xfd) 0x474-0x475 (1)
0x470|               55                              |     U          |                    v_opcode: "v128.load16_lane" (85) 0x475-0x476 (1)
     |                                               |                |                    m{}: 0x476-0x478 (2)
0x470|                  00                           |      .         |                      a: 0 (valid) 0x476-0x477 (1)
0x470|                     00                        |       .        |                      o: 0 (valid) 0x477-0x478 (1)
0x470|                        00                     |        .       |                    l: 0 0x478-0x479 (1)
     |                                               |                |                  [3]{}: in 0x479-0x47a (1)
0x470|                           0b                  |         .      |                    opcode: "end" (0xb) 0x479-0x47a (1)
     |                                               |                |            [17]{}: code 0x47a-0x486 (12)
0x470|                              0b               |          .     |              size: 11 (valid) 0x47a-0x47b (1)
     |                                               |                |              code{}: 0x47b-0x486 (11)
     |                                               |                |                t{}: 0x47b-0x47c (1)
0x470|                                 00            |           .    |                  n: 0 (valid) 0x47b-0x47c (1)
     |                                               |                |                  x[0:0]: 0x47c-0x47c (0)
     |                                               |                |                e[0:4]: 0x47c-0x486 (10)
     |                                               |                |                  [0]{}: in 0x47c-0x47e (2)
0x470|                                    20         |                |                    opcode: "local.get" (0x20) 0x47c-0x47d (1)
0x470|                                       00      |             .  |                    x: 0 (valid) 0x47d-0x47e (1)
     |                                               |                |                  [1]{}: in 0x47e-0x480 (2)
0x470|                                          20   |                |                    opcode: "local.get" (0x20) 0x47e-0x47f (1)
0x470|                                             01|               .|                    x: 1 (valid) 0x47f-0x480 (1)
     |                                               |                |                  [2]{}: in 0x480-0x485 (5)
0x480|fd                                             |.               |                    opcode: "vector" (0xfd) 0x480-0x481 (1)
0x480|   55                                          | U              |                    v_opcode: "v128.load16_lane" (85) 0x481-0x482 (1)
     |                                               |                |                    m{}: 0x482-0x484 (2)
0x480|      01                                       |  .             |                      a: 1 (valid) 0x482-0x483 (1)
0x480|         00                                    |   .            |                      o: 0 (valid) 0x483-0x484 (1)
0x480|            00                                 |    .           |                    l: 0 0x484-0x485 (1)
     |                                               |                |                  [3]{}: in 0x485-0x486 (1)
0x480|               0b                              |     .          |                    opcode: "end" (0xb) 0x485-0x486 (1)
     |                                               |                |            [18]{}: code 0x486-0x492 (12)
0x480|                  0b                           |      .         |              size: 11 (valid) 0x486-0x487 (1)
     |                                               |                |              code{}: 0x487-0x492 (11)
     |                                               |                |                t{}: 0x487-0x488 (1)
0x480|                     00                        |       .        |                  n: 0 (valid) 0x487-0x488 (1)
     |                                               |                |                  x[0:0]: 0x488-0x488 (0)
     |                                               |                |                e[0:4]: 0x488-0x492 (10)
     |                                               |                |                  [0]{}: in 0x488-0x48a (2)
0x480|                        20                     |                |                    opcode: "local.get" (0x20) 0x488-0x489 (1)
0x480|                           00                  |         .      |                    x: 0 (valid) 0x489-0x48a (1)
     |                                               |                |                  [1]{}: in 0x48a-0x48c (2)
0x480|                              20               |                |                    opcode: "local.get" (0x20) 0x48a-0x48b (1)
0x480|                                 01            |           .    |                    x: 1 (valid) 0x48b-0x48c (1)
     |                                               |                |                  [2]{}: in 0x48c-0x491 (5)
0x480|                                    fd         |            .   |                    opcode: "vector" (0xfd) 0x48c-0x48d (1)
0x480|                                       55      |             U  |                    v_opcode: "v128.load16_lane" (85) 0x48d-0x48e (1)
     |                                               |                |                    m{}: 0x48e-0x490 (2)
0x480|                                          00   |              . |                      a: 0 (valid) 0x48e-0x48f (1)
0x480|                                             00|               .|                      o: 0 (valid) 0x48f-0x490 (1)
0x490|01                                             |.               |                    l: 1 0x490-0x491 (1)
     |                                               |                |                  [3]{}: in 0x491-0x492 (1)
0x490|   0b                                          | .              |                    opcode: "end" (0xb) 0x491-0x492 (1)
     |                                               |                |            [19]{}: code 0x492-0x49e (12)
0x490|      0b                                       |  .             |              size: 11 (valid) 0x492-0x493 (1)
     |                                               |                |              code{}: 0x493-0x49e (11)
     |                                               |                |                t{}: 0x493-0x494 (1)
0x490|         00                                    |   .            |                  n: 0 (valid) 0x493-0x494 (1)
     |                                               |                |                  x[0:0]: 0x494-0x494 (0)
     |                                               |                |                e[0:4]: 0x494-0x49e (10)
     |                                               |                |                  [0]{}: in 0x494-0x496 (2)
0x490|            20                                 |                |                    opcode: "local.get" (0x20) 0x494-0x495 (1)
0x490|               00                              |     .          |                    x: 0 (valid) 0x495-0x496 (1)
     |                                               |                |                  [1]{}: in 0x496-0x498 (2)
0x490|                  20                           |                |                    opcode: "local.get" (0x20) 0x496-0x497 (1)
0x490|                     01                        |       .        |                    x: 1 (valid) 0x497-0x498 (1)
     |                                               |                |                  [2]{}: in 0x498-0x49d (5)
0x490|                        fd                     |        .       |                    opcode: "vector" (0xfd) 0x498-0x499 (1)
0x490|                           55                  |         U      |                    v_opcode: "v128.load16_lane" (85) 0x499-0x49a (1)
     |                                               |                |                    m{}: 0x49a-0x49c (2)
0x490|                              01               |          .     |                      a: 1 (valid) 0x49a-0x49b (1)
0x490|                                 00            |           .    |                      o: 0 (valid) 0x49b-0x49c (1)
0x490|                                    01         |            .   |                    l: 1 0x49c-0x49d (1)
     |                                               |                |                  [3]{}: in 0x49d-0x49e (1)
0x490|                                       0b      |             .  |                    opcode: "end" (0xb) 0x49d-0x49e (1)
     |                                               |                |            [20]{}: code 0x49e-0x4aa (12)
0x490|                                          0b   |              . |              size: 11 (valid) 0x49e-0x49f (1)
     |                                               |                |              code{}: 0x49f-0x4aa (11)
     |                                               |                |                t{}: 0x49f-0x4a0 (1)
0x490|                                             00|               .|                  n: 0 (valid) 0x49f-0x4a0 (1)
     |                                               |                |                  x[0:0]: 0x4a0-0x4a0 (0)
     |                                               |                |                e[0:4]: 0x4a0-0x4aa (10)
     |                                               |                |                  [0]{}: in 0x4a0-0x4a2 (2)
0x4a0|20                                             |                |                    opcode: "local.get" (0x20) 0x4a0-0x4a1 (1)
0x4a0|   00                                          | .              |                    x: 0 (valid) 0x4a1-0x4a2 (1)
     |                                               |                |                  [1]{}: in 0x4a2-0x4a4 (2)
0x4a0|      20                                       |                |                    opcode: "local.get" (0x20) 0x4a2-0x4a3 (1)
0x4a0|         01                                    |   .            |                    x: 1 (valid) 0x4a3-0x4a4 (1)
     |                                               |                |                  [2]{}: in 0x4a4-0x4a9 (5)
0x4a0|            fd                                 |    .           |                    opcode: "vector" (0xfd) 0x4a4-0x4a5 (1)
0x4a0|               55                              |     U          |                    v_opcode: "v128.load16_lane" (85) 0x4a5-0x4a6 (1)
     |                                               |                |                    m{}: 0x4a6-0x4a8 (2)
0x4a0|                  00                           |      .         |                      a: 0 (valid) 0x4a6-0x4a7 (1)
0x4a0|                     00                        |       .        |                      o: 0 (valid) 0x4a7-0x4a8 (1)
0x4a0|                        02                     |        .       |                    l: 2 0x4a8-0x4a9 (1)
     |                                               |                |                  [3]{}: in 0x4a9-0x4aa (1)
0x4a0|                           0b                  |         .      |                    opcode: "end" (0xb) 0x4a9-0x4aa (1)
     |                                               |                |            [21]{}: code 0x4aa-0x4b6 (12)
0x4a0|                              0b               |          .     |              size: 11 (valid) 0x4aa-0x4ab (1)
     |                                               |                |              code{}: 0x4ab-0x4b6 (11)
     |                                               |                |                t{}: 0x4ab-0x4ac (1)
0x4a0|                                 00            |           .    |                  n: 0 (valid) 0x4ab-0x4ac (1)
     |                                               |                |                  x[0:0]: 0x4ac-0x4ac (0)
     |                                               |                |                e[0:4]: 0x4ac-0x4b6 (10)
     |                                               |                |                  [0]{}: in 0x4ac-0x4ae (2)
0x4a0|                                    20         |                |                    opcode: "local.get" (0x20) 0x4ac-0x4ad (1)
0x4a0|                                       00      |             .  |                    x: 0 (valid) 0x4ad-0x4ae (1)
     |                                               |                |                  [1]{}: in 0x4ae-0x4b0 (2)
0x4a0|                                          20   |                |                    opcode: "local.get" (0x20) 0x4ae-0x4af (1)
0x4a0|                                             01|               .|                    x: 1 (valid) 0x4af-0x4b0 (1)
     |                                               |                |                  [2]{}: in 0x4b0-0x4b5 (5)
0x4b0|fd                                             |.               |                    opcode: "vector" (0xfd) 0x4b0-0x4b1 (1)
0x4b0|   55                                          | U              |                    v_opcode: "v128.load16_lane" (85) 0x4b1-0x4b2 (1)
     |                                               |                |                    m{}: 0x4b2-0x4b4 (2)
0x4b0|      01                                       |  .             |                      a: 1 (valid) 0x4b2-0x4b3 (1)
0x4b0|         00                                    |   .            |                      o: 0 (valid) 0x4b3-0x4b4 (1)
0x4b0|            02                                 |    .           |                    l: 2 0x4b4-0x4b5 (1)
     |                                               |                |                  [3]{}: in 0x4b5-0x4b6 (1)
0x4b0|               0b                              |     .          |                    opcode: "end" (0xb) 0x4b5-0x4b6 (1)
     |                                               |                |            [22]{}: code 0x4b6-0x4c2 (12)
0x4b0|                  0b                           |      .         |              size: 11 (valid) 0x4b6-0x4b7 (1)
     |                                               |                |              code{}: 0x4b7-0x4c2 (11)
     |                                               |                |                t{}: 0x4b7-0x4b8 (1)
0x4b0|                     00                        |       .        |                  n: 0 (valid) 0x4b7-0x4b8 (1)
     |                                               |                |                  x[0:0]: 0x4b8-0x4b8 (0)
     |                                               |                |                e[0:4]: 0x4b8-0x4c2 (10)
     |                                               |                |                  [0]{}: in 0x4b8-0x4ba (2)
0x4b0|                        20                     |                |                    opcode: "local.get" (0x20) 0x4b8-0x4b9 (1)
0x4b0|                           00                  |         .      |                    x: 0 (valid) 0x4b9-0x4ba (1)
     |                                               |                |                  [1]{}: in 0x4ba-0x4bc (2)
0x4b0|                              20               |                |                    opcode: "local.get" (0x20) 0x4ba-0x4bb (1)
0x4b0|                                 01            |           .    |                    x: 1 (valid) 0x4bb-0x4bc (1)
     |                                               |                |                  [2]{}: in 0x4bc-0x4c1 (5)
0x4b0|                                    fd         |            .   |                    opcode: "vector" (0xfd) 0x4bc-0x4bd (1)
0x4b0|                                       55      |             U  |                    v_opcode: "v128.load16_lane" (85) 0x4bd-0x4be (1)
     |                                               |                |                    m{}: 0x4be-0x4c0 (2)
0x4b0|                                          00   |              . |                      a: 0 (valid) 0x4be-0x4bf (1)
0x4b0|                                             00|               .|                      o: 0 (valid) 0x4bf-0x4c0 (1)
0x4c0|03                                             |.               |                    l: 3 0x4c0-0x4c1 (1)
     |                                               |                |                  [3]{}: in 0x4c1-0x4c2 (1)
0x4c0|   0b                                          | .              |                    opcode: "end" (0xb) 0x4c1-0x4c2 (1)
     |                                               |                |            [23]{}: code 0x4c2-0x4ce (12)
0x4c0|      0b                                       |  .             |              size: 11 (valid) 0x4c2-0x4c3 (1)
     |                                               |                |              code{}: 0x4c3-0x4ce (11)
     |                                               |                |                t{}: 0x4c3-0x4c4 (1)
0x4c0|         00                                    |   .            |                  n: 0 (valid) 0x4c3-0x4c4 (1)
     |                                               |                |                  x[0:0]: 0x4c4-0x4c4 (0)
     |                                               |                |                e[0:4]: 0x4c4-0x4ce (10)
     |                                               |                |                  [0]{}: in 0x4c4-0x4c6 (2)
0x4c0|            20                                 |                |                    opcode: "local.get" (0x20) 0x4c4-0x4c5 (1)
0x4c0|               00                              |     .          |                    x: 0 (valid) 0x4c5-0x4c6 (1)
     |                                               |                |                  [1]{}: in 0x4c6-0x4c8 (2)
0x4c0|                  20                           |                |                    opcode: "local.get" (0x20) 0x4c6-0x4c7 (1)
0x4c0|                     01                        |       .        |                    x: 1 (valid) 0x4c7-0x4c8 (1)
     |                                               |                |                  [2]{}: in 0x4c8-0x4cd (5)
0x4c0|                        fd                     |        .       |                    opcode: "vector" (0xfd) 0x4c8-0x4c9 (1)
0x4c0|                           55                  |         U      |                    v_opcode: "v128.load16_lane" (85) 0x4c9-0x4ca (1)
     |                                               |                |                    m{}: 0x4ca-0x4cc (2)
0x4c0|                              01               |          .     |                      a: 1 (valid) 0x4ca-0x4cb (1)
0x4c0|                                 00            |           .    |                      o: 0 (valid) 0x4cb-0x4cc (1)
0x4c0|                                    03         |            .   |                    l: 3 0x4cc-0x4cd (1)
     |                                               |                |                  [3]{}: in 0x4cd-0x4ce (1)
0x4c0|                                       0b      |             .  |                    opcode: "end" (0xb) 0x4cd-0x4ce (1)
     |                                               |                |            [24]{}: code 0x4ce-0x4da (12)
0x4c0|                                          0b   |              . |              size: 11 (valid) 0x4ce-0x4cf (1)
     |                                               |                |              code{}: 0x4cf-0x4da (11)
     |                                               |                |                t{}: 0x4cf-0x4d0 (1)
0x4c0|                                             00|               .|                  n: 0 (valid) 0x4cf-0x4d0 (1)
     |                                               |                |                  x[0:0]: 0x4d0-0x4d0 (0)
     |                                               |                |                e[0:4]: 0x4d0-0x4da (10)
     |                                               |                |                  [0]{}: in 0x4d0-0x4d2 (2)
0x4d0|20                                             |                |                    opcode: "local.get" (0x20) 0x4d0-0x4d1 (1)
0x4d0|   00                                          | .              |                    x: 0 (valid) 0x4d1-0x4d2 (1)
     |                                               |                |                  [1]{}: in 0x4d2-0x4d4 (2)
0x4d0|      20                                       |                |                    opcode: "local.get" (0x20) 0x4d2-0x4d3 (1)
0x4d0|         01                                    |   .            |                    x: 1 (valid) 0x4d3-0x4d4 (1)
     |                                               |                |                  [2]{}: in 0x4d4-0x4d9 (5)
0x4d0|            fd                                 |    .           |                    opcode: "vector" (0xfd) 0x4d4-0x4d5 (1)
0x4d0|               55                              |     U          |                    v_opcode: "v128.load16_lane" (85) 0x4d5-0x4d6 (1)
     |                                               |                |                    m{}: 0x4d6-0x4d8 (2)
0x4d0|                  00                           |      .         |                      a: 0 (valid) 0x4d6-0x4d7 (1)
0x4d0|                     00                        |       .        |                      o: 0 (valid) 0x4d7-0x4d8 (1)
0x4d0|                        04                     |        .       |                    l: 4 0x4d8-0x4d9 (1)
     |                                               |                |                  [3]{}: in 0x4d9-0x4da (1)
0x4d0|                           0b                  |         .      |                    opcode: "end" (0xb) 0x4d9-0x4da (1)
     |                                               |                |            [25]{}: code 0x4da-0x4e6 (12)
0x4d0|                              0b               |          .     |              size: 11 (valid) 0x4da-0x4db (1)
     |                                               |                |              code{}: 0x4db-0x4e6 (11)
     |                                               |                |                t{}: 0x4db-0x4dc (1)
0x4d0|                                 00            |           .    |                  n: 0 (valid) 0x4db-0x4dc (1)
     |                                               |                |                  x[0:0]: 0x4dc-0x4dc (0)
     |                                               |                |                e[0:4]: 0x4dc-0x4e6 (10)
     |                                               |                |                  [0]{}: in 0x4dc-0x4de (2)
0x4d0|                                    20         |                |                    opcode: "local.get" (0x20) 0x4dc-0x4dd (1)
0x4d0|                                       00      |             .  |                    x: 0 (valid) 0x4dd-0x4de (1)
     |                                               |                |                  [1]{}: in 0x4de-0x4e0 (2)
0x4d0|                                          20   |                |                    opcode: "local.get" (0x20) 0x4de-0x4df (1)
0x4d0|                                             01|               .|                    x: 1 (valid) 0x4df-0x4e0 (1)
     |                                               |                |                  [2]{}: in 0x4e0-0x4e5 (5)
0x4e0|fd                                             |.               |                    opcode: "vector" (0xfd) 0x4e0-0x4e1 (1)
0x4e0|   55                                          | U              |                    v_opcode: "v128.load16_lane" (85) 0x4e1-0x4e2 (1)
     |                                               |                |                    m{}: 0x4e2-0x4e4 (2)
0x4e0|      01                                       |  .             |                      a: 1 (valid) 0x4e2-0x4e3 (1)
0x4e0|         00                                    |   .            |                      o: 0 (valid) 0x4e3-0x4e4 (1)
0x4e0|            04                                 |    .           |                    l: 4 0x4e4-0x4e5 (1)
     |                                               |                |                  [3]{}: in 0x4e5-0x4e6 (1)
0x4e0|               0b                              |     .          |                    opcode: "end" (0xb) 0x4e5-0x4e6 (1)
     |                                               |                |            [26]{}: code 0x4e6-0x4f2 (12)
0x4e0|                  0b                           |      .         |              size: 11 (valid) 0x4e6-0x4e7 (1)
     |                                               |                |              code{}: 0x4e7-0x4f2 (11)
     |                                               |                |                t{}: 0x4e7-0x4e8 (1)
0x4e0|                     00                        |       .        |                  n: 0 (valid) 0x4e7-0x4e8 (1)
     |                                               |                |                  x[0:0]: 0x4e8-0x4e8 (0)
     |                                               |                |                e[0:4]: 0x4e8-0x4f2 (10)
     |                                               |                |                  [0]{}: in 0x4e8-0x4ea (2)
0x4e0|                        20                     |                |                    opcode: "local.get" (0x20) 0x4e8-0x4e9 (1)
0x4e0|                           00                  |         .      |                    x: 0 (valid) 0x4e9-0x4ea (1)
     |                                               |                |                  [1]{}: in 0x4ea-0x4ec (2)
0x4e0|                              20               |                |                    opcode: "local.get" (0x20) 0x4ea-0x4eb (1)
0x4e0|                                 01            |           .    |                    x: 1 (valid) 0x4eb-0x4ec (1)
     |                                               |                |                  [2]{}: in 0x4ec-0x4f1 (5)
0x4e0|                                    fd         |            .   |                    opcode: "vector" (0xfd) 0x4ec-0x4ed (1)
0x4e0|                                       55      |             U  |                    v_opcode: "v128.load16_lane" (85) 0x4ed-0x4ee (1)
     |                                               |                |                    m{}: 0x4ee-0x4f0 (2)
0x4e0|                                          00   |              . |                      a: 0 (valid) 0x4ee-0x4ef (1)
0x4e0|                                             00|               .|                      o: 0 (valid) 0x4ef-0x4f0 (1)
0x4f0|05                                             |.               |                    l: 5 0x4f0-0x4f1 (1)
     |                                               |                |                  [3]{}: in 0x4f1-0x4f2 (1)
0x4f0|   0b                                          | .              |                    opcode: "end" (0xb) 0x4f1-0x4f2 (1)
     |                                               |                |            [27]{}: code 0x4f2-0x4fe (12)
0x4f0|      0b                                       |  .             |              size: 11 (valid) 0x4f2-0x4f3 (1)
     |                                               |                |              code{}: 0x4f3-0x4fe (11)
     |                                               |                |                t{}: 0x4f3-0x4f4 (1)
0x4f0|         00                                    |   .            |                  n: 0 (valid) 0x4f3-0x4f4 (1)
     |                                               |                |                  x[0:0]: 0x4f4-0x4f4 (0)
     |                                               |                |                e[0:4]: 0x4f4-0x4fe (10)
     |                                               |                |                  [0]{}: in 0x4f4-0x4f6 (2)
0x4f0|            20                                 |                |                    opcode: "local.get" (0x20) 0x4f4-0x4f5 (1)
0x4f0|               00                              |     .          |                    x: 0 (valid) 0x4f5-0x4f6 (1)
     |                                               |                |                  [1]{}: in 0x4f6-0x4f8 (2)
0x4f0|                  20                           |                |                    opcode: "local.get" (0x20) 0x4f6-0x4f7 (1)
0x4f0|                     01                        |       .        |                    x: 1 (valid) 0x4f7-0x4f8 (1)
     |                                               |                |                  [2]{}: in 0x4f8-0x4fd (5)
0x4f0|                        fd                     |        .       |                    opcode: "vector" (0xfd) 0x4f8-0x4f9 (1)
0x4f0|                           55                  |         U      |                    v_opcode: "v128.load16_lane" (85) 0x4f9-0x4fa (1)
     |                                               |                |                    m{}: 0x4fa-0x4fc (2)
0x4f0|                              01               |          .     |                      a: 1 (valid) 0x4fa-0x4fb (1)
0x4f0|                                 00            |           .    |                      o: 0 (valid) 0x4fb-0x4fc (1)
0x4f0|                                    05         |            .   |                    l: 5 0x4fc-0x4fd (1)
     |                                               |                |                  [3]{}: in 0x4fd-0x4fe (1)
0x4f0|                                       0b      |             .  |                    opcode: "end" (0xb) 0x4fd-0x4fe (1)
     |                                               |                |            [28]{}: code 0x4fe-0x50a (12)
0x4f0|                                          0b   |              . |              size: 11 (valid) 0x4fe-0x4ff (1)
     |                                               |                |              code{}: 0x4ff-0x50a (11)
     |                                               |                |                t{}: 0x4ff-0x500 (1)
0x4f0|                                             00|               .|                  n: 0 (valid) 0x4ff-0x500 (1)
     |                                               |                |                  x[0:0]: 0x500-0x500 (0)
     |                                               |                |                e[0:4]: 0x500-0x50a (10)
     |                                               |                |                  [0]{}: in 0x500-0x502 (2)
0x500|20                                             |                |                    opcode: "local.get" (0x20) 0x500-0x501 (1)
0x500|   00                                          | .              |                    x: 0 (valid) 0x501-0x502 (1)
     |                                               |                |                  [1]{}: in 0x502-0x504 (2)
0x500|      20                                       |                |                    opcode: "local.get" (0x20) 0x502-0x503 (1)
0x500|         01                                    |   .            |                    x: 1 (valid) 0x503-0x504 (1)
     |                                               |                |                  [2]{}: in 0x504-0x509 (5)
0x500|            fd                                 |    .           |                    opcode: "vector" (0xfd) 0x504-0x505 (1)
0x500|               55                              |     U          |                    v_opcode: "v128.load16_lane" (85) 0x505-0x506 (1)
     |                                               |                |                    m{}: 0x506-0x508 (2)
0x500|                  00                           |      .         |                      a: 0 (valid) 0x506-0x507 (1)
0x500|                     00                        |       .        |                      o: 0 (valid) 0x507-0x508 (1)
0x500|                        06                     |        .       |                    l: 6 0x508-0x509 (1)
     |                                               |                |                  [3]{}: in 0x509-0x50a (1)
0x500|                           0b                  |         .      |                    opcode: "end" (0xb) 0x509-0x50a (1)
     |                                               |                |            [29]{}: code 0x50a-0x516 (12)
0x500|                              0b               |          .     |              size: 11 (valid) 0x50a-0x50b (1)
     |                                               |                |              code{}: 0x50b-0x516 (11)
     |                                               |                |                t{}: 0x50b-0x50c (1)
0x500|                                 00            |           .    |                  n: 0 (valid) 0x50b-0x50c (1)
     |                                               |                |                  x[0:0]: 0x50c-0x50c (0)
     |                                               |                |                e[0:4]: 0x50c-0x516 (10)
     |                                               |                |                  [0]{}: in 0x50c-0x50e (2)
0x500|                                    20         |                |                    opcode: "local.get" (0x20) 0x50c-0x50d (1)
0x500|                                       00      |             .  |                    x: 0 (valid) 0x50d-0x50e (1)
     |                                               |                |                  [1]{}: in 0x50e-0x510 (2)
0x500|                                          20   |                |                    opcode: "local.get" (0x20) 0x50e-0x50f (1)
0x500|                                             01|               .|                    x: 1 (valid) 0x50f-0x510 (1)
     |                                               |                |                  [2]{}: in 0x510-0x515 (5)
0x510|fd                                             |.               |                    opcode: "vector" (0xfd) 0x510-0x511 (1)
0x510|   55                                          | U              |                    v_opcode: "v128.load16_lane" (85) 0x511-0x512 (1)
     |                                               |                |                    m{}: 0x512-0x514 (2)
0x510|      01                                       |  .             |                      a: 1 (valid) 0x512-0x513 (1)
0x510|         00                                    |   .            |                      o: 0 (valid) 0x513-0x514 (1)
0x510|            06                                 |    .           |                    l: 6 0x514-0x515 (1)
     |                                               |                |                  [3]{}: in 0x515-0x516 (1)
0x510|               0b                              |     .          |                    opcode: "end" (0xb) 0x515-0x516 (1)
     |                                               |                |            [30]{}: code 0x516-0x522 (12)
0x510|                  0b                           |      .         |              size: 11 (valid) 0x516-0x517 (1)
     |                                               |                |              code{}: 0x517-0x522 (11)
     |                                               |                |                t{}: 0x517-0x518 (1)
0x510|                     00                        |       .        |                  n: 0 (valid) 0x517-0x518 (1)
     |                                               |                |                  x[0:0]: 0x518-0x518 (0)
     |                                               |                |                e[0:4]: 0x518-0x522 (10)
     |                                               |                |                  [0]{}: in 0x518-0x51a (2)
0x510|                        20                     |                |                    opcode: "local.get" (0x20) 0x518-0x519 (1)
0x510|                           00                  |         .      |                    x: 0 (valid) 0x519-0x51a (1)
     |                                               |                |                  [1]{}: in 0x51a-0x51c (2)
0x510|                              20               |                |                    opcode: "local.get" (0x20) 0x51a-0x51b (1)
0x510|                                 01            |           .    |                    x: 1 (valid) 0x51b-0x51c (1)
     |                                               |                |                  [2]{}: in 0x51c-0x521 (5)
0x510|                                    fd         |            .   |                    opcode: "vector" (0xfd) 0x51c-0x51d (1)
0x510|                                       55      |             U  |                    v_opcode: "v128.load16_lane" (85) 0x51d-0x51e (1)
     |                                               |                |                    m{}: 0x51e-0x520 (2)
0x510|                                          00   |              . |                      a: 0 (valid) 0x51e-0x51f (1)
0x510|                                             00|               .|                      o: 0 (valid) 0x51f-0x520 (1)
0x520|07                                             |.               |                    l: 7 0x520-0x521 (1)
     |                                               |                |                  [3]{}: in 0x521-0x522 (1)
0x520|   0b                                          | .              |                    opcode: "end" (0xb) 0x521-0x522 (1)
     |                                               |                |            [31]{}: code 0x522-0x52e (12)
0x520|      0b                                       |  .             |              size: 11 (valid) 0x522-0x523 (1)
     |                                               |                |              code{}: 0x523-0x52e (11)
     |                                               |                |                t{}: 0x523-0x524 (1)
0x520|         00                                    |   .            |                  n: 0 (valid) 0x523-0x524 (1)
     |                                               |                |                  x[0:0]: 0x524-0x524 (0)
     |                                               |                |                e[0:4]: 0x524-0x52e (10)
     |                                               |                |                  [0]{}: in 0x524-0x526 (2)
0x520|            20                                 |                |                    opcode: "local.get" (0x20) 0x524-0x525 (1)
0x520|               00                              |     .          |                    x: 0 (valid) 0x525-0x526 (1)
     |                                               |                |                  [1]{}: in 0x526-0x528 (2)
0x520|                  20                           |                |                    opcode: "local.get" (0x20) 0x526-0x527 (1)
0x520|                     01                        |       .        |                    x: 1 (valid) 0x527-0x528 (1)
     |                                               |                |                  [2]{}: in 0x528-0x52d (5)
0x520|                        fd                     |        .       |                    opcode: "vector" (0xfd) 0x528-0x529 (1)
0x520|                           55                  |         U      |                    v_opcode: "v128.load16_lane" (85) 0x529-0x52a (1)
     |                                               |                |                    m{}: 0x52a-0x52c (2)
0x520|                              01               |          .     |                      a: 1 (valid) 0x52a-0x52b (1)
0x520|                                 00            |           .    |                      o: 0 (valid) 0x52b-0x52c (1)
0x520|                                    07         |            .   |                    l: 7 0x52c-0x52d (1)
     |                                               |                |                  [3]{}: in 0x52d-0x52e (1)
0x520|                                       0b      |             .  |                    opcode: "end" (0xb) 0x52d-0x52e (1)
     |                                               |                |    [5]{}: section 0x52e-0x546 (24)
0x520|                                          0b   |              . |      id: "data_section" (11) 0x52e-0x52f (1)
0x520|                                             16|               .|      size: 22 (valid) 0x52f-0x530 (1)
     |                                               |                |      content{}: 0x530-0x546 (22)
     |                                               |                |        seg{}: 0x530-0x546 (22)
0x530|01                                             |.               |          n: 1 (valid) 0x530-0x531 (1)
     |                                               |                |          x[0:1]: 0x531-0x546 (21)
     |                                               |                |            [0]{}: seg 0x531-0x546 (21)
0x530|   00                                          | .              |              tag: 0 (valid) 0x531-0x532 (1)
     |                                               |                |              e[0:2]: 0x532-0x535 (3)
     |                                               |                |                [0]{}: in 0x532-0x534 (2)
0x530|      41                                       |  A             |                  opcode: "i32.const" (0x41) 0x532-0x533 (1)
0x530|         00                                    |   .            |                  n: 0 (valid) 0x533-0x534 (1)
     |                                               |                |                [1]{}: in 0x534-0x535 (1)
0x530|            0b                                 |    .           |                  opcode: "end" (0xb) 0x534-0x535 (1)
     |                                               |                |              b{}: 0x535-0x546 (17)
0x530|               10                              |     .          |                n: 16 (valid) 0x535-0x536 (1)
0x530|                  00 01 02 03 04 05 06 07 08 09|      ..........|                x: raw bits 0x536-0x546 (16)
0x540|0a 0b 0c 0d 0e 0f|                             |......|         |
