$ fq -d wasm dv simd_i32x4_arith2-0.wasm
     |00 01 02 03 04 05 06 07 08 09 0a 0b 0c 0d 0e 0f|0123456789abcdef|.{}: simd_i32x4_arith2-0.wasm (wasm) 0x0-0x4b6.7 (1207)
0x000|00 61 73 6d                                    |.asm            |  magic: raw bits (valid) 0x0-0x3.7 (4)
0x000|            01 00 00 00                        |    ....        |  version: 1 0x4-0x7.7 (4)
     |                                               |                |  sections[0:4]: 0x8-0x4b6.7 (1199)
     |                                               |                |    [0]{}: section 0x8-0x19.7 (18)
0x000|                        01                     |        .       |      id: "type section" (1) 0x8-0x8.7 (1)
0x000|                           10                  |         .      |      size: 16 0x9-0x9.7 (1)
     |                                               |                |      content{}: 0xa-0x19.7 (16)
     |                                               |                |        ft{}: 0xa-0x19.7 (16)
0x000|                              03               |          .     |          n: 3 0xa-0xa.7 (1)
     |                                               |                |          x[0:3]: 0xb-0x19.7 (15)
     |                                               |                |            [0]{}: ft 0xb-0x10.7 (6)
0x000|                                 60            |           `    |              tag: 0x60 (valid) 0xb-0xb.7 (1)
     |                                               |                |              rt1{}: 0xc-0xe.7 (3)
0x000|                                    02         |            .   |                n: 2 0xc-0xc.7 (1)
     |                                               |                |                x[0:2]: 0xd-0xe.7 (2)
0x000|                                       7b      |             {  |                  [0]: "v128" (0x7b) t 0xd-0xd.7 (1)
0x000|                                          7b   |              { |                  [1]: "v128" (0x7b) t 0xe-0xe.7 (1)
     |                                               |                |              rt2{}: 0xf-0x10.7 (2)
0x000|                                             01|               .|                n: 1 0xf-0xf.7 (1)
     |                                               |                |                x[0:1]: 0x10-0x10.7 (1)
0x010|7b                                             |{               |                  [0]: "v128" (0x7b) t 0x10-0x10.7 (1)
     |                                               |                |            [1]{}: ft 0x11-0x15.7 (5)
0x010|   60                                          | `              |              tag: 0x60 (valid) 0x11-0x11.7 (1)
     |                                               |                |              rt1{}: 0x12-0x13.7 (2)
0x010|      01                                       |  .             |                n: 1 0x12-0x12.7 (1)
     |                                               |                |                x[0:1]: 0x13-0x13.7 (1)
0x010|         7b                                    |   {            |                  [0]: "v128" (0x7b) t 0x13-0x13.7 (1)
     |                                               |                |              rt2{}: 0x14-0x15.7 (2)
0x010|            01                                 |    .           |                n: 1 0x14-0x14.7 (1)
     |                                               |                |                x[0:1]: 0x15-0x15.7 (1)
0x010|               7b                              |     {          |                  [0]: "v128" (0x7b) t 0x15-0x15.7 (1)
     |                                               |                |            [2]{}: ft 0x16-0x19.7 (4)
0x010|                  60                           |      `         |              tag: 0x60 (valid) 0x16-0x16.7 (1)
     |                                               |                |              rt1{}: 0x17-0x17.7 (1)
0x010|                     00                        |       .        |                n: 0 0x17-0x17.7 (1)
     |                                               |                |                x[0:0]: 0x18-NA (0)
     |                                               |                |              rt2{}: 0x18-0x19.7 (2)
0x010|                        01                     |        .       |                n: 1 0x18-0x18.7 (1)
     |                                               |                |                x[0:1]: 0x19-0x19.7 (1)
0x010|                           7b                  |         {      |                  [0]: "v128" (0x7b) t 0x19-0x19.7 (1)
     |                                               |                |    [1]{}: section 0x1a-0x32.7 (25)
0x010|                              03               |          .     |      id: "function section" (3) 0x1a-0x1a.7 (1)
0x010|                                 17            |           .    |      size: 23 0x1b-0x1b.7 (1)
     |                                               |                |      content{}: 0x1c-0x32.7 (23)
     |                                               |                |        x{}: 0x1c-0x32.7 (23)
0x010|                                    16         |            .   |          n: 22 0x1c-0x1c.7 (1)
     |                                               |                |          x[0:22]: 0x1d-0x32.7 (22)
0x010|                                       00      |             .  |            [0]: 0 x 0x1d-0x1d.7 (1)
0x010|                                          00   |              . |            [1]: 0 x 0x1e-0x1e.7 (1)
0x010|                                             00|               .|            [2]: 0 x 0x1f-0x1f.7 (1)
0x020|00                                             |.               |            [3]: 0 x 0x20-0x20.7 (1)
0x020|   01                                          | .              |            [4]: 1 x 0x21-0x21.7 (1)
0x020|      02                                       |  .             |            [5]: 2 x 0x22-0x22.7 (1)
0x020|         02                                    |   .            |            [6]: 2 x 0x23-0x23.7 (1)
0x020|            02                                 |    .           |            [7]: 2 x 0x24-0x24.7 (1)
0x020|               02                              |     .          |            [8]: 2 x 0x25-0x25.7 (1)
0x020|                  02                           |      .         |            [9]: 2 x 0x26-0x26.7 (1)
0x020|                     02                        |       .        |            [10]: 2 x 0x27-0x27.7 (1)
0x020|                        02                     |        .       |            [11]: 2 x 0x28-0x28.7 (1)
0x020|                           02                  |         .      |            [12]: 2 x 0x29-0x29.7 (1)
0x020|                              02               |          .     |            [13]: 2 x 0x2a-0x2a.7 (1)
0x020|                                 01            |           .    |            [14]: 1 x 0x2b-0x2b.7 (1)
0x020|                                    01         |            .   |            [15]: 1 x 0x2c-0x2c.7 (1)
0x020|                                       01      |             .  |            [16]: 1 x 0x2d-0x2d.7 (1)
0x020|                                          01   |              . |            [17]: 1 x 0x2e-0x2e.7 (1)
0x020|                                             01|               .|            [18]: 1 x 0x2f-0x2f.7 (1)
0x030|01                                             |.               |            [19]: 1 x 0x30-0x30.7 (1)
0x030|   01                                          | .              |            [20]: 1 x 0x31-0x31.7 (1)
0x030|      01                                       |  .             |            [21]: 1 x 0x32-0x32.7 (1)
     |                                               |                |    [2]{}: section 0x33-0x24a.7 (536)
0x030|         07                                    |   .            |      id: "export section" (7) 0x33-0x33.7 (1)
0x030|            95 04                              |    ..          |      size: 533 0x34-0x35.7 (2)
     |                                               |                |      content{}: 0x36-0x24a.7 (533)
     |                                               |                |        ex{}: 0x36-0x24a.7 (533)
0x030|                  16                           |      .         |          n: 22 0x36-0x36.7 (1)
     |                                               |                |          x[0:22]: 0x37-0x24a.7 (532)
     |                                               |                |            [0]{}: ex 0x37-0x44.7 (14)
     |                                               |                |              nm{}: 0x37-0x42.7 (12)
0x030|                     0b                        |       .        |                n: 11 0x37-0x37.7 (1)
0x030|                        69 33 32 78 34 2e 6d 69|        i32x4.mi|                b: "i32x4.min_s" 0x38-0x42.7 (11)
0x040|6e 5f 73                                       |n_s             |
     |                                               |                |              d{}: 0x43-0x44.7 (2)
0x040|         00                                    |   .            |                tag: "funcidx" (0x0) 0x43-0x43.7 (1)
0x040|            00                                 |    .           |                x: 0 0x44-0x44.7 (1)
     |                                               |                |            [1]{}: ex 0x45-0x52.7 (14)
     |                                               |                |              nm{}: 0x45-0x50.7 (12)
0x040|               0b                              |     .          |                n: 11 0x45-0x45.7 (1)
0x040|                  69 33 32 78 34 2e 6d 69 6e 5f|      i32x4.min_|                b: "i32x4.min_u" 0x46-0x50.7 (11)
0x050|75                                             |u               |
     |                                               |                |              d{}: 0x51-0x52.7 (2)
0x050|   00                                          | .              |                tag: "funcidx" (0x0) 0x51-0x51.7 (1)
0x050|      01                                       |  .             |                x: 1 0x52-0x52.7 (1)
     |                                               |                |            [2]{}: ex 0x53-0x60.7 (14)
     |                                               |                |              nm{}: 0x53-0x5e.7 (12)
0x050|         0b                                    |   .            |                n: 11 0x53-0x53.7 (1)
0x050|            69 33 32 78 34 2e 6d 61 78 5f 73   |    i32x4.max_s |                b: "i32x4.max_s" 0x54-0x5e.7 (11)
     |                                               |                |              d{}: 0x5f-0x60.7 (2)
0x050|                                             00|               .|                tag: "funcidx" (0x0) 0x5f-0x5f.7 (1)
0x060|02                                             |.               |                x: 2 0x60-0x60.7 (1)
     |                                               |                |            [3]{}: ex 0x61-0x6e.7 (14)
     |                                               |                |              nm{}: 0x61-0x6c.7 (12)
0x060|   0b                                          | .              |                n: 11 0x61-0x61.7 (1)
0x060|      69 33 32 78 34 2e 6d 61 78 5f 75         |  i32x4.max_u   |                b: "i32x4.max_u" 0x62-0x6c.7 (11)
     |                                               |                |              d{}: 0x6d-0x6e.7 (2)
0x060|                                       00      |             .  |                tag: "funcidx" (0x0) 0x6d-0x6d.7 (1)
0x060|                                          03   |              . |                x: 3 0x6e-0x6e.7 (1)
     |                                               |                |            [4]{}: ex 0x6f-0x7a.7 (12)
     |                                               |                |              nm{}: 0x6f-0x78.7 (10)
0x060|                                             09|               .|                n: 9 0x6f-0x6f.7 (1)
0x070|69 33 32 78 34 2e 61 62 73                     |i32x4.abs       |                b: "i32x4.abs" 0x70-0x78.7 (9)
     |                                               |                |              d{}: 0x79-0x7a.7 (2)
0x070|                           00                  |         .      |                tag: "funcidx" (0x0) 0x79-0x79.7 (1)
0x070|                              04               |          .     |                x: 4 0x7a-0x7a.7 (1)
     |                                               |                |            [5]{}: ex 0x7b-0x95.7 (27)
     |                                               |                |              nm{}: 0x7b-0x93.7 (25)
0x070|                                 18            |           .    |                n: 24 0x7b-0x7b.7 (1)
0x070|                                    69 33 32 78|            i32x|                b: "i32x4.min_s_with_const_0" 0x7c-0x93.7 (24)
0x080|34 2e 6d 69 6e 5f 73 5f 77 69 74 68 5f 63 6f 6e|4.min_s_with_con|
0x090|73 74 5f 30                                    |st_0            |
     |                                               |                |              d{}: 0x94-0x95.7 (2)
0x090|            00                                 |    .           |                tag: "funcidx" (0x0) 0x94-0x94.7 (1)
0x090|               05                              |     .          |                x: 5 0x95-0x95.7 (1)
     |                                               |                |            [6]{}: ex 0x96-0xb0.7 (27)
     |                                               |                |              nm{}: 0x96-0xae.7 (25)
0x090|                  18                           |      .         |                n: 24 0x96-0x96.7 (1)
0x090|                     69 33 32 78 34 2e 6d 69 6e|       i32x4.min|                b: "i32x4.min_s_with_const_1" 0x97-0xae.7 (24)
0x0a0|5f 73 5f 77 69 74 68 5f 63 6f 6e 73 74 5f 31   |_s_with_const_1 |
     |                                               |                |              d{}: 0xaf-0xb0.7 (2)
0x0a0|                                             00|               .|                tag: "funcidx" (0x0) 0xaf-0xaf.7 (1)
0x0b0|06                                             |.               |                x: 6 0xb0-0xb0.7 (1)
     |                                               |                |            [7]{}: ex 0xb1-0xcb.7 (27)
     |                                               |                |              nm{}: 0xb1-0xc9.7 (25)
0x0b0|   18                                          | .              |                n: 24 0xb1-0xb1.7 (1)
0x0b0|      69 33 32 78 34 2e 6d 69 6e 5f 75 5f 77 69|  i32x4.min_u_wi|                b: "i32x4.min_u_with_const_2" 0xb2-0xc9.7 (24)
0x0c0|74 68 5f 63 6f 6e 73 74 5f 32                  |th_const_2      |
     |                                               |                |              d{}: 0xca-0xcb.7 (2)
0x0c0|                              00               |          .     |                tag: "funcidx" (0x0) 0xca-0xca.7 (1)
0x0c0|                                 07            |           .    |                x: 7 0xcb-0xcb.7 (1)
     |                                               |                |            [8]{}: ex 0xcc-0xe6.7 (27)
     |                                               |                |              nm{}: 0xcc-0xe4.7 (25)
0x0c0|                                    18         |            .   |                n: 24 0xcc-0xcc.7 (1)
0x0c0|                                       69 33 32|             i32|                b: "i32x4.min_u_with_const_3" 0xcd-0xe4.7 (24)
0x0d0|78 34 2e 6d 69 6e 5f 75 5f 77 69 74 68 5f 63 6f|x4.min_u_with_co|
0x0e0|6e 73 74 5f 33                                 |nst_3           |
     |                                               |                |              d{}: 0xe5-0xe6.7 (2)
0x0e0|               00                              |     .          |                tag: "funcidx" (0x0) 0xe5-0xe5.7 (1)
0x0e0|                  08                           |      .         |                x: 8 0xe6-0xe6.7 (1)
     |                                               |                |            [9]{}: ex 0xe7-0x101.7 (27)
     |                                               |                |              nm{}: 0xe7-0xff.7 (25)
0x0e0|                     18                        |       .        |                n: 24 0xe7-0xe7.7 (1)
0x0e0|                        69 33 32 78 34 2e 6d 61|        i32x4.ma|                b: "i32x4.max_s_with_const_4" 0xe8-0xff.7 (24)
0x0f0|78 5f 73 5f 77 69 74 68 5f 63 6f 6e 73 74 5f 34|x_s_with_const_4|
     |                                               |                |              d{}: 0x100-0x101.7 (2)
0x100|00                                             |.               |                tag: "funcidx" (0x0) 0x100-0x100.7 (1)
0x100|   09                                          | .              |                x: 9 0x101-0x101.7 (1)
     |                                               |                |            [10]{}: ex 0x102-0x11c.7 (27)
     |                                               |                |              nm{}: 0x102-0x11a.7 (25)
0x100|      18                                       |  .             |                n: 24 0x102-0x102.7 (1)
0x100|         69 33 32 78 34 2e 6d 61 78 5f 73 5f 77|   i32x4.max_s_w|                b: "i32x4.max_s_with_const_5" 0x103-0x11a.7 (24)
0x110|69 74 68 5f 63 6f 6e 73 74 5f 35               |ith_const_5     |
     |                                               |                |              d{}: 0x11b-0x11c.7 (2)
0x110|                                 00            |           .    |                tag: "funcidx" (0x0) 0x11b-0x11b.7 (1)
0x110|                                    0a         |            .   |                x: 10 0x11c-0x11c.7 (1)
     |                                               |                |            [11]{}: ex 0x11d-0x137.7 (27)
     |                                               |                |              nm{}: 0x11d-0x135.7 (25)
0x110|                                       18      |             .  |                n: 24 0x11d-0x11d.7 (1)
0x110|                                          69 33|              i3|                b: "i32x4.max_u_with_const_6" 0x11e-0x135.7 (24)
0x120|32 78 34 2e 6d 61 78 5f 75 5f 77 69 74 68 5f 63|2x4.max_u_with_c|
0x130|6f 6e 73 74 5f 36                              |onst_6          |
     |                                               |                |              d{}: 0x136-0x137.7 (2)
0x130|                  00                           |      .         |                tag: "funcidx" (0x0) 0x136-0x136.7 (1)
0x130|                     0b                        |       .        |                x: 11 0x137-0x137.7 (1)
     |                                               |                |            [12]{}: ex 0x138-0x152.7 (27)
     |                                               |                |              nm{}: 0x138-0x150.7 (25)
0x130|                        18                     |        .       |                n: 24 0x138-0x138.7 (1)
0x130|                           69 33 32 78 34 2e 6d|         i32x4.m|                b: "i32x4.max_u_with_const_7" 0x139-0x150.7 (24)
0x140|61 78 5f 75 5f 77 69 74 68 5f 63 6f 6e 73 74 5f|ax_u_with_const_|
0x150|37                                             |7               |
     |                                               |                |              d{}: 0x151-0x152.7 (2)
0x150|   00                                          | .              |                tag: "funcidx" (0x0) 0x151-0x151.7 (1)
0x150|      0c                                       |  .             |                x: 12 0x152-0x152.7 (1)
     |                                               |                |            [13]{}: ex 0x153-0x16b.7 (25)
     |                                               |                |              nm{}: 0x153-0x169.7 (23)
0x150|         16                                    |   .            |                n: 22 0x153-0x153.7 (1)
0x150|            69 33 32 78 34 2e 61 62 73 5f 77 69|    i32x4.abs_wi|                b: "i32x4.abs_with_const_8" 0x154-0x169.7 (22)
0x160|74 68 5f 63 6f 6e 73 74 5f 38                  |th_const_8      |
     |                                               |                |              d{}: 0x16a-0x16b.7 (2)
0x160|                              00               |          .     |                tag: "funcidx" (0x0) 0x16a-0x16a.7 (1)
0x160|                                 0d            |           .    |                x: 13 0x16b-0x16b.7 (1)
     |                                               |                |            [14]{}: ex 0x16c-0x186.7 (27)
     |                                               |                |              nm{}: 0x16c-0x184.7 (25)
0x160|                                    18         |            .   |                n: 24 0x16c-0x16c.7 (1)
0x160|                                       69 33 32|             i32|                b: "i32x4.min_s_with_const_9" 0x16d-0x184.7 (24)
0x170|78 34 2e 6d 69 6e 5f 73 5f 77 69 74 68 5f 63 6f|x4.min_s_with_co|
0x180|6e 73 74 5f 39                                 |nst_9           |
     |                                               |                |              d{}: 0x185-0x186.7 (2)
0x180|               00                              |     .          |                tag: "funcidx" (0x0) 0x185-0x185.7 (1)
0x180|                  0e                           |      .         |                x: 14 0x186-0x186.7 (1)
     |                                               |                |            [15]{}: ex 0x187-0x1a2.7 (28)
     |                                               |                |              nm{}: 0x187-0x1a0.7 (26)
0x180|                     19                        |       .        |                n: 25 0x187-0x187.7 (1)
0x180|                        69 33 32 78 34 2e 6d 69|        i32x4.mi|                b: "i32x4.min_s_with_const_10" 0x188-0x1a0.7 (25)
0x190|6e 5f 73 5f 77 69 74 68 5f 63 6f 6e 73 74 5f 31|n_s_with_const_1|
0x1a0|30                                             |0               |
     |                                               |                |              d{}: 0x1a1-0x1a2.7 (2)
0x1a0|   00                                          | .              |                tag: "funcidx" (0x0) 0x1a1-0x1a1.7 (1)
0x1a0|      0f                                       |  .             |                x: 15 0x1a2-0x1a2.7 (1)
     |                                               |                |            [16]{}: ex 0x1a3-0x1be.7 (28)
     |                                               |                |              nm{}: 0x1a3-0x1bc.7 (26)
0x1a0|         19                                    |   .            |                n: 25 0x1a3-0x1a3.7 (1)
0x1a0|            69 33 32 78 34 2e 6d 69 6e 5f 75 5f|    i32x4.min_u_|                b: "i32x4.min_u_with_const_11" 0x1a4-0x1bc.7 (25)
0x1b0|77 69 74 68 5f 63 6f 6e 73 74 5f 31 31         |with_const_11   |
     |                                               |                |              d{}: 0x1bd-0x1be.7 (2)
0x1b0|                                       00      |             .  |                tag: "funcidx" (0x0) 0x1bd-0x1bd.7 (1)
0x1b0|                                          10   |              . |                x: 16 0x1be-0x1be.7 (1)
     |                                               |                |            [17]{}: ex 0x1bf-0x1da.7 (28)
     |                                               |                |              nm{}: 0x1bf-0x1d8.7 (26)
0x1b0|                                             19|               .|                n: 25 0x1bf-0x1bf.7 (1)
0x1c0|69 33 32 78 34 2e 6d 69 6e 5f 75 5f 77 69 74 68|i32x4.min_u_with|                b: "i32x4.min_u_with_const_12" 0x1c0-0x1d8.7 (25)
0x1d0|5f 63 6f 6e 73 74 5f 31 32                     |_const_12       |
     |                                               |                |              d{}: 0x1d9-0x1da.7 (2)
0x1d0|                           00                  |         .      |                tag: "funcidx" (0x0) 0x1d9-0x1d9.7 (1)
0x1d0|                              11               |          .     |                x: 17 0x1da-0x1da.7 (1)
     |                                               |                |            [18]{}: ex 0x1db-0x1f6.7 (28)
     |                                               |                |              nm{}: 0x1db-0x1f4.7 (26)
0x1d0|                                 19            |           .    |                n: 25 0x1db-0x1db.7 (1)
0x1d0|                                    69 33 32 78|            i32x|                b: "i32x4.max_s_with_const_13" 0x1dc-0x1f4.7 (25)
0x1e0|34 2e 6d 61 78 5f 73 5f 77 69 74 68 5f 63 6f 6e|4.max_s_with_con|
0x1f0|73 74 5f 31 33                                 |st_13           |
     |                                               |                |              d{}: 0x1f5-0x1f6.7 (2)
0x1f0|               00                              |     .          |                tag: "funcidx" (0x0) 0x1f5-0x1f5.7 (1)
0x1f0|                  12                           |      .         |                x: 18 0x1f6-0x1f6.7 (1)
     |                                               |                |            [19]{}: ex 0x1f7-0x212.7 (28)
     |                                               |                |              nm{}: 0x1f7-0x210.7 (26)
0x1f0|                     19                        |       .        |                n: 25 0x1f7-0x1f7.7 (1)
0x1f0|                        69 33 32 78 34 2e 6d 61|        i32x4.ma|                b: "i32x4.max_s_with_const_14" 0x1f8-0x210.7 (25)
0x200|78 5f 73 5f 77 69 74 68 5f 63 6f 6e 73 74 5f 31|x_s_with_const_1|
0x210|34                                             |4               |
     |                                               |                |              d{}: 0x211-0x212.7 (2)
0x210|   00                                          | .              |                tag: "funcidx" (0x0) 0x211-0x211.7 (1)
0x210|      13                                       |  .             |                x: 19 0x212-0x212.7 (1)
     |                                               |                |            [20]{}: ex 0x213-0x22e.7 (28)
     |                                               |                |              nm{}: 0x213-0x22c.7 (26)
0x210|         19                                    |   .            |                n: 25 0x213-0x213.7 (1)
0x210|            69 33 32 78 34 2e 6d 61 78 5f 75 5f|    i32x4.max_u_|                b: "i32x4.max_u_with_const_15" 0x214-0x22c.7 (25)
0x220|77 69 74 68 5f 63 6f 6e 73 74 5f 31 35         |with_const_15   |
     |                                               |                |              d{}: 0x22d-0x22e.7 (2)
0x220|                                       00      |             .  |                tag: "funcidx" (0x0) 0x22d-0x22d.7 (1)
0x220|                                          14   |              . |                x: 20 0x22e-0x22e.7 (1)
     |                                               |                |            [21]{}: ex 0x22f-0x24a.7 (28)
     |                                               |                |              nm{}: 0x22f-0x248.7 (26)
0x220|                                             19|               .|                n: 25 0x22f-0x22f.7 (1)
0x230|69 33 32 78 34 2e 6d 61 78 5f 75 5f 77 69 74 68|i32x4.max_u_with|                b: "i32x4.max_u_with_const_16" 0x230-0x248.7 (25)
0x240|5f 63 6f 6e 73 74 5f 31 36                     |_const_16       |
     |                                               |                |              d{}: 0x249-0x24a.7 (2)
0x240|                           00                  |         .      |                tag: "funcidx" (0x0) 0x249-0x249.7 (1)
0x240|                              15               |          .     |                x: 21 0x24a-0x24a.7 (1)
     |                                               |                |    [3]{}: section 0x24b-0x4b6.7 (620)
0x240|                                 0a            |           .    |      id: "code section" (10) 0x24b-0x24b.7 (1)
0x240|                                    e9 04      |            ..  |      size: 617 0x24c-0x24d.7 (2)
     |                                               |                |      content{}: 0x24e-0x4b6.7 (617)
     |                                               |                |        code{}: 0x24e-0x4b6.7 (617)
0x240|                                          16   |              . |          n: 22 0x24e-0x24e.7 (1)
     |                                               |                |          x[0:22]: 0x24f-0x4b6.7 (616)
     |                                               |                |            [0]{}: code 0x24f-0x258.7 (10)
0x240|                                             09|               .|              size: 9 0x24f-0x24f.7 (1)
     |                                               |                |              code{}: 0x250-0x258.7 (9)
     |                                               |                |                t{}: 0x250-0x250.7 (1)
0x250|00                                             |.               |                  n: 0 0x250-0x250.7 (1)
     |                                               |                |                  x[0:0]: 0x251-NA (0)
     |                                               |                |                e[0:4]: 0x251-0x258.7 (8)
     |                                               |                |                  [0]{}: in 0x251-0x252.7 (2)
0x250|   20                                          |                |                    local.get: 0x20 (valid) 0x251-0x251.7 (1)
0x250|      00                                       |  .             |                    x: 0 0x252-0x252.7 (1)
     |                                               |                |                  [1]{}: in 0x253-0x254.7 (2)
0x250|         20                                    |                |                    local.get: 0x20 (valid) 0x253-0x253.7 (1)
0x250|            01                                 |    .           |                    x: 1 0x254-0x254.7 (1)
     |                                               |                |                  [2]{}: in 0x255-0x257.7 (3)
0x250|               fd                              |     .          |                    prefix: 0xfd (valid) 0x255-0x255.7 (1)
0x250|                  b6 01                        |      ..        |                    i32x4.min_s: 182 (valid) 0x256-0x257.7 (2)
     |                                               |                |                  [3]{}: in 0x258-0x258.7 (1)
0x250|                        0b                     |        .       |                    end: 0xb (valid) 0x258-0x258.7 (1)
     |                                               |                |            [1]{}: code 0x259-0x262.7 (10)
0x250|                           09                  |         .      |              size: 9 0x259-0x259.7 (1)
     |                                               |                |              code{}: 0x25a-0x262.7 (9)
     |                                               |                |                t{}: 0x25a-0x25a.7 (1)
0x250|                              00               |          .     |                  n: 0 0x25a-0x25a.7 (1)
     |                                               |                |                  x[0:0]: 0x25b-NA (0)
     |                                               |                |                e[0:4]: 0x25b-0x262.7 (8)
     |                                               |                |                  [0]{}: in 0x25b-0x25c.7 (2)
0x250|                                 20            |                |                    local.get: 0x20 (valid) 0x25b-0x25b.7 (1)
0x250|                                    00         |            .   |                    x: 0 0x25c-0x25c.7 (1)
     |                                               |                |                  [1]{}: in 0x25d-0x25e.7 (2)
0x250|                                       20      |                |                    local.get: 0x20 (valid) 0x25d-0x25d.7 (1)
0x250|                                          01   |              . |                    x: 1 0x25e-0x25e.7 (1)
     |                                               |                |                  [2]{}: in 0x25f-0x261.7 (3)
0x250|                                             fd|               .|                    prefix: 0xfd (valid) 0x25f-0x25f.7 (1)
0x260|b7 01                                          |..              |                    i32x4.min_u: 183 (valid) 0x260-0x261.7 (2)
     |                                               |                |                  [3]{}: in 0x262-0x262.7 (1)
0x260|      0b                                       |  .             |                    end: 0xb (valid) 0x262-0x262.7 (1)
     |                                               |                |            [2]{}: code 0x263-0x26c.7 (10)
0x260|         09                                    |   .            |              size: 9 0x263-0x263.7 (1)
     |                                               |                |              code{}: 0x264-0x26c.7 (9)
     |                                               |                |                t{}: 0x264-0x264.7 (1)
0x260|            00                                 |    .           |                  n: 0 0x264-0x264.7 (1)
     |                                               |                |                  x[0:0]: 0x265-NA (0)
     |                                               |                |                e[0:4]: 0x265-0x26c.7 (8)
     |                                               |                |                  [0]{}: in 0x265-0x266.7 (2)
0x260|               20                              |                |                    local.get: 0x20 (valid) 0x265-0x265.7 (1)
0x260|                  00                           |      .         |                    x: 0 0x266-0x266.7 (1)
     |                                               |                |                  [1]{}: in 0x267-0x268.7 (2)
0x260|                     20                        |                |                    local.get: 0x20 (valid) 0x267-0x267.7 (1)
0x260|                        01                     |        .       |                    x: 1 0x268-0x268.7 (1)
     |                                               |                |                  [2]{}: in 0x269-0x26b.7 (3)
0x260|                           fd                  |         .      |                    prefix: 0xfd (valid) 0x269-0x269.7 (1)
0x260|                              b8 01            |          ..    |                    i32x4.max_s: 184 (valid) 0x26a-0x26b.7 (2)
     |                                               |                |                  [3]{}: in 0x26c-0x26c.7 (1)
0x260|                                    0b         |            .   |                    end: 0xb (valid) 0x26c-0x26c.7 (1)
     |                                               |                |            [3]{}: code 0x26d-0x276.7 (10)
0x260|                                       09      |             .  |              size: 9 0x26d-0x26d.7 (1)
     |                                               |                |              code{}: 0x26e-0x276.7 (9)
     |                                               |                |                t{}: 0x26e-0x26e.7 (1)
0x260|                                          00   |              . |                  n: 0 0x26e-0x26e.7 (1)
     |                                               |                |                  x[0:0]: 0x26f-NA (0)
     |                                               |                |                e[0:4]: 0x26f-0x276.7 (8)
     |                                               |                |                  [0]{}: in 0x26f-0x270.7 (2)
0x260|                                             20|                |                    local.get: 0x20 (valid) 0x26f-0x26f.7 (1)
0x270|00                                             |.               |                    x: 0 0x270-0x270.7 (1)
     |                                               |                |                  [1]{}: in 0x271-0x272.7 (2)
0x270|   20                                          |                |                    local.get: 0x20 (valid) 0x271-0x271.7 (1)
0x270|      01                                       |  .             |                    x: 1 0x272-0x272.7 (1)
     |                                               |                |                  [2]{}: in 0x273-0x275.7 (3)
0x270|         fd                                    |   .            |                    prefix: 0xfd (valid) 0x273-0x273.7 (1)
0x270|            b9 01                              |    ..          |                    i32x4.max_u: 185 (valid) 0x274-0x275.7 (2)
     |                                               |                |                  [3]{}: in 0x276-0x276.7 (1)
0x270|                  0b                           |      .         |                    end: 0xb (valid) 0x276-0x276.7 (1)
     |                                               |                |            [4]{}: code 0x277-0x27e.7 (8)
0x270|                     07                        |       .        |              size: 7 0x277-0x277.7 (1)
     |                                               |                |              code{}: 0x278-0x27e.7 (7)
     |                                               |                |                t{}: 0x278-0x278.7 (1)
0x270|                        00                     |        .       |                  n: 0 0x278-0x278.7 (1)
     |                                               |                |                  x[0:0]: 0x279-NA (0)
     |                                               |                |                e[0:3]: 0x279-0x27e.7 (6)
     |                                               |                |                  [0]{}: in 0x279-0x27a.7 (2)
0x270|                           20                  |                |                    local.get: 0x20 (valid) 0x279-0x279.7 (1)
0x270|                              00               |          .     |                    x: 0 0x27a-0x27a.7 (1)
     |                                               |                |                  [1]{}: in 0x27b-0x27d.7 (3)
0x270|                                 fd            |           .    |                    prefix: 0xfd (valid) 0x27b-0x27b.7 (1)
0x270|                                    a0 01      |            ..  |                    i32x4.abs: 160 (valid) 0x27c-0x27d.7 (2)
     |                                               |                |                  [2]{}: in 0x27e-0x27e.7 (1)
0x270|                                          0b   |              . |                    end: 0xb (valid) 0x27e-0x27e.7 (1)
     |                                               |                |            [5]{}: code 0x27f-0x2a8.7 (42)
0x270|                                             29|               )|              size: 41 0x27f-0x27f.7 (1)
     |                                               |                |              code{}: 0x280-0x2a8.7 (41)
     |                                               |                |                t{}: 0x280-0x280.7 (1)
0x280|00                                             |.               |                  n: 0 0x280-0x280.7 (1)
     |                                               |                |                  x[0:0]: 0x281-NA (0)
     |                                               |                |                e[0:4]: 0x281-0x2a8.7 (40)
     |                                               |                |                  [0]{}: in 0x281-0x292.7 (18)
0x280|   fd                                          | .              |                    prefix: 0xfd (valid) 0x281-0x281.7 (1)
0x280|      0c                                       |  .             |                    v128.const: 12 (valid) 0x282-0x282.7 (1)
0x280|         00 00 00 80 ff ff ff 7f 00 00 00 40 ff|   ...........@.|                    bytes: raw bits 0x283-0x292.7 (16)
0x290|ff ff ff                                       |...             |
     |                                               |                |                  [1]{}: in 0x293-0x2a4.7 (18)
0x290|         fd                                    |   .            |                    prefix: 0xfd (valid) 0x293-0x293.7 (1)
0x290|            0c                                 |    .           |                    v128.const: 12 (valid) 0x294-0x294.7 (1)
0x290|               ff ff ff ff 00 00 00 40 ff ff ff|     .......@...|                    bytes: raw bits 0x295-0x2a4.7 (16)
0x2a0|7f 00 00 00 80                                 |.....           |
     |                                               |                |                  [2]{}: in 0x2a5-0x2a7.7 (3)
0x2a0|               fd                              |     .          |                    prefix: 0xfd (valid) 0x2a5-0x2a5.7 (1)
0x2a0|                  b6 01                        |      ..        |                    i32x4.min_s: 182 (valid) 0x2a6-0x2a7.7 (2)
     |                                               |                |                  [3]{}: in 0x2a8-0x2a8.7 (1)
0x2a0|                        0b                     |        .       |                    end: 0xb (valid) 0x2a8-0x2a8.7 (1)
     |                                               |                |            [6]{}: code 0x2a9-0x2d2.7 (42)
0x2a0|                           29                  |         )      |              size: 41 0x2a9-0x2a9.7 (1)
     |                                               |                |              code{}: 0x2aa-0x2d2.7 (41)
     |                                               |                |                t{}: 0x2aa-0x2aa.7 (1)
0x2a0|                              00               |          .     |                  n: 0 0x2aa-0x2aa.7 (1)
     |                                               |                |                  x[0:0]: 0x2ab-NA (0)
     |                                               |                |                e[0:4]: 0x2ab-0x2d2.7 (40)
     |                                               |                |                  [0]{}: in 0x2ab-0x2bc.7 (18)
0x2a0|                                 fd            |           .    |                    prefix: 0xfd (valid) 0x2ab-0x2ab.7 (1)
0x2a0|                                    0c         |            .   |                    v128.const: 12 (valid) 0x2ac-0x2ac.7 (1)
0x2a0|                                       00 00 00|             ...|                    bytes: raw bits 0x2ad-0x2bc.7 (16)
0x2b0|00 01 00 00 00 02 00 00 00 03 00 00 00         |.............   |
     |                                               |                |                  [1]{}: in 0x2bd-0x2ce.7 (18)
0x2b0|                                       fd      |             .  |                    prefix: 0xfd (valid) 0x2bd-0x2bd.7 (1)
0x2b0|                                          0c   |              . |                    v128.const: 12 (valid) 0x2be-0x2be.7 (1)
0x2b0|                                             03|               .|                    bytes: raw bits 0x2bf-0x2ce.7 (16)
0x2c0|00 00 00 02 00 00 00 01 00 00 00 00 00 00 00   |............... |
     |                                               |                |                  [2]{}: in 0x2cf-0x2d1.7 (3)
0x2c0|                                             fd|               .|                    prefix: 0xfd (valid) 0x2cf-0x2cf.7 (1)
0x2d0|b6 01                                          |..              |                    i32x4.min_s: 182 (valid) 0x2d0-0x2d1.7 (2)
     |                                               |                |                  [3]{}: in 0x2d2-0x2d2.7 (1)
0x2d0|      0b                                       |  .             |                    end: 0xb (valid) 0x2d2-0x2d2.7 (1)
     |                                               |                |            [7]{}: code 0x2d3-0x2fc.7 (42)
0x2d0|         29                                    |   )            |              size: 41 0x2d3-0x2d3.7 (1)
     |                                               |                |              code{}: 0x2d4-0x2fc.7 (41)
     |                                               |                |                t{}: 0x2d4-0x2d4.7 (1)
0x2d0|            00                                 |    .           |                  n: 0 0x2d4-0x2d4.7 (1)
     |                                               |                |                  x[0:0]: 0x2d5-NA (0)
     |                                               |                |                e[0:4]: 0x2d5-0x2fc.7 (40)
     |                                               |                |                  [0]{}: in 0x2d5-0x2e6.7 (18)
0x2d0|               fd                              |     .          |                    prefix: 0xfd (valid) 0x2d5-0x2d5.7 (1)
0x2d0|                  0c                           |      .         |                    v128.const: 12 (valid) 0x2d6-0x2d6.7 (1)
0x2d0|                     00 00 00 80 ff ff ff 7f 00|       .........|                    bytes: raw bits 0x2d7-0x2e6.7 (16)
0x2e0|00 00 40 ff ff ff ff                           |..@....         |
     |                                               |                |                  [1]{}: in 0x2e7-0x2f8.7 (18)
0x2e0|                     fd                        |       .        |                    prefix: 0xfd (valid) 0x2e7-0x2e7.7 (1)
0x2e0|                        0c                     |        .       |                    v128.const: 12 (valid) 0x2e8-0x2e8.7 (1)
0x2e0|                           ff ff ff ff 00 00 00|         .......|                    bytes: raw bits 0x2e9-0x2f8.7 (16)
0x2f0|40 ff ff ff 7f 00 00 00 80                     |@........       |
     |                                               |                |                  [2]{}: in 0x2f9-0x2fb.7 (3)
0x2f0|                           fd                  |         .      |                    prefix: 0xfd (valid) 0x2f9-0x2f9.7 (1)
0x2f0|                              b7 01            |          ..    |                    i32x4.min_u: 183 (valid) 0x2fa-0x2fb.7 (2)
     |                                               |                |                  [3]{}: in 0x2fc-0x2fc.7 (1)
0x2f0|                                    0b         |            .   |                    end: 0xb (valid) 0x2fc-0x2fc.7 (1)
     |                                               |                |            [8]{}: code 0x2fd-0x326.7 (42)
0x2f0|                                       29      |             )  |              size: 41 0x2fd-0x2fd.7 (1)
     |                                               |                |              code{}: 0x2fe-0x326.7 (41)
     |                                               |                |                t{}: 0x2fe-0x2fe.7 (1)
0x2f0|                                          00   |              . |                  n: 0 0x2fe-0x2fe.7 (1)
     |                                               |                |                  x[0:0]: 0x2ff-NA (0)
     |                                               |                |                e[0:4]: 0x2ff-0x326.7 (40)
     |                                               |                |                  [0]{}: in 0x2ff-0x310.7 (18)
0x2f0|                                             fd|               .|                    prefix: 0xfd (valid) 0x2ff-0x2ff.7 (1)
0x300|0c                                             |.               |                    v128.const: 12 (valid) 0x300-0x300.7 (1)
0x300|   00 00 00 00 01 00 00 00 02 00 00 00 03 00 00| ...............|                    bytes: raw bits 0x301-0x310.7 (16)
0x310|00                                             |.               |
     |                                               |                |                  [1]{}: in 0x311-0x322.7 (18)
0x310|   fd                                          | .              |                    prefix: 0xfd (valid) 0x311-0x311.7 (1)
0x310|      0c                                       |  .             |                    v128.const: 12 (valid) 0x312-0x312.7 (1)
0x310|         03 00 00 00 02 00 00 00 01 00 00 00 00|   .............|                    bytes: raw bits 0x313-0x322.7 (16)
0x320|00 00 00                                       |...             |
     |                                               |                |                  [2]{}: in 0x323-0x325.7 (3)
0x320|         fd                                    |   .            |                    prefix: 0xfd (valid) 0x323-0x323.7 (1)
0x320|            b7 01                              |    ..          |                    i32x4.min_u: 183 (valid) 0x324-0x325.7 (2)
     |                                               |                |                  [3]{}: in 0x326-0x326.7 (1)
0x320|                  0b                           |      .         |                    end: 0xb (valid) 0x326-0x326.7 (1)
     |                                               |                |            [9]{}: code 0x327-0x350.7 (42)
0x320|                     29                        |       )        |              size: 41 0x327-0x327.7 (1)
     |                                               |                |              code{}: 0x328-0x350.7 (41)
     |                                               |                |                t{}: 0x328-0x328.7 (1)
0x320|                        00                     |        .       |                  n: 0 0x328-0x328.7 (1)
     |                                               |                |                  x[0:0]: 0x329-NA (0)
     |                                               |                |                e[0:4]: 0x329-0x350.7 (40)
     |                                               |                |                  [0]{}: in 0x329-0x33a.7 (18)
0x320|                           fd                  |         .      |                    prefix: 0xfd (valid) 0x329-0x329.7 (1)
0x320|                              0c               |          .     |                    v128.const: 12 (valid) 0x32a-0x32a.7 (1)
0x320|                                 00 00 00 80 ff|           .....|                    bytes: raw bits 0x32b-0x33a.7 (16)
0x330|ff ff 7f 00 00 00 40 ff ff ff ff               |......@....     |
     |                                               |                |                  [1]{}: in 0x33b-0x34c.7 (18)
0x330|                                 fd            |           .    |                    prefix: 0xfd (valid) 0x33b-0x33b.7 (1)
0x330|                                    0c         |            .   |                    v128.const: 12 (valid) 0x33c-0x33c.7 (1)
0x330|                                       ff ff ff|             ...|                    bytes: raw bits 0x33d-0x34c.7 (16)
0x340|ff 00 00 00 40 ff ff ff 7f 00 00 00 80         |....@........   |
     |                                               |                |                  [2]{}: in 0x34d-0x34f.7 (3)
0x340|                                       fd      |             .  |                    prefix: 0xfd (valid) 0x34d-0x34d.7 (1)
0x340|                                          b8 01|              ..|                    i32x4.max_s: 184 (valid) 0x34e-0x34f.7 (2)
     |                                               |                |                  [3]{}: in 0x350-0x350.7 (1)
0x350|0b                                             |.               |                    end: 0xb (valid) 0x350-0x350.7 (1)
     |                                               |                |            [10]{}: code 0x351-0x37a.7 (42)
0x350|   29                                          | )              |              size: 41 0x351-0x351.7 (1)
     |                                               |                |              code{}: 0x352-0x37a.7 (41)
     |                                               |                |                t{}: 0x352-0x352.7 (1)
0x350|      00                                       |  .             |                  n: 0 0x352-0x352.7 (1)
     |                                               |                |                  x[0:0]: 0x353-NA (0)
     |                                               |                |                e[0:4]: 0x353-0x37a.7 (40)
     |                                               |                |                  [0]{}: in 0x353-0x364.7 (18)
0x350|         fd                                    |   .            |                    prefix: 0xfd (valid) 0x353-0x353.7 (1)
0x350|            0c                                 |    .           |                    v128.const: 12 (valid) 0x354-0x354.7 (1)
0x350|               00 00 00 00 01 00 00 00 02 00 00|     ...........|                    bytes: raw bits 0x355-0x364.7 (16)
0x360|00 03 00 00 00                                 |.....           |
     |                                               |                |                  [1]{}: in 0x365-0x376.7 (18)
0x360|               fd                              |     .          |                    prefix: 0xfd (valid) 0x365-0x365.7 (1)
0x360|                  0c                           |      .         |                    v128.const: 12 (valid) 0x366-0x366.7 (1)
0x360|                     03 00 00 00 02 00 00 00 01|       .........|                    bytes: raw bits 0x367-0x376.7 (16)
0x370|00 00 00 00 00 00 00                           |.......         |
     |                                               |                |                  [2]{}: in 0x377-0x379.7 (3)
0x370|                     fd                        |       .        |                    prefix: 0xfd (valid) 0x377-0x377.7 (1)
0x370|                        b8 01                  |        ..      |                    i32x4.max_s: 184 (valid) 0x378-0x379.7 (2)
     |                                               |                |                  [3]{}: in 0x37a-0x37a.7 (1)
0x370|                              0b               |          .     |                    end: 0xb (valid) 0x37a-0x37a.7 (1)
     |                                               |                |            [11]{}: code 0x37b-0x3a4.7 (42)
0x370|                                 29            |           )    |              size: 41 0x37b-0x37b.7 (1)
     |                                               |                |              code{}: 0x37c-0x3a4.7 (41)
     |                                               |                |                t{}: 0x37c-0x37c.7 (1)
0x370|                                    00         |            .   |                  n: 0 0x37c-0x37c.7 (1)
     |                                               |                |                  x[0:0]: 0x37d-NA (0)
     |                                               |                |                e[0:4]: 0x37d-0x3a4.7 (40)
     |                                               |                |                  [0]{}: in 0x37d-0x38e.7 (18)
0x370|                                       fd      |             .  |                    prefix: 0xfd (valid) 0x37d-0x37d.7 (1)
0x370|                                          0c   |              . |                    v128.const: 12 (valid) 0x37e-0x37e.7 (1)
0x370|                                             00|               .|                    bytes: raw bits 0x37f-0x38e.7 (16)
0x380|00 00 80 ff ff ff 7f 00 00 00 40 ff ff ff ff   |..........@.... |
     |                                               |                |                  [1]{}: in 0x38f-0x3a0.7 (18)
0x380|                                             fd|               .|                    prefix: 0xfd (valid) 0x38f-0x38f.7 (1)
0x390|0c                                             |.               |                    v128.const: 12 (valid) 0x390-0x390.7 (1)
0x390|   ff ff ff ff 00 00 00 40 ff ff ff 7f 00 00 00| .......@.......|                    bytes: raw bits 0x391-0x3a0.7 (16)
0x3a0|80                                             |.               |
     |                                               |                |                  [2]{}: in 0x3a1-0x3a3.7 (3)
0x3a0|   fd                                          | .              |                    prefix: 0xfd (valid) 0x3a1-0x3a1.7 (1)
0x3a0|      b9 01                                    |  ..            |                    i32x4.max_u: 185 (valid) 0x3a2-0x3a3.7 (2)
     |                                               |                |                  [3]{}: in 0x3a4-0x3a4.7 (1)
0x3a0|            0b                                 |    .           |                    end: 0xb (valid) 0x3a4-0x3a4.7 (1)
     |                                               |                |            [12]{}: code 0x3a5-0x3ce.7 (42)
0x3a0|               29                              |     )          |              size: 41 0x3a5-0x3a5.7 (1)
     |                                               |                |              code{}: 0x3a6-0x3ce.7 (41)
     |                                               |                |                t{}: 0x3a6-0x3a6.7 (1)
0x3a0|                  00                           |      .         |                  n: 0 0x3a6-0x3a6.7 (1)
     |                                               |                |                  x[0:0]: 0x3a7-NA (0)
     |                                               |                |                e[0:4]: 0x3a7-0x3ce.7 (40)
     |                                               |                |                  [0]{}: in 0x3a7-0x3b8.7 (18)
0x3a0|                     fd                        |       .        |                    prefix: 0xfd (valid) 0x3a7-0x3a7.7 (1)
0x3a0|                        0c                     |        .       |                    v128.const: 12 (valid) 0x3a8-0x3a8.7 (1)
0x3a0|                           00 00 00 00 01 00 00|         .......|                    bytes: raw bits 0x3a9-0x3b8.7 (16)
0x3b0|00 02 00 00 00 03 00 00 00                     |.........       |
     |                                               |                |                  [1]{}: in 0x3b9-0x3ca.7 (18)
0x3b0|                           fd                  |         .      |                    prefix: 0xfd (valid) 0x3b9-0x3b9.7 (1)
0x3b0|                              0c               |          .     |                    v128.const: 12 (valid) 0x3ba-0x3ba.7 (1)
0x3b0|                                 03 00 00 00 02|           .....|                    bytes: raw bits 0x3bb-0x3ca.7 (16)
0x3c0|00 00 00 01 00 00 00 00 00 00 00               |...........     |
     |                                               |                |                  [2]{}: in 0x3cb-0x3cd.7 (3)
0x3c0|                                 fd            |           .    |                    prefix: 0xfd (valid) 0x3cb-0x3cb.7 (1)
0x3c0|                                    b9 01      |            ..  |                    i32x4.max_u: 185 (valid) 0x3cc-0x3cd.7 (2)
     |                                               |                |                  [3]{}: in 0x3ce-0x3ce.7 (1)
0x3c0|                                          0b   |              . |                    end: 0xb (valid) 0x3ce-0x3ce.7 (1)
     |                                               |                |            [13]{}: code 0x3cf-0x3e6.7 (24)
0x3c0|                                             17|               .|              size: 23 0x3cf-0x3cf.7 (1)
     |                                               |                |              code{}: 0x3d0-0x3e6.7 (23)
     |                                               |                |                t{}: 0x3d0-0x3d0.7 (1)
0x3d0|00                                             |.               |                  n: 0 0x3d0-0x3d0.7 (1)
     |                                               |                |                  x[0:0]: 0x3d1-NA (0)
     |                                               |                |                e[0:3]: 0x3d1-0x3e6.7 (22)
     |                                               |                |                  [0]{}: in 0x3d1-0x3e2.7 (18)
0x3d0|   fd                                          | .              |                    prefix: 0xfd (valid) 0x3d1-0x3d1.7 (1)
0x3d0|      0c                                       |  .             |                    v128.const: 12 (valid) 0x3d2-0x3d2.7 (1)
0x3d0|         00 00 00 80 ff ff ff 7f 00 00 00 40 ff|   ...........@.|                    bytes: raw bits 0x3d3-0x3e2.7 (16)
0x3e0|ff ff ff                                       |...             |
     |                                               |                |                  [1]{}: in 0x3e3-0x3e5.7 (3)
0x3e0|         fd                                    |   .            |                    prefix: 0xfd (valid) 0x3e3-0x3e3.7 (1)
0x3e0|            a0 01                              |    ..          |                    i32x4.abs: 160 (valid) 0x3e4-0x3e5.7 (2)
     |                                               |                |                  [2]{}: in 0x3e6-0x3e6.7 (1)
0x3e0|                  0b                           |      .         |                    end: 0xb (valid) 0x3e6-0x3e6.7 (1)
     |                                               |                |            [14]{}: code 0x3e7-0x400.7 (26)
0x3e0|                     19                        |       .        |              size: 25 0x3e7-0x3e7.7 (1)
     |                                               |                |              code{}: 0x3e8-0x400.7 (25)
     |                                               |                |                t{}: 0x3e8-0x3e8.7 (1)
0x3e0|                        00                     |        .       |                  n: 0 0x3e8-0x3e8.7 (1)
     |                                               |                |                  x[0:0]: 0x3e9-NA (0)
     |                                               |                |                e[0:4]: 0x3e9-0x400.7 (24)
     |                                               |                |                  [0]{}: in 0x3e9-0x3ea.7 (2)
0x3e0|                           20                  |                |                    local.get: 0x20 (valid) 0x3e9-0x3e9.7 (1)
0x3e0|                              00               |          .     |                    x: 0 0x3ea-0x3ea.7 (1)
     |                                               |                |                  [1]{}: in 0x3eb-0x3fc.7 (18)
0x3e0|                                 fd            |           .    |                    prefix: 0xfd (valid) 0x3eb-0x3eb.7 (1)
0x3e0|                                    0c         |            .   |                    v128.const: 12 (valid) 0x3ec-0x3ec.7 (1)
0x3e0|                                       00 00 00|             ...|                    bytes: raw bits 0x3ed-0x3fc.7 (16)
0x3f0|80 ff ff ff 7f 00 00 00 40 ff ff ff ff         |........@....   |
     |                                               |                |                  [2]{}: in 0x3fd-0x3ff.7 (3)
0x3f0|                                       fd      |             .  |                    prefix: 0xfd (valid) 0x3fd-0x3fd.7 (1)
0x3f0|                                          b6 01|              ..|                    i32x4.min_s: 182 (valid) 0x3fe-0x3ff.7 (2)
     |                                               |                |                  [3]{}: in 0x400-0x400.7 (1)
0x400|0b                                             |.               |                    end: 0xb (valid) 0x400-0x400.7 (1)
     |                                               |                |            [15]{}: code 0x401-0x41a.7 (26)
0x400|   19                                          | .              |              size: 25 0x401-0x401.7 (1)
     |                                               |                |              code{}: 0x402-0x41a.7 (25)
     |                                               |                |                t{}: 0x402-0x402.7 (1)
0x400|      00                                       |  .             |                  n: 0 0x402-0x402.7 (1)
     |                                               |                |                  x[0:0]: 0x403-NA (0)
     |                                               |                |                e[0:4]: 0x403-0x41a.7 (24)
     |                                               |                |                  [0]{}: in 0x403-0x404.7 (2)
0x400|         20                                    |                |                    local.get: 0x20 (valid) 0x403-0x403.7 (1)
0x400|            00                                 |    .           |                    x: 0 0x404-0x404.7 (1)
     |                                               |                |                  [1]{}: in 0x405-0x416.7 (18)
0x400|               fd                              |     .          |                    prefix: 0xfd (valid) 0x405-0x405.7 (1)
0x400|                  0c                           |      .         |                    v128.const: 12 (valid) 0x406-0x406.7 (1)
0x400|                     00 00 00 00 01 00 00 00 02|       .........|                    bytes: raw bits 0x407-0x416.7 (16)
0x410|00 00 00 03 00 00 00                           |.......         |
     |                                               |                |                  [2]{}: in 0x417-0x419.7 (3)
0x410|                     fd                        |       .        |                    prefix: 0xfd (valid) 0x417-0x417.7 (1)
0x410|                        b6 01                  |        ..      |                    i32x4.min_s: 182 (valid) 0x418-0x419.7 (2)
     |                                               |                |                  [3]{}: in 0x41a-0x41a.7 (1)
0x410|                              0b               |          .     |                    end: 0xb (valid) 0x41a-0x41a.7 (1)
     |                                               |                |            [16]{}: code 0x41b-0x434.7 (26)
0x410|                                 19            |           .    |              size: 25 0x41b-0x41b.7 (1)
     |                                               |                |              code{}: 0x41c-0x434.7 (25)
     |                                               |                |                t{}: 0x41c-0x41c.7 (1)
0x410|                                    00         |            .   |                  n: 0 0x41c-0x41c.7 (1)
     |                                               |                |                  x[0:0]: 0x41d-NA (0)
     |                                               |                |                e[0:4]: 0x41d-0x434.7 (24)
     |                                               |                |                  [0]{}: in 0x41d-0x41e.7 (2)
0x410|                                       20      |                |                    local.get: 0x20 (valid) 0x41d-0x41d.7 (1)
0x410|                                          00   |              . |                    x: 0 0x41e-0x41e.7 (1)
     |                                               |                |                  [1]{}: in 0x41f-0x430.7 (18)
0x410|                                             fd|               .|                    prefix: 0xfd (valid) 0x41f-0x41f.7 (1)
0x420|0c                                             |.               |                    v128.const: 12 (valid) 0x420-0x420.7 (1)
0x420|   00 00 00 80 ff ff ff 7f 00 00 00 40 ff ff ff| ...........@...|                    bytes: raw bits 0x421-0x430.7 (16)
0x430|ff                                             |.               |
     |                                               |                |                  [2]{}: in 0x431-0x433.7 (3)
0x430|   fd                                          | .              |                    prefix: 0xfd (valid) 0x431-0x431.7 (1)
0x430|      b7 01                                    |  ..            |                    i32x4.min_u: 183 (valid) 0x432-0x433.7 (2)
     |                                               |                |                  [3]{}: in 0x434-0x434.7 (1)
0x430|            0b                                 |    .           |                    end: 0xb (valid) 0x434-0x434.7 (1)
     |                                               |                |            [17]{}: code 0x435-0x44e.7 (26)
0x430|               19                              |     .          |              size: 25 0x435-0x435.7 (1)
     |                                               |                |              code{}: 0x436-0x44e.7 (25)
     |                                               |                |                t{}: 0x436-0x436.7 (1)
0x430|                  00                           |      .         |                  n: 0 0x436-0x436.7 (1)
     |                                               |                |                  x[0:0]: 0x437-NA (0)
     |                                               |                |                e[0:4]: 0x437-0x44e.7 (24)
     |                                               |                |                  [0]{}: in 0x437-0x438.7 (2)
0x430|                     20                        |                |                    local.get: 0x20 (valid) 0x437-0x437.7 (1)
0x430|                        00                     |        .       |                    x: 0 0x438-0x438.7 (1)
     |                                               |                |                  [1]{}: in 0x439-0x44a.7 (18)
0x430|                           fd                  |         .      |                    prefix: 0xfd (valid) 0x439-0x439.7 (1)
0x430|                              0c               |          .     |                    v128.const: 12 (valid) 0x43a-0x43a.7 (1)
0x430|                                 00 00 00 00 01|           .....|                    bytes: raw bits 0x43b-0x44a.7 (16)
0x440|00 00 00 02 00 00 00 03 00 00 00               |...........     |
     |                                               |                |                  [2]{}: in 0x44b-0x44d.7 (3)
0x440|                                 fd            |           .    |                    prefix: 0xfd (valid) 0x44b-0x44b.7 (1)
0x440|                                    b7 01      |            ..  |                    i32x4.min_u: 183 (valid) 0x44c-0x44d.7 (2)
     |                                               |                |                  [3]{}: in 0x44e-0x44e.7 (1)
0x440|                                          0b   |              . |                    end: 0xb (valid) 0x44e-0x44e.7 (1)
     |                                               |                |            [18]{}: code 0x44f-0x468.7 (26)
0x440|                                             19|               .|              size: 25 0x44f-0x44f.7 (1)
     |                                               |                |              code{}: 0x450-0x468.7 (25)
     |                                               |                |                t{}: 0x450-0x450.7 (1)
0x450|00                                             |.               |                  n: 0 0x450-0x450.7 (1)
     |                                               |                |                  x[0:0]: 0x451-NA (0)
     |                                               |                |                e[0:4]: 0x451-0x468.7 (24)
     |                                               |                |                  [0]{}: in 0x451-0x452.7 (2)
0x450|   20                                          |                |                    local.get: 0x20 (valid) 0x451-0x451.7 (1)
0x450|      00                                       |  .             |                    x: 0 0x452-0x452.7 (1)
     |                                               |                |                  [1]{}: in 0x453-0x464.7 (18)
0x450|         fd                                    |   .            |                    prefix: 0xfd (valid) 0x453-0x453.7 (1)
0x450|            0c                                 |    .           |                    v128.const: 12 (valid) 0x454-0x454.7 (1)
0x450|               00 00 00 80 ff ff ff 7f 00 00 00|     ...........|                    bytes: raw bits 0x455-0x464.7 (16)
0x460|40 ff ff ff ff                                 |@....           |
     |                                               |                |                  [2]{}: in 0x465-0x467.7 (3)
0x460|               fd                              |     .          |                    prefix: 0xfd (valid) 0x465-0x465.7 (1)
0x460|                  b8 01                        |      ..        |                    i32x4.max_s: 184 (valid) 0x466-0x467.7 (2)
     |                                               |                |                  [3]{}: in 0x468-0x468.7 (1)
0x460|                        0b                     |        .       |                    end: 0xb (valid) 0x468-0x468.7 (1)
     |                                               |                |            [19]{}: code 0x469-0x482.7 (26)
0x460|                           19                  |         .      |              size: 25 0x469-0x469.7 (1)
     |                                               |                |              code{}: 0x46a-0x482.7 (25)
     |                                               |                |                t{}: 0x46a-0x46a.7 (1)
0x460|                              00               |          .     |                  n: 0 0x46a-0x46a.7 (1)
     |                                               |                |                  x[0:0]: 0x46b-NA (0)
     |                                               |                |                e[0:4]: 0x46b-0x482.7 (24)
     |                                               |                |                  [0]{}: in 0x46b-0x46c.7 (2)
0x460|                                 20            |                |                    local.get: 0x20 (valid) 0x46b-0x46b.7 (1)
0x460|                                    00         |            .   |                    x: 0 0x46c-0x46c.7 (1)
     |                                               |                |                  [1]{}: in 0x46d-0x47e.7 (18)
0x460|                                       fd      |             .  |                    prefix: 0xfd (valid) 0x46d-0x46d.7 (1)
0x460|                                          0c   |              . |                    v128.const: 12 (valid) 0x46e-0x46e.7 (1)
0x460|                                             00|               .|                    bytes: raw bits 0x46f-0x47e.7 (16)
0x470|00 00 00 01 00 00 00 02 00 00 00 03 00 00 00   |............... |
     |                                               |                |                  [2]{}: in 0x47f-0x481.7 (3)
0x470|                                             fd|               .|                    prefix: 0xfd (valid) 0x47f-0x47f.7 (1)
0x480|b8 01                                          |..              |                    i32x4.max_s: 184 (valid) 0x480-0x481.7 (2)
     |                                               |                |                  [3]{}: in 0x482-0x482.7 (1)
0x480|      0b                                       |  .             |                    end: 0xb (valid) 0x482-0x482.7 (1)
     |                                               |                |            [20]{}: code 0x483-0x49c.7 (26)
0x480|         19                                    |   .            |              size: 25 0x483-0x483.7 (1)
     |                                               |                |              code{}: 0x484-0x49c.7 (25)
     |                                               |                |                t{}: 0x484-0x484.7 (1)
0x480|            00                                 |    .           |                  n: 0 0x484-0x484.7 (1)
     |                                               |                |                  x[0:0]: 0x485-NA (0)
     |                                               |                |                e[0:4]: 0x485-0x49c.7 (24)
     |                                               |                |                  [0]{}: in 0x485-0x486.7 (2)
0x480|               20                              |                |                    local.get: 0x20 (valid) 0x485-0x485.7 (1)
0x480|                  00                           |      .         |                    x: 0 0x486-0x486.7 (1)
     |                                               |                |                  [1]{}: in 0x487-0x498.7 (18)
0x480|                     fd                        |       .        |                    prefix: 0xfd (valid) 0x487-0x487.7 (1)
0x480|                        0c                     |        .       |                    v128.const: 12 (valid) 0x488-0x488.7 (1)
0x480|                           00 00 00 80 ff ff ff|         .......|                    bytes: raw bits 0x489-0x498.7 (16)
0x490|7f 00 00 00 40 ff ff ff ff                     |....@....       |
     |                                               |                |                  [2]{}: in 0x499-0x49b.7 (3)
0x490|                           fd                  |         .      |                    prefix: 0xfd (valid) 0x499-0x499.7 (1)
0x490|                              b9 01            |          ..    |                    i32x4.max_u: 185 (valid) 0x49a-0x49b.7 (2)
     |                                               |                |                  [3]{}: in 0x49c-0x49c.7 (1)
0x490|                                    0b         |            .   |                    end: 0xb (valid) 0x49c-0x49c.7 (1)
     |                                               |                |            [21]{}: code 0x49d-0x4b6.7 (26)
0x490|                                       19      |             .  |              size: 25 0x49d-0x49d.7 (1)
     |                                               |                |              code{}: 0x49e-0x4b6.7 (25)
     |                                               |                |                t{}: 0x49e-0x49e.7 (1)
0x490|                                          00   |              . |                  n: 0 0x49e-0x49e.7 (1)
     |                                               |                |                  x[0:0]: 0x49f-NA (0)
     |                                               |                |                e[0:4]: 0x49f-0x4b6.7 (24)
     |                                               |                |                  [0]{}: in 0x49f-0x4a0.7 (2)
0x490|                                             20|                |                    local.get: 0x20 (valid) 0x49f-0x49f.7 (1)
0x4a0|00                                             |.               |                    x: 0 0x4a0-0x4a0.7 (1)
     |                                               |                |                  [1]{}: in 0x4a1-0x4b2.7 (18)
0x4a0|   fd                                          | .              |                    prefix: 0xfd (valid) 0x4a1-0x4a1.7 (1)
0x4a0|      0c                                       |  .             |                    v128.const: 12 (valid) 0x4a2-0x4a2.7 (1)
0x4a0|         00 00 00 00 01 00 00 00 02 00 00 00 03|   .............|                    bytes: raw bits 0x4a3-0x4b2.7 (16)
0x4b0|00 00 00                                       |...             |
     |                                               |                |                  [2]{}: in 0x4b3-0x4b5.7 (3)
0x4b0|         fd                                    |   .            |                    prefix: 0xfd (valid) 0x4b3-0x4b3.7 (1)
0x4b0|            b9 01                              |    ..          |                    i32x4.max_u: 185 (valid) 0x4b4-0x4b5.7 (2)
     |                                               |                |                  [3]{}: in 0x4b6-0x4b6.7 (1)
0x4b0|                  0b|                          |      .|        |                    end: 0xb (valid) 0x4b6-0x4b6.7 (1)
