$ fq -d wasm dv simd_bit_shift-0.wasm
     |00 01 02 03 04 05 06 07 08 09 0a 0b 0c 0d 0e 0f|0123456789abcdef|.{}: simd_bit_shift-0.wasm (wasm) 0x0-0x283 (643)
0x000|00 61 73 6d                                    |.asm            |  magic: raw bits (valid) 0x0-0x4 (4)
0x000|            01 00 00 00                        |    ....        |  version: 1 0x4-0x8 (4)
     |                                               |                |  sections[0:4]: 0x8-0x283 (635)
     |                                               |                |    [0]{}: section 0x8-0x16 (14)
0x000|                        01                     |        .       |      id: "type_section" (1) 0x8-0x9 (1)
0x000|                           0c                  |         .      |      size: 12 (valid) 0x9-0xa (1)
     |                                               |                |      content{}: 0xa-0x16 (12)
     |                                               |                |        ft{}: 0xa-0x16 (12)
0x000|                              02               |          .     |          n: 2 (valid) 0xa-0xb (1)
     |                                               |                |          x[0:2]: 0xb-0x16 (11)
     |                                               |                |            [0]{}: ft 0xb-0x11 (6)
0x000|                                 60            |           `    |              tag: 0x60 (valid) 0xb-0xc (1)
     |                                               |                |              rt1{}: 0xc-0xf (3)
0x000|                                    02         |            .   |                n: 2 (valid) 0xc-0xd (1)
     |                                               |                |                x[0:2]: 0xd-0xf (2)
0x000|                                       7b      |             {  |                  [0]: "v128" (0x7b) t 0xd-0xe (1)
0x000|                                          7f   |              . |                  [1]: "i32" (0x7f) t 0xe-0xf (1)
     |                                               |                |              rt2{}: 0xf-0x11 (2)
0x000|                                             01|               .|                n: 1 (valid) 0xf-0x10 (1)
     |                                               |                |                x[0:1]: 0x10-0x11 (1)
0x010|7b                                             |{               |                  [0]: "v128" (0x7b) t 0x10-0x11 (1)
     |                                               |                |            [1]{}: ft 0x11-0x16 (5)
0x010|   60                                          | `              |              tag: 0x60 (valid) 0x11-0x12 (1)
     |                                               |                |              rt1{}: 0x12-0x14 (2)
0x010|      01                                       |  .             |                n: 1 (valid) 0x12-0x13 (1)
     |                                               |                |                x[0:1]: 0x13-0x14 (1)
0x010|         7b                                    |   {            |                  [0]: "v128" (0x7b) t 0x13-0x14 (1)
     |                                               |                |              rt2{}: 0x14-0x16 (2)
0x010|            01                                 |    .           |                n: 1 (valid) 0x14-0x15 (1)
     |                                               |                |                x[0:1]: 0x15-0x16 (1)
0x010|               7b                              |     {          |                  [0]: "v128" (0x7b) t 0x15-0x16 (1)
     |                                               |                |    [1]{}: section 0x16-0x31 (27)
0x010|                  03                           |      .         |      id: "function_section" (3) 0x16-0x17 (1)
0x010|                     19                        |       .        |      size: 25 (valid) 0x17-0x18 (1)
     |                                               |                |      content{}: 0x18-0x31 (25)
     |                                               |                |        x{}: 0x18-0x31 (25)
0x010|                        18                     |        .       |          n: 24 (valid) 0x18-0x19 (1)
     |                                               |                |          x[0:24]: 0x19-0x31 (24)
0x010|                           00                  |         .      |            [0]: 0 x (valid) 0x19-0x1a (1)
0x010|                              00               |          .     |            [1]: 0 x (valid) 0x1a-0x1b (1)
0x010|                                 00            |           .    |            [2]: 0 x (valid) 0x1b-0x1c (1)
0x010|                                    00         |            .   |            [3]: 0 x (valid) 0x1c-0x1d (1)
0x010|                                       00      |             .  |            [4]: 0 x (valid) 0x1d-0x1e (1)
0x010|                                          00   |              . |            [5]: 0 x (valid) 0x1e-0x1f (1)
0x010|                                             00|               .|            [6]: 0 x (valid) 0x1f-0x20 (1)
0x020|00                                             |.               |            [7]: 0 x (valid) 0x20-0x21 (1)
0x020|   00                                          | .              |            [8]: 0 x (valid) 0x21-0x22 (1)
0x020|      00                                       |  .             |            [9]: 0 x (valid) 0x22-0x23 (1)
0x020|         00                                    |   .            |            [10]: 0 x (valid) 0x23-0x24 (1)
0x020|            00                                 |    .           |            [11]: 0 x (valid) 0x24-0x25 (1)
0x020|               01                              |     .          |            [12]: 1 x (valid) 0x25-0x26 (1)
0x020|                  01                           |      .         |            [13]: 1 x (valid) 0x26-0x27 (1)
0x020|                     01                        |       .        |            [14]: 1 x (valid) 0x27-0x28 (1)
0x020|                        01                     |        .       |            [15]: 1 x (valid) 0x28-0x29 (1)
0x020|                           01                  |         .      |            [16]: 1 x (valid) 0x29-0x2a (1)
0x020|                              01               |          .     |            [17]: 1 x (valid) 0x2a-0x2b (1)
0x020|                                 01            |           .    |            [18]: 1 x (valid) 0x2b-0x2c (1)
0x020|                                    01         |            .   |            [19]: 1 x (valid) 0x2c-0x2d (1)
0x020|                                       01      |             .  |            [20]: 1 x (valid) 0x2d-0x2e (1)
0x020|                                          01   |              . |            [21]: 1 x (valid) 0x2e-0x2f (1)
0x020|                                             01|               .|            [22]: 1 x (valid) 0x2f-0x30 (1)
0x030|01                                             |.               |            [23]: 1 x (valid) 0x30-0x31 (1)
     |                                               |                |    [2]{}: section 0x31-0x193 (354)
0x030|   07                                          | .              |      id: "export_section" (7) 0x31-0x32 (1)
0x030|      df 02                                    |  ..            |      size: 351 (valid) 0x32-0x34 (2)
     |                                               |                |      content{}: 0x34-0x193 (351)
     |                                               |                |        ex{}: 0x34-0x193 (351)
0x030|            18                                 |    .           |          n: 24 (valid) 0x34-0x35 (1)
     |                                               |                |          x[0:24]: 0x35-0x193 (350)
     |                                               |                |            [0]{}: ex 0x35-0x41 (12)
     |                                               |                |              nm{}: 0x35-0x3f (10)
0x030|               09                              |     .          |                n: 9 (valid) 0x35-0x36 (1)
0x030|                  69 38 78 31 36 2e 73 68 6c   |      i8x16.shl |                b: "i8x16.shl" 0x36-0x3f (9)
     |                                               |                |              d{}: 0x3f-0x41 (2)
0x030|                                             00|               .|                tag: "funcidx" (0x0) 0x3f-0x40 (1)
0x040|00                                             |.               |                x: 0 (valid) 0x40-0x41 (1)
     |                                               |                |            [1]{}: ex 0x41-0x4f (14)
     |                                               |                |              nm{}: 0x41-0x4d (12)
0x040|   0b                                          | .              |                n: 11 (valid) 0x41-0x42 (1)
0x040|      69 38 78 31 36 2e 73 68 72 5f 73         |  i8x16.shr_s   |                b: "i8x16.shr_s" 0x42-0x4d (11)
     |                                               |                |              d{}: 0x4d-0x4f (2)
0x040|                                       00      |             .  |                tag: "funcidx" (0x0) 0x4d-0x4e (1)
0x040|                                          01   |              . |                x: 1 (valid) 0x4e-0x4f (1)
     |                                               |                |            [2]{}: ex 0x4f-0x5d (14)
     |                                               |                |              nm{}: 0x4f-0x5b (12)
0x040|                                             0b|               .|                n: 11 (valid) 0x4f-0x50 (1)
0x050|69 38 78 31 36 2e 73 68 72 5f 75               |i8x16.shr_u     |                b: "i8x16.shr_u" 0x50-0x5b (11)
     |                                               |                |              d{}: 0x5b-0x5d (2)
0x050|                                 00            |           .    |                tag: "funcidx" (0x0) 0x5b-0x5c (1)
0x050|                                    02         |            .   |                x: 2 (valid) 0x5c-0x5d (1)
     |                                               |                |            [3]{}: ex 0x5d-0x69 (12)
     |                                               |                |              nm{}: 0x5d-0x67 (10)
0x050|                                       09      |             .  |                n: 9 (valid) 0x5d-0x5e (1)
0x050|                                          69 31|              i1|                b: "i16x8.shl" 0x5e-0x67 (9)
0x060|36 78 38 2e 73 68 6c                           |6x8.shl         |
     |                                               |                |              d{}: 0x67-0x69 (2)
0x060|                     00                        |       .        |                tag: "funcidx" (0x0) 0x67-0x68 (1)
0x060|                        03                     |        .       |                x: 3 (valid) 0x68-0x69 (1)
     |                                               |                |            [4]{}: ex 0x69-0x77 (14)
     |                                               |                |              nm{}: 0x69-0x75 (12)
0x060|                           0b                  |         .      |                n: 11 (valid) 0x69-0x6a (1)
0x060|                              69 31 36 78 38 2e|          i16x8.|                b: "i16x8.shr_s" 0x6a-0x75 (11)
0x070|73 68 72 5f 73                                 |shr_s           |
     |                                               |                |              d{}: 0x75-0x77 (2)
0x070|               00                              |     .          |                tag: "funcidx" (0x0) 0x75-0x76 (1)
0x070|                  04                           |      .         |                x: 4 (valid) 0x76-0x77 (1)
     |                                               |                |            [5]{}: ex 0x77-0x85 (14)
     |                                               |                |              nm{}: 0x77-0x83 (12)
0x070|                     0b                        |       .        |                n: 11 (valid) 0x77-0x78 (1)
0x070|                        69 31 36 78 38 2e 73 68|        i16x8.sh|                b: "i16x8.shr_u" 0x78-0x83 (11)
0x080|72 5f 75                                       |r_u             |
     |                                               |                |              d{}: 0x83-0x85 (2)
0x080|         00                                    |   .            |                tag: "funcidx" (0x0) 0x83-0x84 (1)
0x080|            05                                 |    .           |                x: 5 (valid) 0x84-0x85 (1)
     |                                               |                |            [6]{}: ex 0x85-0x91 (12)
     |                                               |                |              nm{}: 0x85-0x8f (10)
0x080|               09                              |     .          |                n: 9 (valid) 0x85-0x86 (1)
0x080|                  69 33 32 78 34 2e 73 68 6c   |      i32x4.shl |                b: "i32x4.shl" 0x86-0x8f (9)
     |                                               |                |              d{}: 0x8f-0x91 (2)
0x080|                                             00|               .|                tag: "funcidx" (0x0) 0x8f-0x90 (1)
0x090|06                                             |.               |                x: 6 (valid) 0x90-0x91 (1)
     |                                               |                |            [7]{}: ex 0x91-0x9f (14)
     |                                               |                |              nm{}: 0x91-0x9d (12)
0x090|   0b                                          | .              |                n: 11 (valid) 0x91-0x92 (1)
0x090|      69 33 32 78 34 2e 73 68 72 5f 73         |  i32x4.shr_s   |                b: "i32x4.shr_s" 0x92-0x9d (11)
     |                                               |                |              d{}: 0x9d-0x9f (2)
0x090|                                       00      |             .  |                tag: "funcidx" (0x0) 0x9d-0x9e (1)
0x090|                                          07   |              . |                x: 7 (valid) 0x9e-0x9f (1)
     |                                               |                |            [8]{}: ex 0x9f-0xad (14)
     |                                               |                |              nm{}: 0x9f-0xab (12)
0x090|                                             0b|               .|                n: 11 (valid) 0x9f-0xa0 (1)
0x0a0|69 33 32 78 34 2e 73 68 72 5f 75               |i32x4.shr_u     |                b: "i32x4.shr_u" 0xa0-0xab (11)
     |                                               |                |              d{}: 0xab-0xad (2)
0x0a0|                                 00            |           .    |                tag: "funcidx" (0x0) 0xab-0xac (1)
0x0a0|                                    08         |            .   |                x: 8 (valid) 0xac-0xad (1)
     |                                               |                |            [9]{}: ex 0xad-0xb9 (12)
     |                                               |                |              nm{}: 0xad-0xb7 (10)
0x0a0|                                       09      |             .  |                n: 9 (valid) 0xad-0xae (1)
0x0a0|                                          69 36|              i6|                b: "i64x2.shl" 0xae-0xb7 (9)
0x0b0|34 78 32 2e 73 68 6c                           |4x2.shl         |
     |                                               |                |              d{}: 0xb7-0xb9 (2)
0x0b0|                     00                        |       .        |                tag: "funcidx" (0x0) 0xb7-0xb8 (1)
0x0b0|                        09                     |        .       |                x: 9 (valid) 0xb8-0xb9 (1)
     |                                               |                |            [10]{}: ex 0xb9-0xc7 (14)
     |                                               |                |              nm{}: 0xb9-0xc5 (12)
0x0b0|                           0b                  |         .      |                n: 11 (valid) 0xb9-0xba (1)
0x0b0|                              69 36 34 78 32 2e|          i64x2.|                b: "i64x2.shr_s" 0xba-0xc5 (11)
0x0c0|73 68 72 5f 73                                 |shr_s           |
     |                                               |                |              d{}: 0xc5-0xc7 (2)
0x0c0|               00                              |     .          |                tag: "funcidx" (0x0) 0xc5-0xc6 (1)
0x0c0|                  0a                           |      .         |                x: 10 (valid) 0xc6-0xc7 (1)
     |                                               |                |            [11]{}: ex 0xc7-0xd5 (14)
     |                                               |                |              nm{}: 0xc7-0xd3 (12)
0x0c0|                     0b                        |       .        |                n: 11 (valid) 0xc7-0xc8 (1)
0x0c0|                        69 36 34 78 32 2e 73 68|        i64x2.sh|                b: "i64x2.shr_u" 0xc8-0xd3 (11)
0x0d0|72 5f 75                                       |r_u             |
     |                                               |                |              d{}: 0xd3-0xd5 (2)
0x0d0|         00                                    |   .            |                tag: "funcidx" (0x0) 0xd3-0xd4 (1)
0x0d0|            0b                                 |    .           |                x: 11 (valid) 0xd4-0xd5 (1)
     |                                               |                |            [12]{}: ex 0xd5-0xe3 (14)
     |                                               |                |              nm{}: 0xd5-0xe1 (12)
0x0d0|               0b                              |     .          |                n: 11 (valid) 0xd5-0xd6 (1)
0x0d0|                  69 38 78 31 36 2e 73 68 6c 5f|      i8x16.shl_|                b: "i8x16.shl_1" 0xd6-0xe1 (11)
0x0e0|31                                             |1               |
     |                                               |                |              d{}: 0xe1-0xe3 (2)
0x0e0|   00                                          | .              |                tag: "funcidx" (0x0) 0xe1-0xe2 (1)
0x0e0|      0c                                       |  .             |                x: 12 (valid) 0xe2-0xe3 (1)
     |                                               |                |            [13]{}: ex 0xe3-0xf3 (16)
     |                                               |                |              nm{}: 0xe3-0xf1 (14)
0x0e0|         0d                                    |   .            |                n: 13 (valid) 0xe3-0xe4 (1)
0x0e0|            69 38 78 31 36 2e 73 68 72 5f 75 5f|    i8x16.shr_u_|                b: "i8x16.shr_u_8" 0xe4-0xf1 (13)
0x0f0|38                                             |8               |
     |                                               |                |              d{}: 0xf1-0xf3 (2)
0x0f0|   00                                          | .              |                tag: "funcidx" (0x0) 0xf1-0xf2 (1)
0x0f0|      0d                                       |  .             |                x: 13 (valid) 0xf2-0xf3 (1)
     |                                               |                |            [14]{}: ex 0xf3-0x103 (16)
     |                                               |                |              nm{}: 0xf3-0x101 (14)
0x0f0|         0d                                    |   .            |                n: 13 (valid) 0xf3-0xf4 (1)
0x0f0|            69 38 78 31 36 2e 73 68 72 5f 73 5f|    i8x16.shr_s_|                b: "i8x16.shr_s_9" 0xf4-0x101 (13)
0x100|39                                             |9               |
     |                                               |                |              d{}: 0x101-0x103 (2)
0x100|   00                                          | .              |                tag: "funcidx" (0x0) 0x101-0x102 (1)
0x100|      0e                                       |  .             |                x: 14 (valid) 0x102-0x103 (1)
     |                                               |                |            [15]{}: ex 0x103-0x111 (14)
     |                                               |                |              nm{}: 0x103-0x10f (12)
0x100|         0b                                    |   .            |                n: 11 (valid) 0x103-0x104 (1)
0x100|            69 31 36 78 38 2e 73 68 6c 5f 31   |    i16x8.shl_1 |                b: "i16x8.shl_1" 0x104-0x10f (11)
     |                                               |                |              d{}: 0x10f-0x111 (2)
0x100|                                             00|               .|                tag: "funcidx" (0x0) 0x10f-0x110 (1)
0x110|0f                                             |.               |                x: 15 (valid) 0x110-0x111 (1)
     |                                               |                |            [16]{}: ex 0x111-0x122 (17)
     |                                               |                |              nm{}: 0x111-0x120 (15)
0x110|   0e                                          | .              |                n: 14 (valid) 0x111-0x112 (1)
0x110|      69 31 36 78 38 2e 73 68 72 5f 75 5f 31 36|  i16x8.shr_u_16|                b: "i16x8.shr_u_16" 0x112-0x120 (14)
     |                                               |                |              d{}: 0x120-0x122 (2)
0x120|00                                             |.               |                tag: "funcidx" (0x0) 0x120-0x121 (1)
0x120|   10                                          | .              |                x: 16 (valid) 0x121-0x122 (1)
     |                                               |                |            [17]{}: ex 0x122-0x133 (17)
     |                                               |                |              nm{}: 0x122-0x131 (15)
0x120|      0e                                       |  .             |                n: 14 (valid) 0x122-0x123 (1)
0x120|         69 31 36 78 38 2e 73 68 72 5f 73 5f 31|   i16x8.shr_s_1|                b: "i16x8.shr_s_17" 0x123-0x131 (14)
0x130|37                                             |7               |
     |                                               |                |              d{}: 0x131-0x133 (2)
0x130|   00                                          | .              |                tag: "funcidx" (0x0) 0x131-0x132 (1)
0x130|      11                                       |  .             |                x: 17 (valid) 0x132-0x133 (1)
     |                                               |                |            [18]{}: ex 0x133-0x141 (14)
     |                                               |                |              nm{}: 0x133-0x13f (12)
0x130|         0b                                    |   .            |                n: 11 (valid) 0x133-0x134 (1)
0x130|            69 33 32 78 34 2e 73 68 6c 5f 31   |    i32x4.shl_1 |                b: "i32x4.shl_1" 0x134-0x13f (11)
     |                                               |                |              d{}: 0x13f-0x141 (2)
0x130|                                             00|               .|                tag: "funcidx" (0x0) 0x13f-0x140 (1)
0x140|12                                             |.               |                x: 18 (valid) 0x140-0x141 (1)
     |                                               |                |            [19]{}: ex 0x141-0x152 (17)
     |                                               |                |              nm{}: 0x141-0x150 (15)
0x140|   0e                                          | .              |                n: 14 (valid) 0x141-0x142 (1)
0x140|      69 33 32 78 34 2e 73 68 72 5f 75 5f 33 32|  i32x4.shr_u_32|                b: "i32x4.shr_u_32" 0x142-0x150 (14)
     |                                               |                |              d{}: 0x150-0x152 (2)
0x150|00                                             |.               |                tag: "funcidx" (0x0) 0x150-0x151 (1)
0x150|   13                                          | .              |                x: 19 (valid) 0x151-0x152 (1)
     |                                               |                |            [20]{}: ex 0x152-0x163 (17)
     |                                               |                |              nm{}: 0x152-0x161 (15)
0x150|      0e                                       |  .             |                n: 14 (valid) 0x152-0x153 (1)
0x150|         69 33 32 78 34 2e 73 68 72 5f 73 5f 33|   i32x4.shr_s_3|                b: "i32x4.shr_s_33" 0x153-0x161 (14)
0x160|33                                             |3               |
     |                                               |                |              d{}: 0x161-0x163 (2)
0x160|   00                                          | .              |                tag: "funcidx" (0x0) 0x161-0x162 (1)
0x160|      14                                       |  .             |                x: 20 (valid) 0x162-0x163 (1)
     |                                               |                |            [21]{}: ex 0x163-0x171 (14)
     |                                               |                |              nm{}: 0x163-0x16f (12)
0x160|         0b                                    |   .            |                n: 11 (valid) 0x163-0x164 (1)
0x160|            69 36 34 78 32 2e 73 68 6c 5f 31   |    i64x2.shl_1 |                b: "i64x2.shl_1" 0x164-0x16f (11)
     |                                               |                |              d{}: 0x16f-0x171 (2)
0x160|                                             00|               .|                tag: "funcidx" (0x0) 0x16f-0x170 (1)
0x170|15                                             |.               |                x: 21 (valid) 0x170-0x171 (1)
     |                                               |                |            [22]{}: ex 0x171-0x182 (17)
     |                                               |                |              nm{}: 0x171-0x180 (15)
0x170|   0e                                          | .              |                n: 14 (valid) 0x171-0x172 (1)
0x170|      69 36 34 78 32 2e 73 68 72 5f 75 5f 36 34|  i64x2.shr_u_64|                b: "i64x2.shr_u_64" 0x172-0x180 (14)
     |                                               |                |              d{}: 0x180-0x182 (2)
0x180|00                                             |.               |                tag: "funcidx" (0x0) 0x180-0x181 (1)
0x180|   16                                          | .              |                x: 22 (valid) 0x181-0x182 (1)
     |                                               |                |            [23]{}: ex 0x182-0x193 (17)
     |                                               |                |              nm{}: 0x182-0x191 (15)
0x180|      0e                                       |  .             |                n: 14 (valid) 0x182-0x183 (1)
0x180|         69 36 34 78 32 2e 73 68 72 5f 73 5f 36|   i64x2.shr_s_6|                b: "i64x2.shr_s_65" 0x183-0x191 (14)
0x190|35                                             |5               |
     |                                               |                |              d{}: 0x191-0x193 (2)
0x190|   00                                          | .              |                tag: "funcidx" (0x0) 0x191-0x192 (1)
0x190|      17                                       |  .             |                x: 23 (valid) 0x192-0x193 (1)
     |                                               |                |    [3]{}: section 0x193-0x283 (240)
0x190|         0a                                    |   .            |      id: "code_section" (10) 0x193-0x194 (1)
0x190|            ed 01                              |    ..          |      size: 237 (valid) 0x194-0x196 (2)
     |                                               |                |      content{}: 0x196-0x283 (237)
     |                                               |                |        code{}: 0x196-0x283 (237)
0x190|                  18                           |      .         |          n: 24 (valid) 0x196-0x197 (1)
     |                                               |                |          x[0:24]: 0x197-0x283 (236)
     |                                               |                |            [0]{}: code 0x197-0x1a0 (9)
0x190|                     08                        |       .        |              size: 8 (valid) 0x197-0x198 (1)
     |                                               |                |              code{}: 0x198-0x1a0 (8)
     |                                               |                |                t{}: 0x198-0x199 (1)
0x190|                        00                     |        .       |                  n: 0 (valid) 0x198-0x199 (1)
     |                                               |                |                  x[0:0]: 0x199-0x199 (0)
     |                                               |                |                e[0:4]: 0x199-0x1a0 (7)
     |                                               |                |                  [0]{}: in 0x199-0x19b (2)
0x190|                           20                  |                |                    opcode: "local.get" (0x20) 0x199-0x19a (1)
0x190|                              00               |          .     |                    x: 0 (valid) 0x19a-0x19b (1)
     |                                               |                |                  [1]{}: in 0x19b-0x19d (2)
0x190|                                 20            |                |                    opcode: "local.get" (0x20) 0x19b-0x19c (1)
0x190|                                    01         |            .   |                    x: 1 (valid) 0x19c-0x19d (1)
     |                                               |                |                  [2]{}: in 0x19d-0x19f (2)
0x190|                                       fd      |             .  |                    opcode: "vector" (0xfd) 0x19d-0x19e (1)
0x190|                                          6b   |              k |                    v_opcode: "i8x16.shl" (107) 0x19e-0x19f (1)
     |                                               |                |                  [3]{}: in 0x19f-0x1a0 (1)
0x190|                                             0b|               .|                    opcode: "end" (0xb) 0x19f-0x1a0 (1)
     |                                               |                |            [1]{}: code 0x1a0-0x1a9 (9)
0x1a0|08                                             |.               |              size: 8 (valid) 0x1a0-0x1a1 (1)
     |                                               |                |              code{}: 0x1a1-0x1a9 (8)
     |                                               |                |                t{}: 0x1a1-0x1a2 (1)
0x1a0|   00                                          | .              |                  n: 0 (valid) 0x1a1-0x1a2 (1)
     |                                               |                |                  x[0:0]: 0x1a2-0x1a2 (0)
     |                                               |                |                e[0:4]: 0x1a2-0x1a9 (7)
     |                                               |                |                  [0]{}: in 0x1a2-0x1a4 (2)
0x1a0|      20                                       |                |                    opcode: "local.get" (0x20) 0x1a2-0x1a3 (1)
0x1a0|         00                                    |   .            |                    x: 0 (valid) 0x1a3-0x1a4 (1)
     |                                               |                |                  [1]{}: in 0x1a4-0x1a6 (2)
0x1a0|            20                                 |                |                    opcode: "local.get" (0x20) 0x1a4-0x1a5 (1)
0x1a0|               01                              |     .          |                    x: 1 (valid) 0x1a5-0x1a6 (1)
     |                                               |                |                  [2]{}: in 0x1a6-0x1a8 (2)
0x1a0|                  fd                           |      .         |                    opcode: "vector" (0xfd) 0x1a6-0x1a7 (1)
0x1a0|                     6c                        |       l        |                    v_opcode: "i8x16.shr_s" (108) 0x1a7-0x1a8 (1)
     |                                               |                |                  [3]{}: in 0x1a8-0x1a9 (1)
0x1a0|                        0b                     |        .       |                    opcode: "end" (0xb) 0x1a8-0x1a9 (1)
     |                                               |                |            [2]{}: code 0x1a9-0x1b2 (9)
0x1a0|                           08                  |         .      |              size: 8 (valid) 0x1a9-0x1aa (1)
     |                                               |                |              code{}: 0x1aa-0x1b2 (8)
     |                                               |                |                t{}: 0x1aa-0x1ab (1)
0x1a0|                              00               |          .     |                  n: 0 (valid) 0x1aa-0x1ab (1)
     |                                               |                |                  x[0:0]: 0x1ab-0x1ab (0)
     |                                               |                |                e[0:4]: 0x1ab-0x1b2 (7)
     |                                               |                |                  [0]{}: in 0x1ab-0x1ad (2)
0x1a0|                                 20            |                |                    opcode: "local.get" (0x20) 0x1ab-0x1ac (1)
0x1a0|                                    00         |            .   |                    x: 0 (valid) 0x1ac-0x1ad (1)
     |                                               |                |                  [1]{}: in 0x1ad-0x1af (2)
0x1a0|                                       20      |                |                    opcode: "local.get" (0x20) 0x1ad-0x1ae (1)
0x1a0|                                          01   |              . |                    x: 1 (valid) 0x1ae-0x1af (1)
     |                                               |                |                  [2]{}: in 0x1af-0x1b1 (2)
0x1a0|                                             fd|               .|                    opcode: "vector" (0xfd) 0x1af-0x1b0 (1)
0x1b0|6d                                             |m               |                    v_opcode: "i8x16.shr_u" (109) 0x1b0-0x1b1 (1)
     |                                               |                |                  [3]{}: in 0x1b1-0x1b2 (1)
0x1b0|   0b                                          | .              |                    opcode: "end" (0xb) 0x1b1-0x1b2 (1)
     |                                               |                |            [3]{}: code 0x1b2-0x1bc (10)
0x1b0|      09                                       |  .             |              size: 9 (valid) 0x1b2-0x1b3 (1)
     |                                               |                |              code{}: 0x1b3-0x1bc (9)
     |                                               |                |                t{}: 0x1b3-0x1b4 (1)
0x1b0|         00                                    |   .            |                  n: 0 (valid) 0x1b3-0x1b4 (1)
     |                                               |                |                  x[0:0]: 0x1b4-0x1b4 (0)
     |                                               |                |                e[0:4]: 0x1b4-0x1bc (8)
     |                                               |                |                  [0]{}: in 0x1b4-0x1b6 (2)
0x1b0|            20                                 |                |                    opcode: "local.get" (0x20) 0x1b4-0x1b5 (1)
0x1b0|               00                              |     .          |                    x: 0 (valid) 0x1b5-0x1b6 (1)
     |                                               |                |                  [1]{}: in 0x1b6-0x1b8 (2)
0x1b0|                  20                           |                |                    opcode: "local.get" (0x20) 0x1b6-0x1b7 (1)
0x1b0|                     01                        |       .        |                    x: 1 (valid) 0x1b7-0x1b8 (1)
     |                                               |                |                  [2]{}: in 0x1b8-0x1bb (3)
0x1b0|                        fd                     |        .       |                    opcode: "vector" (0xfd) 0x1b8-0x1b9 (1)
0x1b0|                           8b 01               |         ..     |                    v_opcode: "i16x8.shl" (139) 0x1b9-0x1bb (2)
     |                                               |                |                  [3]{}: in 0x1bb-0x1bc (1)
0x1b0|                                 0b            |           .    |                    opcode: "end" (0xb) 0x1bb-0x1bc (1)
     |                                               |                |            [4]{}: code 0x1bc-0x1c6 (10)
0x1b0|                                    09         |            .   |              size: 9 (valid) 0x1bc-0x1bd (1)
     |                                               |                |              code{}: 0x1bd-0x1c6 (9)
     |                                               |                |                t{}: 0x1bd-0x1be (1)
0x1b0|                                       00      |             .  |                  n: 0 (valid) 0x1bd-0x1be (1)
     |                                               |                |                  x[0:0]: 0x1be-0x1be (0)
     |                                               |                |                e[0:4]: 0x1be-0x1c6 (8)
     |                                               |                |                  [0]{}: in 0x1be-0x1c0 (2)
0x1b0|                                          20   |                |                    opcode: "local.get" (0x20) 0x1be-0x1bf (1)
0x1b0|                                             00|               .|                    x: 0 (valid) 0x1bf-0x1c0 (1)
     |                                               |                |                  [1]{}: in 0x1c0-0x1c2 (2)
0x1c0|20                                             |                |                    opcode: "local.get" (0x20) 0x1c0-0x1c1 (1)
0x1c0|   01                                          | .              |                    x: 1 (valid) 0x1c1-0x1c2 (1)
     |                                               |                |                  [2]{}: in 0x1c2-0x1c5 (3)
0x1c0|      fd                                       |  .             |                    opcode: "vector" (0xfd) 0x1c2-0x1c3 (1)
0x1c0|         8c 01                                 |   ..           |                    v_opcode: "i16x8.shr_s" (140) 0x1c3-0x1c5 (2)
     |                                               |                |                  [3]{}: in 0x1c5-0x1c6 (1)
0x1c0|               0b                              |     .          |                    opcode: "end" (0xb) 0x1c5-0x1c6 (1)
     |                                               |                |            [5]{}: code 0x1c6-0x1d0 (10)
0x1c0|                  09                           |      .         |              size: 9 (valid) 0x1c6-0x1c7 (1)
     |                                               |                |              code{}: 0x1c7-0x1d0 (9)
     |                                               |                |                t{}: 0x1c7-0x1c8 (1)
0x1c0|                     00                        |       .        |                  n: 0 (valid) 0x1c7-0x1c8 (1)
     |                                               |                |                  x[0:0]: 0x1c8-0x1c8 (0)
     |                                               |                |                e[0:4]: 0x1c8-0x1d0 (8)
     |                                               |                |                  [0]{}: in 0x1c8-0x1ca (2)
0x1c0|                        20                     |                |                    opcode: "local.get" (0x20) 0x1c8-0x1c9 (1)
0x1c0|                           00                  |         .      |                    x: 0 (valid) 0x1c9-0x1ca (1)
     |                                               |                |                  [1]{}: in 0x1ca-0x1cc (2)
0x1c0|                              20               |                |                    opcode: "local.get" (0x20) 0x1ca-0x1cb (1)
0x1c0|                                 01            |           .    |                    x: 1 (valid) 0x1cb-0x1cc (1)
     |                                               |                |                  [2]{}: in 0x1cc-0x1cf (3)
0x1c0|                                    fd         |            .   |                    opcode: "vector" (0xfd) 0x1cc-0x1cd (1)
0x1c0|                                       8d 01   |             .. |                    v_opcode: "i16x8.shr_u" (141) 0x1cd-0x1cf (2)
     |                                               |                |                  [3]{}: in 0x1cf-0x1d0 (1)
0x1c0|                                             0b|               .|                    opcode: "end" (0xb) 0x1cf-0x1d0 (1)
     |                                               |                |            [6]{}: code 0x1d0-0x1da (10)
0x1d0|09                                             |.               |              size: 9 (valid) 0x1d0-0x1d1 (1)
     |                                               |                |              code{}: 0x1d1-0x1da (9)
     |                                               |                |                t{}: 0x1d1-0x1d2 (1)
0x1d0|   00                                          | .              |                  n: 0 (valid) 0x1d1-0x1d2 (1)
     |                                               |                |                  x[0:0]: 0x1d2-0x1d2 (0)
     |                                               |                |                e[0:4]: 0x1d2-0x1da (8)
     |                                               |                |                  [0]{}: in 0x1d2-0x1d4 (2)
0x1d0|      20                                       |                |                    opcode: "local.get" (0x20) 0x1d2-0x1d3 (1)
0x1d0|         00                                    |   .            |                    x: 0 (valid) 0x1d3-0x1d4 (1)
     |                                               |                |                  [1]{}: in 0x1d4-0x1d6 (2)
0x1d0|            20                                 |                |                    opcode: "local.get" (0x20) 0x1d4-0x1d5 (1)
0x1d0|               01                              |     .          |                    x: 1 (valid) 0x1d5-0x1d6 (1)
     |                                               |                |                  [2]{}: in 0x1d6-0x1d9 (3)
0x1d0|                  fd                           |      .         |                    opcode: "vector" (0xfd) 0x1d6-0x1d7 (1)
0x1d0|                     ab 01                     |       ..       |                    v_opcode: "i32x4.shl" (171) 0x1d7-0x1d9 (2)
     |                                               |                |                  [3]{}: in 0x1d9-0x1da (1)
0x1d0|                           0b                  |         .      |                    opcode: "end" (0xb) 0x1d9-0x1da (1)
     |                                               |                |            [7]{}: code 0x1da-0x1e4 (10)
0x1d0|                              09               |          .     |              size: 9 (valid) 0x1da-0x1db (1)
     |                                               |                |              code{}: 0x1db-0x1e4 (9)
     |                                               |                |                t{}: 0x1db-0x1dc (1)
0x1d0|                                 00            |           .    |                  n: 0 (valid) 0x1db-0x1dc (1)
     |                                               |                |                  x[0:0]: 0x1dc-0x1dc (0)
     |                                               |                |                e[0:4]: 0x1dc-0x1e4 (8)
     |                                               |                |                  [0]{}: in 0x1dc-0x1de (2)
0x1d0|                                    20         |                |                    opcode: "local.get" (0x20) 0x1dc-0x1dd (1)
0x1d0|                                       00      |             .  |                    x: 0 (valid) 0x1dd-0x1de (1)
     |                                               |                |                  [1]{}: in 0x1de-0x1e0 (2)
0x1d0|                                          20   |                |                    opcode: "local.get" (0x20) 0x1de-0x1df (1)
0x1d0|                                             01|               .|                    x: 1 (valid) 0x1df-0x1e0 (1)
     |                                               |                |                  [2]{}: in 0x1e0-0x1e3 (3)
0x1e0|fd                                             |.               |                    opcode: "vector" (0xfd) 0x1e0-0x1e1 (1)
0x1e0|   ac 01                                       | ..             |                    v_opcode: "i32x4.shr_s" (172) 0x1e1-0x1e3 (2)
     |                                               |                |                  [3]{}: in 0x1e3-0x1e4 (1)
0x1e0|         0b                                    |   .            |                    opcode: "end" (0xb) 0x1e3-0x1e4 (1)
     |                                               |                |            [8]{}: code 0x1e4-0x1ee (10)
0x1e0|            09                                 |    .           |              size: 9 (valid) 0x1e4-0x1e5 (1)
     |                                               |                |              code{}: 0x1e5-0x1ee (9)
     |                                               |                |                t{}: 0x1e5-0x1e6 (1)
0x1e0|               00                              |     .          |                  n: 0 (valid) 0x1e5-0x1e6 (1)
     |                                               |                |                  x[0:0]: 0x1e6-0x1e6 (0)
     |                                               |                |                e[0:4]: 0x1e6-0x1ee (8)
     |                                               |                |                  [0]{}: in 0x1e6-0x1e8 (2)
0x1e0|                  20                           |                |                    opcode: "local.get" (0x20) 0x1e6-0x1e7 (1)
0x1e0|                     00                        |       .        |                    x: 0 (valid) 0x1e7-0x1e8 (1)
     |                                               |                |                  [1]{}: in 0x1e8-0x1ea (2)
0x1e0|                        20                     |                |                    opcode: "local.get" (0x20) 0x1e8-0x1e9 (1)
0x1e0|                           01                  |         .      |                    x: 1 (valid) 0x1e9-0x1ea (1)
     |                                               |                |                  [2]{}: in 0x1ea-0x1ed (3)
0x1e0|                              fd               |          .     |                    opcode: "vector" (0xfd) 0x1ea-0x1eb (1)
0x1e0|                                 ad 01         |           ..   |                    v_opcode: "i32x4.shr_u" (173) 0x1eb-0x1ed (2)
     |                                               |                |                  [3]{}: in 0x1ed-0x1ee (1)
0x1e0|                                       0b      |             .  |                    opcode: "end" (0xb) 0x1ed-0x1ee (1)
     |                                               |                |            [9]{}: code 0x1ee-0x1f8 (10)
0x1e0|                                          09   |              . |              size: 9 (valid) 0x1ee-0x1ef (1)
     |                                               |                |              code{}: 0x1ef-0x1f8 (9)
     |                                               |                |                t{}: 0x1ef-0x1f0 (1)
0x1e0|                                             00|               .|                  n: 0 (valid) 0x1ef-0x1f0 (1)
     |                                               |                |                  x[0:0]: 0x1f0-0x1f0 (0)
     |                                               |                |                e[0:4]: 0x1f0-0x1f8 (8)
     |                                               |                |                  [0]{}: in 0x1f0-0x1f2 (2)
0x1f0|20                                             |                |                    opcode: "local.get" (0x20) 0x1f0-0x1f1 (1)
0x1f0|   00                                          | .              |                    x: 0 (valid) 0x1f1-0x1f2 (1)
     |                                               |                |                  [1]{}: in 0x1f2-0x1f4 (2)
0x1f0|      20                                       |                |                    opcode: "local.get" (0x20) 0x1f2-0x1f3 (1)
0x1f0|         01                                    |   .            |                    x: 1 (valid) 0x1f3-0x1f4 (1)
     |                                               |                |                  [2]{}: in 0x1f4-0x1f7 (3)
0x1f0|            fd                                 |    .           |                    opcode: "vector" (0xfd) 0x1f4-0x1f5 (1)
0x1f0|               cb 01                           |     ..         |                    v_opcode: "i64x2.shl" (203) 0x1f5-0x1f7 (2)
     |                                               |                |                  [3]{}: in 0x1f7-0x1f8 (1)
0x1f0|                     0b                        |       .        |                    opcode: "end" (0xb) 0x1f7-0x1f8 (1)
     |                                               |                |            [10]{}: code 0x1f8-0x202 (10)
0x1f0|                        09                     |        .       |              size: 9 (valid) 0x1f8-0x1f9 (1)
     |                                               |                |              code{}: 0x1f9-0x202 (9)
     |                                               |                |                t{}: 0x1f9-0x1fa (1)
0x1f0|                           00                  |         .      |                  n: 0 (valid) 0x1f9-0x1fa (1)
     |                                               |                |                  x[0:0]: 0x1fa-0x1fa (0)
     |                                               |                |                e[0:4]: 0x1fa-0x202 (8)
     |                                               |                |                  [0]{}: in 0x1fa-0x1fc (2)
0x1f0|                              20               |                |                    opcode: "local.get" (0x20) 0x1fa-0x1fb (1)
0x1f0|                                 00            |           .    |                    x: 0 (valid) 0x1fb-0x1fc (1)
     |                                               |                |                  [1]{}: in 0x1fc-0x1fe (2)
0x1f0|                                    20         |                |                    opcode: "local.get" (0x20) 0x1fc-0x1fd (1)
0x1f0|                                       01      |             .  |                    x: 1 (valid) 0x1fd-0x1fe (1)
     |                                               |                |                  [2]{}: in 0x1fe-0x201 (3)
0x1f0|                                          fd   |              . |                    opcode: "vector" (0xfd) 0x1fe-0x1ff (1)
0x1f0|                                             cc|               .|                    v_opcode: "i64x2.shr_s" (204) 0x1ff-0x201 (2)
0x200|01                                             |.               |
     |                                               |                |                  [3]{}: in 0x201-0x202 (1)
0x200|   0b                                          | .              |                    opcode: "end" (0xb) 0x201-0x202 (1)
     |                                               |                |            [11]{}: code 0x202-0x20c (10)
0x200|      09                                       |  .             |              size: 9 (valid) 0x202-0x203 (1)
     |                                               |                |              code{}: 0x203-0x20c (9)
     |                                               |                |                t{}: 0x203-0x204 (1)
0x200|         00                                    |   .            |                  n: 0 (valid) 0x203-0x204 (1)
     |                                               |                |                  x[0:0]: 0x204-0x204 (0)
     |                                               |                |                e[0:4]: 0x204-0x20c (8)
     |                                               |                |                  [0]{}: in 0x204-0x206 (2)
0x200|            20                                 |                |                    opcode: "local.get" (0x20) 0x204-0x205 (1)
0x200|               00                              |     .          |                    x: 0 (valid) 0x205-0x206 (1)
     |                                               |                |                  [1]{}: in 0x206-0x208 (2)
0x200|                  20                           |                |                    opcode: "local.get" (0x20) 0x206-0x207 (1)
0x200|                     01                        |       .        |                    x: 1 (valid) 0x207-0x208 (1)
     |                                               |                |                  [2]{}: in 0x208-0x20b (3)
0x200|                        fd                     |        .       |                    opcode: "vector" (0xfd) 0x208-0x209 (1)
0x200|                           cd 01               |         ..     |                    v_opcode: "i64x2.shr_u" (205) 0x209-0x20b (2)
     |                                               |                |                  [3]{}: in 0x20b-0x20c (1)
0x200|                                 0b            |           .    |                    opcode: "end" (0xb) 0x20b-0x20c (1)
     |                                               |                |            [12]{}: code 0x20c-0x215 (9)
0x200|                                    08         |            .   |              size: 8 (valid) 0x20c-0x20d (1)
     |                                               |                |              code{}: 0x20d-0x215 (8)
     |                                               |                |                t{}: 0x20d-0x20e (1)
0x200|                                       00      |             .  |                  n: 0 (valid) 0x20d-0x20e (1)
     |                                               |                |                  x[0:0]: 0x20e-0x20e (0)
     |                                               |                |                e[0:4]: 0x20e-0x215 (7)
     |                                               |                |                  [0]{}: in 0x20e-0x210 (2)
0x200|                                          20   |                |                    opcode: "local.get" (0x20) 0x20e-0x20f (1)
0x200|                                             00|               .|                    x: 0 (valid) 0x20f-0x210 (1)
     |                                               |                |                  [1]{}: in 0x210-0x212 (2)
0x210|41                                             |A               |                    opcode: "i32.const" (0x41) 0x210-0x211 (1)
0x210|   01                                          | .              |                    n: 1 (valid) 0x211-0x212 (1)
     |                                               |                |                  [2]{}: in 0x212-0x214 (2)
0x210|      fd                                       |  .             |                    opcode: "vector" (0xfd) 0x212-0x213 (1)
0x210|         6b                                    |   k            |                    v_opcode: "i8x16.shl" (107) 0x213-0x214 (1)
     |                                               |                |                  [3]{}: in 0x214-0x215 (1)
0x210|            0b                                 |    .           |                    opcode: "end" (0xb) 0x214-0x215 (1)
     |                                               |                |            [13]{}: code 0x215-0x21e (9)
0x210|               08                              |     .          |              size: 8 (valid) 0x215-0x216 (1)
     |                                               |                |              code{}: 0x216-0x21e (8)
     |                                               |                |                t{}: 0x216-0x217 (1)
0x210|                  00                           |      .         |                  n: 0 (valid) 0x216-0x217 (1)
     |                                               |                |                  x[0:0]: 0x217-0x217 (0)
     |                                               |                |                e[0:4]: 0x217-0x21e (7)
     |                                               |                |                  [0]{}: in 0x217-0x219 (2)
0x210|                     20                        |                |                    opcode: "local.get" (0x20) 0x217-0x218 (1)
0x210|                        00                     |        .       |                    x: 0 (valid) 0x218-0x219 (1)
     |                                               |                |                  [1]{}: in 0x219-0x21b (2)
0x210|                           41                  |         A      |                    opcode: "i32.const" (0x41) 0x219-0x21a (1)
0x210|                              08               |          .     |                    n: 8 (valid) 0x21a-0x21b (1)
     |                                               |                |                  [2]{}: in 0x21b-0x21d (2)
0x210|                                 fd            |           .    |                    opcode: "vector" (0xfd) 0x21b-0x21c (1)
0x210|                                    6d         |            m   |                    v_opcode: "i8x16.shr_u" (109) 0x21c-0x21d (1)
     |                                               |                |                  [3]{}: in 0x21d-0x21e (1)
0x210|                                       0b      |             .  |                    opcode: "end" (0xb) 0x21d-0x21e (1)
     |                                               |                |            [14]{}: code 0x21e-0x227 (9)
0x210|                                          08   |              . |              size: 8 (valid) 0x21e-0x21f (1)
     |                                               |                |              code{}: 0x21f-0x227 (8)
     |                                               |                |                t{}: 0x21f-0x220 (1)
0x210|                                             00|               .|                  n: 0 (valid) 0x21f-0x220 (1)
     |                                               |                |                  x[0:0]: 0x220-0x220 (0)
     |                                               |                |                e[0:4]: 0x220-0x227 (7)
     |                                               |                |                  [0]{}: in 0x220-0x222 (2)
0x220|20                                             |                |                    opcode: "local.get" (0x20) 0x220-0x221 (1)
0x220|   00                                          | .              |                    x: 0 (valid) 0x221-0x222 (1)
     |                                               |                |                  [1]{}: in 0x222-0x224 (2)
0x220|      41                                       |  A             |                    opcode: "i32.const" (0x41) 0x222-0x223 (1)
0x220|         09                                    |   .            |                    n: 9 (valid) 0x223-0x224 (1)
     |                                               |                |                  [2]{}: in 0x224-0x226 (2)
0x220|            fd                                 |    .           |                    opcode: "vector" (0xfd) 0x224-0x225 (1)
0x220|               6c                              |     l          |                    v_opcode: "i8x16.shr_s" (108) 0x225-0x226 (1)
     |                                               |                |                  [3]{}: in 0x226-0x227 (1)
0x220|                  0b                           |      .         |                    opcode: "end" (0xb) 0x226-0x227 (1)
     |                                               |                |            [15]{}: code 0x227-0x231 (10)
0x220|                     09                        |       .        |              size: 9 (valid) 0x227-0x228 (1)
     |                                               |                |              code{}: 0x228-0x231 (9)
     |                                               |                |                t{}: 0x228-0x229 (1)
0x220|                        00                     |        .       |                  n: 0 (valid) 0x228-0x229 (1)
     |                                               |                |                  x[0:0]: 0x229-0x229 (0)
     |                                               |                |                e[0:4]: 0x229-0x231 (8)
     |                                               |                |                  [0]{}: in 0x229-0x22b (2)
0x220|                           20                  |                |                    opcode: "local.get" (0x20) 0x229-0x22a (1)
0x220|                              00               |          .     |                    x: 0 (valid) 0x22a-0x22b (1)
     |                                               |                |                  [1]{}: in 0x22b-0x22d (2)
0x220|                                 41            |           A    |                    opcode: "i32.const" (0x41) 0x22b-0x22c (1)
0x220|                                    01         |            .   |                    n: 1 (valid) 0x22c-0x22d (1)
     |                                               |                |                  [2]{}: in 0x22d-0x230 (3)
0x220|                                       fd      |             .  |                    opcode: "vector" (0xfd) 0x22d-0x22e (1)
0x220|                                          8b 01|              ..|                    v_opcode: "i16x8.shl" (139) 0x22e-0x230 (2)
     |                                               |                |                  [3]{}: in 0x230-0x231 (1)
0x230|0b                                             |.               |                    opcode: "end" (0xb) 0x230-0x231 (1)
     |                                               |                |            [16]{}: code 0x231-0x23b (10)
0x230|   09                                          | .              |              size: 9 (valid) 0x231-0x232 (1)
     |                                               |                |              code{}: 0x232-0x23b (9)
     |                                               |                |                t{}: 0x232-0x233 (1)
0x230|      00                                       |  .             |                  n: 0 (valid) 0x232-0x233 (1)
     |                                               |                |                  x[0:0]: 0x233-0x233 (0)
     |                                               |                |                e[0:4]: 0x233-0x23b (8)
     |                                               |                |                  [0]{}: in 0x233-0x235 (2)
0x230|         20                                    |                |                    opcode: "local.get" (0x20) 0x233-0x234 (1)
0x230|            00                                 |    .           |                    x: 0 (valid) 0x234-0x235 (1)
     |                                               |                |                  [1]{}: in 0x235-0x237 (2)
0x230|               41                              |     A          |                    opcode: "i32.const" (0x41) 0x235-0x236 (1)
0x230|                  10                           |      .         |                    n: 16 (valid) 0x236-0x237 (1)
     |                                               |                |                  [2]{}: in 0x237-0x23a (3)
0x230|                     fd                        |       .        |                    opcode: "vector" (0xfd) 0x237-0x238 (1)
0x230|                        8d 01                  |        ..      |                    v_opcode: "i16x8.shr_u" (141) 0x238-0x23a (2)
     |                                               |                |                  [3]{}: in 0x23a-0x23b (1)
0x230|                              0b               |          .     |                    opcode: "end" (0xb) 0x23a-0x23b (1)
     |                                               |                |            [17]{}: code 0x23b-0x245 (10)
0x230|                                 09            |           .    |              size: 9 (valid) 0x23b-0x23c (1)
     |                                               |                |              code{}: 0x23c-0x245 (9)
     |                                               |                |                t{}: 0x23c-0x23d (1)
0x230|                                    00         |            .   |                  n: 0 (valid) 0x23c-0x23d (1)
     |                                               |                |                  x[0:0]: 0x23d-0x23d (0)
     |                                               |                |                e[0:4]: 0x23d-0x245 (8)
     |                                               |                |                  [0]{}: in 0x23d-0x23f (2)
0x230|                                       20      |                |                    opcode: "local.get" (0x20) 0x23d-0x23e (1)
0x230|                                          00   |              . |                    x: 0 (valid) 0x23e-0x23f (1)
     |                                               |                |                  [1]{}: in 0x23f-0x241 (2)
0x230|                                             41|               A|                    opcode: "i32.const" (0x41) 0x23f-0x240 (1)
0x240|11                                             |.               |                    n: 17 (valid) 0x240-0x241 (1)
     |                                               |                |                  [2]{}: in 0x241-0x244 (3)
0x240|   fd                                          | .              |                    opcode: "vector" (0xfd) 0x241-0x242 (1)
0x240|      8c 01                                    |  ..            |                    v_opcode: "i16x8.shr_s" (140) 0x242-0x244 (2)
     |                                               |                |                  [3]{}: in 0x244-0x245 (1)
0x240|            0b                                 |    .           |                    opcode: "end" (0xb) 0x244-0x245 (1)
     |                                               |                |            [18]{}: code 0x245-0x24f (10)
0x240|               09                              |     .          |              size: 9 (valid) 0x245-0x246 (1)
     |                                               |                |              code{}: 0x246-0x24f (9)
     |                                               |                |                t{}: 0x246-0x247 (1)
0x240|                  00                           |      .         |                  n: 0 (valid) 0x246-0x247 (1)
     |                                               |                |                  x[0:0]: 0x247-0x247 (0)
     |                                               |                |                e[0:4]: 0x247-0x24f (8)
     |                                               |                |                  [0]{}: in 0x247-0x249 (2)
0x240|                     20                        |                |                    opcode: "local.get" (0x20) 0x247-0x248 (1)
0x240|                        00                     |        .       |                    x: 0 (valid) 0x248-0x249 (1)
     |                                               |                |                  [1]{}: in 0x249-0x24b (2)
0x240|                           41                  |         A      |                    opcode: "i32.const" (0x41) 0x249-0x24a (1)
0x240|                              01               |          .     |                    n: 1 (valid) 0x24a-0x24b (1)
     |                                               |                |                  [2]{}: in 0x24b-0x24e (3)
0x240|                                 fd            |           .    |                    opcode: "vector" (0xfd) 0x24b-0x24c (1)
0x240|                                    ab 01      |            ..  |                    v_opcode: "i32x4.shl" (171) 0x24c-0x24e (2)
     |                                               |                |                  [3]{}: in 0x24e-0x24f (1)
0x240|                                          0b   |              . |                    opcode: "end" (0xb) 0x24e-0x24f (1)
     |                                               |                |            [19]{}: code 0x24f-0x259 (10)
0x240|                                             09|               .|              size: 9 (valid) 0x24f-0x250 (1)
     |                                               |                |              code{}: 0x250-0x259 (9)
     |                                               |                |                t{}: 0x250-0x251 (1)
0x250|00                                             |.               |                  n: 0 (valid) 0x250-0x251 (1)
     |                                               |                |                  x[0:0]: 0x251-0x251 (0)
     |                                               |                |                e[0:4]: 0x251-0x259 (8)
     |                                               |                |                  [0]{}: in 0x251-0x253 (2)
0x250|   20                                          |                |                    opcode: "local.get" (0x20) 0x251-0x252 (1)
0x250|      00                                       |  .             |                    x: 0 (valid) 0x252-0x253 (1)
     |                                               |                |                  [1]{}: in 0x253-0x255 (2)
0x250|         41                                    |   A            |                    opcode: "i32.const" (0x41) 0x253-0x254 (1)
0x250|            20                                 |                |                    n: 32 (valid) 0x254-0x255 (1)
     |                                               |                |                  [2]{}: in 0x255-0x258 (3)
0x250|               fd                              |     .          |                    opcode: "vector" (0xfd) 0x255-0x256 (1)
0x250|                  ad 01                        |      ..        |                    v_opcode: "i32x4.shr_u" (173) 0x256-0x258 (2)
     |                                               |                |                  [3]{}: in 0x258-0x259 (1)
0x250|                        0b                     |        .       |                    opcode: "end" (0xb) 0x258-0x259 (1)
     |                                               |                |            [20]{}: code 0x259-0x263 (10)
0x250|                           09                  |         .      |              size: 9 (valid) 0x259-0x25a (1)
     |                                               |                |              code{}: 0x25a-0x263 (9)
     |                                               |                |                t{}: 0x25a-0x25b (1)
0x250|                              00               |          .     |                  n: 0 (valid) 0x25a-0x25b (1)
     |                                               |                |                  x[0:0]: 0x25b-0x25b (0)
     |                                               |                |                e[0:4]: 0x25b-0x263 (8)
     |                                               |                |                  [0]{}: in 0x25b-0x25d (2)
0x250|                                 20            |                |                    opcode: "local.get" (0x20) 0x25b-0x25c (1)
0x250|                                    00         |            .   |                    x: 0 (valid) 0x25c-0x25d (1)
     |                                               |                |                  [1]{}: in 0x25d-0x25f (2)
0x250|                                       41      |             A  |                    opcode: "i32.const" (0x41) 0x25d-0x25e (1)
0x250|                                          21   |              ! |                    n: 33 (valid) 0x25e-0x25f (1)
     |                                               |                |                  [2]{}: in 0x25f-0x262 (3)
0x250|                                             fd|               .|                    opcode: "vector" (0xfd) 0x25f-0x260 (1)
0x260|ac 01                                          |..              |                    v_opcode: "i32x4.shr_s" (172) 0x260-0x262 (2)
     |                                               |                |                  [3]{}: in 0x262-0x263 (1)
0x260|      0b                                       |  .             |                    opcode: "end" (0xb) 0x262-0x263 (1)
     |                                               |                |            [21]{}: code 0x263-0x26d (10)
0x260|         09                                    |   .            |              size: 9 (valid) 0x263-0x264 (1)
     |                                               |                |              code{}: 0x264-0x26d (9)
     |                                               |                |                t{}: 0x264-0x265 (1)
0x260|            00                                 |    .           |                  n: 0 (valid) 0x264-0x265 (1)
     |                                               |                |                  x[0:0]: 0x265-0x265 (0)
     |                                               |                |                e[0:4]: 0x265-0x26d (8)
     |                                               |                |                  [0]{}: in 0x265-0x267 (2)
0x260|               20                              |                |                    opcode: "local.get" (0x20) 0x265-0x266 (1)
0x260|                  00                           |      .         |                    x: 0 (valid) 0x266-0x267 (1)
     |                                               |                |                  [1]{}: in 0x267-0x269 (2)
0x260|                     41                        |       A        |                    opcode: "i32.const" (0x41) 0x267-0x268 (1)
0x260|                        01                     |        .       |                    n: 1 (valid) 0x268-0x269 (1)
     |                                               |                |                  [2]{}: in 0x269-0x26c (3)
0x260|                           fd                  |         .      |                    opcode: "vector" (0xfd) 0x269-0x26a (1)
0x260|                              cb 01            |          ..    |                    v_opcode: "i64x2.shl" (203) 0x26a-0x26c (2)
     |                                               |                |                  [3]{}: in 0x26c-0x26d (1)
0x260|                                    0b         |            .   |                    opcode: "end" (0xb) 0x26c-0x26d (1)
     |                                               |                |            [22]{}: code 0x26d-0x278 (11)
0x260|                                       0a      |             .  |              size: 10 (valid) 0x26d-0x26e (1)
     |                                               |                |              code{}: 0x26e-0x278 (10)
     |                                               |                |                t{}: 0x26e-0x26f (1)
0x260|                                          00   |              . |                  n: 0 (valid) 0x26e-0x26f (1)
     |                                               |                |                  x[0:0]: 0x26f-0x26f (0)
     |                                               |                |                e[0:4]: 0x26f-0x278 (9)
     |                                               |                |                  [0]{}: in 0x26f-0x271 (2)
0x260|                                             20|                |                    opcode: "local.get" (0x20) 0x26f-0x270 (1)
0x270|00                                             |.               |                    x: 0 (valid) 0x270-0x271 (1)
     |                                               |                |                  [1]{}: in 0x271-0x274 (3)
0x270|   41                                          | A              |                    opcode: "i32.const" (0x41) 0x271-0x272 (1)
0x270|      c0 00                                    |  ..            |                    n: 64 (valid) 0x272-0x274 (2)
     |                                               |                |                  [2]{}: in 0x274-0x277 (3)
0x270|            fd                                 |    .           |                    opcode: "vector" (0xfd) 0x274-0x275 (1)
0x270|               cd 01                           |     ..         |                    v_opcode: "i64x2.shr_u" (205) 0x275-0x277 (2)
     |                                               |                |                  [3]{}: in 0x277-0x278 (1)
0x270|                     0b                        |       .        |                    opcode: "end" (0xb) 0x277-0x278 (1)
     |                                               |                |            [23]{}: code 0x278-0x283 (11)
0x270|                        0a                     |        .       |              size: 10 (valid) 0x278-0x279 (1)
     |                                               |                |              code{}: 0x279-0x283 (10)
     |                                               |                |                t{}: 0x279-0x27a (1)
0x270|                           00                  |         .      |                  n: 0 (valid) 0x279-0x27a (1)
     |                                               |                |                  x[0:0]: 0x27a-0x27a (0)
     |                                               |                |                e[0:4]: 0x27a-0x283 (9)
     |                                               |                |                  [0]{}: in 0x27a-0x27c (2)
0x270|                              20               |                |                    opcode: "local.get" (0x20) 0x27a-0x27b (1)
0x270|                                 00            |           .    |                    x: 0 (valid) 0x27b-0x27c (1)
     |                                               |                |                  [1]{}: in 0x27c-0x27f (3)
0x270|                                    41         |            A   |                    opcode: "i32.const" (0x41) 0x27c-0x27d (1)
0x270|                                       c1 00   |             .. |                    n: 65 (valid) 0x27d-0x27f (2)
     |                                               |                |                  [2]{}: in 0x27f-0x282 (3)
0x270|                                             fd|               .|                    opcode: "vector" (0xfd) 0x27f-0x280 (1)
0x280|cc 01                                          |..              |                    v_opcode: "i64x2.shr_s" (204) 0x280-0x282 (2)
     |                                               |                |                  [3]{}: in 0x282-0x283 (1)
0x280|      0b|                                      |  .|            |                    opcode: "end" (0xb) 0x282-0x283 (1)
