$ fq -d wasm dv simd_bitwise-0.wasm
    |00 01 02 03 04 05 06 07 08 09 0a 0b 0c 0d 0e 0f|0123456789abcdef|.{}: simd_bitwise-0.wasm (wasm) 0x0-0x8e (142)
0x00|00 61 73 6d                                    |.asm            |  magic: raw bits (valid) 0x0-0x4 (4)
0x00|            01 00 00 00                        |    ....        |  version: 1 0x4-0x8 (4)
    |                                               |                |  sections[0:4]: 0x8-0x8e (134)
    |                                               |                |    [0]{}: section 0x8-0x1d (21)
0x00|                        01                     |        .       |      id: "type_section" (1) 0x8-0x9 (1)
0x00|                           13                  |         .      |      size: 19 (valid) 0x9-0xa (1)
    |                                               |                |      content{}: 0xa-0x1d (19)
    |                                               |                |        ft{}: 0xa-0x1d (19)
0x00|                              03               |          .     |          n: 3 (valid) 0xa-0xb (1)
    |                                               |                |          x[0:3]: 0xb-0x1d (18)
    |                                               |                |            [0]{}: ft 0xb-0x10 (5)
0x00|                                 60            |           `    |              tag: 0x60 (valid) 0xb-0xc (1)
    |                                               |                |              rt1{}: 0xc-0xe (2)
0x00|                                    01         |            .   |                n: 1 (valid) 0xc-0xd (1)
    |                                               |                |                x[0:1]: 0xd-0xe (1)
0x00|                                       7b      |             {  |                  [0]: "v128" (0x7b) t 0xd-0xe (1)
    |                                               |                |              rt2{}: 0xe-0x10 (2)
0x00|                                          01   |              . |                n: 1 (valid) 0xe-0xf (1)
    |                                               |                |                x[0:1]: 0xf-0x10 (1)
0x00|                                             7b|               {|                  [0]: "v128" (0x7b) t 0xf-0x10 (1)
    |                                               |                |            [1]{}: ft 0x10-0x16 (6)
0x10|60                                             |`               |              tag: 0x60 (valid) 0x10-0x11 (1)
    |                                               |                |              rt1{}: 0x11-0x14 (3)
0x10|   02                                          | .              |                n: 2 (valid) 0x11-0x12 (1)
    |                                               |                |                x[0:2]: 0x12-0x14 (2)
0x10|      7b                                       |  {             |                  [0]: "v128" (0x7b) t 0x12-0x13 (1)
0x10|         7b                                    |   {            |                  [1]: "v128" (0x7b) t 0x13-0x14 (1)
    |                                               |                |              rt2{}: 0x14-0x16 (2)
0x10|            01                                 |    .           |                n: 1 (valid) 0x14-0x15 (1)
    |                                               |                |                x[0:1]: 0x15-0x16 (1)
0x10|               7b                              |     {          |                  [0]: "v128" (0x7b) t 0x15-0x16 (1)
    |                                               |                |            [2]{}: ft 0x16-0x1d (7)
0x10|                  60                           |      `         |              tag: 0x60 (valid) 0x16-0x17 (1)
    |                                               |                |              rt1{}: 0x17-0x1b (4)
0x10|                     03                        |       .        |                n: 3 (valid) 0x17-0x18 (1)
    |                                               |                |                x[0:3]: 0x18-0x1b (3)
0x10|                        7b                     |        {       |                  [0]: "v128" (0x7b) t 0x18-0x19 (1)
0x10|                           7b                  |         {      |                  [1]: "v128" (0x7b) t 0x19-0x1a (1)
0x10|                              7b               |          {     |                  [2]: "v128" (0x7b) t 0x1a-0x1b (1)
    |                                               |                |              rt2{}: 0x1b-0x1d (2)
0x10|                                 01            |           .    |                n: 1 (valid) 0x1b-0x1c (1)
    |                                               |                |                x[0:1]: 0x1c-0x1d (1)
0x10|                                    7b         |            {   |                  [0]: "v128" (0x7b) t 0x1c-0x1d (1)
    |                                               |                |    [1]{}: section 0x1d-0x26 (9)
0x10|                                       03      |             .  |      id: "function_section" (3) 0x1d-0x1e (1)
0x10|                                          07   |              . |      size: 7 (valid) 0x1e-0x1f (1)
    |                                               |                |      content{}: 0x1f-0x26 (7)
    |                                               |                |        x{}: 0x1f-0x26 (7)
0x10|                                             06|               .|          n: 6 (valid) 0x1f-0x20 (1)
    |                                               |                |          x[0:6]: 0x20-0x26 (6)
0x20|00                                             |.               |            [0]: 0 x (valid) 0x20-0x21 (1)
0x20|   01                                          | .              |            [1]: 1 x (valid) 0x21-0x22 (1)
0x20|      01                                       |  .             |            [2]: 1 x (valid) 0x22-0x23 (1)
0x20|         01                                    |   .            |            [3]: 1 x (valid) 0x23-0x24 (1)
0x20|            02                                 |    .           |            [4]: 2 x (valid) 0x24-0x25 (1)
0x20|               01                              |     .          |            [5]: 1 x (valid) 0x25-0x26 (1)
    |                                               |                |    [2]{}: section 0x26-0x55 (47)
0x20|                  07                           |      .         |      id: "export_section" (7) 0x26-0x27 (1)
0x20|                     2d                        |       -        |      size: 45 (valid) 0x27-0x28 (1)
    |                                               |                |      content{}: 0x28-0x55 (45)
    |                                               |                |        ex{}: 0x28-0x55 (45)
0x20|                        06                     |        .       |          n: 6 (valid) 0x28-0x29 (1)
    |                                               |                |          x[0:6]: 0x29-0x55 (44)
    |                                               |                |            [0]{}: ex 0x29-0x2f (6)
    |                                               |                |              nm{}: 0x29-0x2d (4)
0x20|                           03                  |         .      |                n: 3 (valid) 0x29-0x2a (1)
0x20|                              6e 6f 74         |          not   |                b: "not" 0x2a-0x2d (3)
    |                                               |                |              d{}: 0x2d-0x2f (2)
0x20|                                       00      |             .  |                tag: "funcidx" (0x0) 0x2d-0x2e (1)
0x20|                                          00   |              . |                x: 0 (valid) 0x2e-0x2f (1)
    |                                               |                |            [1]{}: ex 0x2f-0x35 (6)
    |                                               |                |              nm{}: 0x2f-0x33 (4)
0x20|                                             03|               .|                n: 3 (valid) 0x2f-0x30 (1)
0x30|61 6e 64                                       |and             |                b: "and" 0x30-0x33 (3)
    |                                               |                |              d{}: 0x33-0x35 (2)
0x30|         00                                    |   .            |                tag: "funcidx" (0x0) 0x33-0x34 (1)
0x30|            01                                 |    .           |                x: 1 (valid) 0x34-0x35 (1)
    |                                               |                |            [2]{}: ex 0x35-0x3a (5)
    |                                               |                |              nm{}: 0x35-0x38 (3)
0x30|               02                              |     .          |                n: 2 (valid) 0x35-0x36 (1)
0x30|                  6f 72                        |      or        |                b: "or" 0x36-0x38 (2)
    |                                               |                |              d{}: 0x38-0x3a (2)
0x30|                        00                     |        .       |                tag: "funcidx" (0x0) 0x38-0x39 (1)
0x30|                           02                  |         .      |                x: 2 (valid) 0x39-0x3a (1)
    |                                               |                |            [3]{}: ex 0x3a-0x40 (6)
    |                                               |                |              nm{}: 0x3a-0x3e (4)
0x30|                              03               |          .     |                n: 3 (valid) 0x3a-0x3b (1)
0x30|                                 78 6f 72      |           xor  |                b: "xor" 0x3b-0x3e (3)
    |                                               |                |              d{}: 0x3e-0x40 (2)
0x30|                                          00   |              . |                tag: "funcidx" (0x0) 0x3e-0x3f (1)
0x30|                                             03|               .|                x: 3 (valid) 0x3f-0x40 (1)
    |                                               |                |            [4]{}: ex 0x40-0x4c (12)
    |                                               |                |              nm{}: 0x40-0x4a (10)
0x40|09                                             |.               |                n: 9 (valid) 0x40-0x41 (1)
0x40|   62 69 74 73 65 6c 65 63 74                  | bitselect      |                b: "bitselect" 0x41-0x4a (9)
    |                                               |                |              d{}: 0x4a-0x4c (2)
0x40|                              00               |          .     |                tag: "funcidx" (0x0) 0x4a-0x4b (1)
0x40|                                 04            |           .    |                x: 4 (valid) 0x4b-0x4c (1)
    |                                               |                |            [5]{}: ex 0x4c-0x55 (9)
    |                                               |                |              nm{}: 0x4c-0x53 (7)
0x40|                                    06         |            .   |                n: 6 (valid) 0x4c-0x4d (1)
0x40|                                       61 6e 64|             and|                b: "andnot" 0x4d-0x53 (6)
0x50|6e 6f 74                                       |not             |
    |                                               |                |              d{}: 0x53-0x55 (2)
0x50|         00                                    |   .            |                tag: "funcidx" (0x0) 0x53-0x54 (1)
0x50|            05                                 |    .           |                x: 5 (valid) 0x54-0x55 (1)
    |                                               |                |    [3]{}: section 0x55-0x8e (57)
0x50|               0a                              |     .          |      id: "code_section" (10) 0x55-0x56 (1)
0x50|                  37                           |      7         |      size: 55 (valid) 0x56-0x57 (1)
    |                                               |                |      content{}: 0x57-0x8e (55)
    |                                               |                |        code{}: 0x57-0x8e (55)
0x50|                     06                        |       .        |          n: 6 (valid) 0x57-0x58 (1)
    |                                               |                |          x[0:6]: 0x58-0x8e (54)
    |                                               |                |            [0]{}: code 0x58-0x5f (7)
0x50|                        06                     |        .       |              size: 6 (valid) 0x58-0x59 (1)
    |                                               |                |              code{}: 0x59-0x5f (6)
    |                                               |                |                t{}: 0x59-0x5a (1)
0x50|                           00                  |         .      |                  n: 0 (valid) 0x59-0x5a (1)
    |                                               |                |                  x[0:0]: 0x5a-0x5a (0)
    |                                               |                |                e[0:3]: 0x5a-0x5f (5)
    |                                               |                |                  [0]{}: in 0x5a-0x5c (2)
0x50|                              20               |                |                    opcode: "local.get" (0x20) 0x5a-0x5b (1)
0x50|                                 00            |           .    |                    x: 0 (valid) 0x5b-0x5c (1)
    |                                               |                |                  [1]{}: in 0x5c-0x5e (2)
0x50|                                    fd         |            .   |                    opcode: "vector" (0xfd) 0x5c-0x5d (1)
0x50|                                       4d      |             M  |                    v_opcode: "v128.not" (77) 0x5d-0x5e (1)
    |                                               |                |                  [2]{}: in 0x5e-0x5f (1)
0x50|                                          0b   |              . |                    opcode: "end" (0xb) 0x5e-0x5f (1)
    |                                               |                |            [1]{}: code 0x5f-0x68 (9)
0x50|                                             08|               .|              size: 8 (valid) 0x5f-0x60 (1)
    |                                               |                |              code{}: 0x60-0x68 (8)
    |                                               |                |                t{}: 0x60-0x61 (1)
0x60|00                                             |.               |                  n: 0 (valid) 0x60-0x61 (1)
    |                                               |                |                  x[0:0]: 0x61-0x61 (0)
    |                                               |                |                e[0:4]: 0x61-0x68 (7)
    |                                               |                |                  [0]{}: in 0x61-0x63 (2)
0x60|   20                                          |                |                    opcode: "local.get" (0x20) 0x61-0x62 (1)
0x60|      00                                       |  .             |                    x: 0 (valid) 0x62-0x63 (1)
    |                                               |                |                  [1]{}: in 0x63-0x65 (2)
0x60|         20                                    |                |                    opcode: "local.get" (0x20) 0x63-0x64 (1)
0x60|            01                                 |    .           |                    x: 1 (valid) 0x64-0x65 (1)
    |                                               |                |                  [2]{}: in 0x65-0x67 (2)
0x60|               fd                              |     .          |                    opcode: "vector" (0xfd) 0x65-0x66 (1)
0x60|                  4e                           |      N         |                    v_opcode: "v128.and" (78) 0x66-0x67 (1)
    |                                               |                |                  [3]{}: in 0x67-0x68 (1)
0x60|                     0b                        |       .        |                    opcode: "end" (0xb) 0x67-0x68 (1)
    |                                               |                |            [2]{}: code 0x68-0x71 (9)
0x60|                        08                     |        .       |              size: 8 (valid) 0x68-0x69 (1)
    |                                               |                |              code{}: 0x69-0x71 (8)
    |                                               |                |                t{}: 0x69-0x6a (1)
0x60|                           00                  |         .      |                  n: 0 (valid) 0x69-0x6a (1)
    |                                               |                |                  x[0:0]: 0x6a-0x6a (0)
    |                                               |                |                e[0:4]: 0x6a-0x71 (7)
    |                                               |                |                  [0]{}: in 0x6a-0x6c (2)
0x60|                              20               |                |                    opcode: "local.get" (0x20) 0x6a-0x6b (1)
0x60|                                 00            |           .    |                    x: 0 (valid) 0x6b-0x6c (1)
    |                                               |                |                  [1]{}: in 0x6c-0x6e (2)
0x60|                                    20         |                |                    opcode: "local.get" (0x20) 0x6c-0x6d (1)
0x60|                                       01      |             .  |                    x: 1 (valid) 0x6d-0x6e (1)
    |                                               |                |                  [2]{}: in 0x6e-0x70 (2)
0x60|                                          fd   |              . |                    opcode: "vector" (0xfd) 0x6e-0x6f (1)
0x60|                                             50|               P|                    v_opcode: "v128.or" (80) 0x6f-0x70 (1)
    |                                               |                |                  [3]{}: in 0x70-0x71 (1)
0x70|0b                                             |.               |                    opcode: "end" (0xb) 0x70-0x71 (1)
    |                                               |                |            [3]{}: code 0x71-0x7a (9)
0x70|   08                                          | .              |              size: 8 (valid) 0x71-0x72 (1)
    |                                               |                |              code{}: 0x72-0x7a (8)
    |                                               |                |                t{}: 0x72-0x73 (1)
0x70|      00                                       |  .             |                  n: 0 (valid) 0x72-0x73 (1)
    |                                               |                |                  x[0:0]: 0x73-0x73 (0)
    |                                               |                |                e[0:4]: 0x73-0x7a (7)
    |                                               |                |                  [0]{}: in 0x73-0x75 (2)
0x70|         20                                    |                |                    opcode: "local.get" (0x20) 0x73-0x74 (1)
0x70|            00                                 |    .           |                    x: 0 (valid) 0x74-0x75 (1)
    |                                               |                |                  [1]{}: in 0x75-0x77 (2)
0x70|               20                              |                |                    opcode: "local.get" (0x20) 0x75-0x76 (1)
0x70|                  01                           |      .         |                    x: 1 (valid) 0x76-0x77 (1)
    |                                               |                |                  [2]{}: in 0x77-0x79 (2)
0x70|                     fd                        |       .        |                    opcode: "vector" (0xfd) 0x77-0x78 (1)
0x70|                        51                     |        Q       |                    v_opcode: "v128.xor" (81) 0x78-0x79 (1)
    |                                               |                |                  [3]{}: in 0x79-0x7a (1)
0x70|                           0b                  |         .      |                    opcode: "end" (0xb) 0x79-0x7a (1)
    |                                               |                |            [4]{}: code 0x7a-0x85 (11)
0x70|                              0a               |          .     |              size: 10 (valid) 0x7a-0x7b (1)
    |                                               |                |              code{}: 0x7b-0x85 (10)
    |                                               |                |                t{}: 0x7b-0x7c (1)
0x70|                                 00            |           .    |                  n: 0 (valid) 0x7b-0x7c (1)
    |                                               |                |                  x[0:0]: 0x7c-0x7c (0)
    |                                               |                |                e[0:5]: 0x7c-0x85 (9)
    |                                               |                |                  [0]{}: in 0x7c-0x7e (2)
0x70|                                    20         |                |                    opcode: "local.get" (0x20) 0x7c-0x7d (1)
0x70|                                       00      |             .  |                    x: 0 (valid) 0x7d-0x7e (1)
    |                                               |                |                  [1]{}: in 0x7e-0x80 (2)
0x70|                                          20   |                |                    opcode: "local.get" (0x20) 0x7e-0x7f (1)
0x70|                                             01|               .|                    x: 1 (valid) 0x7f-0x80 (1)
    |                                               |                |                  [2]{}: in 0x80-0x82 (2)
0x80|20                                             |                |                    opcode: "local.get" (0x20) 0x80-0x81 (1)
0x80|   02                                          | .              |                    x: 2 (valid) 0x81-0x82 (1)
    |                                               |                |                  [3]{}: in 0x82-0x84 (2)
0x80|      fd                                       |  .             |                    opcode: "vector" (0xfd) 0x82-0x83 (1)
0x80|         52                                    |   R            |                    v_opcode: "v128.bitselect" (82) 0x83-0x84 (1)
    |                                               |                |                  [4]{}: in 0x84-0x85 (1)
0x80|            0b                                 |    .           |                    opcode: "end" (0xb) 0x84-0x85 (1)
    |                                               |                |            [5]{}: code 0x85-0x8e (9)
0x80|               08                              |     .          |              size: 8 (valid) 0x85-0x86 (1)
    |                                               |                |              code{}: 0x86-0x8e (8)
    |                                               |                |                t{}: 0x86-0x87 (1)
0x80|                  00                           |      .         |                  n: 0 (valid) 0x86-0x87 (1)
    |                                               |                |                  x[0:0]: 0x87-0x87 (0)
    |                                               |                |                e[0:4]: 0x87-0x8e (7)
    |                                               |                |                  [0]{}: in 0x87-0x89 (2)
0x80|                     20                        |                |                    opcode: "local.get" (0x20) 0x87-0x88 (1)
0x80|                        00                     |        .       |                    x: 0 (valid) 0x88-0x89 (1)
    |                                               |                |                  [1]{}: in 0x89-0x8b (2)
0x80|                           20                  |                |                    opcode: "local.get" (0x20) 0x89-0x8a (1)
0x80|                              01               |          .     |                    x: 1 (valid) 0x8a-0x8b (1)
    |                                               |                |                  [2]{}: in 0x8b-0x8d (2)
0x80|                                 fd            |           .    |                    opcode: "vector" (0xfd) 0x8b-0x8c (1)
0x80|                                    4f         |            O   |                    v_opcode: "v128.andnot" (79) 0x8c-0x8d (1)
    |                                               |                |                  [3]{}: in 0x8d-0x8e (1)
0x80|                                       0b|     |             .| |                    opcode: "end" (0xb) 0x8d-0x8e (1)
