$ fq -d wasm dv simd_conversions-0.wasm
     |00 01 02 03 04 05 06 07 08 09 0a 0b 0c 0d 0e 0f|0123456789abcdef|.{}: simd_conversions-0.wasm (wasm) 0x0-0x176 (374)
0x000|00 61 73 6d                                    |.asm            |  magic: raw bits (valid) 0x0-0x4 (4)
0x000|            01 00 00 00                        |    ....        |  version: 1 0x4-0x8 (4)
     |                                               |                |  sections[0:4]: 0x8-0x176 (366)
     |                                               |                |    [0]{}: section 0x8-0x16 (14)
0x000|                        01                     |        .       |      id: "type_section" (1) 0x8-0x9 (1)
0x000|                           0c                  |         .      |      size: 12 (valid) 0x9-0xa (1)
     |                                               |                |      content{}: 0xa-0x16 (12)
     |                                               |                |        ft{}: 0xa-0x16 (12)
0x000|                              02               |          .     |          n: 2 (valid) 0xa-0xb (1)
     |                                               |                |          x[0:2]: 0xb-0x16 (11)
     |                                               |                |            [0]{}: ft 0xb-0x10 (5)
0x000|                                 60            |           `    |              tag: 0x60 (valid) 0xb-0xc (1)
     |                                               |                |              rt1{}: 0xc-0xe (2)
0x000|                                    01         |            .   |                n: 1 (valid) 0xc-0xd (1)
     |                                               |                |                x[0:1]: 0xd-0xe (1)
0x000|                                       7b      |             {  |                  [0]: "v128" (0x7b) t 0xd-0xe (1)
     |                                               |                |              rt2{}: 0xe-0x10 (2)
0x000|                                          01   |              . |                n: 1 (valid) 0xe-0xf (1)
     |                                               |                |                x[0:1]: 0xf-0x10 (1)
0x000|                                             7b|               {|                  [0]: "v128" (0x7b) t 0xf-0x10 (1)
     |                                               |                |            [1]{}: ft 0x10-0x16 (6)
0x010|60                                             |`               |              tag: 0x60 (valid) 0x10-0x11 (1)
     |                                               |                |              rt1{}: 0x11-0x14 (3)
0x010|   02                                          | .              |                n: 2 (valid) 0x11-0x12 (1)
     |                                               |                |                x[0:2]: 0x12-0x14 (2)
0x010|      7b                                       |  {             |                  [0]: "v128" (0x7b) t 0x12-0x13 (1)
0x010|         7b                                    |   {            |                  [1]: "v128" (0x7b) t 0x13-0x14 (1)
     |                                               |                |              rt2{}: 0x14-0x16 (2)
0x010|            01                                 |    .           |                n: 1 (valid) 0x14-0x15 (1)
     |                                               |                |                x[0:1]: 0x15-0x16 (1)
0x010|               7b                              |     {          |                  [0]: "v128" (0x7b) t 0x15-0x16 (1)
     |                                               |                |    [1]{}: section 0x16-0x23 (13)
0x010|                  03                           |      .         |      id: "function_section" (3) 0x16-0x17 (1)
0x010|                     0b                        |       .        |      size: 11 (valid) 0x17-0x18 (1)
     |                                               |                |      content{}: 0x18-0x23 (11)
     |                                               |                |        x{}: 0x18-0x23 (11)
0x010|                        0a                     |        .       |          n: 10 (valid) 0x18-0x19 (1)
     |                                               |                |          x[0:10]: 0x19-0x23 (10)
0x010|                           00                  |         .      |            [0]: 0 x (valid) 0x19-0x1a (1)
0x010|                              00               |          .     |            [1]: 0 x (valid) 0x1a-0x1b (1)
0x010|                                 00            |           .    |            [2]: 0 x (valid) 0x1b-0x1c (1)
0x010|                                    00         |            .   |            [3]: 0 x (valid) 0x1c-0x1d (1)
0x010|                                       01      |             .  |            [4]: 1 x (valid) 0x1d-0x1e (1)
0x010|                                          01   |              . |            [5]: 1 x (valid) 0x1e-0x1f (1)
0x010|                                             01|               .|            [6]: 1 x (valid) 0x1f-0x20 (1)
0x020|01                                             |.               |            [7]: 1 x (valid) 0x20-0x21 (1)
0x020|   00                                          | .              |            [8]: 0 x (valid) 0x21-0x22 (1)
0x020|      00                                       |  .             |            [9]: 0 x (valid) 0x22-0x23 (1)
     |                                               |                |    [2]{}: section 0x23-0x11f (252)
0x020|         07                                    |   .            |      id: "export_section" (7) 0x23-0x24 (1)
0x020|            f9 01                              |    ..          |      size: 249 (valid) 0x24-0x26 (2)
     |                                               |                |      content{}: 0x26-0x11f (249)
     |                                               |                |        ex{}: 0x26-0x11f (249)
0x020|                  0a                           |      .         |          n: 10 (valid) 0x26-0x27 (1)
     |                                               |                |          x[0:10]: 0x27-0x11f (248)
     |                                               |                |            [0]{}: ex 0x27-0x3f (24)
     |                                               |                |              nm{}: 0x27-0x3d (22)
0x020|                     15                        |       .        |                n: 21 (valid) 0x27-0x28 (1)
0x020|                        66 33 32 78 34 2e 63 6f|        f32x4.co|                b: "f32x4.convert_i32x4_s" 0x28-0x3d (21)
0x030|6e 76 65 72 74 5f 69 33 32 78 34 5f 73         |nvert_i32x4_s   |
     |                                               |                |              d{}: 0x3d-0x3f (2)
0x030|                                       00      |             .  |                tag: "funcidx" (0x0) 0x3d-0x3e (1)
0x030|                                          00   |              . |                x: 0 (valid) 0x3e-0x3f (1)
     |                                               |                |            [1]{}: ex 0x3f-0x57 (24)
     |                                               |                |              nm{}: 0x3f-0x55 (22)
0x030|                                             15|               .|                n: 21 (valid) 0x3f-0x40 (1)
0x040|66 33 32 78 34 2e 63 6f 6e 76 65 72 74 5f 69 33|f32x4.convert_i3|                b: "f32x4.convert_i32x4_u" 0x40-0x55 (21)
0x050|32 78 34 5f 75                                 |2x4_u           |
     |                                               |                |              d{}: 0x55-0x57 (2)
0x050|               00                              |     .          |                tag: "funcidx" (0x0) 0x55-0x56 (1)
0x050|                  01                           |      .         |                x: 1 (valid) 0x56-0x57 (1)
     |                                               |                |            [2]{}: ex 0x57-0x73 (28)
     |                                               |                |              nm{}: 0x57-0x71 (26)
0x050|                     19                        |       .        |                n: 25 (valid) 0x57-0x58 (1)
0x050|                        66 36 34 78 32 2e 63 6f|        f64x2.co|                b: "f64x2.convert_low_i32x4_s" 0x58-0x71 (25)
0x060|6e 76 65 72 74 5f 6c 6f 77 5f 69 33 32 78 34 5f|nvert_low_i32x4_|
0x070|73                                             |s               |
     |                                               |                |              d{}: 0x71-0x73 (2)
0x070|   00                                          | .              |                tag: "funcidx" (0x0) 0x71-0x72 (1)
0x070|      02                                       |  .             |                x: 2 (valid) 0x72-0x73 (1)
     |                                               |                |            [3]{}: ex 0x73-0x8f (28)
     |                                               |                |              nm{}: 0x73-0x8d (26)
0x070|         19                                    |   .            |                n: 25 (valid) 0x73-0x74 (1)
0x070|            66 36 34 78 32 2e 63 6f 6e 76 65 72|    f64x2.conver|                b: "f64x2.convert_low_i32x4_u" 0x74-0x8d (25)
0x080|74 5f 6c 6f 77 5f 69 33 32 78 34 5f 75         |t_low_i32x4_u   |
     |                                               |                |              d{}: 0x8d-0x8f (2)
0x080|                                       00      |             .  |                tag: "funcidx" (0x0) 0x8d-0x8e (1)
0x080|                                          03   |              . |                x: 3 (valid) 0x8e-0x8f (1)
     |                                               |                |            [4]{}: ex 0x8f-0xa6 (23)
     |                                               |                |              nm{}: 0x8f-0xa4 (21)
0x080|                                             14|               .|                n: 20 (valid) 0x8f-0x90 (1)
0x090|69 38 78 31 36 2e 6e 61 72 72 6f 77 5f 69 31 36|i8x16.narrow_i16|                b: "i8x16.narrow_i16x8_s" 0x90-0xa4 (20)
0x0a0|78 38 5f 73                                    |x8_s            |
     |                                               |                |              d{}: 0xa4-0xa6 (2)
0x0a0|            00                                 |    .           |                tag: "funcidx" (0x0) 0xa4-0xa5 (1)
0x0a0|               04                              |     .          |                x: 4 (valid) 0xa5-0xa6 (1)
     |                                               |                |            [5]{}: ex 0xa6-0xbd (23)
     |                                               |                |              nm{}: 0xa6-0xbb (21)
0x0a0|                  14                           |      .         |                n: 20 (valid) 0xa6-0xa7 (1)
0x0a0|                     69 38 78 31 36 2e 6e 61 72|       i8x16.nar|                b: "i8x16.narrow_i16x8_u" 0xa7-0xbb (20)
0x0b0|72 6f 77 5f 69 31 36 78 38 5f 75               |row_i16x8_u     |
     |                                               |                |              d{}: 0xbb-0xbd (2)
0x0b0|                                 00            |           .    |                tag: "funcidx" (0x0) 0xbb-0xbc (1)
0x0b0|                                    05         |            .   |                x: 5 (valid) 0xbc-0xbd (1)
     |                                               |                |            [6]{}: ex 0xbd-0xd4 (23)
     |                                               |                |              nm{}: 0xbd-0xd2 (21)
0x0b0|                                       14      |             .  |                n: 20 (valid) 0xbd-0xbe (1)
0x0b0|                                          69 31|              i1|                b: "i16x8.narrow_i32x4_s" 0xbe-0xd2 (20)
0x0c0|36 78 38 2e 6e 61 72 72 6f 77 5f 69 33 32 78 34|6x8.narrow_i32x4|
0x0d0|5f 73                                          |_s              |
     |                                               |                |              d{}: 0xd2-0xd4 (2)
0x0d0|      00                                       |  .             |                tag: "funcidx" (0x0) 0xd2-0xd3 (1)
0x0d0|         06                                    |   .            |                x: 6 (valid) 0xd3-0xd4 (1)
     |                                               |                |            [7]{}: ex 0xd4-0xeb (23)
     |                                               |                |              nm{}: 0xd4-0xe9 (21)
0x0d0|            14                                 |    .           |                n: 20 (valid) 0xd4-0xd5 (1)
0x0d0|               69 31 36 78 38 2e 6e 61 72 72 6f|     i16x8.narro|                b: "i16x8.narrow_i32x4_u" 0xd5-0xe9 (20)
0x0e0|77 5f 69 33 32 78 34 5f 75                     |w_i32x4_u       |
     |                                               |                |              d{}: 0xe9-0xeb (2)
0x0e0|                           00                  |         .      |                tag: "funcidx" (0x0) 0xe9-0xea (1)
0x0e0|                              07               |          .     |                x: 7 (valid) 0xea-0xeb (1)
     |                                               |                |            [8]{}: ex 0xeb-0x105 (26)
     |                                               |                |              nm{}: 0xeb-0x103 (24)
0x0e0|                                 17            |           .    |                n: 23 (valid) 0xeb-0xec (1)
0x0e0|                                    66 36 34 78|            f64x|                b: "f64x2.promote_low_f32x4" 0xec-0x103 (23)
0x0f0|32 2e 70 72 6f 6d 6f 74 65 5f 6c 6f 77 5f 66 33|2.promote_low_f3|
0x100|32 78 34                                       |2x4             |
     |                                               |                |              d{}: 0x103-0x105 (2)
0x100|         00                                    |   .            |                tag: "funcidx" (0x0) 0x103-0x104 (1)
0x100|            08                                 |    .           |                x: 8 (valid) 0x104-0x105 (1)
     |                                               |                |            [9]{}: ex 0x105-0x11f (26)
     |                                               |                |              nm{}: 0x105-0x11d (24)
0x100|               17                              |     .          |                n: 23 (valid) 0x105-0x106 (1)
0x100|                  66 33 32 78 34 2e 64 65 6d 6f|      f32x4.demo|                b: "f32x4.demote_f64x2_zero" 0x106-0x11d (23)
0x110|74 65 5f 66 36 34 78 32 5f 7a 65 72 6f         |te_f64x2_zero   |
     |                                               |                |              d{}: 0x11d-0x11f (2)
0x110|                                       00      |             .  |                tag: "funcidx" (0x0) 0x11d-0x11e (1)
0x110|                                          09   |              . |                x: 9 (valid) 0x11e-0x11f (1)
     |                                               |                |    [3]{}: section 0x11f-0x176 (87)
0x110|                                             0a|               .|      id: "code_section" (10) 0x11f-0x120 (1)
0x120|55                                             |U               |      size: 85 (valid) 0x120-0x121 (1)
     |                                               |                |      content{}: 0x121-0x176 (85)
     |                                               |                |        code{}: 0x121-0x176 (85)
0x120|   0a                                          | .              |          n: 10 (valid) 0x121-0x122 (1)
     |                                               |                |          x[0:10]: 0x122-0x176 (84)
     |                                               |                |            [0]{}: code 0x122-0x12a (8)
0x120|      07                                       |  .             |              size: 7 (valid) 0x122-0x123 (1)
     |                                               |                |              code{}: 0x123-0x12a (7)
     |                                               |                |                t{}: 0x123-0x124 (1)
0x120|         00                                    |   .            |                  n: 0 (valid) 0x123-0x124 (1)
     |                                               |                |                  x[0:0]: 0x124-0x124 (0)
     |                                               |                |                e[0:3]: 0x124-0x12a (6)
     |                                               |                |                  [0]{}: in 0x124-0x126 (2)
0x120|            20                                 |                |                    opcode: "local.get" (0x20) 0x124-0x125 (1)
0x120|               00                              |     .          |                    x: 0 (valid) 0x125-0x126 (1)
     |                                               |                |                  [1]{}: in 0x126-0x129 (3)
0x120|                  fd                           |      .         |                    opcode: "vector" (0xfd) 0x126-0x127 (1)
0x120|                     fa 01                     |       ..       |                    v_opcode: "f32x4.convert_i32x4_s" (250) 0x127-0x129 (2)
     |                                               |                |                  [2]{}: in 0x129-0x12a (1)
0x120|                           0b                  |         .      |                    opcode: "end" (0xb) 0x129-0x12a (1)
     |                                               |                |            [1]{}: code 0x12a-0x132 (8)
0x120|                              07               |          .     |              size: 7 (valid) 0x12a-0x12b (1)
     |                                               |                |              code{}: 0x12b-0x132 (7)
     |                                               |                |                t{}: 0x12b-0x12c (1)
0x120|                                 00            |           .    |                  n: 0 (valid) 0x12b-0x12c (1)
     |                                               |                |                  x[0:0]: 0x12c-0x12c (0)
     |                                               |                |                e[0:3]: 0x12c-0x132 (6)
     |                                               |                |                  [0]{}: in 0x12c-0x12e (2)
0x120|                                    20         |                |                    opcode: "local.get" (0x20) 0x12c-0x12d (1)
0x120|                                       00      |             .  |                    x: 0 (valid) 0x12d-0x12e (1)
     |                                               |                |                  [1]{}: in 0x12e-0x131 (3)
0x120|                                          fd   |              . |                    opcode: "vector" (0xfd) 0x12e-0x12f (1)
0x120|                                             fb|               .|                    v_opcode: "f32x4.convert_i32x4_u" (251) 0x12f-0x131 (2)
0x130|01                                             |.               |
     |                                               |                |                  [2]{}: in 0x131-0x132 (1)
0x130|   0b                                          | .              |                    opcode: "end" (0xb) 0x131-0x132 (1)
     |                                               |                |            [2]{}: code 0x132-0x13a (8)
0x130|      07                                       |  .             |              size: 7 (valid) 0x132-0x133 (1)
     |                                               |                |              code{}: 0x133-0x13a (7)
     |                                               |                |                t{}: 0x133-0x134 (1)
0x130|         00                                    |   .            |                  n: 0 (valid) 0x133-0x134 (1)
     |                                               |                |                  x[0:0]: 0x134-0x134 (0)
     |                                               |                |                e[0:3]: 0x134-0x13a (6)
     |                                               |                |                  [0]{}: in 0x134-0x136 (2)
0x130|            20                                 |                |                    opcode: "local.get" (0x20) 0x134-0x135 (1)
0x130|               00                              |     .          |                    x: 0 (valid) 0x135-0x136 (1)
     |                                               |                |                  [1]{}: in 0x136-0x139 (3)
0x130|                  fd                           |      .         |                    opcode: "vector" (0xfd) 0x136-0x137 (1)
0x130|                     fe 01                     |       ..       |                    v_opcode: "f64x2.convert_low_i32x4_s" (254) 0x137-0x139 (2)
     |                                               |                |                  [2]{}: in 0x139-0x13a (1)
0x130|                           0b                  |         .      |                    opcode: "end" (0xb) 0x139-0x13a (1)
     |                                               |                |            [3]{}: code 0x13a-0x142 (8)
0x130|                              07               |          .     |              size: 7 (valid) 0x13a-0x13b (1)
     |                                               |                |              code{}: 0x13b-0x142 (7)
     |                                               |                |                t{}: 0x13b-0x13c (1)
0x130|                                 00            |           .    |                  n: 0 (valid) 0x13b-0x13c (1)
     |                                               |                |                  x[0:0]: 0x13c-0x13c (0)
     |                                               |                |                e[0:3]: 0x13c-0x142 (6)
     |                                               |                |                  [0]{}: in 0x13c-0x13e (2)
0x130|                                    20         |                |                    opcode: "local.get" (0x20) 0x13c-0x13d (1)
0x130|                                       00      |             .  |                    x: 0 (valid) 0x13d-0x13e (1)
     |                                               |                |                  [1]{}: in 0x13e-0x141 (3)
0x130|                                          fd   |              . |                    opcode: "vector" (0xfd) 0x13e-0x13f (1)
0x130|                                             ff|               .|                    v_opcode: "f64x2.convert_low_i32x4_u" (255) 0x13f-0x141 (2)
0x140|01                                             |.               |
     |                                               |                |                  [2]{}: in 0x141-0x142 (1)
0x140|   0b                                          | .              |                    opcode: "end" (0xb) 0x141-0x142 (1)
     |                                               |                |            [4]{}: code 0x142-0x14b (9)
0x140|      08                                       |  .             |              size: 8 (valid) 0x142-0x143 (1)
     |                                               |                |              code{}: 0x143-0x14b (8)
     |                                               |                |                t{}: 0x143-0x144 (1)
0x140|         00                                    |   .            |                  n: 0 (valid) 0x143-0x144 (1)
     |                                               |                |                  x[0:0]: 0x144-0x144 (0)
     |                                               |                |                e[0:4]: 0x144-0x14b (7)
     |                                               |                |                  [0]{}: in 0x144-0x146 (2)
0x140|            20                                 |                |                    opcode: "local.get" (0x20) 0x144-0x145 (1)
0x140|               00                              |     .          |                    x: 0 (valid) 0x145-0x146 (1)
     |                                               |                |                  [1]{}: in 0x146-0x148 (2)
0x140|                  20                           |                |                    opcode: "local.get" (0x20) 0x146-0x147 (1)
0x140|                     01                        |       .        |                    x: 1 (valid) 0x147-0x148 (1)
     |                                               |                |                  [2]{}: in 0x148-0x14a (2)
0x140|                        fd                     |        .       |                    opcode: "vector" (0xfd) 0x148-0x149 (1)
0x140|                           65                  |         e      |                    v_opcode: "i8x16.narrow_i16x8_s" (101) 0x149-0x14a (1)
     |                                               |                |                  [3]{}: in 0x14a-0x14b (1)
0x140|                              0b               |          .     |                    opcode: "end" (0xb) 0x14a-0x14b (1)
     |                                               |                |            [5]{}: code 0x14b-0x154 (9)
0x140|                                 08            |           .    |              size: 8 (valid) 0x14b-0x14c (1)
     |                                               |                |              code{}: 0x14c-0x154 (8)
     |                                               |                |                t{}: 0x14c-0x14d (1)
0x140|                                    00         |            .   |                  n: 0 (valid) 0x14c-0x14d (1)
     |                                               |                |                  x[0:0]: 0x14d-0x14d (0)
     |                                               |                |                e[0:4]: 0x14d-0x154 (7)
     |                                               |                |                  [0]{}: in 0x14d-0x14f (2)
0x140|                                       20      |                |                    opcode: "local.get" (0x20) 0x14d-0x14e (1)
0x140|                                          00   |              . |                    x: 0 (valid) 0x14e-0x14f (1)
     |                                               |                |                  [1]{}: in 0x14f-0x151 (2)
0x140|                                             20|                |                    opcode: "local.get" (0x20) 0x14f-0x150 (1)
0x150|01                                             |.               |                    x: 1 (valid) 0x150-0x151 (1)
     |                                               |                |                  [2]{}: in 0x151-0x153 (2)
0x150|   fd                                          | .              |                    opcode: "vector" (0xfd) 0x151-0x152 (1)
0x150|      66                                       |  f             |                    v_opcode: "i8x16.narrow_i16x8_u" (102) 0x152-0x153 (1)
     |                                               |                |                  [3]{}: in 0x153-0x154 (1)
0x150|         0b                                    |   .            |                    opcode: "end" (0xb) 0x153-0x154 (1)
     |                                               |                |            [6]{}: code 0x154-0x15e (10)
0x150|            09                                 |    .           |              size: 9 (valid) 0x154-0x155 (1)
     |                                               |                |              code{}: 0x155-0x15e (9)
     |                                               |                |                t{}: 0x155-0x156 (1)
0x150|               00                              |     .          |                  n: 0 (valid) 0x155-0x156 (1)
     |                                               |                |                  x[0:0]: 0x156-0x156 (0)
     |                                               |                |                e[0:4]: 0x156-0x15e (8)
     |                                               |                |                  [0]{}: in 0x156-0x158 (2)
0x150|                  20                           |                |                    opcode: "local.get" (0x20) 0x156-0x157 (1)
0x150|                     00                        |       .        |                    x: 0 (valid) 0x157-0x158 (1)
     |                                               |                |                  [1]{}: in 0x158-0x15a (2)
0x150|                        20                     |                |                    opcode: "local.get" (0x20) 0x158-0x159 (1)
0x150|                           01                  |         .      |                    x: 1 (valid) 0x159-0x15a (1)
     |                                               |                |                  [2]{}: in 0x15a-0x15d (3)
0x150|                              fd               |          .     |                    opcode: "vector" (0xfd) 0x15a-0x15b (1)
0x150|                                 85 01         |           ..   |                    v_opcode: "i16x8.narrow_i32x4_s" (133) 0x15b-0x15d (2)
     |                                               |                |                  [3]{}: in 0x15d-0x15e (1)
0x150|                                       0b      |             .  |                    opcode: "end" (0xb) 0x15d-0x15e (1)
     |                                               |                |            [7]{}: code 0x15e-0x168 (10)
0x150|                                          09   |              . |              size: 9 (valid) 0x15e-0x15f (1)
     |                                               |                |              code{}: 0x15f-0x168 (9)
     |                                               |                |                t{}: 0x15f-0x160 (1)
0x150|                                             00|               .|                  n: 0 (valid) 0x15f-0x160 (1)
     |                                               |                |                  x[0:0]: 0x160-0x160 (0)
     |                                               |                |                e[0:4]: 0x160-0x168 (8)
     |                                               |                |                  [0]{}: in 0x160-0x162 (2)
0x160|20                                             |                |                    opcode: "local.get" (0x20) 0x160-0x161 (1)
0x160|   00                                          | .              |                    x: 0 (valid) 0x161-0x162 (1)
     |                                               |                |                  [1]{}: in 0x162-0x164 (2)
0x160|      20                                       |                |                    opcode: "local.get" (0x20) 0x162-0x163 (1)
0x160|         01                                    |   .            |                    x: 1 (valid) 0x163-0x164 (1)
     |                                               |                |                  [2]{}: in 0x164-0x167 (3)
0x160|            fd                                 |    .           |                    opcode: "vector" (0xfd) 0x164-0x165 (1)
0x160|               86 01                           |     ..         |                    v_opcode: "i16x8.narrow_i32x4_u" (134) 0x165-0x167 (2)
     |                                               |                |                  [3]{}: in 0x167-0x168 (1)
0x160|                     0b                        |       .        |                    opcode: "end" (0xb) 0x167-0x168 (1)
     |                                               |                |            [8]{}: code 0x168-0x16f (7)
0x160|                        06                     |        .       |              size: 6 (valid) 0x168-0x169 (1)
     |                                               |                |              code{}: 0x169-0x16f (6)
     |                                               |                |                t{}: 0x169-0x16a (1)
0x160|                           00                  |         .      |                  n: 0 (valid) 0x169-0x16a (1)
     |                                               |                |                  x[0:0]: 0x16a-0x16a (0)
     |                                               |                |                e[0:3]: 0x16a-0x16f (5)
     |                                               |                |                  [0]{}: in 0x16a-0x16c (2)
0x160|                              20               |                |                    opcode: "local.get" (0x20) 0x16a-0x16b (1)
0x160|                                 00            |           .    |                    x: 0 (valid) 0x16b-0x16c (1)
     |                                               |                |                  [1]{}: in 0x16c-0x16e (2)
0x160|                                    fd         |            .   |                    opcode: "vector" (0xfd) 0x16c-0x16d (1)
0x160|                                       5f      |             _  |                    v_opcode: "f64x2.promote_low_f32x4" (95) 0x16d-0x16e (1)
     |                                               |                |                  [2]{}: in 0x16e-0x16f (1)
0x160|                                          0b   |              . |                    opcode: "end" (0xb) 0x16e-0x16f (1)
     |                                               |                |            [9]{}: code 0x16f-0x176 (7)
0x160|                                             06|               .|              size: 6 (valid) 0x16f-0x170 (1)
     |                                               |                |              code{}: 0x170-0x176 (6)
     |                                               |                |                t{}: 0x170-0x171 (1)
0x170|00                                             |.               |                  n: 0 (valid) 0x170-0x171 (1)
     |                                               |                |                  x[0:0]: 0x171-0x171 (0)
     |                                               |                |                e[0:3]: 0x171-0x176 (5)
     |                                               |                |                  [0]{}: in 0x171-0x173 (2)
0x170|   20                                          |                |                    opcode: "local.get" (0x20) 0x171-0x172 (1)
0x170|      00                                       |  .             |                    x: 0 (valid) 0x172-0x173 (1)
     |                                               |                |                  [1]{}: in 0x173-0x175 (2)
0x170|         fd                                    |   .            |                    opcode: "vector" (0xfd) 0x173-0x174 (1)
0x170|            5e                                 |    ^           |                    v_opcode: "f32x4.demote_f64x2_zero" (94) 0x174-0x175 (1)
     |                                               |                |                  [2]{}: in 0x175-0x176 (1)
0x170|               0b|                             |     .|         |                    opcode: "end" (0xb) 0x175-0x176 (1)
