$ fq -d wasm dv simd_splat-3.wasm
     |00 01 02 03 04 05 06 07 08 09 0a 0b 0c 0d 0e 0f|0123456789abcdef|.{}: simd_splat-3.wasm (wasm) 0x0-0x143 (323)
0x000|00 61 73 6d                                    |.asm            |  magic: raw bits (valid) 0x0-0x4 (4)
0x000|            01 00 00 00                        |    ....        |  version: 1 0x4-0x8 (4)
     |                                               |                |  sections[0:5]: 0x8-0x143 (315)
     |                                               |                |    [0]{}: section 0x8-0x1f (23)
0x000|                        01                     |        .       |      id: "type_section" (1) 0x8-0x9 (1)
0x000|                           15                  |         .      |      size: 21 (valid) 0x9-0xa (1)
     |                                               |                |      content{}: 0xa-0x1f (21)
     |                                               |                |        ft{}: 0xa-0x1f (21)
0x000|                              04               |          .     |          n: 4 (valid) 0xa-0xb (1)
     |                                               |                |          x[0:4]: 0xb-0x1f (20)
     |                                               |                |            [0]{}: ft 0xb-0x10 (5)
0x000|                                 60            |           `    |              tag: 0x60 (valid) 0xb-0xc (1)
     |                                               |                |              rt1{}: 0xc-0xe (2)
0x000|                                    01         |            .   |                n: 1 (valid) 0xc-0xd (1)
     |                                               |                |                x[0:1]: 0xd-0xe (1)
0x000|                                       7f      |             .  |                  [0]: "i32" (0x7f) t 0xd-0xe (1)
     |                                               |                |              rt2{}: 0xe-0x10 (2)
0x000|                                          01   |              . |                n: 1 (valid) 0xe-0xf (1)
     |                                               |                |                x[0:1]: 0xf-0x10 (1)
0x000|                                             7b|               {|                  [0]: "v128" (0x7b) t 0xf-0x10 (1)
     |                                               |                |            [1]{}: ft 0x10-0x15 (5)
0x010|60                                             |`               |              tag: 0x60 (valid) 0x10-0x11 (1)
     |                                               |                |              rt1{}: 0x11-0x13 (2)
0x010|   01                                          | .              |                n: 1 (valid) 0x11-0x12 (1)
     |                                               |                |                x[0:1]: 0x12-0x13 (1)
0x010|      7d                                       |  }             |                  [0]: "f32" (0x7d) t 0x12-0x13 (1)
     |                                               |                |              rt2{}: 0x13-0x15 (2)
0x010|         01                                    |   .            |                n: 1 (valid) 0x13-0x14 (1)
     |                                               |                |                x[0:1]: 0x14-0x15 (1)
0x010|            7b                                 |    {           |                  [0]: "v128" (0x7b) t 0x14-0x15 (1)
     |                                               |                |            [2]{}: ft 0x15-0x1a (5)
0x010|               60                              |     `          |              tag: 0x60 (valid) 0x15-0x16 (1)
     |                                               |                |              rt1{}: 0x16-0x18 (2)
0x010|                  01                           |      .         |                n: 1 (valid) 0x16-0x17 (1)
     |                                               |                |                x[0:1]: 0x17-0x18 (1)
0x010|                     7e                        |       ~        |                  [0]: "i64" (0x7e) t 0x17-0x18 (1)
     |                                               |                |              rt2{}: 0x18-0x1a (2)
0x010|                        01                     |        .       |                n: 1 (valid) 0x18-0x19 (1)
     |                                               |                |                x[0:1]: 0x19-0x1a (1)
0x010|                           7b                  |         {      |                  [0]: "v128" (0x7b) t 0x19-0x1a (1)
     |                                               |                |            [3]{}: ft 0x1a-0x1f (5)
0x010|                              60               |          `     |              tag: 0x60 (valid) 0x1a-0x1b (1)
     |                                               |                |              rt1{}: 0x1b-0x1d (2)
0x010|                                 01            |           .    |                n: 1 (valid) 0x1b-0x1c (1)
     |                                               |                |                x[0:1]: 0x1c-0x1d (1)
0x010|                                    7c         |            |   |                  [0]: "f64" (0x7c) t 0x1c-0x1d (1)
     |                                               |                |              rt2{}: 0x1d-0x1f (2)
0x010|                                       01      |             .  |                n: 1 (valid) 0x1d-0x1e (1)
     |                                               |                |                x[0:1]: 0x1e-0x1f (1)
0x010|                                          7b   |              { |                  [0]: "v128" (0x7b) t 0x1e-0x1f (1)
     |                                               |                |    [1]{}: section 0x1f-0x2a (11)
0x010|                                             03|               .|      id: "function_section" (3) 0x1f-0x20 (1)
0x020|09                                             |.               |      size: 9 (valid) 0x20-0x21 (1)
     |                                               |                |      content{}: 0x21-0x2a (9)
     |                                               |                |        x{}: 0x21-0x2a (9)
0x020|   08                                          | .              |          n: 8 (valid) 0x21-0x22 (1)
     |                                               |                |          x[0:8]: 0x22-0x2a (8)
0x020|      00                                       |  .             |            [0]: 0 x (valid) 0x22-0x23 (1)
0x020|         00                                    |   .            |            [1]: 0 x (valid) 0x23-0x24 (1)
0x020|            00                                 |    .           |            [2]: 0 x (valid) 0x24-0x25 (1)
0x020|               01                              |     .          |            [3]: 1 x (valid) 0x25-0x26 (1)
0x020|                  02                           |      .         |            [4]: 2 x (valid) 0x26-0x27 (1)
0x020|                     02                        |       .        |            [5]: 2 x (valid) 0x27-0x28 (1)
0x020|                        02                     |        .       |            [6]: 2 x (valid) 0x28-0x29 (1)
0x020|                           03                  |         .      |            [7]: 3 x (valid) 0x29-0x2a (1)
     |                                               |                |    [2]{}: section 0x2a-0x42 (24)
0x020|                              06               |          .     |      id: "global_section" (6) 0x2a-0x2b (1)
0x020|                                 16            |           .    |      size: 22 (valid) 0x2b-0x2c (1)
     |                                               |                |      content{}: 0x2c-0x42 (22)
     |                                               |                |        glob{}: 0x2c-0x42 (22)
0x020|                                    01         |            .   |          n: 1 (valid) 0x2c-0x2d (1)
     |                                               |                |          x[0:1]: 0x2d-0x42 (21)
     |                                               |                |            [0]{}: glob 0x2d-0x42 (21)
     |                                               |                |              gt{}: 0x2d-0x2f (2)
0x020|                                       7b      |             {  |                t: "v128" (0x7b) 0x2d-0x2e (1)
0x020|                                          01   |              . |                m: "var" (1) 0x2e-0x2f (1)
     |                                               |                |              e[0:2]: 0x2f-0x42 (19)
     |                                               |                |                [0]{}: in 0x2f-0x41 (18)
0x020|                                             fd|               .|                  opcode: "vector" (0xfd) 0x2f-0x30 (1)
0x030|0c                                             |.               |                  v_opcode: "v128.const" (12) 0x30-0x31 (1)
0x030|   00 00 00 00 00 00 00 00 00 00 00 00 00 00 00| ...............|                  bytes: raw bits 0x31-0x41 (16)
0x040|00                                             |.               |
     |                                               |                |                [1]{}: in 0x41-0x42 (1)
0x040|   0b                                          | .              |                  opcode: "end" (0xb) 0x41-0x42 (1)
     |                                               |                |    [3]{}: section 0x42-0xe4 (162)
0x040|      07                                       |  .             |      id: "export_section" (7) 0x42-0x43 (1)
0x040|         9f 01                                 |   ..           |      size: 159 (valid) 0x43-0x45 (2)
     |                                               |                |      content{}: 0x45-0xe4 (159)
     |                                               |                |        ex{}: 0x45-0xe4 (159)
0x040|               08                              |     .          |          n: 8 (valid) 0x45-0x46 (1)
     |                                               |                |          x[0:8]: 0x46-0xe4 (158)
     |                                               |                |            [0]{}: ex 0x46-0x55 (15)
     |                                               |                |              nm{}: 0x46-0x53 (13)
0x040|                  0c                           |      .         |                n: 12 (valid) 0x46-0x47 (1)
0x040|                     61 73 2d 62 72 2d 76 61 6c|       as-br-val|                b: "as-br-value1" 0x47-0x53 (12)
0x050|75 65 31                                       |ue1             |
     |                                               |                |              d{}: 0x53-0x55 (2)
0x050|         00                                    |   .            |                tag: "funcidx" (0x0) 0x53-0x54 (1)
0x050|            00                                 |    .           |                x: 0 (valid) 0x54-0x55 (1)
     |                                               |                |            [1]{}: ex 0x55-0x68 (19)
     |                                               |                |              nm{}: 0x55-0x66 (17)
0x050|               10                              |     .          |                n: 16 (valid) 0x55-0x56 (1)
0x050|                  61 73 2d 72 65 74 75 72 6e 2d|      as-return-|                b: "as-return-value1" 0x56-0x66 (16)
0x060|76 61 6c 75 65 31                              |value1          |
     |                                               |                |              d{}: 0x66-0x68 (2)
0x060|                  00                           |      .         |                tag: "funcidx" (0x0) 0x66-0x67 (1)
0x060|                     01                        |       .        |                x: 1 (valid) 0x67-0x68 (1)
     |                                               |                |            [2]{}: ex 0x68-0x7e (22)
     |                                               |                |              nm{}: 0x68-0x7c (20)
0x060|                        13                     |        .       |                n: 19 (valid) 0x68-0x69 (1)
0x060|                           61 73 2d 6c 6f 63 61|         as-loca|                b: "as-local_set-value1" 0x69-0x7c (19)
0x070|6c 5f 73 65 74 2d 76 61 6c 75 65 31            |l_set-value1    |
     |                                               |                |              d{}: 0x7c-0x7e (2)
0x070|                                    00         |            .   |                tag: "funcidx" (0x0) 0x7c-0x7d (1)
0x070|                                       02      |             .  |                x: 2 (valid) 0x7d-0x7e (1)
     |                                               |                |            [3]{}: ex 0x7e-0x95 (23)
     |                                               |                |              nm{}: 0x7e-0x93 (21)
0x070|                                          14   |              . |                n: 20 (valid) 0x7e-0x7f (1)
0x070|                                             61|               a|                b: "as-global_set-value1" 0x7f-0x93 (20)
0x080|73 2d 67 6c 6f 62 61 6c 5f 73 65 74 2d 76 61 6c|s-global_set-val|
0x090|75 65 31                                       |ue1             |
     |                                               |                |              d{}: 0x93-0x95 (2)
0x090|         00                                    |   .            |                tag: "funcidx" (0x0) 0x93-0x94 (1)
0x090|            03                                 |    .           |                x: 3 (valid) 0x94-0x95 (1)
     |                                               |                |            [4]{}: ex 0x95-0xa4 (15)
     |                                               |                |              nm{}: 0x95-0xa2 (13)
0x090|               0c                              |     .          |                n: 12 (valid) 0x95-0x96 (1)
0x090|                  61 73 2d 62 72 2d 76 61 6c 75|      as-br-valu|                b: "as-br-value2" 0x96-0xa2 (12)
0x0a0|65 32                                          |e2              |
     |                                               |                |              d{}: 0xa2-0xa4 (2)
0x0a0|      00                                       |  .             |                tag: "funcidx" (0x0) 0xa2-0xa3 (1)
0x0a0|         04                                    |   .            |                x: 4 (valid) 0xa3-0xa4 (1)
     |                                               |                |            [5]{}: ex 0xa4-0xb7 (19)
     |                                               |                |              nm{}: 0xa4-0xb5 (17)
0x0a0|            10                                 |    .           |                n: 16 (valid) 0xa4-0xa5 (1)
0x0a0|               61 73 2d 72 65 74 75 72 6e 2d 76|     as-return-v|                b: "as-return-value2" 0xa5-0xb5 (16)
0x0b0|61 6c 75 65 32                                 |alue2           |
     |                                               |                |              d{}: 0xb5-0xb7 (2)
0x0b0|               00                              |     .          |                tag: "funcidx" (0x0) 0xb5-0xb6 (1)
0x0b0|                  05                           |      .         |                x: 5 (valid) 0xb6-0xb7 (1)
     |                                               |                |            [6]{}: ex 0xb7-0xcd (22)
     |                                               |                |              nm{}: 0xb7-0xcb (20)
0x0b0|                     13                        |       .        |                n: 19 (valid) 0xb7-0xb8 (1)
0x0b0|                        61 73 2d 6c 6f 63 61 6c|        as-local|                b: "as-local_set-value2" 0xb8-0xcb (19)
0x0c0|5f 73 65 74 2d 76 61 6c 75 65 32               |_set-value2     |
     |                                               |                |              d{}: 0xcb-0xcd (2)
0x0c0|                                 00            |           .    |                tag: "funcidx" (0x0) 0xcb-0xcc (1)
0x0c0|                                    06         |            .   |                x: 6 (valid) 0xcc-0xcd (1)
     |                                               |                |            [7]{}: ex 0xcd-0xe4 (23)
     |                                               |                |              nm{}: 0xcd-0xe2 (21)
0x0c0|                                       14      |             .  |                n: 20 (valid) 0xcd-0xce (1)
0x0c0|                                          61 73|              as|                b: "as-global_set-value2" 0xce-0xe2 (20)
0x0d0|2d 67 6c 6f 62 61 6c 5f 73 65 74 2d 76 61 6c 75|-global_set-valu|
0x0e0|65 32                                          |e2              |
     |                                               |                |              d{}: 0xe2-0xe4 (2)
0x0e0|      00                                       |  .             |                tag: "funcidx" (0x0) 0xe2-0xe3 (1)
0x0e0|         07                                    |   .            |                x: 7 (valid) 0xe3-0xe4 (1)
     |                                               |                |    [4]{}: section 0xe4-0x143 (95)
0x0e0|            0a                                 |    .           |      id: "code_section" (10) 0xe4-0xe5 (1)
0x0e0|               5d                              |     ]          |      size: 93 (valid) 0xe5-0xe6 (1)
     |                                               |                |      content{}: 0xe6-0x143 (93)
     |                                               |                |        code{}: 0xe6-0x143 (93)
0x0e0|                  08                           |      .         |          n: 8 (valid) 0xe6-0xe7 (1)
     |                                               |                |          x[0:8]: 0xe7-0x143 (92)
     |                                               |                |            [0]{}: code 0xe7-0xf3 (12)
0x0e0|                     0b                        |       .        |              size: 11 (valid) 0xe7-0xe8 (1)
     |                                               |                |              code{}: 0xe8-0xf3 (11)
     |                                               |                |                t{}: 0xe8-0xe9 (1)
0x0e0|                        00                     |        .       |                  n: 0 (valid) 0xe8-0xe9 (1)
     |                                               |                |                  x[0:0]: 0xe9-0xe9 (0)
     |                                               |                |                e[0:2]: 0xe9-0xf3 (10)
     |                                               |                |                  [0]{}: in 0xe9-0xf2 (9)
0x0e0|                           02                  |         .      |                    opcode: "block" (0x2) 0xe9-0xea (1)
0x0e0|                              7b               |          {     |                    bt: "v128" (123) 0xea-0xeb (1)
     |                                               |                |                    instructions[0:3]: 0xeb-0xf1 (6)
     |                                               |                |                      [0]{}: instr 0xeb-0xed (2)
0x0e0|                                 20            |                |                        opcode: "local.get" (0x20) 0xeb-0xec (1)
0x0e0|                                    00         |            .   |                        x: 0 (valid) 0xec-0xed (1)
     |                                               |                |                      [1]{}: instr 0xed-0xef (2)
0x0e0|                                       fd      |             .  |                        opcode: "vector" (0xfd) 0xed-0xee (1)
0x0e0|                                          0f   |              . |                        v_opcode: "i8x16.splat" (15) 0xee-0xef (1)
     |                                               |                |                      [2]{}: instr 0xef-0xf1 (2)
0x0e0|                                             0c|               .|                        opcode: "br" (0xc) 0xef-0xf0 (1)
0x0f0|00                                             |.               |                        l: 0 (valid) 0xf0-0xf1 (1)
0x0f0|   0b                                          | .              |                    end: 0xb (valid) 0xf1-0xf2 (1)
     |                                               |                |                  [1]{}: in 0xf2-0xf3 (1)
0x0f0|      0b                                       |  .             |                    opcode: "end" (0xb) 0xf2-0xf3 (1)
     |                                               |                |            [1]{}: code 0xf3-0xfb (8)
0x0f0|         07                                    |   .            |              size: 7 (valid) 0xf3-0xf4 (1)
     |                                               |                |              code{}: 0xf4-0xfb (7)
     |                                               |                |                t{}: 0xf4-0xf5 (1)
0x0f0|            00                                 |    .           |                  n: 0 (valid) 0xf4-0xf5 (1)
     |                                               |                |                  x[0:0]: 0xf5-0xf5 (0)
     |                                               |                |                e[0:4]: 0xf5-0xfb (6)
     |                                               |                |                  [0]{}: in 0xf5-0xf7 (2)
0x0f0|               20                              |                |                    opcode: "local.get" (0x20) 0xf5-0xf6 (1)
0x0f0|                  00                           |      .         |                    x: 0 (valid) 0xf6-0xf7 (1)
     |                                               |                |                  [1]{}: in 0xf7-0xf9 (2)
0x0f0|                     fd                        |       .        |                    opcode: "vector" (0xfd) 0xf7-0xf8 (1)
0x0f0|                        10                     |        .       |                    v_opcode: "i16x8.splat" (16) 0xf8-0xf9 (1)
     |                                               |                |                  [2]{}: in 0xf9-0xfa (1)
0x0f0|                           0f                  |         .      |                    opcode: "return" (0xf) 0xf9-0xfa (1)
     |                                               |                |                  [3]{}: in 0xfa-0xfb (1)
0x0f0|                              0b               |          .     |                    opcode: "end" (0xb) 0xfa-0xfb (1)
     |                                               |                |            [2]{}: code 0xfb-0x109 (14)
0x0f0|                                 0d            |           .    |              size: 13 (valid) 0xfb-0xfc (1)
     |                                               |                |              code{}: 0xfc-0x109 (13)
     |                                               |                |                t{}: 0xfc-0xff (3)
0x0f0|                                    01         |            .   |                  n: 1 (valid) 0xfc-0xfd (1)
     |                                               |                |                  x[0:1]: 0xfd-0xff (2)
     |                                               |                |                    [0]{}: t 0xfd-0xff (2)
0x0f0|                                       01      |             .  |                      n: 1 (valid) 0xfd-0xfe (1)
0x0f0|                                          7b   |              { |                      t: "v128" (0x7b) 0xfe-0xff (1)
     |                                               |                |                e[0:6]: 0xff-0x109 (10)
     |                                               |                |                  [0]{}: in 0xff-0x101 (2)
0x0f0|                                             20|                |                    opcode: "local.get" (0x20) 0xff-0x100 (1)
0x100|00                                             |.               |                    x: 0 (valid) 0x100-0x101 (1)
     |                                               |                |                  [1]{}: in 0x101-0x103 (2)
0x100|   fd                                          | .              |                    opcode: "vector" (0xfd) 0x101-0x102 (1)
0x100|      11                                       |  .             |                    v_opcode: "i32x4.splat" (17) 0x102-0x103 (1)
     |                                               |                |                  [2]{}: in 0x103-0x105 (2)
0x100|         21                                    |   !            |                    opcode: "local.set" (0x21) 0x103-0x104 (1)
0x100|            01                                 |    .           |                    x: 1 (valid) 0x104-0x105 (1)
     |                                               |                |                  [3]{}: in 0x105-0x107 (2)
0x100|               20                              |                |                    opcode: "local.get" (0x20) 0x105-0x106 (1)
0x100|                  01                           |      .         |                    x: 1 (valid) 0x106-0x107 (1)
     |                                               |                |                  [4]{}: in 0x107-0x108 (1)
0x100|                     0f                        |       .        |                    opcode: "return" (0xf) 0x107-0x108 (1)
     |                                               |                |                  [5]{}: in 0x108-0x109 (1)
0x100|                        0b                     |        .       |                    opcode: "end" (0xb) 0x108-0x109 (1)
     |                                               |                |            [3]{}: code 0x109-0x115 (12)
0x100|                           0b                  |         .      |              size: 11 (valid) 0x109-0x10a (1)
     |                                               |                |              code{}: 0x10a-0x115 (11)
     |                                               |                |                t{}: 0x10a-0x10b (1)
0x100|                              00               |          .     |                  n: 0 (valid) 0x10a-0x10b (1)
     |                                               |                |                  x[0:0]: 0x10b-0x10b (0)
     |                                               |                |                e[0:6]: 0x10b-0x115 (10)
     |                                               |                |                  [0]{}: in 0x10b-0x10d (2)
0x100|                                 20            |                |                    opcode: "local.get" (0x20) 0x10b-0x10c (1)
0x100|                                    00         |            .   |                    x: 0 (valid) 0x10c-0x10d (1)
     |                                               |                |                  [1]{}: in 0x10d-0x10f (2)
0x100|                                       fd      |             .  |                    opcode: "vector" (0xfd) 0x10d-0x10e (1)
0x100|                                          13   |              . |                    v_opcode: "f32x4.splat" (19) 0x10e-0x10f (1)
     |                                               |                |                  [2]{}: in 0x10f-0x111 (2)
0x100|                                             24|               $|                    opcode: "global.set" (0x24) 0x10f-0x110 (1)
0x110|00                                             |.               |                    x: 0 (valid) 0x110-0x111 (1)
     |                                               |                |                  [3]{}: in 0x111-0x113 (2)
0x110|   23                                          | #              |                    opcode: "global.get" (0x23) 0x111-0x112 (1)
0x110|      00                                       |  .             |                    x: 0 (valid) 0x112-0x113 (1)
     |                                               |                |                  [4]{}: in 0x113-0x114 (1)
0x110|         0f                                    |   .            |                    opcode: "return" (0xf) 0x113-0x114 (1)
     |                                               |                |                  [5]{}: in 0x114-0x115 (1)
0x110|            0b                                 |    .           |                    opcode: "end" (0xb) 0x114-0x115 (1)
     |                                               |                |            [4]{}: code 0x115-0x121 (12)
0x110|               0b                              |     .          |              size: 11 (valid) 0x115-0x116 (1)
     |                                               |                |              code{}: 0x116-0x121 (11)
     |                                               |                |                t{}: 0x116-0x117 (1)
0x110|                  00                           |      .         |                  n: 0 (valid) 0x116-0x117 (1)
     |                                               |                |                  x[0:0]: 0x117-0x117 (0)
     |                                               |                |                e[0:2]: 0x117-0x121 (10)
     |                                               |                |                  [0]{}: in 0x117-0x120 (9)
0x110|                     02                        |       .        |                    opcode: "block" (0x2) 0x117-0x118 (1)
0x110|                        7b                     |        {       |                    bt: "v128" (123) 0x118-0x119 (1)
     |                                               |                |                    instructions[0:3]: 0x119-0x11f (6)
     |                                               |                |                      [0]{}: instr 0x119-0x11b (2)
0x110|                           20                  |                |                        opcode: "local.get" (0x20) 0x119-0x11a (1)
0x110|                              00               |          .     |                        x: 0 (valid) 0x11a-0x11b (1)
     |                                               |                |                      [1]{}: instr 0x11b-0x11d (2)
0x110|                                 fd            |           .    |                        opcode: "vector" (0xfd) 0x11b-0x11c (1)
0x110|                                    12         |            .   |                        v_opcode: "i64x2.splat" (18) 0x11c-0x11d (1)
     |                                               |                |                      [2]{}: instr 0x11d-0x11f (2)
0x110|                                       0c      |             .  |                        opcode: "br" (0xc) 0x11d-0x11e (1)
0x110|                                          00   |              . |                        l: 0 (valid) 0x11e-0x11f (1)
0x110|                                             0b|               .|                    end: 0xb (valid) 0x11f-0x120 (1)
     |                                               |                |                  [1]{}: in 0x120-0x121 (1)
0x120|0b                                             |.               |                    opcode: "end" (0xb) 0x120-0x121 (1)
     |                                               |                |            [5]{}: code 0x121-0x129 (8)
0x120|   07                                          | .              |              size: 7 (valid) 0x121-0x122 (1)
     |                                               |                |              code{}: 0x122-0x129 (7)
     |                                               |                |                t{}: 0x122-0x123 (1)
0x120|      00                                       |  .             |                  n: 0 (valid) 0x122-0x123 (1)
     |                                               |                |                  x[0:0]: 0x123-0x123 (0)
     |                                               |                |                e[0:4]: 0x123-0x129 (6)
     |                                               |                |                  [0]{}: in 0x123-0x125 (2)
0x120|         20                                    |                |                    opcode: "local.get" (0x20) 0x123-0x124 (1)
0x120|            00                                 |    .           |                    x: 0 (valid) 0x124-0x125 (1)
     |                                               |                |                  [1]{}: in 0x125-0x127 (2)
0x120|               fd                              |     .          |                    opcode: "vector" (0xfd) 0x125-0x126 (1)
0x120|                  12                           |      .         |                    v_opcode: "i64x2.splat" (18) 0x126-0x127 (1)
     |                                               |                |                  [2]{}: in 0x127-0x128 (1)
0x120|                     0f                        |       .        |                    opcode: "return" (0xf) 0x127-0x128 (1)
     |                                               |                |                  [3]{}: in 0x128-0x129 (1)
0x120|                        0b                     |        .       |                    opcode: "end" (0xb) 0x128-0x129 (1)
     |                                               |                |            [6]{}: code 0x129-0x137 (14)
0x120|                           0d                  |         .      |              size: 13 (valid) 0x129-0x12a (1)
     |                                               |                |              code{}: 0x12a-0x137 (13)
     |                                               |                |                t{}: 0x12a-0x12d (3)
0x120|                              01               |          .     |                  n: 1 (valid) 0x12a-0x12b (1)
     |                                               |                |                  x[0:1]: 0x12b-0x12d (2)
     |                                               |                |                    [0]{}: t 0x12b-0x12d (2)
0x120|                                 01            |           .    |                      n: 1 (valid) 0x12b-0x12c (1)
0x120|                                    7b         |            {   |                      t: "v128" (0x7b) 0x12c-0x12d (1)
     |                                               |                |                e[0:6]: 0x12d-0x137 (10)
     |                                               |                |                  [0]{}: in 0x12d-0x12f (2)
0x120|                                       20      |                |                    opcode: "local.get" (0x20) 0x12d-0x12e (1)
0x120|                                          00   |              . |                    x: 0 (valid) 0x12e-0x12f (1)
     |                                               |                |                  [1]{}: in 0x12f-0x131 (2)
0x120|                                             fd|               .|                    opcode: "vector" (0xfd) 0x12f-0x130 (1)
0x130|12                                             |.               |                    v_opcode: "i64x2.splat" (18) 0x130-0x131 (1)
     |                                               |                |                  [2]{}: in 0x131-0x133 (2)
0x130|   21                                          | !              |                    opcode: "local.set" (0x21) 0x131-0x132 (1)
0x130|      01                                       |  .             |                    x: 1 (valid) 0x132-0x133 (1)
     |                                               |                |                  [3]{}: in 0x133-0x135 (2)
0x130|         20                                    |                |                    opcode: "local.get" (0x20) 0x133-0x134 (1)
0x130|            01                                 |    .           |                    x: 1 (valid) 0x134-0x135 (1)
     |                                               |                |                  [4]{}: in 0x135-0x136 (1)
0x130|               0f                              |     .          |                    opcode: "return" (0xf) 0x135-0x136 (1)
     |                                               |                |                  [5]{}: in 0x136-0x137 (1)
0x130|                  0b                           |      .         |                    opcode: "end" (0xb) 0x136-0x137 (1)
     |                                               |                |            [7]{}: code 0x137-0x143 (12)
0x130|                     0b                        |       .        |              size: 11 (valid) 0x137-0x138 (1)
     |                                               |                |              code{}: 0x138-0x143 (11)
     |                                               |                |                t{}: 0x138-0x139 (1)
0x130|                        00                     |        .       |                  n: 0 (valid) 0x138-0x139 (1)
     |                                               |                |                  x[0:0]: 0x139-0x139 (0)
     |                                               |                |                e[0:6]: 0x139-0x143 (10)
     |                                               |                |                  [0]{}: in 0x139-0x13b (2)
0x130|                           20                  |                |                    opcode: "local.get" (0x20) 0x139-0x13a (1)
0x130|                              00               |          .     |                    x: 0 (valid) 0x13a-0x13b (1)
     |                                               |                |                  [1]{}: in 0x13b-0x13d (2)
0x130|                                 fd            |           .    |                    opcode: "vector" (0xfd) 0x13b-0x13c (1)
0x130|                                    14         |            .   |                    v_opcode: "f64x2.splat" (20) 0x13c-0x13d (1)
     |                                               |                |                  [2]{}: in 0x13d-0x13f (2)
0x130|                                       24      |             $  |                    opcode: "global.set" (0x24) 0x13d-0x13e (1)
0x130|                                          00   |              . |                    x: 0 (valid) 0x13e-0x13f (1)
     |                                               |                |                  [3]{}: in 0x13f-0x141 (2)
0x130|                                             23|               #|                    opcode: "global.get" (0x23) 0x13f-0x140 (1)
0x140|00                                             |.               |                    x: 0 (valid) 0x140-0x141 (1)
     |                                               |                |                  [4]{}: in 0x141-0x142 (1)
0x140|   0f                                          | .              |                    opcode: "return" (0xf) 0x141-0x142 (1)
     |                                               |                |                  [5]{}: in 0x142-0x143 (1)
0x140|      0b|                                      |  .|            |                    opcode: "end" (0xb) 0x142-0x143 (1)
