$ fq -d wasm dv simd_i64x2_arith2-0.wasm
    |00 01 02 03 04 05 06 07 08 09 0a 0b 0c 0d 0e 0f|0123456789abcdef|.{}: simd_i64x2_arith2-0.wasm (wasm) 0x0-0x63.7 (100)
0x00|00 61 73 6d                                    |.asm            |  magic: raw bits (valid) 0x0-0x3.7 (4)
0x00|            01 00 00 00                        |    ....        |  version: 1 0x4-0x7.7 (4)
    |                                               |                |  sections[0:4]: 0x8-0x63.7 (92)
    |                                               |                |    [0]{}: section 0x8-0x13.7 (12)
0x00|                        01                     |        .       |      id: "type section" (1) 0x8-0x8.7 (1)
0x00|                           0a                  |         .      |      size: 10 0x9-0x9.7 (1)
    |                                               |                |      content{}: 0xa-0x13.7 (10)
    |                                               |                |        ft{}: 0xa-0x13.7 (10)
0x00|                              02               |          .     |          n: 2 0xa-0xa.7 (1)
    |                                               |                |          x[0:2]: 0xb-0x13.7 (9)
    |                                               |                |            [0]{}: ft 0xb-0xf.7 (5)
0x00|                                 60            |           `    |              tag: 0x60 (valid) 0xb-0xb.7 (1)
    |                                               |                |              rt1{}: 0xc-0xd.7 (2)
0x00|                                    01         |            .   |                n: 1 0xc-0xc.7 (1)
    |                                               |                |                x[0:1]: 0xd-0xd.7 (1)
0x00|                                       7b      |             {  |                  [0]: "v128" (0x7b) t 0xd-0xd.7 (1)
    |                                               |                |              rt2{}: 0xe-0xf.7 (2)
0x00|                                          01   |              . |                n: 1 0xe-0xe.7 (1)
    |                                               |                |                x[0:1]: 0xf-0xf.7 (1)
0x00|                                             7b|               {|                  [0]: "v128" (0x7b) t 0xf-0xf.7 (1)
    |                                               |                |            [1]{}: ft 0x10-0x13.7 (4)
0x10|60                                             |`               |              tag: 0x60 (valid) 0x10-0x10.7 (1)
    |                                               |                |              rt1{}: 0x11-0x11.7 (1)
0x10|   00                                          | .              |                n: 0 0x11-0x11.7 (1)
    |                                               |                |                x[0:0]: 0x12-NA (0)
    |                                               |                |              rt2{}: 0x12-0x13.7 (2)
0x10|      01                                       |  .             |                n: 1 0x12-0x12.7 (1)
    |                                               |                |                x[0:1]: 0x13-0x13.7 (1)
0x10|         7b                                    |   {            |                  [0]: "v128" (0x7b) t 0x13-0x13.7 (1)
    |                                               |                |    [1]{}: section 0x14-0x18.7 (5)
0x10|            03                                 |    .           |      id: "function section" (3) 0x14-0x14.7 (1)
0x10|               03                              |     .          |      size: 3 0x15-0x15.7 (1)
    |                                               |                |      content{}: 0x16-0x18.7 (3)
    |                                               |                |        x{}: 0x16-0x18.7 (3)
0x10|                  02                           |      .         |          n: 2 0x16-0x16.7 (1)
    |                                               |                |          x[0:2]: 0x17-0x18.7 (2)
0x10|                     00                        |       .        |            [0]: 0 x 0x17-0x17.7 (1)
0x10|                        01                     |        .       |            [1]: 1 x 0x18-0x18.7 (1)
    |                                               |                |    [2]{}: section 0x19-0x40.7 (40)
0x10|                           07                  |         .      |      id: "export section" (7) 0x19-0x19.7 (1)
0x10|                              26               |          &     |      size: 38 0x1a-0x1a.7 (1)
    |                                               |                |      content{}: 0x1b-0x40.7 (38)
    |                                               |                |        ex{}: 0x1b-0x40.7 (38)
0x10|                                 02            |           .    |          n: 2 0x1b-0x1b.7 (1)
    |                                               |                |          x[0:2]: 0x1c-0x40.7 (37)
    |                                               |                |            [0]{}: ex 0x1c-0x27.7 (12)
    |                                               |                |              nm{}: 0x1c-0x25.7 (10)
0x10|                                    09         |            .   |                n: 9 0x1c-0x1c.7 (1)
0x10|                                       69 36 34|             i64|                b: "i64x2.abs" 0x1d-0x25.7 (9)
0x20|78 32 2e 61 62 73                              |x2.abs          |
    |                                               |                |              d{}: 0x26-0x27.7 (2)
0x20|                  00                           |      .         |                tag: "funcidx" (0x0) 0x26-0x26.7 (1)
0x20|                     00                        |       .        |                x: 0 0x27-0x27.7 (1)
    |                                               |                |            [1]{}: ex 0x28-0x40.7 (25)
    |                                               |                |              nm{}: 0x28-0x3e.7 (23)
0x20|                        16                     |        .       |                n: 22 0x28-0x28.7 (1)
0x20|                           69 36 34 78 32 2e 61|         i64x2.a|                b: "i64x2.abs_with_const_0" 0x29-0x3e.7 (22)
0x30|62 73 5f 77 69 74 68 5f 63 6f 6e 73 74 5f 30   |bs_with_const_0 |
    |                                               |                |              d{}: 0x3f-0x40.7 (2)
0x30|                                             00|               .|                tag: "funcidx" (0x0) 0x3f-0x3f.7 (1)
0x40|01                                             |.               |                x: 1 0x40-0x40.7 (1)
    |                                               |                |    [3]{}: section 0x41-0x63.7 (35)
0x40|   0a                                          | .              |      id: "code section" (10) 0x41-0x41.7 (1)
0x40|      21                                       |  !             |      size: 33 0x42-0x42.7 (1)
    |                                               |                |      content{}: 0x43-0x63.7 (33)
    |                                               |                |        code{}: 0x43-0x63.7 (33)
0x40|         02                                    |   .            |          n: 2 0x43-0x43.7 (1)
    |                                               |                |          x[0:2]: 0x44-0x63.7 (32)
    |                                               |                |            [0]{}: code 0x44-0x4b.7 (8)
0x40|            07                                 |    .           |              size: 7 0x44-0x44.7 (1)
    |                                               |                |              code{}: 0x45-0x4b.7 (7)
    |                                               |                |                t{}: 0x45-0x45.7 (1)
0x40|               00                              |     .          |                  n: 0 0x45-0x45.7 (1)
    |                                               |                |                  x[0:0]: 0x46-NA (0)
    |                                               |                |                e[0:3]: 0x46-0x4b.7 (6)
    |                                               |                |                  [0]{}: in 0x46-0x47.7 (2)
0x40|                  20                           |                |                    local.get: 0x20 (valid) 0x46-0x46.7 (1)
0x40|                     00                        |       .        |                    x: 0 0x47-0x47.7 (1)
    |                                               |                |                  [1]{}: in 0x48-0x4a.7 (3)
0x40|                        fd                     |        .       |                    prefix: 0xfd (valid) 0x48-0x48.7 (1)
0x40|                           c0 01               |         ..     |                    i64x2.abs: 192 (valid) 0x49-0x4a.7 (2)
    |                                               |                |                  [2]{}: in 0x4b-0x4b.7 (1)
0x40|                                 0b            |           .    |                    end: 0xb (valid) 0x4b-0x4b.7 (1)
    |                                               |                |            [1]{}: code 0x4c-0x63.7 (24)
0x40|                                    17         |            .   |              size: 23 0x4c-0x4c.7 (1)
    |                                               |                |              code{}: 0x4d-0x63.7 (23)
    |                                               |                |                t{}: 0x4d-0x4d.7 (1)
0x40|                                       00      |             .  |                  n: 0 0x4d-0x4d.7 (1)
    |                                               |                |                  x[0:0]: 0x4e-NA (0)
    |                                               |                |                e[0:3]: 0x4e-0x63.7 (22)
    |                                               |                |                  [0]{}: in 0x4e-0x5f.7 (18)
0x40|                                          fd   |              . |                    prefix: 0xfd (valid) 0x4e-0x4e.7 (1)
0x40|                                             0c|               .|                    v128.const: 12 (valid) 0x4f-0x4f.7 (1)
0x50|00 00 00 00 00 00 00 80 ff ff ff ff ff ff ff 7f|................|                    bytes: raw bits 0x50-0x5f.7 (16)
    |                                               |                |                  [1]{}: in 0x60-0x62.7 (3)
0x60|fd                                             |.               |                    prefix: 0xfd (valid) 0x60-0x60.7 (1)
0x60|   c0 01                                       | ..             |                    i64x2.abs: 192 (valid) 0x61-0x62.7 (2)
    |                                               |                |                  [2]{}: in 0x63-0x63.7 (1)
0x60|         0b|                                   |   .|           |                    end: 0xb (valid) 0x63-0x63.7 (1)
