$ fq -d wasm dv simd_f32x4_rounding-0.wasm
    |00 01 02 03 04 05 06 07 08 09 0a 0b 0c 0d 0e 0f|0123456789abcdef|.{}: simd_f32x4_rounding-0.wasm (wasm) 0x0-0x72 (114)
0x00|00 61 73 6d                                    |.asm            |  magic: raw bits (valid) 0x0-0x4 (4)
0x00|            01 00 00 00                        |    ....        |  version: 1 0x4-0x8 (4)
    |                                               |                |  sections[0:4]: 0x8-0x72 (106)
    |                                               |                |    [0]{}: section 0x8-0x10 (8)
0x00|                        01                     |        .       |      id: "type_section" (1) 0x8-0x9 (1)
0x00|                           06                  |         .      |      size: 6 (valid) 0x9-0xa (1)
    |                                               |                |      content{}: 0xa-0x10 (6)
    |                                               |                |        ft{}: 0xa-0x10 (6)
0x00|                              01               |          .     |          n: 1 (valid) 0xa-0xb (1)
    |                                               |                |          x[0:1]: 0xb-0x10 (5)
    |                                               |                |            [0]{}: ft 0xb-0x10 (5)
0x00|                                 60            |           `    |              tag: 0x60 (valid) 0xb-0xc (1)
    |                                               |                |              rt1{}: 0xc-0xe (2)
0x00|                                    01         |            .   |                n: 1 (valid) 0xc-0xd (1)
    |                                               |                |                x[0:1]: 0xd-0xe (1)
0x00|                                       7b      |             {  |                  [0]: "v128" (0x7b) t 0xd-0xe (1)
    |                                               |                |              rt2{}: 0xe-0x10 (2)
0x00|                                          01   |              . |                n: 1 (valid) 0xe-0xf (1)
    |                                               |                |                x[0:1]: 0xf-0x10 (1)
0x00|                                             7b|               {|                  [0]: "v128" (0x7b) t 0xf-0x10 (1)
    |                                               |                |    [1]{}: section 0x10-0x17 (7)
0x10|03                                             |.               |      id: "function_section" (3) 0x10-0x11 (1)
0x10|   05                                          | .              |      size: 5 (valid) 0x11-0x12 (1)
    |                                               |                |      content{}: 0x12-0x17 (5)
    |                                               |                |        x{}: 0x12-0x17 (5)
0x10|      04                                       |  .             |          n: 4 (valid) 0x12-0x13 (1)
    |                                               |                |          x[0:4]: 0x13-0x17 (4)
0x10|         00                                    |   .            |            [0]: 0 x (valid) 0x13-0x14 (1)
0x10|            00                                 |    .           |            [1]: 0 x (valid) 0x14-0x15 (1)
0x10|               00                              |     .          |            [2]: 0 x (valid) 0x15-0x16 (1)
0x10|                  00                           |      .         |            [3]: 0 x (valid) 0x16-0x17 (1)
    |                                               |                |    [2]{}: section 0x17-0x53 (60)
0x10|                     07                        |       .        |      id: "export_section" (7) 0x17-0x18 (1)
0x10|                        3a                     |        :       |      size: 58 (valid) 0x18-0x19 (1)
    |                                               |                |      content{}: 0x19-0x53 (58)
    |                                               |                |        ex{}: 0x19-0x53 (58)
0x10|                           04                  |         .      |          n: 4 (valid) 0x19-0x1a (1)
    |                                               |                |          x[0:4]: 0x1a-0x53 (57)
    |                                               |                |            [0]{}: ex 0x1a-0x27 (13)
    |                                               |                |              nm{}: 0x1a-0x25 (11)
0x10|                              0a               |          .     |                n: 10 (valid) 0x1a-0x1b (1)
0x10|                                 66 33 32 78 34|           f32x4|                b: "f32x4.ceil" 0x1b-0x25 (10)
0x20|2e 63 65 69 6c                                 |.ceil           |
    |                                               |                |              d{}: 0x25-0x27 (2)
0x20|               00                              |     .          |                tag: "funcidx" (0x0) 0x25-0x26 (1)
0x20|                  00                           |      .         |                x: 0 (valid) 0x26-0x27 (1)
    |                                               |                |            [1]{}: ex 0x27-0x35 (14)
    |                                               |                |              nm{}: 0x27-0x33 (12)
0x20|                     0b                        |       .        |                n: 11 (valid) 0x27-0x28 (1)
0x20|                        66 33 32 78 34 2e 66 6c|        f32x4.fl|                b: "f32x4.floor" 0x28-0x33 (11)
0x30|6f 6f 72                                       |oor             |
    |                                               |                |              d{}: 0x33-0x35 (2)
0x30|         00                                    |   .            |                tag: "funcidx" (0x0) 0x33-0x34 (1)
0x30|            01                                 |    .           |                x: 1 (valid) 0x34-0x35 (1)
    |                                               |                |            [2]{}: ex 0x35-0x43 (14)
    |                                               |                |              nm{}: 0x35-0x41 (12)
0x30|               0b                              |     .          |                n: 11 (valid) 0x35-0x36 (1)
0x30|                  66 33 32 78 34 2e 74 72 75 6e|      f32x4.trun|                b: "f32x4.trunc" 0x36-0x41 (11)
0x40|63                                             |c               |
    |                                               |                |              d{}: 0x41-0x43 (2)
0x40|   00                                          | .              |                tag: "funcidx" (0x0) 0x41-0x42 (1)
0x40|      02                                       |  .             |                x: 2 (valid) 0x42-0x43 (1)
    |                                               |                |            [3]{}: ex 0x43-0x53 (16)
    |                                               |                |              nm{}: 0x43-0x51 (14)
0x40|         0d                                    |   .            |                n: 13 (valid) 0x43-0x44 (1)
0x40|            66 33 32 78 34 2e 6e 65 61 72 65 73|    f32x4.neares|                b: "f32x4.nearest" 0x44-0x51 (13)
0x50|74                                             |t               |
    |                                               |                |              d{}: 0x51-0x53 (2)
0x50|   00                                          | .              |                tag: "funcidx" (0x0) 0x51-0x52 (1)
0x50|      03                                       |  .             |                x: 3 (valid) 0x52-0x53 (1)
    |                                               |                |    [3]{}: section 0x53-0x72 (31)
0x50|         0a                                    |   .            |      id: "code_section" (10) 0x53-0x54 (1)
0x50|            1d                                 |    .           |      size: 29 (valid) 0x54-0x55 (1)
    |                                               |                |      content{}: 0x55-0x72 (29)
    |                                               |                |        code{}: 0x55-0x72 (29)
0x50|               04                              |     .          |          n: 4 (valid) 0x55-0x56 (1)
    |                                               |                |          x[0:4]: 0x56-0x72 (28)
    |                                               |                |            [0]{}: code 0x56-0x5d (7)
0x50|                  06                           |      .         |              size: 6 (valid) 0x56-0x57 (1)
    |                                               |                |              code{}: 0x57-0x5d (6)
    |                                               |                |                t{}: 0x57-0x58 (1)
0x50|                     00                        |       .        |                  n: 0 (valid) 0x57-0x58 (1)
    |                                               |                |                  x[0:0]: 0x58-0x58 (0)
    |                                               |                |                e[0:3]: 0x58-0x5d (5)
    |                                               |                |                  [0]{}: in 0x58-0x5a (2)
0x50|                        20                     |                |                    opcode: "local.get" (0x20) 0x58-0x59 (1)
0x50|                           00                  |         .      |                    x: 0 (valid) 0x59-0x5a (1)
    |                                               |                |                  [1]{}: in 0x5a-0x5c (2)
0x50|                              fd               |          .     |                    opcode: "vector" (0xfd) 0x5a-0x5b (1)
0x50|                                 67            |           g    |                    v_opcode: "f32x4.ceil" (103) 0x5b-0x5c (1)
    |                                               |                |                  [2]{}: in 0x5c-0x5d (1)
0x50|                                    0b         |            .   |                    opcode: "end" (0xb) 0x5c-0x5d (1)
    |                                               |                |            [1]{}: code 0x5d-0x64 (7)
0x50|                                       06      |             .  |              size: 6 (valid) 0x5d-0x5e (1)
    |                                               |                |              code{}: 0x5e-0x64 (6)
    |                                               |                |                t{}: 0x5e-0x5f (1)
0x50|                                          00   |              . |                  n: 0 (valid) 0x5e-0x5f (1)
    |                                               |                |                  x[0:0]: 0x5f-0x5f (0)
    |                                               |                |                e[0:3]: 0x5f-0x64 (5)
    |                                               |                |                  [0]{}: in 0x5f-0x61 (2)
0x50|                                             20|                |                    opcode: "local.get" (0x20) 0x5f-0x60 (1)
0x60|00                                             |.               |                    x: 0 (valid) 0x60-0x61 (1)
    |                                               |                |                  [1]{}: in 0x61-0x63 (2)
0x60|   fd                                          | .              |                    opcode: "vector" (0xfd) 0x61-0x62 (1)
0x60|      68                                       |  h             |                    v_opcode: "f32x4.floor" (104) 0x62-0x63 (1)
    |                                               |                |                  [2]{}: in 0x63-0x64 (1)
0x60|         0b                                    |   .            |                    opcode: "end" (0xb) 0x63-0x64 (1)
    |                                               |                |            [2]{}: code 0x64-0x6b (7)
0x60|            06                                 |    .           |              size: 6 (valid) 0x64-0x65 (1)
    |                                               |                |              code{}: 0x65-0x6b (6)
    |                                               |                |                t{}: 0x65-0x66 (1)
0x60|               00                              |     .          |                  n: 0 (valid) 0x65-0x66 (1)
    |                                               |                |                  x[0:0]: 0x66-0x66 (0)
    |                                               |                |                e[0:3]: 0x66-0x6b (5)
    |                                               |                |                  [0]{}: in 0x66-0x68 (2)
0x60|                  20                           |                |                    opcode: "local.get" (0x20) 0x66-0x67 (1)
0x60|                     00                        |       .        |                    x: 0 (valid) 0x67-0x68 (1)
    |                                               |                |                  [1]{}: in 0x68-0x6a (2)
0x60|                        fd                     |        .       |                    opcode: "vector" (0xfd) 0x68-0x69 (1)
0x60|                           69                  |         i      |                    v_opcode: "f32x4.trunc" (105) 0x69-0x6a (1)
    |                                               |                |                  [2]{}: in 0x6a-0x6b (1)
0x60|                              0b               |          .     |                    opcode: "end" (0xb) 0x6a-0x6b (1)
    |                                               |                |            [3]{}: code 0x6b-0x72 (7)
0x60|                                 06            |           .    |              size: 6 (valid) 0x6b-0x6c (1)
    |                                               |                |              code{}: 0x6c-0x72 (6)
    |                                               |                |                t{}: 0x6c-0x6d (1)
0x60|                                    00         |            .   |                  n: 0 (valid) 0x6c-0x6d (1)
    |                                               |                |                  x[0:0]: 0x6d-0x6d (0)
    |                                               |                |                e[0:3]: 0x6d-0x72 (5)
    |                                               |                |                  [0]{}: in 0x6d-0x6f (2)
0x60|                                       20      |                |                    opcode: "local.get" (0x20) 0x6d-0x6e (1)
0x60|                                          00   |              . |                    x: 0 (valid) 0x6e-0x6f (1)
    |                                               |                |                  [1]{}: in 0x6f-0x71 (2)
0x60|                                             fd|               .|                    opcode: "vector" (0xfd) 0x6f-0x70 (1)
0x70|6a                                             |j               |                    v_opcode: "f32x4.nearest" (106) 0x70-0x71 (1)
    |                                               |                |                  [2]{}: in 0x71-0x72 (1)
0x70|   0b|                                         | .|             |                    opcode: "end" (0xb) 0x71-0x72 (1)
