$ fq -d wasm dv simd_i16x8_extmul_i8x16-0.wasm
    |00 01 02 03 04 05 06 07 08 09 0a 0b 0c 0d 0e 0f|0123456789abcdef|.{}: simd_i16x8_extmul_i8x16-0.wasm (wasm) 0x0-0xb4 (180)
0x00|00 61 73 6d                                    |.asm            |  magic: raw bits (valid) 0x0-0x4 (4)
0x00|            01 00 00 00                        |    ....        |  version: 1 0x4-0x8 (4)
    |                                               |                |  sections[0:4]: 0x8-0xb4 (172)
    |                                               |                |    [0]{}: section 0x8-0x11 (9)
0x00|                        01                     |        .       |      id: "type_section" (1) 0x8-0x9 (1)
0x00|                           07                  |         .      |      size: 7 (valid) 0x9-0xa (1)
    |                                               |                |      content{}: 0xa-0x11 (7)
    |                                               |                |        ft{}: 0xa-0x11 (7)
0x00|                              01               |          .     |          n: 1 (valid) 0xa-0xb (1)
    |                                               |                |          x[0:1]: 0xb-0x11 (6)
    |                                               |                |            [0]{}: ft 0xb-0x11 (6)
0x00|                                 60            |           `    |              tag: 0x60 (valid) 0xb-0xc (1)
    |                                               |                |              rt1{}: 0xc-0xf (3)
0x00|                                    02         |            .   |                n: 2 (valid) 0xc-0xd (1)
    |                                               |                |                x[0:2]: 0xd-0xf (2)
0x00|                                       7b      |             {  |                  [0]: "v128" (0x7b) t 0xd-0xe (1)
0x00|                                          7b   |              { |                  [1]: "v128" (0x7b) t 0xe-0xf (1)
    |                                               |                |              rt2{}: 0xf-0x11 (2)
0x00|                                             01|               .|                n: 1 (valid) 0xf-0x10 (1)
    |                                               |                |                x[0:1]: 0x10-0x11 (1)
0x10|7b                                             |{               |                  [0]: "v128" (0x7b) t 0x10-0x11 (1)
    |                                               |                |    [1]{}: section 0x11-0x18 (7)
0x10|   03                                          | .              |      id: "function_section" (3) 0x11-0x12 (1)
0x10|      05                                       |  .             |      size: 5 (valid) 0x12-0x13 (1)
    |                                               |                |      content{}: 0x13-0x18 (5)
    |                                               |                |        x{}: 0x13-0x18 (5)
0x10|         04                                    |   .            |          n: 4 (valid) 0x13-0x14 (1)
    |                                               |                |          x[0:4]: 0x14-0x18 (4)
0x10|            00                                 |    .           |            [0]: 0 x (valid) 0x14-0x15 (1)
0x10|               00                              |     .          |            [1]: 0 x (valid) 0x15-0x16 (1)
0x10|                  00                           |      .         |            [2]: 0 x (valid) 0x16-0x17 (1)
0x10|                     00                        |       .        |            [3]: 0 x (valid) 0x17-0x18 (1)
    |                                               |                |    [2]{}: section 0x18-0x89 (113)
0x10|                        07                     |        .       |      id: "export_section" (7) 0x18-0x19 (1)
0x10|                           6f                  |         o      |      size: 111 (valid) 0x19-0x1a (1)
    |                                               |                |      content{}: 0x1a-0x89 (111)
    |                                               |                |        ex{}: 0x1a-0x89 (111)
0x10|                              04               |          .     |          n: 4 (valid) 0x1a-0x1b (1)
    |                                               |                |          x[0:4]: 0x1b-0x89 (110)
    |                                               |                |            [0]{}: ex 0x1b-0x36 (27)
    |                                               |                |              nm{}: 0x1b-0x34 (25)
0x10|                                 18            |           .    |                n: 24 (valid) 0x1b-0x1c (1)
0x10|                                    69 31 36 78|            i16x|                b: "i16x8.extmul_low_i8x16_s" 0x1c-0x34 (24)
0x20|38 2e 65 78 74 6d 75 6c 5f 6c 6f 77 5f 69 38 78|8.extmul_low_i8x|
0x30|31 36 5f 73                                    |16_s            |
    |                                               |                |              d{}: 0x34-0x36 (2)
0x30|            00                                 |    .           |                tag: "funcidx" (0x0) 0x34-0x35 (1)
0x30|               00                              |     .          |                x: 0 (valid) 0x35-0x36 (1)
    |                                               |                |            [1]{}: ex 0x36-0x52 (28)
    |                                               |                |              nm{}: 0x36-0x50 (26)
0x30|                  19                           |      .         |                n: 25 (valid) 0x36-0x37 (1)
0x30|                     69 31 36 78 38 2e 65 78 74|       i16x8.ext|                b: "i16x8.extmul_high_i8x16_s" 0x37-0x50 (25)
0x40|6d 75 6c 5f 68 69 67 68 5f 69 38 78 31 36 5f 73|mul_high_i8x16_s|
    |                                               |                |              d{}: 0x50-0x52 (2)
0x50|00                                             |.               |                tag: "funcidx" (0x0) 0x50-0x51 (1)
0x50|   01                                          | .              |                x: 1 (valid) 0x51-0x52 (1)
    |                                               |                |            [2]{}: ex 0x52-0x6d (27)
    |                                               |                |              nm{}: 0x52-0x6b (25)
0x50|      18                                       |  .             |                n: 24 (valid) 0x52-0x53 (1)
0x50|         69 31 36 78 38 2e 65 78 74 6d 75 6c 5f|   i16x8.extmul_|                b: "i16x8.extmul_low_i8x16_u" 0x53-0x6b (24)
0x60|6c 6f 77 5f 69 38 78 31 36 5f 75               |low_i8x16_u     |
    |                                               |                |              d{}: 0x6b-0x6d (2)
0x60|                                 00            |           .    |                tag: "funcidx" (0x0) 0x6b-0x6c (1)
0x60|                                    02         |            .   |                x: 2 (valid) 0x6c-0x6d (1)
    |                                               |                |            [3]{}: ex 0x6d-0x89 (28)
    |                                               |                |              nm{}: 0x6d-0x87 (26)
0x60|                                       19      |             .  |                n: 25 (valid) 0x6d-0x6e (1)
0x60|                                          69 31|              i1|                b: "i16x8.extmul_high_i8x16_u" 0x6e-0x87 (25)
0x70|36 78 38 2e 65 78 74 6d 75 6c 5f 68 69 67 68 5f|6x8.extmul_high_|
0x80|69 38 78 31 36 5f 75                           |i8x16_u         |
    |                                               |                |              d{}: 0x87-0x89 (2)
0x80|                     00                        |       .        |                tag: "funcidx" (0x0) 0x87-0x88 (1)
0x80|                        03                     |        .       |                x: 3 (valid) 0x88-0x89 (1)
    |                                               |                |    [3]{}: section 0x89-0xb4 (43)
0x80|                           0a                  |         .      |      id: "code_section" (10) 0x89-0x8a (1)
0x80|                              29               |          )     |      size: 41 (valid) 0x8a-0x8b (1)
    |                                               |                |      content{}: 0x8b-0xb4 (41)
    |                                               |                |        code{}: 0x8b-0xb4 (41)
0x80|                                 04            |           .    |          n: 4 (valid) 0x8b-0x8c (1)
    |                                               |                |          x[0:4]: 0x8c-0xb4 (40)
    |                                               |                |            [0]{}: code 0x8c-0x96 (10)
0x80|                                    09         |            .   |              size: 9 (valid) 0x8c-0x8d (1)
    |                                               |                |              code{}: 0x8d-0x96 (9)
    |                                               |                |                t{}: 0x8d-0x8e (1)
0x80|                                       00      |             .  |                  n: 0 (valid) 0x8d-0x8e (1)
    |                                               |                |                  x[0:0]: 0x8e-0x8e (0)
    |                                               |                |                e[0:4]: 0x8e-0x96 (8)
    |                                               |                |                  [0]{}: in 0x8e-0x90 (2)
0x80|                                          20   |                |                    opcode: "local.get" (0x20) 0x8e-0x8f (1)
0x80|                                             00|               .|                    x: 0 (valid) 0x8f-0x90 (1)
    |                                               |                |                  [1]{}: in 0x90-0x92 (2)
0x90|20                                             |                |                    opcode: "local.get" (0x20) 0x90-0x91 (1)
0x90|   01                                          | .              |                    x: 1 (valid) 0x91-0x92 (1)
    |                                               |                |                  [2]{}: in 0x92-0x95 (3)
0x90|      fd                                       |  .             |                    opcode: "vector" (0xfd) 0x92-0x93 (1)
0x90|         9c 01                                 |   ..           |                    v_opcode: "i16x8.extmul_low_i8x16_s" (156) 0x93-0x95 (2)
    |                                               |                |                  [3]{}: in 0x95-0x96 (1)
0x90|               0b                              |     .          |                    opcode: "end" (0xb) 0x95-0x96 (1)
    |                                               |                |            [1]{}: code 0x96-0xa0 (10)
0x90|                  09                           |      .         |              size: 9 (valid) 0x96-0x97 (1)
    |                                               |                |              code{}: 0x97-0xa0 (9)
    |                                               |                |                t{}: 0x97-0x98 (1)
0x90|                     00                        |       .        |                  n: 0 (valid) 0x97-0x98 (1)
    |                                               |                |                  x[0:0]: 0x98-0x98 (0)
    |                                               |                |                e[0:4]: 0x98-0xa0 (8)
    |                                               |                |                  [0]{}: in 0x98-0x9a (2)
0x90|                        20                     |                |                    opcode: "local.get" (0x20) 0x98-0x99 (1)
0x90|                           00                  |         .      |                    x: 0 (valid) 0x99-0x9a (1)
    |                                               |                |                  [1]{}: in 0x9a-0x9c (2)
0x90|                              20               |                |                    opcode: "local.get" (0x20) 0x9a-0x9b (1)
0x90|                                 01            |           .    |                    x: 1 (valid) 0x9b-0x9c (1)
    |                                               |                |                  [2]{}: in 0x9c-0x9f (3)
0x90|                                    fd         |            .   |                    opcode: "vector" (0xfd) 0x9c-0x9d (1)
0x90|                                       9d 01   |             .. |                    v_opcode: "i16x8.extmul_high_i8x16_s" (157) 0x9d-0x9f (2)
    |                                               |                |                  [3]{}: in 0x9f-0xa0 (1)
0x90|                                             0b|               .|                    opcode: "end" (0xb) 0x9f-0xa0 (1)
    |                                               |                |            [2]{}: code 0xa0-0xaa (10)
0xa0|09                                             |.               |              size: 9 (valid) 0xa0-0xa1 (1)
    |                                               |                |              code{}: 0xa1-0xaa (9)
    |                                               |                |                t{}: 0xa1-0xa2 (1)
0xa0|   00                                          | .              |                  n: 0 (valid) 0xa1-0xa2 (1)
    |                                               |                |                  x[0:0]: 0xa2-0xa2 (0)
    |                                               |                |                e[0:4]: 0xa2-0xaa (8)
    |                                               |                |                  [0]{}: in 0xa2-0xa4 (2)
0xa0|      20                                       |                |                    opcode: "local.get" (0x20) 0xa2-0xa3 (1)
0xa0|         00                                    |   .            |                    x: 0 (valid) 0xa3-0xa4 (1)
    |                                               |                |                  [1]{}: in 0xa4-0xa6 (2)
0xa0|            20                                 |                |                    opcode: "local.get" (0x20) 0xa4-0xa5 (1)
0xa0|               01                              |     .          |                    x: 1 (valid) 0xa5-0xa6 (1)
    |                                               |                |                  [2]{}: in 0xa6-0xa9 (3)
0xa0|                  fd                           |      .         |                    opcode: "vector" (0xfd) 0xa6-0xa7 (1)
0xa0|                     9e 01                     |       ..       |                    v_opcode: "i16x8.extmul_low_i8x16_u" (158) 0xa7-0xa9 (2)
    |                                               |                |                  [3]{}: in 0xa9-0xaa (1)
0xa0|                           0b                  |         .      |                    opcode: "end" (0xb) 0xa9-0xaa (1)
    |                                               |                |            [3]{}: code 0xaa-0xb4 (10)
0xa0|                              09               |          .     |              size: 9 (valid) 0xaa-0xab (1)
    |                                               |                |              code{}: 0xab-0xb4 (9)
    |                                               |                |                t{}: 0xab-0xac (1)
0xa0|                                 00            |           .    |                  n: 0 (valid) 0xab-0xac (1)
    |                                               |                |                  x[0:0]: 0xac-0xac (0)
    |                                               |                |                e[0:4]: 0xac-0xb4 (8)
    |                                               |                |                  [0]{}: in 0xac-0xae (2)
0xa0|                                    20         |                |                    opcode: "local.get" (0x20) 0xac-0xad (1)
0xa0|                                       00      |             .  |                    x: 0 (valid) 0xad-0xae (1)
    |                                               |                |                  [1]{}: in 0xae-0xb0 (2)
0xa0|                                          20   |                |                    opcode: "local.get" (0x20) 0xae-0xaf (1)
0xa0|                                             01|               .|                    x: 1 (valid) 0xaf-0xb0 (1)
    |                                               |                |                  [2]{}: in 0xb0-0xb3 (3)
0xb0|fd                                             |.               |                    opcode: "vector" (0xfd) 0xb0-0xb1 (1)
0xb0|   9f 01                                       | ..             |                    v_opcode: "i16x8.extmul_high_i8x16_u" (159) 0xb1-0xb3 (2)
    |                                               |                |                  [3]{}: in 0xb3-0xb4 (1)
0xb0|         0b|                                   |   .|           |                    opcode: "end" (0xb) 0xb3-0xb4 (1)
