$ fq -d wasm dv simd_align-7.wasm
    |00 01 02 03 04 05 06 07 08 09 0a 0b 0c 0d 0e 0f|0123456789abcdef|.{}: simd_align-7.wasm (wasm) 0x0-0x35 (53)
0x00|00 61 73 6d                                    |.asm            |  magic: raw bits (valid) 0x0-0x4 (4)
0x00|            01 00 00 00                        |    ....        |  version: 1 0x4-0x8 (4)
    |                                               |                |  sections[0:4]: 0x8-0x35 (45)
    |                                               |                |    [0]{}: section 0x8-0xe (6)
0x00|                        01                     |        .       |      id: "type_section" (1) 0x8-0x9 (1)
0x00|                           04                  |         .      |      size: 4 (valid) 0x9-0xa (1)
    |                                               |                |      content{}: 0xa-0xe (4)
    |                                               |                |        ft{}: 0xa-0xe (4)
0x00|                              01               |          .     |          n: 1 (valid) 0xa-0xb (1)
    |                                               |                |          x[0:1]: 0xb-0xe (3)
    |                                               |                |            [0]{}: ft 0xb-0xe (3)
0x00|                                 60            |           `    |              tag: 0x60 (valid) 0xb-0xc (1)
    |                                               |                |              rt1{}: 0xc-0xd (1)
0x00|                                    00         |            .   |                n: 0 (valid) 0xc-0xd (1)
    |                                               |                |                x[0:0]: 0xd-0xd (0)
    |                                               |                |              rt2{}: 0xd-0xe (1)
0x00|                                       00      |             .  |                n: 0 (valid) 0xd-0xe (1)
    |                                               |                |                x[0:0]: 0xe-0xe (0)
    |                                               |                |    [1]{}: section 0xe-0x12 (4)
0x00|                                          03   |              . |      id: "function_section" (3) 0xe-0xf (1)
0x00|                                             02|               .|      size: 2 (valid) 0xf-0x10 (1)
    |                                               |                |      content{}: 0x10-0x12 (2)
    |                                               |                |        x{}: 0x10-0x12 (2)
0x10|01                                             |.               |          n: 1 (valid) 0x10-0x11 (1)
    |                                               |                |          x[0:1]: 0x11-0x12 (1)
0x10|   00                                          | .              |            [0]: 0 x (valid) 0x11-0x12 (1)
    |                                               |                |    [2]{}: section 0x12-0x17 (5)
0x10|      05                                       |  .             |      id: "memory_section" (5) 0x12-0x13 (1)
0x10|         03                                    |   .            |      size: 3 (valid) 0x13-0x14 (1)
    |                                               |                |      content{}: 0x14-0x17 (3)
    |                                               |                |        mem{}: 0x14-0x17 (3)
0x10|            01                                 |    .           |          n: 1 (valid) 0x14-0x15 (1)
    |                                               |                |          x[0:1]: 0x15-0x17 (2)
    |                                               |                |            [0]{}: mem 0x15-0x17 (2)
    |                                               |                |              lim{}: 0x15-0x17 (2)
0x10|               00                              |     .          |                tag: 0x0 0x15-0x16 (1)
0x10|                  01                           |      .         |                n: 1 (valid) 0x16-0x17 (1)
    |                                               |                |    [3]{}: section 0x17-0x35 (30)
0x10|                     0a                        |       .        |      id: "code_section" (10) 0x17-0x18 (1)
0x10|                        1c                     |        .       |      size: 28 (valid) 0x18-0x19 (1)
    |                                               |                |      content{}: 0x19-0x35 (28)
    |                                               |                |        code{}: 0x19-0x35 (28)
0x10|                           01                  |         .      |          n: 1 (valid) 0x19-0x1a (1)
    |                                               |                |          x[0:1]: 0x1a-0x35 (27)
    |                                               |                |            [0]{}: code 0x1a-0x35 (27)
0x10|                              1a               |          .     |              size: 26 (valid) 0x1a-0x1b (1)
    |                                               |                |              code{}: 0x1b-0x35 (26)
    |                                               |                |                t{}: 0x1b-0x1c (1)
0x10|                                 00            |           .    |                  n: 0 (valid) 0x1b-0x1c (1)
    |                                               |                |                  x[0:0]: 0x1c-0x1c (0)
    |                                               |                |                e[0:4]: 0x1c-0x35 (25)
    |                                               |                |                  [0]{}: in 0x1c-0x1e (2)
0x10|                                    41         |            A   |                    opcode: "i32.const" (0x41) 0x1c-0x1d (1)
0x10|                                       00      |             .  |                    n: 0 (valid) 0x1d-0x1e (1)
    |                                               |                |                  [1]{}: in 0x1e-0x30 (18)
0x10|                                          fd   |              . |                    opcode: "vector" (0xfd) 0x1e-0x1f (1)
0x10|                                             0c|               .|                    v_opcode: "v128.const" (12) 0x1f-0x20 (1)
0x20|00 00 00 00 01 00 00 00 02 00 00 00 03 00 00 00|................|                    bytes: raw bits 0x20-0x30 (16)
    |                                               |                |                  [2]{}: in 0x30-0x34 (4)
0x30|fd                                             |.               |                    opcode: "vector" (0xfd) 0x30-0x31 (1)
0x30|   0b                                          | .              |                    v_opcode: "v128.store" (11) 0x31-0x32 (1)
    |                                               |                |                    m{}: 0x32-0x34 (2)
0x30|      02                                       |  .             |                      a: 2 (valid) 0x32-0x33 (1)
0x30|         00                                    |   .            |                      o: 0 (valid) 0x33-0x34 (1)
    |                                               |                |                  [3]{}: in 0x34-0x35 (1)
0x30|            0b|                                |    .|          |                    opcode: "end" (0xb) 0x34-0x35 (1)
