$ fq -d wasm dv simd_store-1.wasm
     |00 01 02 03 04 05 06 07 08 09 0a 0b 0c 0d 0e 0f|0123456789abcdef|.{}: simd_store-1.wasm (wasm) 0x0-0x1dd (477)
0x000|00 61 73 6d                                    |.asm            |  magic: raw bits (valid) 0x0-0x4 (4)
0x000|            01 00 00 00                        |    ....        |  version: 1 0x4-0x8 (4)
     |                                               |                |  sections[0:5]: 0x8-0x1dd (469)
     |                                               |                |    [0]{}: section 0x8-0xe (6)
0x000|                        01                     |        .       |      id: "type_section" (1) 0x8-0x9 (1)
0x000|                           04                  |         .      |      size: 4 (valid) 0x9-0xa (1)
     |                                               |                |      content{}: 0xa-0xe (4)
     |                                               |                |        ft{}: 0xa-0xe (4)
0x000|                              01               |          .     |          n: 1 (valid) 0xa-0xb (1)
     |                                               |                |          x[0:1]: 0xb-0xe (3)
     |                                               |                |            [0]{}: ft 0xb-0xe (3)
0x000|                                 60            |           `    |              tag: 0x60 (valid) 0xb-0xc (1)
     |                                               |                |              rt1{}: 0xc-0xd (1)
0x000|                                    00         |            .   |                n: 0 (valid) 0xc-0xd (1)
     |                                               |                |                x[0:0]: 0xd-0xd (0)
     |                                               |                |              rt2{}: 0xd-0xe (1)
0x000|                                       00      |             .  |                n: 0 (valid) 0xd-0xe (1)
     |                                               |                |                x[0:0]: 0xe-0xe (0)
     |                                               |                |    [1]{}: section 0xe-0x1a (12)
0x000|                                          03   |              . |      id: "function_section" (3) 0xe-0xf (1)
0x000|                                             0a|               .|      size: 10 (valid) 0xf-0x10 (1)
     |                                               |                |      content{}: 0x10-0x1a (10)
     |                                               |                |        x{}: 0x10-0x1a (10)
0x010|09                                             |.               |          n: 9 (valid) 0x10-0x11 (1)
     |                                               |                |          x[0:9]: 0x11-0x1a (9)
0x010|   00                                          | .              |            [0]: 0 x (valid) 0x11-0x12 (1)
0x010|      00                                       |  .             |            [1]: 0 x (valid) 0x12-0x13 (1)
0x010|         00                                    |   .            |            [2]: 0 x (valid) 0x13-0x14 (1)
0x010|            00                                 |    .           |            [3]: 0 x (valid) 0x14-0x15 (1)
0x010|               00                              |     .          |            [4]: 0 x (valid) 0x15-0x16 (1)
0x010|                  00                           |      .         |            [5]: 0 x (valid) 0x16-0x17 (1)
0x010|                     00                        |       .        |            [6]: 0 x (valid) 0x17-0x18 (1)
0x010|                        00                     |        .       |            [7]: 0 x (valid) 0x18-0x19 (1)
0x010|                           00                  |         .      |            [8]: 0 x (valid) 0x19-0x1a (1)
     |                                               |                |    [2]{}: section 0x1a-0x1f (5)
0x010|                              05               |          .     |      id: "memory_section" (5) 0x1a-0x1b (1)
0x010|                                 03            |           .    |      size: 3 (valid) 0x1b-0x1c (1)
     |                                               |                |      content{}: 0x1c-0x1f (3)
     |                                               |                |        mem{}: 0x1c-0x1f (3)
0x010|                                    01         |            .   |          n: 1 (valid) 0x1c-0x1d (1)
     |                                               |                |          x[0:1]: 0x1d-0x1f (2)
     |                                               |                |            [0]{}: mem 0x1d-0x1f (2)
     |                                               |                |              lim{}: 0x1d-0x1f (2)
0x010|                                       00      |             .  |                tag: 0x0 0x1d-0x1e (1)
0x010|                                          01   |              . |                n: 1 (valid) 0x1e-0x1f (1)
     |                                               |                |    [3]{}: section 0x1f-0xb9 (154)
0x010|                                             07|               .|      id: "export_section" (7) 0x1f-0x20 (1)
0x020|97 01                                          |..              |      size: 151 (valid) 0x20-0x22 (2)
     |                                               |                |      content{}: 0x22-0xb9 (151)
     |                                               |                |        ex{}: 0x22-0xb9 (151)
0x020|      09                                       |  .             |          n: 9 (valid) 0x22-0x23 (1)
     |                                               |                |          x[0:9]: 0x23-0xb9 (150)
     |                                               |                |            [0]{}: ex 0x23-0x34 (17)
     |                                               |                |              nm{}: 0x23-0x32 (15)
0x020|         0e                                    |   .            |                n: 14 (valid) 0x23-0x24 (1)
0x020|            61 73 2d 62 6c 6f 63 6b 2d 76 61 6c|    as-block-val|                b: "as-block-value" 0x24-0x32 (14)
0x030|75 65                                          |ue              |
     |                                               |                |              d{}: 0x32-0x34 (2)
0x030|      00                                       |  .             |                tag: "funcidx" (0x0) 0x32-0x33 (1)
0x030|         00                                    |   .            |                x: 0 (valid) 0x33-0x34 (1)
     |                                               |                |            [1]{}: ex 0x34-0x44 (16)
     |                                               |                |              nm{}: 0x34-0x42 (14)
0x030|            0d                                 |    .           |                n: 13 (valid) 0x34-0x35 (1)
0x030|               61 73 2d 6c 6f 6f 70 2d 76 61 6c|     as-loop-val|                b: "as-loop-value" 0x35-0x42 (13)
0x040|75 65                                          |ue              |
     |                                               |                |              d{}: 0x42-0x44 (2)
0x040|      00                                       |  .             |                tag: "funcidx" (0x0) 0x42-0x43 (1)
0x040|         01                                    |   .            |                x: 1 (valid) 0x43-0x44 (1)
     |                                               |                |            [2]{}: ex 0x44-0x52 (14)
     |                                               |                |              nm{}: 0x44-0x50 (12)
0x040|            0b                                 |    .           |                n: 11 (valid) 0x44-0x45 (1)
0x040|               61 73 2d 62 72 2d 76 61 6c 75 65|     as-br-value|                b: "as-br-value" 0x45-0x50 (11)
     |                                               |                |              d{}: 0x50-0x52 (2)
0x050|00                                             |.               |                tag: "funcidx" (0x0) 0x50-0x51 (1)
0x050|   02                                          | .              |                x: 2 (valid) 0x51-0x52 (1)
     |                                               |                |            [3]{}: ex 0x52-0x63 (17)
     |                                               |                |              nm{}: 0x52-0x61 (15)
0x050|      0e                                       |  .             |                n: 14 (valid) 0x52-0x53 (1)
0x050|         61 73 2d 62 72 5f 69 66 2d 76 61 6c 75|   as-br_if-valu|                b: "as-br_if-value" 0x53-0x61 (14)
0x060|65                                             |e               |
     |                                               |                |              d{}: 0x61-0x63 (2)
0x060|   00                                          | .              |                tag: "funcidx" (0x0) 0x61-0x62 (1)
0x060|      03                                       |  .             |                x: 3 (valid) 0x62-0x63 (1)
     |                                               |                |            [4]{}: ex 0x63-0x79 (22)
     |                                               |                |              nm{}: 0x63-0x77 (20)
0x060|         13                                    |   .            |                n: 19 (valid) 0x63-0x64 (1)
0x060|            61 73 2d 62 72 5f 69 66 2d 76 61 6c|    as-br_if-val|                b: "as-br_if-value-cond" 0x64-0x77 (19)
0x070|75 65 2d 63 6f 6e 64                           |ue-cond         |
     |                                               |                |              d{}: 0x77-0x79 (2)
0x070|                     00                        |       .        |                tag: "funcidx" (0x0) 0x77-0x78 (1)
0x070|                        04                     |        .       |                x: 4 (valid) 0x78-0x79 (1)
     |                                               |                |            [5]{}: ex 0x79-0x8d (20)
     |                                               |                |              nm{}: 0x79-0x8b (18)
0x070|                           11                  |         .      |                n: 17 (valid) 0x79-0x7a (1)
0x070|                              61 73 2d 62 72 5f|          as-br_|                b: "as-br_table-value" 0x7a-0x8b (17)
0x080|74 61 62 6c 65 2d 76 61 6c 75 65               |table-value     |
     |                                               |                |              d{}: 0x8b-0x8d (2)
0x080|                                 00            |           .    |                tag: "funcidx" (0x0) 0x8b-0x8c (1)
0x080|                                    05         |            .   |                x: 5 (valid) 0x8c-0x8d (1)
     |                                               |                |            [6]{}: ex 0x8d-0x9f (18)
     |                                               |                |              nm{}: 0x8d-0x9d (16)
0x080|                                       0f      |             .  |                n: 15 (valid) 0x8d-0x8e (1)
0x080|                                          61 73|              as|                b: "as-return-value" 0x8e-0x9d (15)
0x090|2d 72 65 74 75 72 6e 2d 76 61 6c 75 65         |-return-value   |
     |                                               |                |              d{}: 0x9d-0x9f (2)
0x090|                                       00      |             .  |                tag: "funcidx" (0x0) 0x9d-0x9e (1)
0x090|                                          06   |              . |                x: 6 (valid) 0x9e-0x9f (1)
     |                                               |                |            [7]{}: ex 0x9f-0xac (13)
     |                                               |                |              nm{}: 0x9f-0xaa (11)
0x090|                                             0a|               .|                n: 10 (valid) 0x9f-0xa0 (1)
0x0a0|61 73 2d 69 66 2d 74 68 65 6e                  |as-if-then      |                b: "as-if-then" 0xa0-0xaa (10)
     |                                               |                |              d{}: 0xaa-0xac (2)
0x0a0|                              00               |          .     |                tag: "funcidx" (0x0) 0xaa-0xab (1)
0x0a0|                                 07            |           .    |                x: 7 (valid) 0xab-0xac (1)
     |                                               |                |            [8]{}: ex 0xac-0xb9 (13)
     |                                               |                |              nm{}: 0xac-0xb7 (11)
0x0a0|                                    0a         |            .   |                n: 10 (valid) 0xac-0xad (1)
0x0a0|                                       61 73 2d|             as-|                b: "as-if-else" 0xad-0xb7 (10)
0x0b0|69 66 2d 65 6c 73 65                           |if-else         |
     |                                               |                |              d{}: 0xb7-0xb9 (2)
0x0b0|                     00                        |       .        |                tag: "funcidx" (0x0) 0xb7-0xb8 (1)
0x0b0|                        08                     |        .       |                x: 8 (valid) 0xb8-0xb9 (1)
     |                                               |                |    [4]{}: section 0xb9-0x1dd (292)
0x0b0|                           0a                  |         .      |      id: "code_section" (10) 0xb9-0xba (1)
0x0b0|                              a1 02            |          ..    |      size: 289 (valid) 0xba-0xbc (2)
     |                                               |                |      content{}: 0xbc-0x1dd (289)
     |                                               |                |        code{}: 0xbc-0x1dd (289)
0x0b0|                                    09         |            .   |          n: 9 (valid) 0xbc-0xbd (1)
     |                                               |                |          x[0:9]: 0xbd-0x1dd (288)
     |                                               |                |            [0]{}: code 0xbd-0xdb (30)
0x0b0|                                       1d      |             .  |              size: 29 (valid) 0xbd-0xbe (1)
     |                                               |                |              code{}: 0xbe-0xdb (29)
     |                                               |                |                t{}: 0xbe-0xbf (1)
0x0b0|                                          00   |              . |                  n: 0 (valid) 0xbe-0xbf (1)
     |                                               |                |                  x[0:0]: 0xbf-0xbf (0)
     |                                               |                |                e[0:2]: 0xbf-0xdb (28)
     |                                               |                |                  [0]{}: in 0xbf-0xda (27)
0x0b0|                                             02|               .|                    opcode: "block" (0x2) 0xbf-0xc0 (1)
0x0c0|40                                             |@               |                    bt: "ε" (64) 0xc0-0xc1 (1)
     |                                               |                |                    instructions[0:3]: 0xc1-0xd9 (24)
     |                                               |                |                      [0]{}: instr 0xc1-0xc3 (2)
0x0c0|   41                                          | A              |                        opcode: "i32.const" (0x41) 0xc1-0xc2 (1)
0x0c0|      00                                       |  .             |                        n: 0 (valid) 0xc2-0xc3 (1)
     |                                               |                |                      [1]{}: instr 0xc3-0xd5 (18)
0x0c0|         fd                                    |   .            |                        opcode: "vector" (0xfd) 0xc3-0xc4 (1)
0x0c0|            0c                                 |    .           |                        v_opcode: "v128.const" (12) 0xc4-0xc5 (1)
0x0c0|               00 00 00 00 00 00 00 00 00 00 00|     ...........|                        bytes: raw bits 0xc5-0xd5 (16)
0x0d0|00 00 00 00 00                                 |.....           |
     |                                               |                |                      [2]{}: instr 0xd5-0xd9 (4)
0x0d0|               fd                              |     .          |                        opcode: "vector" (0xfd) 0xd5-0xd6 (1)
0x0d0|                  0b                           |      .         |                        v_opcode: "v128.store" (11) 0xd6-0xd7 (1)
     |                                               |                |                        m{}: 0xd7-0xd9 (2)
0x0d0|                     04                        |       .        |                          a: 4 (valid) 0xd7-0xd8 (1)
0x0d0|                        00                     |        .       |                          o: 0 (valid) 0xd8-0xd9 (1)
0x0d0|                           0b                  |         .      |                    end: 0xb (valid) 0xd9-0xda (1)
     |                                               |                |                  [1]{}: in 0xda-0xdb (1)
0x0d0|                              0b               |          .     |                    opcode: "end" (0xb) 0xda-0xdb (1)
     |                                               |                |            [1]{}: code 0xdb-0xf9 (30)
0x0d0|                                 1d            |           .    |              size: 29 (valid) 0xdb-0xdc (1)
     |                                               |                |              code{}: 0xdc-0xf9 (29)
     |                                               |                |                t{}: 0xdc-0xdd (1)
0x0d0|                                    00         |            .   |                  n: 0 (valid) 0xdc-0xdd (1)
     |                                               |                |                  x[0:0]: 0xdd-0xdd (0)
     |                                               |                |                e[0:2]: 0xdd-0xf9 (28)
     |                                               |                |                  [0]{}: in 0xdd-0xf8 (27)
0x0d0|                                       03      |             .  |                    opcode: "loop" (0x3) 0xdd-0xde (1)
0x0d0|                                          40   |              @ |                    bt: "ε" (64) 0xde-0xdf (1)
     |                                               |                |                    instructions[0:3]: 0xdf-0xf7 (24)
     |                                               |                |                      [0]{}: instr 0xdf-0xe1 (2)
0x0d0|                                             41|               A|                        opcode: "i32.const" (0x41) 0xdf-0xe0 (1)
0x0e0|00                                             |.               |                        n: 0 (valid) 0xe0-0xe1 (1)
     |                                               |                |                      [1]{}: instr 0xe1-0xf3 (18)
0x0e0|   fd                                          | .              |                        opcode: "vector" (0xfd) 0xe1-0xe2 (1)
0x0e0|      0c                                       |  .             |                        v_opcode: "v128.const" (12) 0xe2-0xe3 (1)
0x0e0|         00 00 00 00 00 00 00 00 00 00 00 00 00|   .............|                        bytes: raw bits 0xe3-0xf3 (16)
0x0f0|00 00 00                                       |...             |
     |                                               |                |                      [2]{}: instr 0xf3-0xf7 (4)
0x0f0|         fd                                    |   .            |                        opcode: "vector" (0xfd) 0xf3-0xf4 (1)
0x0f0|            0b                                 |    .           |                        v_opcode: "v128.store" (11) 0xf4-0xf5 (1)
     |                                               |                |                        m{}: 0xf5-0xf7 (2)
0x0f0|               04                              |     .          |                          a: 4 (valid) 0xf5-0xf6 (1)
0x0f0|                  00                           |      .         |                          o: 0 (valid) 0xf6-0xf7 (1)
0x0f0|                     0b                        |       .        |                    end: 0xb (valid) 0xf7-0xf8 (1)
     |                                               |                |                  [1]{}: in 0xf8-0xf9 (1)
0x0f0|                        0b                     |        .       |                    opcode: "end" (0xb) 0xf8-0xf9 (1)
     |                                               |                |            [2]{}: code 0xf9-0x119 (32)
0x0f0|                           1f                  |         .      |              size: 31 (valid) 0xf9-0xfa (1)
     |                                               |                |              code{}: 0xfa-0x119 (31)
     |                                               |                |                t{}: 0xfa-0xfb (1)
0x0f0|                              00               |          .     |                  n: 0 (valid) 0xfa-0xfb (1)
     |                                               |                |                  x[0:0]: 0xfb-0xfb (0)
     |                                               |                |                e[0:2]: 0xfb-0x119 (30)
     |                                               |                |                  [0]{}: in 0xfb-0x118 (29)
0x0f0|                                 02            |           .    |                    opcode: "block" (0x2) 0xfb-0xfc (1)
0x0f0|                                    40         |            @   |                    bt: "ε" (64) 0xfc-0xfd (1)
     |                                               |                |                    instructions[0:4]: 0xfd-0x117 (26)
     |                                               |                |                      [0]{}: instr 0xfd-0xff (2)
0x0f0|                                       41      |             A  |                        opcode: "i32.const" (0x41) 0xfd-0xfe (1)
0x0f0|                                          00   |              . |                        n: 0 (valid) 0xfe-0xff (1)
     |                                               |                |                      [1]{}: instr 0xff-0x111 (18)
0x0f0|                                             fd|               .|                        opcode: "vector" (0xfd) 0xff-0x100 (1)
0x100|0c                                             |.               |                        v_opcode: "v128.const" (12) 0x100-0x101 (1)
0x100|   00 00 00 00 00 00 00 00 00 00 00 00 00 00 00| ...............|                        bytes: raw bits 0x101-0x111 (16)
0x110|00                                             |.               |
     |                                               |                |                      [2]{}: instr 0x111-0x115 (4)
0x110|   fd                                          | .              |                        opcode: "vector" (0xfd) 0x111-0x112 (1)
0x110|      0b                                       |  .             |                        v_opcode: "v128.store" (11) 0x112-0x113 (1)
     |                                               |                |                        m{}: 0x113-0x115 (2)
0x110|         04                                    |   .            |                          a: 4 (valid) 0x113-0x114 (1)
0x110|            00                                 |    .           |                          o: 0 (valid) 0x114-0x115 (1)
     |                                               |                |                      [3]{}: instr 0x115-0x117 (2)
0x110|               0c                              |     .          |                        opcode: "br" (0xc) 0x115-0x116 (1)
0x110|                  00                           |      .         |                        l: 0 (valid) 0x116-0x117 (1)
0x110|                     0b                        |       .        |                    end: 0xb (valid) 0x117-0x118 (1)
     |                                               |                |                  [1]{}: in 0x118-0x119 (1)
0x110|                        0b                     |        .       |                    opcode: "end" (0xb) 0x118-0x119 (1)
     |                                               |                |            [3]{}: code 0x119-0x13b (34)
0x110|                           21                  |         !      |              size: 33 (valid) 0x119-0x11a (1)
     |                                               |                |              code{}: 0x11a-0x13b (33)
     |                                               |                |                t{}: 0x11a-0x11b (1)
0x110|                              00               |          .     |                  n: 0 (valid) 0x11a-0x11b (1)
     |                                               |                |                  x[0:0]: 0x11b-0x11b (0)
     |                                               |                |                e[0:2]: 0x11b-0x13b (32)
     |                                               |                |                  [0]{}: in 0x11b-0x13a (31)
0x110|                                 02            |           .    |                    opcode: "block" (0x2) 0x11b-0x11c (1)
0x110|                                    40         |            @   |                    bt: "ε" (64) 0x11c-0x11d (1)
     |                                               |                |                    instructions[0:5]: 0x11d-0x139 (28)
     |                                               |                |                      [0]{}: instr 0x11d-0x11f (2)
0x110|                                       41      |             A  |                        opcode: "i32.const" (0x41) 0x11d-0x11e (1)
0x110|                                          00   |              . |                        n: 0 (valid) 0x11e-0x11f (1)
     |                                               |                |                      [1]{}: instr 0x11f-0x131 (18)
0x110|                                             fd|               .|                        opcode: "vector" (0xfd) 0x11f-0x120 (1)
0x120|0c                                             |.               |                        v_opcode: "v128.const" (12) 0x120-0x121 (1)
0x120|   00 00 00 00 00 00 00 00 00 00 00 00 00 00 00| ...............|                        bytes: raw bits 0x121-0x131 (16)
0x130|00                                             |.               |
     |                                               |                |                      [2]{}: instr 0x131-0x135 (4)
0x130|   fd                                          | .              |                        opcode: "vector" (0xfd) 0x131-0x132 (1)
0x130|      0b                                       |  .             |                        v_opcode: "v128.store" (11) 0x132-0x133 (1)
     |                                               |                |                        m{}: 0x133-0x135 (2)
0x130|         04                                    |   .            |                          a: 4 (valid) 0x133-0x134 (1)
0x130|            00                                 |    .           |                          o: 0 (valid) 0x134-0x135 (1)
     |                                               |                |                      [3]{}: instr 0x135-0x137 (2)
0x130|               41                              |     A          |                        opcode: "i32.const" (0x41) 0x135-0x136 (1)
0x130|                  01                           |      .         |                        n: 1 (valid) 0x136-0x137 (1)
     |                                               |                |                      [4]{}: instr 0x137-0x139 (2)
0x130|                     0d                        |       .        |                        opcode: "br_if" (0xd) 0x137-0x138 (1)
0x130|                        00                     |        .       |                        l: 0 (valid) 0x138-0x139 (1)
0x130|                           0b                  |         .      |                    end: 0xb (valid) 0x139-0x13a (1)
     |                                               |                |                  [1]{}: in 0x13a-0x13b (1)
0x130|                              0b               |          .     |                    opcode: "end" (0xb) 0x13a-0x13b (1)
     |                                               |                |            [4]{}: code 0x13b-0x15d (34)
0x130|                                 21            |           !    |              size: 33 (valid) 0x13b-0x13c (1)
     |                                               |                |              code{}: 0x13c-0x15d (33)
     |                                               |                |                t{}: 0x13c-0x13d (1)
0x130|                                    00         |            .   |                  n: 0 (valid) 0x13c-0x13d (1)
     |                                               |                |                  x[0:0]: 0x13d-0x13d (0)
     |                                               |                |                e[0:2]: 0x13d-0x15d (32)
     |                                               |                |                  [0]{}: in 0x13d-0x15c (31)
0x130|                                       02      |             .  |                    opcode: "block" (0x2) 0x13d-0x13e (1)
0x130|                                          40   |              @ |                    bt: "ε" (64) 0x13e-0x13f (1)
     |                                               |                |                    instructions[0:5]: 0x13f-0x15b (28)
     |                                               |                |                      [0]{}: instr 0x13f-0x141 (2)
0x130|                                             41|               A|                        opcode: "i32.const" (0x41) 0x13f-0x140 (1)
0x140|06                                             |.               |                        n: 6 (valid) 0x140-0x141 (1)
     |                                               |                |                      [1]{}: instr 0x141-0x143 (2)
0x140|   41                                          | A              |                        opcode: "i32.const" (0x41) 0x141-0x142 (1)
0x140|      00                                       |  .             |                        n: 0 (valid) 0x142-0x143 (1)
     |                                               |                |                      [2]{}: instr 0x143-0x155 (18)
0x140|         fd                                    |   .            |                        opcode: "vector" (0xfd) 0x143-0x144 (1)
0x140|            0c                                 |    .           |                        v_opcode: "v128.const" (12) 0x144-0x145 (1)
0x140|               00 00 00 00 00 00 00 00 00 00 00|     ...........|                        bytes: raw bits 0x145-0x155 (16)
0x150|00 00 00 00 00                                 |.....           |
     |                                               |                |                      [3]{}: instr 0x155-0x159 (4)
0x150|               fd                              |     .          |                        opcode: "vector" (0xfd) 0x155-0x156 (1)
0x150|                  0b                           |      .         |                        v_opcode: "v128.store" (11) 0x156-0x157 (1)
     |                                               |                |                        m{}: 0x157-0x159 (2)
0x150|                     04                        |       .        |                          a: 4 (valid) 0x157-0x158 (1)
0x150|                        00                     |        .       |                          o: 0 (valid) 0x158-0x159 (1)
     |                                               |                |                      [4]{}: instr 0x159-0x15b (2)
0x150|                           0d                  |         .      |                        opcode: "br_if" (0xd) 0x159-0x15a (1)
0x150|                              00               |          .     |                        l: 0 (valid) 0x15a-0x15b (1)
0x150|                                 0b            |           .    |                    end: 0xb (valid) 0x15b-0x15c (1)
     |                                               |                |                  [1]{}: in 0x15c-0x15d (1)
0x150|                                    0b         |            .   |                    opcode: "end" (0xb) 0x15c-0x15d (1)
     |                                               |                |            [5]{}: code 0x15d-0x180 (35)
0x150|                                       22      |             "  |              size: 34 (valid) 0x15d-0x15e (1)
     |                                               |                |              code{}: 0x15e-0x180 (34)
     |                                               |                |                t{}: 0x15e-0x15f (1)
0x150|                                          00   |              . |                  n: 0 (valid) 0x15e-0x15f (1)
     |                                               |                |                  x[0:0]: 0x15f-0x15f (0)
     |                                               |                |                e[0:2]: 0x15f-0x180 (33)
     |                                               |                |                  [0]{}: in 0x15f-0x17f (32)
0x150|                                             02|               .|                    opcode: "block" (0x2) 0x15f-0x160 (1)
0x160|40                                             |@               |                    bt: "ε" (64) 0x160-0x161 (1)
     |                                               |                |                    instructions[0:5]: 0x161-0x17e (29)
     |                                               |                |                      [0]{}: instr 0x161-0x163 (2)
0x160|   41                                          | A              |                        opcode: "i32.const" (0x41) 0x161-0x162 (1)
0x160|      00                                       |  .             |                        n: 0 (valid) 0x162-0x163 (1)
     |                                               |                |                      [1]{}: instr 0x163-0x175 (18)
0x160|         fd                                    |   .            |                        opcode: "vector" (0xfd) 0x163-0x164 (1)
0x160|            0c                                 |    .           |                        v_opcode: "v128.const" (12) 0x164-0x165 (1)
0x160|               00 00 00 00 00 00 00 00 00 00 00|     ...........|                        bytes: raw bits 0x165-0x175 (16)
0x170|00 00 00 00 00                                 |.....           |
     |                                               |                |                      [2]{}: instr 0x175-0x179 (4)
0x170|               fd                              |     .          |                        opcode: "vector" (0xfd) 0x175-0x176 (1)
0x170|                  0b                           |      .         |                        v_opcode: "v128.store" (11) 0x176-0x177 (1)
     |                                               |                |                        m{}: 0x177-0x179 (2)
0x170|                     04                        |       .        |                          a: 4 (valid) 0x177-0x178 (1)
0x170|                        00                     |        .       |                          o: 0 (valid) 0x178-0x179 (1)
     |                                               |                |                      [3]{}: instr 0x179-0x17b (2)
0x170|                           41                  |         A      |                        opcode: "i32.const" (0x41) 0x179-0x17a (1)
0x170|                              01               |          .     |                        n: 1 (valid) 0x17a-0x17b (1)
     |                                               |                |                      [4]{}: instr 0x17b-0x17e (3)
0x170|                                 0e            |           .    |                        opcode: "br_table" (0xe) 0x17b-0x17c (1)
     |                                               |                |                        l{}: 0x17c-0x17d (1)
0x170|                                    00         |            .   |                          n: 0 (valid) 0x17c-0x17d (1)
     |                                               |                |                          x[0:0]: 0x17d-0x17d (0)
0x170|                                       00      |             .  |                        lN: 0 (valid) 0x17d-0x17e (1)
0x170|                                          0b   |              . |                    end: 0xb (valid) 0x17e-0x17f (1)
     |                                               |                |                  [1]{}: in 0x17f-0x180 (1)
0x170|                                             0b|               .|                    opcode: "end" (0xb) 0x17f-0x180 (1)
     |                                               |                |            [6]{}: code 0x180-0x19c (28)
0x180|1b                                             |.               |              size: 27 (valid) 0x180-0x181 (1)
     |                                               |                |              code{}: 0x181-0x19c (27)
     |                                               |                |                t{}: 0x181-0x182 (1)
0x180|   00                                          | .              |                  n: 0 (valid) 0x181-0x182 (1)
     |                                               |                |                  x[0:0]: 0x182-0x182 (0)
     |                                               |                |                e[0:5]: 0x182-0x19c (26)
     |                                               |                |                  [0]{}: in 0x182-0x184 (2)
0x180|      41                                       |  A             |                    opcode: "i32.const" (0x41) 0x182-0x183 (1)
0x180|         00                                    |   .            |                    n: 0 (valid) 0x183-0x184 (1)
     |                                               |                |                  [1]{}: in 0x184-0x196 (18)
0x180|            fd                                 |    .           |                    opcode: "vector" (0xfd) 0x184-0x185 (1)
0x180|               0c                              |     .          |                    v_opcode: "v128.const" (12) 0x185-0x186 (1)
0x180|                  00 00 00 00 00 00 00 00 00 00|      ..........|                    bytes: raw bits 0x186-0x196 (16)
0x190|00 00 00 00 00 00                              |......          |
     |                                               |                |                  [2]{}: in 0x196-0x19a (4)
0x190|                  fd                           |      .         |                    opcode: "vector" (0xfd) 0x196-0x197 (1)
0x190|                     0b                        |       .        |                    v_opcode: "v128.store" (11) 0x197-0x198 (1)
     |                                               |                |                    m{}: 0x198-0x19a (2)
0x190|                        04                     |        .       |                      a: 4 (valid) 0x198-0x199 (1)
0x190|                           00                  |         .      |                      o: 0 (valid) 0x199-0x19a (1)
     |                                               |                |                  [3]{}: in 0x19a-0x19b (1)
0x190|                              0f               |          .     |                    opcode: "return" (0xf) 0x19a-0x19b (1)
     |                                               |                |                  [4]{}: in 0x19b-0x19c (1)
0x190|                                 0b            |           .    |                    opcode: "end" (0xb) 0x19b-0x19c (1)
     |                                               |                |            [7]{}: code 0x19c-0x1bc (32)
0x190|                                    1f         |            .   |              size: 31 (valid) 0x19c-0x19d (1)
     |                                               |                |              code{}: 0x19d-0x1bc (31)
     |                                               |                |                t{}: 0x19d-0x19e (1)
0x190|                                       00      |             .  |                  n: 0 (valid) 0x19d-0x19e (1)
     |                                               |                |                  x[0:0]: 0x19e-0x19e (0)
     |                                               |                |                e[0:3]: 0x19e-0x1bc (30)
     |                                               |                |                  [0]{}: in 0x19e-0x1a0 (2)
0x190|                                          41   |              A |                    opcode: "i32.const" (0x41) 0x19e-0x19f (1)
0x190|                                             01|               .|                    n: 1 (valid) 0x19f-0x1a0 (1)
     |                                               |                |                  [1]{}: in 0x1a0-0x1bb (27)
0x1a0|04                                             |.               |                    opcode: "if" (0x4) 0x1a0-0x1a1 (1)
0x1a0|   40                                          | @              |                    bt: "ε" (64) 0x1a1-0x1a2 (1)
     |                                               |                |                    in1[0:3]: 0x1a2-0x1ba (24)
     |                                               |                |                      [0]{}: instr 0x1a2-0x1a4 (2)
0x1a0|      41                                       |  A             |                        opcode: "i32.const" (0x41) 0x1a2-0x1a3 (1)
0x1a0|         00                                    |   .            |                        n: 0 (valid) 0x1a3-0x1a4 (1)
     |                                               |                |                      [1]{}: instr 0x1a4-0x1b6 (18)
0x1a0|            fd                                 |    .           |                        opcode: "vector" (0xfd) 0x1a4-0x1a5 (1)
0x1a0|               0c                              |     .          |                        v_opcode: "v128.const" (12) 0x1a5-0x1a6 (1)
0x1a0|                  00 00 00 00 00 00 00 00 00 00|      ..........|                        bytes: raw bits 0x1a6-0x1b6 (16)
0x1b0|00 00 00 00 00 00                              |......          |
     |                                               |                |                      [2]{}: instr 0x1b6-0x1ba (4)
0x1b0|                  fd                           |      .         |                        opcode: "vector" (0xfd) 0x1b6-0x1b7 (1)
0x1b0|                     0b                        |       .        |                        v_opcode: "v128.store" (11) 0x1b7-0x1b8 (1)
     |                                               |                |                        m{}: 0x1b8-0x1ba (2)
0x1b0|                        04                     |        .       |                          a: 4 (valid) 0x1b8-0x1b9 (1)
0x1b0|                           00                  |         .      |                          o: 0 (valid) 0x1b9-0x1ba (1)
0x1b0|                              0b               |          .     |                    end: 0xb (valid) 0x1ba-0x1bb (1)
     |                                               |                |                  [2]{}: in 0x1bb-0x1bc (1)
0x1b0|                                 0b            |           .    |                    opcode: "end" (0xb) 0x1bb-0x1bc (1)
     |                                               |                |            [8]{}: code 0x1bc-0x1dd (33)
0x1b0|                                    20         |                |              size: 32 (valid) 0x1bc-0x1bd (1)
     |                                               |                |              code{}: 0x1bd-0x1dd (32)
     |                                               |                |                t{}: 0x1bd-0x1be (1)
0x1b0|                                       00      |             .  |                  n: 0 (valid) 0x1bd-0x1be (1)
     |                                               |                |                  x[0:0]: 0x1be-0x1be (0)
     |                                               |                |                e[0:3]: 0x1be-0x1dd (31)
     |                                               |                |                  [0]{}: in 0x1be-0x1c0 (2)
0x1b0|                                          41   |              A |                    opcode: "i32.const" (0x41) 0x1be-0x1bf (1)
0x1b0|                                             00|               .|                    n: 0 (valid) 0x1bf-0x1c0 (1)
     |                                               |                |                  [1]{}: in 0x1c0-0x1dc (28)
0x1c0|04                                             |.               |                    opcode: "if" (0x4) 0x1c0-0x1c1 (1)
0x1c0|   40                                          | @              |                    bt: "ε" (64) 0x1c1-0x1c2 (1)
     |                                               |                |                    in1[0:0]: 0x1c2-0x1c2 (0)
0x1c0|      05                                       |  .             |                    else: 0x5 (valid) 0x1c2-0x1c3 (1)
     |                                               |                |                    in2[0:3]: 0x1c3-0x1db (24)
     |                                               |                |                      [0]{}: instr 0x1c3-0x1c5 (2)
0x1c0|         41                                    |   A            |                        opcode: "i32.const" (0x41) 0x1c3-0x1c4 (1)
0x1c0|            00                                 |    .           |                        n: 0 (valid) 0x1c4-0x1c5 (1)
     |                                               |                |                      [1]{}: instr 0x1c5-0x1d7 (18)
0x1c0|               fd                              |     .          |                        opcode: "vector" (0xfd) 0x1c5-0x1c6 (1)
0x1c0|                  0c                           |      .         |                        v_opcode: "v128.const" (12) 0x1c6-0x1c7 (1)
0x1c0|                     00 00 00 00 00 00 00 00 00|       .........|                        bytes: raw bits 0x1c7-0x1d7 (16)
0x1d0|00 00 00 00 00 00 00                           |.......         |
     |                                               |                |                      [2]{}: instr 0x1d7-0x1db (4)
0x1d0|                     fd                        |       .        |                        opcode: "vector" (0xfd) 0x1d7-0x1d8 (1)
0x1d0|                        0b                     |        .       |                        v_opcode: "v128.store" (11) 0x1d8-0x1d9 (1)
     |                                               |                |                        m{}: 0x1d9-0x1db (2)
0x1d0|                           04                  |         .      |                          a: 4 (valid) 0x1d9-0x1da (1)
0x1d0|                              00               |          .     |                          o: 0 (valid) 0x1da-0x1db (1)
0x1d0|                                 0b            |           .    |                    end: 0xb (valid) 0x1db-0x1dc (1)
     |                                               |                |                  [2]{}: in 0x1dc-0x1dd (1)
0x1d0|                                    0b|        |            .|  |                    opcode: "end" (0xb) 0x1dc-0x1dd (1)
