$ fq -d wasm dv simd_load_splat-0.wasm
     |00 01 02 03 04 05 06 07 08 09 0a 0b 0c 0d 0e 0f|0123456789abcdef|.{}: simd_load_splat-0.wasm (wasm) 0x0-0x3a2 (930)
0x000|00 61 73 6d                                    |.asm            |  magic: raw bits (valid) 0x0-0x4 (4)
0x000|            01 00 00 00                        |    ....        |  version: 1 0x4-0x8 (4)
     |                                               |                |  sections[0:6]: 0x8-0x3a2 (922)
     |                                               |                |    [0]{}: section 0x8-0x10 (8)
0x000|                        01                     |        .       |      id: "type_section" (1) 0x8-0x9 (1)
0x000|                           06                  |         .      |      size: 6 (valid) 0x9-0xa (1)
     |                                               |                |      content{}: 0xa-0x10 (6)
     |                                               |                |        ft{}: 0xa-0x10 (6)
0x000|                              01               |          .     |          n: 1 (valid) 0xa-0xb (1)
     |                                               |                |          x[0:1]: 0xb-0x10 (5)
     |                                               |                |            [0]{}: ft 0xb-0x10 (5)
0x000|                                 60            |           `    |              tag: 0x60 (valid) 0xb-0xc (1)
     |                                               |                |              rt1{}: 0xc-0xe (2)
0x000|                                    01         |            .   |                n: 1 (valid) 0xc-0xd (1)
     |                                               |                |                x[0:1]: 0xd-0xe (1)
0x000|                                       7f      |             .  |                  [0]: "i32" (0x7f) t 0xd-0xe (1)
     |                                               |                |              rt2{}: 0xe-0x10 (2)
0x000|                                          01   |              . |                n: 1 (valid) 0xe-0xf (1)
     |                                               |                |                x[0:1]: 0xf-0x10 (1)
0x000|                                             7b|               {|                  [0]: "v128" (0x7b) t 0xf-0x10 (1)
     |                                               |                |    [1]{}: section 0x10-0x2f (31)
0x010|03                                             |.               |      id: "function_section" (3) 0x10-0x11 (1)
0x010|   1d                                          | .              |      size: 29 (valid) 0x11-0x12 (1)
     |                                               |                |      content{}: 0x12-0x2f (29)
     |                                               |                |        x{}: 0x12-0x2f (29)
0x010|      1c                                       |  .             |          n: 28 (valid) 0x12-0x13 (1)
     |                                               |                |          x[0:28]: 0x13-0x2f (28)
0x010|         00                                    |   .            |            [0]: 0 x (valid) 0x13-0x14 (1)
0x010|            00                                 |    .           |            [1]: 0 x (valid) 0x14-0x15 (1)
0x010|               00                              |     .          |            [2]: 0 x (valid) 0x15-0x16 (1)
0x010|                  00                           |      .         |            [3]: 0 x (valid) 0x16-0x17 (1)
0x010|                     00                        |       .        |            [4]: 0 x (valid) 0x17-0x18 (1)
0x010|                        00                     |        .       |            [5]: 0 x (valid) 0x18-0x19 (1)
0x010|                           00                  |         .      |            [6]: 0 x (valid) 0x19-0x1a (1)
0x010|                              00               |          .     |            [7]: 0 x (valid) 0x1a-0x1b (1)
0x010|                                 00            |           .    |            [8]: 0 x (valid) 0x1b-0x1c (1)
0x010|                                    00         |            .   |            [9]: 0 x (valid) 0x1c-0x1d (1)
0x010|                                       00      |             .  |            [10]: 0 x (valid) 0x1d-0x1e (1)
0x010|                                          00   |              . |            [11]: 0 x (valid) 0x1e-0x1f (1)
0x010|                                             00|               .|            [12]: 0 x (valid) 0x1f-0x20 (1)
0x020|00                                             |.               |            [13]: 0 x (valid) 0x20-0x21 (1)
0x020|   00                                          | .              |            [14]: 0 x (valid) 0x21-0x22 (1)
0x020|      00                                       |  .             |            [15]: 0 x (valid) 0x22-0x23 (1)
0x020|         00                                    |   .            |            [16]: 0 x (valid) 0x23-0x24 (1)
0x020|            00                                 |    .           |            [17]: 0 x (valid) 0x24-0x25 (1)
0x020|               00                              |     .          |            [18]: 0 x (valid) 0x25-0x26 (1)
0x020|                  00                           |      .         |            [19]: 0 x (valid) 0x26-0x27 (1)
0x020|                     00                        |       .        |            [20]: 0 x (valid) 0x27-0x28 (1)
0x020|                        00                     |        .       |            [21]: 0 x (valid) 0x28-0x29 (1)
0x020|                           00                  |         .      |            [22]: 0 x (valid) 0x29-0x2a (1)
0x020|                              00               |          .     |            [23]: 0 x (valid) 0x2a-0x2b (1)
0x020|                                 00            |           .    |            [24]: 0 x (valid) 0x2b-0x2c (1)
0x020|                                    00         |            .   |            [25]: 0 x (valid) 0x2c-0x2d (1)
0x020|                                       00      |             .  |            [26]: 0 x (valid) 0x2d-0x2e (1)
0x020|                                          00   |              . |            [27]: 0 x (valid) 0x2e-0x2f (1)
     |                                               |                |    [2]{}: section 0x2f-0x34 (5)
0x020|                                             05|               .|      id: "memory_section" (5) 0x2f-0x30 (1)
0x030|03                                             |.               |      size: 3 (valid) 0x30-0x31 (1)
     |                                               |                |      content{}: 0x31-0x34 (3)
     |                                               |                |        mem{}: 0x31-0x34 (3)
0x030|   01                                          | .              |          n: 1 (valid) 0x31-0x32 (1)
     |                                               |                |          x[0:1]: 0x32-0x34 (2)
     |                                               |                |            [0]{}: mem 0x32-0x34 (2)
     |                                               |                |              lim{}: 0x32-0x34 (2)
0x030|      00                                       |  .             |                tag: 0x0 0x32-0x33 (1)
0x030|         01                                    |   .            |                n: 1 (valid) 0x33-0x34 (1)
     |                                               |                |    [3]{}: section 0x34-0x26b (567)
0x030|            07                                 |    .           |      id: "export_section" (7) 0x34-0x35 (1)
0x030|               b4 04                           |     ..         |      size: 564 (valid) 0x35-0x37 (2)
     |                                               |                |      content{}: 0x37-0x26b (564)
     |                                               |                |        ex{}: 0x37-0x26b (564)
0x030|                     1c                        |       .        |          n: 28 (valid) 0x37-0x38 (1)
     |                                               |                |          x[0:28]: 0x38-0x26b (563)
     |                                               |                |            [0]{}: ex 0x38-0x4b (19)
     |                                               |                |              nm{}: 0x38-0x49 (17)
0x030|                        10                     |        .       |                n: 16 (valid) 0x38-0x39 (1)
0x030|                           76 31 32 38 2e 6c 6f|         v128.lo|                b: "v128.load8_splat" 0x39-0x49 (16)
0x040|61 64 38 5f 73 70 6c 61 74                     |ad8_splat       |
     |                                               |                |              d{}: 0x49-0x4b (2)
0x040|                           00                  |         .      |                tag: "funcidx" (0x0) 0x49-0x4a (1)
0x040|                              00               |          .     |                x: 0 (valid) 0x4a-0x4b (1)
     |                                               |                |            [1]{}: ex 0x4b-0x5f (20)
     |                                               |                |              nm{}: 0x4b-0x5d (18)
0x040|                                 11            |           .    |                n: 17 (valid) 0x4b-0x4c (1)
0x040|                                    76 31 32 38|            v128|                b: "v128.load16_splat" 0x4c-0x5d (17)
0x050|2e 6c 6f 61 64 31 36 5f 73 70 6c 61 74         |.load16_splat   |
     |                                               |                |              d{}: 0x5d-0x5f (2)
0x050|                                       00      |             .  |                tag: "funcidx" (0x0) 0x5d-0x5e (1)
0x050|                                          01   |              . |                x: 1 (valid) 0x5e-0x5f (1)
     |                                               |                |            [2]{}: ex 0x5f-0x73 (20)
     |                                               |                |              nm{}: 0x5f-0x71 (18)
0x050|                                             11|               .|                n: 17 (valid) 0x5f-0x60 (1)
0x060|76 31 32 38 2e 6c 6f 61 64 33 32 5f 73 70 6c 61|v128.load32_spla|                b: "v128.load32_splat" 0x60-0x71 (17)
0x070|74                                             |t               |
     |                                               |                |              d{}: 0x71-0x73 (2)
0x070|   00                                          | .              |                tag: "funcidx" (0x0) 0x71-0x72 (1)
0x070|      02                                       |  .             |                x: 2 (valid) 0x72-0x73 (1)
     |                                               |                |            [3]{}: ex 0x73-0x87 (20)
     |                                               |                |              nm{}: 0x73-0x85 (18)
0x070|         11                                    |   .            |                n: 17 (valid) 0x73-0x74 (1)
0x070|            76 31 32 38 2e 6c 6f 61 64 36 34 5f|    v128.load64_|                b: "v128.load64_splat" 0x74-0x85 (17)
0x080|73 70 6c 61 74                                 |splat           |
     |                                               |                |              d{}: 0x85-0x87 (2)
0x080|               00                              |     .          |                tag: "funcidx" (0x0) 0x85-0x86 (1)
0x080|                  03                           |      .         |                x: 3 (valid) 0x86-0x87 (1)
     |                                               |                |            [4]{}: ex 0x87-0x97 (16)
     |                                               |                |              nm{}: 0x87-0x95 (14)
0x080|                     0d                        |       .        |                n: 13 (valid) 0x87-0x88 (1)
0x080|                        76 38 78 31 36 2e 6f 66|        v8x16.of|                b: "v8x16.offset0" 0x88-0x95 (13)
0x090|66 73 65 74 30                                 |fset0           |
     |                                               |                |              d{}: 0x95-0x97 (2)
0x090|               00                              |     .          |                tag: "funcidx" (0x0) 0x95-0x96 (1)
0x090|                  04                           |      .         |                x: 4 (valid) 0x96-0x97 (1)
     |                                               |                |            [5]{}: ex 0x97-0xa6 (15)
     |                                               |                |              nm{}: 0x97-0xa4 (13)
0x090|                     0c                        |       .        |                n: 12 (valid) 0x97-0x98 (1)
0x090|                        76 38 78 31 36 2e 61 6c|        v8x16.al|                b: "v8x16.align1" 0x98-0xa4 (12)
0x0a0|69 67 6e 31                                    |ign1            |
     |                                               |                |              d{}: 0xa4-0xa6 (2)
0x0a0|            00                                 |    .           |                tag: "funcidx" (0x0) 0xa4-0xa5 (1)
0x0a0|               05                              |     .          |                x: 5 (valid) 0xa5-0xa6 (1)
     |                                               |                |            [6]{}: ex 0xa6-0xbd (23)
     |                                               |                |              nm{}: 0xa6-0xbb (21)
0x0a0|                  14                           |      .         |                n: 20 (valid) 0xa6-0xa7 (1)
0x0a0|                     76 38 78 31 36 2e 6f 66 66|       v8x16.off|                b: "v8x16.offset1_align1" 0xa7-0xbb (20)
0x0b0|73 65 74 31 5f 61 6c 69 67 6e 31               |set1_align1     |
     |                                               |                |              d{}: 0xbb-0xbd (2)
0x0b0|                                 00            |           .    |                tag: "funcidx" (0x0) 0xbb-0xbc (1)
0x0b0|                                    06         |            .   |                x: 6 (valid) 0xbc-0xbd (1)
     |                                               |                |            [7]{}: ex 0xbd-0xd4 (23)
     |                                               |                |              nm{}: 0xbd-0xd2 (21)
0x0b0|                                       14      |             .  |                n: 20 (valid) 0xbd-0xbe (1)
0x0b0|                                          76 38|              v8|                b: "v8x16.offset2_align1" 0xbe-0xd2 (20)
0x0c0|78 31 36 2e 6f 66 66 73 65 74 32 5f 61 6c 69 67|x16.offset2_alig|
0x0d0|6e 31                                          |n1              |
     |                                               |                |              d{}: 0xd2-0xd4 (2)
0x0d0|      00                                       |  .             |                tag: "funcidx" (0x0) 0xd2-0xd3 (1)
0x0d0|         07                                    |   .            |                x: 7 (valid) 0xd3-0xd4 (1)
     |                                               |                |            [8]{}: ex 0xd4-0xec (24)
     |                                               |                |              nm{}: 0xd4-0xea (22)
0x0d0|            15                                 |    .           |                n: 21 (valid) 0xd4-0xd5 (1)
0x0d0|               76 38 78 31 36 2e 6f 66 66 73 65|     v8x16.offse|                b: "v8x16.offset15_align1" 0xd5-0xea (21)
0x0e0|74 31 35 5f 61 6c 69 67 6e 31                  |t15_align1      |
     |                                               |                |              d{}: 0xea-0xec (2)
0x0e0|                              00               |          .     |                tag: "funcidx" (0x0) 0xea-0xeb (1)
0x0e0|                                 08            |           .    |                x: 8 (valid) 0xeb-0xec (1)
     |                                               |                |            [9]{}: ex 0xec-0xfc (16)
     |                                               |                |              nm{}: 0xec-0xfa (14)
0x0e0|                                    0d         |            .   |                n: 13 (valid) 0xec-0xed (1)
0x0e0|                                       76 31 36|             v16|                b: "v16x8.offset0" 0xed-0xfa (13)
0x0f0|78 38 2e 6f 66 66 73 65 74 30                  |x8.offset0      |
     |                                               |                |              d{}: 0xfa-0xfc (2)
0x0f0|                              00               |          .     |                tag: "funcidx" (0x0) 0xfa-0xfb (1)
0x0f0|                                 09            |           .    |                x: 9 (valid) 0xfb-0xfc (1)
     |                                               |                |            [10]{}: ex 0xfc-0x10b (15)
     |                                               |                |              nm{}: 0xfc-0x109 (13)
0x0f0|                                    0c         |            .   |                n: 12 (valid) 0xfc-0xfd (1)
0x0f0|                                       76 31 36|             v16|                b: "v16x8.align1" 0xfd-0x109 (12)
0x100|78 38 2e 61 6c 69 67 6e 31                     |x8.align1       |
     |                                               |                |              d{}: 0x109-0x10b (2)
0x100|                           00                  |         .      |                tag: "funcidx" (0x0) 0x109-0x10a (1)
0x100|                              0a               |          .     |                x: 10 (valid) 0x10a-0x10b (1)
     |                                               |                |            [11]{}: ex 0x10b-0x122 (23)
     |                                               |                |              nm{}: 0x10b-0x120 (21)
0x100|                                 14            |           .    |                n: 20 (valid) 0x10b-0x10c (1)
0x100|                                    76 31 36 78|            v16x|                b: "v16x8.offset1_align1" 0x10c-0x120 (20)
0x110|38 2e 6f 66 66 73 65 74 31 5f 61 6c 69 67 6e 31|8.offset1_align1|
     |                                               |                |              d{}: 0x120-0x122 (2)
0x120|00                                             |.               |                tag: "funcidx" (0x0) 0x120-0x121 (1)
0x120|   0b                                          | .              |                x: 11 (valid) 0x121-0x122 (1)
     |                                               |                |            [12]{}: ex 0x122-0x139 (23)
     |                                               |                |              nm{}: 0x122-0x137 (21)
0x120|      14                                       |  .             |                n: 20 (valid) 0x122-0x123 (1)
0x120|         76 31 36 78 38 2e 6f 66 66 73 65 74 32|   v16x8.offset2|                b: "v16x8.offset2_align1" 0x123-0x137 (20)
0x130|5f 61 6c 69 67 6e 31                           |_align1         |
     |                                               |                |              d{}: 0x137-0x139 (2)
0x130|                     00                        |       .        |                tag: "funcidx" (0x0) 0x137-0x138 (1)
0x130|                        0c                     |        .       |                x: 12 (valid) 0x138-0x139 (1)
     |                                               |                |            [13]{}: ex 0x139-0x151 (24)
     |                                               |                |              nm{}: 0x139-0x14f (22)
0x130|                           15                  |         .      |                n: 21 (valid) 0x139-0x13a (1)
0x130|                              76 31 36 78 38 2e|          v16x8.|                b: "v16x8.offset15_align2" 0x13a-0x14f (21)
0x140|6f 66 66 73 65 74 31 35 5f 61 6c 69 67 6e 32   |offset15_align2 |
     |                                               |                |              d{}: 0x14f-0x151 (2)
0x140|                                             00|               .|                tag: "funcidx" (0x0) 0x14f-0x150 (1)
0x150|0d                                             |.               |                x: 13 (valid) 0x150-0x151 (1)
     |                                               |                |            [14]{}: ex 0x151-0x161 (16)
     |                                               |                |              nm{}: 0x151-0x15f (14)
0x150|   0d                                          | .              |                n: 13 (valid) 0x151-0x152 (1)
0x150|      76 33 32 78 34 2e 6f 66 66 73 65 74 30   |  v32x4.offset0 |                b: "v32x4.offset0" 0x152-0x15f (13)
     |                                               |                |              d{}: 0x15f-0x161 (2)
0x150|                                             00|               .|                tag: "funcidx" (0x0) 0x15f-0x160 (1)
0x160|0e                                             |.               |                x: 14 (valid) 0x160-0x161 (1)
     |                                               |                |            [15]{}: ex 0x161-0x170 (15)
     |                                               |                |              nm{}: 0x161-0x16e (13)
0x160|   0c                                          | .              |                n: 12 (valid) 0x161-0x162 (1)
0x160|      76 33 32 78 34 2e 61 6c 69 67 6e 31      |  v32x4.align1  |                b: "v32x4.align1" 0x162-0x16e (12)
     |                                               |                |              d{}: 0x16e-0x170 (2)
0x160|                                          00   |              . |                tag: "funcidx" (0x0) 0x16e-0x16f (1)
0x160|                                             0f|               .|                x: 15 (valid) 0x16f-0x170 (1)
     |                                               |                |            [16]{}: ex 0x170-0x187 (23)
     |                                               |                |              nm{}: 0x170-0x185 (21)
0x170|14                                             |.               |                n: 20 (valid) 0x170-0x171 (1)
0x170|   76 33 32 78 34 2e 6f 66 66 73 65 74 31 5f 61| v32x4.offset1_a|                b: "v32x4.offset1_align1" 0x171-0x185 (20)
0x180|6c 69 67 6e 31                                 |lign1           |
     |                                               |                |              d{}: 0x185-0x187 (2)
0x180|               00                              |     .          |                tag: "funcidx" (0x0) 0x185-0x186 (1)
0x180|                  10                           |      .         |                x: 16 (valid) 0x186-0x187 (1)
     |                                               |                |            [17]{}: ex 0x187-0x19e (23)
     |                                               |                |              nm{}: 0x187-0x19c (21)
0x180|                     14                        |       .        |                n: 20 (valid) 0x187-0x188 (1)
0x180|                        76 33 32 78 34 2e 6f 66|        v32x4.of|                b: "v32x4.offset2_align2" 0x188-0x19c (20)
0x190|66 73 65 74 32 5f 61 6c 69 67 6e 32            |fset2_align2    |
     |                                               |                |              d{}: 0x19c-0x19e (2)
0x190|                                    00         |            .   |                tag: "funcidx" (0x0) 0x19c-0x19d (1)
0x190|                                       11      |             .  |                x: 17 (valid) 0x19d-0x19e (1)
     |                                               |                |            [18]{}: ex 0x19e-0x1b6 (24)
     |                                               |                |              nm{}: 0x19e-0x1b4 (22)
0x190|                                          15   |              . |                n: 21 (valid) 0x19e-0x19f (1)
0x190|                                             76|               v|                b: "v32x4.offset15_align4" 0x19f-0x1b4 (21)
0x1a0|33 32 78 34 2e 6f 66 66 73 65 74 31 35 5f 61 6c|32x4.offset15_al|
0x1b0|69 67 6e 34                                    |ign4            |
     |                                               |                |              d{}: 0x1b4-0x1b6 (2)
0x1b0|            00                                 |    .           |                tag: "funcidx" (0x0) 0x1b4-0x1b5 (1)
0x1b0|               12                              |     .          |                x: 18 (valid) 0x1b5-0x1b6 (1)
     |                                               |                |            [19]{}: ex 0x1b6-0x1c6 (16)
     |                                               |                |              nm{}: 0x1b6-0x1c4 (14)
0x1b0|                  0d                           |      .         |                n: 13 (valid) 0x1b6-0x1b7 (1)
0x1b0|                     76 36 34 78 32 2e 6f 66 66|       v64x2.off|                b: "v64x2.offset0" 0x1b7-0x1c4 (13)
0x1c0|73 65 74 30                                    |set0            |
     |                                               |                |              d{}: 0x1c4-0x1c6 (2)
0x1c0|            00                                 |    .           |                tag: "funcidx" (0x0) 0x1c4-0x1c5 (1)
0x1c0|               13                              |     .          |                x: 19 (valid) 0x1c5-0x1c6 (1)
     |                                               |                |            [20]{}: ex 0x1c6-0x1d5 (15)
     |                                               |                |              nm{}: 0x1c6-0x1d3 (13)
0x1c0|                  0c                           |      .         |                n: 12 (valid) 0x1c6-0x1c7 (1)
0x1c0|                     76 36 34 78 32 2e 61 6c 69|       v64x2.ali|                b: "v64x2.align1" 0x1c7-0x1d3 (12)
0x1d0|67 6e 31                                       |gn1             |
     |                                               |                |              d{}: 0x1d3-0x1d5 (2)
0x1d0|         00                                    |   .            |                tag: "funcidx" (0x0) 0x1d3-0x1d4 (1)
0x1d0|            14                                 |    .           |                x: 20 (valid) 0x1d4-0x1d5 (1)
     |                                               |                |            [21]{}: ex 0x1d5-0x1ec (23)
     |                                               |                |              nm{}: 0x1d5-0x1ea (21)
0x1d0|               14                              |     .          |                n: 20 (valid) 0x1d5-0x1d6 (1)
0x1d0|                  76 36 34 78 32 2e 6f 66 66 73|      v64x2.offs|                b: "v64x2.offset1_align2" 0x1d6-0x1ea (20)
0x1e0|65 74 31 5f 61 6c 69 67 6e 32                  |et1_align2      |
     |                                               |                |              d{}: 0x1ea-0x1ec (2)
0x1e0|                              00               |          .     |                tag: "funcidx" (0x0) 0x1ea-0x1eb (1)
0x1e0|                                 15            |           .    |                x: 21 (valid) 0x1eb-0x1ec (1)
     |                                               |                |            [22]{}: ex 0x1ec-0x203 (23)
     |                                               |                |              nm{}: 0x1ec-0x201 (21)
0x1e0|                                    14         |            .   |                n: 20 (valid) 0x1ec-0x1ed (1)
0x1e0|                                       76 36 34|             v64|                b: "v64x2.offset2_align4" 0x1ed-0x201 (20)
0x1f0|78 32 2e 6f 66 66 73 65 74 32 5f 61 6c 69 67 6e|x2.offset2_align|
0x200|34                                             |4               |
     |                                               |                |              d{}: 0x201-0x203 (2)
0x200|   00                                          | .              |                tag: "funcidx" (0x0) 0x201-0x202 (1)
0x200|      16                                       |  .             |                x: 22 (valid) 0x202-0x203 (1)
     |                                               |                |            [23]{}: ex 0x203-0x21b (24)
     |                                               |                |              nm{}: 0x203-0x219 (22)
0x200|         15                                    |   .            |                n: 21 (valid) 0x203-0x204 (1)
0x200|            76 36 34 78 32 2e 6f 66 66 73 65 74|    v64x2.offset|                b: "v64x2.offset15_align8" 0x204-0x219 (21)
0x210|31 35 5f 61 6c 69 67 6e 38                     |15_align8       |
     |                                               |                |              d{}: 0x219-0x21b (2)
0x210|                           00                  |         .      |                tag: "funcidx" (0x0) 0x219-0x21a (1)
0x210|                              17               |          .     |                x: 23 (valid) 0x21a-0x21b (1)
     |                                               |                |            [24]{}: ex 0x21b-0x22f (20)
     |                                               |                |              nm{}: 0x21b-0x22d (18)
0x210|                                 11            |           .    |                n: 17 (valid) 0x21b-0x21c (1)
0x210|                                    76 38 78 31|            v8x1|                b: "v8x16.offset65536" 0x21c-0x22d (17)
0x220|36 2e 6f 66 66 73 65 74 36 35 35 33 36         |6.offset65536   |
     |                                               |                |              d{}: 0x22d-0x22f (2)
0x220|                                       00      |             .  |                tag: "funcidx" (0x0) 0x22d-0x22e (1)
0x220|                                          18   |              . |                x: 24 (valid) 0x22e-0x22f (1)
     |                                               |                |            [25]{}: ex 0x22f-0x243 (20)
     |                                               |                |              nm{}: 0x22f-0x241 (18)
0x220|                                             11|               .|                n: 17 (valid) 0x22f-0x230 (1)
0x230|76 31 36 78 38 2e 6f 66 66 73 65 74 36 35 35 33|v16x8.offset6553|                b: "v16x8.offset65535" 0x230-0x241 (17)
0x240|35                                             |5               |
     |                                               |                |              d{}: 0x241-0x243 (2)
0x240|   00                                          | .              |                tag: "funcidx" (0x0) 0x241-0x242 (1)
0x240|      19                                       |  .             |                x: 25 (valid) 0x242-0x243 (1)
     |                                               |                |            [26]{}: ex 0x243-0x257 (20)
     |                                               |                |              nm{}: 0x243-0x255 (18)
0x240|         11                                    |   .            |                n: 17 (valid) 0x243-0x244 (1)
0x240|            76 33 32 78 34 2e 6f 66 66 73 65 74|    v32x4.offset|                b: "v32x4.offset65533" 0x244-0x255 (17)
0x250|36 35 35 33 33                                 |65533           |
     |                                               |                |              d{}: 0x255-0x257 (2)
0x250|               00                              |     .          |                tag: "funcidx" (0x0) 0x255-0x256 (1)
0x250|                  1a                           |      .         |                x: 26 (valid) 0x256-0x257 (1)
     |                                               |                |            [27]{}: ex 0x257-0x26b (20)
     |                                               |                |              nm{}: 0x257-0x269 (18)
0x250|                     11                        |       .        |                n: 17 (valid) 0x257-0x258 (1)
0x250|                        76 36 34 78 32 2e 6f 66|        v64x2.of|                b: "v64x2.offset65529" 0x258-0x269 (17)
0x260|66 73 65 74 36 35 35 32 39                     |fset65529       |
     |                                               |                |              d{}: 0x269-0x26b (2)
0x260|                           00                  |         .      |                tag: "funcidx" (0x0) 0x269-0x26a (1)
0x260|                              1b               |          .     |                x: 27 (valid) 0x26a-0x26b (1)
     |                                               |                |    [4]{}: section 0x26b-0x373 (264)
0x260|                                 0a            |           .    |      id: "code_section" (10) 0x26b-0x26c (1)
0x260|                                    85 02      |            ..  |      size: 261 (valid) 0x26c-0x26e (2)
     |                                               |                |      content{}: 0x26e-0x373 (261)
     |                                               |                |        code{}: 0x26e-0x373 (261)
0x260|                                          1c   |              . |          n: 28 (valid) 0x26e-0x26f (1)
     |                                               |                |          x[0:28]: 0x26f-0x373 (260)
     |                                               |                |            [0]{}: code 0x26f-0x278 (9)
0x260|                                             08|               .|              size: 8 (valid) 0x26f-0x270 (1)
     |                                               |                |              code{}: 0x270-0x278 (8)
     |                                               |                |                t{}: 0x270-0x271 (1)
0x270|00                                             |.               |                  n: 0 (valid) 0x270-0x271 (1)
     |                                               |                |                  x[0:0]: 0x271-0x271 (0)
     |                                               |                |                e[0:3]: 0x271-0x278 (7)
     |                                               |                |                  [0]{}: in 0x271-0x273 (2)
0x270|   20                                          |                |                    opcode: "local.get" (0x20) 0x271-0x272 (1)
0x270|      00                                       |  .             |                    x: 0 (valid) 0x272-0x273 (1)
     |                                               |                |                  [1]{}: in 0x273-0x277 (4)
0x270|         fd                                    |   .            |                    opcode: "vector" (0xfd) 0x273-0x274 (1)
0x270|            07                                 |    .           |                    v_opcode: "v128.load8_splat" (7) 0x274-0x275 (1)
     |                                               |                |                    m{}: 0x275-0x277 (2)
0x270|               00                              |     .          |                      a: 0 (valid) 0x275-0x276 (1)
0x270|                  00                           |      .         |                      o: 0 (valid) 0x276-0x277 (1)
     |                                               |                |                  [2]{}: in 0x277-0x278 (1)
0x270|                     0b                        |       .        |                    opcode: "end" (0xb) 0x277-0x278 (1)
     |                                               |                |            [1]{}: code 0x278-0x281 (9)
0x270|                        08                     |        .       |              size: 8 (valid) 0x278-0x279 (1)
     |                                               |                |              code{}: 0x279-0x281 (8)
     |                                               |                |                t{}: 0x279-0x27a (1)
0x270|                           00                  |         .      |                  n: 0 (valid) 0x279-0x27a (1)
     |                                               |                |                  x[0:0]: 0x27a-0x27a (0)
     |                                               |                |                e[0:3]: 0x27a-0x281 (7)
     |                                               |                |                  [0]{}: in 0x27a-0x27c (2)
0x270|                              20               |                |                    opcode: "local.get" (0x20) 0x27a-0x27b (1)
0x270|                                 00            |           .    |                    x: 0 (valid) 0x27b-0x27c (1)
     |                                               |                |                  [1]{}: in 0x27c-0x280 (4)
0x270|                                    fd         |            .   |                    opcode: "vector" (0xfd) 0x27c-0x27d (1)
0x270|                                       08      |             .  |                    v_opcode: "v128.load16_splat" (8) 0x27d-0x27e (1)
     |                                               |                |                    m{}: 0x27e-0x280 (2)
0x270|                                          01   |              . |                      a: 1 (valid) 0x27e-0x27f (1)
0x270|                                             00|               .|                      o: 0 (valid) 0x27f-0x280 (1)
     |                                               |                |                  [2]{}: in 0x280-0x281 (1)
0x280|0b                                             |.               |                    opcode: "end" (0xb) 0x280-0x281 (1)
     |                                               |                |            [2]{}: code 0x281-0x28a (9)
0x280|   08                                          | .              |              size: 8 (valid) 0x281-0x282 (1)
     |                                               |                |              code{}: 0x282-0x28a (8)
     |                                               |                |                t{}: 0x282-0x283 (1)
0x280|      00                                       |  .             |                  n: 0 (valid) 0x282-0x283 (1)
     |                                               |                |                  x[0:0]: 0x283-0x283 (0)
     |                                               |                |                e[0:3]: 0x283-0x28a (7)
     |                                               |                |                  [0]{}: in 0x283-0x285 (2)
0x280|         20                                    |                |                    opcode: "local.get" (0x20) 0x283-0x284 (1)
0x280|            00                                 |    .           |                    x: 0 (valid) 0x284-0x285 (1)
     |                                               |                |                  [1]{}: in 0x285-0x289 (4)
0x280|               fd                              |     .          |                    opcode: "vector" (0xfd) 0x285-0x286 (1)
0x280|                  09                           |      .         |                    v_opcode: "v128.load32_splat" (9) 0x286-0x287 (1)
     |                                               |                |                    m{}: 0x287-0x289 (2)
0x280|                     02                        |       .        |                      a: 2 (valid) 0x287-0x288 (1)
0x280|                        00                     |        .       |                      o: 0 (valid) 0x288-0x289 (1)
     |                                               |                |                  [2]{}: in 0x289-0x28a (1)
0x280|                           0b                  |         .      |                    opcode: "end" (0xb) 0x289-0x28a (1)
     |                                               |                |            [3]{}: code 0x28a-0x293 (9)
0x280|                              08               |          .     |              size: 8 (valid) 0x28a-0x28b (1)
     |                                               |                |              code{}: 0x28b-0x293 (8)
     |                                               |                |                t{}: 0x28b-0x28c (1)
0x280|                                 00            |           .    |                  n: 0 (valid) 0x28b-0x28c (1)
     |                                               |                |                  x[0:0]: 0x28c-0x28c (0)
     |                                               |                |                e[0:3]: 0x28c-0x293 (7)
     |                                               |                |                  [0]{}: in 0x28c-0x28e (2)
0x280|                                    20         |                |                    opcode: "local.get" (0x20) 0x28c-0x28d (1)
0x280|                                       00      |             .  |                    x: 0 (valid) 0x28d-0x28e (1)
     |                                               |                |                  [1]{}: in 0x28e-0x292 (4)
0x280|                                          fd   |              . |                    opcode: "vector" (0xfd) 0x28e-0x28f (1)
0x280|                                             0a|               .|                    v_opcode: "v128.load64_splat" (10) 0x28f-0x290 (1)
     |                                               |                |                    m{}: 0x290-0x292 (2)
0x290|03                                             |.               |                      a: 3 (valid) 0x290-0x291 (1)
0x290|   00                                          | .              |                      o: 0 (valid) 0x291-0x292 (1)
     |                                               |                |                  [2]{}: in 0x292-0x293 (1)
0x290|      0b                                       |  .             |                    opcode: "end" (0xb) 0x292-0x293 (1)
     |                                               |                |            [4]{}: code 0x293-0x29c (9)
0x290|         08                                    |   .            |              size: 8 (valid) 0x293-0x294 (1)
     |                                               |                |              code{}: 0x294-0x29c (8)
     |                                               |                |                t{}: 0x294-0x295 (1)
0x290|            00                                 |    .           |                  n: 0 (valid) 0x294-0x295 (1)
     |                                               |                |                  x[0:0]: 0x295-0x295 (0)
     |                                               |                |                e[0:3]: 0x295-0x29c (7)
     |                                               |                |                  [0]{}: in 0x295-0x297 (2)
0x290|               20                              |                |                    opcode: "local.get" (0x20) 0x295-0x296 (1)
0x290|                  00                           |      .         |                    x: 0 (valid) 0x296-0x297 (1)
     |                                               |                |                  [1]{}: in 0x297-0x29b (4)
0x290|                     fd                        |       .        |                    opcode: "vector" (0xfd) 0x297-0x298 (1)
0x290|                        07                     |        .       |                    v_opcode: "v128.load8_splat" (7) 0x298-0x299 (1)
     |                                               |                |                    m{}: 0x299-0x29b (2)
0x290|                           00                  |         .      |                      a: 0 (valid) 0x299-0x29a (1)
0x290|                              00               |          .     |                      o: 0 (valid) 0x29a-0x29b (1)
     |                                               |                |                  [2]{}: in 0x29b-0x29c (1)
0x290|                                 0b            |           .    |                    opcode: "end" (0xb) 0x29b-0x29c (1)
     |                                               |                |            [5]{}: code 0x29c-0x2a5 (9)
0x290|                                    08         |            .   |              size: 8 (valid) 0x29c-0x29d (1)
     |                                               |                |              code{}: 0x29d-0x2a5 (8)
     |                                               |                |                t{}: 0x29d-0x29e (1)
0x290|                                       00      |             .  |                  n: 0 (valid) 0x29d-0x29e (1)
     |                                               |                |                  x[0:0]: 0x29e-0x29e (0)
     |                                               |                |                e[0:3]: 0x29e-0x2a5 (7)
     |                                               |                |                  [0]{}: in 0x29e-0x2a0 (2)
0x290|                                          20   |                |                    opcode: "local.get" (0x20) 0x29e-0x29f (1)
0x290|                                             00|               .|                    x: 0 (valid) 0x29f-0x2a0 (1)
     |                                               |                |                  [1]{}: in 0x2a0-0x2a4 (4)
0x2a0|fd                                             |.               |                    opcode: "vector" (0xfd) 0x2a0-0x2a1 (1)
0x2a0|   07                                          | .              |                    v_opcode: "v128.load8_splat" (7) 0x2a1-0x2a2 (1)
     |                                               |                |                    m{}: 0x2a2-0x2a4 (2)
0x2a0|      00                                       |  .             |                      a: 0 (valid) 0x2a2-0x2a3 (1)
0x2a0|         00                                    |   .            |                      o: 0 (valid) 0x2a3-0x2a4 (1)
     |                                               |                |                  [2]{}: in 0x2a4-0x2a5 (1)
0x2a0|            0b                                 |    .           |                    opcode: "end" (0xb) 0x2a4-0x2a5 (1)
     |                                               |                |            [6]{}: code 0x2a5-0x2ae (9)
0x2a0|               08                              |     .          |              size: 8 (valid) 0x2a5-0x2a6 (1)
     |                                               |                |              code{}: 0x2a6-0x2ae (8)
     |                                               |                |                t{}: 0x2a6-0x2a7 (1)
0x2a0|                  00                           |      .         |                  n: 0 (valid) 0x2a6-0x2a7 (1)
     |                                               |                |                  x[0:0]: 0x2a7-0x2a7 (0)
     |                                               |                |                e[0:3]: 0x2a7-0x2ae (7)
     |                                               |                |                  [0]{}: in 0x2a7-0x2a9 (2)
0x2a0|                     20                        |                |                    opcode: "local.get" (0x20) 0x2a7-0x2a8 (1)
0x2a0|                        00                     |        .       |                    x: 0 (valid) 0x2a8-0x2a9 (1)
     |                                               |                |                  [1]{}: in 0x2a9-0x2ad (4)
0x2a0|                           fd                  |         .      |                    opcode: "vector" (0xfd) 0x2a9-0x2aa (1)
0x2a0|                              07               |          .     |                    v_opcode: "v128.load8_splat" (7) 0x2aa-0x2ab (1)
     |                                               |                |                    m{}: 0x2ab-0x2ad (2)
0x2a0|                                 00            |           .    |                      a: 0 (valid) 0x2ab-0x2ac (1)
0x2a0|                                    01         |            .   |                      o: 1 (valid) 0x2ac-0x2ad (1)
     |                                               |                |                  [2]{}: in 0x2ad-0x2ae (1)
0x2a0|                                       0b      |             .  |                    opcode: "end" (0xb) 0x2ad-0x2ae (1)
     |                                               |                |            [7]{}: code 0x2ae-0x2b7 (9)
0x2a0|                                          08   |              . |              size: 8 (valid) 0x2ae-0x2af (1)
     |                                               |                |              code{}: 0x2af-0x2b7 (8)
     |                                               |                |                t{}: 0x2af-0x2b0 (1)
0x2a0|                                             00|               .|                  n: 0 (valid) 0x2af-0x2b0 (1)
     |                                               |                |                  x[0:0]: 0x2b0-0x2b0 (0)
     |                                               |                |                e[0:3]: 0x2b0-0x2b7 (7)
     |                                               |                |                  [0]{}: in 0x2b0-0x2b2 (2)
0x2b0|20                                             |                |                    opcode: "local.get" (0x20) 0x2b0-0x2b1 (1)
0x2b0|   00                                          | .              |                    x: 0 (valid) 0x2b1-0x2b2 (1)
     |                                               |                |                  [1]{}: in 0x2b2-0x2b6 (4)
0x2b0|      fd                                       |  .             |                    opcode: "vector" (0xfd) 0x2b2-0x2b3 (1)
0x2b0|         07                                    |   .            |                    v_opcode: "v128.load8_splat" (7) 0x2b3-0x2b4 (1)
     |                                               |                |                    m{}: 0x2b4-0x2b6 (2)
0x2b0|            00                                 |    .           |                      a: 0 (valid) 0x2b4-0x2b5 (1)
0x2b0|               02                              |     .          |                      o: 2 (valid) 0x2b5-0x2b6 (1)
     |                                               |                |                  [2]{}: in 0x2b6-0x2b7 (1)
0x2b0|                  0b                           |      .         |                    opcode: "end" (0xb) 0x2b6-0x2b7 (1)
     |                                               |                |            [8]{}: code 0x2b7-0x2c0 (9)
0x2b0|                     08                        |       .        |              size: 8 (valid) 0x2b7-0x2b8 (1)
     |                                               |                |              code{}: 0x2b8-0x2c0 (8)
     |                                               |                |                t{}: 0x2b8-0x2b9 (1)
0x2b0|                        00                     |        .       |                  n: 0 (valid) 0x2b8-0x2b9 (1)
     |                                               |                |                  x[0:0]: 0x2b9-0x2b9 (0)
     |                                               |                |                e[0:3]: 0x2b9-0x2c0 (7)
     |                                               |                |                  [0]{}: in 0x2b9-0x2bb (2)
0x2b0|                           20                  |                |                    opcode: "local.get" (0x20) 0x2b9-0x2ba (1)
0x2b0|                              00               |          .     |                    x: 0 (valid) 0x2ba-0x2bb (1)
     |                                               |                |                  [1]{}: in 0x2bb-0x2bf (4)
0x2b0|                                 fd            |           .    |                    opcode: "vector" (0xfd) 0x2bb-0x2bc (1)
0x2b0|                                    07         |            .   |                    v_opcode: "v128.load8_splat" (7) 0x2bc-0x2bd (1)
     |                                               |                |                    m{}: 0x2bd-0x2bf (2)
0x2b0|                                       00      |             .  |                      a: 0 (valid) 0x2bd-0x2be (1)
0x2b0|                                          0f   |              . |                      o: 15 (valid) 0x2be-0x2bf (1)
     |                                               |                |                  [2]{}: in 0x2bf-0x2c0 (1)
0x2b0|                                             0b|               .|                    opcode: "end" (0xb) 0x2bf-0x2c0 (1)
     |                                               |                |            [9]{}: code 0x2c0-0x2c9 (9)
0x2c0|08                                             |.               |              size: 8 (valid) 0x2c0-0x2c1 (1)
     |                                               |                |              code{}: 0x2c1-0x2c9 (8)
     |                                               |                |                t{}: 0x2c1-0x2c2 (1)
0x2c0|   00                                          | .              |                  n: 0 (valid) 0x2c1-0x2c2 (1)
     |                                               |                |                  x[0:0]: 0x2c2-0x2c2 (0)
     |                                               |                |                e[0:3]: 0x2c2-0x2c9 (7)
     |                                               |                |                  [0]{}: in 0x2c2-0x2c4 (2)
0x2c0|      20                                       |                |                    opcode: "local.get" (0x20) 0x2c2-0x2c3 (1)
0x2c0|         00                                    |   .            |                    x: 0 (valid) 0x2c3-0x2c4 (1)
     |                                               |                |                  [1]{}: in 0x2c4-0x2c8 (4)
0x2c0|            fd                                 |    .           |                    opcode: "vector" (0xfd) 0x2c4-0x2c5 (1)
0x2c0|               08                              |     .          |                    v_opcode: "v128.load16_splat" (8) 0x2c5-0x2c6 (1)
     |                                               |                |                    m{}: 0x2c6-0x2c8 (2)
0x2c0|                  01                           |      .         |                      a: 1 (valid) 0x2c6-0x2c7 (1)
0x2c0|                     00                        |       .        |                      o: 0 (valid) 0x2c7-0x2c8 (1)
     |                                               |                |                  [2]{}: in 0x2c8-0x2c9 (1)
0x2c0|                        0b                     |        .       |                    opcode: "end" (0xb) 0x2c8-0x2c9 (1)
     |                                               |                |            [10]{}: code 0x2c9-0x2d2 (9)
0x2c0|                           08                  |         .      |              size: 8 (valid) 0x2c9-0x2ca (1)
     |                                               |                |              code{}: 0x2ca-0x2d2 (8)
     |                                               |                |                t{}: 0x2ca-0x2cb (1)
0x2c0|                              00               |          .     |                  n: 0 (valid) 0x2ca-0x2cb (1)
     |                                               |                |                  x[0:0]: 0x2cb-0x2cb (0)
     |                                               |                |                e[0:3]: 0x2cb-0x2d2 (7)
     |                                               |                |                  [0]{}: in 0x2cb-0x2cd (2)
0x2c0|                                 20            |                |                    opcode: "local.get" (0x20) 0x2cb-0x2cc (1)
0x2c0|                                    00         |            .   |                    x: 0 (valid) 0x2cc-0x2cd (1)
     |                                               |                |                  [1]{}: in 0x2cd-0x2d1 (4)
0x2c0|                                       fd      |             .  |                    opcode: "vector" (0xfd) 0x2cd-0x2ce (1)
0x2c0|                                          08   |              . |                    v_opcode: "v128.load16_splat" (8) 0x2ce-0x2cf (1)
     |                                               |                |                    m{}: 0x2cf-0x2d1 (2)
0x2c0|                                             00|               .|                      a: 0 (valid) 0x2cf-0x2d0 (1)
0x2d0|00                                             |.               |                      o: 0 (valid) 0x2d0-0x2d1 (1)
     |                                               |                |                  [2]{}: in 0x2d1-0x2d2 (1)
0x2d0|   0b                                          | .              |                    opcode: "end" (0xb) 0x2d1-0x2d2 (1)
     |                                               |                |            [11]{}: code 0x2d2-0x2db (9)
0x2d0|      08                                       |  .             |              size: 8 (valid) 0x2d2-0x2d3 (1)
     |                                               |                |              code{}: 0x2d3-0x2db (8)
     |                                               |                |                t{}: 0x2d3-0x2d4 (1)
0x2d0|         00                                    |   .            |                  n: 0 (valid) 0x2d3-0x2d4 (1)
     |                                               |                |                  x[0:0]: 0x2d4-0x2d4 (0)
     |                                               |                |                e[0:3]: 0x2d4-0x2db (7)
     |                                               |                |                  [0]{}: in 0x2d4-0x2d6 (2)
0x2d0|            20                                 |                |                    opcode: "local.get" (0x20) 0x2d4-0x2d5 (1)
0x2d0|               00                              |     .          |                    x: 0 (valid) 0x2d5-0x2d6 (1)
     |                                               |                |                  [1]{}: in 0x2d6-0x2da (4)
0x2d0|                  fd                           |      .         |                    opcode: "vector" (0xfd) 0x2d6-0x2d7 (1)
0x2d0|                     08                        |       .        |                    v_opcode: "v128.load16_splat" (8) 0x2d7-0x2d8 (1)
     |                                               |                |                    m{}: 0x2d8-0x2da (2)
0x2d0|                        00                     |        .       |                      a: 0 (valid) 0x2d8-0x2d9 (1)
0x2d0|                           01                  |         .      |                      o: 1 (valid) 0x2d9-0x2da (1)
     |                                               |                |                  [2]{}: in 0x2da-0x2db (1)
0x2d0|                              0b               |          .     |                    opcode: "end" (0xb) 0x2da-0x2db (1)
     |                                               |                |            [12]{}: code 0x2db-0x2e4 (9)
0x2d0|                                 08            |           .    |              size: 8 (valid) 0x2db-0x2dc (1)
     |                                               |                |              code{}: 0x2dc-0x2e4 (8)
     |                                               |                |                t{}: 0x2dc-0x2dd (1)
0x2d0|                                    00         |            .   |                  n: 0 (valid) 0x2dc-0x2dd (1)
     |                                               |                |                  x[0:0]: 0x2dd-0x2dd (0)
     |                                               |                |                e[0:3]: 0x2dd-0x2e4 (7)
     |                                               |                |                  [0]{}: in 0x2dd-0x2df (2)
0x2d0|                                       20      |                |                    opcode: "local.get" (0x20) 0x2dd-0x2de (1)
0x2d0|                                          00   |              . |                    x: 0 (valid) 0x2de-0x2df (1)
     |                                               |                |                  [1]{}: in 0x2df-0x2e3 (4)
0x2d0|                                             fd|               .|                    opcode: "vector" (0xfd) 0x2df-0x2e0 (1)
0x2e0|08                                             |.               |                    v_opcode: "v128.load16_splat" (8) 0x2e0-0x2e1 (1)
     |                                               |                |                    m{}: 0x2e1-0x2e3 (2)
0x2e0|   00                                          | .              |                      a: 0 (valid) 0x2e1-0x2e2 (1)
0x2e0|      02                                       |  .             |                      o: 2 (valid) 0x2e2-0x2e3 (1)
     |                                               |                |                  [2]{}: in 0x2e3-0x2e4 (1)
0x2e0|         0b                                    |   .            |                    opcode: "end" (0xb) 0x2e3-0x2e4 (1)
     |                                               |                |            [13]{}: code 0x2e4-0x2ed (9)
0x2e0|            08                                 |    .           |              size: 8 (valid) 0x2e4-0x2e5 (1)
     |                                               |                |              code{}: 0x2e5-0x2ed (8)
     |                                               |                |                t{}: 0x2e5-0x2e6 (1)
0x2e0|               00                              |     .          |                  n: 0 (valid) 0x2e5-0x2e6 (1)
     |                                               |                |                  x[0:0]: 0x2e6-0x2e6 (0)
     |                                               |                |                e[0:3]: 0x2e6-0x2ed (7)
     |                                               |                |                  [0]{}: in 0x2e6-0x2e8 (2)
0x2e0|                  20                           |                |                    opcode: "local.get" (0x20) 0x2e6-0x2e7 (1)
0x2e0|                     00                        |       .        |                    x: 0 (valid) 0x2e7-0x2e8 (1)
     |                                               |                |                  [1]{}: in 0x2e8-0x2ec (4)
0x2e0|                        fd                     |        .       |                    opcode: "vector" (0xfd) 0x2e8-0x2e9 (1)
0x2e0|                           08                  |         .      |                    v_opcode: "v128.load16_splat" (8) 0x2e9-0x2ea (1)
     |                                               |                |                    m{}: 0x2ea-0x2ec (2)
0x2e0|                              01               |          .     |                      a: 1 (valid) 0x2ea-0x2eb (1)
0x2e0|                                 0f            |           .    |                      o: 15 (valid) 0x2eb-0x2ec (1)
     |                                               |                |                  [2]{}: in 0x2ec-0x2ed (1)
0x2e0|                                    0b         |            .   |                    opcode: "end" (0xb) 0x2ec-0x2ed (1)
     |                                               |                |            [14]{}: code 0x2ed-0x2f6 (9)
0x2e0|                                       08      |             .  |              size: 8 (valid) 0x2ed-0x2ee (1)
     |                                               |                |              code{}: 0x2ee-0x2f6 (8)
     |                                               |                |                t{}: 0x2ee-0x2ef (1)
0x2e0|                                          00   |              . |                  n: 0 (valid) 0x2ee-0x2ef (1)
     |                                               |                |                  x[0:0]: 0x2ef-0x2ef (0)
     |                                               |                |                e[0:3]: 0x2ef-0x2f6 (7)
     |                                               |                |                  [0]{}: in 0x2ef-0x2f1 (2)
0x2e0|                                             20|                |                    opcode: "local.get" (0x20) 0x2ef-0x2f0 (1)
0x2f0|00                                             |.               |                    x: 0 (valid) 0x2f0-0x2f1 (1)
     |                                               |                |                  [1]{}: in 0x2f1-0x2f5 (4)
0x2f0|   fd                                          | .              |                    opcode: "vector" (0xfd) 0x2f1-0x2f2 (1)
0x2f0|      09                                       |  .             |                    v_opcode: "v128.load32_splat" (9) 0x2f2-0x2f3 (1)
     |                                               |                |                    m{}: 0x2f3-0x2f5 (2)
0x2f0|         02                                    |   .            |                      a: 2 (valid) 0x2f3-0x2f4 (1)
0x2f0|            00                                 |    .           |                      o: 0 (valid) 0x2f4-0x2f5 (1)
     |                                               |                |                  [2]{}: in 0x2f5-0x2f6 (1)
0x2f0|               0b                              |     .          |                    opcode: "end" (0xb) 0x2f5-0x2f6 (1)
     |                                               |                |            [15]{}: code 0x2f6-0x2ff (9)
0x2f0|                  08                           |      .         |              size: 8 (valid) 0x2f6-0x2f7 (1)
     |                                               |                |              code{}: 0x2f7-0x2ff (8)
     |                                               |                |                t{}: 0x2f7-0x2f8 (1)
0x2f0|                     00                        |       .        |                  n: 0 (valid) 0x2f7-0x2f8 (1)
     |                                               |                |                  x[0:0]: 0x2f8-0x2f8 (0)
     |                                               |                |                e[0:3]: 0x2f8-0x2ff (7)
     |                                               |                |                  [0]{}: in 0x2f8-0x2fa (2)
0x2f0|                        20                     |                |                    opcode: "local.get" (0x20) 0x2f8-0x2f9 (1)
0x2f0|                           00                  |         .      |                    x: 0 (valid) 0x2f9-0x2fa (1)
     |                                               |                |                  [1]{}: in 0x2fa-0x2fe (4)
0x2f0|                              fd               |          .     |                    opcode: "vector" (0xfd) 0x2fa-0x2fb (1)
0x2f0|                                 09            |           .    |                    v_opcode: "v128.load32_splat" (9) 0x2fb-0x2fc (1)
     |                                               |                |                    m{}: 0x2fc-0x2fe (2)
0x2f0|                                    00         |            .   |                      a: 0 (valid) 0x2fc-0x2fd (1)
0x2f0|                                       00      |             .  |                      o: 0 (valid) 0x2fd-0x2fe (1)
     |                                               |                |                  [2]{}: in 0x2fe-0x2ff (1)
0x2f0|                                          0b   |              . |                    opcode: "end" (0xb) 0x2fe-0x2ff (1)
     |                                               |                |            [16]{}: code 0x2ff-0x308 (9)
0x2f0|                                             08|               .|              size: 8 (valid) 0x2ff-0x300 (1)
     |                                               |                |              code{}: 0x300-0x308 (8)
     |                                               |                |                t{}: 0x300-0x301 (1)
0x300|00                                             |.               |                  n: 0 (valid) 0x300-0x301 (1)
     |                                               |                |                  x[0:0]: 0x301-0x301 (0)
     |                                               |                |                e[0:3]: 0x301-0x308 (7)
     |                                               |                |                  [0]{}: in 0x301-0x303 (2)
0x300|   20                                          |                |                    opcode: "local.get" (0x20) 0x301-0x302 (1)
0x300|      00                                       |  .             |                    x: 0 (valid) 0x302-0x303 (1)
     |                                               |                |                  [1]{}: in 0x303-0x307 (4)
0x300|         fd                                    |   .            |                    opcode: "vector" (0xfd) 0x303-0x304 (1)
0x300|            09                                 |    .           |                    v_opcode: "v128.load32_splat" (9) 0x304-0x305 (1)
     |                                               |                |                    m{}: 0x305-0x307 (2)
0x300|               00                              |     .          |                      a: 0 (valid) 0x305-0x306 (1)
0x300|                  01                           |      .         |                      o: 1 (valid) 0x306-0x307 (1)
     |                                               |                |                  [2]{}: in 0x307-0x308 (1)
0x300|                     0b                        |       .        |                    opcode: "end" (0xb) 0x307-0x308 (1)
     |                                               |                |            [17]{}: code 0x308-0x311 (9)
0x300|                        08                     |        .       |              size: 8 (valid) 0x308-0x309 (1)
     |                                               |                |              code{}: 0x309-0x311 (8)
     |                                               |                |                t{}: 0x309-0x30a (1)
0x300|                           00                  |         .      |                  n: 0 (valid) 0x309-0x30a (1)
     |                                               |                |                  x[0:0]: 0x30a-0x30a (0)
     |                                               |                |                e[0:3]: 0x30a-0x311 (7)
     |                                               |                |                  [0]{}: in 0x30a-0x30c (2)
0x300|                              20               |                |                    opcode: "local.get" (0x20) 0x30a-0x30b (1)
0x300|                                 00            |           .    |                    x: 0 (valid) 0x30b-0x30c (1)
     |                                               |                |                  [1]{}: in 0x30c-0x310 (4)
0x300|                                    fd         |            .   |                    opcode: "vector" (0xfd) 0x30c-0x30d (1)
0x300|                                       09      |             .  |                    v_opcode: "v128.load32_splat" (9) 0x30d-0x30e (1)
     |                                               |                |                    m{}: 0x30e-0x310 (2)
0x300|                                          01   |              . |                      a: 1 (valid) 0x30e-0x30f (1)
0x300|                                             02|               .|                      o: 2 (valid) 0x30f-0x310 (1)
     |                                               |                |                  [2]{}: in 0x310-0x311 (1)
0x310|0b                                             |.               |                    opcode: "end" (0xb) 0x310-0x311 (1)
     |                                               |                |            [18]{}: code 0x311-0x31a (9)
0x310|   08                                          | .              |              size: 8 (valid) 0x311-0x312 (1)
     |                                               |                |              code{}: 0x312-0x31a (8)
     |                                               |                |                t{}: 0x312-0x313 (1)
0x310|      00                                       |  .             |                  n: 0 (valid) 0x312-0x313 (1)
     |                                               |                |                  x[0:0]: 0x313-0x313 (0)
     |                                               |                |                e[0:3]: 0x313-0x31a (7)
     |                                               |                |                  [0]{}: in 0x313-0x315 (2)
0x310|         20                                    |                |                    opcode: "local.get" (0x20) 0x313-0x314 (1)
0x310|            00                                 |    .           |                    x: 0 (valid) 0x314-0x315 (1)
     |                                               |                |                  [1]{}: in 0x315-0x319 (4)
0x310|               fd                              |     .          |                    opcode: "vector" (0xfd) 0x315-0x316 (1)
0x310|                  09                           |      .         |                    v_opcode: "v128.load32_splat" (9) 0x316-0x317 (1)
     |                                               |                |                    m{}: 0x317-0x319 (2)
0x310|                     02                        |       .        |                      a: 2 (valid) 0x317-0x318 (1)
0x310|                        0f                     |        .       |                      o: 15 (valid) 0x318-0x319 (1)
     |                                               |                |                  [2]{}: in 0x319-0x31a (1)
0x310|                           0b                  |         .      |                    opcode: "end" (0xb) 0x319-0x31a (1)
     |                                               |                |            [19]{}: code 0x31a-0x323 (9)
0x310|                              08               |          .     |              size: 8 (valid) 0x31a-0x31b (1)
     |                                               |                |              code{}: 0x31b-0x323 (8)
     |                                               |                |                t{}: 0x31b-0x31c (1)
0x310|                                 00            |           .    |                  n: 0 (valid) 0x31b-0x31c (1)
     |                                               |                |                  x[0:0]: 0x31c-0x31c (0)
     |                                               |                |                e[0:3]: 0x31c-0x323 (7)
     |                                               |                |                  [0]{}: in 0x31c-0x31e (2)
0x310|                                    20         |                |                    opcode: "local.get" (0x20) 0x31c-0x31d (1)
0x310|                                       00      |             .  |                    x: 0 (valid) 0x31d-0x31e (1)
     |                                               |                |                  [1]{}: in 0x31e-0x322 (4)
0x310|                                          fd   |              . |                    opcode: "vector" (0xfd) 0x31e-0x31f (1)
0x310|                                             0a|               .|                    v_opcode: "v128.load64_splat" (10) 0x31f-0x320 (1)
     |                                               |                |                    m{}: 0x320-0x322 (2)
0x320|03                                             |.               |                      a: 3 (valid) 0x320-0x321 (1)
0x320|   00                                          | .              |                      o: 0 (valid) 0x321-0x322 (1)
     |                                               |                |                  [2]{}: in 0x322-0x323 (1)
0x320|      0b                                       |  .             |                    opcode: "end" (0xb) 0x322-0x323 (1)
     |                                               |                |            [20]{}: code 0x323-0x32c (9)
0x320|         08                                    |   .            |              size: 8 (valid) 0x323-0x324 (1)
     |                                               |                |              code{}: 0x324-0x32c (8)
     |                                               |                |                t{}: 0x324-0x325 (1)
0x320|            00                                 |    .           |                  n: 0 (valid) 0x324-0x325 (1)
     |                                               |                |                  x[0:0]: 0x325-0x325 (0)
     |                                               |                |                e[0:3]: 0x325-0x32c (7)
     |                                               |                |                  [0]{}: in 0x325-0x327 (2)
0x320|               20                              |                |                    opcode: "local.get" (0x20) 0x325-0x326 (1)
0x320|                  00                           |      .         |                    x: 0 (valid) 0x326-0x327 (1)
     |                                               |                |                  [1]{}: in 0x327-0x32b (4)
0x320|                     fd                        |       .        |                    opcode: "vector" (0xfd) 0x327-0x328 (1)
0x320|                        0a                     |        .       |                    v_opcode: "v128.load64_splat" (10) 0x328-0x329 (1)
     |                                               |                |                    m{}: 0x329-0x32b (2)
0x320|                           00                  |         .      |                      a: 0 (valid) 0x329-0x32a (1)
0x320|                              00               |          .     |                      o: 0 (valid) 0x32a-0x32b (1)
     |                                               |                |                  [2]{}: in 0x32b-0x32c (1)
0x320|                                 0b            |           .    |                    opcode: "end" (0xb) 0x32b-0x32c (1)
     |                                               |                |            [21]{}: code 0x32c-0x335 (9)
0x320|                                    08         |            .   |              size: 8 (valid) 0x32c-0x32d (1)
     |                                               |                |              code{}: 0x32d-0x335 (8)
     |                                               |                |                t{}: 0x32d-0x32e (1)
0x320|                                       00      |             .  |                  n: 0 (valid) 0x32d-0x32e (1)
     |                                               |                |                  x[0:0]: 0x32e-0x32e (0)
     |                                               |                |                e[0:3]: 0x32e-0x335 (7)
     |                                               |                |                  [0]{}: in 0x32e-0x330 (2)
0x320|                                          20   |                |                    opcode: "local.get" (0x20) 0x32e-0x32f (1)
0x320|                                             00|               .|                    x: 0 (valid) 0x32f-0x330 (1)
     |                                               |                |                  [1]{}: in 0x330-0x334 (4)
0x330|fd                                             |.               |                    opcode: "vector" (0xfd) 0x330-0x331 (1)
0x330|   0a                                          | .              |                    v_opcode: "v128.load64_splat" (10) 0x331-0x332 (1)
     |                                               |                |                    m{}: 0x332-0x334 (2)
0x330|      01                                       |  .             |                      a: 1 (valid) 0x332-0x333 (1)
0x330|         01                                    |   .            |                      o: 1 (valid) 0x333-0x334 (1)
     |                                               |                |                  [2]{}: in 0x334-0x335 (1)
0x330|            0b                                 |    .           |                    opcode: "end" (0xb) 0x334-0x335 (1)
     |                                               |                |            [22]{}: code 0x335-0x33e (9)
0x330|               08                              |     .          |              size: 8 (valid) 0x335-0x336 (1)
     |                                               |                |              code{}: 0x336-0x33e (8)
     |                                               |                |                t{}: 0x336-0x337 (1)
0x330|                  00                           |      .         |                  n: 0 (valid) 0x336-0x337 (1)
     |                                               |                |                  x[0:0]: 0x337-0x337 (0)
     |                                               |                |                e[0:3]: 0x337-0x33e (7)
     |                                               |                |                  [0]{}: in 0x337-0x339 (2)
0x330|                     20                        |                |                    opcode: "local.get" (0x20) 0x337-0x338 (1)
0x330|                        00                     |        .       |                    x: 0 (valid) 0x338-0x339 (1)
     |                                               |                |                  [1]{}: in 0x339-0x33d (4)
0x330|                           fd                  |         .      |                    opcode: "vector" (0xfd) 0x339-0x33a (1)
0x330|                              0a               |          .     |                    v_opcode: "v128.load64_splat" (10) 0x33a-0x33b (1)
     |                                               |                |                    m{}: 0x33b-0x33d (2)
0x330|                                 02            |           .    |                      a: 2 (valid) 0x33b-0x33c (1)
0x330|                                    02         |            .   |                      o: 2 (valid) 0x33c-0x33d (1)
     |                                               |                |                  [2]{}: in 0x33d-0x33e (1)
0x330|                                       0b      |             .  |                    opcode: "end" (0xb) 0x33d-0x33e (1)
     |                                               |                |            [23]{}: code 0x33e-0x347 (9)
0x330|                                          08   |              . |              size: 8 (valid) 0x33e-0x33f (1)
     |                                               |                |              code{}: 0x33f-0x347 (8)
     |                                               |                |                t{}: 0x33f-0x340 (1)
0x330|                                             00|               .|                  n: 0 (valid) 0x33f-0x340 (1)
     |                                               |                |                  x[0:0]: 0x340-0x340 (0)
     |                                               |                |                e[0:3]: 0x340-0x347 (7)
     |                                               |                |                  [0]{}: in 0x340-0x342 (2)
0x340|20                                             |                |                    opcode: "local.get" (0x20) 0x340-0x341 (1)
0x340|   00                                          | .              |                    x: 0 (valid) 0x341-0x342 (1)
     |                                               |                |                  [1]{}: in 0x342-0x346 (4)
0x340|      fd                                       |  .             |                    opcode: "vector" (0xfd) 0x342-0x343 (1)
0x340|         0a                                    |   .            |                    v_opcode: "v128.load64_splat" (10) 0x343-0x344 (1)
     |                                               |                |                    m{}: 0x344-0x346 (2)
0x340|            03                                 |    .           |                      a: 3 (valid) 0x344-0x345 (1)
0x340|               0f                              |     .          |                      o: 15 (valid) 0x345-0x346 (1)
     |                                               |                |                  [2]{}: in 0x346-0x347 (1)
0x340|                  0b                           |      .         |                    opcode: "end" (0xb) 0x346-0x347 (1)
     |                                               |                |            [24]{}: code 0x347-0x352 (11)
0x340|                     0a                        |       .        |              size: 10 (valid) 0x347-0x348 (1)
     |                                               |                |              code{}: 0x348-0x352 (10)
     |                                               |                |                t{}: 0x348-0x349 (1)
0x340|                        00                     |        .       |                  n: 0 (valid) 0x348-0x349 (1)
     |                                               |                |                  x[0:0]: 0x349-0x349 (0)
     |                                               |                |                e[0:3]: 0x349-0x352 (9)
     |                                               |                |                  [0]{}: in 0x349-0x34b (2)
0x340|                           20                  |                |                    opcode: "local.get" (0x20) 0x349-0x34a (1)
0x340|                              00               |          .     |                    x: 0 (valid) 0x34a-0x34b (1)
     |                                               |                |                  [1]{}: in 0x34b-0x351 (6)
0x340|                                 fd            |           .    |                    opcode: "vector" (0xfd) 0x34b-0x34c (1)
0x340|                                    07         |            .   |                    v_opcode: "v128.load8_splat" (7) 0x34c-0x34d (1)
     |                                               |                |                    m{}: 0x34d-0x351 (4)
0x340|                                       00      |             .  |                      a: 0 (valid) 0x34d-0x34e (1)
0x340|                                          80 80|              ..|                      o: 65536 (valid) 0x34e-0x351 (3)
0x350|04                                             |.               |
     |                                               |                |                  [2]{}: in 0x351-0x352 (1)
0x350|   0b                                          | .              |                    opcode: "end" (0xb) 0x351-0x352 (1)
     |                                               |                |            [25]{}: code 0x352-0x35d (11)
0x350|      0a                                       |  .             |              size: 10 (valid) 0x352-0x353 (1)
     |                                               |                |              code{}: 0x353-0x35d (10)
     |                                               |                |                t{}: 0x353-0x354 (1)
0x350|         00                                    |   .            |                  n: 0 (valid) 0x353-0x354 (1)
     |                                               |                |                  x[0:0]: 0x354-0x354 (0)
     |                                               |                |                e[0:3]: 0x354-0x35d (9)
     |                                               |                |                  [0]{}: in 0x354-0x356 (2)
0x350|            20                                 |                |                    opcode: "local.get" (0x20) 0x354-0x355 (1)
0x350|               00                              |     .          |                    x: 0 (valid) 0x355-0x356 (1)
     |                                               |                |                  [1]{}: in 0x356-0x35c (6)
0x350|                  fd                           |      .         |                    opcode: "vector" (0xfd) 0x356-0x357 (1)
0x350|                     08                        |       .        |                    v_opcode: "v128.load16_splat" (8) 0x357-0x358 (1)
     |                                               |                |                    m{}: 0x358-0x35c (4)
0x350|                        01                     |        .       |                      a: 1 (valid) 0x358-0x359 (1)
0x350|                           ff ff 03            |         ...    |                      o: 65535 (valid) 0x359-0x35c (3)
     |                                               |                |                  [2]{}: in 0x35c-0x35d (1)
0x350|                                    0b         |            .   |                    opcode: "end" (0xb) 0x35c-0x35d (1)
     |                                               |                |            [26]{}: code 0x35d-0x368 (11)
0x350|                                       0a      |             .  |              size: 10 (valid) 0x35d-0x35e (1)
     |                                               |                |              code{}: 0x35e-0x368 (10)
     |                                               |                |                t{}: 0x35e-0x35f (1)
0x350|                                          00   |              . |                  n: 0 (valid) 0x35e-0x35f (1)
     |                                               |                |                  x[0:0]: 0x35f-0x35f (0)
     |                                               |                |                e[0:3]: 0x35f-0x368 (9)
     |                                               |                |                  [0]{}: in 0x35f-0x361 (2)
0x350|                                             20|                |                    opcode: "local.get" (0x20) 0x35f-0x360 (1)
0x360|00                                             |.               |                    x: 0 (valid) 0x360-0x361 (1)
     |                                               |                |                  [1]{}: in 0x361-0x367 (6)
0x360|   fd                                          | .              |                    opcode: "vector" (0xfd) 0x361-0x362 (1)
0x360|      09                                       |  .             |                    v_opcode: "v128.load32_splat" (9) 0x362-0x363 (1)
     |                                               |                |                    m{}: 0x363-0x367 (4)
0x360|         02                                    |   .            |                      a: 2 (valid) 0x363-0x364 (1)
0x360|            fd ff 03                           |    ...         |                      o: 65533 (valid) 0x364-0x367 (3)
     |                                               |                |                  [2]{}: in 0x367-0x368 (1)
0x360|                     0b                        |       .        |                    opcode: "end" (0xb) 0x367-0x368 (1)
     |                                               |                |            [27]{}: code 0x368-0x373 (11)
0x360|                        0a                     |        .       |              size: 10 (valid) 0x368-0x369 (1)
     |                                               |                |              code{}: 0x369-0x373 (10)
     |                                               |                |                t{}: 0x369-0x36a (1)
0x360|                           00                  |         .      |                  n: 0 (valid) 0x369-0x36a (1)
     |                                               |                |                  x[0:0]: 0x36a-0x36a (0)
     |                                               |                |                e[0:3]: 0x36a-0x373 (9)
     |                                               |                |                  [0]{}: in 0x36a-0x36c (2)
0x360|                              20               |                |                    opcode: "local.get" (0x20) 0x36a-0x36b (1)
0x360|                                 00            |           .    |                    x: 0 (valid) 0x36b-0x36c (1)
     |                                               |                |                  [1]{}: in 0x36c-0x372 (6)
0x360|                                    fd         |            .   |                    opcode: "vector" (0xfd) 0x36c-0x36d (1)
0x360|                                       0a      |             .  |                    v_opcode: "v128.load64_splat" (10) 0x36d-0x36e (1)
     |                                               |                |                    m{}: 0x36e-0x372 (4)
0x360|                                          03   |              . |                      a: 3 (valid) 0x36e-0x36f (1)
0x360|                                             f9|               .|                      o: 65529 (valid) 0x36f-0x372 (3)
0x370|ff 03                                          |..              |
     |                                               |                |                  [2]{}: in 0x372-0x373 (1)
0x370|      0b                                       |  .             |                    opcode: "end" (0xb) 0x372-0x373 (1)
     |                                               |                |    [5]{}: section 0x373-0x3a2 (47)
0x370|         0b                                    |   .            |      id: "data_section" (11) 0x373-0x374 (1)
0x370|            2d                                 |    -           |      size: 45 (valid) 0x374-0x375 (1)
     |                                               |                |      content{}: 0x375-0x3a2 (45)
     |                                               |                |        seg{}: 0x375-0x3a2 (45)
0x370|               02                              |     .          |          n: 2 (valid) 0x375-0x376 (1)
     |                                               |                |          x[0:2]: 0x376-0x3a2 (44)
     |                                               |                |            [0]{}: seg 0x376-0x38b (21)
0x370|                  00                           |      .         |              tag: 0 (valid) 0x376-0x377 (1)
     |                                               |                |              e[0:2]: 0x377-0x37a (3)
     |                                               |                |                [0]{}: in 0x377-0x379 (2)
0x370|                     41                        |       A        |                  opcode: "i32.const" (0x41) 0x377-0x378 (1)
0x370|                        00                     |        .       |                  n: 0 (valid) 0x378-0x379 (1)
     |                                               |                |                [1]{}: in 0x379-0x37a (1)
0x370|                           0b                  |         .      |                  opcode: "end" (0xb) 0x379-0x37a (1)
     |                                               |                |              b{}: 0x37a-0x38b (17)
0x370|                              10               |          .     |                n: 16 (valid) 0x37a-0x37b (1)
0x370|                                 00 01 02 03 04|           .....|                x: raw bits 0x37b-0x38b (16)
0x380|05 06 07 08 09 0a 0b 0c 0d 0e 0f               |...........     |
     |                                               |                |            [1]{}: seg 0x38b-0x3a2 (23)
0x380|                                 00            |           .    |              tag: 0 (valid) 0x38b-0x38c (1)
     |                                               |                |              e[0:2]: 0x38c-0x391 (5)
     |                                               |                |                [0]{}: in 0x38c-0x390 (4)
0x380|                                    41         |            A   |                  opcode: "i32.const" (0x41) 0x38c-0x38d (1)
0x380|                                       f0 ff 03|             ...|                  n: 65520 (valid) 0x38d-0x390 (3)
     |                                               |                |                [1]{}: in 0x390-0x391 (1)
0x390|0b                                             |.               |                  opcode: "end" (0xb) 0x390-0x391 (1)
     |                                               |                |              b{}: 0x391-0x3a2 (17)
0x390|   10                                          | .              |                n: 16 (valid) 0x391-0x392 (1)
0x390|      10 11 12 13 14 15 16 17 18 19 1a 1b 1c 1d|  ..............|                x: raw bits 0x392-0x3a2 (16)
0x3a0|1e 1f|                                         |..|             |
