$ fq -d wasm dv simd_i32x4_cmp-0.wasm
    |00 01 02 03 04 05 06 07 08 09 0a 0b 0c 0d 0e 0f|0123456789abcdef|.{}: simd_i32x4_cmp-0.wasm (wasm) 0x0-0xc0 (192)
0x00|00 61 73 6d                                    |.asm            |  magic: raw bits (valid) 0x0-0x4 (4)
0x00|            01 00 00 00                        |    ....        |  version: 1 0x4-0x8 (4)
    |                                               |                |  sections[0:4]: 0x8-0xc0 (184)
    |                                               |                |    [0]{}: section 0x8-0x11 (9)
0x00|                        01                     |        .       |      id: "type_section" (1) 0x8-0x9 (1)
0x00|                           07                  |         .      |      size: 7 (valid) 0x9-0xa (1)
    |                                               |                |      content{}: 0xa-0x11 (7)
    |                                               |                |        ft{}: 0xa-0x11 (7)
0x00|                              01               |          .     |          n: 1 (valid) 0xa-0xb (1)
    |                                               |                |          x[0:1]: 0xb-0x11 (6)
    |                                               |                |            [0]{}: ft 0xb-0x11 (6)
0x00|                                 60            |           `    |              tag: 0x60 (valid) 0xb-0xc (1)
    |                                               |                |              rt1{}: 0xc-0xf (3)
0x00|                                    02         |            .   |                n: 2 (valid) 0xc-0xd (1)
    |                                               |                |                x[0:2]: 0xd-0xf (2)
0x00|                                       7b      |             {  |                  [0]: "v128" (0x7b) t 0xd-0xe (1)
0x00|                                          7b   |              { |                  [1]: "v128" (0x7b) t 0xe-0xf (1)
    |                                               |                |              rt2{}: 0xf-0x11 (2)
0x00|                                             01|               .|                n: 1 (valid) 0xf-0x10 (1)
    |                                               |                |                x[0:1]: 0x10-0x11 (1)
0x10|7b                                             |{               |                  [0]: "v128" (0x7b) t 0x10-0x11 (1)
    |                                               |                |    [1]{}: section 0x11-0x1e (13)
0x10|   03                                          | .              |      id: "function_section" (3) 0x11-0x12 (1)
0x10|      0b                                       |  .             |      size: 11 (valid) 0x12-0x13 (1)
    |                                               |                |      content{}: 0x13-0x1e (11)
    |                                               |                |        x{}: 0x13-0x1e (11)
0x10|         0a                                    |   .            |          n: 10 (valid) 0x13-0x14 (1)
    |                                               |                |          x[0:10]: 0x14-0x1e (10)
0x10|            00                                 |    .           |            [0]: 0 x (valid) 0x14-0x15 (1)
0x10|               00                              |     .          |            [1]: 0 x (valid) 0x15-0x16 (1)
0x10|                  00                           |      .         |            [2]: 0 x (valid) 0x16-0x17 (1)
0x10|                     00                        |       .        |            [3]: 0 x (valid) 0x17-0x18 (1)
0x10|                        00                     |        .       |            [4]: 0 x (valid) 0x18-0x19 (1)
0x10|                           00                  |         .      |            [5]: 0 x (valid) 0x19-0x1a (1)
0x10|                              00               |          .     |            [6]: 0 x (valid) 0x1a-0x1b (1)
0x10|                                 00            |           .    |            [7]: 0 x (valid) 0x1b-0x1c (1)
0x10|                                    00         |            .   |            [8]: 0 x (valid) 0x1c-0x1d (1)
0x10|                                       00      |             .  |            [9]: 0 x (valid) 0x1d-0x1e (1)
    |                                               |                |    [2]{}: section 0x1e-0x63 (69)
0x10|                                          07   |              . |      id: "export_section" (7) 0x1e-0x1f (1)
0x10|                                             43|               C|      size: 67 (valid) 0x1f-0x20 (1)
    |                                               |                |      content{}: 0x20-0x63 (67)
    |                                               |                |        ex{}: 0x20-0x63 (67)
0x20|0a                                             |.               |          n: 10 (valid) 0x20-0x21 (1)
    |                                               |                |          x[0:10]: 0x21-0x63 (66)
    |                                               |                |            [0]{}: ex 0x21-0x26 (5)
    |                                               |                |              nm{}: 0x21-0x24 (3)
0x20|   02                                          | .              |                n: 2 (valid) 0x21-0x22 (1)
0x20|      65 71                                    |  eq            |                b: "eq" 0x22-0x24 (2)
    |                                               |                |              d{}: 0x24-0x26 (2)
0x20|            00                                 |    .           |                tag: "funcidx" (0x0) 0x24-0x25 (1)
0x20|               00                              |     .          |                x: 0 (valid) 0x25-0x26 (1)
    |                                               |                |            [1]{}: ex 0x26-0x2b (5)
    |                                               |                |              nm{}: 0x26-0x29 (3)
0x20|                  02                           |      .         |                n: 2 (valid) 0x26-0x27 (1)
0x20|                     6e 65                     |       ne       |                b: "ne" 0x27-0x29 (2)
    |                                               |                |              d{}: 0x29-0x2b (2)
0x20|                           00                  |         .      |                tag: "funcidx" (0x0) 0x29-0x2a (1)
0x20|                              01               |          .     |                x: 1 (valid) 0x2a-0x2b (1)
    |                                               |                |            [2]{}: ex 0x2b-0x32 (7)
    |                                               |                |              nm{}: 0x2b-0x30 (5)
0x20|                                 04            |           .    |                n: 4 (valid) 0x2b-0x2c (1)
0x20|                                    6c 74 5f 73|            lt_s|                b: "lt_s" 0x2c-0x30 (4)
    |                                               |                |              d{}: 0x30-0x32 (2)
0x30|00                                             |.               |                tag: "funcidx" (0x0) 0x30-0x31 (1)
0x30|   02                                          | .              |                x: 2 (valid) 0x31-0x32 (1)
    |                                               |                |            [3]{}: ex 0x32-0x39 (7)
    |                                               |                |              nm{}: 0x32-0x37 (5)
0x30|      04                                       |  .             |                n: 4 (valid) 0x32-0x33 (1)
0x30|         6c 74 5f 75                           |   lt_u         |                b: "lt_u" 0x33-0x37 (4)
    |                                               |                |              d{}: 0x37-0x39 (2)
0x30|                     00                        |       .        |                tag: "funcidx" (0x0) 0x37-0x38 (1)
0x30|                        03                     |        .       |                x: 3 (valid) 0x38-0x39 (1)
    |                                               |                |            [4]{}: ex 0x39-0x40 (7)
    |                                               |                |              nm{}: 0x39-0x3e (5)
0x30|                           04                  |         .      |                n: 4 (valid) 0x39-0x3a (1)
0x30|                              6c 65 5f 73      |          le_s  |                b: "le_s" 0x3a-0x3e (4)
    |                                               |                |              d{}: 0x3e-0x40 (2)
0x30|                                          00   |              . |                tag: "funcidx" (0x0) 0x3e-0x3f (1)
0x30|                                             04|               .|                x: 4 (valid) 0x3f-0x40 (1)
    |                                               |                |            [5]{}: ex 0x40-0x47 (7)
    |                                               |                |              nm{}: 0x40-0x45 (5)
0x40|04                                             |.               |                n: 4 (valid) 0x40-0x41 (1)
0x40|   6c 65 5f 75                                 | le_u           |                b: "le_u" 0x41-0x45 (4)
    |                                               |                |              d{}: 0x45-0x47 (2)
0x40|               00                              |     .          |                tag: "funcidx" (0x0) 0x45-0x46 (1)
0x40|                  05                           |      .         |                x: 5 (valid) 0x46-0x47 (1)
    |                                               |                |            [6]{}: ex 0x47-0x4e (7)
    |                                               |                |              nm{}: 0x47-0x4c (5)
0x40|                     04                        |       .        |                n: 4 (valid) 0x47-0x48 (1)
0x40|                        67 74 5f 73            |        gt_s    |                b: "gt_s" 0x48-0x4c (4)
    |                                               |                |              d{}: 0x4c-0x4e (2)
0x40|                                    00         |            .   |                tag: "funcidx" (0x0) 0x4c-0x4d (1)
0x40|                                       06      |             .  |                x: 6 (valid) 0x4d-0x4e (1)
    |                                               |                |            [7]{}: ex 0x4e-0x55 (7)
    |                                               |                |              nm{}: 0x4e-0x53 (5)
0x40|                                          04   |              . |                n: 4 (valid) 0x4e-0x4f (1)
0x40|                                             67|               g|                b: "gt_u" 0x4f-0x53 (4)
0x50|74 5f 75                                       |t_u             |
    |                                               |                |              d{}: 0x53-0x55 (2)
0x50|         00                                    |   .            |                tag: "funcidx" (0x0) 0x53-0x54 (1)
0x50|            07                                 |    .           |                x: 7 (valid) 0x54-0x55 (1)
    |                                               |                |            [8]{}: ex 0x55-0x5c (7)
    |                                               |                |              nm{}: 0x55-0x5a (5)
0x50|               04                              |     .          |                n: 4 (valid) 0x55-0x56 (1)
0x50|                  67 65 5f 73                  |      ge_s      |                b: "ge_s" 0x56-0x5a (4)
    |                                               |                |              d{}: 0x5a-0x5c (2)
0x50|                              00               |          .     |                tag: "funcidx" (0x0) 0x5a-0x5b (1)
0x50|                                 08            |           .    |                x: 8 (valid) 0x5b-0x5c (1)
    |                                               |                |            [9]{}: ex 0x5c-0x63 (7)
    |                                               |                |              nm{}: 0x5c-0x61 (5)
0x50|                                    04         |            .   |                n: 4 (valid) 0x5c-0x5d (1)
0x50|                                       67 65 5f|             ge_|                b: "ge_u" 0x5d-0x61 (4)
0x60|75                                             |u               |
    |                                               |                |              d{}: 0x61-0x63 (2)
0x60|   00                                          | .              |                tag: "funcidx" (0x0) 0x61-0x62 (1)
0x60|      09                                       |  .             |                x: 9 (valid) 0x62-0x63 (1)
    |                                               |                |    [3]{}: section 0x63-0xc0 (93)
0x60|         0a                                    |   .            |      id: "code_section" (10) 0x63-0x64 (1)
0x60|            5b                                 |    [           |      size: 91 (valid) 0x64-0x65 (1)
    |                                               |                |      content{}: 0x65-0xc0 (91)
    |                                               |                |        code{}: 0x65-0xc0 (91)
0x60|               0a                              |     .          |          n: 10 (valid) 0x65-0x66 (1)
    |                                               |                |          x[0:10]: 0x66-0xc0 (90)
    |                                               |                |            [0]{}: code 0x66-0x6f (9)
0x60|                  08                           |      .         |              size: 8 (valid) 0x66-0x67 (1)
    |                                               |                |              code{}: 0x67-0x6f (8)
    |                                               |                |                t{}: 0x67-0x68 (1)
0x60|                     00                        |       .        |                  n: 0 (valid) 0x67-0x68 (1)
    |                                               |                |                  x[0:0]: 0x68-0x68 (0)
    |                                               |                |                e[0:4]: 0x68-0x6f (7)
    |                                               |                |                  [0]{}: in 0x68-0x6a (2)
0x60|                        20                     |                |                    opcode: "local.get" (0x20) 0x68-0x69 (1)
0x60|                           00                  |         .      |                    x: 0 (valid) 0x69-0x6a (1)
    |                                               |                |                  [1]{}: in 0x6a-0x6c (2)
0x60|                              20               |                |                    opcode: "local.get" (0x20) 0x6a-0x6b (1)
0x60|                                 01            |           .    |                    x: 1 (valid) 0x6b-0x6c (1)
    |                                               |                |                  [2]{}: in 0x6c-0x6e (2)
0x60|                                    fd         |            .   |                    opcode: "vector" (0xfd) 0x6c-0x6d (1)
0x60|                                       37      |             7  |                    v_opcode: "i32x4.eq" (55) 0x6d-0x6e (1)
    |                                               |                |                  [3]{}: in 0x6e-0x6f (1)
0x60|                                          0b   |              . |                    opcode: "end" (0xb) 0x6e-0x6f (1)
    |                                               |                |            [1]{}: code 0x6f-0x78 (9)
0x60|                                             08|               .|              size: 8 (valid) 0x6f-0x70 (1)
    |                                               |                |              code{}: 0x70-0x78 (8)
    |                                               |                |                t{}: 0x70-0x71 (1)
0x70|00                                             |.               |                  n: 0 (valid) 0x70-0x71 (1)
    |                                               |                |                  x[0:0]: 0x71-0x71 (0)
    |                                               |                |                e[0:4]: 0x71-0x78 (7)
    |                                               |                |                  [0]{}: in 0x71-0x73 (2)
0x70|   20                                          |                |                    opcode: "local.get" (0x20) 0x71-0x72 (1)
0x70|      00                                       |  .             |                    x: 0 (valid) 0x72-0x73 (1)
    |                                               |                |                  [1]{}: in 0x73-0x75 (2)
0x70|         20                                    |                |                    opcode: "local.get" (0x20) 0x73-0x74 (1)
0x70|            01                                 |    .           |                    x: 1 (valid) 0x74-0x75 (1)
    |                                               |                |                  [2]{}: in 0x75-0x77 (2)
0x70|               fd                              |     .          |                    opcode: "vector" (0xfd) 0x75-0x76 (1)
0x70|                  38                           |      8         |                    v_opcode: "i32x4.ne" (56) 0x76-0x77 (1)
    |                                               |                |                  [3]{}: in 0x77-0x78 (1)
0x70|                     0b                        |       .        |                    opcode: "end" (0xb) 0x77-0x78 (1)
    |                                               |                |            [2]{}: code 0x78-0x81 (9)
0x70|                        08                     |        .       |              size: 8 (valid) 0x78-0x79 (1)
    |                                               |                |              code{}: 0x79-0x81 (8)
    |                                               |                |                t{}: 0x79-0x7a (1)
0x70|                           00                  |         .      |                  n: 0 (valid) 0x79-0x7a (1)
    |                                               |                |                  x[0:0]: 0x7a-0x7a (0)
    |                                               |                |                e[0:4]: 0x7a-0x81 (7)
    |                                               |                |                  [0]{}: in 0x7a-0x7c (2)
0x70|                              20               |                |                    opcode: "local.get" (0x20) 0x7a-0x7b (1)
0x70|                                 00            |           .    |                    x: 0 (valid) 0x7b-0x7c (1)
    |                                               |                |                  [1]{}: in 0x7c-0x7e (2)
0x70|                                    20         |                |                    opcode: "local.get" (0x20) 0x7c-0x7d (1)
0x70|                                       01      |             .  |                    x: 1 (valid) 0x7d-0x7e (1)
    |                                               |                |                  [2]{}: in 0x7e-0x80 (2)
0x70|                                          fd   |              . |                    opcode: "vector" (0xfd) 0x7e-0x7f (1)
0x70|                                             39|               9|                    v_opcode: "i32x4.lt_s" (57) 0x7f-0x80 (1)
    |                                               |                |                  [3]{}: in 0x80-0x81 (1)
0x80|0b                                             |.               |                    opcode: "end" (0xb) 0x80-0x81 (1)
    |                                               |                |            [3]{}: code 0x81-0x8a (9)
0x80|   08                                          | .              |              size: 8 (valid) 0x81-0x82 (1)
    |                                               |                |              code{}: 0x82-0x8a (8)
    |                                               |                |                t{}: 0x82-0x83 (1)
0x80|      00                                       |  .             |                  n: 0 (valid) 0x82-0x83 (1)
    |                                               |                |                  x[0:0]: 0x83-0x83 (0)
    |                                               |                |                e[0:4]: 0x83-0x8a (7)
    |                                               |                |                  [0]{}: in 0x83-0x85 (2)
0x80|         20                                    |                |                    opcode: "local.get" (0x20) 0x83-0x84 (1)
0x80|            00                                 |    .           |                    x: 0 (valid) 0x84-0x85 (1)
    |                                               |                |                  [1]{}: in 0x85-0x87 (2)
0x80|               20                              |                |                    opcode: "local.get" (0x20) 0x85-0x86 (1)
0x80|                  01                           |      .         |                    x: 1 (valid) 0x86-0x87 (1)
    |                                               |                |                  [2]{}: in 0x87-0x89 (2)
0x80|                     fd                        |       .        |                    opcode: "vector" (0xfd) 0x87-0x88 (1)
0x80|                        3a                     |        :       |                    v_opcode: "i32x4.lt_u" (58) 0x88-0x89 (1)
    |                                               |                |                  [3]{}: in 0x89-0x8a (1)
0x80|                           0b                  |         .      |                    opcode: "end" (0xb) 0x89-0x8a (1)
    |                                               |                |            [4]{}: code 0x8a-0x93 (9)
0x80|                              08               |          .     |              size: 8 (valid) 0x8a-0x8b (1)
    |                                               |                |              code{}: 0x8b-0x93 (8)
    |                                               |                |                t{}: 0x8b-0x8c (1)
0x80|                                 00            |           .    |                  n: 0 (valid) 0x8b-0x8c (1)
    |                                               |                |                  x[0:0]: 0x8c-0x8c (0)
    |                                               |                |                e[0:4]: 0x8c-0x93 (7)
    |                                               |                |                  [0]{}: in 0x8c-0x8e (2)
0x80|                                    20         |                |                    opcode: "local.get" (0x20) 0x8c-0x8d (1)
0x80|                                       00      |             .  |                    x: 0 (valid) 0x8d-0x8e (1)
    |                                               |                |                  [1]{}: in 0x8e-0x90 (2)
0x80|                                          20   |                |                    opcode: "local.get" (0x20) 0x8e-0x8f (1)
0x80|                                             01|               .|                    x: 1 (valid) 0x8f-0x90 (1)
    |                                               |                |                  [2]{}: in 0x90-0x92 (2)
0x90|fd                                             |.               |                    opcode: "vector" (0xfd) 0x90-0x91 (1)
0x90|   3d                                          | =              |                    v_opcode: "i32x4.le_s" (61) 0x91-0x92 (1)
    |                                               |                |                  [3]{}: in 0x92-0x93 (1)
0x90|      0b                                       |  .             |                    opcode: "end" (0xb) 0x92-0x93 (1)
    |                                               |                |            [5]{}: code 0x93-0x9c (9)
0x90|         08                                    |   .            |              size: 8 (valid) 0x93-0x94 (1)
    |                                               |                |              code{}: 0x94-0x9c (8)
    |                                               |                |                t{}: 0x94-0x95 (1)
0x90|            00                                 |    .           |                  n: 0 (valid) 0x94-0x95 (1)
    |                                               |                |                  x[0:0]: 0x95-0x95 (0)
    |                                               |                |                e[0:4]: 0x95-0x9c (7)
    |                                               |                |                  [0]{}: in 0x95-0x97 (2)
0x90|               20                              |                |                    opcode: "local.get" (0x20) 0x95-0x96 (1)
0x90|                  00                           |      .         |                    x: 0 (valid) 0x96-0x97 (1)
    |                                               |                |                  [1]{}: in 0x97-0x99 (2)
0x90|                     20                        |                |                    opcode: "local.get" (0x20) 0x97-0x98 (1)
0x90|                        01                     |        .       |                    x: 1 (valid) 0x98-0x99 (1)
    |                                               |                |                  [2]{}: in 0x99-0x9b (2)
0x90|                           fd                  |         .      |                    opcode: "vector" (0xfd) 0x99-0x9a (1)
0x90|                              3e               |          >     |                    v_opcode: "i32x4.le_u" (62) 0x9a-0x9b (1)
    |                                               |                |                  [3]{}: in 0x9b-0x9c (1)
0x90|                                 0b            |           .    |                    opcode: "end" (0xb) 0x9b-0x9c (1)
    |                                               |                |            [6]{}: code 0x9c-0xa5 (9)
0x90|                                    08         |            .   |              size: 8 (valid) 0x9c-0x9d (1)
    |                                               |                |              code{}: 0x9d-0xa5 (8)
    |                                               |                |                t{}: 0x9d-0x9e (1)
0x90|                                       00      |             .  |                  n: 0 (valid) 0x9d-0x9e (1)
    |                                               |                |                  x[0:0]: 0x9e-0x9e (0)
    |                                               |                |                e[0:4]: 0x9e-0xa5 (7)
    |                                               |                |                  [0]{}: in 0x9e-0xa0 (2)
0x90|                                          20   |                |                    opcode: "local.get" (0x20) 0x9e-0x9f (1)
0x90|                                             00|               .|                    x: 0 (valid) 0x9f-0xa0 (1)
    |                                               |                |                  [1]{}: in 0xa0-0xa2 (2)
0xa0|20                                             |                |                    opcode: "local.get" (0x20) 0xa0-0xa1 (1)
0xa0|   01                                          | .              |                    x: 1 (valid) 0xa1-0xa2 (1)
    |                                               |                |                  [2]{}: in 0xa2-0xa4 (2)
0xa0|      fd                                       |  .             |                    opcode: "vector" (0xfd) 0xa2-0xa3 (1)
0xa0|         3b                                    |   ;            |                    v_opcode: "i32x4.gt_s" (59) 0xa3-0xa4 (1)
    |                                               |                |                  [3]{}: in 0xa4-0xa5 (1)
0xa0|            0b                                 |    .           |                    opcode: "end" (0xb) 0xa4-0xa5 (1)
    |                                               |                |            [7]{}: code 0xa5-0xae (9)
0xa0|               08                              |     .          |              size: 8 (valid) 0xa5-0xa6 (1)
    |                                               |                |              code{}: 0xa6-0xae (8)
    |                                               |                |                t{}: 0xa6-0xa7 (1)
0xa0|                  00                           |      .         |                  n: 0 (valid) 0xa6-0xa7 (1)
    |                                               |                |                  x[0:0]: 0xa7-0xa7 (0)
    |                                               |                |                e[0:4]: 0xa7-0xae (7)
    |                                               |                |                  [0]{}: in 0xa7-0xa9 (2)
0xa0|                     20                        |                |                    opcode: "local.get" (0x20) 0xa7-0xa8 (1)
0xa0|                        00                     |        .       |                    x: 0 (valid) 0xa8-0xa9 (1)
    |                                               |                |                  [1]{}: in 0xa9-0xab (2)
0xa0|                           20                  |                |                    opcode: "local.get" (0x20) 0xa9-0xaa (1)
0xa0|                              01               |          .     |                    x: 1 (valid) 0xaa-0xab (1)
    |                                               |                |                  [2]{}: in 0xab-0xad (2)
0xa0|                                 fd            |           .    |                    opcode: "vector" (0xfd) 0xab-0xac (1)
0xa0|                                    3c         |            <   |                    v_opcode: "i32x4.gt_u" (60) 0xac-0xad (1)
    |                                               |                |                  [3]{}: in 0xad-0xae (1)
0xa0|                                       0b      |             .  |                    opcode: "end" (0xb) 0xad-0xae (1)
    |                                               |                |            [8]{}: code 0xae-0xb7 (9)
0xa0|                                          08   |              . |              size: 8 (valid) 0xae-0xaf (1)
    |                                               |                |              code{}: 0xaf-0xb7 (8)
    |                                               |                |                t{}: 0xaf-0xb0 (1)
0xa0|                                             00|               .|                  n: 0 (valid) 0xaf-0xb0 (1)
    |                                               |                |                  x[0:0]: 0xb0-0xb0 (0)
    |                                               |                |                e[0:4]: 0xb0-0xb7 (7)
    |                                               |                |                  [0]{}: in 0xb0-0xb2 (2)
0xb0|20                                             |                |                    opcode: "local.get" (0x20) 0xb0-0xb1 (1)
0xb0|   00                                          | .              |                    x: 0 (valid) 0xb1-0xb2 (1)
    |                                               |                |                  [1]{}: in 0xb2-0xb4 (2)
0xb0|      20                                       |                |                    opcode: "local.get" (0x20) 0xb2-0xb3 (1)
0xb0|         01                                    |   .            |                    x: 1 (valid) 0xb3-0xb4 (1)
    |                                               |                |                  [2]{}: in 0xb4-0xb6 (2)
0xb0|            fd                                 |    .           |                    opcode: "vector" (0xfd) 0xb4-0xb5 (1)
0xb0|               3f                              |     ?          |                    v_opcode: "i32x4.ge_s" (63) 0xb5-0xb6 (1)
    |                                               |                |                  [3]{}: in 0xb6-0xb7 (1)
0xb0|                  0b                           |      .         |                    opcode: "end" (0xb) 0xb6-0xb7 (1)
    |                                               |                |            [9]{}: code 0xb7-0xc0 (9)
0xb0|                     08                        |       .        |              size: 8 (valid) 0xb7-0xb8 (1)
    |                                               |                |              code{}: 0xb8-0xc0 (8)
    |                                               |                |                t{}: 0xb8-0xb9 (1)
0xb0|                        00                     |        .       |                  n: 0 (valid) 0xb8-0xb9 (1)
    |                                               |                |                  x[0:0]: 0xb9-0xb9 (0)
    |                                               |                |                e[0:4]: 0xb9-0xc0 (7)
    |                                               |                |                  [0]{}: in 0xb9-0xbb (2)
0xb0|                           20                  |                |                    opcode: "local.get" (0x20) 0xb9-0xba (1)
0xb0|                              00               |          .     |                    x: 0 (valid) 0xba-0xbb (1)
    |                                               |                |                  [1]{}: in 0xbb-0xbd (2)
0xb0|                                 20            |                |                    opcode: "local.get" (0x20) 0xbb-0xbc (1)
0xb0|                                    01         |            .   |                    x: 1 (valid) 0xbc-0xbd (1)
    |                                               |                |                  [2]{}: in 0xbd-0xbf (2)
0xb0|                                       fd      |             .  |                    opcode: "vector" (0xfd) 0xbd-0xbe (1)
0xb0|                                          40   |              @ |                    v_opcode: "i32x4.ge_u" (64) 0xbe-0xbf (1)
    |                                               |                |                  [3]{}: in 0xbf-0xc0 (1)
0xb0|                                             0b|               .|                    opcode: "end" (0xb) 0xbf-0xc0 (1)
